ccopy_reg
_reconstructor
p0
(cemoji
Emoji
p1
c__builtin__
object
p2
Ntp3
Rp4
(dp5
S'emojipedia_url'
p6
Vhttp://emojipedia.org/flag-for-Isle-of-Man/
p7
sS'index'
p8
V1009
p9
sS'code'
p10
VU+1F1EE U+1F1F2
p11
sS'apple'
p12
S''
p13
sS'twit'
p14
g13
sS'gmail'
p15
g13
sS'related_to'
p16
(lp17
sS'name'
p18
Vflag for Isle of Man
p19
sS'known_as'
p20
(lp21
sS'default'
p22
Vemoji
p23
sS'bw'
p24
S'data:image/png;base64,iVBORw0KGgoAAAANSUhEUgAAAGwAAABsCAYAAACPZlfNAAAEnElEQVR42u2dT0gcVxzHXd111h13ZndmJ4tpdmOiJfgnohY3EGJKDiVQaOhBipBDjJdcIgQEl7QQNbRFg4ccWmuhBCk0QXIwUPBQsShsEy00wYYcFKOXeBGJglFQhF933uroOq471nWdWb9f+DLrznsrzIffe7/5vTdMFkGWUhYuAYBBAAYBGIBBAAYBGIBBAAYBGIBBAAYBGIBBAAYBGIBBpgE2PDxMsHXMgL3ylcEWMIABGAxgMIABGAxgMIABGAxgMIABGAxgMIABGAxgMIABGAxgMIABmNX8dX4BFbrcAGYFj8mlbAvY4huFHY30+eqqk0qCDgBLhVX1imeStvuIy6PZ2VmamZlhfVbfnmDHK7WXk/b9tILT2k9NTVFzczO9e3WB/V59fb1h8AC2AUzVywTnn8sl7HxPTw87Li0tsWMw4NP6JvsfKqz3rxXdRk31+9XVVZIEEcCMWnBw1NTURA5Hju5c0elC3UWORCLsQq+vrxsGprpM5GhtbU3ro35Wcp0YEv+Pr34WoqGhIWptbdW+Gx0dTbiFWQXW1y1qf3957dq+onlwcBBz2EH8h3Qu6T7z2trarT3nWfrHBPYDDElHCtzR0UEtLS3sgi4sLOiAzM3NUZUzlsqf50Xd+QfuwN5DL88DWCrdFb3gqoqKimhgYIA8bjeLpDu8X9e2Pk/SAevu7t7z90VRpFAoBGCpzhj7vcVJ2z32nGVtOzs7DQ2L//hK9z18ApgB//S9m7q+yaeLAm8IrjsahUZAcA4HgB2G//5dYhngZY8xYG1tbXEgPs/zJmw7MTEBYKn2JYnf1/A5MjIS/8RidM7bKztUNTY2BmBH4XA4zG64N3XvDk/ny0sp22bbFdjmfHexJgRg6XZ7ezv9+lCgtxGZRYwi59Kpgvh56oVcsmuElbkEAEunf9vIEFWFwy1szvswESvs+v3+ODgfR28RdgJDtf6IisWbUoe64jOuuO+2Z4+Tk5NapR7A0uxcu33XstWjLiFhSetkgQhgZomu7cXgZHryg0c3twHYIbq/v/9AwPyKi2TJhQg7iuhSl0c2xdtjS/8/CqfJL/tofn4+IbSqqioAS4dPyPKuAJy5nKH+6g21X5KxpyNdDgaDGqTCwtgq9CcVFdg1ZUbfvHGDAVpeXqbq6upYZEWzRexLNKnHx8fp5w6BOu/ms+Ti2S8ebCQ1s3NsNrp7W9Si7Ltv7xtaYQYwE2SIirK1Va2yshLAzOpbLoV6e3s1WA0NDdTY2EiZ/KxARlQ6pqenddvfIhapXKD4G1VNTY2l6oPHdj1sp9z81ko1Z7cBmJmhLS4ualH2hVdgqT+AmRxaIBAge3YOPfUWxx5wyABoGfsEZr5ra/FSfUBi/l+FrosSgJk90vr6+rSdU9m2LACzwtBYV1eHLNEK9nq9VF5ebpnVZERYVD7Zg/swK/ivaFSpWaEjw5ZcMhaYj3OyCPtTOgdgVpm/MrE8lbHAVlZWqIDLAzAYwGAAAzAYwGAAAzAYwGAAO5bAYAu9xxnvHser7SEAgwAMwCAAgwAMwCAAgwAMwCAAgwAMwCAAgwAMwCCz6D/U23CA4C0wSwAAAABJRU5ErkJggg=='
p25
sS'version'
p26
VV6.0\u02e3
p27
sS'uni'
p28
g13
sS'desc'
p29
g13
sS'browser'
p30
V\U0001f1ee\U0001f1f2
p31
sS'annotations'
p32
(lp33
Vflag
p34
aVisle of man
p35
aVother
p36
asS'wind'
p37
g13
sS'andr'
p38
S'data:image/png;base64,iVBORw0KGgoAAAANSUhEUgAAAEgAAABICAMAAABiM0N1AAAABGdBTUEAALGPC/xhBQAAAAFzUkdCAK7OHOkAAAMAUExURUxpcedUZveLmOlbbfiLmOBDV/aQnO+NmOxjdPSTnvBufveHlfeIlveOm+RPYuJHW+haa+NLXveGlOZTZfWLmPaFk/iMmetgcfWSnfaCkO5peeNKXfWAjveGleRNYPiMmfeLmfeIlveHlfiOm/iMmfeMmfJ4h+xmd/V+jfeJl+VRZPJ3hveKmPWBj/Fygu5qeveHle9sfPeKl/eKmPR8i/J1hepgce5sfPJ1hPaEkviJl/iOm/aFk/iLmPN6ivWCkO9vf+dWaPR8i/R+jfJ5iOdXafaGlPJ4h/R8jO5qe/WBj/WCkfFzg/aFk/V/jvBygveJl+1oePaEkveJl+habOxkdM8UK88TKtAWLdATKtIbMdAVLM4TKtoxRtMdM84RKc0SKdEYL9YmPMwTKtQhN906TtgrQcwVLMMeM8geM9UkOd49Ud8/U9QfNdw2S8oWKds0SMkXLb0mOMQZLcsTKv///9ktQ+BCVcIZJ8cVKcQqPcSUms7Hx7pCUeDd3dvb2Ono6M3HmrlhG7pMW69hZcRlcL07S70rPcJdae3t7cvGrq1uXOPk5LhYZPv8/NKkq/X19vj4+NcpPrc8S78cLa9CRKZ+WMKxs7c4P7iPj7J7fM2Kkr+pp8zJybkxOrWBhb8jNMOboMJ0fcODh7tze+nq6cJTYNvU1K04N75rcsq3s78yQr9HVtKip8uTmdDQ0dixtsM2R8rCjsYZL+HOz/Dp6urq5cisq8S8f7irZdbSx+bj4sGjmeHh4a9wd61OSK+PbqY+Lb4cJ7JTWqxVW6lYVMMnJrqON76rnKqWar5sGrVqRsK7vLJHVbatjcrAwa4yNbeVY7FEHLIrNNbS0sVfa829v69/P7SDZbpSH7Q9Ia1kSLmcnrKXjsG+vdHOprNOWsQ+TcE4ScSumL61qMdVY8OzT7NUX/Dx8drIyrqgo8nDotOYoMy8vb+3k6piQtPIydqqsOfW2cZ1f8WkormmT+vj5PLy6q+Lfd/dxM29qr24it3ZvsO2YrixeL4pPCpzImkAAABWdFJOUwDzG+0w/ggB4gLLUEkM+P3x+V71D2Yd6QV51vuDWvkoH01GFSISqtySOfa0M3zB1FbPPSufvubXuWw/F2kjooDG8pWOovVUsZzZhnbIY4rEQd5yROnlw1ObMwAABVVJREFUWMNjYBgFgx1IsHBbiVDBHBHJQEZxO1uKzVH2c80Ki+LXYKPQHFsTrdzwsPAUT3nKgkfJlD8qDAgitGQpMcbYiyMvAmROWHiqkwSZpnAqW/mZ86eEh0EMSuJSwKOWl8nYSFHWV1RUSJabJ0BTx1jeVkFMTExFXkdJVENPvDwrDGpOWFiiAA8OU9hsuWXUuDiYGfkEBQXltIQdBZjNONSl9A0NDfXVzRwFsydFIYwBOqncixObMUwGHvqOrLFZcYkR0SB10RERiVFRcXG5uSkpKblxUYlh4UimgAxK01PGNEbB0t8xLyUiPBxdNQyEYYIocSOMpCrkz5cWgVU1PsDvjeY3YxOBsghSTQG6NtYdJcNxKvmwRpFuDNCgOA4WZHPcPAvCyDEHCPhskMzhDiwLIxOE59khMq6meVk42QalSMEzLpN7ahj5IELYAGaQpFYiBQaFZ8MzrmlsDB6FkZEEDEriEoMa5JOGLYSgYjHFxTH4TUJkXO1YLAZtLkoHUSVFs7pXg6TTD1XEJJQkY7OxXAaauD1SMQ0Kz9w3IyEyJuP5wl2NiwuBAvlNp8+uaGlOx2JQmqkqxCAvViwuSj88bUZJ+7rdPa83vX0YDjLo4plzJ48UYsu4ZpoQg4IEsXm9+PbdJduXvlj/bue2N5nAsKqYen7mhUrsGTeIHWyQECPW2Ci6U7++puZVy/yGrU8TgPy2a8sSInFkXF6wQTwhWNNRyco5LQ9qiyo76vo+ZoaHxa+puRqPPQHkqkMyrg5HFFb5eddvlYRHhm98OWHrsoSw+Oa5s9OxJ4BoPl9IbSeVizWrVZy6mQ+kMvs7S/szIxM66jZkhuPIuCbgjGvtkIRdQUVlDNiL9X2/VpTE99ZvqcJhUJY+uBEgop2GL/Fu7v7XuHNPa0ZtzYdHOAqJCEY3cBVkhy+zhbdt+fl3x966tb3bl6+Jx5VxNUAZl9MvFU9xlP95YumfxgkNe1d97WrGZVCSAxPISd7luA0Kz9hQOmHX7++lE7dtgmQWrBmXORhkkK80Hp9t/NS3d/ePL98mljbcv1GMq0xhtQclbm5h3AaV9DZ09vS3L6hdtK56ztFKXNalWYAyrhVzBM5ibXN1fdee1QmR8SWFxUUZOO2DZFwW7EkbDAq7dzx7nxGOXNZhBdKWQL+p6OfiVBAz73HXkyUZhGqZ8Fg1YMZVxpW0wQVTbXXdvUWZBEyCZFxeizQ86hKqqpcub00n4KRoLWCNK+FSgC+PxFSt7ZzellyJtxIIz9EAJm3nVLwuj6mafWXh5UvH8JokbQ+qIlnxB0F4Zuuqmceb8vEoieXSARokKk2oPi3pmHviYCUeczx5OMFJO4KAQZHt0+dPwe21AnNFcN1mxUyo9o9ccGB/Mi6PR2T7BEDqEXxJG2rQlGlTE3A12qS1dWB9FDxJG2pQxqzJOHw2SUAD3vy3xpe0oQl8MtYcGx6VbW6DaI7yaqcRbLIlYHFQeGKsgJ0mUvuYzaWAjJZxeFQso4UBauvYOTUGQxnQ6IiICEjDH9OQsMSkHGZtIWu0Zr8uStIOD4+ISyrIkeZjdGTUEmRNLUvKjUqMgHUmgOZHZcWyCnA586hidENEBZGTRVYqH4eei4ylLLeiooGorpOanj6wvyTHz5qTk53Dys/nyMGlpssjhq3Px80YAfd4gbChhxCLNRtSB05ZhQXYg7Px1pWRsZe0lA1mEcPVKTaCJu3wuGxxNVkVCbL7qSwcceEgTxWImwTzUtJvFuNKig8PT5GzUOSlcHxC0jUpLlbcnonikQVVSS51Czc2Kox1cDLJq46OHA0dAAC4Rl1ngHyPSAAAAABJRU5ErkJggg=='
p39
sb.