ccopy_reg
_reconstructor
p0
(cemoji
Emoji
p1
c__builtin__
object
p2
Ntp3
Rp4
(dp5
S'emojipedia_url'
p6
Vhttp://emojipedia.org/flag-for-Kosovo/
p7
sS'index'
p8
V1019
p9
sS'code'
p10
VU+1F1FD U+1F1F0
p11
sS'apple'
p12
S''
p13
sS'twit'
p14
g13
sS'gmail'
p15
g13
sS'related_to'
p16
(lp17
sS'name'
p18
Vflag for Kosovo
p19
sS'known_as'
p20
(lp21
sS'default'
p22
Vemoji
p23
sS'bw'
p24
S'data:image/png;base64,iVBORw0KGgoAAAANSUhEUgAAAGwAAABsCAYAAACPZlfNAAACVElEQVR42u3bvUrDUBjG8V6MdlQE8QYEh3ZRiohY1NUbaMUPFLo4lwq6SitYOnR0kqziFzjoppOTg5cQiVgoReNpm5Oc5/h/4NlSa87PN01jkguJVHIsAWAEMAIYYAQwAhhgBDACGGAEMAIYYAQwMhRYEAQh1ekX2EShRQUKGGAUMAoYYBQwChhgFDAKGGBOdXalY7zt3dM7YLY6XWobbRdlqnRhvC1glmq6uL0ktZ3LsNJgv8V0u5nlNmBJYkWptx6HQht3u1Gm0XuwuIV4fvkwmhpbYKZTm9UkOgf208KZ/izThY0yWRz/vQH7bvfq1WjRgpu3kX+H2ultIofPKPniuX9gcfkLNM2/4ihzq53Y9x5mX6QnLIsd9G1fUj8k+oCV5b5kMmEunza7vi+pg6X12fTQWgyvz0pe7IvXV+sjqP7eN5e4Wq+C1StggAFmE2wQb37tGDAltKgbW0eAqWApHyr/NZgimhdgo0CposmDjYsFGGCA2QZTgpMGSxJLBU4GzBaO2pQ5Cza4eGmBFdbrgLk4SXGt7VcAUwLrb7WyB5gamkufcU6fdIAmdtIBFhMGmK0ulBuAKX5xBkvwSocLWAc724CpgPE9THDCABNCY8JEwLiWKIgHmBgcYAJo/D+MezoAS+KOX8AcBxt83eVJWe5Wt38BZvpawDIE8+mZMC8fhgAMMMBs9nC3ChgTBpiV5otNwBQnrNvY9BrLy4fSfS9ggFHAKGCAUcAoYIBRwKgJGNVpLiRSAQwwAhgBDDACGAEMMAIYAQwwAhgBDDCSdT4B7VE6VQVlHdsAAAAASUVORK5CYII='
p25
sS'version'
p26
VV6.0\u02e3
p27
sS'uni'
p28
g13
sS'desc'
p29
g13
sS'browser'
p30
V\U0001f1fd\U0001f1f0
p31
sS'annotations'
p32
(lp33
Vflag
p34
aVkosovo
p35
aVother
p36
asS'wind'
p37
g13
sS'andr'
p38
S'data:image/png;base64,iVBORw0KGgoAAAANSUhEUgAAAJAAAACQCAYAAADnRuK4AAAABmJLR0QA/wD/AP+gvaeTAAAcFElEQVR42u1dB1hU59JesCeaxNTfmHuTaGLs0Rv1mhhbYhIbHURBVBRQsZFYsIa1xIYgqKgrHZatZ5fetrOAvSZqEkuiJiaW2KWX+c98iBeRLi57ds88zzzIyrb53jN95nA4LLHEEkssscQSSyyxxBJLLLHEEkssscQSSyyxxBJLLLHU/LQl3KoTP/7VL6MSC1wFiZ3G7trl/RorFZbqJZ7A83WJ6hWeXF9UkJBbAJUcn11YKlV3kEbEDevGSomlGiki4Yve8qyyKzJ9Hvju/BnGz1fBZ9OS4Zu5CvAJ+BHE2gcgzyq5G5syeDgrLZaeIEFin/4yffn1WMVdGDUrDT4YH/cUD3FJgH1JN4HWTrd5kt7/ZqXGEqGoxB7D5Pri29EZd+Azt6QawVPJQ6cmgkT3EMQqy2hWcixxYpP+z0GeXZwfmvwP/JfWMHWBp5KX7TgL8uzS/JAQx46sBM2UgFNqIcp8dVV8TmFZsOQqDHCiGgQe5LHeSuJYC1I7O7CSNEPaHTens0TVPgFB4LfvPPS2ETUYPMg9JgpBoL4PUtaMmR/FJfYYLcsqv4yR1sy1hxsFnKr8Pe8cyHRl/3BH+bVmpWoOWmf3sM5iZbs98TkF5ejvfOGZ3mTwIDssySJmLCrxvRGsdE2YvLw829C+zlxZVtkNeXY+LA46TZss8TOBB7mvnQQoWouJVW23sVI2QeJyR7YXZLTzkOnKL6Cm2C76E0bNTHtm4FTlrfzLQGktzrHSNiGKFr3fQ6zq8IMsq+QaAmeX7G+w9tE2K3Aqedqag5CQUwAR/CG9WckzlCRODq2iJZ2GiBWt1lAai2PxOfmApmpj1O+kFPE8gFPJgybHA+1TgSjTYrmZCd2+1Y7Qt9/Zx+80WKTo8nVMcpGLVN3RQ5DSarEgrWCVUJG3RqTK+16goBl/T7NYIs3s4i3Tt57BTymYKoh/0UGq6P51VOKDEfgaVPLwDwMi8v/F9Rr5uparek5RCVhs3Pj5GzEJXf8rzHjZTaSErZSmlUqWVXSfFDvpg9wh/Qs81x+lD1b+XIFTlXfJrgGlaZ1rkkDZsWP+S7Hxr40SZVgsotQd9lBajobSlF+SZRWUVq00NyejBpDqCotlWovbMn3pJYmq8FeZpvUxub5UJ1YVKCXK8hSZuoNUnl0WLdE+jBSr8sJFioJQwqqCMLE6LyJe3z5WqmyVIFEXqChtqyMyXenvlLaosOr7oAMbIr8GvjvPgtOybBjoJDMYaKqy9+YTIM8pKAsNtXqL8YDZs+erN/mpnVwkqrY8Sgs/ybMLyyoFLlTfh2DJX7CGdw7mbzkJbqsPgI2PDr6anUEqzoOnxENfewp6WovhIyvhY+5pLYI+dlIYQB/QUNcE+NQtGYa7p9HPyyQmAv0LZ99smLrqAMzwOwxzNx2Hhf6n6GjnDKze+wv4hV6AH2hzEij8g7w/XrG8xJsQmXYLojNuQ3TmHYhR3CWM/8bHwugwO0R+HYLEV2FTzCWSc/EJ+AncuYfB9lsdfD49hXy2lgBMdR4xM7VCvukvzWJmfiP2tY+Ema1WSzWWh+Q5FYARaR7A5pjLMHfjcbBepIFPnOPhwwlxRiFwU2OUa2T6bZCq2yYyBjRhYY6vijJeXlThNP7P/nvTV/9oj3ToMUHAHq4BeWnwGZDri/O4vL0vGDVw9ore+1iisoyUPeqWQ3OAav0TAzqNLD/NaMrxPOKS3rQxSuBEyt4cKtW0SUcHVax9SBzHEe6p7OEZCaM/JtLcxx6hcKMCTox8YC+J2jIJgcNX3oPZPxyD/g5S9tCMkLl0sCDTlV3jcsssWxw44eFWncTKFwLjc4qL0SFG4PSxFbMHZcQ8aVk2MWMR0jc+a1Hw8JO6jZNllV1BrbMi5BcY4EixB8QA7mcvBZk+H6SqjptbBDg8nucLYmWnPQgcXuINkp9hD4ZZvE1wBSht+VnDFwDlg3tQOs6PCJ5vA38iyTv2QJjHM/wOoRkr3xc9rIfBwBOb2mOsLKvkbhztJE9cqGYPgsGMYz8kK53ZfolBwBOX0tUrPqeoZLf8GgyeksAsm28nBusFaU3K3JoyiHbHXwdKw8l67uARpnXxRZO1JeYSIyOsLz2SIFV/CfraNdzcDp5MwfyN2dB9nOkCaMHWkyDXF5byeBNff27gEaW/uRxV3drQC8ZTFJzecA2IAHBeooD7D4vBe4O+wYBA0J2+cAv+M8l0c1mjZ6VXjPykvzz9+ZittLfnoubhhp6HHhONo2b1/lg+hIhOg+3C9FrB0NdWBIOcKTICg6Bf7L8fkM5dugt96Mc+fFR/q+35+PgkGnRFxWWwNeIEdKPfs0EmD+ew5qQwRmuhHHDCVaq2lDV/jif1g4m0z1O6Kfp3+Gii0Ii+dBxk5l4B5f4/agU1Aicy/me4e78Ibt0thMKiMgKg0rJy+Pm3O6A7cpXwFhocva2Fj0AnhgW0yfLZkgOTlypgW9RJKC8H+vkFMN47FT52wNYRAR11Ch8DsDr3ov8vWXcJhkxhTj4MS010YPSAy41o33z1LKpvz/js8nvYo9vbSHye7pW1HBo0Z3+7DSWlZTBtpZpc7ZVc1enFKr/7Gg1cuHIPaqLjP9+EMZ5Jj18X2d4nA346f4u8dhkNtkp6mF8C92gTePteIfBTztFOec2+FILs9z/vw/aYUw3WWi3NGE2T4mpy1/HNAp7AwIAOMh38hPWswZPjjeJLTlmmhJU7DkKI8DTwpGdojVJKDvbG7XzIPfE3nKDBoDv8J9gtSq8xAkPTVZUOnLoGg2rxbQY4SkGaeeEpwCGoYpJ/rXEytPsjRs1z83YB+VyjZyYRczvIWQqj3BPp59Wsxfvbi8GBBm63cS0DuF7WIrIKRqK05DWP06xsvx17dqyMKM+DEVEsfXh37hfWqE3u0JrBfbWmRt8D/aFjZ29WmLDSCq1y+a8H0M++ds2K2kOmvPjEexz68ToxUU+MDdNazsNPC/uosyDOuAAZtGmtBPfFP+7B2Yu34e+beRBHa63e1sJaACuBU7/+Q362lHzXh18EWmlcBU6ZxbNV1Kk+g9DvQbtoaGfuU9f6+4TQQT1Ia4+qhH6O2wrVE6aoOoD+vP6Q+EKLt+0HYdp5ok3W7DxUp5+Vln2ZvH5RcQUg8gtK4JvZKTWCDX2nv27kPQXsctqJ0h/7q05wDHOTw/Vb+bBXfIa8Fl4EqK0wSDCU/CcvzyFmLFry1pBnApBU+4KCr7hLX52GvRo+myqH6MRfoFc9iwO602reL+QwOZhKKigsBe/1evJ/NR4Q/dqaw1fha69kAjJ0ghdtzgEt/dhAJ0mt74Nm7ver94n59FpLX540QOSq32p13D+fFk9e8wnNSGvML2fVvcMHAZRfWAJ5tJ/17dZciEz4Bc5fvgvLAg4YTP4fO1JkvEiq7rC+yeAJDbV7JyGnoHzOxuMGV6EY9Vz7J/+RU8yv07QE838kDi6CIoKOtPJozXDk9I1aDxY1UF87cY0H/s3s5FpGgcUQKjsLI2ckPDaLn7vFE7NmNb/2jLarr4pot0rCz4ngq25aUeN+5ZkM01epIVz+82OzV0lp+ssGz4IHiv4Eqdbix6bnfFI72qAa+8LTsJV1FC6GzkjoEA92pmDSYgW5GueuzyJR1/+cVT7xNTCMR+ez+yOzhr97cnXNln/BA+5Vi89SW4iO7+3ppyOh/6W/7tPAOEtHb8Vw5sJtovWeWHbwbQac/OWfJ8BWSegzjXI3fKlo1tojpLgaGjP4/ablfVIKpiKAPq1nbVpzg+dTVxlQiouPI50HecXk56905DSymiBRA6H56WP7pKnD38fNTanVDzJUmsFnSy4xPwgA/G74MyPnMiz2z30K3FhWWRl8kJjJqnSDjuIwaDD05x86NYn4QaKMFxY1CUCC1E5j8QVwhup5f9hPaC2DpgivzrsPip66Cq/8/YD2WVIYVRZAgLj6KmnT9GRuCTXZGI+kGqdPyHOWq0jGuyqF0lHdhy0wrYK9XVJNa3XTWlNF732MAHJYnGWQqGuCdyrsk56hndOHUFbFKUZaTUdI3cebZv2putZy/C6TZMgxOTqb9pc0h/6Em3cK6vS1nhfjkKU8u6h49+4pnRsNIH9uvzcRQNhoZEgBonN65/6TWiibDn0xq2sOfTkYQGAYXwkYlMl47xQS/RnakR7jlVGRlU57xbXx6wCgzILSFRYv2vajQT/08OnxJArBPA3Wn7KOXCXhL/o6hixK4sGNnrIHhjvzDGr2EEALNxtH2whaBtw9TWnai5pkxmS68ks4j27ID+1C+w23aJWNGV0UYk8rIfELdotO1xoJNa/Q+PA5DZqF33Fhf5Qj5EY5kX8b6vtjacRYOh2QV4b8AlRW0T0u169towFEaeGAf9wVg16Bc9ZlwaodhwzeDdjLKgbsZm6Htat84VCMA5wU2MCJOFvCR2LtYeqcLaQ9w9xaXXEBBZoxfvI7Xzc+E622lKMnbtDe3ClUixzUsEk8yI6c9Bg01TmD5wqDHcLNDkC4k5Fst1dahjQaQGIVhOBOYbMQlHUMyHe61wiewzH2sG71MuhnE2WWDfcbIn8DSgeXOY0troqUsArVVy8bsVmE0Dbu2+Eoba5qAtFJmpN2TwP7mYE19iWZMruuzK2YXBX1/E/jAJTRzh2fONQ10TwWDUyMhZGT90LY1rm1mjL0h0K3eMM8n7XgPm8TuNG+0RQvf5MGEi7okuNyDGUHv0aO7nT+BgH09ZxMs1HXfa2jYSt3ca0Aqs4Hox0gN9KJmLiPJvBNVi64cU2m4Rxr3NSpoEd/ko1ekmUW4EEt8rFtZJ3OdG2MJs7JI8BkNZHnhqO4DKycFzOs4fcaw82iJBvNPWzy4MH8j9WMIBhoFwkZe10bDyCBLfA2z4P3x5nmhjXcRYlYEGe8OK+R2eiiIkNno1tEQE77QBM2BYRBHrQjbddoAFVEaw7gQvtD0+Zuhp60P2VSFxjNock3QarmZDYyGw2/f2/gbLSh2WpGMGxYsxSO8psGnKqMUdwx+nWW+66CD0xsFBqXZ8izi4t27Ah+qeEA0nL2bzNgNtrg+R+rGJIkPPmMwKnOCSEzoL+J5Y0wmKrISrd3bkQ2upXM0NloQ3IP2vdBs9XcADoY7QiDHcJMS1YTBWRdoVTTnt9wAKksdgnVD0zahH1iHw7i4FnNCiAE5M4fFtJOeQRx0E1FVqv3/oq3D7/t5XWkTcPKGQpYiWqrt4llozFpOITWEP1somHctJ3NDqBKTgqZTjTcDO9NJpG5xm37pEco8a3RDayHvTCdZKOnJjLeVDl7boMlS9fAd4u/B9lOd2JmlPtc4PhzAE51zol0gh20RgrZuADGT9vBWDniOh9pVh5IVG2DGlbOSHvja6Zlo7uPExCu+piNexDJGp98lLM5EdcyjO/vueAHRmuiTdGXsLh6sWGLFSQf9UMAOS7RM+LLfeoUCrs3zYeYgNkwa95GGGAbScLprWu/a3ZHuSmMDWqfTdrHaG2ON6dBTERK3u9XL4C43JGv4x/PZEA2Gk0DmqTKwzrOtwNduDMk73EjB3fCCAB0SmADLrO3MnrT2SfOcnJrLJGyw6oG6KAyC5muqNAnwLiz0WgSJnlsq7Udw1gYOx03fb8E3v1G+NjMVq6jYRKI8AY5Mk3rQw1tbf3db985owcQRjrGDJ6qDnUKrRX3bp4HbnO3gPeidbCFu5hEhUzpNZqz8RithQrLwsPHvF0/gHSWuQGCPxgxzDfGNQS2cr+DRDp8Ps4AMFU61mjaEEgf20ZBH+tomDg9GFYuX0nySMYo6+EzUiomVzM7e9UPIFUral/STUYV/rrRYNpIm4oTDAFRZR1NFzYZqB0zSeMamrtddOiPPUrGKOPw1FsgUXNS67/RrdJyp1DzgFFTCdjjLAqaxSgA1QaqEZP3GqWMv9t+GmT6koKQEMeOdScTMy1WkGw0g3ZCY/lgzYoVxDQwGUDYYmKs0yBjvZUVWemUN+zrXrSQWZGN/pRB2Wh0QN1pp/p4M7RotCRjGcRYI7QeE4WAUztSVeuoejZ1dPkKAfTNXAWjstHYYor9ykwGUMKuGdDPCH2gSsboXKYrvylxKm9V+41yRf36IoCcluoZl/T6r2MYCZH1Ec6MBFD0ttmkjmes8sV+ecRGlOy9EbX3Rq+wfY1ko9cytzcaHVFV6BTGOdDGXnjtaycBSp8HUmV7/3qSicafja7XJ5q3EQ7HOjAGQDgd8rkBt4M0lbfyL4NUW36unmRi6W9++84zugiICxSwV5kpkZmc9n+w5dbY5Trt+4OQkFMAoaLhveoqZ+QwIRtdH0/33tzkqQtDa5+vpoYwQqaDpsTjzBiIFa186+iN5khxrMMUuhFx3w8TtNAi+nMypW8oRHYNZNq2ObUnE5Wtd4gYlo2uq2cIdwAZe33MYz5zGs+8N58AeXZBWVCo1Vs1dyZmli2vyEZLGA8g7IMO2+oNuvDJcCDakdSdjAU4CGw0XwHrvoUvXPYwRqYjZ6ZV3HM1rfPMWjZ1tJ5m6L3RzzvRSHp8rWPILkScoDAGrRPhP9coi6f1l47iIDL9NhZXE2vZ1PHSGKZloxvLsxdugNiA2XCU33Ia6VC0A+lrYiKIlgafAbm+OC8w0KfDUwCKEnTvw9RsdOPGffikhoYTGy2piXZtXMCIEP6JfYqLNI9GfmrISnO/nfkq/uestaa/qQN55ryNBi3E4qQILq4SBXmQ2Xp8bO+mecRfY4rMhj3a4BGTUOBSSy6ouMAn4Cfz2BVE+0iYdDwe9/xBpA2bDIp9LmA1PZh0I6IJ85i/kWw+Y5IpGzO7YnY+NrHDhFqy0WUXmZ6NbgwPpcP9TJ6rAfI9fvCJfUTFCBKD5YWhfHxOQdl2nl2X2jZ1ZAcI/zAbAGEfzjyfdWRLa1PBgWmCZctWk/Ux1XNP6Otgcz3mpZguq4FOMhCo7oFU3S6trr3RElPJRjdmZ2JsgFejnWD8qeC5kJ6kD0iPtoCYpqrOOf4dLjZn+vIFrMgHS/7CG7PkR1H/6lPHpo62wSLNQ7Pa2I4HH7VtdoOnWrGBDTWOs6c/WZfXvVojupNnwGMQYbsGDhkyHTxBkqu4eKpYkNbXtu7e6AzwRSepjwlkoxsDIJ/FfnWbqShHSKNNkXC7B8xZtL7O8kNPq1iI8J/zeD5fFeoCQx2ZacL62UsrNE9OcXFsaj+HeqczhBnt3EwpG91Qxn2Hq5avfGrqFbUSroXB/UKNaTsdQGum+T5rwX/td7B6xQoYZM+8WygMnCQjBVR5dkFRbPJg24bdBjP91S8RQGO9FWYFIOT+tlEQG+j5FIBwTLlbEzezdmfovqAhU+LJws347OI8flLbcQ3eVhYh6d2bZKOXZZsdgGpKLmJLCGoQc5LBCPdUiMm8A3J9yZ3IhH7DG7Wxdfly384kG73uiFkCCAuv1R1qHKH+xN487uJjtVANYu0DkGVZ/CFK6de3STeho3Ql+bju1RwBNGzSPlJqqO5E79k03+T2QlcfY8b1PvLsfFwsdTyUP+SdJt9PntKWX+CGnjc78KCfg5voq3cyYjQVtW2OUY/ePNOIuI0IVu/5lZQoJCrL+BDJro6cZyFKy9EHmlE2umptbLKXf42RGBY9TbKUMzWRRFq4xkWU8cZaLsfPkvOsJFW3Foel/GOWJqy3VSxpszgY4wDpe6cSAMUEeJlEKaI6T6IDJfR35PriW/yktydymoskqvZBYu1Dg9+C2mjCeZso+MJlN+nVwZktdKxN6vs5SAEL5miypGrL/WFxA97lNCeJFbCMZKPtJGYJIFNm3AFNQvSc4mJRxsvfc7l+rTnNTYL0dlMRQJ9NS2KFbiI82CUeNkT8RrQOpeOcipV1+Q/neZEg7c0vKrLRSlb4TM9r2Yph7qbj5K7M8uziPHFmxxU8XgNvYdBUChUN7IUAmuSbzR4CU2t7VkJwW30AojPuoNYpp/1aaZismX2dWvdG+wS+ggDyWH+EPQym7QawFhHgRKTeeuQkt8rlJ/5rGMfQROlK8sw1G83UxeDetKniK+5WAEfT+mBc8vvjOS1FlBbOc0MvsIdj1ONJQlK7QudYps8jyUBsN42WvTmG09JE6SyzAkV/sgdlbL6NtRDGz1eB786z5MZwqG1kWaU3JIr2AZFxH3/IMRaiNG1ExpiNRufwU7dk+srTgNuaA7Bg60lYEfIzrAu/CP78KxAsvgrB0r9hJ3WN/AyWXCWPrw27SP5uof8pmOF3CGx8dGTWGzvujLl9t8cEAVn4Pd3vINE0mDlG0Mj1JQ9kmnYifvIbdlyuX1uOsZFU2Wp7S2eje9IOIc4hoTOP5pSXeBNk2flEgJUsyyoolWk51yTqop/luvb7pdp8lURZmClWFqVLlAWZ+Ltc13q/RF18ltJZ/E3Rf1/1+WRZgPo+hMivwXr6gJYEnQHP9UfJnYvGeGXCEJcEGrQiwzjANmIY6Z5KSgw+AadgKw18/Gz4GXE3D+1WXJKoLHlxqa/aBAaKO3CMmcQZFdnovgbMRiNYh9MC9NpwFPzjrpCbnlUccmE5pet0mdKOSxArIn4QZgx1i5DO+yxwz9KuXM7gRhX/gDPfYvv2k12i44VD4tJnO0kyTy6VqJftlmpGpFOaLmcobdkDPKyqAMPf42hzsTfxBuACLtRmvjsrtJnHuqMk6nGmDx212oQFapgwXwlj5yrgKxr8eA+2cd4K+jEVWC/SwmTfbJi25iDM3XicLPHGCyOI1poYbld9X5m+sJgGzHGKBowwveOMkLCuH3CYRKJMS1f8IjjK+rz7UEbNSoNvA398HHrSgiynNP8+KVUHbBOkbbUNCrJ7y5DffdPybp2jBSP785Nyx4mV780Uq9LXiJVL9kjVtlKpdoBeqnnjF1lWu+uU7mlt1ggul2pKHlK64nNSTbmWUltECjParBFmvugcTXXtz3Uqb8thMsWlvDwav+i4ec8nGz3AiaJNxRHAu0UTm55dXCTVWKaIFB09doaffZspcuK6lry0ZQfvHZG8TY/wGL9BPInj5wKF7cj4bIdRUs2YL+VZw7+Q6wtGhibcH74nuvUQKnnChxsC87suGNetHceUKVLwbk88WOdmzkaPnJkKa/aeI2tjyVWohlxR+ktegYFfv8phyXTI13fZyxXZ6KPNApyvaF8AncLKCEKq6rArStC/DytpEyZKW/oQHb1nAc5o2r/BHcMVEVPZdYny9eW7d/ftzErXHACkKzm3NuxCk1Pra3jnSGQh18MNYeZLS/z9+73IStWsNBBHg/fNbGziy517iCS84rNLCsWK9lt4PMeXWWmaIYlVbbegszvAkWrYat2piSSnQbr7NW0ywiRDP2ClaMYURQ3qgwW6JcGn683luKzMrWha0pfeFqS8Pp2VHkuERIoXd6Ifg5OqH9ZSbsAaE2mV1LbSPNNAGkumR1yuuK1E3UGOAMHNZZgXGj4jFUZ7pJOiZGjyPySfI1a8stmprhuSsWTOIPKzFKR38qZ05X88WSPKB0oDx+JS3v2GlRJLDQBSmWU09frAuERLp9jkNrYhsV1ZJ5klllhiiSWWWGKJJZZYYoklllhiiSWWWGKJJZZYYoklY6T/B5MyE1L/diayAAAAAElFTkSuQmCC'
p39
sb.