ccopy_reg
_reconstructor
p0
(cemoji
Emoji
p1
c__builtin__
object
p2
Ntp3
Rp4
(dp5
S'emojipedia_url'
p6
Vhttp://emojipedia.org/flag-for-Martinique/
p7
sS'index'
p8
V1040
p9
sS'code'
p10
VU+1F1F2 U+1F1F6
p11
sS'apple'
p12
S''
p13
sS'twit'
p14
g13
sS'gmail'
p15
g13
sS'related_to'
p16
(lp17
sS'name'
p18
Vflag for Martinique
p19
sS'known_as'
p20
(lp21
sS'default'
p22
Vemoji
p23
sS'bw'
p24
S'data:image/png;base64,iVBORw0KGgoAAAANSUhEUgAAAGwAAABsCAYAAACPZlfNAAAEWklEQVR42u2d6UtUURiH/VcKK0gIiogIWt2wEFspxEooiAKJQupTRIVUHypHU9PSVFIkTCKzDEqHpLRUtFxo0CzJpSbFykzJ9MYRRma5d+beudt5z/wemC8uc5bHe+57Xs99J0oCpIjCFEAYgDAAYRAGIAxAGIQBCAMQBmEAwgCEQRiAMABhEAa4EeZ0OiW86LwWhC3Zdp30Sy3UxwlhEAZhZIW1dw/7TFZjy4C0Yf9t4YTllLf4tNHd9006dOYBHWH/5uYXOx8dd0Nx8kbdk6SF/Zyc8XlfJaZnZvkWpgXKwuwYp25hyxKypcra91Ls4bthD5aKMDbOxCNlto7TtqDDQ2vXkNBBh4fZ2TlawtbuviXckqilL2TC+qtFTVzdT+zYWpAJ6/dkVAV0vm9wXMh9mFVtmSrMyqXITmHeJB0tp7tx9mdq+q+QwrLLmgPaWbe3kGZqSg1z8/NCLolmtG9ZlKgGlhWhHiWqoa1rmGbyt/5ln2ETynPyt/pZj2H9sD1b7x/2i5qtP5/TQEPY0lj1k6knG8DzPszIfpgmTCtbD5aQDDpYwKSFA6fu08vWP2r4IERYH4qO3lH+w3qlSWJZ/eevPwZ8r87pIiks2HuX1nQEfI+NnYwwLYQb2vP6/zclCqtarRUmN/idJyoVO9jU9nnhKvP/nfKHnQE/u35fETfC2C3K/2srEh2K7/9paELaInM/Lq5uN6Q/uq4w/7MMejukZyBmXmHBjjl4yLxSb8k4uVsSGQWVb4VfErkRZsSAKIX1Vo/T1I3zyqQcyw6qUEn+6u0DDpLiICmEQRiEBQoDNIAwCAMQBiAMwgCEAQiDMABhAMIEFIZcIpK/EAZhEGbbEYE1uwqEENbl+hq0vc1pJfwL04IoJ3+9i6yY2a5uYewBBnZOjz1xyCrbaOWc4wUJYRduNkoxO3IXVob+wXHN43zc6KJ9DzP6r4/Xe5jRbdsizJvo+GxhhXkTl15KR9jJrCdC3sPsqNVh20PpkVCnw4z2LC37cCnfKeQ+LK/ijU8b7vHf9Ot0REphFdKZjubOL7KTNjYxJcUbdBPmfUlMPnaPVmoqVCbAg9Z6i7wJW5Wcp6r9tMxqGmF9xsW6kIP5o6PUKi9RItummNkP25O/o98nDRkI78nf3n43bWHsHmbkhPIqbGPqHVpXmBaWJzgi4vmwfh01I7l4AnN1Sj7ZKFELm1KL+YsSWbQnx4j7l1D7sJjtubYsu6Y/lH6t5JUlk2n3/99YeXQr+sBlFYFIKKwSbl/CFpZyvGKxYdfAmDQ48kO2UxW178KaAJ6EeQcLSuNU+3Edevuj+wo7fflpyElitQIpCwtV/cZDe88I/8LMWC5E/OwVOdLP1vAT1mutI0h14yxXUVsN4VbdtiTTwQ7qmH1AhYdMByu+HAz2+Wk4SIqDpBAGYRBmvDC8CH2OM566ogWEQRiAMABhEAYgDEAYhAEIAxAGYQDCAIRBGIAwAGEi8x+uEVZ3PMrXmwAAAABJRU5ErkJggg=='
p25
sS'version'
p26
VV6.0\u02e3
p27
sS'uni'
p28
g13
sS'desc'
p29
V\U0001f1f2\U0001f1f6
p30
sS'browser'
p31
V\U0001f1f2\U0001f1f6
p32
sS'annotations'
p33
(lp34
Vflag
p35
aVmartinique
p36
aVother
p37
asS'wind'
p38
g13
sS'andr'
p39
S'data:image/png;base64,iVBORw0KGgoAAAANSUhEUgAAAJAAAACQCAYAAADnRuK4AAAABmJLR0QA/wD/AP+gvaeTAAAqCklEQVR42u1dB1hUV9omu5vsZjeb3Wx28///ZlM20RSjyaaZxGyixl5iJ7bYldgQpmDXYENRyhSwYFdsWFG6qKigWEDFBiIoZeggigJKOf95zzBmZpgZ5s7cOyTxfs9zHwQH5s653/m+93u/cpycRBFFFFFEEUUUUUQRRRRRRBFFFFFEEUUUUUQRRRRRRBGFfxk7/cU/uy8t/8ZtWcawaUuLuo/z/Pxv4qqI0qTIPFv+XeJftkYekF3lsTKb6C55YHatzL9k9yTP378hrpIoJsXV60+tZOrcbFnAbTJQHkc+H7qNvN93LWk7eCvp636YSFQZRB6QU+66/PdfiaslioG4LSHvewTkFbj63SAfDdxI/v2NX6Or9bdryETvq1SJssuki8kr4qqJwmTaMtJOHpBbOtU3jVkcU8qju9r0CaKWKJPI/As3iSsnipO7T+UA6pYqJy2/Ri3MaovKo7sGyI5RK6SpnDz578+JK/jESt1T7r5lczwCs+vGLb5A3u0RaJXy4PpsSDAD1m7LyweK6/gEyqSZrV+Q+hcfgBIMmRVPWnZRWq08uN7s7E/cFDeJTCm6sScP7yyp6ShXa7IQaXX94RAnxdG/Bs+Mhxsr7tCh/e/EVX0SsI7nX/4qURSukgdm1U9afpV8PGiTzcqD6+tRIVo3tqzqa3F1f8Xi4kKedvctn0StThFVHtJPcoS04OiyTF1vdVMTWDGZotBHXOVfobi6vvl7d5+C8XJV3k1YirELk83yO7ZeI388R2Sqghviav+KZIrnvbckfkVLZOrcAijOBK9L5Mvvd/CqOLqr84RQ5sbcFz39rrjyv1Bxdt71W7eldz+V+ufPk6ryk+CmcH0/7wxLReBBv96RXg0PHf/mS4He672KKZDUN3/GE7boA387fnruv6Z6Fn8i8bvfFRlnubp8nPuKPKnEJ3O2u/+NeW6K9Pnu/jfnSfzo98s1cplf9WSpqmi0z/qU4YcPJg+MicjsGhsV99Wx8IxPjh+62zL6wNlXzuz754vkWJ1AUQl5aowr+YfEu7Ktu8+dEVJ/jbdcVXhYps6+q012ZpFxiy+S7pPCSKteq6ii+JJ3uqtI/yk7yNI1J0jYsTQSeeIGmeMXS/GLkjclgoWj4XzCr1JRhru++bz70jsdpL4F02TKklXUXx+RqTS3ZAFZtfqZZi7X4g1pJCoqyuIVHXX4UXTEibKoqCO3IiOOps5fpaGWITdOqrgVI1XkHpKr7oTIA/M2y5S3NkgUmeuokgZpr4x1EkXGBrm6bKvMv3C/THn7sFxVdFamyr0lVxlmxwFgJ3ilsKRn+9G7ybs9tURgm94BZKTHXrIuJIncuF1C6urqib7U1NaR2VSJ3uBJgXpNjUKmvs5t9h//5xevMBPlf3rJbUXxMIl/4RqZKj9FHpBdp1twd2UGAeMK/uLbadGk0/gDFBvsJJ9+t5nlf97rvZpFFohQ3uyseHzh+5ZdVeSdHoGkTZ815JtRwSQ9U0PKyspIcXExyc/PJxqNhmRlZZGMjAxy8+ZNkpqaSq5cuUIuX75MkpOTide6ZDJ6QRIZu+giGb/kEvlh2RUyxSeVIPeE5KX+hZ8hrQDlGLvoAhkx/yy7577usYy3wT1/0G8duzf9B9l20BoSGHyGaArvkVqqJJYkPauUtKaKxocCfThgQ4Mbuzf2Fwsapf4Fc6TK/DPYCTplGUkXvteUSNJu+A5m0vky2e9St5B8NY9wkfW7k8irHXwFAbK4ek7YSrLyyknVwxoSn5TV6P3vVlSTs5dy2VdILbVKPcdv5eW93+jkxzaDVFEY+otRmnGSl/8m8Sl1A2j0aACN8P+9pkYyguyNTv6CPaxX2/uQPVFXOSnQGfrw3u6qFOR+Puq/ity4VcLep+xuJbmeUfT4fR/V1JHwuDTSecxmBp5VW04/VqDhsj283cMA2VHiEZDzwMXloz/+rBXHbcnD92WK/A26ajkAOJh1WJjXGGhUknd7qBh4RL5GiAf2GrUk8xVHOClQflEF+eK7IN7vBZHVZM9DjXBOyZ1KcvBIKuk/ecfjdcDX0Njr7P8fPqwl34zkjxNCtMdYae97fX6eiuN19zOZqigClga1KAPlx8iH/dczZek3eTvx33SKHE6g+IP69rLySlJUep8kXswh4+ccEMQa4T2NH1pT4jxt5+NQ2maF6fiT4sB1tBu8luwKv0xS0gpI+u1SEnrkOpF4Ubc9OMgAJOP3ZvsefoyNUjOLyVs8WkTgMcAGqaJg3c8rf7Po6XdlioJQKM40/3TSk2Kat7urGWBUUKXJyb/LzLQ5uV/5kEyiOxTWiU8F+sw5iIFVLuIddJJZL3vet/u4LWRhwDGi3Hya7Dt8jewISyGDXHcyBcFmMvX336Yh++odZ5nb0kVh7ksied9UQ2YlEJlaU+DpOf83za446AiQ+pf6ygNzHkGzoTiIhHCjvV2Cya3cO+S25g71+VWNHlR9fb2BdUhIzrb7wTXKA9HdC1zDRaJPpttN4v136DoiXRpJBrvvIu/1VDf5emy0uLO36Jr8dB/gglp2UfCuQKAS4MamLS5t17xWZ1l1D5QbwOoM8jjOwmfdTXYZvYnkFd1jChITf5M8fFRrEGnsjrxChkpDiGRJBKmqrmE/LyypIB/0CeQdSO+kroOLAOh+2HelYODe+PoPfa+zKYZKnkSjx/8IdA/wDNrkavnS5skae/7fH6X+5SuhOOBJwM8Y3+TpC9kGCwIFunAtn3gsjyYf9ltpsHhZmnL2GuChr4at4x1IT18ew0mBqilw7TRqo0OUB5ZuZ4Shgp+/rDEL5FmqoyHdYY+VHL3gPJEqNdeagct55i1G/FHlAWFmTJLhghLcf/CQLQbwx7rdSQwTvGkEkj+mYS0iEJ2k0Z3fogv/QPrbids4A2kpBbivd/QVXIG60rC9omGtmOW5oiFtB64x4m/8yScDVpNxsw+QtSHnmUWPom52zMx9NgceXX84SDxWZddPW/Tnlo6LsHxIN3lA7h2A5C+GbTN5Y616qElA8BkKBs+RKQvCyPvfBjQCxghT5d5RJDuv/PHCAThOoSCazwTi49DVBiC9/VAKc3+CWh96zfGPffyeUKQO32/QWk66Zm3o2iE63RdzjRSXPWi0CfCzQTRitOW90fYDHCTxK5Y5RHmkK6omeATm1rh4pZDWvVebXIxOozaR4NCLLHQ2pwhYoKQreY3cm9/GBMFIRSQkAdC5yLkUDYuWhFQgKMmSVcf1OKEHjOZYvvYks8wFFBM2ZTmXr423edO5LL1MZMq848KDZZ/K6XBZyPXoIiz9C8B3lu9hZl7f/9Y8CEa2GeG8vmDXzfSJaeTe+AbSm/df4KRA2N1fDlkruAsbMHXH47DdGqmvN3ztml3nbVYg5Bk9AnNqXGTP/V04y+NbOUPbEZBgEu98PWw988duNJpqYYFRxsPI0nNZWIgT526T9sPX203aWbPTZUujCFcZJt0tiEvVv1rQNV2985xZSwN9qayqYVEZ0hugBsrKf6JEUPJhc2pl4EYtK+17d6QgyiPxqZ4IywPlMedePhu0hnxArc7rTbSWbKOYQh/v+KxPYMlOR4XKPSiIR3TFRfw3nuKdlzIZVlMXO/HHg4yRv3O3igUgiEhP0UjWd0MC6UKBNiw0XPGGPUmktlarbFCsLwYH2ZFc9WcVBVJl/h7+AfPy6t7ywJxaVMvZi00ApPUjDTDT/24IR/GAWnRRsAv1MVgkKBbfjDSIOpCaXCT2VIbDFFy30cA/fTxgVSMo8NXQdeTo6UwDF6bemmj3e6JGSRaQWzF6dPs/8KY8U70eviMPyLuLehhTmIfrBQofu0VnkuG61lCzDVyCh4T8EKIkgMbCkvuMuQZ7rNqSSL6mLo4vV3HyfBYnBcrMKWNUgyOVyJSVAL4svVNpcG/g1FpZwXA3dX0xbDuZG5RB9uzJ6MmP25J8/qxMlXcZoTrqaPkIVUHKIcKwRcrvVZH5yiN2u5JX2/uyWh+uhCL4q+ZSnIF048VTpa8xyiGmZhQbEI26kli4Qq6YrWVXJdm0O4FER55azY8C+RX7Afe0G76dP6BI3RPclqVkqiVBqgPRij2AFovstjiC83vPWBHjEELRmOpA+sVYceoaAo9PB61uYPEDieuicLI3+irL2l+kVsl1YTinzYbfP38+iSpQXC59h6fsc12LH30iX5lTO1B2TBD/PsJjD9kRdplcvJ7PdhFcF6rvok6kM5e2aGUc8V57kpF4GdmlBosHd2ZvpSB4Kq5AGjk7oQnFn9ysP0v1FJU1ttb37j8kAcGJ5J0eKpaoBbjOKbhLjKJ6VipirWtDiQnoitzcXFYfHhuZ8aldCiRTlsbAdb3dTS0Y86qzIlAopC10uwW7HMAZZvg7t10kJj7dYGHWhZy324190n81ZyANrPFeL7XgygPQfPDIdZO8z4VreYycBR5EWQjcujlBohpRW1PvB5d37Eym1lVXV1MFiqZWKHGR7d2R0//5L/nK7HqUYzjSXENx3uqqYEVcK7edYYnVRzWGVuJB1SMyVBLCC644fvYWJwUqLa8kX/Oc4G00CIpGqUdYhGVsdarJgoBjrOhs1fazjYB09cMaVph3Nb3QoDTWmoQ06pT0I7rExESqQCcv2axA01aU9AWpZG8jP6emf/pBEYpiEfTLPQyYamq6p1Oz3qKzggdG2pcq6VnOOGjMrP2CEYqwuhv3Jjd6T7j5PhO3sVSFcR4PRCLcPOqtgC+R/tBJLnVrTaVgkF+rpJtSX9ClQq1QffTBqn/bxvusSP8eCtTU2DQ+rk4jN5Lgg5ce1wGZEnzA/THXSOfRm3h7eLB2UzzDOCuQiu5WoTo1hlDLel+PI4PASgK8w93qWyWQi4HUSiM5rPv9UTP2GaxjcOgly71hE7ayUuJGG7WiguGgmPDzbrZFX8tLu0OBPv1ui6CMq3LLaWZ6TQms0OUbhWRhYBxLcbwmQPTTmQLpSguKa0oQ+QiR6MXGCDXCPXDXiKhqausNqAxUOOjn5rA2UxeGMXCt/7tdx262WCUJa2/2c544QaIjEo7Y3EUBBfpqZIggyvNhv1V0Z91u5OfrGyoAV6yPJx1HbmDdGmCNP/8uiHQds4kpEtphUJrKRzgNpjc1s4STAoHYbDtoNe9rghofdIGYrROnlgmWGtGSQb8bdVHAMPcrDd0QcJK59wIhCrdoSdBkiU7dk2HPv8BZgdDLDQXq4nKQ94XCBz59sXE5BSrvxszcT76hiuPhHU3C426whCvAIgAeLBJcGa40uis37btAerlsZV0O9twP2G8uAj7m2x+C+d9UVJkBlE1FXsiLAQM97u7oqA3zx889wKIyY4k7c4u0NhMtQnnw95oSdPDCjR0OTxlmwzyAuqfkqqyHfdwO88yo+jG/rG940FSHOpiJ8w+yD24cdVmSew2g2lZrBCyD3ctV5vrH8u5S3+2pMmkVUEsO9h6JUmyuUTP2Er+NpxhvZqoVGt23H/VbaZfy6BT36NGj1Aqd3mkbD6TW3B488ySvizRMttuAvINZBqcDrGNc24KEK4AjWn5RhbczPIV9BTmmH6XBIrWjeOB1G4E0SkO5CgC9rTwULDDKMPpMDGZBQf8p28loCn79NiSY7VbB54V1gvWrqzdd6gFlijyRbrYBAIw2lI6LpKSkUAWKLb8aMugZzgokV+efGuV5nteWmlNGxfUoV9AvoCqvqCIRx9MYBY9dB05IHyjCdKMt5qxRaw4oeFsfKDo9jfFDUwKFb2PjkAN8hrGz9pOr6UUsgLA1pUOMrPiPqqNmC/Gc3XaR7Ly7nP9uQUGBdmpJeGYX7hZIkb8XXRZ8KdBQyW6zN1pIQ9Jla05QILnKpJXAwmAHLV4ZR/GPIeh9RHfnpB8P2oU9rt0s4rSwsAa6emVbr5Z0cwBLzVUcIV6rj9NQPZq4zAsl85RHWBfLo0e1TbgY7QZEhysiKnPpEFR46oYzcJXa2loSGR1LvNZkBHCvPvTXBGCmMF+cC/Jbpswz8mEog30NALGhLgjWCu0+38v3kFU7zjJsUGHEj+iXWdjTt4V7Q/MgV8HDFiqxCqIU6YqQyCs06itnbh+dqXBlyFfBknuqj5pVHB3eCYm48rjgzFbZFJpK5Kq8LCenem7JVYkibzYiMT4mgwKsbj1w0aQCYWLG+j1JZAv9/wOx18mp5GyGfbDLLRWR43fBY/QYv8VuRhrJSK4SRLEbflfoMo73egWwvBciTuS1sNkskamwOlBubCx7BRu35+SDrNTVdSH5kKMFKhqNX8QhHXyQZFASPgRKhWJ8RCKffxfEi3Uc4bGX832AUBSi1diezwGuDC3QDx/V2r3OsPiYX4QJaijpkfoX/8ix76u0Gx9sdCsaniIJ+KDqkc0fBqE9qPuDR1MZYP64P79EXscRGyxmtU0JclJCjH6xRXFgoZBD4/oZLG1SPDPde2DiGnVjSdzqgRaSNvaw0ahnnvTjIXL1RmEDBV9NrtB/o4HQUt4Lvh7RCSh8KMwC9TEW6qLkQKgkJsonrtwo5LzIA1HY1kyKA1eFXBZKOowz8/ZKxHHDQQ7dJ4UTVGdMXvyC9WeNjRlTYRMbDR89gyJ/RnTRRQabjOgJxeFvfOPPwl9UFKI0dWvoRbYA2w5eYgVSsmVRZIj7LpauQBqDhe4O2sWYhspVFgXGOaRTQ/8+AZzB1CckZXGmH6yR6xnFjWq/kVTXdq6WTebERss4stH4gGjPPXDkOou6wHfAhZmzHNrhAL6PhwTwUqSmP3TA+PrG8NIH+Ripy1XQMSpkievrDUV14Krm0XAf0SKisPr6eiKEgE7pZiYBixMPpcq8aG5ckCrvFiaN2jSNi+eFZW0/9G+iIhAJRQybRFms+5II5q9RS7RhTzLZvP8ii+wOUfeHwQO4IqlJRqnsjkMp7P/xuqBd54nX6hMsHAYzjDJZrgL+yN6xK6/rbSRYZygLCuZQhYDRdmDeK6seEaEFoBnNk+buE8Mz5IG51a6u3Z/noEAFCXyy0VzzZmhUxIfCdC8QZki4wiUCLNbW1ZPmlsrqR6xDFPU6wHuwuKOm72VDDpD8NLyCWbSHEPuH+QcZYYia7/VUmaHcmMSh+2yOFmBSbCJLXqDt4C1aN7ai6Dvr0xnKwj18stFNmWsQghi2vWbHOVZ/bCo3JAr/yqPtNmmak0KNvFxZspUTG41RdUIOVILSoKwyIi6NaAruCebfRWksDygIR+eHtSUx3804SeTqnDIXlwlPW6lAebNgtvjoSDV2T8gDYdgUyhVEcbyAVnFdGMYpePnviF3aeYreFR2tbCwsGcUXG63jLoADUPdTxbGUVBT+BEw+AhDunasqIlXfIlJFkb+VbPT9Lnyw0ej5Gi7bzfJcfNDsotguKCjr8L3tMwYwYEOmzsuwrr1nCWkNBfp61G7bR6mM38JCaT7qXkSxXZDRBzfX2s7GSBx2A52YuvBhmyYVaOSU517Ei205JRiVdxjSba4MQxTHCTLzoBf4gCGteq3UJld9i+ZYYYMYG13NtTa6NwXIxrMPRXG8oOAMKSK+x9LggBy5sjDRytrovExr2WhgHbC7otVpfm7nwOFrpMuYTYIkoNHy7hGYXTd1+rP/bJpMVBXGYxB1071eK1ljnMjjNJ+gdx9VjMjSCzpNv/96LSvtU+5ixZSOot1IpFk8b4Gi+pTUAvEJNoOgVgrNmBgHjLomR80vmrziOg3n88Kt4ILy1ZbYaNTqiGSg410UErkoIkPtdKseKofnKvtJjhB5gKZSLm/zJ8sWyK9gpjk2Gp2kpprzHbXzkHjEBArswITkLBKTcJPVF23al8xC1uXrTrILw6rwFQ2My4JOsAkWeA3mMuL16E5FiSqa8vC3MJvx5yIosEMJB7Lyu6OusFogZOwxiUPoscMWj84aEqw909a7YkATs6FLRppio02NBRFKsIBX0gtZmQbqdkbP3MfmFWLAAHgNFHXh0tUWcc3HaX9P9zf8WKVhjQ28VX5xBau4RI87hoQiXYCAAjknfNW/8DM0DpTQz4bXo+ceLduYg7gv5ipRbD7FCuxwL6hKQGsTF/eE14KD+2FeKOsLQ9Uln+4Nc8LRtSNVFG60zEZ7a9notoN/AmYoWxCiGk4//Ey8lMNmKWJC2WfOawSpMTI7rfS7oEZT9K0R9ZZE1u/1nz6BLKjAcCfgQwyFwIVRNrjwb+AV/B/eC63IqMDUKYmtn/P1hjHKUxeGk0up+cx6aa11HRta9V5PfqerITqXq/OKnJ13/db8iTwLn35Pn40e7B4iiPLAyqAWFwk+WBZHloqaOuGZ63kakNiEDEEPDjZ3hFWb3mpGFG63MPIOjYqzfGJ4XdevR4VoW368ar4yf9LyuJf/pmOj+0zaZvOIXnMf6txlDSspgJVx9ARUc9cr7X3ItoMpnD8P+tTaDlztoPopP9KNunGMfDHXtgxKpUZvAANaflrweKjxW920h9VJ/YtXNNEnn101cUmiwZFM9gj8P4guRBBvOnjHWrurUWRlS74JHIzQjQAo6z3QcJIzzlUzbgjQnQyJYRaoetR5DMxP5PteRv54jshUmjSLCjQjICvj2KlUXhQH7bYAd9ZYGzxItJe07qXt5JBTUImDXLDzhDoeXLe7kY6xBUhD8YR0v7g3DI/STekAINclqhGZItjAxJGWDVEa2GjdRJSjiZl2z1NqNOVtQqg2uer53DtmFWj73jMnz5w5Y1fIfZiG2Cgia0px8MEBMDEU4EBDUbm+GcayYZTJfmrBPhXQXXw2KIjzGGAINsgrAs6SxsY5pYfPauvqWDeF9tzZ3Sy811/LQw3WCfoGCoNv6/he79VMgaS+mhlmFSg68mQIZubZIsAFE+aGNmkx8GHRYYF6lftW5NKwA9FXJtTDwoAHrudpQFDLDYvJ5+RWbDoAe3SioKMEDZfghNBJgtlCCNGN1xf3gKn1usxSQXGFwfm0fF4TvC4Rqaoo3qwCxUSeVsbExHAGyGBKrckEgxiDosF3Y4KZqRA6hwJFDJvSZ72ByXQhvhAH023cd4GzAoFYtXf0i/4BdJv2X2AKgwgVrUi9XIItRnqwMBjEcD2jyAATzfE/LBg26zU1isgDs2sner70khkLdHwmBg09emRd+A7Tb+08ZXSy6ubzIGrQTW2Fm8LR3+haHT1zP2ndO4D9PbhBnc/H3BucfCgUkIZFtEVwAC4fESWsTneKF3WnFL1mxXqCZNWfB4Q1xTxJIYOVDwdsaOhcvTfGtAWKShwBBcL84KYk7uwtxpxay5bqnxOKXi8wslupFRrsvstgQpnuwiQunVnGwAahjuSGsgLsV9pQu40xvI46U0P/ftFvpl9KgyAA59aiu9UsC89Tk8QUn1R0rh4wqUCxYSmdoUAlJSUWczZBu86ZvVnzZ0KkMtyD+UFoIjT1+280TNA4cPi6AaAGMBeSuAOQBojnKs0x+gVsdobeTCCsE/BSC6P7gNLg3pAKmquIZWfb4lgJNEPaM0B9gOwokQfk3pdIXn62sQJF5LeCAmk0GrPhOaIma0NEAD6Y2p1hl9kMGstWYCuLuIxDaoy6E8r66B9NxfU8DV0JqbVWmC/rgxZtfQnaec7AumDNgTWXr4snVylkMO6KuXG7hG1SW++h3fAd2jNXl1V93UiBToZ9+QIUKDMz02TeCgk7az8oeAmwp/jA71iwVnBf6HkvNcr2I/oCn2FpvBufQNrUaL4mM+hU2ftO2u6wbDmUQ59MRFIX6SBYc+TbwPQ31UqFe562ONxml/ZBv3Xa7PzyG0PNAOmjldeuXTN4U6Q1hlh5cg6mu4OrQPjZlKbDxJqaaIadLfGKZLOHHMVIT10QZhOQBlZzVD4PoT6GSei7L5S55OSXs6DE2ipRzNy2edK+82atAi3L72VGgY7dvHjxooHyoJjM6sQbjSS6jdts1Wvl3tEG85CxCDgO29I59EK5hq5jNtsEpDHT+lVHKRB9HwBoa3rusKpFpQ/YQAdYct0cSqw3zrO1J5RHnfRkj9f+16QCRUXGncQ5UhDUuaBORajzsvRzbiV3KslQaUizFU/hrA6u52lALqUWMIrCkcqOWint/CDjpKr2kBbMF5qy4BAjFDFKRt9qgYez9eh1zFFEbZBcWRxugUyM33X8+HEGmMfN3i/YIiAS04+0QKDBn+Oo6y6jN7EELOqR4K/hzrAgoPBReyPEGDzgC67naUBQLNZxxEaHKjsiUmBDzJ3GGWKIcFfRCGuS5yGW9tFNfIM30D/yAOst9bLtcEFk5NHm4xGY+2DKwor3zCtQRKIiKvowqykRchEQnekP5IRpBXGIn+GDmpoLBDMM8w0CE2wtmGC+FAlAOjDYtjygy9zQZitR0Z/Mpj+bAJsOA0v1rdPe6Gs2JVmhPGwAZ2D2I3dv0s9iRj4m4uSMgO3JvE/qMHXsEeqb7RGkEwbwxFADX7jMO2jTfaxls6R9mkWBGqWLqDU8ejqz0ext4CDABuMzVFv1UD9OjViyPPLAnEfuPk8PaLI7wzsofcT0lVkOOcUQ+TOkMDCxC5l87JL6BloeAmuDhCusEmpdTB1AgqQmHxgEOxh8ky2Tw0Aovu2giNHchRMNN++7YDJBHR6XRt5vGFyOzg7UuYdSt5dB8RAwHIalmgoEgHkmeKXA8lRLVjzb17pBC97lnYxrowU1wQ3nWAD3jJy+l0yYF8pGw2BUHB4ofD1qj4GPQEaqgxMbkZtgW/lR6NWcxwCzBHD+XdKumWZJo9nAU33M5AhgKJPvxgRt/TZdYwzwTG9IZusLWHjjYQyte69mAzc9AnLv05C9h9XTytwXkXehQO1H7/kZDNfWTlaFgv1A3cuWAxeYtdIXJBT5OmEZqRSEvVwFD6T/5O0OjyCRw0tIyjZTbpJHBtJwva3zGuKzLp7kFd6zCAXAXj9OmvZfT1z90qA8ZW7L/vBfThNbR4/+4K9QoG4Tw5ptIjtqdJCNV2w6zY58wu6qMwOqV+84y17PF5C25WA6CCKiVx3YIDDL97DB2an6GQOE+egCWRZ0koX7+oLgBOC6VK/mHVZcd4JSu+HbiUSVSeTq/ByM/bHpEDq5OucBxr06WnHAXPusjyc3s8rMHtKrExxBgCHmfCYzEf6iidIWQSjtkLWiURTKaY3TFVAMNFzC7aPdB5ZaHzLer3zIqBJ0dYAbwmt1gjIbpJTQUIGRLjKVJlmy+A8v23yevEyVe3PIrASHuakOVHH2RF9tskIRYf4ZapHQtSlU1R1MuS1AGofTCXVPBj1a7rsanQuGIAM98wjd0Semn9KoohsRbLl+dmCOX6yBRVdsTiTO009oS1aVhfsme7Z/zskekakLj49ZmCT4YkDrcTzCHQsPDDsJnR1uiyO0pyh3FLbxEGDTFiAN5ccxTUKuF8Lusym5jfrnwYmBEtEnZuGWcGQnKhv1qw5QTaGfCkExn4c6jaUnJD4VC5ycyG+c7BWZqmjnpOXXhG3qo+EkRpSYq3RcSxel3+Rt7IGidBOn98Blwb+j/x0T3sFOo75Fe7aWL29RoS3naUCQkH1NQOWeMCe00QG8sEaVVTUG1gilsThLXr86EVHW+t1JBick5uRqiGr7VYp3skvdV1T3cuJLpIpifwApvltD9LPwu8IbK0+W5g5TEkx8x9R6lCbAnaAEwVyiGbsO9dPAIN9ODLY7EgKQXr423iYFQkmpkJ0aaC6w1BFz7Ewmo0D0nxs2FhpFcSiOzrWhZBkJ8w27zxCZsjCBRlqvOvEp7j450+EPwUIKsRAogWhMdt0gnvTnaGVpalAn/Lep0gUc5gsQ3BwH00FwBqpQI1hwX5gyYkowuAHAGmSmzhLj8BuU4MCa6gPu/Px8dsz31j2nHs1UFs/r0KH975z4Fjffwu+hQEKw0chf3TE62gA4JzPnjsmFAWjedugSme13mIyfe4CBSBxSgkQvxrmgZdq4vegjO2cFAkjb0tqNyJCPAjhjK4rvX2nvSzfeMZPvm367hK7FcbJAfZSd6RFOoy3UnOvnEysrK0lSUhI7nXnHnsSLs5cXf+QklLivqPgGCvTZEH7ZaIA4FJpZErgsDA9AxwM7e4z6cePzxHTJQ+TTjCsJgRHg/+1xZcBUOEfUFsGUEXvwGI73VGw+zeqYEY6j+GvFuniGa2yZZ1RTU0PS09MJ2rUOhcU+CN51aZbVRxjYKlO9nn5HCDYahWLmyi1BbqGj0lQxGR4IsAmSgWjvAZA+RvGRrpXXeHaPPTW/usSqriedqyCctueQXig+ymQRepeVVzFso+N5AJAfPqy1qvKwrq6OZGVlMXcVERlTfyD0fMi2bVWvOTlCXFw6/UUINrrflO0Up1SbxDRgVvtO3s7yXQDR8N/suCTFEdZ1cI6Gr1AOS9V4ANQoybC3NwoKsHjlcZsUCMMO+OogadVTzZoOsRbYOHCtqH2eQqM9YEaQg8aCM+ChOHFxceRgeCwJ2ZcYv2uX5ksnR4tcxT8bjaSnuVF52FTaOqA65oa4TIHFS5HrAUHGBzMNi4eHZouA1YVrdQQJC9YZ/XaoOLySXkTOX84ie8LOkPUhZ6gbvJboFVDU06m5RKbSpPPJRn89bD0rK+BrOjBKO+7eqyZJVzVkQUAc790bYMfRZ85VMA4QG8URZ8Bi/NwXw7aTobNPsfk9IAOlytLwad73Ozk1t8hVBXFjFibbTcqhwAnNhPDfsCrw4cBBdXVcLEw9Y1aLSx+Q81c0rJNj2qJwatI3CNbY16Z3IBvGaYtgPI1QnRpQms+HbiMD5cfYwXCAGvIATaHUv9h32iLS0unnIjJl8Q5b2WiwzKhnBrmHTgeA3VMXsom7VyQzu+2GrGWzbXaGX2Y1u2CeEbIj6442FbgBkGIYwIC+Mry2I/X/2qy7PxsE+sWwHaTz+APk22kxZJDHcTJ0zmkyyvMcK71EBd34JZfYV3yPn2OX4nV4PU6o/vL7nazX++3uarNAGlMvbBHUKfNFKAJPYeA37nk4/YwgeLVKk1shUxTvlHk/6Ofs3OoZp5+byBSFfraw0QB+G/cls3qUE+dusew6gLGpv4PwHMXsyPFgTAkUD5dutC0W71PnzaT7pDACdzrR+4rWVNMF1F1ydVaNXF2QL1VkXZOrS0/JlJmxEv/MaIn/7Qh8ldLv5aqSBJky+6pcVZiH1+v/PutxUmawyrth9AH1lx5l56d/OSKEeK05RR48eMCAKRcBd2XL6JcWXZRUqdez6BfnlkDxcW+6+5Sp8m5L/PPWSL3v9ZFIBj3r9HMWiZ/GwxY2Gg8eSmGra8Fu6zE5guAQYBx61rB49VLlnSyp8uUDUv8hi9194ke4e+38YqLkxMueTj05Jv8Cnxrt8eX/ui4+09bdp2SQxG+Wh0z5VaBM8WKETFlNlSzvHsUSKOMki9enkcioKEa+xcbGEsxOwgCu5ORkcvnyZZKWlkZu3rxJbt++zdrB8/LySGFhIUm7mUv6TtnLzl/DBT4NbgdtwR3G7CGdJoSycygwxBsbY+yiZDLVN42VUvy0MbIf0ntJkikL1kh87oxymVv9ptMvSdx98oYLxUY3GhgwcCM7bhpj9dniBWbXy5Q1F2WKnj4Sv9/1nSgf+5JDP/voVX918/zk/fnqFj3CwtRjYyI6z4uJ+Meq6MjakOionONRkRdToyMTCqOjYmqiGhTM+PLamErkRpbOwHLSTSFTUTekzk2TKfOOypT5GyR+RXOlvkWD3Zbcf9/Z+cdnnH7JMs27uKOWjQ4WpjShRyBzTTgtWqs0udV0EcMkfqXjpk7/4J+/lHWKX//mn48ceuHl2PAlbx0N+/DjmIjnvoyIqGm/YuuLHaTKlzrJ1X/7xmNlTnu3ZWn/nTwv+9Npi/7ecuTEUy/36KH8vdOvWdwWkbfxYGFy+R5ShFOBgWWwC6WqvHipb/mESTOff8FJlF+PDB/e9nkoEAAlH4oDLIBRsVpro7knVZSpXb1IK3Glf8VC/XMFgJ59+GbDY8WRqTUFMr97MyfNLBetzROhQKqcG0Nn28ZGt+q1igyeeZJFFvKA/CJ331K5iyf5o7iqT5QCFRwBGceV+Or6w0EiUWUQj0BNldS/ZJnLjL/+RVzNJ1CkiqJlALuImKyi//sEMeaXuStFYZTrouffFFfxCRZ2gk9gdh3Y2Sar+Mbt0zakBWhKpcvvjxRXTxStFfIvU1mqDULaYZBHnDa6UhUecfUk/xJXTZTH4uw86BmZonQvFGT0giTGCyHdAPYYCT4kXMHnSBTlS+lrfyuumCiNxNOT/Mbdt2ySTJ2XbUTJ10tVmiS3ZdXdxFUSxQpFmv8b14VFH7otzXKWLCvo6/pLS/CJIooooogiiiiiiCKKKKKIIooooogiiiiiiCKKKKKI8qTI/wNgWfkW5Ba98gAAAABJRU5ErkJggg=='
p40
sb.