ccopy_reg
_reconstructor
p0
(cemoji
Emoji
p1
c__builtin__
object
p2
Ntp3
Rp4
(dp5
S'emojipedia_url'
p6
Vhttp://emojipedia.org/pedestrian/
p7
sS'index'
p8
V105
p9
sS'code'
p10
VU+1F6B6
p11
sS'apple'
p12
S'data:image/png;base64,iVBORw0KGgoAAAANSUhEUgAAAEgAAABICAYAAABV7bNHAAAYKGlDQ1BJQ0MgUHJvZmlsZQAAWIWVWQVUVVu3XnvvU9Shu7uku7u7S+luDh0qICChIKCIgKCgIqKCKCklCopwEVBRsQgRUVQMBAXkbUC99933/vHGW2Osfb4z15xzf2vNVfMcANhZvCIjQ2EaAMLCY0i2Rro8zi6uPPiXAAIYQA7wAOPlEx2pY21tDv5j+TaBaqPlvsSWr/+s978WWl+/aB8AIGsUe/tG+4Sh+BoAGDafSFIMANhRVM4fHxO5hb+imIGEEgQAR9jCATuYYwt772DpbR17Wz0U6wNAoPTyIgUAQNzyzxPnE4D6IUaibXThvkHhqGoGijV9Ar18AWC7hersCguL2MJLKBbx/oefgP/m0/uPTy+vgD94py/bhaAfFB0Z6pX4/xyO/7uEhcb+fgcfWikDSca2W31Gx+18SITZFqZEcWe4t6UViulQfCfId1t/C08Gxho7/NJf9InWQ8cMMAEAA18vfTMUo2MJM8WGOOj8wrJepG1bVB+2DIoxsf+FvUkRtr/8w3F+0QZ2v3Ggn4n5L5/Z4aGWv3Glf5ChCYrRmQZfSwq0d9rhCd+KC3K0RDERxaPRIXZmv/RfJAXqWf7WIcXabnEWQPFXf5Kh7Y4OwhIW/btfiKSP1zYHFhRrxwTaG+/YIs5+0c7mv7n5+ukb7HBAfP3CHX5xRtDZpWv7yzYrMtT6lz5S6RdqZLszzkhjdJzdb9vxGHSC7YwDMhPsZWq9wx/5Fhljbb/DDYMB5kAP6AMeEItWbxABgkHQyGLrIvptp8UQeAESCAB+QOKX5LeF03ZLOPq0A0ngPYr8QPQfO93tVj8Qh8o3/kh3nhLAf7s1btsiBLxGcRiGDaOJUcOYo09ttMpilDEqv+14qH+/FWeA08cZ4wxxon94+KCsQ9FKAkH/U/a3JfY1dgw7g32IncI+AWZoqx/a5y2G4X965ghebXv59d0jKJ30L+Y8wAJMoXaGv3rnjVov/NbBCKGsFTC6GA2UP8odw4RhAxIYebQnOhgttG8KqPSfDGP/sPh7LP/9vi1+/+zjLzlRjKjwi4X3H/56f7T+7UXvH2Pki36a/VsTyUauIreRG8gg0om0Ah6kB2lDhpGuLfxnJrzangm/32a7zS0E9RP0W0e6XnpBev1/vN3rFwPSdrxBjF9CzNaC0IuITCQFBQTG8OigO7Ifj0m4j+QuHllpGQUAtvb3ne3ji+32vg0x3ftbFiEDgMrWfnzgb5nnBwBag9Etje5vmVArANSyAAwe94klxe3IMFsPLHpqUKMrgxVwAX4ggvZJFigCNaANDIApsAL2wAW4o6MeCMJQ1vEgBaSBLJAHjoBjoAxUgRpwHlwCTaAVdIIbYAAMgVHwEDxF58YceAeWwDewBkEQHqKC6CFWiBsShMQhWUgZ0oQMIHPIFnKBPKEAKByKhVKgA1AeVASVQaehOugK1A7dgAahMegJNA0tQJ+hHzACU8IMMCcsBEvByrAObAbbw3vgADgKToIz4Hy4FK6GL8It8A14CH4IT8Hv4GUEIBQIE8KLSCDKiB5ihbgi/ggJ2YfkIiVINXIZ6UBjfR+ZQhaR7xgchh7Dg5FA56cxxgHjg4nC7MMcwpRhzmNaMLcw9zHTmCXMTywVlgMrjlXFmmCdsQHYeGwWtgR7DtuM7UdX1Bz2Gw6HY8IJ45TQtemCC8Yl4w7hTuIacL24MdwsbhmPx7PixfEaeCu8Fz4Gn4U/gb+I78GP4+fwqwQKAjdBlmBIcCWEE9IJJYQLhG7COGGesEZGQyZIpkpmReZLlkhWQHaGrIPsHtkc2Ro5LbkwuQa5PXkweRp5Kfll8n7yZ+RfKCgo+ChUKGwogihSKUopGinuUExTfKekoxSj1KPcTRlLmU9ZS9lL+YTyCxUVlRCVNpUrVQxVPlUd1U2qF1SrRHqiJNGE6EvcTywnthDHiR+oyagFqXWo3amTqEuor1Lfo16kIaMRotGj8aLZR1NO007ziGaZlp5WhtaKNoz2EO0F2kHaN3R4OiE6Azpfugy6GrqbdLP0CD0/vR69D/0B+jP0/fRzDDgGYQYThmCGPIZLDCMMS4x0jPKMjowJjOWMXYxTTAiTEJMJUyhTAVMT0wTTD2ZOZh1mP+Yc5svM48wrLOws2ix+LLksDSwPWX6w8rAasIawFrK2sj5nw7CJsdmwxbNVsvWzLbIzsKux+7DnsjexT3LAHGIcthzJHDUcwxzLnFycRpyRnCc4b3IucjFxaXMFcx3l6uZa4Kbn1uQO4j7K3cP9loeRR4cnlKeU5xbPEi8HrzFvLO9p3hHeNT5hPge+dL4Gvuf85PzK/P78R/n7+JcEuAUsBFIE6gUmBckElQUDBY8L3hZcERIWchI6KNQq9EaYRdhEOEm4XviZCJWIlkiUSLXIA1GcqLJoiOhJ0VExWExBLFCsXOyeOCyuKB4kflJ8bBd2l8qu8F3Vux5JUEroSMRJ1EtMSzJJmkumS7ZKfpASkHKVKpS6LfVTWkE6VPqM9FMZOhlTmXSZDpnPsmKyPrLlsg/kqOQM5fbLtcl9kheX95OvlH+sQK9goXBQoU9hQ1FJkaR4WXFBSUDJU6lC6ZEyg7K18iHlOypYFV2V/SqdKt9VFVVjVJtUP6pJqIWoXVB7oy6s7qd+Rn1Wg0/DS+O0xpQmj6an5inNKS1eLS+taq0ZbX5tX+1z2vM6ojrBOhd1PuhK65J0m3VX9FT19ur16iP6Rvq5+iMGdAYOBmUGLwz5DAMM6w2XjBSMko16jbHGZsaFxo9MOE18TOpMlkyVTPea3jKjNLMzKzObMRczJ5l3WMAWphbFFs8sBS3DLVutgJWJVbHVc2th6yjr6zY4G2ubcpvXtjK2Kba37ejtPOwu2H2z17UvsH/qIOIQ69DnSO2427HOccVJ36nIacpZynmv85ALm0uQS5sr3tXR9ZzrspuB2zG3ud0Ku7N2T+wR3pOwZ9CdzT3UvcuD2sPL46on1tPJ84LnupeVV7XXsreJd4X3ko+ez3Gfd77avkd9F/w0/Ir85v01/Iv83wRoBBQHLARqBZYELgbpBZUFfQo2Dq4KXgmxCqkN2Qx1Cm0II4R5hrWH04WHhN+K4IpIiBiLFI/MipyKUo06FrVEMiOdi4ai90S3xTCgV53hWJHYzNjpOM248rjVeMf4qwm0CeEJw4liiTmJ80mGSWeTMck+yX0pvClpKdN7dfae3gft897Xt59/f8b+uVSj1PNp5GkhaX+lS6cXpX894HSgI4MzIzVjNtMosz6LmEXKenRQ7WBVNiY7KHskRy7nRM7PXN/cu3nSeSV564d8Dt09LHO49PBmvn/+SIFiQeUR3JHwIxOFWoXni2iLkopmiy2KW47yHM09+vWYx7HBEvmSquPkx2OPT5Wal7adEDhx5MR6WWDZw3Ld8oYKjoqcipWTvifHK7UrL1dxVuVV/TgVdOrxaaPTLdVC1SU1uJq4mtdnHM/cPqt8tu4c27m8cxu14bVT523P36pTqqu7wHGhoB6uj61fuLj74ugl/UttlyUun25gashrBI2xjW+veF6ZaDJr6ruqfPXyNcFrFc30zbktUEtiy1JrYOtUm0vbWLtpe1+HWkfzdcnrtZ28neVdjF0F3eTdGd2bPUk9y72RvYs3Am7M9nn0Pb3pfPPBLZtbI/1m/XcGDAdu3ta53XNH407noOpg+13lu61DikMtwwrDzX8p/NU8ojjSck/pXtuoymjHmPpY97jW+I37+vcHHpg8GHpo+XBswmHi8aPdj6Ye+z5+8yT0yafJuMm1p6nPsM9yn9M8L3nB8aL6pejLhinFqa5p/enhGbuZp7M+s+9eRb9an8t4TfW6ZJ57vu6N7JvOBcOF0bdub+feRb5bW8x6T/u+4oPIh2sftT8OLzkvzX0ifdr8fOgL65far/Jf+5atl198C/u2tpK7yrp6/rvy99s/nH7Mr8Wv49dLN0Q3On6a/Xy2Gba5GelF8tq+CiBohf39AfhcCwCVCwD0aB5HTtzJv34VBNpKOwCaY3KhN4M8MAuJoed2L8wKx8CTiAlyE2OEeYANw9Hi+vApBE0yPNlz8naKCsoCqlriMxoaWjO6HPpBRlqm3cwXWTFsXuxdnDxch7hXeX35JgUsBQeFpUTyRd+Jm+yqkvgmpSd9WGZUjkpeVyFasUKpV3lKZUONWV1cQ0XTQMtW20cnWjdD77h+vUGP4X2jBeNNU0azXeZ6Fm6WQVZx1pk2RbZVdvX2reiqH3Iad37i8tJ11u3N7vd73rg/8xjx7PFq8K70Oeyb5OfvbxOgFigQRAz6FvwyZCC0LuxweGSEXaRSFFvUOulFdG9MTWxmnH+8SYJ4Inni26Th5MaU0r0Z++L3R6WS0pLScw+czujKfHmQLFs9JzK3Jm/iMHm+ekHYkcrCkaKNo7uOuZXkHm8pnSqjKFeo8DiZU9lU9fQ0plqixvHM/rPnz43VrtbxXDCvT7nYdOlTg2pjwZWPV92u3Wuxan3Qrt4Rc72u81k3RY9cr+ONqL7Mm4W3SvpLBgpvZ985MHjw7uGhw8OZf8WMON2TvLc22juWPK44/u3+owftD8sm9j7yeKz7RHCSbPL907Fnzc/LXux96TmlPy06QzPzffb1q4m5wdc35q+/aV9of3v2Xf5i3Hv3DwYfxZdolpY/TX7u/nL6a+Zy4DezFalV+tWV789+9K5Vr2ds+P3U3+Tb3ETjjwNs6O0wAfSjNzpz6Aj0EpZD715fEA9kAr01PcdG4oi4VrwfgY0wSVZBHkChS6lBZU8MpE6lOUV7g26BgZFRnymRuYHlI5skO4mjk4uC25HnAu8mv45AmmCP0LqIkmiw2EnxoV2fJRml5KSNZdxkA+Si5BMV9iomKQUru6mYq2qoSavzaTBqEjR/aL3XntZ5qHtXr1v/qkGtYalRtnG8SaCpi5mxubKFsCWjFcbqq/WMzZhtr12jfaVDtmO0k7uziYucK6cbzu0DutN3udd45HpGeNl7y/tQ+sz4tvsV+PsHqAfSBr4Ouh5cGOIXqhpGHTYb3hqRHekSJY7Oi5HoUzGkWL04xrj5+PaEQ4nuSdLJcPKjlIa9efvC9juk6qeppqsc0MgwznTOCj94MPtszs3c6byfhznyVQocj0QXHim6WDx49HUJfJyjVPGETVlYeV7FxZOjld9O8Z22rj5Q037m0znJ2qjz1+pW6lUuplzqbgCNOlcONPVfwzYbtWS33m7HdxhcT+/s6vraI9RrdyO5r/Lm9VsP+xcGVu5gBunv8g5JDWv8ZT7iei9wNH4sa/zY/eoHDQ87JwYfTTyee/L1KfKM4bngC+WX5lMB0zUzC6+E51xfZ81feHN7Yfrt6iLxveAHrY9uS6mfRr/IfS1e/rJiu3rtB8ta5vrqz/jt+GMALRADliAV9KL3elUoBmqFYdgCPgWvIe7IXYw6pgWrjO3DWeNm8ckEdsJtssPkPhTqlOyUP6lmiEPUzTRnaUvp8umzGTIZs5jymItZqljr2drYuzi6OLu5eri7ea7zNvPV858UyBOMFdotrC3CJwpEn4q1iuftcpTgkXgr2SyVKm0mwyQzLVsvFyuvpUCmcF/xpFKgsrzyqkq3aqaamTqd+qRGtWawlqzWuvaATqHuHj0xvRX9mwYFhm5GwkafjbtNck0dzXjN3pm3WKRamlsxWU1b19tE26rZwXZ37YscXB15HOedLjvHuqi5wq6DbgW77fYw7XniXu6xx5PT87nXSe89Phw+k76lfo7+9P73AvICDYIAOl/iQmRCFkNrw7zDOcIfRRRHWkYRom6QkqLlohdjzsa6xzHH3Ys/mKCVsJrYmBSUzJP8JOXoXvt9rPvm9relHk1LTPc/sDvDJdMty+9gbHZmTknuubyWQwOHH+bPFXwtRIroi/mOSh9TLdE7blpqc8KlzLs8omL/yeLKi1VDpz5WC9Yknhk9J1y77/zEBYn6jItPL8s0ZDe+aFK8mnftZYtc68G2Zx1y13M7Z7rVe0p7v/XZ32zuFx44c0disH8o5C+BkcXR2+NXHtRNND6+Mfn8OXgpPV37Kms+923rB+pP2cssq83rTlvx3/kdbqvgFAE4OwuA42kAbNwAqBUHQLAcACIDANZUANirAFi3AEBPTgDI6PKf84MKCKMZtD84iGaOg+AdRIRkIAcoCToJdUJPoXU0v9OCveEs+AJ8D/6KsCM6SCByBGlHZjAUGAWMJ5qRtWFeYemwWthw7GnsQxw5TgeXgGvCLeJF8AH4WvwCQZIQS+ghoyBzJbtIDpE7kzdRECnCKcYplSlPURGoSFQviKbEdmoR6jIaKpo0mhXaCDRf8aF7Se9NP88QxvCNMY2JyHSSWYr5JosbyzJrIZsM2332eA5OjlHOg1y63ID7Bk8mrwUfK98b/usChYLBQobCgiKUIsuiM2Lj4rd2dUhclWyUapBukmmT7ZUbkn+h8EkJo8yowq8qoSajLq0hpsmjRacNa3/Uearbo1etn20QYehspGssZcJlSm2GmK2aL1m8tZyzmrGetnll+87ui/2GI5kTs7Owi4qrhZvP7uQ9x9wb0XPsvTfRR87XxW+/f01Af+Bs0EYIXShvmFi4ZIREpGgUH4kpmiz6R8xCHFu8RUJGYk/SzxSDvcX73qVapF0/IJ/RnmVycDbnYB7vocv52gVThYXFzsc0jpuciC/vr2Q/RayGa76f/Vz7oW6xfvHSx4blKxvXCC3sbVId+p0u3UG9cX37bqUO7L0Tdzd02HMkb7Rt/O1D3kd7nlQ9ff1CZipt5uGc+Hz2wvyi0YcLn2i+JC+/X/X/Mb8Rub1/UANJYANiQRnoAa8gCkgWcoMy0Ix/CPqIZveqsCecDTfCTxAEzdldkEzkCvISQ4XuKiGYcsxfaP4tg/XFVqBxp8aZ43Jwd/DkeAt8EX6SIEggEfrImMhCyQbI+cnTyecoTCk6KMUpq6gYqQ4RccR0akCdRoPQZNMSaY/T8dE10GvTP2QIY8QxVjPpMM0wZ7FIsEywprFJs02xF3MYc2I4+7gOcBvyUPJM8FbzRfMbCnAJrApOCLUKnxI5Llooli+ev6tIokzynFSz9B2ZF7Ir8owKqoo+SvnKXSof1QTVPTTKNZ9qc+n46jborRkYGOYZDZlgTZXMvM2zLM5Z3rCatF6yxdgx2Ys5aDu6OEU7F7hcdh1x+7SHyV3Dw9+z0Kvb+4Mvv5+zf0HAQOBGsHxIUGhl2FgEHCkb5UnKj74e8yaOOl4pwTMxL6kteX4v8z6T/XtTm9LeHuDP2JNZlvU4mznHJbcy79VhifyEgoFClqKI4uFj0iXlpcQTOeWUFccqhatunw6qoTzTdM71PKausd7jEs3lm40JTVJX3zTXtga1S3R87uzoTu8172O+OdvfeDtl0HSIdXh0xOHe7FjSfa4HIxN5j+0mhZ5Bz2deDkzXzxbMkebtFtjfVi0Kv7/yUXNp5LPHl4/LqSvUqyd+cK1VbbD9LNiOPzPQAZGgCtwDm2js/aETUD/0BeaDbeEMuBVeRHgRZ3S9D2IQjCYmCdOKWcYqYOOwXTgszgpXjnuLV8Mfwb8h6BPOkBHIIsmekZuT91IooZHWpRymcqF6S9xHzUjdSGNF84m2hE6TboH+JIMdIxXjXaYcZnMWOpZJ1rNsJHYdDnqOd5wDXGe4s3hCeO35dPhlBYQFuYXYhdlEeETFxVTEzXZ5SaRIlkl1Sb+SJcqpy5MULit+VFZQSVMdVxfRyNB8rW2u06onrn/GkNeoxkTUtNlc3+KxVaQNpW2jvRu6Xrtc4tzkd6+693oe9nb3VfSnDHgSVBZiEroQnhixHhVDmouxjr0aT5tASnyQrJpyeh/F/oTU+XTnA8OZulkd2fI5LXkahwbzXQreFe4rpj1aXSJ1vP2EZllPhfrJlirsKfPTx6pfnhE7G3+u/zxjnf+FjovES76XOxsZr0Q2DV0TQTOf92027a3XuTqzuj70OPXe6BO/eezW5kDw7QeD2nfrh5n+ih65O8o+Fjh+8f7bh/wTTo/SH59/cndy7un6c5oX3C/FpxSmVWc0Z7Vfac9pvladV3ojsyD2lu8d8d3CYvv7+A8KHxY/nl1y+UT+qfOz/xeaL21fdy+D5epvut9mVvavcqy2f3f4vvTj0JrwWt+6+/rqRvFPqZ+Dm75b8Y/2l5PdPj4gSl0AsC82N78IoUlFEQAbhZuba9Wbmxs1aLLxDIDe0J3/drbPGhoAKmr+038s/wXZWc58Q/jF5gAAAZtpVFh0WE1MOmNvbS5hZG9iZS54bXAAAAAAADx4OnhtcG1ldGEgeG1sbnM6eD0iYWRvYmU6bnM6bWV0YS8iIHg6eG1wdGs9IlhNUCBDb3JlIDUuNC4wIj4KICAgPHJkZjpSREYgeG1sbnM6cmRmPSJodHRwOi8vd3d3LnczLm9yZy8xOTk5LzAyLzIyLXJkZi1zeW50YXgtbnMjIj4KICAgICAgPHJkZjpEZXNjcmlwdGlvbiByZGY6YWJvdXQ9IiIKICAgICAgICAgICAgeG1sbnM6ZXhpZj0iaHR0cDovL25zLmFkb2JlLmNvbS9leGlmLzEuMC8iPgogICAgICAgICA8ZXhpZjpQaXhlbFhEaW1lbnNpb24+NzI8L2V4aWY6UGl4ZWxYRGltZW5zaW9uPgogICAgICAgICA8ZXhpZjpQaXhlbFlEaW1lbnNpb24+NzI8L2V4aWY6UGl4ZWxZRGltZW5zaW9uPgogICAgICA8L3JkZjpEZXNjcmlwdGlvbj4KICAgPC9yZGY6UkRGPgo8L3g6eG1wbWV0YT4KLqSt0wAADthJREFUeAHtXHmQXVWd/u579+1br0l39qYhHQOYSTIhCIEyFRUQEC1RXECWUqesUGVN4czI/GHNUM7ITAiFJVVqqVVWSqMlWihGAwEDYVHIQpOtk04nvaaX191vf+++d/f5zu2lEppAZPrd58Kp3H733eWde777+32/5fxOJJsN77ULIuC54Jn3TjgIvAfQOwjCewC9A0DyO5yv2mnbVKElj0EbPwQj3Q/JNAFJgh2MwL9gDQIt6yDHl1St/4v9YcltkrZsE+Wep1Hp+iU82hAS9SF4wn5A9gK2Begm1EIFiuKD1LIJsXX3whtuvtjxzPt17gJkasi8sh3S0LMIL4hArosSnBgQrAc8EUoQQTLLBCkLFNOwUjmklSbUbfmvmkmTqwDlD34fVtfP4WkMIdIcgzfeAOrT1CYTJG+IEkCvw1QAbQTIn4I1lkSq2IyGG7bzNK9xublG0kZuEIUjv4IR8ELyeeHxsmtbp9QQDIubbXDoPoIUBwKLgFAHkFgNz8Jm1MmjyB/e6TI0U925RtLK2QOI+AlIMABV0XH65AAqZQNLLmvCkpUZSKEUJWkhN/LNjDT5CVQ0B19zCXrvMzCuuB1ylNe42FwDqJIehEZAhoaKmBxXsGBhBImGEE4dGoZWKGN5Rw5yZAwmJcibWEGgaMEEJ8lUw0gccQJVGvgTEpd/3EV42L1bvb1xZBJdzw5gw4YF2HTDJahfwoH7/OhQKjj1ai/y4wWMDo+ivyeNpsUJrP/4jZBDiwkSH9EfRTAeRDk74NbjzvbjGkAxNYM7bmtDvL0BvqggY3IQTbo3FERdSxy93Sn4gzKu/ehKjPenURrpRmI5JQjBqYclZ+lKcvbB3dpxD6BYAF0nMsh0TmL5pQuxoj2CpqWNkMjNC9uaUJgsobW9EbHFjYhSWgxVBRRaMh9J26yQyGnd6Ca53VyzYqqqIx724mSPgjV3PkayXUbDRRDoHHq8MlZe3YZYE30izUC5qKKcK8MqZoDyOGy1SIx0OowtbuPjHgfFF1+CgLcTV/+jjNyZpxG2x+CR6RwKyZCmMy7OhwmDqjeZLCIQ9sFLYIUqltN0IC9v/9sFCNFWZLMarrluIazciwgmopQgU4RfbOLPFEgiPRWjip3JqIjGSggxDJEoVQU1jgVtH3AdINdU7PCzT6EwUUGOJl6i+TY4aInqJQAxGaiahuVIjpAegVdzaxRH35iATtXy0D2QL7kBgSgtn8vNNYBWffBWpO2lGOhhPNafhU3z3ntiHMnBjCNJJgEToOkVjfyjIBaRyUU6kn15lP3L0bD20y5DM9Wdq7GYXqkg39uJAz/4Gk6PjqBY0PCFO1chUhckV9uwuJmCb4oacskyjh5JoW7tjdhy34MI1NEnqkFzFaCZ8fUfPYQfffPfsNrfjytW18MXlukU0uOgaikVAxMTZWhWM9quvxurPnLnzG01+awJQM5IdRX9+/di9Mg+KJNdSI8Nom8oRdenDH/JRvuHP4Ur77wPq6+6qibAzHRaO4BmnoCfXbt34cWtX0XTZAotAR8MEvewZWA/PcMP/8823PKlfzrnand3aw5QMZvFj67bhOVjo1gV8MPvkaDS5KfIRb2ahpepd197bi9Wrl3rLjLTvblmxS40uuH9+2EPDKCZKdco460Yt4THgzqfxzm2XNfwm8ceudDtVT9ec4D6n3kGDQQnQMnhP2785LA9lBy/RLC8Xhzb9Xv0dnVVHYy36qCmAKk0+2Mvv4QAQTGpVgq5R6HzWOJ+hZ+Ci2Q62LKi4Pknnnir56/6sZoClOnthd7X52Q+8qaFlGFgUjcc/kkzDMlbJioiBOG/55/8NZRSqeqAvLkD19Idb+5YfD/76p8QNw1YfE3Duo6MKkFibKoy7MhPS1JWtiAxJdS+5lL4/ZwecrnVFqB9+xDzeGm1LPRzq1sSQt2yMBYsiWBFQ5DpVxtnhvJM9qfA7CzTIiKB5m6rGUBKPo/s669jOZm53vZCaZWx7l9Xo72jGb5IgBMeBnLDOVSodgcOTWCo5zjSaaZjm5pcRahmHJQ8dhTmyIjj98Q5FbRo0kK2r8BZVRU6YzStyMBVZUrWK8EySd50IkvZtKvgiM5qB1DnYcTJvj5KkMytjlKUP5WHxojeIgfZgpmnzb4IZPVCCWdOHv/7AWj4lZcRpkMoEwRSMyIEyT6joMhI3mJ+yInuKTkGrZs4b5VNnB2kxXO51USCyjTXpTNnHOdQnnYMZdmD0IiOIpNqFkGxLPpBlCSVamZw3yxbCIbCLsPj4rzYuSPLDHJWdXDQkR4KzmwLWpSi6bwQKD1ahb4Qk2ZqTkfMkLC87bLZa93aqYkEFcbGYCglGnZ60KQa4UWbIvXKqXk/CVuAJDKMFU5Rj6dU+BQbizi72rbiErdwme2nJgCdPXESFAiUqToKtxIBKVGdcnFGYH6Pk4I1NEpPXkNyvIyE7kHE1GHkC7MP7tZOTQBK01zn6Odk6eOk+Sm2SYYW5SgtmiNB9KZV+kE5ldM/BIhBq6npGDzxd2LF1n30FgyvXI8T/jr0WV6MKgaSGfo+fF0+pjkEQVd4bCJVQXlCRYDiopC4h3pOuyU4s/3UxJM26pfhtx33o7CmESGPicZKFpFCGp9b+hsEWDOk6xJKdBiTtGhj8lJEE5QuqtjaOvcLqGoC0PafvoaMFWFNUAJKNIay/D7mgUKIxf4AGClwup5ecwVJuxEHPvE4/jh5Fh9aoePmr3x29s26teM6B3WeHMEv/jgGKRKDFBCVG3wES6f3XEajneEssw2V5r2QKuO4vMaZBrKUCdy0sZVhh/vBqqsAiVnUbTsPQYsuYFULJcjLSlYSsAApaKYQJEhlck9BSE9axZC0jNV5acSzR7FlNe+pQXMVoJc6+/HUIZbb0aeRAqRe5p9tx1H0oVXrhpTKYGKS4AwXMZAyMIg2GMnDaMu+gnCMlR81aK5xkE6T/t87DsCOL2QCLMzCMXqFdBTpFXLjdLNuo280h4mchjwl6Ei+nhnEM0zovwRvgx/NLe6Xvoj34RpAT+7twgvdKryLWPLiJ/cwUHVyqfSBLJb9jkmX4nf61bj0+IvIllQcNJfQmexGXTSAr//HAwgGBV+531wBqKJq+PYTnfDEWVEWDEES4DDEYDQKm8XltlqArpWwN3EXXss0QmPtUDHQyLqgIj7/yZtw220fcx+Z6R5dAej46SQOD5YgtS6lzFK1pqXH5uyprSsMLVhNlhmAMXSAHjTL7SIsVBB105w8vO6qNTUDR3TsCkCvHuPgfVF4ZSbdmYN2qqY4Y2HTKbQ1BVrvi7CHOllAHgXClBxxHSWrPhHDpg3v/9sH6Ox4kYMWVotV9sz/CHKmxaeUsOSlkod1+gVIYsEKHUfJz5yPAMjwYcsHVqF1obs56De/DVfMvPB1pvydqe5FhtDBiQBJBE6qXzEFio9ELL7LQboBEXSPKfjxr19gyMEq/Bo1VwBq5cIVh5UdVM4fqURpkaKUHla6Sh4BDiWNQEm+MI4nLXzxkadxzb2P4F+2/QSHjvWcf7ML31zhIK9jtRyP0OEfxzkUYAk+4jmJnrVdmpgibwGUV3CVj/EZ318ggSEWMDy2uw/f23UUm9cswT23bsSN116JcFgUpFe3uQKQIkp5z5EeoWK2KE9gMafNzRNuYHaRjcTtmH8eE2GIw0VCPal5kp2AxtnXp7sr2N25C+tW7MO9t/wD7rhxI8mcxeZVaq6oWLE0AxC7mxYkBzAxeA/fkV+oIMMOnWULoqqeqxJnzoPSJNGxlIIMT1jlKtUtgKe5HW+kQrj/8Rfwwfu+hd37DlYJHvFULrQ8PeMp8y46m0JISJFzDF54fRHcftP1TKvmWP3KqldW1rMumNdOrz1wVJGBLcnbE4zS4iWAWAM8dYvQlQ7g9i8/iLvvvhu9LIaY7+YKQArTp0KdpqRCDIEqRnwcj5oSZLN64cor1mD3976O97d4YRVGOQ/GZQgagZ1WOwdQwUmO+k3xlGMB/REooz3YsWMHHn300fnGxx0JKnB2wqmOEjwk/B/+mRmwNE3K+48N41o6hXt++A18blMbrGw/rBLNu6N2dCjFjVPCx9s580ovXABuZig1xSEHmCzL+ea7VV2CRA4ow2ljW4QOYuk38822iOBnmgOQD92DOWRyRTQ3NeDH//vP+OZ9WyDlermghdZNqJxY+OLcTw+cXjYMVg4xfrN69jiAiZ/zOCHMzA/Pz2fVATIYkBZLeYZWIuZSmDzkwGi2beaYnVSHGAc97EEmyEZTJWdUInP44FfuwI5vfB4NZhJWPkluyvFeAs24TQDDdQsw+14CsvPPO+dCW3WAZFkm1VJqxOAYVjgkXOZgK0UOlGAJaRBX0O95/cTZc58Nn7l1M37/7fuxMlbgAphhMA/r3M9Fr1StPkrPM+ddHw7P/9R0VQHq7OzE9u3bMX78eSD5GsxJLvMm+Vq0VJYy6ezbKmMxSgU8No6cHjlvwOLL+itX4nff+SquWUYNI99Y+RGq3TjM478iP50/kViN2qGqOIqCdx5++GE89NBDqLBQc7bR35Fa18Pbfj08De2Mtxi9C+alJMEoon+YavcWbcXSVjz1+APY+p/fxc/2HoM93g2kTs25srW1dc6x//cBDmbeW09Pjx2Px514nQ8499Pjs9HYYXsuv932XvegLX/kW7b3+n+3137iAZuAXvB5dF23f/iTJ+2Wlpa5v8l+du3adcF73+0JWpT5bwcPHrQDgcBbDmIOYBILEf0xG+FW+7LV6+1isfi2D6Rpmt3R0THntxsbG+3+/v63vffdnKwKBy1evPjiawlFWKGRSxT+7wqps87iurdTC5/Ph61bt86ZI9uwYQNEv/Pe3g2qF3PPtm3bbJrrOW96jgSdo4J33XWXTbfgYn7efu655+x77rnH3rx5s33zzTfb+/fvv6j7/tyLqraYhQ+CPXv2YOfOnRDWTFSoUj1YnOBDJBIBVQKCVJctW+Zs69atw8aNGxEKVT+F8edIWdUAOvchFC4lULkOXqxNFd6uAEkUhZOnzr3sL3LfFYD+Ikd+kQ9VFZK+yL7/Ki77PymR6ijkN2eTAAAAAElFTkSuQmCC'
p13
sS'twit'
p14
S'data:image/png;base64,iVBORw0KGgoAAAANSUhEUgAAAEgAAABICAYAAABV7bNHAAADv0lEQVR42u3YT0gUURzA8Tl0jjnVrTbo0go5YRaSyhBBkFF2kcKEhf6YSLFQmCxWi56kYiGCbm6FWBI4JBgZ1BQYFQoDRYcI2ugWHV7XiPj1+8k+GZ/jzJsVCt9vH3wvFkvv05vfm9X6V+vP/PEMlsd8DCKqYEXMtrit6sZBM4F1coGxsQCDGnI5AJUwqLGK6TiuDsSPmfPwbXJwqe/Tefj1ukf+ec5koHIczO+33fB1ogCfxoYjIyga6CYDiVVw6IRInNh+PjsHJgNBVLTpz/euEUBi9MiZPoOKNGMoemS+jF9REJKzTF/KhutAEUD+GoB8DkC5NQDJa954pKAGnICDjQTKYCIFjsAybIAkkuZJCtjhqDMpZnB7Vn0tQbnvrw/AVMNeuLthi0xgJcy2uK/5wT73weYGCaMWWNwXIpQxiKnIGSeDQUICs+unJ748VyChCeRxxHEw0I0jUB6DFLncgEphAOVFsT6HcMO+3Dy9B4VxPt4eWgHkNbWJhVsFmyUQvUWHgfDlcQXQw62NgEAlljfY82Ody4DmTveoQBQBUS4XIJDRiQkDzR48FAk0d7mPgHxWQOMbt68Y0I+27YoEenG2RzlFDIBm2g8sw6Fv9iqM7EnHYQnksxnSBBIGetndtSrQlLOPcGQZ44Gmd7dpP17UxKZsGKhkOlAZT0/i9a72bvSSBKoYDfTh5uWScnrofUgXSOYY+2tWFefNhVMEkJSEkeVNxHEwoXy1oK8btQB5puNQdNVLgLRAvkk4RQVGuda1EgoQmAQEaguF/iAFToA5nIDK2d47GUxgsH/0VVKuhQtRwqdImPqIlehnCENIQLWPzCYB5atAOUxUy1mGLsJxMZC1DD1OAipbjBYB+WGg5oHJJKCAE04Og3BO/n4SEHDBsbGKCqQ7qDkAFVWYVIPa5BW+1mX1Qb0cqKyipBzUArNZXOuU5qBWC0wF8jBIqCgh2D1qGjgVzMbNe5pIOW5AixvGjTsYaOawAQr/XTodmkACs7kBSaSyJlLAEUgiBbpDmyuQjQndoc0OiNHQTg9U49D2mAHpD+3Wi2Ow52QBdjQ2FbEMAyD9od3Se4Ng1EqYzQ3IxoRyciSImsAcVkByaEskd+QpNDS3xuKwA5JI7vCMv9M9EovDFogWIgRxOKyBqjcVRORyvOZVnMwqOLl1i0P/s9muwSB74iosdrQfsh1nZPQzP8VnlY3AoX805mGgmav5uWJd49DLmRygKQssjWXAyZE4NWWnAMqt13njRwSauRqfX/kfOH8BlEN3qqnlovYAAAAASUVORK5CYII='
p15
sS'gmail'
p16
S'data:image/png;base64,R0lGODlhDwAPALMPABuqBZNaDDFL9gR1JSZPsuGHBDIx6xM2niKElCJXXigLC1kgFhQwZGZtnzl29AAAACH/C05FVFNDQVBFMi4wAwEAAAAh+QQJMgAPACwAAAAADwAPAAAEPfDJmdS8+BWbc1ldBgxDeAFjaT4oqnbuMHbFiAzJE5iIYDAak8NwAK4EB+TqIQASjZ2mxADKBBYKDnYZigAAIfkECTIADwAsAAAAAA8ADwAABDvwyZnUvPgVm3NZXQYMIQaM5XSi5TqwIoAkCYwViGAwRVA6hsMh9RAcgkTjw2BYcDKO4cMZCjgtIGIoAgAh+QQJMgAPACwAAAAADwAPAAAENfDJGZiaOJdys9+dlwGDOJKlKQGouqKpyR5DLAKJkQRq0wgH10NAZAgfBOAx0AgKF4vQ0RMBACH5BAkyAA8ALAAAAAAPAA8AAAQ78MmZ1Lz4FZtzWV0GAEN4kUNpPihpooPrkQSRPIGJCMahmQ6ebyUgCIam48NgYCSdjwMoE1goONaVKQIAIfkECTIADwAsAAAAAA8ADwAABDzwyZnUvPgVm3NZXQYAIQYMQzmdqMoOZzgmRBJ3BSIYRxGUjh1D9RAQBAci8mEwLDgZR/LxDAWeFhAxFAEAIfkEBTIADwAsAAAAAA8ADwAABDbwyRmYmjiXcrPfnZcBgziSpSkBbKqyrfogBEHKjSEEgeoIh4Ps8Tswho+GBRlYHIeLRQjpiQAAOw=='
p17
sS'related_to'
p18
(lp19
V\U0001f3c3 Runner
p20
aV\U0001f6b4 Bicyclist
p21
aV\U0001f6a6 Vertical Traffic Light
p22
aV\U0001f6b8 Children Crossing
p23
aV\U0001f6b7 No Pedestrians
p24
asS'name'
p25
Vpedestrian
p26
sS'known_as'
p27
(lp28
V\U0001f6b6 Walking Emoji
p29
aV\U0001f6b6 Walk Emoji
p30
aV\U0001f6b6 Walker Emoji
p31
asS'default'
p32
Vemoji
p33
sS'bw'
p34
S'data:image/png;base64,iVBORw0KGgoAAAANSUhEUgAAAJAAAACQCAYAAADnRuK4AAAIxklEQVR42u2dH5RVURTGB4KBgSAYCIIgCIIgCAaCIBgIgiAIgiAIglkrGBgIgoEgCIJgIAgGgiAIgiAIgiAIgiAIBm7r99Z6rddb9985d59zz5/vW+tAq9bMm+5v7tln72/vs9FI0gRt6L9AEkCSAJIEkCSAJEkASQJIEkCSAJIkASQJIEkAza4fP340r169ah4+fNjcuXNnsQ4ODpo3b940JycnIkEAdYNz69atZnNzs9nY2GhdZ86caZ4+fSqQBND/evfuXbO9vd0Jzvq6evVq8/PnT1EhgJrm6Oio963Ttc6dO7d4a0kVA/Tx48dma2vLGZ7lunz5cvPnzx/RUSNAPPjz5897w7NcBNtShQA9efJkMjysU6dONd+/fxchtQF04cIFE4BYHPOligBi+7KCh3X9+nURUhNAHz58MAWIt5lUEUDkfSwB4kgv6Q2kN5AAUgwkgCLp0qVLZgCREpAqA+jZs2cm8FAGUUmjQoCoqFvkgvb29kRHjQCh9+/fT6qFXbx4sfn9+7foqBUghHmMcoTP0f3bt28io3aAlnkhzGIufiDFPQLoP411JHLikiNRAPWCdHh42Dx48OCfJ5pAGeOZwBFAZiL+AaoXL14s1tu3b5svX77oP0YA9cdKu7u7vfESf3f37t3Fv5UE0ELUzrCvup7UcDy+fPlStteaASJo9jHdry46Psh815wzqhIgtiLLouvp06cX7sUaW4KqA4hTmCU86z7q+/fvV+WlrgogShw+2WkfkHjL1XB6qwqgK1euBIdnfV27dm3RpyaACjiqx4ZndQHv8fGxAMpVxCZzArRqk6XQW0r2uxqA5ti+hqr+TATJPZdUDUBTcz6hFhnu/f395tevXwIo6R80QXhWFwa4e/fuZWcn0RsoscXnxH5CmUUAJSRsqjkAtLrIJQmgRES1PTeAdnZ2BFAKIiPsYm0VQALoP+F1zg0eAZSIcBfGfvD4hXj4XWusB0kAJSD622MDdPv27d7P9PXrVwGUg8ipxKi+t+V0+jLM+IYEkLav3sX37tOYoF4AzSwyu3MBdPPmzd7PNqZ/XwDNLB/DvKXNta/ifuPGDQGUsihOzhH/rK6+FqAxvmwBNKO4hWds7SkUQPivu0RXrABKWEyaHzPG5fnz58EAOnv2bOc2RterAEpU9GqNOeVg6AodK2Hk931DCqDIev369WgYAGzZx0WsEipe6rpzg/qcAEpEPAzXjPP6CDs8OCEAAmjfZKIACiwa+DDLuwbCvG3Wp5BxauPoHQKiro7Voe8ngAKJwJTedt8HztumTcREIQAiUG/T0LVUAiiAiFemuguZ+dOlEN0bDLNqE4AIoEj69OmTia+HmKQvQxyi/bnrzg3KHQIoQkbZJ87xLXIi3hgx4qBHjx4JoFDCDvH48WPTwHbsXajYQKbMmW5b5H3WNXS7ogCaUIbgtW81KQODF33pLu3EzPuxBKjt9kPyVgLIUMQfVv5lEoVsfb5Dw4HN8uIWPkvbzyuAjMRvqEXwytGYOpNFzzlvLauAuu0kRh5LABmWIaY8IPw1fA3rqRdWAXXXUV4AGcr1vncCbOIbTOqhxNe3AKjr9h8GdQogI43xyCzzKpxgQk9H5Y1mtYV1ZaP7Yj4B5CgC3r4HRsHU9TQ1JY1gdRJkkQhtU5+1VQB5aD07uzyGx55WYVkX6/NH9yUTBZCHlrMMOYazpc0xL8c6kdhVvB0CVQB5ihmCc05/tx5E3jella2NjHvbIh0hgDITD9uymDrUH5a7BNCKrLPPLC5lEUCViAvpYneoCqBChN3CugK/PEXmOoFVADloTB+Z76LNSAApcJ50X4YAKlgxRuCVehd99QCxvcQYtEDtTgAVppC9YG2XrAigwhR7AFWJF9BVCxAlhNjzgyicCqBCNNTUF2r8rwAqQJQXUpxaJoAyEFV+C6OYb6NjW3eGAMpIFiZ5/D2+hjPKJaVcd1kdQBZ97xzHOf5jee0zxPtMLRNAhQfO5IxWj+K+9bMc7gETQGua2nfG4musCuurTyyEXVe3NmemqZeudPV1+cZUY6aECKBERLwyZTwMW1/XG4NuEWujvQBKTGOHjo+Je9qEXaNWo1kVADEx3tdN2DcObyqgOXRdCKBm3M04fYPIh8T25pOcxIckgBLXmIHeXWZ4l5OSb2KxawSwAEpEPp0WtPa4xie+3qLcjWa6M7Wl1OA7LmbsdJHVxVhhAZSoKJy6Ht+ndFD4JhZzNpoVDZDP6WjqMIeh2c9tiz54AZSgXLPExD5T5ZNYzNloVjRAY+4MGxrF6yOfom3IMX0CKNLxfUzSMNTWaQWvADLS0BT4NoehxWhg5JNY5AKZHCv0xQI05lrtkFlhn0n3Vm9AAWRwfHd1HlpvIXwG12kffbc8C6CI4jc5hW4JV8di3y3PAiiiXKvveJtDPDifQD72NFoB1CLXWwdDThHb3d01uRJBAEXS0LDy2AOgXLdTToNzTqitHiBGBLtuG58/fw76mcbeZb9c/AwCaCa5li/IVocWzsNSB3MWB5Brs18Mc7trEyLbWC5+6aIAop6U6gBMKu4h7LQCyFA+2d9YXhzXMcK5+KWLAsi1vabrPvdQYrt0+XxciSmAIolEoKsnmWukYoqpaKVtY8UAxFE8hwHgLh7tHLaxYgDyaauZY3az65CHrpsOBdDMyTrinzkKl3xPl8uFU6/QFwGQj31jzlFzLm/LuUCvCiAf+8ac41VILLoE/ClvY0UA5NPQN3dLsYvlJOX50kUA5HpZCv7juUUAP7YJkbeVlV9bALXItX0nlVG7Lk2IdHoIoETyP6mMl3NpQkw1qZg9QMDgcgLj36Zk2Bq65JfZRsfHx4qBQoqaEYXUMb1Y5ItSUpcBDtC5TSh1d2JRxVTyJfy2YirriovolEjtM68nFvkz13DmoGIbCzm1sL2tNximuB3s7+//e+vwJpUnOjHh+SFXxG92iiPlGClDkTW3lp5qAJIEkCSAJAEkSQJIEkBSMvoLsvYLU3gsPXMAAAAASUVORK5CYII='
p35
sS'version'
p36
VV6.0\u02b2
p37
sS'uni'
p38
V\U0001f6b6
p39
sS'desc'
p40
V\U0001f6b6 A person walking, otherwise known as a pedestrian. Taking a slow-medium pace, this person would be a runner if they picked up their speed. This emoji is recommended to be displayed with a nonhuman skin tone by default, unless a skin tone modifier is applied. 
p41
sS'browser'
p42
V\U0001f6b6
p43
sS'annotations'
p44
(lp45
Vhike
p46
aVpedestrian
p47
aVperson
p48
aVwalk
p49
aVwalking
p50
asS'wind'
p51
S'data:image/png;base64,iVBORw0KGgoAAAANSUhEUgAAAEgAAABICAYAAABV7bNHAAAAAXNSR0IArs4c6QAAAARnQU1BAACxjwv8YQUAAAR8SURBVHhe7Zs/aBRBFMbvzk7RpBLBSkUjopIigqCQIuIf1MIIaqOFVgraKCrmUt3lMJYmoFUEsYgKVga0MKRQCJgigoiJotUJ2gWxvfN7u9+td3u7e3thZmfA+cHw5o17x+3nm/dmZjc5h8PhcDgcDofD4XA4bCNPa5yxsbFdtVrtOrp7/ZHcfKFQeDAyMvKJvhGsEKhUKh2Fmc7n8z3+SMASxoZNilSgNU0pQhyhj1FlDOMCSfRAnAG6UZymNYINEbSdNpKYyMoM4wIhEb9hN5J6vV5l1wjGBZIEDBFm6EbxhNYIViRpRNFNiLRAN0CEGx0dvU3XCNasgwQk7CLMFt/LLUKcCfYdtmJVBDVAJF2FOYi2Fe0b2i+0ZRMRZZ1AEOcpSvsZui0gJ63AvEWbh1hlb1AztuWglxDnON1EKNZrtEcQ65U3qAFrBEqKnE5wmTCpQ6g1tEaR6gVxJO8kAiGquG4D3QCM7YA5OTQ09GN2dvaDP6oGK/ZiMDd8ryPjEOkY2jNOsQCI1IOxjiJ3iw0LxbidfBT9Mo3QzqL1QhARrEUo1RgVCNEzAXGSdvJhttF6QCRZZX/xPS+KuvmuVBgTiFPrvO+lAwJsYjczTEZQy9TCVJmCWfK9WPpoM0N5mS+XyxdwsxfRXeePtANh1sM036x3tFqr1e7BJq6D8N3XMLWCFTUi8T0+E0ytYrGo9J50RNAd/OBB+dFxDdeEI6HCc+fvvpuIlPQ4OkVg1xivYjK18L/+mO4ybRIbadvAd/1mVxk6BKrghy6kbFOYLpf4OalKaTajsoHNDOs2q8hhn2ESk3FznmnOQSI6RN7n/YMijE+xMLjJr+zGAlGUr5jjsE4g0G2i/kkr/KFVho0CpUnUe2gb59mTks/Qv8JhZViXgwTkoTq7kUCMFeSaXrpasTGCvGTLbiRIyj2yIKWrFSsFSgNEHGRXK1YJJK/AoELNNcp2ErjmALtasUYg2d0jKl7gxtsiA+Py+Dm8jegTQdnXhhUCcV0zjRa1QFxCdToMW/Hdf2Bzqz0PGRcI4txF1NyXxMuhAETODFbNO2UjK/s1+OHTw9202jAqEMSRw/pbdFuAGOMo5SfoNpBnYs3002rDdAQdog2QKEGTM5+olxY+0npA3M26y70xgSQpRyRkScTn4nb1yEWNY5EAiKl0cxrGZARFnRxWIE7swz8eqoWr2X5aLZgU6BStByKh2nRwFguue8euB6JwQGe5NyKQ5A3JH3QbyHP2NCzSBqDcD7OrHCMCIQqiptdz2kQkP+Hz4XIf7O5VY2qKHaH1wA3LSWA3Lx6Eo0jbtiNzgbj2CS8KE990jWCe1kOmq1RFukoxEUFta5+o8t2BOdpmUr1X1C2ZCiTVJrz2wfSa6fZvMTgdw+VeSx7KVCBUm8vsNtMyXdICYVveAwoLr4qsp9haWg/cZBXRsNp3DcP7ssapgFKyFihcfdKufdqIKffKyVQg3pS8ITaFJhvS4KnqKnlI6+Uy+X66jgZS3rM6wHc4HA6Hw+H4f8jl/gJjicNj20WQDwAAAABJRU5ErkJggg=='
p52
sS'andr'
p53
S'data:image/png;base64,iVBORw0KGgoAAAANSUhEUgAAAEgAAABECAMAAAAV8YMOAAAABGdBTUEAALGPC/xhBQAAAAFzUkdCAK7OHOkAAAJeUExURUxpcfzCG/zCG/zCG/zCG/zCG/zCG/zCG/zCG/zCG/zCG/zCG/zCG/zCG/zCG/zCG/zCG/zCG/zCG/zCG/zCG/zCG/zCG/zCG/zCG/zCG/zCG/zCG/zCG/zCG/zCG/zCG/zCG/zCG/zCG/zCG/zCG/zCG/zCG/zCG/zCG/zCG/zCG/zCG/zCG/zCG/zCG/zCG/zCG/zCG/zCG/zCG/zCG/zCG/zCG/zCG/zCG/zCG/zCG/zCG/zCG/zCG/zCG/zCG/zCG/zCG/zCG/zCG/zCG/zCG/zCG/zCG/zCG/zCG/zCG/zCG/zCG/zCG/zCG/zCG/zCG/zCG/zCG/zCG/zCG/zCG/zCG/zCG/zCG/zCG/zCG/zCG/zCG/zCG/zCG/zCG/zCG/zCG/zCG/zCG/zCG/zCG/zCG/zCG/zCG/zCG/zCG/zCG/zCG/zCG/zCG/zCG/zCG/zCG/zCG/zCG/zCG/zCG/zCG/zCG/zCG/zCG/zCG/zCG/zCG/zCG/zCG/zCG/zCG/zCG/zCG/zCG/zCG/zCG/zCG/zCG/zCG/zCG/zCG/zCG/zCG/zCG/zCG/zCG/zCG/zCG/zCG/zCG/zCG/zCG/zCG/zCG/zCG/zCG/zCG/zCG/zCG/zCG/zCG/zCG/zCG/zCG/zCG/zCG/zCG/zCG/zCG/zCG/zCG/zCG/zCG/zCG/zCG/zCG/zCG/zCG/zCG/zCG/zCG/zCG/zCG/zCG/zCG/zCG/zCG/zCG/zCG/zCG/zCG/zCG/zCG/zCG/zCG/zCG/zCG/zCG/zCG/zCG/zCG/zCG/zCG/zCG/qqSrUAAADJdFJOUwDrFPn+/AUCAf0D998KQwYE5AcMKt3tIBeD8PU3Z/LimHPuQjIT+kDqY7rIsoZkHrmZ83YLGB3T3pesELZOkR8u1slu2sCw+OPOLQ77bxKnOnwa7I45JIC3JYr0NMQ4uMaJFbupectpnE07crWWqimz13rmZUYnzCwNHF8r0LHVEVQ1Fn0bP0nUU9mboD6BYui0lTN7PWEozQmuTHVW4X/CQahqS1CTVbyd4H5FSu94XodthSPcW54IIdt00aGrZlFXWsUPz75rbIqfNzQAAAMtSURBVFjD5ZhlVxtBFIY3IdmNkECABBLcikNwLVpogQKlOMWlSN291N3d3d3dff9VYWeTrNBzZm76paf3U7LJPGfm6jtLUf+zMQzjPkS3KG7BfHtrWHAx7RbHv9esZSdMFVq40g1O1yXWZauMGiinuJIV2pIgIEe5kRVbQR+IoymbLgHpl4NAAXNZqS1eAwGdnSMDLVsNAR1QyUBpUyH5fFvGYacEA0A+C+Ug9VVI0FLloMCbEB8t1cpAsVEQ0IoQGagnGpTY5VKOygrrJyf0EtCMo8BaK5DELMkbWLVBe0SgxNnQNqLZ6enCWMKy4I1Nc8zJsT3ycaNDai46QaF+7rTsmByXp5+AGy3F3B8TuPr5LCiHjjOJgha/FcbxTlZIekg681c444l9GRKvFw3yLtIfQA467innsDPbvUg5KeXsZBaxmzAHvBpVk4LYXR1kIKOC/YPZiQrOUMdns3xf2gGSFmCM4Ba9a7cJEDZ7IEc6g1909BE0DT9/CRSAzKMf0IdT+3FBa0u4BV+z8oSHsnR18ClRWoQJuobGR2/Ad1Gj/UR9RGpAvQ4TVIMG2lBfjsjP6VRGKvL+PEzQIFr4K1+sa97rqJRWrsfhKrcytCNrfr8I1GmgqOZcT0XnZtwuEImiP2gQOZt90zb+26uUKiV2+H33TmzJNMrkihXECHHpZ7Z0/xgYoelhcVYnARqb4ZtuXK1ni0EJtcBZ9NNDDAq5DgNl9kgrts4AGkZvPaSghkgIqMnRbLWl1gqemetFztl+i+c8aHxNKa+g2rhTRczJH+abmiJ5QjxsQbNSfVdHyPF9zB/GEsctpcPQ15JmMk7GU1716R/yIi0KeUzdQrQlup7nqF5mOGIYjrZoigENkYRnzme1iejRhnvV+FPNofkVwjtM0wVetHfvS8/EA22qdKhYodpjzjkTVJuHJwKU09D/s/1Fj6MPuxTOQbzYx/MeklwYjLFOUjhe2Q+hy6xlhySYhY5rziFMGaisQCpGes3z48+s34b7WqKNO5xCmjNMDefvNKsv/quMG2abOVxW69X12aacxPOnSSTkycj1k1SDpijKz0D9I/Ybzgc0w74b1OoAAAAASUVORK5CYII='
p54
sb.