ccopy_reg
_reconstructor
p0
(cemoji
Emoji
p1
c__builtin__
object
p2
Ntp3
Rp4
(dp5
S'emojipedia_url'
p6
Vhttp://emojipedia.org/flag-for-Palestinian-Territories/
p7
sS'index'
p8
V1071
p9
sS'code'
p10
VU+1F1F5 U+1F1F8
p11
sS'apple'
p12
S''
p13
sS'twit'
p14
g13
sS'gmail'
p15
g13
sS'related_to'
p16
(lp17
sS'name'
p18
Vflag for Palestinian Territories
p19
sS'known_as'
p20
(lp21
sS'default'
p22
Vemoji
p23
sS'bw'
p24
S'data:image/png;base64,iVBORw0KGgoAAAANSUhEUgAAAGwAAABsCAYAAACPZlfNAAABrklEQVR42u3dTyqFcRzF4RdFUv4MlKHBRZkYGQg7MGIXNqBkZjcG1nAnMrMbMtHVa2AFyIfn1HcD5+lX595u3WEmqQwqACbABBgwASbAgAkwAQZMgAkwYAJMgAGTXwM2nU5nrnMfYPer27NhGNwvv0+wp43d2e3KllJKYNCCYOOdL60ppwQ23uP6joJKYONNFpaUVAIbb3luXlElMEMkCDaesmJg1mMQzBAJgkELglmPQTDrMQhmPQbBoAXBDJEgmJcWBLMeg2BeWhAMWhAMWhDMegyCeWlBsPHenl/8ZPcL8mNg40kMDFoQDFoQDFoQzBAJgnlpQTBoQTBoQTBoQTBoQTBoXhgwWMBI+BwGDNa//y7x9ZVABUxCYBICkxCYhMAMjBDYcH3qvui+HWz78kjRFTAFh8CUGwJTbAhs8epEsRUwhYbArMEQmCJDYEoMgd0cHyixAmYNhsAMjBAYrBDY2cWh0ipgygqBWYMhMGswBGZghMAeNvcUVAGzBkNgBkYIDFYI7G6yr5ASmAv9j7Pf07YCDJgAE2DABJgAAybABBgwASbAgAkwAfaX8w6cN4cu5aK/9AAAAABJRU5ErkJggg=='
p25
sS'version'
p26
VV6.0\u02e3
p27
sS'uni'
p28
g13
sS'desc'
p29
g13
sS'browser'
p30
V\U0001f1f5\U0001f1f8
p31
sS'annotations'
p32
(lp33
Vflag
p34
aVother
p35
aVpalestine
p36
asS'wind'
p37
g13
sS'andr'
p38
S'data:image/png;base64,iVBORw0KGgoAAAANSUhEUgAAAEgAAABICAMAAABiM0N1AAAABGdBTUEAALGPC/xhBQAAAAFzUkdCAK7OHOkAAAMAUExURUxpcVDIjLyXlZGRkUvEh5mYmJyenYywmFJSUiulaE3GiVXKjzq1eEtLS5KSkjCqbVDJjFTJjq6foPFxfkZGRouLi25ubiCbXZSUk4+Pj15dXoGBgSejZVTKj4+Pj2xsbEjChSSfYeVIWe5gcO5mdVXLj4aGh46OjkBAQGdnZzWwck/Ii1PLjj24ejKucFLKjUK8f1LJjfR6h945S/Nte+pUZedOX/R6h/V3hE7Ii4yMjGRkZEbAg3Z2dnV1dWpqaoiIiES/gpKTk/SAjPRygPV5hkzFiCKdX0/IjFhYWEnChT+6fMHBwZKSkr28vPBnd0O+gd/g39zc3L28vM7Pzj+5fOFAUXp7e+FAUutaaZOTk0S+geTl5NbW1srKyuxba4ODg7y5utLS0sXHxvR0g0/HioKCgr++vsbGxry2t7a+uXDFmcTExMLEw7u9vJqamvN0gm6hevN1g/R4hvV0g6yDh2VOTfFse/Fqeaenp2BgYAB6PQAAAP///84RJgB5PM4PJQB7Pf7+/gMCAgV/QgJ8PwgICCAgINAQJdEaLgQEBAwMDA8PD9AQJtAUKf39/fj5+AyDRxOOUfr7+xQTFBsbGxeTVSiPWyKMVxyXWg2ISsYUJjAwMMoRJdvt5PD281+shtLn3dQhNNclOdHR0ev18ECcbtfX15fJsOjp6fT39RRwO/vs7fXIzdY0RygoKFNPMx6ZW9krPtwyRcrKyszk2E+kenx8fMfi1P329q/Wwjg3N2NjY6qqqrnayRSFTDaWZnO4lTo6OpsqLBptOrEeKCpjNwqARKINHc0QJRMDBY0MGmxsbFpaWpOTk4aGhlRUVLCwsB2KVB4CBnq6mkafcra2tqCfn9xPX2dFMuiMll5eXgR4Pb+/vz4+Pt9ZaOFseOqZoZU2ObkPIu3t7TUECmAIEqMnK5KSkqPPuYnCpXBwcOHh4VgIEG60kcPg0UtUNYA4L58pK8PDw+ykrPjd4PC2vaSkpFMHD7+prI/FqkWNY9eRlV9JM3pOPbsqN5Zzf5AAAAB7dFJOUwBMBT1/HhEC8/RqDtf3I/BEHAp3+WfO/ilI6J34CFDVlPv1x7cWiFf93eRVI87qL7o0Ff6M4u0hQV1e4aG+xtl6qxsNZDB3/FrvicKNMU+jtfr1L9nJ/K751DOp/vDK1ZE6579QYZJxsCVin+Cjaa9SzFw1UXf1naE78iTglEAAAAUMSURBVFjD7Zh3UNtmGIdxDNjYGDAEMHvvnYRSVoBsMtokDU269967d5I8sC1iG+PtYDBlhJaRphTCKmEEOiAhafZo0+zRdO89JdnGQyZny/mjvcvzl++ke+59X/0+6/vk5nad/zpz1kSSPa+Bx7M0hRoa5uO6J5GqBuHkh/1d9PiEMSQgCFaXsFwbT0hxMox4QD4jyQUNhZVY2MUHMfRhc4haPMmJUcnVoBF1kMdV7vVfxCJHFgQGBhYkRYaQybezWD4eKKw1IYH3FodOqMEZxOUhs1j8fSJLNwYVllMZcxEYDGp5aGhhSklUUFBQVEooda5eA4OW7Eyk2NMsSgqLok5UqSViwwz4fLEYhiWSagwJLAZt0RTbCaVH4EKqXo2/+WrAoWRcxAoWMjTOWVCSS216Y4WVV/FB5+l6xqo3SsjCCZiABuQPP3mLpSeppItIOSB4um3d0xaeyJQqQhqw6xR08SnzwiVHEfRUjcgg+YbHZtKzUU/Q84sKgmTrbzKJXnp5D6EB6Q8iHgjqWG1auPH/TE1fvrTHSQ18oLcS9UCdd5sWbtzWzdKGC9NfHXaiLrH+SgdkQHaXqbf4Hi6bzZY2TF0+7KCmeuf+Nhlk4s7VxnC/sgMVITRM/WpokA9L1JoqBI1aXQ3DYotSxZKq01+MfGnWQFDjA8ZwL5hvFLGl9dOXYM3EyYHjx37obW1ra23tPXVs5PiV/QN7h0/uO7BveO/AhwdbO1SQFar77zOIAjaxzVw4/1uHHMIhU8nlnXKVDLLHukcMvT0fayFii85st3/77Fx81BDuG2+osTRx3zr3pnMi+QbDwn0hV8S2MonO/uSUqHL945go7zYR19pUc8K59pqfiEBF8+JarEVoez++47incdw7HRUtjt9qK2JzWz522CRrH/NKw15Br/bsZuNMJxye+GgtRxeNBoCyYAe+op6fHZ3S4C4Op66CiSVyPm5GIkc7qxzcBQCAwNcPFS25FdfZGQcbk42iHgAIdkd7ezEW99C2O/i82msxD6cum46PNtLYOYcGpOprUnAwESBIzUFES3OtReyzjjQm7ztSyzN6ACCGRsGijWtMpup8HaWxUy6XVeJG09j8WZOFBuAoy+i20eaK/mwe+n28qf/oGwhH+5uavj7yefvQ6Dd9za+hNA8OtY/3b5kEzBqESe8c22hzz/9RqxAAHDMATyiYVIwdqt2CcmgMuwpYw/OiIZvLmy2iLX3/A/xtaPGWZjuXu6Ntot3w0ScAEWLcraMt/f49HhGPMiPLOtr13xKqR+lNQqP9YKwpSLu/20ZAw9MaPOZoI5Mm0JhQV+FneI/MRJvIpDmCmLU5xpd23j2GaEs/JTDpOt9opmljY4p2/dvOl6PzptFntmzGaEvf3eZcQRyh0rcox2J/jESb63RBHECg9MpOo1vtjrFoWxWELTGeUMgz/MRbhHW6zLUPJdhs+7Fomwvi8AR1Wl1MuBdCTLBWWacQmJSIE1nCCmWwb8ZKvwTcMWTJJnNBHKFCG566qmglbQWJREqjuUeXrfJO9fUKXx7crdN1By8P902tuMOdxLR35ns2tkZqLEig9cqIzs9KiDA3HpGQnuVHyqctc0dYRlvhl8WMmOWYhkR7M5YhgTazLD+dQvicujRX1PAXknVtZpEf3ZVzc15cC/J/pgjPJtFd/D4REPv3pDLVnenyl4V5Ac95Z6dFXINvHRRmOt3tOv8b/gUnNwohp9TqJgAAAABJRU5ErkJggg=='
p39
sb.