ccopy_reg
_reconstructor
p0
(cemoji
Emoji
p1
c__builtin__
object
p2
Ntp3
Rp4
(dp5
S'emojipedia_url'
p6
Vhttp://emojipedia.org/flag-for-Sint-Maarten/
p7
sS'index'
p8
V1095
p9
sS'code'
p10
VU+1F1F8 U+1F1FD
p11
sS'apple'
p12
S''
p13
sS'twit'
p14
g13
sS'gmail'
p15
g13
sS'related_to'
p16
(lp17
sS'name'
p18
Vflag for Sint Maarten
p19
sS'known_as'
p20
(lp21
sS'default'
p22
Vemoji
p23
sS'bw'
p24
S'data:image/png;base64,iVBORw0KGgoAAAANSUhEUgAAAGwAAABsCAYAAACPZlfNAAAFiklEQVR42u3dD0yUdRgH8Gs2NhHChHIgBDQkijUcczHEkKAwoxiRbJpsKQIuqrlyzTZnK3Q7VhPbMiZYLiSdEH82lT8GGQVFxYnpYGebx5bLgQcxl6D8OXja+2vv273evdxxdwpP9/1uz97j7n3f254Pv9/97uXd0BHCKjq0AGAIwBCAAQwBGAIwgCEAQwAGMARgCMAAhgAMARjAkAUD1t7eTig+JcCkXFkehlrgpQIDGkMwoDEEAxxTMKAxBJNiCo1EsziBSZmemkLDOIFhimQKBjSGYGKKnJ5GAzmBYbQxBQMaQzApltExNJQTGEYbUzCgMQQTU+T4BBrMCQyjjSkY0BiCSRkpK0fDOYFhtDEFAxpDMCl/t50DwHyBTfweYLcw2hYY2PeH4shw4AU6X7qBrretpL4j66jt7deUOn9wPVUf2wi0+Qb7s6udmhu2kPlcFF2uXCPKGkqrOovf0TznLeNlgNzNESZPe5fKUqmvYp0NjivT47TFAhRPgTl1wmDn3xhT5D0Ay2v4g5rTN6tOcCpjK32090vqiVmtPPdFYTF9vfENmzc7/ObHYjvec8Hh+11NTgOQu2DHc98lXckqCvwkW+BJlX2yU3n8aMKzymPrkiI/djS6cBuCh8DkexMDSjPEZ9JLldECT4YYGBgQ+5nNZsoqbfYIGKZIN8BmJiaUaXHFp9vo89YVtOxglgIRHBxMhYWFlJiYSDqdzqNgUq5tygXYXFeJMpjvgTTV6JKqpqZGqfr6euV5g8GgVFKR3mUwKVM3bwLMFTDreiYtjXx9fW32HR8fp6TX9Tb7uwOGKdINsOc/POFw/6GhIdV06Ckwb0ZzGUxKSUkJ+fv7K4/Dw8PFVir5uYKCAlq06H6Pg4lV5OQkwOQ01u4Wq8Gujmrx88D2HTZg+fn5FBkZqRyTkpLy77GNjWIbGBhInZ2dtHjJErtgDZXhTl8F0VwMzcwAzPrSU/Opz5TR1b5mgwpMWhXq9XoKCgqi1NRU8vHxodzcXOrq6hKv5+TkiFoW9JAKbHp0VPUeZ8+85xLWwNAo3feE3qvKLthto+01QOvRlf5+pVgNygkJCVEdPzw8rPq5tbVVOfZi1JPKKGusepDMhgdcGmXeBjUrmHLRtilAc4Xo5+dHmZmZlJCQQBEREarjx8bGxDYmJoaMRqNq4bF/f7VqWpzLxWFvx3II1lKdrgkWFhYmRllycjJFR0er70m0WMS2rq6O+vv7VWDHtu5RgT2cuNdpsAvGQa/G0gRrqi2yOyUaQ6NE07dUXaK4uDjltdjYWDKZTKq6M9Ix8meYNdj2nZuo97tIh1gxGeVej6UJJmXxqn3kH19s93tPTPKLmhUR/7RmycdP9PaJc56u3Sd+KUw/hmIKdBfM3h8ftZaaFUW2VzQasgoc/i1MOvdt49JZp0QgOQl25mQe/dwUTc+9WkgXW8L/+3waGXH5O4SjXwjrBDxVCqC5gMlNfTx9F9VWrXa8MLD6AuvM7QVZedvE9rfmRzCqPAUmN/dad7AYbcoX3eOPUY+hw+llePcv3yrHHi1Pol17suyOLotlBijugllPXzt3Z9vcXNNUFWv3GOlqfe83QZr3LF7vXqra/4NDHQDxFJics42HNQEqytbSYM9yzdflMpsHMQXeKzApN278NSvIry0rKW3zDqfvBAbCXQa7M80n1mrinf5qveZxL79VC4D5AHMlaDwjMDSdCVj8K0fRcC5gaDQjMDSZCVjTD1fQYC5gaCwjMDSVCZj+yE9oKBcwNJIRGJrIBGz01iQayAUMjWMEhqYxATNdHUHDuIChUYzA0CRGYGgQEzA0hhEYmsIIDA1hBIZi9H+cCWEVgAEMARgCMIAhAEMABjAEYAjAAIYADAEYwBCAIQD7P+cf6VW3FUrxezMAAAAASUVORK5CYII='
p25
sS'version'
p26
VV6.0\u02e3
p27
sS'uni'
p28
g13
sS'desc'
p29
g13
sS'browser'
p30
V\U0001f1f8\U0001f1fd
p31
sS'annotations'
p32
(lp33
Vflag
p34
aVmaarten
p35
aVother
p36
aVsint
p37
asS'wind'
p38
g13
sS'andr'
p39
S'data:image/png;base64,iVBORw0KGgoAAAANSUhEUgAAAEgAAABICAMAAABiM0N1AAAABGdBTUEAALGPC/xhBQAAAAFzUkdCAK7OHOkAAAMAUExURUxpcQIqiNwXHQAqhw4pgAEqh9wXHYhAbgEqh9wXHd0XHNwXHQcuigEqhwIriNwWHNwXHdwZIAcphAEqh9wWHAEqh9wZIAEqh9IYIv///////9wXHQAph90XHdwXHd0XHQEqh90XHWMhV9sXHQAqhwEqhwEqh9wXHd0XHdUaIwAphwAph////wEqh9wXHZQcQAApiAEqh9wXHd0XHdgXHyYmdUElaXkfTAEphwEqhwEphwAqh//7+//9/f///////9wXHdwXHaIcOYceRdwXHdwXHccZJ1AiYAEqh90XHf/////+/v/////9/f/+/v////////OusAEqhwEphwEqhwEqhwEqh3IgT7wZLJ0cO9wXHQIriN0dI////2R9tv////////3z9P///7EaMq0bMxsoe4geRv///5amzf/////+/v/+/v/+/v/////////+/vS5ulkkZwAqh9wXHf///9wVGwAqiAAoht0XHP///94XHP74+P388v/+/PTpsf3r67y9vgoyiy9Rnce2L+JaYN0eJOE4PYCryExqq/fHyPnz06enqONMUPXooerZZe7VNs69N/Hy9eyJjfO1tvfZ1vrj4fKlp3OSvP79+Ons9GOp1+AuM98kKqyxtczV599/h/Gfodvh7q+92rrG3+hrb/W+vu2RlZqam+Z0efbuu/XmiMvOz6ZheL5DTn2KsHujvdnKW/nryYibx/r7/fni1CVJmPnQ0fv56MmHTNxuLdxTLVugUpxzjr1PXNvc3XKjw5JwjKuur+bZgtzOZ3eNtPv44MxBRN/JLPPcSbTAyJ+epVh0sRc8kjlZosLM44OFqeW9a4mKiuCvMubPXMFWZXCUrZVcW9Npc5OtwOndhuzdoZqlrvPjdYSow2KjxO3RGpCkvKxVavTUEPzx6D1co5mqz+bJteHAjpdof8R3U4t6nNahStilXerNmlyatkmeqEigc5ytuoSSoPCfi+qfItCGQkieonN9evbYFuPNN9pOVot7ntPETqV4h8tKVYahwyRxPPoAAABydFJOUwALJkv9/PID8vgf/hn31tjREf7rOy0Hyv72dWBVL+eEREX7x3mp499PGhK57Vvt+4GgvpH+/Pv7IJI3fgYg4bNoWPz7o5z9+2dTTz1iLgzUxvzAamKzjfv9/HVtsBX+wo0Rofz8RevKy4ScNEefilx0Elpq9rQAAAU+SURBVFjD7Zh1VFtXGMBLQhJCgCBBSiG4F3dpcdsoK6W+0nWd+857IeQMEsJCCRbBrbg7bBQppUjxru5uc3ffzt57EYJ1vKR/bOf0909OXnJ/537f+7777n3r1j3mv46esS1F6xF4tPaS8dQwjOIeEzwIgiR3PQU9quFEEIas2JT0zNxIiAckBiugIWBMbEAJ7gR5LVoUE02S1ANa2D1s5nYYim3wBohgWzMKxdgYo4qAMTYLcnejgrI4ma0mwdiahFnYOOGJCHi8E5VqQyZrwpCpeCK4BJLJirHZRYdr4kkgGtxWKErVIDc8iBYqZVmJbbAggugh7l3iwYTjQbnYtyg2gpkFST4PaGMs64kmg/JCDJLx2NqA8hO20LgUciKEvKKFxrXbV5GRUXH4ECifDB8tEb0dl1VY2N9Y05JbQZLDRZI27jM0EcmpWfm5h9CrpI27lSaFWVScfhilivTiC2JRIE2W1DhIhcLDeN7TRSx6lbaY1GIowDV7IrwAB3uR6JUFR0pKKfxRlJ+xxvgYBubagLWfSGS4XqLhXTj7ycdFyck0ZlbDmuJjGHgrAwDuaZHorY1iT9v5wcHzZxvzs+D4ajJIiWvx0AEAsFJCRK+LRMzrXwx+NjR09OJIAfK1v+HfMsWIMEc8gIYuInptMyIq/PKnoaOdHWMlxwrESa/JAB+iYpCei9QGENS3I6JNTyHl+NWPkKaknMuViKBMpa82KcY7jAhvT0CCKxJbAlLayT9Mj01+f6mce+vT4oVKaKpIZDAYyy0eu0O9tOlSkYYPLIqFK7Iwf+SXby413+geLf+8iZmSImmbglwDAw8PEjRYDAP0MNjtbO4powEAFSNYFPAGNCD/8vDwz1fbj7MruZNXitraSsWmvDNekZHmu7xDnZ33hISE7HEO3WXu5akMyGogdsKNS3gTGlB8efjbUcjDzrla3lFwU9Aq8pSVpNHp0CCctrayCG0AubAEfTWkIqER/Re/vv0du/lcc86N8j+qWTN8ZEq1J9OSpH+m01dSiNAxhUUxTCitV0q445Xnmsdz5m93pff1nICzVJW52sCl4Pxh0RNQjyRXd3Fzcth57ePj3WPpfX/CotMfrtUDiBr3yY2IqDuHfTyvfa7yr+kmlnCCSat/F1g7SONu2QyLJrvn2ey5u8dGfm/q7RG2Qp4kFCJcPFLazN7e6pLRyrm7XffSawpZPZyJlDpUHlHjJmydmuW1nLk139E53VKUzRcKrw3UHQHQATdubGC2gNXSee/vhuLGPt7snRlWaT3K+UCNGwWV9kGWIDsut6HxwRSvZ+bXWVbpadQeAPCFknSAJ7z+oK+3jS/gcC7wpmhVp1BrAJwlXNqtHCGfL7h//w6fNQDVcyZ6D6APL24xAyc4HM5vgputcD3XZtLRezSwBKS0s69NsLKzkf4q2y+3By5tJlO8brz/XpoccZmKniNbNi882uo+QH3DcDt0xc9a0aqNUIX+xqv4+kg2NgnSfUTZSfTpiVKSbtliA+VOkIqrn8zeP+CgWFR/BF1gKg5GSot22QfEgWWi8ujscFRbsl03XCkwnLoKhDpu5Tulo7/T1H7ZMSQG2ZBUSQNTt97m6hLviMVijbZb+lpt07DWgYw4id9a38oS67PSuQhetWl5+8WB6/s66qotxE5QsvfR9cMaRVn6u7j4W8Ybmcr+uhh41RaXoo6Vow9B7nMqXNplcM/ruJoqKXJu3vQSjfZRGqDugFVS7BwfYLi+9lSStb+awm8WnjV8WcMBS3gE7zoIarr2j98c/X/4B3Hsi1NbmC19AAAAAElFTkSuQmCC'
p40
sb.