ccopy_reg
_reconstructor
p0
(cemoji
Emoji
p1
c__builtin__
object
p2
Ntp3
Rp4
(dp5
S'emojipedia_url'
p6
Vhttp://emojipedia.org/flag-for-South-Georgia-&-South-Sandwich-Islands/
p7
sS'index'
p8
V1101
p9
sS'code'
p10
VU+1F1EC U+1F1F8
p11
sS'apple'
p12
S''
p13
sS'twit'
p14
g13
sS'gmail'
p15
g13
sS'related_to'
p16
(lp17
sS'name'
p18
Vflag for South Georgia & South Sandwich Islands
p19
sS'known_as'
p20
(lp21
sS'default'
p22
Vemoji
p23
sS'bw'
p24
S'data:image/png;base64,iVBORw0KGgoAAAANSUhEUgAAAGwAAABsCAYAAACPZlfNAAAKlklEQVR42u2dC1QU5xXHvwUCylNgF3eX5SG4gmV5LbAaCa6CwCKI6IIPiBjRatSoJYrvV2t6amyNR/K0RtPGatqmPZ6+bGpyou1Jm6ZStedo2pqYhNNjtZy2VsVYreF2vm+YWQZ2gWVndhe995z/+WZnZz6W+5t7vzsz3+wSQBtWRtAFCAwNgaEhMASGhsDQEBgCQ0NgaAgMgaEhMDQEhsDQEBgaAkNgaH4D7PTp04AaPmLAzqkzXBMdu23IEoz231tK9u9pv/4qCTAloCkJrD9YDw0wucEpAUzsU2Pq9zM/0MAG44ChOEJuYANF1UMDzF1nvP3bj70KjP49apemP65IJhiWwKh+eOIC+4c/bXpaFsfIAcydA+n14+eVc9iYZvjjj+dI1xmaOC3yHbChOKk/p3sCTK7PIJe0+gQIj1TDLw/OAFXiEgavyZ7VF6IvgFF1dXV57LChAnMH1hdfdHnFWSMNlfBIYj2Q1E2gip8P4bqJEKyrgJOHqv0DWE/n3fnwksRxlyrqBzW2uQvM1VjVeea8X4xVR/aUihG1dG62V6Nr0MAk0eZmJekOMH+MKmda21QAuwsJVE8b7/uiQ84CQIiWgYAJ2/nLWNVvWoxKh1YrYdqUT/wf2FCKgYGADRdYPUWB+fzEWUkbCJgiV7UVBibIGBvBWos+FIH5K7AZqSESaIJ8di3xQZCSjitPDnIKLDQkFIH5I7CQ2AIRUoCmAiPMn4DNb2hyuj4yLBpWZBFHETJmbZ9t1IZsBOZtYK7GRJV2NhQaRrDldE2Yy32F5fDESgSmFDBq9+/fB40uBUzZlr7AdHUQFx4GWy1cZCWvgVenxkJDekCfPva3vgi5BZNlK4QQmAupDAslFafZbJY4PD9JB2maSNhbZQKTNgr2VWVAXaZW0kd7e7vsVSsC608p612eKlTbpsFMTjW2EpjFabIlD+y2YtBpDWJ0UWAkYQmeh/niPEzsk9xhr41GI7d8oXsd1YeQlJQE5eXl/D7kP9DZ2Qn79u1HYL4CxoMAmDN/IVy9epUtO4BxC13dy6GPsjYpNYPdikFg3gZGPuZS22Ig+vk8EG6dzWZj0fTlpsWsrbPXwpJFTew1CUoTtxNbX138fa+t3alzBppr4S6wzg/OSu+/cf27M5dEVoVk844fVSYC2Lx1O8yqqWGAKDzaUmC7vv4NB6iA+b4FNtjo6XmED/Z+2FD69qpY2vuouz0GySnp8PMTv4JGUgJFkwphDikCi2UClwK3iCmSV4f3gVnrDzl15o23TkmcSSfu9J4I484NTLqfM7tcv0Ky381fv8/WT7Af8CKwK5xuc/qFJC1SaHUcLL0+Hp5obOTS4XgpMG/fD/P0yB/KnA5/irav7dkLe55/iYmQuyIEXUIazKyuZqmwrKwMamfbISszC9ra2hwRqa2FEM1UbpnAjQ4CH10kcPacFlpfLZAfmKuoulTRIHHa5xf+wtabpj8v6yQc2p/Tse0P5yR90ChXKtoEUFQLODBBxhbJZ6GwqCpsFawN4uA4yn+AuKhR8KiOwOocAu83ENi6kYD9yVp49qVJ8gKT8wj3dF6iL6ONgjKb8yAnNxdKKyohcOx66OjoYH+n1DYTFjUu5IFV8MDYCXXNXEepL6ZTIkqds0S+lOiqAvTEOXLN/B0MOGEml1yVJAW2snktZGRkwNiscohOW8DWj4iIhwkFFgYpM8MEVqtVjDZbWbkIj4krQi5+Cg5ogWHKnod5eiTLObfe29FGgVFYy1atgZj0J8T1FEjNjGoRUmZmprhckJ0nAfbasXclEcakBLDeFeDnF//a71jlrYchXI1tvStJ+vnlGsOsU4v5okOYORWhZeW8AMlgMLB2ZGgERAWEQXC4RtyWRtfqdc8oC0zOI1ap58MGE21yFh09gWnTC4GsJPD6G4S1KpWKtVSGFgLXrl1j2+3f38qASVKih9AkwC7Z6iX/MJ3tO1yewJRUkmfOewxspPEplg6piqeVMmAJWbXsNfvMHBz4gMC56TyoMycInH+LwJ3fSR8ZVwzYd+wbJNqw5ySTp0fpztZ3mb5vb+kj4T1P/4bwWXvLkz4DjFtEYFQbtu+EpmXL2XJ8+kSIGDOKgTr+Iw7UdwnsOkggeQMHoppAYv0xCbALn3TJD+xBfZ5qyAfBjq+KRYcg4TUFQiVEWXwL30auIaCv3i8CE8awqqoqBKa0hHGrJ7BpZeViGtanZIrAjBv5tLjtAIG7d+9K0rzTdIjAtil6laMntNi0BgZEN9bMIF1/j8Dld4hYdFgmTWEPjiAwL6qoeLpLYFNLpoG2ZDNLexpdIux9zQGL1BBHukRg3lGQcT2Y8/Igv6BAhEVfZ2dni+OYrmilOE6N20Tg0FEC//wNgYOHDncDO4rAvCUKZdW69WAymRg0eh2Rrss1mxmsKZMfY6Bu3brF2vGbCTS/QOD+74nTu909gbVfAwSmxNhV+FgRa4usVgbOVlkF9sJUtm5FVSYDIkRYSFIUS4f/6wamNc8GXV4tAvN2sUErQtru+uZzUFyYz0A92/oizJqUCpEJuQxYlFrPWgorfYVj/HI1hiEwBUQjShir6K2VAouFwcpOUcOc+ga2/HhxmhhhtB25jDv/mrGPv6Z5+TKERKeJ/SUbc0VoIrARegQm5xjWE1hWVhaDRFU3bx7M5lIjXb5y5Qpf3meWsZRIp3W7utQmXJ76TADm7UdmHwZgNP3lF1hg5pRsEZigUnOCZCzbuGUja7Ulm+DevXtOCw8E5qUoK5nIR5guJqwPONJcxEDpc6pYGxwe0+dCdFs9V4x8hUCserRj/EpaicDk1BJbhuRk2WTKECEZ40exdnH5lxiwlENzYd6iBRC2oxQCW6yS1Ehtx4ZmBoyq7cwZHpgqkBcCk0fLK00MSm5OFlTPtovgekbXPKsRgh8JZNCid0+HjB80smVdatLAM5ITl2KEySmW7sasFeHk55hEaDXWvmmRPD2ZtZHP2IA05olgbt8BuHkb4Dp3jv2vGwAd1wHa/34Hvn34TQQmtyIjonkg4heq8NVhcEwu30bnOL7NjUITpIuBsFg1qEZXcmPVU/7xxSoPk+BtwtTvdjTFjYsHEjXK+fvJawbXDwLzUPGNoqOdOXu0Phk++57j/Zs/IaBRR7uEPi4uEIEpqe2RKjitIUzU4XFxsRIADCLh28oJBJbPoBNyCPz3hAOwsJ3QzykNnocp950Y3U7+5Ajv9OvHeUBhI4gEWm/97RiBf3PbntxN4J09pA80BKYgsKXhQWy582cE/nyYwAureOeffdm140fHqdk2fzrgiEDhvTdiEJjiOro5EI7vJPDKGvcKhyMbCQNNodE0iVWiN5S8Glrm8KD+8aZ7wOi2K6sJrK0l8NyTtCCJQWDeKutv/ZS4V5pzJ9502wRdBMSq4+DUtwg027GsV1STMkNgXZ2jYMgLCRg0sOT4cEmhgedhXhJNg6c0UscPZr9Qg00CjFWHiSsQmFc0ptltYEI6pfuoRsv3NekIzA3FBEewrzPy6akGAhvmv72CQmAoBIbA0BkIDIXAUA5gqGH0O8742+P40/ZoCAwNgSEwNASGhsAQGBoCQ0NgCAwNgaEhMASGhsDQEBgCQ/MX+z8bLjPB6Him8wAAAABJRU5ErkJggg=='
p25
sS'version'
p26
VV6.0\u02e3
p27
sS'uni'
p28
g13
sS'desc'
p29
g13
sS'browser'
p30
V\U0001f1ec\U0001f1f8
p31
sS'annotations'
p32
(lp33
Vflag
p34
aVgeorgia
p35
aVisland
p36
aVother
p37
aVsouth
p38
aVsouth georgia
p39
aVsouth sandwich
p40
asS'wind'
p41
g13
sS'andr'
p42
S'data:image/png;base64,iVBORw0KGgoAAAANSUhEUgAAAJAAAACQCAYAAADnRuK4AAAABmJLR0QA/wD/AP+gvaeTAAA7O0lEQVR42u1dB1zN6xv/VfbeezW0k0JIlCYNlUQlO9kykpYWSXapiLQXGaFd9rq4Ntmy96hUmr7/930P0ZUrSe69//N8Ps/nNE6n3/m93/M832e8z8txfOELX/jCF77whS984Qtf+MIXvvCFL3zhC1/4whe+8IUvfOFLzYu3t0HTTTGNNAK351gEba83bPnyca35d4Uv35XAQLM2EQkNA2Mz8t9vP/gOnzR2f15pZJJQXECwrAj/LvGlUtkUqSQdk1b4IDo9B9buxyBvGILOg30hrReEcQ4HEJb8GrHp77O3xMkN5t8tvlSQLdE9ekWnFz7fvOcZRDQDwIkt+UrbDViD9TH3EZOR98YnsGM3/l3jC5OgbV0HxWTkv9m0+ymxOOsrBc8n7aC8FhGpbxGZhFD+neMLt3VHM5PY/QUFPtseoP3ANX8Lnk9q5XqUcKLCAje3UU34d/D/VsoEQuMbOm3bn1fmufUmmit6VQk8VGX1gxix3rqjsQn/Pv4fSkCAecvIRMF4CgIb7zOoL+1RZfBQFZJwRXDCS0QklYXx7+b/m8va1m1oTFrR/eiMHOjP2PtDwPlS5644jei096/c1Fzr8O/q/4F4Bci2DE8U3Lht/7sPPtseoqf2xmqDh+pA82jmxjZt6zCEf3f/w2JtPbVu6J5mM2LS37+I3Z+Lic6HUV/G46fAQ7WR3DJEpWcjMkFgNf8u/wfFzU21QXC8oFV0atFtaik8tlyHiIb/TwPnS3Xyv4KolLKb/Lv9HxK/sNbiEQlCnjHpBc8ocLzD7qCvSXiNAueT6kzdje0H3sE3WFqaf+f/pbLd1ERoY1gDpbCEsiWRKWVntx3IBXVVi30uoNeI4F8CnE/aRmkVthEAhewrsf+/uummpmVC3t4tu6zfXKdf6O6W2kHb8ywiUupbhe4sWxgcn+0UkvB2SWjCWxeqwbuyneKSCm0vni+befts1sSc4ATLdxuOmBSG3tV+57dtSI7X6X4PD3fumZr6uOtC855t3NQyflFUAgEHh95tA2Na9Q/ZXX9c2L6ilZHJHzKi0/NyWbGTAGd58E0Yzk5Aa7KwvxI4Xyq1cNEpOP6fBMofSbObxexurBa2p9gmKklwY1RyyQHCCbJi0t+Vfllp/qaSRUk6/hrnL93AzQsXkZu4HyXb9n3W7Ql4dfAYrl26xJ4TR/6GWoCo1HfF0Smlb2IyCrMiEnNvRCXjbMz+wkPhiTnpEQmFCdFJdeNiM4rCIlPehoQlZG8N3Ze9JWxf7ubQhOygiKTs4G0ZdSMiEz/ERyTlZESnfjgTnfo+Kzolv/DLa6MFT+/wO5jqdhQqY2PRoo93rYHmSzVdkIrYjHdl69ert//XA+aZ7bt27wOOWRSGHwp8eCLz8uUr18oSj71lNzwk8RVoxnXOilMws02H1pRd6DsqApLDAtF5sA/a9F+FRr2Wo560B+pIuqE+0alOe/EmOx95Wfdxe/Q0XJUcjEwZNVzvpYEsw4nIO3MBb9++Zfr8xSvM9DiEUfOSYWG3HxOXHMGs5Scxb+WfsFt/EW6BmVi29RZWhN3F2uj78N/xGJt2PUXg7mfYvOc50Rfs6027noCG2d7hWVgWdAMOGy6xnIulw0HoTd8LJdMIdFX1Zdf4OwDzV+2h7s/ub+juhlP+laB5ufSMxPug/c5F4RmnSmL2lVHLUBiyHW8OncSzZ8/gtfE4WvdbBYGePxCiSrvDfmUaCgqKkHvkD1yR18D5NjI8bS2NmzrmKLh0DV9KaVkZJizaCU7U+Tct5u/5vwI9XRCw8wkik7g9/xrQpGzXbnX5fJ7N4+PXz1I3UhK7F7neAXg8fi5u9NFhC/0iIJQtbPD2s+BEqn5zm8h6YHXQcRQXleDt7mRcElOuAJ6sSfNQ+jYHlcm6kBMQ7PkbFpGAR1hhDOqJzfktQJrscgSx6fn5bm6ujf7RwPGN6CQfnlAasvNA7vvzl27i/qUreDrTAVe+XOSPC31/tiNb1BPnHoATdqrSjWivtAKJB2+gtLAYz/1DcbFrn/LXvNBRHk881qIsv6BS8Nx//BaG06J+i8UREl2E8WONYWKsizYyU2sdQPKGwcyNbYlrYviPBE5AZNMBkclIpgQ1POUN5ngex82sl/hQVIRbhItUAM9HvTViAj4UFuLOgzdo22f5d2+CuMY6XMh8itJ3eXi4eBkutJX9CEYZBqSXQdH4UFxcKXguXnsKCc31EBCtnQVrLzMOneU/A6V7b0v0Ux6GlQ566KlkXesAqkv4WGjSa0QkIugfBRz/WBmpiMTSvRQ4QfteYKRNMprIezKLcuzP+2zx7s1yYBbnrwC6NkAPxc9e4NXbfCjq+/3tDZAZtgGXbzxHCSHCdyfaVLBkVwhhzt1/tFLgFJeUYkfyFXQbXHthc33iphZMGwbLMcPRrbcFBETsMVzPkIBnONS0LKGqZUp4WO27URosxKQVPnNzKxP87cChOwIiEuut2XagoDg06RUDTgPZpZ8vmHCa0J3n2CI+8wnC+VZSXwGIWo3CG3dQVFwK/cmVZ2KpxVCz2IpHz3JRlPUQN4ZZVADP9cFGeH/9dqXgeV9YAvcNB9FYxr1WF6qeuAMWzDDCGBMt2M7UQ2cJTcyaqI751sMxcOgYaOuP/S1kmqYSqBvzj2mi/HvbDeLaD49OK3xAE2PTl55Ac4UVX18wiXSWrElnC5mdchDnWkp+BSD6s3eHT7LnzF+a+NWnUoCo1vgQPHqag/dXb+CGltlnS0Ye75haozS7crL8kPzNVMd4CJEIpPYXywUaumOgN8IEkywNMHuyNtY762Cc+Qi4L9CB2G9wYVQbE89AW0QiEuqv+E3FP/1G4Yn1NlJ3tTb6HsvP/N0Fm82OxYcPH1Bw5TojuF/xIGKVXgZGVhqJCRI1IoT3be575P1xFlflNcvBc6G9HCPgZYQLVSbX77wkwAtlAPxduZem0oswY7IepozTRfS6EVBSHYWV9tqwn2NA3pv9b7sul01XEZ1SlPkbCoC9xKNSSy5R8IxzOIi6Ut93C4NGBSI3rxBF9x/hsqza1wAigHi4wO2rSIyG2ZMX70LOu0LkHjiGq70+53gudumDpyv8CPkuqhQ8h05lQXTo2n9EAq+L4iwsmmWIZQvUIdtTBhMN+6Cn+FDUF533265Jd/oe6sY+rNncT7zWwBO0vfuwmPT32VsJSVYwDqnyxYqqribcJYe5mevqppVHYkaTSKRWjNv3XrNIjFqe6Uv2Ivfde2QnH8AlsYEVOBPN+3woLa2U76wIPIK2fZf/I8BTbolEpkJDtie8BgnCc6AAnJXqormo1W+7HtqUz7LS8QK2tQKe4J0trbcdyC9ZFXEXbQes/jGfK+2O63dfAmUfcMdsRqUAuqZsgJKXr1kkpmQQgNluCQQMxchJPYSLPZTKn3dZTBk5SfsrtTpvc95jrkciGki7/aPAQ7mQsJg+nAhobBUFYC0nhI49DIhr/SLn9RuisVURWYhKKTn8y8ETFt9icdyBHKwJvwVh1bXs091KwRONZT1QV9yFEVQBWhb41k0QccLBP+6yRX7ksrLSUP6SSH8WiZWUlCE28TIKCXheb9+LC50UPofpskNRcPlapeB5+SYfI6ZGklDZmcehRD5ez1/1NwJJSNgGqpJyWD9ECH0lBpNrXUzumwMaCk+FmmQvDBRXQD1R21q7HjPbNFpcLV29WrXNLwPP6dNl9qfO38UNYkFoCP3idR6evcpjLukWcTeUs0TtuYhlAYcw3nYHFAz80Vx+KQHVFwtGFnNj1CneQoduqzSUP9dCAu+OnioHRE7aYVwfYowbGqa4P8sBj93XIP/sZXxLaBIy48QdAtQspB69xa4pbNd5pj6hJ+FBwnjb5cmY5rQH5nO3MWKubLIZfQ0DCNeqvQitjugizOzbHu4D62OGQjNM6t0Wzv3rwVeVI8DiMFBqMLNY33sdQZEFP10KEdXcyNxY8K5GE34JeC6fK5tx5coVPHjwgEVR3xP6nPyCYtx9+AbxGdcwxz0BiiMC0EDSFfPI11TenfiTgaWySOzV1piPL0S8XW4eakMKi0rQW9+/1qwTjQiNZEUZYCpTu771UV9k9tfAIxFbhz6Ly0sjasbOzLL/zLXQDw7d4RqZWLqz5sFztp7+1cvXSrOysqoEnm8BikZfF68/w660TB7JvX4bF4WVKo3EHi32RG0LrzK/qxYr8y7oJqwNtwF1KgWQnpQwc21//TvzGX6Y5RDGvhYb7IxNoYkVOVQ1dar7MZDA6J2bm2uDGgPPpT9bSV65cjvn1q1bKCM3uCal+OlzZPbXrZRI3x45BR+KSyo8v6zgPd7fykL++SssEfk2IYPVul4ERuLJ0vV47LEOj5xWsMfHriTac1mFp97+eLoygD3nZdh29kj/lip9nYKrNxiQi1+8YiURn/A/ajXRKCRii3FyzQlgBBhofIYIwK5fQ/iQ71epCEJCXL+Ce6ov4YgDR85ivksUGkrYIXX/aawK2FMjVlPBOJTXg7WjjW6NgOfhiXkNr166e/natWsoKqo8x/KhpAQfqgksCoibepaVAiizjw6rrD9y9sbNERNxRU6dRWCMSLfvxeNOVCkJ/5Z+tGblyv5G+vPftZPDhQ7yTGk64FL3fogQ0UG9Wm2tcEY7YVMCmnqwkm8BDSkZNBaZBrNeXaAuJY3JvdsTcHy2Lt0HOqOgoAAW09Yxy0M/1IaTfGum3CLlzore4QllgTUCoCsXX6yjvCf76TO8z7yJ7MQMVsOiVe+7E+fhtokVbpHFvT3KCllTbfHIYTmert6I19v2sK6/kucvv9lG8UnuTbOrNBKrsPiV/e4X6Ym28mgmWrtZYQFRRwyT6QVxUXUMlurHXJuoqBYaiMyBppQkGoktKH+u3ngfvHv3DkkpGSgtLcW163fQRNqhxq5l4ZpziE4teQyuTOCnwPMkrU7fp8fOlD7y9MG1gQYs21ulBf34nAvk031L1/KrDsByvvE2B2/3pbHoqjYB8j39s60sFIVn/BqwEKBUHi25oKe4IRTEVTBEUp65I0kxTbQRnQR1aUV0FLMsf+40u1DcuHED+fn5yMvLg+7Y1TV6jarjtzM3tjGsqdJPAag44nja+6AYXOra94cX4ZLoAGKptqA0991XwMk7dQ4P5rniUk/lWrcuVVXLrua/pGYmquwAa9tNJIr62mI0Ep2FgRJ9MUxKFA3FFkKLuDIxEV1oy/aBkoRKeTF66sItOH/+PK7fuAXN0Z7k5041myXv7YWY/bkkGhNaWm3wvHZr0KUkdt+Hx5ZzPlsV+kg+ndQSXZFRQ6aSLsvL3NAaw/TaIEOWQb47bg4Kb2dV5EnE1GYn7cdtU2tcoPyltcw/EjisKEt0RadhEKopHsSszsc6mJILbt55hNCYNPK1a8WWXAIgq95tYSzTFdLE+iiQD9hq9e5QE+sKLWkJCH58HZ3R7nj44AEOHz0F4UHuvyTl4L75GqKSyy5VG0D5fscNaZP7jb7DcFlyMOE4U/FsVQBL6BXevIOSV28Ytyl7X8hqVjRaol2GjO+UfkGoScSfk36EAez8p07Bf4Hubj+AEGmnGiHIPZUXos8wD5bsqyPqAFu3cJbSOHDkHJpKfwaXgIgddMXbYLCYMFxVu8KynwQ8hsti5lAZTNPsgzYSkyBIXs9vayLOnr3K3NeipTG/BEAGM/ex4uqGLXLC1QJQ3qbdlgV70vBmVxKKHz/jRVrkTWfnFrI6Vvrx26wxLCDqFFYHHcPe/dcJoasYidHw+I75TBbp/FuA80lPtZVD+xoqI7RVcMLlzDu4m3UfCSmH4bc5Dmf+PIv3hYVYsSG+3LIIiS7G6P6KGD+gJ+YP64sZOv0xUkUBhkMHwmiYJpSUtSAkbIs+A33RsFEaeZ0EuHjHguuwqMbdWMdB6xgPCttTz6ZaALp94vWwa5cu4/mLNzh98RGWbzwM3cnhEFVbi0Yy7qgj7sIq5EKE/BlPi2Iljc+heQGeeG0gYXHffx1wPulZYi01u0+uIRfmhFHW/igkgCnngcR6nD17FqdPn4bYIKdyfqOlPAQGqgQ4wzSgq6UORQUVDOivCVNTM8jJjUWjLhPBNTwETvAR5tj5Qm4g4UD1jlQI82tK6R64qGTsrxaAzh1tLn/w9FOYz49HQ2l3HqH8i6msK+6KhZ7JrGWi3OpcuY7rqiN/Pcf5Mq9DI76O8rjYqTfhZ4q42K0vLvVQwiVhJVzs3o/ljtjX9PdE6XNphPjNPNJHHjSzi0mNEWkBssDj5gTg4aNnnz9oZWUsHJ9psxlcV0diiRyg0F8LygREqqqjERUVi27dDqNRo2c4eOAuzMZcJ2A5Ba7RXnDcWzTssRhck53g6jwA173m81Z0k2Xs/vxiLy/dlj/eZWjbrh3dHjx82p7KE06SrlgZeJTQnQ/lJPnFlqhfYnXoYl8S7s+6D28ZjGddh0+X+7IMNG3loI3z+WcuoODCVdbiWnTvIdPih4+JPin/mv6eKs1P5R0/w/hc9r40vI7ZjReBEXji6YPHzt6sWJtlMRMhIxagbs+arHs5o1M/GoUFYlPoXqSR637y5AnWrz8NwSa7WS1LW98CEhJbYG9PUx9lGD36EgQE3sLX9wgsLXegYeNoCLXyJgAqBtcqEFx9Yn0EXoHr4VjhfzWUcYDY0NmoL+VY7esV1wnkzVPc1Wjsj48DQJkA3Sc+dvH+r164gZQbNoT/UcFl3Zvp8GtIMt0QOGUhK3nQrDVoxvvDLy6I0Vof0SfPcoi79vhF+SAnGE7agNzcXIyZEAgBoVto3NULh46dw/jxtyApeQU7d8XDcux89O5tjqFDNWE0wggTxo+HRH8bYnVuEWt0jDyeBif05LMF6joVjTsowcZFDf4hfdFVufpdjoKEptCt21FJgrHVcmPRaUX3Znud+guy3REQ8bnNoujRk4pN7dVRArzL4io8t1LJ7++OnVVpt2FtVOb7GAb8ssq8jPpSwjFfooM8cUUCjwggErAlbB88PHwJaMwwaqQJzEaPhpGhIXFfY2BqMgrOLu5oJkkA1GwtsUJ5RMn6CN0k1ssRAm200FO8HryWcjhyoDG8/AZByXjKT7lhujkiOi0vx83Ntd4PAygqteTkkoCrnzmPhCvWh5z43C568y4ySZhfLdC0kmZuKWuCDSuP0Ne6qqhd6XNpprr0zdtv19MIOaV9RffnOLGyyB3ifmh55c2OBJS9f8/6lKyd4mE+OxYTFsRhyqJdmO4YD6dVafDwPYANoScRRiLKnSlXcfhUFutpyrz9gqnF/LhfVJl3hkCH+bCx3wJdC08etxF6iuYiU2FMAKOvp4dRJiaYPGEiRujrY5zZWFiaW2KU5VwItFxNAPeYgOcD0QuEExH318MGzVrUxc5tHHbFcli+tA4GjjCB7LAZaN7brtrX2XdUOM+NxbXV/mEARSaV7qJMnLcbwgXLAw6XLxqtYl+WUKkWeK6pGOLFpnCWHsDH1pDSnHe4+eXeri/0irQqirIe/H1RNr8AL4NjiSUbVIE73bWczdIJT57nYrrzXl5j25dto6K86Ke8a1HYmfAeFzQibrqZnAeLOH/Z9ubW/hAQvIc6bZbyyDABRL1Orpgy3RbTp03HCE0CIk1D6OkMx/BuKpg5YQaU1UaAax7yETwg+hJcG1dISY2EvrgANMQ59O3AoXUrDuLyEj9tPelMRjbdPhF+PwygiIRi/+DEV7w+EfKJ/USYKXhYGeIHifD1oSZ4HbkDZXn5lYIga/L8yl1hWxnkn73EnkNTCjezXn2zJ6nwzj1GgmkkVt5031kRz9ZsQtHrbOxOy4S0js9v3dpTrt2I1iEfUIFc8riDgCGfuKZANOhmDV1DS9jNW4xRYtoY1qAfLESGY4rVVGjqGKK9OAFfY39wDdLJ3xRBqPV6bB7eCrsNOCh34lBHkAOlsZxQQ8KJrKrU0fh3umjdBUSlFt/nfrS4GpFQ4kjN1wjr6PJQnVke8R+zPNcGjcCb7ft4JPivfPWLfp/Hy9ZX3t7aUhJvYuLZc6LiL6B5r6WYtyyxQu6pwmsSok0jrZvaZp+JPXmkFq7gUiZevcmH/cpUlp74rQCilq/VRrLYZUSf8qyJwBlwgnfRsscsaGkPx4wZszDbYgZsrG1goG+A8ePG4/gfZzHU2BUNetgSC/YI4m2dEKxTH9b9uqJrp85Q09AnkZsgeT0BYtkkiVVd9FPXqT4xjrkxv+Buij8EoNB4TNp9OIeZf0aYSThMa2BVL6gOZM1c1D39tS72joTRDxa6kbD6Srk1eU1AUtlOVQqqJ0vXseecvfIYQh8b9tv282Jbdt5kV94uQi3di41hrLBbbgnb98ITL1/WPEZ7peX1/H6vNRJxINYkmSz2O6KEDHMPiJZCsEUk+gwyxhjT0TA1NcXYsZaETBthDCHVtBL/7l0eMg6ehLLKSTRo5olGojPRVNoWB07exzRigZkFokqB1Ezhp3hcc8UVbHZjRKKQ64+R6PimOqfP32VZU1r7yhygX2V3ddt4Mt5fv1Uh5KbAoe0bN4aZs2Tei43hePDoLcJ3X+BZtz8vVmqBvozEaH9114HeFXqKRVTXYEfKFeTlV97wRgc10ALvl7tgaeE3J4OAL6cADoRMN5HzqHXwCIo5QWzQfDQRn4+6jQkRFsgki36duKY4NOngBVdikccR4EwiRFpPV5dFY+ZjzDBs1ELczXqIkpISKPU/DK7Tx71dim7Yt/8GxMRlPgOIgUgIXHujn3JldOJaVErx2R/rg/6jRS/aTPb68RPcMpxUJfBQ7vFyS9RXrahsmMLawHJ38oBETNlv82A0LRIWc7cxK1R4KwuXJSt3j7QYS/uHXhNr099oYyUN4UswxCyIRVCVurXiYrwl0d6XFvRCh1545ODF2lj3n7jDGv5ryxrVEXfAIP0FcFnujek2CzBi1GQ0aTkZDRr6oI2YDZZ4RSA7OxuzZ87C1MlTMHoUsUJm5pg0fjy6yI1Ht/4O0Bq5EC27TyrvL6rbczESD9xBx07dKgKIat1WxJUtrPb1Gs5JpFNdP6zwUaz6WWO3klTaUgDddlpepTwPbeWgHKkyoT1AtMzAwvKho1Dy+i0cV6cxV6RmtoVtV6YLSflSpZGY3FDmQuk+sVEzor/dX0wiKLr7I4tYqsqE/o8Hc50/WyMC5sz+eswa5eUVYTHhRrVhjfoNX4yVG/yw0N4Bi5xcYGNnDxFFM6zeEI2XL1+irKwUOTm5MB1rgykTJ2Hi+AksDzSeWKQRBsaQ6WeC4XqmGGFojgY9eRynoaQTIuMvE8u1Ec1btPoLiAgfaqtTbStEZ1Hydq7Wm/VD2ejHh88UPbWy/S54qIuh7auVdh4SDkQjMPap76TANgPuybhWvv9KfOhatq+MDZ0irq/S/9FejpUhqDivTv9bn06tSNu+Xli1+SjbVvR1D3cpcg+fZOmEL93ugwVueP/gMY6cucf2h/3KrT2ymo5w8fLGkmVeWOziDstJkyE1yArCys5ITDuBBw8fYZb9JjTtOQUjjYwwZdIkGI0wxEhDY1iR51oQV2aiPQImGoZoIzOL976FHeETfATX7gNbI1PRunW7iiBqQCyTiH21tx/5xD5AZFJJ6g+5saKotKyXCz2+zXfayuGRoxc+vC/6Zo7msdua8k/7q4gdbJpYu36fz7ii+Ra21ZmOmyOurTJrR8n1252JvEhsz4UqzU6kb3qQ6WZkHL9TnoKoAGxCRB/Ze1YYh5epqIPcgyfIp78Atl4pvywP1K6PI2bMs4UhsSqqQ4dCvndvdJM3ZRM6qCvq3GchJBRNoK1jTNwWsT4jTaCloQGz0WOYS6NZahMpbWiJqqCH4jg0lnJCc5nFsPcIQ+Y9EC2BqrpeRQAJNmCljupeMz17NTajoMjN16dZ1QEUnnEi22N95eAhHOK5TxDb484WpLQM5wk4vkzR0N2ldMcDfX6W1ULkEN6jPvYvU9iFnXDk9D32/Od+wZUTaRqJefpUjMSq+MZpuE6netDtzpWF/JS8f7KQnz4UNJf0/tlLZo3oCLyaJ9COsHFcBjMSlvfp2xeysnJoKTUZdcR4WeN6PRfA3GwsTI1NMMFyHKynWMHS3IK5MUODEVAeOhDd+nVEfe3m2BSxD4pazkhOP4abt+7h3PV8ZGaVQVt31NdcqE313ZiU7hbePMWdgmOqDKDCsAM783y2VgIeebwm1uQTWmg0M3PJXpy7+uQL15WLzH68PV+0TPH+yQv2qf46lHVGYPRp3hbm1EOV71QlVunuBBsG1r9GYlXLuSyBmPo6hOw4x8bbfe1mcxlAv0xA0mvOTjuEd7kFmLc0qUanuNYVd8TUBcvh7r0ac23tYEXIco/+c8j/4LkYQVE7aKkZw0BYFSN09WGobwBj4sKUBypDRF0YdccJQX0ZB+HpDXH8zGns3J3I2j/ziFU9cPwuTpx/CRlZ+a8B1Eik+vvXxF3ZuMKoJMHIqgMoJM2vKGR7RfAQAvoqOLYcPHTKqeqYLZjuvKfCotDJqJ/Gr+SkH2a8p66ES6UJNXvvVF4/0aVruNBZofJITPPvI7EqLZyEKyzmbce9R28rt0bnLvOI/Ec3epFcy0NbDzy9+xSNZN1rcBvPEoya4gbPNesxnIBjhs18WE53RBNp2/J70kV2HAZ3loe0oijE9LqivW57dBrUCQKTBaC4hMPRBA7m7o0QFhePCxcuoPjjINH0Q+cQs/s4hIWFK4nGWoDrPqfa1z1r+R+ITit4Y219pm6VAPR+a5oj7Y2++HEqBnVbPMvDu+mXbzyDpMZ6tFL0xPNXnzPDNBP8Kep6uGgpXr3OQ9dB3x5oOXJ6FIuw6NCpK73UKwXQVXmNKkViVeIghIN5Bx5hFfevrFF2Lp6t3sjA88n6XSSWVK63Yw1moZdAQccRqzb4w8ljGabNmUuisgAMNnZg3K2lnD0spruisUFXiDlysFjDQdSOQ4MpHIRmcehsyyF+Jwfb1fUhYeqO1Vt2skb7LHJ/DMctxfa9p9GuXbuvAUQTix3HVNuNKY2O5BVXtzUfWrWtPUHHJlAAXZUawkgwrSl9sjy0LtV5gDe7Gb6hJysUNm/qjuWRUhIiF7/NxcjvLPggk0CWUS59k40btARRGecilq+qkVhVIwudiWHsQ1CZvDt2GjfUR/FIPFGTbpY1yoPa9raD51pfeK3fgOVrfeDt64fZi5zRSm4eGksuQtyuRDivWQZ1F0E8O8RhAgGS+1gOfRdz8NjCYboPh67z6qKj0TJIm/kjKSkV2mNWoKm0E5au3YkmTZqVA4eCSVBQkPd9CyXy/12rdc0NZZciMu0tHQu8vmrN9YEXtCmAbhIgUEvyCTx0ZFxbRd7UL0lNH+QVfI7CaFWctrTS0Dj30ElE7L7Aeqi/N7XswZNs3tCpsbO+GYll70v/oUisShPuSRS41O8gy0VVtvX6KeFGl4g1dehswHZF1NhZFcr2LP8zkoTksxfYYoWPHwnp3SDX3wDtJY3h5OSEi1duQHWaLLy2cvBfweHiag5O3jwALQzg0MdBAJLmjtCcG4mV60NJKG9P+JMz5rttR+s27csBJCoq+hlAjYQrbDX6UbX3vUSLq3eqBKA3ax/KUQC99Po8f5Bank/gobmcbQmXKwxL+NRS8cBmCe7cf10hZP+W0pEvmbdefBw6tarySIwA6MkKPxQUluD42fusqb8mx6yomm/F1riz2JWayXadXLj2lA3mpMXXp4fPIFrdCvVqsHm9U9/FsJ5tAxkZaaIyGKKmBntXdyxwJO6tT39oaWkhes8hdNC3R7vZ9TDNh8d7ejtwSNzNYe4GDkZeguhmNA3Wy3Yg48gFNJHiuUfVUWvJ6w0rB1CPHj1Qv379j1X6xuTDV/0dJ1pTdjI3tiGks9z3tzeb57Yp3JWMt4950dWl6894buvjiymP2kyims/bee7PXVIewRQ8fQmzuduqdmEklE8+fJO9xqvwOAYWZnU6KiCjx2BskTDE4l4TYarhDgWDADSXX/ZLyg6CrMzgwnq+aetuY0Kcm/Vaig79V6CnineNgrapjCMsp85HL3l5BiCq/ZT6s8hs8rQZUOyjCH0rD3QdE4YmJv3RnvCevXEcJq/jcCaZw+hVxK0Ri7Rs6wpsDN2J5y+zITGER/S7D/DAzHke5VZHQkICAgICH3lQHXDdplX7ulv1W8mOxgrfK+T0/Ww0VyZw5+SFQtr8/fhZLiQ01lW42WlHb1cgzhc69WZZ4zdxCYjee7HqJ+0Qd+QXdpKQ2lLcSDkJPwljTOg1Hb1kF6OVFM2L/JNmHNbQWBcxJ8xa7AmjUaaQlZUtB5GaugZmzV+IoRoaGDtlNiQtg9HVyA31rRthIbFC22nXIQHSIDcOCs4C8Itfh6FT/RBH7pspeaT3son0Eqzw3YuGDRsx0AxSUYXVNBu0bdeeR6Q7mf3UtS8PuYWoFJyq4oSOu1lXMm8xovvli2iQN/YpacjKEAYTyssaDx+9QWfllT/UG0OtmYZlCMtM1/kPAqayXNAMOy94rFzDQPMJQFRVhgxB/4GDYGnliO1JJzBqwSZM9pkMKXsO8/w5nEzkMJ5EZmruJBLzt0PvSWGQGh8K/QlLGQfihB3hsjqJ9QbxXJgw4hMPwsNzLerWrQeutfpPVefpCQTb9r8r27BBudP3q/KXHh5fH3ahQm2Icp/Dpz/vf38Tt49FaXT/FR3WNM15z38eAD9tgXoSC2S3nIXvNJkoJydXDiD6tWI/ZXRSnIVHj5/C0ycMyUcPQHFxe6THczhBuNCWSA7mxIUZTR+E7mOC0cU8EvYrI9Gxrxv7QOqO88cqn2DUqVMXrVq1hPeajbhw9T46dOgIron0TwGom9oGXnF1b0Pr75/xdaR0x/qYBxVewGh6VHl9iYbtdNACtT607kUPU/k9Rwn82wDkiOmLeABavs4XpuZjIfOFK5OTk4Wsohp27oyH/oII6MwNxTiX0VhNIjItTw6eQRxcaTS2TAtLNyVAeHQgDp64gAH6vKBFeKAHonYdRw8RCeLKGsDOYSkevyyGrFxvcA17/NRQTkpNNsQ9QkRSSWIVWlvLNtAjgQTKjwhyxckv+m5o1x+v5UId+a9zoGS8kQ+QqvQEEQs0Zd5SBiCq3kQ1tXQYH/rEidTU1bFgng0kxwahq3k0+oy0gei0FpBz5nBsH4fIGA4z/MaiuLgIyzbEIOv+I0xdFMIsUF3CsXxCjmLClPmMTKtraCNqewqaNG1GANTtp6e6TnA+jJiM9+/d3EY1+fvW1j0lDtRcNZDhnbozwjoSZZ8KqDm55WE7bUn1JURYgA+Oqk2HV1gEe3fvcgAtW70OAwYqQ3WoOkaOHoNeveQxTFcPlhMmQtXKD13GRCAs/iiWhCyB3CIhxO/gkek5/iNQUlKKXSnHMNk1ErYeEeW8Um9iIBL3Z6K3ojJatGiBoPC96NCxC7h6bcH1mP9zLSkGQbx5inHNR/79YPE9dSbQJ9KJDTTyojmY8nrXcl9enUrHHA+yXqB9/xV8cFRxm7Oyng0mWU/D+ClWWLpqLaxnzWFWh4b1gwYPgfGo0ez3s2dNR0Z6BlSm+OHspRu4+zgLa4JlsDGCw47tHBYtlcK12w/huTkR3czC0UXVoTxL31TGAWnHH+DE+eeED0XhzJXn0NE1ZsRaoPM4Xn9QNZOKQhJuCE58icgkhP4tgEJ2tdSiAJLR2wLN8SGfd6U+fMI2B9JG9ZwjpzCPHs3EB0eVASQuNwj6hkYMQHojDFlR9ZProiR6+tx58Frvi5kzrBC1xQfH/jiHhPSjbCjDXG8btJgriMWbODh5CkN58kYoT1iHbhYxaDnY9bN7EnGCsdVmXL5TjKv3gJuPAKvp8yEkJARVjRE8S9SUEGrhBdV6H/RU6ui0wpemph+EvgmgjUGSshRAKuTi0o99zvvQRjIWtk+wwZ8XH7JKNx8cVQ3hHaCiYYyZ8+ZjlJk5JlhZY/RYSxgYGTPeM4SE8WNMjVh5w3r6VNhYaCIgKhly4zYj/eg5GJGwvrGZGNYRIm3p2BFdRofBdkUYhs4OR2PFxX8ZSr4YS1Yl4uKtQpy+/AoqqtqQlJLC6NGjIVCnMbhWg4kVqt6QzoGEl7EeoZgug78JIIdZ6q3pk5x9z6Dk4xApWhWn1XbaF0R3X+hZRfCB8YNJxElzlpDIywILHJxYQXW+vSOsZ89lINIYSlzYEGk4e3hgqrUVzNRloKI/GV0tYiFlHgDxUWvRTn8mJnnWh+jUbhgwyR9v3rzF/UdP0U1pHtsr31TKjuWaaPqlheQCuEybiCFyIpis0AgGujoQqtsQ9dqqQEi0+lufG8ktQ1R6NonGBFb9/aCF1LzCy7eyP5/8Z7eUV++a74oMYpX4xPnHp3OMsXZnAKJZ5xHGI9mjzSJ7zF20GIbD1GChLompE80xZ/58mKpKYriKArqZbITqrHCkHD4HtWmbID5lAHrMFcHStUF48zYbr169IsBchY3Bu3D95m3MdQjEIM3pWKbeHskjBZE1VQCnXEi0XFCA0LAIeK/ZBB1zr596L87+VxCVUnTzbwG0Iz3v7r0Hj3gF0yfPWMmCDtvMvZHFMsh8UPz43vg+WrMxYuRIGI40gd0SV5YLmmdHD+LVg5GKJKboSMNCTxkz58yBpaYsRg8Wg8ogVdiujmPboNIOnoTnJn8MdlDBWPsATHSNwaXLV9jQqvLeppISZL95jZQVU/BgZiOcXDsZb9+8QmbmNSSmHMTSNXFoJGn3U+9FZ+pubD/wDv5bFKS+CaAjJ58du3v3bgXuQ48U2JVylW99qqlt5GZgsOpQRponTp3G3NhEwoWUlPphrKYMLNXFMUW3NyZPsMA4TWmMHtITY4eKw8t1MfLz8hC59xikxgZC2XIEeo9dhy5mUbBbEcKGj/9Vbl0+h9uX/0RxURGOHD2GlIwjGDt9baXjhn/4fSitonvGELa3bPG3z8s4fz+Obqml1odGXpfEB+HV1TuQ0vHlg+EnMtEyCkMYgNQ1tYj7WswiMeORxpikI4sxBDAz9WUxxVwPFhrSMFMVhwUB0FRdOaxyt8ecFdsIJ4qBsKE35M3XoqORD2StTXDlWmalDXL0lKXUtIOI2XkAsuouNTq2xjvsDqJSuWPfBNDVC4996SbDT3mf2wuX8mbn8IHwUyf1tJIcB2kZWRa2T505G2PGjoPOsOGYqKtILJAEphOwmA0fgDEUPGriDESTtKSgpSKKJnra6Gi4EkOmBeHMhavoYjEWDW0GY/xqOzx4+rgcOJQXJSal4tDR03DwjEBzOQfUFVsIMcXREBJZVCPvZfSCVHpYXZnnevX23wBQlv2NCxfZrJ7zPfpjjLl/1Vs1+Pq323u6SA8nVohXvtDU1oH2cF1oK/eCFeFAVsOoK5NkYDJXoxZIgnEjrUEiqGMogzpTBkJuphmsfJzR1l0XbVYboM7EvlgbEcia7Oku19Wr17EMtLSaIzsSiu47W71AGHcjhNC7iyrvdMmf7a5U9/84FrjJ5MpbOs49Hf9y/1FkygzFbJnJfPDUaE7IDj1ktCFLXBndI0ZD+aGDB2C8thzGaUhgKgHRNF3i0lR7MiDN0JfDSGUR9BwsgnomcmhNQNN0qQ6aegxDfUd1cPMHo+14FSTuT8WBg4cRExcP4/Fu5bkelaHDUZLK4UkkB58uTdC52/ifT4z2dEHAzicknC/dUymAMs/kaRbtSIKfnl2NTi7l68eWXrG5UOlLXJmsDBQV+0CuVy9ikWQwUEGK8SFqeSgnotaHAspwgAjGEjB1URGBwIS+aOSqheaew9HASQPNlg1DE/K9mKka1m3aBpmhTmwSyKeTDrd7dmIAip8kgENtOSxt0w5duo376UFUU1yOIDY9P3/+/FENvwLQO7/7Mk93n4CaRTR/wX8BF2orbomRKj2Z1enXWxoDlZUxaPBg9O3XD/36KEKLuLSRKiQqGyaL8RqSjAtN0ZbGsEGiqKMuhcZOmmi5XBf1FquhiZs2hGxUwBn2BScxsWLEJDMdr/cIYoc1AVB7jgGI6rx2oiy5+TPvo49JGHNjQds6DPkKQCemSLfauz8b+jP38Rf8l5wjPw4TtSQxbbgMtPt0h5m6LNSUZDGgfz8GpoHKA9FHoReMVGUZeKgbMx0iA1VFeTQQVSOubCCEJiiBsyCgMe4DbsAgcCLTvmrZ0NDWRxGxPs+jOYT3EUBGGw5HCIDs2nX/6SMzuwzx5ZU1duSYf2Nqa/77cQ4H+Qv+CyxQB0kzRpgHKfaDdv9eJHyXg76yHLQHKMBIRQKj1aRhoCyBycSFGQ4UI65MBgMUiZUR/VhNlxgJrp8WOHldcJJjwAnPh6DIfOYa64sSFbNBPRJ5WVsoAfs5pjvdWkKpkzpM28qgYw3wIIlhm3kWaLug3jcAVHjHxvsMf8F/SW3MDp3EjVBfeCr0Bililr4M+iqoQUh0EdqL6qOrhAHaiI2CgowiGopMRmMRKxKCL6hQGhEgoJEfOBLTzWQR7twSsa6NEby4AYIX1cHpgAbws2mKHe4N8WcAh8xgDuYjlau9wbDSUH5hGmL3k1B+nUrHyuthKSVH3QIz+Qv+qwm16Gz0kNBBSzELWI2RwzSLPuggN4WX+Ptr1Vx0CRr2nI1Jo5WwjYAjYjGHOUYcHCw42JtxGKPGYfIw4qY28B6thnOIceKQ4sVh1ezO6D94BLFUP3+8J52juDXhJaKShb7d4hqVXLqdDhniL3LtqIZ0XzzdRtxNBoeH2+pAXXM4O7SlPIckagc1NQ2krm7EwDKJACSMAMhCnYO1HvnajkOsM4c/N3K4HcHh4FoORsocFplyWD6Zw7oZHK5sEYD79J7ooTCBgLF6URityHsG36QHsxRsjm4v8+3B44nwCUt+w88B1ZKObtcb8eYccvdxeEf05e46MNDVZLXHRuJz4Dy1J/YtE0DCMg4rrDjMGsEh0ZPDzXAO92LqIGV1E4Q6tUGQY3sEOXVExvqmuLRFEG92c4ik++wncnAbz8HFksM2l8ZQUDb+4alsFDzLtt5gp/oE7ehp9PetrXuLFlOS1FB2GX+Bf7m6wqDDIKSTCCm0C4cNAwVQksbhwfa60NBQR6BjJwaaCdoc/OaQn8dQKyWAkCUdoDtMAx1kJxALZc+zWMT1sUfhxdhk1xZnN3E47iuAc5uEMNeYw3gtDqunEQtm2v+HrrFxL08sp5bnQH7x1h1iJt/dnRGyF+MogDqprOcvcC1EZjodlHGU5mlIqL1Hn2MAerWLwzGy+D4zefzGbQKHJ3Ecdni2gUx/E9bC+m2i7oAoj27MJSasagulvkOxfV5dnPbncGKDADrJVf2AvRaE89ACamzGu6KgHbJGVdqhGhTXSIP1RusH8Rf4V2/5EbGDe9v2LMmX3JoAxaAN8pIEcMqPw17iskxVOdgSLvNoB4eZFnKoI1aFEb4irtjoKMJC+ANrm8K+VTskEHDG6glgh2sz1O1Ztb6gtv1XYz3hwtv2v8/bGofhVZ5W5hvcVZr1Ro+N5S/yrwYQcT/z24vhGAHQ/DZdIdTDFlNNpXHSl3CXj7zlNHFBOtqqFYj194ZaOU/vzQB0eZUA0j5movcTEBl3rNpGwx5D/RAY/4wO23wbECM1+Icmts6YMb0lBZDBrAT+IteCNusxA8PbK6FFd2sWau9d0Rr+czmsJ9HTKeJ2/Be2Ij+3+yG3aGaihuJUQrJJ9LWXAOcwAZB7mzZoKGzz3b9XNA5FWPJrxKSVPQyKFZGt3iF0qQUF4xz52ehaD+k1dXDaTxDHfHhJwJMEQG/iOaioG/9A+O2CHn0mIzO0Hu5FCmBfN0LQ2zRA2+8cLkyjPr3pexGzPwfRKcXnfLfIdan2efLRKYW3563kZ6NrN0vtiA2LuiN1BS8BeH5LHZzeWI+5oh1e7dkZZz8ym7H3wNHIWNsMcRIC6NdR4+/PC5P2wEzPP1iJIiKxdLe/v18T7mckOqX0iHvgNf7C1qK2kpqB84F14WhBeI+/AEYbKMHceDCK0wTwMl4QikN+bGgmtSjKavqwFu9AyPribz6P7kSmkRYd4xK6t7m7G+cqyP2sRCaXbfPd9pC/sLUYzqtrGeDYegFsmM0h1YPDuvYN4NWhOSPCZSQkd54u/8MbG+gR40Ldpnzz94MtYxnfiU3Pfx0c11qfqymJSBRYH5b8lp+NrkVtIjEPvnYiOERAtGMMrwXjICG/8eoCKErjYG8lX2MN8k3kl2Ou9xnmsqKSS0/4BUl252pSwveU2LFstJwnf3FrUev1XIT5E+SxvQ8vcqLh975uAshcL4hhw3R/upuQzYA2jeCF6Pvzi0PjG7q4qbnW4WpagvcIWlIAdR7Mz0bXfm5oAWQ7DsXYdjLwa90IaW0EEG8iAIVBJj8FIJoYXLTuPLM6JMq6GBjbWpH7VRK8q5k6/Ud0Ngx/UX8PJ6IJP0FCfnt10sOc7u3QWXpM9dpGZJZi1PwUdipzbEZBfuieug5VPsKguuK/RUyKAoiSLP5i/gO2BQkvgGCPHzv7oo6kG7Sm7MKm3U+p1fkQmSAYV+Nc51syb6JrC3aSMz8b/e/jUVIeDDj+Ox4zdxWZ/OH4xm1tB3G1LVEpBfnjHQ/xF+XfkkfquxKm81OxZe9zHnBS8MeWHZ11ud8lUalFt+at/JO/OP/k7LWEGxRHhsJ27TlEZ+SwZGBkkmDS5qhGmtzvlqjU0sPum/nZ6H/cDlcpd8gbBmOq+zF2MBy1NrFpBS8iEoXWbAqR7Mn9UyQyCbG+2/952eg6ku7opOJDPnlh0LbaDfNF6Zi+9DgWrDmHJQFXWOvl8uBb8Aq9wx7p9/TnC1afY8+zWJyB4dP2oJ9pBIQ1/FlS7Z+cMBUUd2EDv4dZx7MwnLYbM9BkvH8XlSIYG7K7lZGbm2s97p8mkQll68JTfm82ui4Bi+SwQIyYnYB5q/7Euuj7iCGmmt7ATxqdllsanVr6LDIpPzMmVehEZEpORlhiTmp4Ql5yBHmMSM7OiE7FiYikvEzyvKf0+V/+PRthm/gKK8PvEFdwHpOWHIYh+X/KFtGQHB6IdgPWsOuojfdLi5q0F4dGv5b2++EccJVdG71GOpsnOqX4XkRSWWBwXBPDtWu3NeT+yRK6p4hloxvVYjaagrW7mh+M5iTBZeNVRKZlf1rkD1Ep9e9HpajHh+0N8AzZLT/OP2K88rK1Zp3dOKUfKv6Bmyvg6JnRcWNUoFLIrvGmYfv+WBSRZBMQmdw/OSql9dWo1MJ3dLG+BBg9tSZo30usjboP102ZmL/6LHMh1JqNmJ1ILOEutuj9TCPR2ygE8iOC2LRbqeGbIaW7GbL6W9jP+4yKwJBxsdCeuhsm85IxwekQ5pMPxtKgGyzcpv/n0/+MycgrjkopOkcBE7K7zkTfwC6i3L9JQveUjuVlo31+OWhENAIw3vEg/D6GnmQBP0SndLwQmbR8ddAOdyNPT/n2tfne3eZFtggI69Vra1z68LCEDpPDEnYtCU+cszEyWTcuOkXqSGRyi+sxqQLPK7NmVVbyHqOSC/KiUgtuRqUUH4hMLg0J3yfgHBwvOCYgum0vN9Mr9bh/s2zdWX8ofaNyBlt/CXDoJjXqKtYSt8RAs/99IbmJCWH76lt5bzjS6d9yn8YOf97Mznt9l7DYD+JrNy3q6xOurxKcpK8ak66nFpOsohGd2k+dgEXVN+bF4LUbi5VCojR7Oi171XnO8A/1uf+ybAjpKEkXlprcmgSOsLo/Zi0/hej0bF6GNLn4eOju+tZubgNacXz574i19dTmLBs9u2ay0ZKEDziTaOhTBBGZWMfPL1RUhn+n/8MSnfo+jxK9nwGOqGYAmzHMgJNe+Cx8XzN7L6+uLfl39/9AolLf36Thc7VS6/1WYrbXKRZZxKaXvAjd28DW1rZdY/5d/X8CUErpAbqh/kcTX7S7n7ZKUmIcvk/IOzBQozn/bv4fSniigHdUeg6aKVRtTD5t0KY5DV6rJFL8IxTE+Hfx/1j8QnvJbNufV0azs9/bAaA+MQ7hKW8Qk1H4JnhHkwn8u8cXJmH76mygmVmDWfsqLWvQ4t40j+M8q5Py4cBPbUjjy39PaKEuMkloFwWIW+A1DLGMZeUGUa2NrChJh1HRfE7Y3gYr/vZAMr78X4NIMGRnvZlRqYUP/1ojikwuPhu8o4MO/y7xpQpAKhPcGNNQISiu1DQ4TtBwrX8bPknmC1/4whe+8IUvfOELX/jCF77whS984Qtf+MIXvvCFL3zhyz9R/geSulowJfQRXgAAAABJRU5ErkJggg=='
p43
sb.