ccopy_reg
_reconstructor
p0
(cemoji
Emoji
p1
c__builtin__
object
p2
Ntp3
Rp4
(dp5
S'emojipedia_url'
p6
Vhttp://emojipedia.org/flag-for-St.-Helena/
p7
sS'index'
p8
V1107
p9
sS'code'
p10
VU+1F1F8 U+1F1ED
p11
sS'apple'
p12
S''
p13
sS'twit'
p14
g13
sS'gmail'
p15
g13
sS'related_to'
p16
(lp17
sS'name'
p18
Vflag for St. Helena
p19
sS'known_as'
p20
(lp21
sS'default'
p22
Vemoji
p23
sS'bw'
p24
S'data:image/png;base64,iVBORw0KGgoAAAANSUhEUgAAAGwAAABsCAYAAACPZlfNAAAFfElEQVR42u3df0icdRwH8G94tLS2UamtsikucUztUKc7rtXSRYipUWREOnO2buB0YGyZtnB/NGmt6CpGIyxURvmPlGy4VjEksm0tcEos06BaZlAurdyxc3qf9nyfnjsvfe7X8/P0/YE3z+nk8fZ9+fne89x9nztGqKgqhiEAGApgKIABDAUwFMAAhgIYCmAAQwEMBTCAoQCGAhjAUKYB6+vrIyR6wsEG4jPkRe9+KeJIJez//9Fy/0r3a9b4gQVC+3v6iqnApPrny681+UOIGrBgcGYAC9RVas0MpgcLZQCkuuK+aghYKF21bMBmZ+f4f9L985iq3aYGWEx6S8hdJdWxU8NLGyzc6UaqmauzmoJ5u6r/nGbTdlSDzR+k87dlKR4kJWDh/vEsdSxZsEgHzOPxqAKGrooQzG/AEyPrtnDB0FUKwZQOZKhgUl3+ZhBdpQaY3+AnZIYFFwwMXaURmJJuCwSGrorwxFnLCqXDVH9WG2AAM+1ziUshAAMYwAAGMIABDGBLCmzjo0cAZkawkZGReQvNgoVodHQU52FGnIelpKTIwjAWHC85ORlgeoLJQVgsjJxOZ0hoADMBmJD772Lkdrv1Bwv3id9gIGNNrcrAPB7TLF8LBDExMUGpqcK0d6O5wC5NuULGCvf1sPL6rrD3XbW32xRgvumQ+G256VFXMLm61NUTtAvCecVZri7kFxvabcGPCK+j2NhYmptjfJmEYWAXx6ci6iolSwQerGo3XbeFchifm2vwY5iSrlJj1ZRcfZtVoHu3ySEMD4tToM3GjDvouPDD74q7Sq1lbpufbAv7vjj29ejeYTt2GASmVlepvfJXrobS7Jp32/qH3qSGhgbFSdvq1Oc8TK318ErX1ltLDmt2H4PljX6STYUjh2+Fcrlc/Pb4OFvwc5qfOCvpKi2vXpHtttRNmj2XKIc1v4Sv97QPLPieLmBaXMel5uVGG4reCqnb1BqkgRrGIwy8tJVS25DGt48928R/f8tHF/ljli4dplZX6XUFplwNJuWoCnaq4tpBwyciwrZsH55cN+kCNrjO5pc/p1w8u/YfV/QLpP2cvyN7QaR/U2P/i0WtQRKQ4o4zvj1QyPy6rPHFxAV4/KqemRltwZb7As1gYNK0KETottaTkzQ9Pb1oh/X2WrTvMMAEBhPyTjGjw82MDrX4OuzEiRi+XX1LAsXfvpbuXJdBWwpXAswsHSZ0l5DmVv8DH2thOTV3fU+O13spO0+cJjeVPkOTK7Loix8BpmtS1qz2gkl4K48yKq096D3nWrshnyobm+n5ziHaVltAmZvL6J7sjVRd10R2ux1geqbUcZQjbc9h9HIBo44SRtY9IpTHI2739/xKVXUPUMa9pdRewrwvtWTEMyqq6QSYEdPi1td80+IN7YyKdx4Q12xk2jhaQ2My2ZMYNdp8YAlxTNX7AbAIHseE2w+XVVN+3VmOYk1k9EEZo2PljOpzRagjRWL+uEwAMyK//PYX7ywJjWMNV5Ml9mZalZTn7Sgh19+UwLfrH3mbfhqbBJhRqXyC0a0fix0mgM1PzJCDA0oRvpe3+7Q5rsBcrmlra6O+CkZnn2Z0X82HC9DWdDn5dsW5Or7t6OwAmNGRpkLeQbtOi1j1Z/g2/dVusgzupFWf7xN/zizXOAPN11V5u89Q+sFusjZ/5oXUCgtgEeaFQ5/6obHvtlNc/3P/AX5Fe185CTCzpaDyfX80obuuTY1bnnrPfG/7gCw+PZr2fToQ/9gef9fcb6yCRNk74SAAQwAGMARgCMAAhgAMARjAEIAhAAMYAjAEYADDYAAMARjiA0Oi6HOc8dnj+Gh7FMBQAAMYCmAogAEMBTAUwACGAhgKYABDAQwFMIChzFL/ApNunaRN+0cBAAAAAElFTkSuQmCC'
p25
sS'version'
p26
VV6.0\u02e3
p27
sS'uni'
p28
g13
sS'desc'
p29
g13
sS'browser'
p30
V\U0001f1f8\U0001f1ed
p31
sS'annotations'
p32
(lp33
Vflag
p34
aVhelena
p35
aVother
p36
aVsaint
p37
asS'wind'
p38
g13
sS'andr'
p39
S'data:image/png;base64,iVBORw0KGgoAAAANSUhEUgAAAJAAAACQCAYAAADnRuK4AAAABmJLR0QA/wD/AP+gvaeTAAAseklEQVR42u1dB1RURxdesNfE7m/sFVGxm9h77D0mdk2MxBq7UVGa0qv0vg2k112q2HusgCBiFwtFel/K98+8DQi6IBpQI++ecw+I772dnfne7XOHw2GJJZZYYoklllhiiSWWWGKJJZZYYoklllhiiSWWWGKJpZonPb15LWycm061cs1YYXO83kxt7YVt2Flh6b1kaDu3rZN/I1vn0Oy84+GZKGWXsKwinkje08RpYE92lliSSWbOoxQFIXnPBCHpWK92AUrznfDd+GNQnG2PlX+dhKP4NZxDc9KtPPuPZ2eLpQpkdby7kjAkL9Ha5xV6TLUEp/fhd7jd90YwdH4C55Cs1GO2/+vKzhpLDFk7dxnrHJKdauH1Ep3GmcoETyl3HGMMblAq+KJiHjtzLHHs3FsucQnLyTU+/gztfzCqEjyl/Nvh83AOy8tVV5/YnJ3BOkvFcvZeTVSIcVysYX8P3wzVqRZ4KA+Y48AY1nbuzZaw81gX7R2r5a24Yo4fBcFWnb/RSFGj2uChXK+fGuwDksATFfHZ2axjZOvSdbIwJP+pIDQdszcGfBBwyvMWnasQBuclq09Sq8/Oah0gHauBrbj+ctYuYZkl1N7pPd36o8FD+YdlLowas3DpOIGd3a+YlJU3NLD3arZJGJKb5ByWgTUHzxCVpfmvwEO56aCj4IekETUGQ3aWv0IiHlJjB2/8LgjOf0AlhZrt3UrjOx/LB8yjwA8sjGNn+ysiC7s2fR395LSEITkJFDja3AcYvkRQo8Ap5em/++L4iUyY2SgqsjP/HyWPpSX1zPiNRzn6Fx4WiAtvuJzIAFVVe0xuYdB8p1oBTim3HWUAFwIgR5/C/XVq0pcuLa6nrteqs6ld/ZGOvq1+pBlnfmD93+09i3fbeqWq2PumHXYISFF18EtRFfilqly/krjnznXJ5mfnotdlm3utyjI9tSTf8f6PWaYuE17rXBwZf7ZtHz+/F12Ul/dpqz4pvJa8EsgdODCknYWg9fcO3o1WO/oV6PPFReGC4KxMKmmcCXCOOMRh3mYx2ow0qFXglGcq4QSBJRe/SqBcCdrakuvZbJKDr2Q7L1Demi8uPCUIyn8sDMksKp9plsnkzfI+nYGrN+8jMjISjy9dRZ6nGBIXvzfsGoCkU+cRfTuCuY7JWpOF5AdlSoSBhanOoXmPuaKMewJxyQ1haN4ZJ1H6Ca5/vpgvrucpDC3g8wLTuE6iNEcHv3R7R79MO8eANAfybyfn0PpCbkCRH1eUHi4ILLomCM59zA/Myi8/PprwpIv3m+p5jF3him+G6X0y0JTnJTtC4ByaWaxlOqrDfx4wCXsS2mebn12R53TK9sHVu1G3I2KKfU5nMRNuH5AMTft72Kx9FT/vDsPU33yIbSBEv5m2TMaZiuOmStpoSDyU+v3UMWWFEx4+S0VhYSFeB4Xj7rAfcUdhPGIUJyJ20BQ8XqqMnIhopKWlITU1FU/ik7DmwAks3h6MZXvDsUblHDYdvYxtutexxzgCqtbR0LCPgxb3IQyET2Hm/hw092Tp/QpWPokM098tvF6AutnavEfQsLuHfccisYWMecVfpzDrjwCM+EmILhPMUF9B/bMA5m3uPtlSOr/ejdb/J0GTfORCvxyb0EN53JCrEqFfMZUM+Y5uSLhyHa9evcJu7VNoPcIAcn2qGWUlvHK7B9Iy8lCSX4BXRja4/b/BuNV2gJTbKOL+/LXIj3uI8pSXX4hZ6/lfxKJ+SpbrowozjxfgieH/nwFNiMePrSNupW1/fCn2Rr5bACTOvsjQNseLVdsQO2wGbrcbgFT3AGZhtSzOgNPzULUmowGZjD8O+iM7V4LinFzE7z2CW+0HVQDP0837UZyZDVm0Ty+0zgGI8rpD5yAMzclRV1dr+kUDx8yx3WBiG3A9Tqbn3Yy4i0dRd/Byuyru9B7zZpH/WegXGkbMonqHRIPTXeW9k9C4nxoOG4UzkqTwdSoerd5W4Zm3Ow3BKwMrFOflyQRPcXEJjJ0ugtOr7gGIFp5RNWbj1nzBlwkc5xY/8MQlwdRAdQpMwTbtS3j2MhUlxD55tHZ7RfD8A6DH63agRFKIvyOe45uBVUdev1E6Aivnq5AUFiHv3kPETvmJeYb0WQMQ0W0EUlx8mM+TRYWFxTByuIiW5Dl1UQJRe8xB9JqosWKHLwo4loIB/bmiwgAKHFu/RCz8MwjNB2sxg468l8As3vNDejIBdG/aLyhKz8TTF+noNaHyOpcWAzThFxYDlJQg++otRA+dXgE80UOmI/PcFVRGSSnZ2HgoAA2IBKuL4CnlbbrXIAzKS1BXL5b/7MDR0xvTgutf38jlRI7EQZTMAKfxgIpvtw9ddEKv+R5vFrwcR/YaDcmrJOTmSzBqvpXML91ljD5OXLjPgCfjxDlElleF5Jmxk5cg//7jSsFz90ESxv1sD7k6DJxSpqEEqsYshc3HfFbw2Ll1mCUIzntGpY6yBlELlRQ66TtcYBYx6/IN3GqtKFMK5UbdZa75ZasrsU0qGtIKU01x/toTopaKkOIRgMg+Yyvc+3D5ZhRlZMkETlFRMS7eeAqF6aZ10uaRxc2UtEBLRLgBDXQ/U/JvblOuf0NrChwD4WMmPlPVgJUP+RPBUYKCp88R0Xm4TACleQfK9MQGzzJHdFwiI3mSbIXETR/yxljuMAhP/zyE4uycSu0dZ//baDdCmwXOW6xiGQ1BYH7Mp08A8vv1FQRJIil4Vu0/hQb9318hN20tD7l5xGNKeo2YEbNkAuiVjvk7ntjweZZ4FJ9G3KYSxquK6Dys7J6ILsORYGiNkoICmeDJIe79Hp0QyLNgkckzlf2pGisxslPq+8nAY+Px3UznkJx0aiQPXsit9mAVZhxDSnoukRS5uL9gnWxPbP0uRkVduRXPeGLfL7LGo2dS7+3lERPcLhfjoVIszT+E6ieZ4HkUn4plf7qz4KmCaVE+tYMcfOT2fBLw2Hu0Uj4ell2oy32AdqMMpQOppk3RYvARPE/MZNTQk037ZQIobsZyJuhHPbHFys548jyNuPYSvNA0xq32A8uujeozBhnBp2QCh6rJq7fj8f1iG9ZYrgbr8h+BHyg5W+vgCQhr8JfoXDJE5xKx82gIcYX98etebyzd7IopKxwxaKYZ2g7XRmMFNchR+0UGsG5Ev2QWOcHYlnG53wZQlMIExhMrJEZvbp6EkTzxuzXKuemKuDNwEnLvxFbqaXmHRqMDGQenh4rUjmLG8hazwCljmmd0Ds0sMjSc2LbWwHP7et7+iMg7ePLkKRPBffuNly44UTNJmbhM1I+9+3X8ts+HARUN1sn/I6lcAiKYe9L8QmS68tQ7y4uJkz5XQp531ISJ88ROWIQnynvx4rA+cm5GVgqeIjK2c8RTO3PlEcLO38dxYjzzfW5CQNiMdwlHzE9jr3YwNqr4YQVRbwuJlBuzxAbD5lnVWQD1mmYlVWNejdbWCngirks20fKIp0+fMmCpLtFrqRSJik1gosZz1wth7HiR+b/cmHuVuvJp/qH/AEjCpCg+BaWk5aL7RKM6CSD5PqpMlQE/oNC7xsETdaPh3MiI6KJHjx59EHgqkw75BdLUQsHzl4jqN14mgBIMbfCpqa5m5kuZNmZwDs3NUldXa1xj4Im83lwhKjIuIy4ujqit4hpdsKLUdMRO/kkmgKiqKnnLsyopkECSmIyCZ8+ZYCOt60kPOom0wHAk89yQ7OSKRCse8zPJwQVJNny8FnrhtYsPc01G+DnmJ72XMn2O5MUrYm8loigzi+H9hifqLICGLORJa4Tcv51dI+CJv7SjSeTth1HR0dEoqCTGQg3cko8EVjF5Jo0cvwMgwvemLkWa+AQBgYB4a3/h3swViPlhDpFY4xDRbSRutVKQcuv+Uqa2FFWHbd7i0r+VXkeZ3tduIG53HsakTiJ7/YA7SlMQM2IGbEetrnYN0tfGDftrMElvJ/8i25qRPrcSTKjdk/YqgdgrcUgTnUCCiR3i92gyZRP3F/6KuDmr8ID8fPzrDsTv1cQrXXPmjc++coPxpCqLDJdS/AFtmQAqW3RZRnYt8omOI9Goj0qdlUI7DG6AH1zwApxiuX8Fnpdh9Ue8OHulKP6IMe6SN5+J/FZnQUvffEaK/Iyc6xGypU9OLnJuROLhL398UoC8jy+1H4J+vXfUWQBNWO3OqDEzfotR/wpA+bzzYbk2zojsMvyDFyGy+ygmtVCUkfkOcPIfPcUr8n93xy/8ooBTnuf2XP/lLjKNq/U6BDnysx7xnOi/azJQ2mKIDoRhGeD5yx35aPCkqKOzxNmv5PmKLe9KF5q4bD+IqfSjtggFC2WaUqA5qQc/bUDeW3XH1EbKuRXFJDsZ++UTq6UP4Yi2itjfbdEXYwfRWu/Ww7TRb6oRpi23xLoddtivZQdNIzsYW1tBz9yO/N2kRqsLVG3uQiAujPxoAOUcO7eAFrnHDp/BGJt3FCfg/rw1TLlpqqeIsW/y4x6hgEgTyYsEJjFaEP+CKVh/u/ovNzIGj9ZsYwD3pYKmQgksYeF3EyH/uQDU8xBaDTmCIXNN8PseR9jyrBB+WgMxMauRkjIJOTkDUVT4P+IRtybcEoWFbWAjUCFAU62xMczZJGKSqwb2g3p8FICyzd1XSVz98UrNEOnBp1CUksbkrspHnPMLipgsd0ZWPiSF73ph1D1+tkejQtb8v8JnOgzHt30OfFK11KifGgbPMsZOVTuIQ/Xw4MEvyMpSIDP5LWFOlfz3zSVoP7zmylT+N9ZEGpX2rb/9owD0OCR+5r3rN8kXyGKKsFLT83Dy0kPoWJ/Fhv2+mPubACPnW0FhijG2q4uRnVNQIVZDYy9RihP/c8Ap5b/bKeH7Xps/CXCaKmpg5lorImksER2zlkiU/mQWG74XNOU5M3MgRs03qFE1ZuD8BPzAkpMfBaA7V+sPvnn7Llz8b2H5n+7oNdEIjfurEcPtTXK0QV9V7NEOKosqM5FlosYeLttYuwvcppyLT+M55PeIriOktljv0YjqPwF3Bk1hOGrApLLfy2w1ci2zX6xV/4pxpLIYklSNreixunZjLgrqmLDUHE7OZnj6dAF5UduUASIioimM9VsjJbletQBUWPgNDugcqfY2qOow3WTpHJYt0dGZ3eqDAWRt0L691+l0zNrgL/vLE3Grb3uuLKFKjWQa9KsNqUMXO3rwNNyb9jNTJ/RSyxTJXDcmAp17O5pJuhY8fsaAV/KS2GNE3VIuSsuQ8j+/0/9n7DRyLa2Xppn8nBsRyDx9Eelk7MmOrki0cGKeH79TDcdWHa21MpB2I3Ww/4g94u4vI7PXsgwIOTkc8HiNIRDo4OCWdTjvMxIFkupJoYDQP9B8gGaNjbHvDBtpP0XPRis/vB0AiuX4wZmS5XtPvrsPi7w5FoLLFVTWSx2zCuWlNSdtFPFC3YipcS6ppGCstujO/aRaAVCLQZqwdDIk5oES+RS5CiCQELBERdWDi8sMnAn3xoHfp+Ly5VbkRX0/gJ6/HIM+Ew1rNLlq7ZMAvkje7aPUmCAo/8lmrSsVHtpEUZ3JqJfVGaemMx7WR7vlVF10UELM6LmyvTTy3GdEGqCGc3DVodepOehFbLyaBhA1lt38dlcJhmfPvkXUhV04tHshtLUPwdy8M5KTqariIClJ9j35eZ2xZrt2jdpBdHOEMDgrQ11dreEHA4gfJLl80OLOm+3DfYlY515842W9SsS9GSs+Cjg3ic1xZ/BUPD+ow8SHJAlJuDtuoUwA0fBBVemQ4rx8on6O4+mWg3isvBcPl29C3NzVzL4z+lyqZp39I7ByuztW7fDEuj1eUCaOwH69UKibnoSp0yVwPW/AM+gOTl95hAs3niKaSJ/bMa8wbQ23Vtz0XRqaRNq0qhRAeXkN4OXQFzpq82BjswQikSkcHdtg7lx5TJzIQWrqu/eUlDQA120f6vepOXd+2BIBo8Zs3Vr9+OEAEhX6GAifSMUZ7SdjdeZNNPnhE8R8P+fDwdNuIFMHTQvJykepaVpDZkqDACh6xEwUJqdUnZQl9yfbuzBGdPl77xLJluobxHiSJy8+RO/Jxm/UUq83Ud2yisUeh5h99k36qzOqpnF/9VrxvEYv0kd2dr8qpVBQYAtoaqyAkZEC9u6dizVrlmPYMCVs3/4zUXNyBDDv3hMRPRfffa9Tc9JSUZPpbs/1L7b4YABx/fIt7QNeM19Y+YBvmcFMwRM97McPNISHMJIh88wlpkBMFj2jJauy7u04GAVP4qWfTTy+quqR8uIeMWUgEeXTLwRIj9b8ifwHj5H4Ohtb1EQMOD5ndLnTKB3E3JtRJYAy0jhYM78ZnDRX4fLFQOjrb4eXV1+oqY3DggXf4uXLd+/JzemFyb8Y1aga2210C4KggqecD02ucgMKD1LxNX+DS5mrzkiekbM+CDxxRAVlnb8q0wim9Tel9k2iJffd+uh/AEB3n1JyJKpml2YgUzJbaQUkeV725RvSOqN2bwrwaQ11iqsfiok0osX2Q+ZYfLZie2oHeYq2vd8wfiYHd8eu4PPGQkNDgZE61A568oQjUwIVEXf+qKl6jQJo8lpPRo2Z2HYd9mE7L3zwq9fpDLxMlC4WTVfcHTu/2sC5Q1zvFGcvpldPhQUmQMq6cJXZkZHqEUD+IP07jXhXVt6aZM1nrhGdjIV8dxV0JG6wluUZpGfmV16slpWNRDNHRHYfWaHW+uGyTci7+wCv03Jw2Dgc3ww+8lnSFQd01cmCt3wviLy9GxMbqAFx7znEc6vq2m9w9+4MGFrZ4RsljRob6zfDdJnejVx/ObUP88K8ms64cuMBE42mRmzcnNXVU1dE5Tz5Yx9jwFYsPCti9m/d+3EZ43k93aqCotx8JCZLe/ZQFXOr7cAqPbHrUS/QdqhWmS3RbZwB7N2uMWmVyqjgRQIDGvqZZduBFMYj0dyJUctUGg2da/lppREZ+9TlBsRY7vFeAJ07x8G1axzs3i39/d1rWuHBg/HwCrKE7clnsDuTCMWpNds2T8MuFgJxwY0PAtCNc02VaDFZSkIiHm/YUy3w0IVJCwhjdo++TXQ3aZlam7EchemZxPOJwjZ1MWPX0CAgDRjKAtDDpcrSxlGvMtBvsvE7b/PYJXYQn7pXqX1Ed6ym+gYz4ysvjWhBXG5EDNPV7JBR+Cdt89JjnD4ePplYJXjOn+dAQYFDDGkO5szhwNWV2Dm5HCZ+JJF0wZ07c+EWYA/rsEcwu1QME+Ik21zOw+KNTjWqxuZvEdOuriW6xxSrf9bY/aBx7SiAHumaVauIjEoout9dFtHs/e3vhkpVW/8JyL//CBGxCUx/n9m/C5GTJ2FaulBgyXp2zKjZzM4MKmnGLZG9975+X1UycS6Ie/walZnZNPTwZOO+itKozximjrqE2EaXbjzDqIXWn0QaNR+ggeBTylUnSf/mwMSEg6dPaYCxPhITO+Dhg+8RGr6bqBQxzANOEuAUMsAp5WMESAfNwpgykJoaK+1FSe0grl/DzR8UjX5+5u+Cl7/tfq/kebZbHcVZstvHUXc9duLif976/kj1EiOZ2B/MHizylgyYbc5sdaZlII9/3SlbLRLwFTx7wTyPbmKsKufTnthHe7SCmf4/ldVwZ4SfR8z3syvGmxYQaRR5l6ku0DA7Xft9g3oehq6FKlGjzSoFUHFxK7x+3Q+xsdMQHL4fzgEe0HLwwFGitg1OJMNQHAbDs5nQD88g4CmRgugSYOwVhTZDa87TpC+U0fFn4IkKQz9IjRUIQh4n71Svwt5RIraEY5VphhdqBmWLRGumJZIirNjhUTa4b4dpSbc6l15biSeWdVbaLMrA7rx0t+l7bIyBM8zgKoqokOytAGwi8Z7tUK0QAY/s+QOS7F0Yw/9a5HOMJtJOrhbtoHm/GkJS0JuMhiZSOyE9vS/uxU7ExYtLIQ49BIEPH+ael2AbdArWlyUEKOmwcRXDI/QizMNf4aCdBwT+4Qi++gAmF4rLpJD9uST0m6Jfo+Nduf8UPXe1QF1drWW1AZTnFHIpTc1YNng6D0OKu3+FXoMFbxmzWeeuMCCj11O3mua06M7Qt4u1bt99Jd3Y5+IjW11ST8zW+Y0n1qN6Re9UiswnKpK2/a3M5c+6fB13x8x7p5trXuwD4uXlMdKosWLttObtM1EHbr4WcA30hKkwGBb+t2ATHg+7K/mwuFQEYwYQJdD28oFOaAIMzuRBxy8WGu4hUD9+C6f+vovgy9dgFJZUQY1ZX8zG7PUONbp9u/8sO2k/RQ/8Uv26aIcT3llG9u+WfXYZgfSQ02ULkUpUkM3xvyt4Q/QNjxkxswxs2Vdv4uL1pzLdZlexdJsyvaYyV57uBKFFbRU8seo2USL2hp71WaSkVdI7KDWdSX1E/GOnMd+x20gkOxxnUiXmgiu10pCqxUANGLvfZIBiXA4A5Vk3KAFH7N2JpAkDT3wVKoK/YeHsgnNXb8OMSCHT4CDohCS/UWHUDrpcgq2aPjXakaReXzXY+CUSNSbvXG0A5dqHWOTbu1YET9cRTPlDKdHOGdNWOJIvVLGl3At1w7L6aRrHoZ6O0mwLmYPTsZEGCmnEOaLbqA/3xKqpx0cuIJ5gzCvIctaYACQx9mNoGW9p7XeHQUyKJeLkzdqpkSa23E5dMczOZsDQ/x5jv1AAGJ3JJSpJCgjz06nwPBcLXshJmJ7JhNP5RNiIr0DP9zq0Q15Dz0+MI/6x0Ap6DeN/1JgpeY4O/yLjWNTkeGkDdmFwTqqy8rUG1VNhtiEHaW10RKehZZKkvOSJJJ5U3ykmWLbVraLX9fetMq+L5r5K8vOx6XCA7LeY/G3tPh9myzPTdEpWjo16YqPnVfTEPlIi0DzXDs1AJL7OqlQaMT2IOr7x1C52G4Nu/fbVTjxohRVs/K/Bddt4GJ/PY0BkpXMIZp6XywCl5vsUh+2toXP8MgFaLIxOJ0HVOQCa4iTss/SAtasXhKLz5P43dpCl+D5aD6vZsMTIpc7S5Kr7N5OrCaDTaymAoonrTSXJa2fvsom+cjsenX7QRRNFDcZ1Lp/YjJu5okxa0QChV0i0dAtKFV3LsnIKUJSVw+zqkAUg+qzqemLVWThaZSkKv1tp7IimTxjbiHz29XaDMK2Xci3Fg3Rx7PA2nFvTENYmmkSVlcBSdSsCtgyGgSCcAZFjALElY+7h7O1H0BM9xqHjEdDlucLI0Rs+YVdw/u8zOBb0CAan8xjwGJ+XwDrsMRSm6NboWJsMPAJ+MJNcNa1ecb3l9R8pgOJGzUGCkW3Z5J6+/Ahth0ntkEOGJypMPC2tKC07TbLk4nF8KjqP0X9v17Lk1BzGxqER6spiTVTFVNsTq05OSkEdK4lHmJAsWxrRCDwtOYnsNBgbuy+rFY+sSX81rF04Fz5LOPjZpBWO+kWCv306zq/mQLhrBnHTc6EdlAjDE49hID7NqCrvU7cQcOE6rM48x5GgFBj5e+Go6D40RQnQ8r0Pb8Pj8A+5hTFLLWvcdttrGkGTqw+rBaBU3YeDKIBSLXllrjqVPKXg+W60Pp4nvElsSl4mMoE5Jto8dw0kOXlYsd3j/ccwDtRkbBum6ZSpfaWuPC07LZAUwTcsBvI1WP/bk0gjumFA6HebaUNMNxBExSXi/pMUZGTl4fWpS7CbqFw7Lj35HpNmboHa1EbYrsOB0fr2CF3REOErOHBd2wL6wfHQDk0j4HiGgxYGOGApgkHQc+iHxBGP7AyMiLQ54hmOwy4n8RfvJv7U5iLqp40Q7TuGhZu4NQ6gqb95M2rMnNt+0Pu3Ny/PbJvnHYSUl1I3O4K421RtlZ05Va5GiFKp9KDlFLTmWOh7u9r7qy7deiZtOiUKK/PEqOoQdxgFg04z8GvXZZgxUR2KM83QUKF2gnxy/9Q+UXVLDVAaBqDF762GaqPLKO1aiwd1G6OBHdM6wetPDi5t4MB9MQfBKznQOciBmpMtjhKpY+F5HoEnz8D1ZAyOnc3CYdfbMBLyYe93GRoOYpja2uKY1zVsVHHCzR8WIizsFn4/4FrjAGo9Qp85GsvJT07l/dFoTrHc/asR+S9evCCSJgN9iMFc1ux7rAETta1gONOgHO2yqmeBF0QydRtf/Rpd+vbT/WUPLkVBo9NszO72K77rtRv1ex/66nscUtti+czJcP+Jg5u/E/As42DXDg4M1DiYaz8RWsGvGdbx8sNRX+L2n82B94nr8DsRAk2HMKg4R2Dzkb1YrcbDVhMRLI95QNU6HHuNwyBfC+GHIw73wReXXK1eZ7LbDx5H3rnHRGXLP8Ta5e8KyUpaRkqlBvWiJGkZ+OVP9w8a1MQVjhj/iz3z1te1ppi0gH3inJ3QmEQk0BoOzq3iYPevHPB2c7BmT1Ps5vkRWycZe7nnoMGzJ3wOB50uQsWRCzW3C1ij6Ynt+tpYr3kMq3YZ4pfJQ7F+wTQcPBaMejXsylNe9GcwXMIyi/XMx3SqRouXJxeNuDcreg4TjJijlcoCiR4B0n47HZQY7yXoTFyVXhfLMg6AG6OJXyd0hs1sYvss4sB5KQc7DnGgspmDeX+OgIbbNYhOXMDFy+dx6148dNxvYadNCKxOBuE3bV8s3rwXq2YNwY+9GmB4Rw7mDPkOKia+tbIOXSaaM3aQk28j5fcCKPB0oZeRy9MKD7ApJ32o215apUg3FWbnFmAgsVNYUHxolaIqfpqzGCYr5WBLwHOW2EA79hA1tpODGcvqYbnqBgKaCGzatxjbLE9CxSMOO+2vwOakD1S9n2DqlOkYRoHTi4OZPTno0bYx9hw2J55mzduLNKhq6hYPvqgw8L0A4vkXmdMjgUrVSt+pJkxUuZQSiYdWmjGnG/b26YawgPgoY/oQhk/9Czt+bg3zrRx4ElXmT9TYOuLeK5N/j1/ZHNsdQrDh8F5s0NTCbqIVtlqegdWpEGzVtMbYLvUxrjMHim05GPE/IrUUmuGQvrBGd2mU59UHz9B+innq6hObVwkgJ9/CA1RclZ66Yym8UiHfVeq2v9Q6xkSm2wxjz6L4WKZJ2zXLxyN4IwcbiQF9gQDowFgOFozmoD8xrJeoLMeawzY4aPYXVqm7YIvFaZifjcVPi0ZAqR0H8/twsLAvhwHSwH4D8ethj1rzWAfMdZAmVz2bLa4SQA4+8mvphbRjQ2fieZVvpEBBwxSJKU1BfnIqFig7s0D4lzVC42f8iWOzm0GTAIivTFx6os62q3Cw6nsOek1themrthMA7cC0dYcx+9dDWLjsd/w+ohHmDeCgdRcOOrWuhy7dFdB9sx5G76m9Ut16/dRhH5AErqiY955jDVpOpwBSnG3PRIDLN1KI6D6Kcdtf89zhH3738/XU+Yq45WBNbJg9Ek7EE9PcRWyhFRws2sfBLFsO+qjLo2OHzlD6rjFGdG2GUb2JyurPQZMhHMj1rIeWg0ag23pNdDO1RxcHawzfplOrx1pt1blKD6tLXrq0pF6lADrm0HMgBdAcZR9mJ0MpPd+vxUgf2qouNzMHg2abswCoocDihJk7sX9ac3ht4ODEcg4ciRSavn4Mftj1B/qqcfHtiEmQ6yuPBoPaouWQYWg1+Ed0X6WFjvZ6aHZqF5pe2I3uNrZQWqFVq2P9YdlxRo1ZCTuPrxRAW7ZMaUMvEp998WZn6uNn0toZumcr9AxTC8Qufs1x04EaWDtvEkabyjFq7O+1xJ1fNxe9zSzQOkgTvYlx3GXxHgzY5Y0BqiL0MhSgj6ErepkL0c3OAb3MXDB6fwB6T9Or3XEOOgpBSBp4AXIGVaoxYVAWwUzym9a8ezSlpRrz1zFS6bsx+uzC17AUGjLlABYt7YCF+zm4RNTZZeKVaa0djUG7XdBvJw8DNAhw9AVQXM6Fgq43AxzFIwHor+WPNqKjmKQmQOuhR2t9rAfMo8AX58dVCSDR6eRH9IwM6T6rV9IGTQRAmWcvs257bRmpfVUxZ/4mrN3UAirEoD5G1JjtvGaY/YchFLYTiXNUiK47tTFgrx96WvLRydkcTS/uRk8LAZRUwjB9s4Dp41Tb45z+uy+On8iEif2A/pUC6Nq1JxcePHhQwfahlXoPH79G62Fa7ILX1tYfosqWLVoJ65ly8Fwsh73Tu2LZ6t0YqBaCLpZW6OBhRNSWAL2OuTBqq7s1Fz2JGuur64rxyz6NTdp2lAHdMwYHv+K/qkpneMbGxjKNMyN6jMLtTkORcv4a5m4Qsgtdy9zxe22smDsDc+b9gv76xlA86IOBy53R1doazc/sJwbzTgw6IIaCji+6cG2IBBJi6rYAdB2n+8nGqM19AH4gLlQOoJvxZlGRUWVxn7tLlJlkKXsS4KexhzqP1sW8HV5QOhQCxcM+GLrlBHqbHkcHF3200duF7xyPMdKoB5VAFjzM3Oj4SXORP+0MoYfVFWuZjupQCYAe7r974ybTL/pmx8FYMFWTBc8nBlH38bqYvdUNSrtF6HaAqC4LZ/T7wx49DBzQkauLXhvN0NXWDuO3izBohuEnHV/3yZb/nLna5DfZJR03n69JDDuDaMVJWNN1OQuez8B0ztuP0MKcP/gYvTMYgw6FoZ2PHiN1OngaosmVnejqaI4Fm+1rf1ftO8lVVZh7vKA7V/1lAijmWvq0fDcRdCbvYMHzBRjWE36xxIyt3hi17Sz6a/uihxUf7b30MUeDi/YjP49Ts+7QOQhDsnN27vypybtnZxg/HRDveR7jlx9nF/GLsYt0MHW1NRbv9sbYzeGYsdMXw+aZfrYxDVvMlyZXXTpOeAdAl5YqtvYMS8PsjSJ28b4wtdZmuBYm/myO0YtMazXv9f4OHmZSALlnLK+ka2t23sq/TrELx7LsxuQzpXvnbV3l51TSNzrv4VYdNufFcmWufCicwzKL9fVndawEQJLzh61i2MliWWYfRTv/JPDF8pWXuPLFRR60yRA7YSy/nZHXtL9HD2bJteB1GFB5bXQAjjmKU1g3nuUK4NGwY8AjsfXqubDq0la/3L+okdRk4FF28lhGMyUtqeQ5kS2xc++95L27Mxy8sZoCqNM4U3YCWZuHSaA6h2YWWLkPXFitHao2nk2nMrXRcxzYSazD3O57Q9B9gi5hudl2bphV7W5lZk5dFCmAxq5wZSeyjnK3Seaw9H4FYWhOmpVrn/Ef1LF106aNrZji+k1sNLou8tBFPDiJX0MYUhRv7dZz4McdQheYk7ty/2l2QutYumTWH/4QhqXTxlI3zex7df7o8+T5QfkPtuleYye2jnBDRQ1sPHJZ2qU+oMjX0lKtOeffkCCw8JyqNRuNrhOltGNMGE+LtnFx8Gmhoc5Rk+f8W+KJi9yN2Wj0V89jV7jBkdg7zqHZKXZubeZyaoq4/jB1DEytnZ7JLH/+YrXB2qAJc6qy+OLCS4YOCt04NUlOvgX7mGj0IHYrz9fGI38Swoq46DSy7OTTSHXSJLX6nJome1/5VWw0+usLDO4yvCmVOkGSCAthm2Gc2iJ7j5ZT6AfR3jDs5P/HexENOILF20OYU5mdQ3NynHzrHaj2EQYfSyb2vftTAI1b6cYuwn+U6yuoY9pv3rDwekmlTgnPn+NpUdO2TmW0Y53atxRAczeL2cX4r8V0+msS4PjgmPvzf4zkoovWzu3Gcj418YNyclax0ej/DLcaoY8lO0Jg45vwD3BKrti4d5jN+VwkCMq/z0ajv/DOHv3UmdzVTmIcC0LTmWAgXyQfZMVvOo3zuYkfWHhW1eYuu1BfGDdQ0IDSfCesV7sAW79ERtoIQ3KSuP5yRse4PfpwvhTii4rdTFyffYHGoQYTXhi6iI9p633wy54T2KBxETsMbuCgRRRz9rmmw30cdXzA/KT/Pmgehe36N5jrlu0NxwxlP4z4SYjuUyzRbLD2Fx0wle+riq4TzTFjgx92Gd2EY2AKAxrn0NwsfqCcm4NX64Xq6moNOV8a8QIKTZw+czSavm39Ztpi3mYR/tS7BgPnJxASUU0nsJQFwRlFwuDCVzxxdoxzsPwlXlB6ODcgI9TRPzOY/uSJ08MFwSWXeKKsGGFw0Ut6ffn7KduLkqHDfcDESdaqnMW8LWKMXn6c+ez2Pxgx4/g0SU1NdJtsgbHE+12x7yR5Ie7AgYyNjpH25hEEFTzhBRTZ2ns2X2Bs7N6E8yWTg7c0Gt30E0ajKVi7TjLHgq1BULG8A15wWukilwgCGz7lB07yc/Qz13LwVlxtc3zt6KPG475T53z/Qck/cHbIHdRy/J8Z32SUg+eypVz/83t5oj+teOKRwYLA1tGCoLwsuljlAUZPrbH1S4K+8AkOW0UTMF9nVMiyvScYT5VKQhryGE6k2uCFXCjNc4DiHDsozCQ8yw4D5tpDaYEThi0RYPwqN0wn1y/eHozVB84wL4a6bSxxt18xn1P6mcLQLAk/qOAmL6DY1s67/jp923a9OP8lcvQpWkm/CD2MvrZB02OqFVbtP1XmepIFLOGL29/miY4a2nodXKil1bLDp/zu6jv2fmtq30vJzs1vFtf/298c/T0Oc/03WfPFMzwFgQrn+IEtY4XBnERZ0uwDuIQfmJPND8yO4wfmn+KJJVwnfxyy95b/xYrfTkl96Z2GnP8y2bo3mky/6MBaika3HKpLVJMYBuStZkATlpsvEBeKnbzr/66nF9LpvzJPK2fdbblPXaezHT+vr7H5jhGGjnPH2QXMnCg8MWeSs2jcVEHQyCnHw7ImmgmTxhtbS0ZxXcb32any+rtts0oacb5mMrf9n0JtRKO7T7HApqNXmLaxzFsollx08m6krK7+Q2sOS18PKStv+KYmo9H9iC1AW8WWehBcf3kLMydFRXamv2ISBOVmryKG3r8BTk9i37wBTl4C16/5fh2dLq3Y2a0DxA/MjaNewscAh565uVnrKuNZCEMlSU5+Dffs2dO+GTurdQpAhac0HeI+OPA18w9/plSSGsZOvnJ6urZTv2Fnsw4STwQ9QUg68Zh0qgUeelQUjWlIk3kIsXRQ7M3OYh0mC17/AS5hWcU0Ovu+PUWT13qCG5gC55DcVAf35mvZ2WOJISd/eXMamaU7VWWlNRr018AG9YultSen/tWGNJa+PqKJOp5I3ocC5LB1DBMX6jrJAr2mWWOmsh/o9h8az+H6NNKt8kAyluo0iOTtPBtuFgTlxb+dI+KJC27YuXecwc4SS9UAUrG8Gb/JUFu3gqX2bvILdCxbsEYySyyxxBJLLLHEEkssscQSSyyxxBJLLLHEEkssscQSS18i/R8ufkB9F5SZugAAAABJRU5ErkJggg=='
p40
sb.