ccopy_reg
_reconstructor
p0
(cemoji
Emoji
p1
c__builtin__
object
p2
Ntp3
Rp4
(dp5
S'emojipedia_url'
p6
Vhttp://emojipedia.org/flag-for-St.-Kitts-&-Nevis/
p7
sS'index'
p8
V1108
p9
sS'code'
p10
VU+1F1F0 U+1F1F3
p11
sS'apple'
p12
S''
p13
sS'twit'
p14
g13
sS'gmail'
p15
g13
sS'related_to'
p16
(lp17
sS'name'
p18
Vflag for St. Kitts & Nevis
p19
sS'known_as'
p20
(lp21
sS'default'
p22
Vemoji
p23
sS'bw'
p24
S'data:image/png;base64,iVBORw0KGgoAAAANSUhEUgAAAGwAAABsCAYAAACPZlfNAAADVUlEQVR42u3dsYoTQRjA8U1EMKKFoELEJMVhIKYIXH2Fndj7CpfGZ/AhUl0nWIpt0lmkCqjgYmFl6wMk2nlH4l0KXTA7N7M7MzvfzP+DaY4r9vLjf5vsTpJsx4iajIcAMAYwBjDAGMAYwABjAGMAA4wBjAEMMAYwBjDAmGDAlsvljiVn7cGyNy9YFdbZh6e7i68PS1eWZVYXYDWWCsoFFmBCqgJMWFWAVVh33j5vFAowQVUBJqwqwIRVBZiwqgATVhVghlW121kQWIAJqQqwy/X902NRUEmDqaB+fnwQLNbV8SUF9uz9iXZV+/tOgUD9zv8dYzJgplX9vVmoeCB1fsdGVcUVPZhJVcW1Wq2UIK6xilUlA1b3XFWc2Wz2389cgamOO0qwqlWpwEr3V1iEOnt9V3ncX+4N4wOz+brKJ5bqmH+9e7THigrMVlXF1Wq1nIPpVFVcUYC5uFqxXq+vLWw8HnupKiowF1crjPcJOq4qCjAXVW02m+qbOy1UdR2WWLAQqjJFq1OVWLCmrqzrwnQ6nf0TFdtViQRr8sp61X9/t2+1rEGJAQvhftVwOPR+rhIJpvqDj3o3vF4x1wVzUVXwYCHeBb6a7XbbSFVBg4VUle79MddVBQl2Lmxvhc+qggMLtao656r8/hPrWI2DUZUgMKoSAkZVQsAk7a4trpPjm0FAeQW7iLCq88/+sZyDUZUgMKoSBEZVQsBMqhqNRloP5GKxSOYZoFcw06p0t0JPp9Pkq7IKVvVcpbohOJ/PnW+FllSVNbA656o8zw+iNb0VOlSoWmC2ngH63FkruapaYKo/+PRlR+RWaAlQxmAuXlf5AIuhKmMwm1X5fGdITFBaYC7euN3r9Yw2Z3a73eSr0gJrqiqXW6G/HR+JxjoI5qKqfr/vfCt0zFWVgrmoyubO2sFgkGRVB8FC2Qrdbrdrv3E7tqq0wXx9yAjnKgtgPm9tTCYTbbAUq1KCNfXRPTpYqVZVCtbkDUQVWOpVHX6W2PAd3zKwKm/cBizhfYCACdhdCxhVxQdGVULAqEoQGFUJAaMqQWBUJQSMqgSBqaB+vOoDEQoYVQkCoyrHYCxB3+PMd4/z1fYMYAxggDGAMYABxgDGAAYYAxgDGGAMYAxggDGhzB9PpUb1TFFGFAAAAABJRU5ErkJggg=='
p25
sS'version'
p26
VV6.0\u02e3
p27
sS'uni'
p28
g13
sS'desc'
p29
g13
sS'browser'
p30
V\U0001f1f0\U0001f1f3
p31
sS'annotations'
p32
(lp33
Vflag
p34
aVkitts
p35
aVnevis
p36
aVother
p37
aVsaint
p38
asS'wind'
p39
g13
sS'andr'
p40
S'data:image/png;base64,iVBORw0KGgoAAAANSUhEUgAAAEgAAABICAMAAABiM0N1AAAABGdBTUEAALGPC/xhBQAAAAFzUkdCAK7OHOkAAAMAUExURUxpcfJndSG/ajTNemGlgRq4YybEb5SafRa1YDTNeoOEgjDMeOxNXuSQUB67Zd8xROdCVPNmdPJdbe9UZfRicfNdbelHWTDMePJlc+E1SPRjcuI5TDfNfeQ9T/NfcFRUVIOCgUpKSYWFgTHLdyTCbPRlc/BWZ+U+UTPNevNjcinGcTLNelxcXPNfb+1QYfFbay7KdjHNeUdHRyTCbdKvIfRjcvNlc39/foGBf2xsa3h4d/BZaXZ2dkFBQSrHc/NhcS3KdR28ZyPBa/Faa3Bwb3Nzc2RkY4B/fe1RYvNgc8uqIyvIdPNicS/LdzLMeduxDdiwDdeuCsetEy/MeSrHc1RNLoeFe3p5d4F7X31oCpuEHX9yPbybC29pTsekDMKiHONEReuUMfBxTKq4KFDGYOC3DOS7Dd21DNy1Dd+lHVXEXvBwWPSnKelaRJLEOdiFX/Faal+pfwAAAACeSc4RJs4PJf/TFgICAv7SFv///88TJwcGAf7RFvjPFfvRFgqqVAKhSw8ODvzSFgSjTd0uQQCfSgkJCQefR9EWKxGwWv7+/jo6Og8MASYfA9glODQ0NPvNFR4ZAi8nBNQcMNQlJG9vb/DHFOK7EvbLFOrDFNSwEcvIIKurqyQkJPvJFhWjROHMG8/Pz9AYJdk9ItIfJRYWFqCgoCsrK+JjHzYtBMyqEfGiGbvEIt+5Ej4zBamMDlSvOKGGDVhJB+h6HACdSPn5+e3t7ZV8DPnDF/i8F+uHHK+RDyOlQRcTAnNfCk9CB2hXCkKsOwalUMjIyHZ2dhUUD42NjOHh4RsaGe6TG2FhYd1NILubENtFIXhkCvHPGNm0EreYD/a4GIRtC8CfEEmtOmCyNtfKHdYgNNooO319fSEhIVRUVLa2tvPz89TU1EQ4BpWVlIpzDFVGB5G8K0c7BnO4NenOGmBPB8SiEDWpPua/FGi0M93LHIaGhfWxGPOqGb+/v+h+HZJ5DOVuHtYvI+ZxHoe5Ln9pCqrBJqWJDpy+KXq3MSesSj04H9QgKoLSvusAAABydFJOUwAL4CMG9MYB+RwPWtcE7/7uG3m6VoHjUBL8S/gO9WznH/QrZNgvrPItNLQ23WXMk3o/+9AaRiRQQ7p4oYz9ol2L6dWOpp3MW8k7TJ1Cb0h/YzeURqr0O4CY+c7P8db8ifzA6I6i6uK/w6Zlhf35+CGaKQX2ExsAAAaISURBVFjD7ZhnVBNpFIalBEQQQpfeVqQpwmLXdcHe2/be++6PyYSZJCSSMUAg9N4FpPciiCJN6lIEwd7b2te6tm1nv5lMyoQk7BHOnv3h+zt5zr3v3Pd+38yUKS/1f5e284KF0yaBM22xl5PDSseJc5Y68aFQ0VLtCXIcV/nyIQjiezlPzJ6Fi0ShgAMhvmsmgJnuvNQrC4EIFb0z/UUpfts+/lDEh0h1veen+re6tnpuPpb6Li4u+vqWm308Pd3ctPSAtNw8d3y3/esvR7sgqaI+WK+qfS3LuW/oaBrSpuKi0WiG/v6amgGvAgVo+hv+lJZ6M0rGga6kbNFVhtHT3xBAC995aFdwSAgDV0hIMNAuUsHHrwfeviLH4TxK/XSGEswmHVr4ITFBqap/RVNHOXKguNLGz9YpYmz1dabuVENhMNpPoLyqOEi+s+SyT0yovem6bTBUj2G0ZwRhN+MhSmdYXbQrpTfdHTrhwYxxOBg6/Is8B4pKz+4XWsyU5+i/Mk45jGMZQWhFLUIBtaXeT4RtZstxLDV3qseEVZ8IQlNuUDmRTWgdm3lqiYYU5BkwDmf3tRxQTxsx0PwYCe5iWuMgE04wmC997B7h43CuDgVhw7W9fUXA4KTTiNTqsnwYZtuZSUBzaep9vvWci2GlrQiS9OAs/2zPXbKgkuGgYhhI4C0Jrs7OvWrtyeChvKOV4K9ZuQ2ZF1inyYIu8+49xkEJa42lIHVt/QnsSa0h5gfprGexIjrFoPhhYDUOYtPnkSAPNaCDfwwFoWmjzeI/+zawWKyOs12EQ7z9e5g4CDYyJ4d7g0qvw9rLgT3pNyLFnJhzEQDEasj0DYUupqAH8ggO86QpOdyvqwKFHQfTwz1SKX5MSMyD+ogIVkTDhXNJBc1V2P5BcUGw0IIM7qapKux5eh20dVkSU0SU1JlUWH8+KYuPIG3JGFkQkJW9uDd9Wohye7iorC1SZzoaRPijT0dHSIdAb9Gu4uHe7K9sjm6V82RtSYUk9cSAcPyOxT5hSwpiCg3EwfXUDFYWUgxN3hcFKSqrsAjitCRjZYmwVGwyuFoBu5SG9HZL5BgOcKoAak0JbOyXcWBJcPV0Do15XDnAnloOpEQIUlKKxdblyYPI4Np6KGQk7E4OHgoEUqr4AYzSGN7bLCK42q9RQXg9vCPxyjFQXBMPGxmkcGCmYAUeXF2FiQSHBbcqShWnhos1FrMVQGRw51JAx04EcmviVHCiqrhY9pM8WEFC+kYc5CI/2rcyUAkHCR3jTxMXi32YD4+ROLiWNLl5Lg/i1vxN3Fr4fTEKnJIBwDmQOJZDBtfHP0S2VXlYU1RB4aUipLc7lwritJZiyjl4cN0ByE062mHXhtAB4HPS+dzOwvqOXsqh0ZKCYdkPE5nKQOLgykb7WE5gaQmxVFn1EaxMeY+i9iWjWGNdvlIMGVxbyWgfLA9MaSW6uISvsMwCubaOghU3UpwHqxARXFty2YZd5SW3ELkQ5eKr8HyhxKTmwxUYht3vZ6vigFPJXjba1ddjH+E5RZYRHLDoL/ThhyJSUgXayv55D6xaTIE3Mdp7icbQAWKAYjI7zmU2sHq673afFiFQc1s6KGfkt0RYnazMJaMd9pRXQdw2kKyYXj7/UkQmH0Qd4VxsIsoZZKvlRM9xl4x2e07qM7nFsaynG5G4w7tXnA+r5xhYi0c7hLH7OXpEPmH8wj48E7+nYrg76suBT4k5U3wMgxnVQynUa5QI7NTaUh7+0Mcphy1Yu1F8joDR3l0eO8pRWIXNz26j/6IcoZWpO3log9G+w72puILiq0Bb+8d5WDB8ku5tLL0h6fyVkVarsJsrj/IwXll/nloKUygwmC27stl6XOPWUI8MTi0YnuwDj9Vj2NH0Je5y7zXaX2RUVFI5bSko7jJTDYUpjLYzNdOg3I4/T7tMcTrycBrKKxtks9nEP5RQYHaCgG663Fjh2r/lo3gFTmryDz/a2M2aZWdjJIhOSBCSSALKFiacMqLPWTFv7HvI1nflCkK6WtK/+ubb7+2Xm1lbm8028XY1NbCg29lYGQmAjKxs6BZzXE2sjZW9861/U3oahmY5vb996zY/2c90NWbMn7nOerm9iYm5ubmJvdm8mcYaKl7T3nIiKwotcli5xm/6C7+nOjuIX3azHFZN7KuA42p8q/KXLVowwY8L2oudCkLPOLw9CV8WFq/2WrRAexK+deg6Ok/GJ5OX+o/0D0lc6ev8DVjYAAAAAElFTkSuQmCC'
p41
sb.