ccopy_reg
_reconstructor
p0
(cemoji
Emoji
p1
c__builtin__
object
p2
Ntp3
Rp4
(dp5
S'emojipedia_url'
p6
Vhttp://emojipedia.org/flag-for-St.-Pierre-&-Miquelon/
p7
sS'index'
p8
V1111
p9
sS'code'
p10
VU+1F1F5 U+1F1F2
p11
sS'apple'
p12
S''
p13
sS'twit'
p14
g13
sS'gmail'
p15
g13
sS'related_to'
p16
(lp17
sS'name'
p18
Vflag for St. Pierre & Miquelon
p19
sS'known_as'
p20
(lp21
sS'default'
p22
Vemoji
p23
sS'bw'
p24
S'data:image/png;base64,iVBORw0KGgoAAAANSUhEUgAAAGwAAABsCAYAAACPZlfNAAANVElEQVR42u2dCXQURRqAa3pmMjM5SCDhkgDhEpblkGNxxVXgcci6rhtAkBWej8UNuLtiAIUsriA+87iWK1EOZcEHcokQXZflENA8AgQIIIcgy+KDcMixLJIsyBFIbVf39EwfVd3Vx0wyUPXe/2amu/rv7v/rv+qvv6oTAFmJqQKYCRgwVhgwVhgwBowVBowVBowBY4UBY4UBY8BYYcBYYcAYMFYYMFYYMAaMlWoDrLCwEDKJHRGAgXk9FXKyeWNdwRWjY9TnAPm7mZgUIjAjaGaB4fQzAA4DQ1JzZndbwEh6GTCbwIyMawWYkT4GwCYwM9CMgNHoYQAcAEZrbBKwb1tmUEOPBQNxHnf1B4YkaXYPXcNjxwc69X/+567aJjMGgMGvAQQAWNcBbB5PCwzJqm6tHAF2qHUGPiCJhtFJxpIMKZM1M4AASJKLW4P7Zmwzd87ugyEYPCH6wPSaSFpgunojDMvlEg2vB/PefiUktRCNPacIZvYIw87P0dEx8HXngZWtWkGU/21YD9ecLFQIrmw5u18hP+4sgreOHCZKxDyKl16PAvjdP/Sf7ob1XMJ+BRyZeNwG3jFre6iuLvRI9GFVkhOzc/H9R8OSFcDQYNwTmUQdca07QdB3OH7/1M3w3RwyMF9Gc2EfajblsP0BPkjpMwzGde7heHMY28B48ScnOv50+x7rI+jk3BxMTQbGfaGBp8cnuMO/B41/MIF5vW5yf4PknfWa5i2Q0dRY95sfhx4A6bgxQwFMigemoCXEu8IRprpf5Vy2vC6mPSwpkYPJyV79CFBtsF++RNwfFycac8SAcDOb+ydVvbxiosE9Xk5xDSjoIV0b0p0Qz0UmSsRFijRRoqHOCIbxwtP9l9WaqFETZAT3uT288aZvUR4fNC7n9YjH935R+L3nIwC7dwa6wwevR6Zf1c8+2dF632YIzO44LJDXI2rAaiYHn9iZhbBpOh/lNWsjGOaLBZhmE2fsSevwY6egsUs3Avizn+ocH5RA3TqaUH/lVAA/m2M/CNEF5mSmI6LAJCPM3SV8R0+3ZKg5ryufbrebbGxfI7GfG54pHjP7tTBk7LiM92B3nNgk+2slYwMg4rFOAzMyPimXaAaak+MuXPChNl6NZA/ZM1Bg4gsfN3ec2H9JA+uu7bVeRzqPettdXsff54Lqmfw1A83uxT/aVjTI/pXGg9e6dbxYWAmJHt3BM5KPclVDBECOULt1Cm8rWhK+LjSucxxYnRndiIYOzO3h2PTK09ldnPEwA0hIVk8DMDEe6Hol+v78U5QpKoD3pGtFAG6cB7CeF5Fcotn+p8pnnMcvM4T1625aY40eEt5fP038zH4BwA8minVR9CfXcaUQMwCXNZtG1zDsWWApB1ovFVgD5sSajogAo/AubKaDP+72XrpjsR6Ss8zUsV4vh72Gxx/hdf5+OvHemjSwAKw6L8IxbWgTx+Gge7o+Y+pBQZLxkPb8cTUS9bM0Up83ar45YNV6mRughKUCltXfAixZ35WY6DZ1bFKSdrZ6/DBrD5oWGDBeAOxUnfLyclhWVhZRYFyvITC9LjDdhKpFkV4yoaNRPUCcnzPdjJOA6RnbaL+ZenanHahveswiW02h2niW+z2bzXiVe9ipU6fg0aNHIwZMfdOcC9gHBqyDthUkxXy2nuLG4/1A0Qy5LALD5RNpxCOlv4ZO0l+R9eQAmJLigUkJgLrViQowktfZycTjUkDoxoXorLHPdt+lBmY1UDHzENqaD1u8eDEVjKysrKgAS0lyaW+Q/8xo5BX7quAT2qY5gKmpcTIPc0UdmK9mCj2wyZ+ZyoZggQ0YMEDoY1JTU3VBcBwnfJ44ccI4wMBAox75P5+jeSJx0Zv0XT21bxvYtC2W+i+/n3PUu2KnSURT/rLfdVMJmXNCFt4qsLQUUU/dNJe9gIMgiQku07lGIjCkxKhZPH/+vK3IkeYC02q6qBeCasQmsBqJdDpmjdUBRnH+li0DzgCjHU9RjbmsNImYJ8/nd1MZwg6wOyX0OrBTLbLrfaqrKuWEyfanp8dFr0lEWYuIeJjeEmtV4CF9oul7TVrKJLDWTcn5PRysygNaAAktWpgKVrxe132wagqtTsItIWvWPGIehp25JuiY/DKA/XuGf3dopfXMhvWc6++qNNOBCjbTwR/btIFOJ/zKu9T9g9mgA62TV2/r2QUf1rdtEYa7ZWFwZZXHHVophebXAn6X7oOA1poIOU83Z31dolEuce3atYZ1aKCh/ZcuXdL2T3EGI35A36HTjKGe6xX+/nDj8PeKfUATbhtNicivK7O3ly4ospBTddzDHGkSAT4n2CTdRQVMvQbj5h6lkePjudAaxVXTlB6wYooqMOg/RtChXkLg9vu12XwT0aHtdYnRbhJ37Nhh/PajS2ctIZoM7NzDVD/mTYzXDFYDtVND22aOpevH3B6XxgMfqu3CwlJHiGYHylEBlpGR4dj0ivr9LfVxVvJ6aMmax40/f/3a2iBEfq72D4u/0aLSSSOA4ZI7J71LAyw/P59o5MzMTKFObm4usc60adOEOleuXKGbN6N93RSI/QrupqlTTKo+TS8zoja+6+kRmoyKWkeDOmLdMxudjwxjanrF4/fB9HocduBpRtB6dk+3AdgmyYveE0Pfsxcqzz+7SPQoTBpM0PGrkbBLGwDfzKK/tpo1XNUfWEVFhSPTKxzn0s0w6EmcN3zchOHA3MvjhBW/W98XdV7fBRyZTY4KsH79+kVvPiwoLTPCRuj0E/MZeGJojuS518Tz/PUrCIZPgb6keN4rAHFJeCSSwqaBNWnSBKalpenmCktLS0MJYlIdYawlG5tdv37duffDAH4MZSrnB+iN3ryhWPfDt803x5e2qaZ8qnuT6LSHSVK8TGlw9DLDslx6YE6Inl50PQN7i3WEoYCTwPbySqMtTv3hE1JT9+UHzkMgZfZJXou+HyuIQB8Wq8D0XlCQRHgZAjXfbzkLDAUbeq8c4bb74wADJh8X0Roera83le8LytlNZMi/6EB3bkcGznJDFqHXTNEJ9ysNjH6rt6G6U/mxyriAcv8badEFhuTcZtEgpH4s0oICEukPsqj3jRpMETG+tc4asD0yOEUTxW3zuwM40q2Eooa3tK+4reDFcD1J7hSbANb1N9ZXBxOe7EF9+I6fo28SayXr13mkpdb79KLRstt39f+CAL+94OTVsD7ZqmW6JnGKaOgJgTCcmZ3Fz4W9yF5z+XMAv/sQwL/11XqnBhiSpu01fwqo5bKDdHlHtL1rJuRq1FLUS6/vFl5TlRssc/2/lMsaMBAKZimHMR6fX/+1WL5M3n1Ou2RCVm/RpOCwJm+3IKR7ateunbA/ZWGJUCc7O1uso/pLPURgxTIvu1ggfiIFWcHtZ1dpvUguNH0Yad3HhJ1nQjfYZfU34Tou5d/BQGXb2bKQITTGkOnc+X25UO+Zz48TjRsaMwbPjdNbvkPWD8nqIWm+9KDmfnA6H1vzDfa+1fqkLJG8nm7QMTHYLx2dD+DxJeLny34AD7ynhSN93ivRQsvrTOjDVEbBXTTJcCntH8fWH1dUGlozKRli0+lrmnoDN5zQgMNBkKRXwbeirk2biAaWxJ2/R3FPSQtKdO8JlS9KrxneOyqGUeI8Pgyd4RMBrBsG4Onl4veVgwB8xa9s8i7zEdRcHs6NL+m8jnSBekIDV9H8UOqruFdJVZ9Wb6SECGwIaBIy9Cgv2fgHZgKY2wzAE4vwYBDLmQnOAXvQRdfDJADIc65uFD+R5ATCdbKTOaHOD/z2gt+JfZ9cx4UCZz2MAavKgbNBs3P4yg3d5m/o5pPa/KSNZtZKs2znvPcVMBojnS6/RX0s6qKk35UqPY2XfA2PX71JHfh0WnWE6vrM9KHC7MaPd6wBW8vLXB8507FDtm0RPxgtfocPTFopm77No50FJklH3lgdMQajkdt3RVSF58qIdX64dTdkwJ4FxxRGrXTIk/SAGkHGAvunDM6yZ8Vt4+sAOCYFwEufkjMdI3l4/90A4NiUyEWJ0ZSqaPIsN4mFE0Qjj0mQwQlmP47NJ3vNJ78FcHEvACc1oMh0RNnwTunrvu6YaeAogxG1KPHmdm2m4/pX9jMdTj39ekDk+6Tm7m5lZWj/vEMXqc+JBuBmz+m0t+oCy6klGv/cxwAeWgDgq7Xi4Qg3gPvyAKzch8904KDl1nAemJ6hpCwGVeaEQu9lPhiggWM20IhIlIiaxLFJIoA30gHc9XbY67aO02Y6/r0EwIpi632YE09hVfQ5qAjZ9qrqw54AfwgZeiUgGx99f5WPKD95AQ+mDtgNt1P2YajMP3yRCpqrGvZt1SrTcWJpONOx0Buu88eAW6hTWQLg9A5aHZ++ZD1KNOoL3j9ySUz05tsDpRdim0lMG9Vru/zw/T9wVg9y0XRLJJs19Jl38IIuQN97e6lATyw+K/xefvw/8Ez57Qcr0xEtabP8EBXY76/foap34cadBzM1xUQFjEkM/R9n9r/HY6swYAwYKwwYKwwYA8YKA8YKA8aAscKAscKAMWCsMGCsMGAMGCsMGCsM2P1c/g8SatGBDtl5dwAAAABJRU5ErkJggg=='
p25
sS'version'
p26
VV6.0\u02e3
p27
sS'uni'
p28
g13
sS'desc'
p29
g13
sS'browser'
p30
V\U0001f1f5\U0001f1f2
p31
sS'annotations'
p32
(lp33
Vflag
p34
aVmiquelon
p35
aVother
p36
aVpierre
p37
aVsaint
p38
asS'wind'
p39
g13
sS'andr'
p40
S'data:image/png;base64,iVBORw0KGgoAAAANSUhEUgAAAJAAAACQCAYAAADnRuK4AAAABmJLR0QA/wD/AP+gvaeTAABOPElEQVR42u1dBVhUW9feZ2ZIsQO7sBVRDMQExMDu7o5r67Wu3S1gXOva3V67i0bF7u5uUQTef619aAYZjO/e//tmP89+hpg4c/Z71nrftdZeRwjjMA7jMA7jMA7jMA7jMA7jMA7jMA7jMA7jMA7jMA7jMA7jMA7jMI5fMKbtSyY8/CoIz4CGwt2/sph1JJXxpBhH4mOmdxrh4TuH5keaiDFDaK4R071yGE+Scegfs0/mJ5DcjgOcuPOlcPcuazxZxhF7zPEvTOB4lAh4Iqbfc7JUWYwnzTgiLI+PgwSFQeCJAtEi44kzDgZPHQLEh6SBR84PYkGgpfEE/s8OKGRFBhEQQr8DPOr0JPAZx//gWBCYkgCw8buBEzndfRYbT+b/2nAPLE+Lf+uHwaPOJ2I0NMaT+r8wPHxTkMXwoMewnwQedc7xczSe3P/msQFaAk4nWuzHPxU4UTzId5LxJP9XAueiKVmHtkSUr/wS4ETPi8aT/d805gXkFu5+o2lhH/5i4ERaoHDh7pvXeOL/vw4msR7exWkhh9CC+tEM/48AJ/Yc8L930mf7WpN5txPu3pXpBDSiBWhPv/9GizGITP9guqqGCk//IfT3gcLDpzf93oW4RFuaTej32mKOf2VJIOf5FhUegTZirn9GseRkcrFhg/aXHfesM6nEHB97OsbmwtNvPB3vHjq+V/8AYOLIed9j/51A4ZIET59yBJYe9OhJX3YfLf51OvGff+EJDVcz2T5P6cTepJ/P0SL70uNh+n0XPW6mz19Dj0vpOYsICPNl9tudM+B+8+i5C+hxOc0N9P/d9D8fmnTMvu/+caAkPL+K6UfS/f8HzJzKacUc5yYmHi3mKO4+p2kBQv/FJ/0/P6ccgOjhDjHrxC94f782/0/jGy42Yp7LYDG3shfNUJrQzakVrnE/YgRM7KgxclatiH4tNTBvNZTIr9/PJtOb/t9g5nbOnKlu5snRo0t7e1/NnMpg0MScZp7VwpNN32wETcw5/Sgq18mH/QsFzBr1+hWf8U4sPWL+rwbO3TzZC93Ik2MhzY+7yuRF+mlO8cDDs32nkqjcd064ETjRUyH3pSviCEtzAaXFMHY5v0DSB7j9K4FzwyZ7iet5cu4g4ITTxJV8OVFucFm94Ck6qjwu5c+ODu2G//cAaI7/d7st3aAlsCpfFSVLpcSQjgoGthUQjX7/Vcf6578KOJ+DgvLdsMmxORI4PMl1YXyDonrBk266E3aTZbplkx0T6rb/7wDQhN1I7VQFpk37Qcw0nPwqIzcjuUMFtKunRcBqga+nBBAk4LNCwLJRTz0cyE9OtlRizPbv5UEP6FOUfxw4AJLRnBz64vmX2+XLIBI8PL2K2SDt9Piuy8TTBZPr2UqA3cyTHVvLOv+zAPomSfVL/HVkPfhR03s+ZvQXmNDPDKLXn/rfyzNi8msIAEq931ChXAr4rxUIZeCciZgEoOt/C5g4NSSgHIQyficBbSM0veZA06gfNKWqIU2OTMhWvgTEbK/v+96z/Uv90+BxpXmLJsLev8f9+rWjwHM9b07U7VVar/Wp07u0BE/kc31ti4Ynm3H0HwGOMnQ1LWIvKKO26DnB3jDpPAFKv4UQM46p7okWXjNmGzStR0Gp2gYmJV1hVrQsUtoVR+pidsiSUQvb/CbQ9F8Y39IMWw1NcWeYlqkKMztHFLZNhT//EHjvEw2cj34CW2cJ9CUF5lRSQGdpCU3m3NDY2EIpWBpKiSpQnJvBLGVy7JwvUKhKCQPco7f8nvI7xP7fuH8GOLdvmxNmPGiGI2KEh4TgcY8uUaBYXKWQXvBkm1gRgUVyx7JUQYXyh+cdtekfsD4+MHNtig0zBOxdC8kTHe85A/9CrmwmqOlihtIVMsKxXFrUdtJgSl8Br+UCz47QovsKvPESuEYWw4dcUP6CqSAm7okPoJnHoSOL0qqGgsOLBM5tVV/P1ibktMBmOg7bYqlh6dYM2lJV0LKGQDKn2hDTDqsWK8LSmdTrCo9hCmYN1kB0nZ7o99R0mowiBSyh9F0Q939n//PqKl/23M/HjzmN8CjsRI3n40ZLQJwrmAs2EyrGA4+5hwv+ci0YCzw8r+XLFV6p/5/h/xGXJN2Ht+oSBiyGxrkpOjRUUNklLcTY7XrdjmW7YWjTIh12zhN4cIAWO1Bd9Ch3E2Myf3Gqmo3c00H9nz/rJLQthsKyVCWkTGOBhSMEruwQaNnACrrKTYlH7ZKvVbLmQ69mCrLVqUfHHE3MlXbj0LGpGXxWCVg51TAkaAjb2o7YME2BtpdH/OSqp1+u/xh4bubOXvl6nuwvH7VqhvDg4HgAer10CW7a5ED/lsWhxAEP/96mS8l44OF5O3dWtOkw+qcBiF2OpkFfaAYvh3bcdmjHbIV2+BpoGveHSYV6yFsqB5ydUqJ+VRM0rSakq1CKVkwYeHMCoIzeAo1tBVhZCuzwILCcFXhLVufEMoFFIwXmDhVYMUHg4jaB4o5ZJVASWlBlyEqYFCmD4Z0VjOmpIGNJW4gBSyOAQv+v3wca19akxEyQoXLV6O81YAkqO6fA7b3kugpbQYzYkPi5oIslZxlblLfXQPljvZ7n+Pf+z8jzvDnb3ciTM4RkOu5Vq4ywt2/jAejDoYM4WDIPUsx0jmd9bMZXxFmyTDGBczN/btyr7ornA/rAffH2cOVnWSCyLlkKZUffVgqauJmgYgkNWtWkRR5GLmaluvDhZ1QQ8Dy2VMDMrZ1ewqyZsh/a8vVgmiWHdGNzBgssGKWgTSMLZLfLAROXRhBNh0C0HEEL3xvpMiVHqoypofRfrH9Bu86AJk1GpM6cFtZlS0HpMCE2CSbXpxBPEoOW47c2VihUo4LkXsrwdbAvmxF39wvMGiSQpaJjLMuUcFghAJYVqqOiYzIoxN30POfQLwfP9Tw5+8WU57dLFUPos6fxABRy9Qqq9S8TX3XNccFK5wKSON8uXRxPevXAu00b8PX+PYR/+QJ2h973X4crET7+h90XnVhNn/koWsoayyYquElXbNhp/S6HXZE3cRmz2p0SWBA6puFroWkzCuZVmsGkSgsCyx8QQ1appDTSatGjpuVwlLLVomy5dNDYk9Ul9yimHYpDzL3U17EEj/t5TOqrtoPSeQpdBLvQt50lcjs7SPDkdyBhslNg4SiBjTMVmDXrb2jeC6kqVUGJ4pYQU/W61RAx70TqXwieHP3juR2yQiF3bscD0Iv3L5F6cd14rqtl3wp43LWjBE3Yu7fQx5+evg8Ot5r7E9zX7+S2SrjConJDpCjrjBzZzeBWnnjGtmjAfA4QuLdP4MVRskbeRIaJT2hrdTPgitbj4maeJPe2lbjJWGhSpUcZOx1sHAqoPKb9eCj5ycq0HqlPAelRaWug2Luo7m/sTnRvmRx2JayRu3g2XNousGoSWdHhAuP7mhjkvvh4NUNXIUe+tLAtkZ6O9XhCKq3FrwJPx5iWJyaAPnmdjM+BPr+H7dpOUcDJtLQRhnkvwvPHd0nnh+Fb401wSHiR5ad/3ALNOkHWpCO6N9Xh7GYCyQmBL0R6HxwU2OYuMLyLhixTBqQuXgwpnWoiS4GssMtHcjljdmirtYa252wobDUMjCgrTQcjaw4rdGligurliP/kJyVV0BTp7O1g2rS/Cq56vaDJXxIKZ9e/YWWVUtUg6AKQv4/9Gw3cksO+oMBlAs+hxUKqspMrBKrVy/ENjhU9tR0nonzZFLhFF0vVOjkJxMcTUqPrfoXbqnYtb46vl/PnxNV8NPPmjIouE5nGu/Vr44Hg09cvqLrjdwmc6Wc24EXwWxg6Pn8NC6+19eJPI9IasgipHcqjUKWCyFjEBukdSkLn0kRyEKl0yNqwrLVKnwo9myhQ3LpAdJsheYy2QAlo7SpA49YRog9J33F/qxJfX0S48wy0rWuC8b8J9G4h0LOpwO/tBCb1FqSiBDI6llKj0iM3QXGsDaWQIzS0sEos10auq9tMKFVaR7sykucliuhwlRRawBqBmhVU93WHwJDatdY3laZCsl/n3Bidm5riHVnYULK8VermTtjCevq+kXXZP2uYuVfM6zis7GuHYeVQbkhZ8GOF3x3RqEdp9Gxjj8l1i8B/qXs8EISRazr04EySgBNz9D18Pfxnl0VIzhF5tcbgK+I3T2hyFIRlLhuM7kIcqOXg6P/TaxQCjYYIrrZ8Xeiy5YGSoxC09s4wrdMpxtVPCz1wGaqUM5PWpyhZskr2Ai3cBNrWERjWUaBAhcJR78vu1SJrVpQopEHyum2iXeLUQ1AKlJapEP5d12UynMpb4f4BUnVbBZpXF5g2QGDZOIGDiwQ0MsGawIXTey6y2efFmskRKRECTzi57WI17FU+lyDZ9q3yk2p23MzIBZ3RFwSUcx65J5pt9k8kKhOOnzXC3r6Bx3bv8P9E8FBpMwaabPmgENHOVL0W+rfWQbQYEZ1iYAANXgGlbk8kty0GpzKmJLkFNs8SaFXHFOKPjep7Ea9R7Jxgni4tdKYmxIHSwTqdFqlS6pA9swatSfmlq1ILyqR9UBr2RSmHVJjeX6BIQTNa6HnRi06WR2kxXAJK27APWtU1xStyvefJBXeoJzC0A7lfD4F1UwUm9tVCDF4ZzxLqRm1CykrV0b6BiYxVxRQKXwhIhWuVTyRl4+P5cwA0t/KUBMETY1bZPgifQj9/N2DCP30iHnUCL6ZOkimQ20ULYoVL7V8LILIcSsN+0vLImAhJ3LSO5dC7KbmwBv0gCFi6Ei7Ia5eR3JKCv8YKBNEi7qWrvk9rgbx5zKGp1zOKELO7E+XqkWVZBl2uwqT8/kTr2mbIVq40yfhF0BarCCVXEaS0K4YJfTSYMZDeh9wcE+tIa6D0WwCNbXkp35MTACaS6/tKivH0eoHSRQRmk2RfRsdxdKka5W5UL3XsIKW7L1K36IGqLilkZDxcT4Dzg49AntpVEgPQ3R9Prs51Kkbg+GoIgGzXdsCbLx+SbGU+7N2NJ31+k3L+Rv7ckpBHknNvu2LhJgaQw+9LHHpDqdYBmiLlZDxEGb6eLNFYpMubA/YFBDrWF/AcKnCJOMdVkstrpgh0baROXkjTAvbQjt4UnQwdsFhGi6XaajIQ2pqdIfovRf82Zkjv7Apl6BqkqOCKzg012D1foFtjei+ac0doiZ+NUd3XpL3Q5LOH0nIYcpbMg789FIQRAHxJFdaqqLrAVRMEdnqq4Hl8hKxXZbtYKRdOj1SoYYPghMIUZ9RcW8qqDQ2oK/Iu/qPWZ7ch4DGdXw0zgjYiHIa5MO+HF7DfcxSuOBTHzRiAiTtPFy4YnmPstl9SoKUp6QpNyrSwrFADuUhmt2tigdmDyU0Qx3h+nNTNSlUiD2gjUNZOwIPA1J0WfFxPDcwd6eqdvC9W2YZc+O6zoEw/Ci1bkBEbpUtsU1uDjNamaFFLK4EzbaAa6V4+UeDIX/Szc7qo3JamfH2YpbRCo+omeHRIJbtrCbh1nVQSvpQsz98EngMLhUxdMCdK6VovliVRph9Gu2Yp9VqeyMnxo9T1WiVeGuvpM+pHrE9GMdc1LDHwWP/VENtveSUKnq/hofJ5Nf4eTICrCnMPZzgOLYsF1QrhegIAupTfJrzsoMU/141NO4I0pR3gXEpI/nFpm8AbUibXd6tW5jdSTfVowerQHNNNYOV4gTnDBHbNFZhJxDVdiWJQYgXgiEOVqg5NnW7SBZp1nUSKzQnKkFUwc6wmLcdW4itb3AXqV1Y5jCe9H2fdj5OLSeVUXQVPq+HIkMEEC0aqFiKULMjUfgJdGgrMo+cvJ8K8Zx4Bm14TuI5cGs2AtQK6+r1iWRJl7HaM7GGaIHg4gMrfW6nT3RB+eOoHdkk410gMPLlXtsLp59cTtTjHH52D46ae0M1z1RuVLjW8LBZVKSTDA7FSG2SdmnaZ8HMB9Ns89COS/PCwuiBjepBCqi3QqYHqVjzICi0hebz/T4FN00kq04Le3qfmtuzs00AzbHXsSHGj/mTNqkpg6qbug7W9LVJmSosaVaywhywO1zG3JPJcgdTY+J4EHnr/YwSCpQSIBSMViHbjoRm1GYVsU8okKgc2OajJrnJQ22iXtXsOgYYAc3mrmsB9sJ9JNL2+w5TY36/fYpL3Gr3g+RwoMKGXgGtpAS1Hzw3Z5jTXP9v3AWi+axMZAJynZs0t3Z2ReqYTrKdWQpbJlVBpVRfcfPsoUfCw5Wl1YGKibpA/g0MDGyvklwlYBtAtm2wY1rj7TwWQhuR45nyZ0aSq6hZu7xI4Q1fzjb/JfW2iuVHgFP1+kBb+3EY1Gbp/PlsOLUya9I++2hk8veZAyVmY+NNa4i3Dkdq2iOQ1fmtVss2gbFVDjQXNItfFmfYlo8mCrFd5TaM6qSBGb4VZ80HSwgXTAm8k0Darplq7w3QMQRvoOGhe2iJwi1xPSAABwZ+UFD1OH0AKbNCyOKUaU7B3vh7e4yvQo6UJrNKlwBZSj0rHSYZWKvb4LvzU7FfGtXWXkhjXwFYu6vHiNvAtaiNrdy43q4ePL58ZTJaH+y6BIVyKZ7LZzjK+tMchnyxv/atynfCfWkQ+ehvKl02FD34RCdQYkysAg+nvr44RDzpKJJV4yF2yBpumCViVKh870MccJ31WaLPaoIBdeqmW7uwV8CZg9Gqu8pz+rVRrxsppH1m0rbOFXLz9CwQeEQHOVzq3dF9m/f9EuZKcYlEwmiyi7wrVwvBksHyixf/iH1E2EiNn17+debwSVvOm/XB2Q+zvdXuPQNUqqaElN1m4WglsnqmB6OZuKID2fmfkOXuhmxGR5phu5QFJ7NCXL5KkthZe3AmNgQCKnGlmOKFLe3vsdSgVrtFX2PV9G+ggWoyE++9KgvU7cWt5rm0nS1EzGcnrRbFqlq3yF0RDV1VOPyB3eHgJ8admqvXwHKKC5i+yNrvI9Wwn4PiuVC1bEFm540SeOa1iXa16dIK2+2x0aKCT5Df8dOLHxlUDLRqnk0nWmC41hVszPD0cffxbZirIRhc/czICAxzdCuBPArUYvMLQc/ZZ9if6nv1bcUntXZeKCH3+LEFXdfThWQSHfon3vxvn/dCtnT0KjK0AbVKARO4z49Rq4eazdv00C5TCpR6OLjFggSIIJ2fmU5etFEMqk/Wp0QnuQxRcJHB5EFh6NCGXM1DlK/uIV3Eh/EkCVuAaAf9VKuG9sFmdbA1ukNvcSxZJm88+OnPfaAB2eRp2XNJa0mxQKwU0M2MkZT39kadqebw+SaKAPqNVfQtoXZvLyLYa6DyKZi2zYuZQslzD1yUlgt8k6WWqQii8hyuqZMOxJEJu3dQLno9fP6P9oSmwX98ZLz+/i1/Wce8ububNiQsFckmyXL2fA1KQq1IMAJFmbrVwnfvKnxb7yVTCFu98DFukcLrKh7QnvtBlamylQ24juU1uuJYhy7JGXUx2f18DVdCxu/nkE/Hoq5a4RrrExwfpb/T3eSNMYJI5F5RBS+V7Wleugjt7DAcQW5ca1dPCdNyWWIowa4nCGNJBIINDSVlwFnd79ICOFqTSzKLSJAa6sZXfVzSWJ8cNSWZtCyD49Cm94Ln//hnKbvqNFtsFGUnSP/jwPN5zQl++lACMTL7y3rB9pfNKq2Q9rZK0NAkBiEFmMtvz58R/6Ep0ck6Ld76GLdIz4kL5chCAWo+KHTOZdhjZbHPi4SHDFzwKlKdV/jKsiykR7z+gqdhQupYi5fJKlWTo+3A6wsFOC12HcdHfbwYpweKVoLQdo38P/dC1mDnMHG2bp4aYnqTt4y/FgkCTpJes5s15nBf9/fZtesFz5fV9FFjdNtpaeDrj4bN78SPOvEOjQZ14cZ5bNH3sbNC7dXFkm1QxASC5wMRj2M9RYsRdmjRI980gW0ySumeegtT5bKBxahy7UKztOIzqYSpjNUkFUCR/adc4pcyhaRxrQuk2C7XrZEzS+wWTFStePAW0JatEVzBGJosTEh295mHxWAUOZdPCZMKOpLaBcf4OC5Rz/fPxY/QXfN24hKx/NYq12JUGOOC994n4ea4vX/C4Z7cEI84cSDxZzAZDmtkhvdw35kJcySU8z5ImX20m1gitu3ZRCOd4ftgCjdqMro100jUZsshT+2jISoyEprSb3J+uFoydQAbHcri87TvBE8FfWjQgCT95PzTD10JrU0QmPQ0CdgwLVKyqHTTFnKAMXWVQwwVO1biU5oCmKUy6TEzq+ZuVZAA9Hz1qFm/PiVerc+E8RnSPXees83TBmor58XbdGr3WioGYEIAigobhd8uU/BrQp0PwOp+Nn88/vPzl6atnYQ3rN8CMVZt/TnfSYevQs33qePJdL4Gm2axBGlIva6ArW1tW8qn11btQ0yWZTHB+L4AYKLVrZZC5Lya+nHEf0jGiJjsJFqhMbVtoukyDplIjGQX/5ncfsRF5yuSXavDAfIGU1RokbY+9p+/NpBPpsLDf9YHnUvmSsBlfIRaAXAeUwXWb7Hg5fYpeAL1e9hcBJWe8SsbbJYqGPu7RNfjj4YPBxJW+xnzNe3J91tbWyFqkeLhJzNzTd8eAtqNZw/TAucQXiPlIeacs0uJwMZqufg+1mL39REzrrzUoDJDQ5D1ftapHZ9E5Z8bWLinvGUrPLeeaU1YUaIqUhRi1OUFAcHFaxUrpcWGrwJR+auqmVEV67fRjSXRjAUWSutO0VSypfv8e7pRzwKxaRWKBRzunMraUzydB8aRfL70u7+Ohg7gRWcWYN2f4gwZ1Pr9bu5pA8yIkofjRkiVLYGJiArOUaZBi5Pqf0KTpIEqWTodPgbGlOgfrOMIbqaIkgOh3+8oFJGFWyNVoi5NqnHEMJlXb4tCi7wePnATg2jXTkzXbHVF9OAtTB2iTZIGYL7lxKSsXn7UfB6Va2/gVhnTsptVaY0A7E3zyUyPvFubqvrMOzYiDDVmd1DjasKQCqHKUknr9Sm654TRD0ZHlY3OfQY5RAceHrZsjPPhTPDB8uXEdNwvYhPtWdfmyYeSIkLDPn79ZFB0WFobdu3fjjz/+gJOTE5rtvv7DbkxTszOyZjGTJRqRRJmjvRyr4djNxU0CL0l5hRG/eO1FV2nlvKqa4XLXml1kWWn6SpVxbcePAYjdX9P6qdTSWGmB/sTMgUmzQMzj2tRPploxmhq7irG26Si95iJ3qTzYOluRlQUc+eZIeOcGao5N49Yh6W1iuN1fEgFUUJJgAsTDNi0kQDYSz4kVpyHrw6mOSLd0z60Kwghs8Wt/3n79fDbo8+ZNm1ChQgXcvn3boCh2CHGwD+TKhnndC/sRIs0xEV0eO5hVaiC3DPMi3NpLSmuOwN8eAjvcBbbQ3/1Xq7knJqkVnTJEbcORGwmLOSN7yYJ4eeLHLVC3pqYQwyN2UvT+E5P7mybJAvFzh/VMDjFQLbrnCkYtVwRM3AOzinXQo7kJXh4X2D1XIG1K+p5/Cjyni6NvC4HWtbXQtBqROG+KP8OE58nMSQFQSkmAx4yKKvSq2cchFoDKD3YEF9pH7xErjq+Po5Os4aGhYeFfv4ZGurUhQ4ZAq9XCxcUFjx49Mjgdsubqi+8GELsebZ6idFV6Qvy+Eh2bppCBvzMElFFd1XobLjflq3PlBIGN09SkqlRKQ6KDmJo63VGskM7gONK3QgQT+5lD9JynWoGhazCme9J51dJRAtrO01QFxsApVh5ZiuSQYNn9p1pwf3yFQMlCAhvoOzV3owtkvbojJUvpYmodUtK7unZJCoCUtxvWfYjkLgfJJFq4u8SyPitdCsQmxrmzIeT2LeZB4aTgQskXRRGid+/eoUgR4k/01jNmzMDbOLtZP3/+LKe+ceb5xzAx2+e7NhZqanWBpnILNU4y8zhyOpeR5RyevwvkyGoC0wp1IJoMRvIsGVG1DPGDumr+anA7HZQO0VlrZcQGlHZIJztm/BCAaG6cImDSYby6+KQOe3VInTQLdEZ1vaZVW0VZEk2rP1DazkRm9pnr/DVG4BUR5vnDyOI1IVAtVBO5XOXYv70lueSZ33NB7kxaMLFgnuuR4OjXsngs61NsRDlcz5sjHoA+eZ0MRWhoaFwQXLt2TRLjmjVr4tmz+Dm1zZs349Qp/RHve+++hFsvDEi69Rm6GppCZDXHxgicNf0DK8Zr0KaOTtbzyGTmtCMoWi4PfMmFmaRJBxdHU4zoRAtRq200V5hxHPalMuLrmR8HEJeKpKjXXt1vNvkAmtdJjjADAcQcjUMRnPOSliRif5cycTfsyuXCfeJ1ziUF1k5WS0q4SI0rHAvmUnd03KeLx6m0CSz6zPoeAH0Sc49YJSUafUzt75MDGabGbg7lUaNw7FgOqatnQwYFh314/02CnJCVYavUrVs3XL9OhPvmTUmkI8erz1/DHdaeT1pEerYXNA41oHScEDuS3GokithoULxkOlneEdnIsqprWrlNJkWdNuRePFDENhXMcxWIBaASrvnl5sQfBRArv2yVK8r8HH+2c62cMkf2rcQuK8O3BBreofH4gMrTmtcjHvTHhqhEbwnn3NK6jumuWh0uX5WukWZVR3Vvml1BHbL2/IFWeXP86ichGp19HYNjfvXCscCTZ1wFnC8QzX1uFi0U9m7NqmCyPN+1t+fGjRuYNGkSFi9ejGzZsmH16tWSQEepuNAwNNp5LSwprkvpPFU2cIr7d23TQTAvUhK6lKnoqt2juoDR21G/bgYJIK1bJ7UDB6kjJVX6iMy1n4y5ZCjjIHv//CiAuLancfOsUZnyrGVLyaRrQs9ntcjk/dgSeu0ZNev/mQC0eryAZfM+6vclxZihhB0aVxXY5K6WzH6J2AsWckqtRuTuIwXL5lOB+/2KdqnhFihPjpks0ZksxwTQyMZ2UeC5Ym8bOrNd21A9XsugcfHiRTRq1AjDhw+XLu7FC/31RkNOJkGJ0cnU5C4q93PFA1CNTtC1Gy3zSOkL5pJt4TKVKoJStjpZqagpUEa6NoV3jJZ2g1Kmtqw1FnMCkcbZDTd2/DiAOBo9fSCpoRHrZZggZbkqOLs+gZjPKdVdHV8qEESuL3CtukfsyGIVVPkdbNTNjQT6dA6lcW2nWmKSK4uqvLj9S4f6QjbB4iBi+dqFf7Su6pm8FZVhbVxyDOLMualHNHnmPoenC6utWe66OoXcPnEsJHXq1Ni2bRs+fvwYO/7z5UuiAGLgsbvi2atXLzx58kTv85Zdem4YgPhqbDIIGteWev7nD61LC2i6TpMdO0Z2Jk5AqoSjtGzuuY7GayVd6cuE7FS2jFTZpH4CDhUyQUzYg2RNfsMu9x8HEOR2HQXmLQfKY9LZlZcKUN9znx5S66Q30vHcOajWVX8mlzalDwHIm3ep6qDlxg3Tj8DZLZuMUo/uRsdsK+Tes8ZVVNCFR8Sg8ruV/xnFeRUMtUAtO3coEcv6dG1vr8Z8alYNIcn+de/evVAUBbly5cKFCxdixXA2btxo8I7V169fy6DhwoUL9f4/4OmHMGFAyxfuNqYpUDIqUBd3e7O2bF0oA/+SgGjdNDWOktvKnJ4WgoASel7dE8bVhq+81EpC3o/Vql4yiF4LoOkxmxZO9+MAOqOWz2arWlnuVNVkykWcRauf/wSpoYWgbaSsxqlNrHZ4ql1EFo9Sj7NI+fykGCdi2kCddFu8i8OtnLpJgPNmXD8UxBKewJi9ZnXDegl9O6g4zSAAXcyfwyVDjKbgujkuOFHcBvcb1v0S+uKFzF0NGkRXu0aDrVu3xs7CE3BYtgcEBGDVqlW4cuVKojzI0tIS6dKlw4EDB/D1a6zUGO6++xyeen7iSkyp3R0at/b6M9Rk5pkXcesU3lFavGZxPCRCWtlBYEBr4gqkhPq1VgF1aoO6F91ES1dzIZLMLYZCM3oL6tbOkHB/oW+5rQgFxWmI1ydUYtyubWZoOk6W+awC9tljd2Y9o6ZXWEExaHiHB5PjC3+rO0l4q1DhPAr6tlVQp5ICq9SWGEc8p0Z5geIFBG7uVi0dfy6X2KZKLnCJvo9lzbY/43YJVw0CUL6JTgViWh+3vg7S8kSChxOeXbp0QePGjfH48eN4auv3339H7dq1MW/evFiqSt/gtAUHGXPmzIkVK1bEU2vPP30NL7kmESXGJRI5C8uuZHrBNfMEtMWdoMgmnn4wrVgXk/uobmHFeDUizQSVd0RwD6E7u9Xs9TZyH9lq1QF3TbN2KIVXx5NgaXxVa/P8iJA5Ka5KvL1brVZcPVHArEhpaGt3RYqqTeTWnbig42NhDjS2h8Au+rmKo4J0uTNCODWF0moEFHLHyWq0QDJLM5iZCozoIjBnqMBHf7USkkG0fiq54/HqvjJd88E/qfdkYIHEEbTKLUXMwOH6jjWk24oZHOSAYFzuw4vfokULzJkzB/7+/omCh3nQkSNHMGHCBEybNk1vbuzW3bvhDXfpyYmRvDap0QEmDX5TeyZXa5fwFUbP1eYvIXeQSq70+woo1dqjRFFzmanmpglcHM/xk3rOAtXL0lVuo05L29LyNbqGfdR0SJBhVocVEMd9uIKR95id2yTw5Ki6jegGEdzc2YhMtx0DTb9FmNQz9n52rmC8tkvdzbGOPtOxGAHAlDjP0JWxvqNmxlEkHzAb1nb5sWOOkFt7yhQVsrt9pIyPBJLS3f0ndDohFVer2++GFEcrBJ73DCA797qhn27dCEl0Lxi5nj///BPu7u4yOLhlyxbD98tHkOl4vYY+fUKXTh3Rbe/VsHhNKnmzYFsTjOiug2KeTF6VCQFIbj0uWEoG76K7ip1AxYoZEXwqxsmO6JcYEqRuLuStyGmr11WfT9yqbf1kBgX+2Np88FW7zHNCk9v5PqXHU2vV/oyvfQTa1KJFJW7FqYXybjaxarZ5/xfv4GCrMqCdkCoxeZZMMHGoJklzrO82Zis6NLeSTSAe0Gd0b6LuP4tJ3CcNMP+OLHx8hcvWr6hdsZOG7pG/lvzPGmE+d06HGAIC5j6Rkn7p0qVo3rx5vLRFUseHDx9QsoQ9eizbGR5XifE2m8Ll88DFQbUYPVqZI2edGtAOXBKvazsnRbV2FWO3mCOw5XKpIOWvPhBwUydObXRrnVw2SWAelbmqG65sT6Ba0F+V3gweJri8y5Vb5/EOU/91ZHm2qT9f2yNw9C+1qadFtRYyKm3RoAe8V2liJU05ITpjgJrTukzHYuLcWO4M0To1igUiizrt5d75lRNVsITpUX7tuYxj6qHv3xbFcbMSVZE3fwFcvHotdNrZJxkSxY9unuvRFWf/DvmehR81ahTMzMzQrl27eMlTQ9QZAzEoKEi+fuGCBWg5PIFSTP5ivLhNB6NI7bIY3d0Ec0eaoniVItC2GSW3tEiXNXY7dAVKxJP9Zq2GYevMhMsvmB/5rSEF41pJpj005PqGdjSJXZwWpCqeZ0dV9ea9WsguqqtoQe8fUrczs8vi92JuxVurt7urIKvilknd4/XHRnRobR1VNcnvx21a0qTRoa6zBqfIFaap0VTtL12/F0yLlYdm4m65U6SqsxVWTqLP2pcAsImQl62eV38D9cQmp0u482zGXMiXPz/OnL+AUT73+X8dEgXQ8jPbV35P8yjmQWXKlJEAmjJlinRDMYFx9OjRRN+DX7Np0yZMnz4da9aswaq/94WnSkyJkUtShq5Frnq1MLp/KiweQ5K2ejp5SwCl8UBoiznFv58EPb9zi1QJFrYzf1lL/GH5ZBNoa3WVMjizaxVc3BJd58xAaV5TC1dHDQrkEujbhqxhU4Ezm9U9+Ff+VkG0nazE6U1qjiqQ/rfVnbPnGpjU7ynf17JKE7J66uZHJs/DOykws6+EGvQd7hEgLZzqRnc5az1K9hOysMmP/eQe3QcnzM3YNVq7uCad6/TwgMhbAuZWydGhQwdcv/cA/Y/fgcZd/n+bIVn5GXGtQkL5rJiDE6N169aFjY0NguM0ImeXVLVqVdy5c0eCJC4J1zf279+PYROnhNutMTwnxve8SFnKUTY34HKNXi0Eyjlaya6tCtckRz6PruhslSvIqG1CfMZrhbp1uXurZNB2nQ7ljw1o1yQlcJ6UG5HWVIULQuk0mUh2X0zqpRAZV2BezBE2RdIjTUoFOz3UUMHFnWpUmKPKqyepjcnZalWqllOtUhy2Hk2bZJKxG86P1aiolQ05G9VIhovkwjK41Yud2+s8RcauODaUkFvl6Uuu0aztH0noZHIYokwtmFhaoVatWjh+8iT8H7+F8+aLUNzVZlY0P4gFf1t+E0C3bt0aGJPDsOW4fPmynGfOnElwwTnjzkC7f/++XqLdtGlT9OnTBw4ODvD29k4UQEzI8xYsHF5s/kHDk6oTdqOUo7WsgZHEOIIke5OLqU8LYlmnnQw8Sv/eeizm/WGS4BXM6mgTKaFAsh4NaqeBbsQ6mNfvho3TtWrxGZNT7kldr4+M2fRvQ6S+/xJou02D1rYstDXawyJTJvRppVokzlXx4xEC5sLRRLCXkhUiOS9jVbW6EyC0eHRYoEDRdBB9F6FxfdUCJatYM9oCjd2B0q65JDdaPFokvGGAjv23lqb0Xf820GWRy7etgFKlS4MDxTdff0KvI7eRYl5AJHCiJ98J+1vD1dW1RcwgIMdrfvvtN9SoUcMgSxR3sPRv1aoVFhCnWbZsmcyFGaLO+vXrJ2uJNE0GGZ5Q7TINQzqZYN4Igcl91da+D/erwTxOaB79S0GBUtmlK1D6LUEdt7Tf3LXBUV7mMGcIRDXqZoHSbQaS29rDrLSruqhEhDlQx/GWbq0iKgY59lS4jHo/L5ralkOR1rYgKpbSSrfoPkRNSzBYGjTMrFYqTjmE/C4lJNGuXjml7OLRur6l7GOUsUp1tX/imC3IWjQnAtar3dQeHf6GGqT/5SqRm47FwEL6hv1R2skVD54+w6zTj5F18an4wImaPou+CaDHjx87x2qWsHChjNVcunQpyeBhy7N8+XJMnTpV1jyvW7fOoNdxkJJdoVajQcaGPcINjaRywDC5dWrZMbUpSeB2tdXuGezOtsxWQ/yfArhptwYVyqfCnyMTL25nLrF8vBqprlUzPTTV2kIhZSITmu4+sKpUG+dIabWsZQrBt41iq0QA1dWK7n7P96zQOjdF1qzmKGijwcaZat6KO6SlKF9dBePAZejUOg2a1U8ru2k0a5BagiRlOVdoxu1AhhK2co89W7s987+ddxvdXUApWVVWH8gGWTIbn/A51OUrgT1HTkiro0kQOFHzsRgNzbc4UP7IhSR3JqPL+/bt++FOrD4+PmjTpk08fqRvcIL17NmzaNSoIUYt35K08lZ2Ub8vkzdd4SRr+uJFyBppyV2pYOJic1Y74WeEwWWlTJr5ZionyNIM7aqDWepUan6N3E8GB0d5q6faNcmtjdwSRex1ZIU0IzaqC8dt9gqWgeC2eDRtyuRDvhwa3CHryHvXFVmqSrK+wyhkymgBpc1otKprLlWctW0BZLDNK0tXz25Su4F8y3UdWSKQN7uAzsIMOW1SIGvu1LAoVQmaHrNUdRX3Ypx+FKZZ8+DA2aswlZ1qfROfHr5lvgWgFJEL2alTJ5lmYHmur3zDkOx75GBLlCFDBvl+hpaCMOEmfxxmNdf/hwJh2nbjUMklA06R+eceygPbqPGapGwv5kXjLT7rppGyIoJc0olcIUndnCXy4iYBwalC6lh1x0qfBdCVqy2tj9JlOjTFKsUirNwxtmTZ9FKllSgXcYsoLj9xaQpNgVJoVsdKgsalFFkqUn8B69Qan/feCR8jl31wn0cOVravKySRv3dAjVR3bGwOnYMbxKR9sUFEx2eaKScW7jwEjYevYQBy956UmBJ7xzzo9OnTuHv3rnQnK1eulGoqcrAlYbfEfCWyRONbo2XLlpLT5M6d2yBJH2WNPoaEF1geFP4z9omlbdYJI3snk/eeWDdFjTpzTfEnX8PLMjjhOn0AqZy1An+NVciSKLI9XtGyudSbqMTs7FG7G7mzkdC4NFe7s8a9+snFpKxYHfaFzaAp30B9DalFbaZcyGotMKKrms9aMka9od23LCb/n7uj+a1Tez5ybIr3v0UeN+fKpvfXIEXxsvI2mjHbH+sKO2LF3/sgk9eGWaALiQHoamQsiOU5/6lYsWKxgoMPHjyQW3YOHjyI/v374+XLlwmCgOujixYtCgsLC+zYsUMvaU7ItX0ICQuvte3Kz9nuzA0uSXoXyGcuu59y9JYXqH9rNcgXbmiJaoC6PYitB7e44wVuU98UOZxLw6pRV2j6zlfzb8Q/tCWqwCxbbvXWmTG76NP/ZWhh2FrZbFxnZgqbGhXRva8NvNeZSKXFiV/u18jxIW4QylHqzwHxj+fCFrWIjFsBt6mj9i4KOxUf/FzfPbidAtPqbaNbFk89DIssuXE48BypLn9DARQu5p7K8y0ARZmI2bNny/ofTn7GujvPixfSxTEwTp48+U0rwhKfwccBRn0xIFZmXAKiP1UC9Dh0O+yntb1jtdZ7LswzZ5FmnmNBwQEqxxneSQVUeCKujLP5f3QWeHFc4MkhgdWT1S6r66er78f5LO4CO6KbgqZuGlQuTS7PMT0Kls+DHI5FkMOhIPKXzi7/1rKuGSb01sgbqXAi9cBiUmq/q7ssXhyLuCUmgaFRFXXPV6w2M0Eq8Llh6FsflZhzCiTmfVj5IuF7ZnCzK45FcfojS75MEB0mQlQhIFnnRCW3OvB69A4mhnIgVY31/xaA1kSmH+rXrw9HR8d45RsjR46UiVMODv7o2LNnD8qVKycfudLx6dPY9yNzP/M47Gd07Iil2P5YL7f21Kmk7iHnXapc/zxvuJrV5t7MYQkAiPeXaTVqf+kot3JWrSRkjjWtv8D8P9RbNHH8h10mVz8ysE7TIvqsUfdw7VpAwJ2s9pNma7NolJoQjdsUS5bE9lc/c+cc9TM538adYMf1VMHDj3zTlwUjoo+Ji/knEm/KmVmDZBYKLMy1sEpmJreQJ0uWDAULFsSw4cPx9OVrNNtzPQngkQA6mmg0mtUQqyfmQTHH+vXrZdLUw8Pjm8FFQxKxHFRs27attGKurq6SZMd1Zwfuv/2+fWKJzeHrYVelCJZPUhUaZ7YZRLw4XE/DqYnNM1XVFpN/bJslkNxSjenoDQMEqSEDrlHmnBrvguWOrRz8Y2u1ZqqqBvmWBnf3qCovKvCZAPe6SiCcT+B+eFAFGe+44LKPlyfVACVL+9m/q41CI1/H1ZXpMmfG5Nke2LlzJw4ePgI/Pz/4Bwbiyo2buPvyLQ7fe4PGu6/FjDYbOr+KOX5pEwLQgMg0RtzBi8sHwSWs48aNk7tPv7fAnrf0DBs2TMaa2FUyr5LZ/bdvQz/fuvX55ZYtwfeHDws+2LRNsNnME7/mNggT9iCboz2WT1Drowe0VXNM7Iq4NIMXqXNDte745DLVKnF1Id868/WJpNdG39qtFsEzn0nS/vgzai13J+I6fVqqrox3o/LPpzcIbJiukujI9+QuspmzpMLWo17we/weXQ7eRI3tl+Gy6SLKrDuPQiuCkHHRKZh6JBk4MWfrhADU3BDrwck2KysrTJw4UVYrfq/E5+YLY7t3D/MbPvzL9UaNgoNsbEL8dbpwfzoUngeSpw3PPnLLr7sZC3fkKOOGamWFjPRyV/iR3dSqQJb+nNnmG7+xW+KgJLsLTo9IV5PEHaaXSS1lzyRQu5IBr424w+K+BeoN57jzPatAjpBzYJRd3rPj6q2gOtL//NdEv5abfWbNmglnHrwwnBzHmGbEh0j9JmaZNiYEICdDSi/YhyZPnly6tJgZ/FevXkmTyZHohIrGwr58CQ++fPnzg9Gjg8/b238JNDWNAkzc6WVmGV6659xfezef2SdJbrdAsfwaWYvMfIUjwXz/CibIvN+cXRL3+2HJzFl/vvr5RnOcaWegSdJ79tuWhfd3cWzHNq+I3rQYs7DtnNqgk8s/BrVXKyXH91I/k63QrV3qMfGuEq41YkIfuEG9Ge/XGMqLE7Y5sybH8M1HkwScQivPYmrAI5x69gET/R8k9vx3wuO6mT4A5UsMQFw8nzZtWlSsWDFejuzEiROSFM+cOVPmtGLu/fr64sXXp4sXB18sX/5zTCvzrRmg0aJ+8+FhvxRAEZ1dNS2HoXOLZJg/Ur1vBheBMWhu7FTdGSdYueid653ZlTFn4i4fHOnmIB67Ea4oZNK7eora4vf4MrW5A0eSOdjHvaO5FvvYX+ptxDkMwASYyXvrWqqVYz7Dr4m5g5WtEYcN+N5lE3qr+T52YywCuHoAMaLrT45zEb4ZNp08BTMPw9RVxY0X8fpzKG68CUa7fTcMjEx7l9UHoOSJAYjjOYcPH4aXl5fe//EWHy6+j9z39fnmzS93Bw4MPm1t/dUQ0MScp2j2rdwqLNGcGLki0XcBRJfp6o3ZErrRbGL3G/3NE1Wrp5e3frr6t2oNfCNuGc5WgqPBzGVCAuPzFF5wtlRcO8SKicMDMwgMvINiaEe1X0/k5DIPjvOwRWH+xTsr3vroj5Dzfb+aVhfQmJrBOnMWZMmSGSmSW8I6rRYprQTquxB4m6lulwFcxVGgaCkHeN95ipQGBAiTzfXH5VefsPjCM6RfEGi41Zrt21CvGyOX9C6hXaORwT99g8tauWSDa6Q5FUFkOOR29+7BgSlShCUVOJEzkOacgo5hCbYo4UKo1qMhMmSHWaq0yJA1O9JkzAxN1rwQ9XpBTNz77dJN7uzesB9Ere4QveaqqYZJe5HFqRyWj9dIoIRHlK/q4ylR88yvmQyomeSiMhBoNh44htfv3uPp6ze4eOUadu3aBU9PT1kxUa1aNdjb20uv0L1Xb5y5dhMrLj83CAhDTt6DD5Ftszl+SeNLHr5V9QJo3rx5VzjKnJTBKmr79u1y0+Dwfv3CA7p0+XIqTZrQhIDhy7EUrfqzn0JXYSoipzkFfEzjuDCaG80sYJIuC0TjgfImtlEpA87tlKoBnaUVWvYfjqPnLuPJm3e49+Ah1q5dC0fHslDSZ4NoNCD+HnG2aL+vgEidEckzZYdt2YrIky8fTFKkUbfRDFoKs1aDUb9WCtl5PjzOorKFaVFDTR1wF/vHBvaSZgvFuylWTFQrHw8vjnhtAiDkzYYNyML07d8fF158hOvmS8i/7AxKrT2Palsuo/+xO/jr4jPsvfUSF5+9x81XH3GOnucR9BiZvlmaoU6u+7n6KhhVtlxKupRfEJhOL4Batmx55LtiO1+/hr/atCn4WIYMei3OieQElIz0SEDxJxJ6iDf1uZJEJTJ4hUz5AzqZQSSb/ZXYr9ubPA3qtOmF4sWKwTwlLXDW/BDFK0NkzoNMufNh+Y59eBEcgoXnn6LChgsovuocOh64iR3Xn2Pz1m2ws7ODNkteWevLdc7qPVIJUE7NUMTWDrefvMD7L6G49+I1fP39pcJMljI1RNl6svLQ2tVVugeO8vKCcoIyfRoF+cpURNeBQ1DJyRk5sqZAv1ZqCCChzYhMbvl23jqr5EifKx8y58yNdOnSwDqdGcrYCtnB1XuFGj2OBBRHossXV7Bg0WK02nsjwQXVRrii5KS6LAy0JFq6EMf6PcDBe2+gS7qkT7jE9cOHD6uTCp6QR4++3mjePNhfo4kHHD+yNqdJar4kTnGbTtBTksWX6Op7TurlLAHJm6TtSXremSYkdYcLHMlNIDOJfv0x82RoMWYFDt5+CW9fP9mYYdDvg9Fz6GicvX1fEj+nTRfj1bPwSalE5HD92TtYvHQZbG1toWPXxl05qraDYmGFuXPnYs/t17BbdRa5/joNt22XsYKuaJ+L19C9e3ekyEiWz6GWzFnlKW2DEV0V5Mkm4FarNh48fyk/+/zTdwg8d0FWXmaxNpc1ObylJ5ZVCVKbPmWwTotDAUEI/hqKT1/D8PrtOylKeHsU91Pi3brF8qsqb9NMNYpdspAGy1etQoEVZ38kbhOTu8B60SnMPfsE999/QX6S7El8jw9idkD+b0WjpxtsdYgPvdq+/fOZLFniE2R2TRkIFKQU3tPVd4cUy4ONAnfp8SHfzYYUh58dAYdI5TlSLkGkZHyK0t9TkALSxXgfrQ51yHpY0BVmv/ocBhy/g913XsPvyXtMCXiITIu+bapZUdTdcQUn7jzD5i1b0KRJUxR3LI9ew0fj/vPXqLntSqznMxBzLT2DWacfwffcJVmOm4WshXSHigbFSpfBtZu3sP3mK2Qk0qmj9y9GVm/umUc44huAevXqIk8OU5nxfxVDrnPThGJ2RRB074kEfN5lQShEoHDZdAmjfe9LS3Dx1j2s37BBgjFbtiywsrJAxozWOHbqLGxX/jiAdGR1Wu69jiP33+LYg3fyAkvae/BdffxqJpaR7x83cMjlqZEEOjL6HPbpU9j9ESOCA8zM4klyXzOyLFXJRZE68KtGfyM1cns5uStP+jud2JOkQIIG0N/pOT5kgbwTUWI9qrVXuU+MqyipJ4+BVJV4w9H7b/Dg7Sc8D/6KBeT2TL8hdXP+dUbGRK7dvY9Vq1dj1HR33Hz4WJLOnEtOx3MJeYmfLDn3CJt3/I1KlSrCJpsaK7q5Ry0Isy9uhwWn70KmZ+J8FgfuWAW1338TG66+wJWnb3D+wgWZemBLl2yO/w8DiD/DhI6T30vrkWTL9UV4+NdOdHcGqalm3AAhcnCnVa4J4twVpx44lRHy/HnolTp1vuglyJbkggg0XsR5vK0JIOS+jpakv/chk7yQ3Bnv3a6pWpqo1+Slv5WnSWTaV4mvxGYUdVLLRH+CCecTl3FhILIsOmXwazj03/vobbpq30quxRbqW4tkSxZp2/UXWL5mHZycKiGztRVSp9KhcZMmWHDuSaLlo/x/luDl1l+QcRn7Ned/jvv6xud9u6jMJ5geaxi0QbVfv36VHj58GAUgzryzfy5btizevHmD4MuXQ84WKKA3puNH8zS5Jt9KxF3KEHBIpQR1IGK4m5TMqYh5Wn18SW7MtxQBjNzYM3Jrr+g5NxYR+Pj2SnGVWMbcMGEl9QtPoqH8wdDn8pXO7vHAHVJIly5h+/5DuP/0OSZwlHf2rztGBnDqPwNhT0rNkEQpBxuZ+yVskXzeCw8f16R0bc0b04VxPRCXW7BV+hAQ8OV0xoyx5PnJNLTgbvRIVsSH/0YAOFWLfi+pgiQsUODjYeJARArv/iXwlWMqHHrne26R4nhF5Pr6WHJxswU+HafHpWSdUsYG5p5U1sg0ZodBJzDDwlPoTCpskv9DNNp1zeB8EJ9sc0/VvP/sBS5G3G3g8bs07yQtWBfn+HKRS81P3IktEvMu5lDMpTh35UjWqsWe65hx+rHKzxYmzg0d1p3H8kvPZVgggee9+GYddAIAsopZXO/m5iZ3V7w7ePDLqfTpY4HHm3z8o7UCH44J3CN5ezwrgUmryvNgUiIhBJCzpKzOkFQ/TVL44mxVtn8lSfx2v8BV4kb701nAvVABnB9HQCOyfY8A5JU2NoCOWSZHsX6LEz3JlnP90OfoHYzwuY8eR25jxaVn8CW+Mu3UIxSlE26uR+KmJIDV//sqNl5/iVNPP+D8i4/4+9Yr/EavTzY34J+3ejST03HMOvMYzz59BTdU/hIajq/0QwjNYFJzH0JCERxK/JT4Kn/fgiuC4oEv5bwAqbg45vOH9z14PXovX9f32J2ELM8dMcun4HfdhI6w85az6r1795bbega6uIQFWlnFiu94k9S+TxblEgHnGIHkxU6S4ESa7xJIQgNokqXxdSQCOYoAwze5PUhgW0ZurQC9ltyWVwrV5R1QLHCgcwrcXKXDKXJ3K+2ywjtuOEBrAre2Y5PsZvjE5aOTNvs0n/wQ+NBJG+f7ALW2X+FmnkSQH0rQsKTeeeu1JLCsdiqTMhpEFmOo1z2k+TPgp3AMrjvWefgl+bW86AF0jAyOCy8/YQ7JbwY3H3/DnVfld3HbehmO6y7IY7eIkcfiuFA/AsiBu29w591n+T0ZaE/pXHD4oh5dOPpdl4+/mHU803ffTp4AdPn58+fg+ZYsz0kLi3hKK9CZHicJXFlAICGF9Y7c1IU55IZOqO7pKpFmb5Lj10hxBZ8U+EzW6DM9nu+uRqKjAoXCAtu1VthimUwCyksoepVYV7fOsZVYEidvmhvqdVcqGr5yWV3y4yFSZWXJ/OsLpikRMyGXkpyualZf8VzebDUOlY/cCy82W4WPtHgcdxl44i6yx1FwCV0IrBoffgihqzkUXQ/dIktkuJBgdbny8nNZGvz4YwjWkbLrScfCQLMmEZEw5/FbLxYEWoofGQSgw3J7zdmzIfpSEkxygwYKPN6iguYqqatX+4gEr1CtzWN63GtqjoMpzHCMLM19D4En9Nyr9HgizfflxKYUd/0pSoyvykqbLsqrz47cmu47QclWpfaOK9h75zUWkTJjV8CLPIgAsvjiM5x59pH7Xssr/trrYOwnK3Dm2QdyQeFyQWeSVbRddVaS7bjvzdHkzgdv4WXwV26+jpJrzyeZL3FsiS2OZ9Bjaf0MINShZHmG06lWxI8Ows6qL7dvh5zJkSMKPDtNzLE1rVa6Lh+S2hcHCWwhK9PNQQ0SXl9J/IX40MONxIVyC6wqaE3WSYvbZKFukKvzI/d0Iv33JVVZiW3IZEMA+ndwkpiTA5l9SOKzK3z44YsEDVsaDtRNDngog3Vyf9ts1aqUJuK66spz3nUi+ctOciXMwZhcM4EvSqDaeO2ltI633nxGuQ0XknxMzpsv4QWBrwO5ZMNKVn2eidl+1cTPGp9v3558vlixkJgWZ2fHZDg7WYFfalJYVmRVyG31drZAN7ccuLyELJInAYjAs5sk/F4lJaaUL417yxUc75oMx9OqfCch6R/zZ1+d/uftSpMJ1uN2/usAFDlZwWUgEOQg98SuRkkkFsUKak7QE1wl68RW6SMBihOhDEAu0WNX67wpyUlOZCZAX3r1SaYqDFOTfkdJaWUVP3OcsbbuEyXThRZedS1wiVzV/blkRTITaW6gSu5D07Pg7EILCaCXe4jzdCPrZEbKSphhnGUp7LE0xxqRPhZIOFDIFoyfd6IUkWpLslg0Awl4l0mV3aHP8S+lZuljAuhwslSwHfDXL1t8ltpt9t1AhwM3ycVdMnirC7sgkx/gZsyjqhMJ9iCVtYfcIac0OMmZO06wkkGXhXgcq6mEgME9lfj1VwhA30rxKGqg8gv9PEQ03qAVP3vQgjWNXLgxig2ODDWVrimE+M2b3bTQfwo8WE+qajuRZJLdz3aoW1ACKsZQaXHIsARRMXJn3PViGD0SHzrdnx5HC9yeSX+rT6/JQ+/hRqR8BAFXFxtEfjoTuPJddX4icLicocnuazj58B0+kDt59PGLLK56ShyF90uxwklosfi1PQ4TQX7ynoj4W8l9OCaj+cEgoD5yyy5wLKnH92SluPyCYzccobYj0DNQGDgcC9py4yXeEeF2TaQ8I92CwMDKm84XFb9q0IJVjOQefqUVfPKKHQBk5XVmBvGgeSqJDiPZ/mYXPddav/vx1gqcJav1jqT8y70k+feofImt1gWyOscsyCLlJStUjwA1jR7bCxwpLrDPMvo9TtPsVLPbDymxuLMguZE1V17IOFFl4g0WEYFEzoFx0vYBcZqlRIj596hQPwGKrQPzGI7FsMvxJxB5k9Ji7rOG/s4WxTxO7oqtlM4z6ceebfFpqaDY1Y3wvifJf1ci2IsuPJVu7g0BhvnORxkPCkOrvde/4bp83gt374Fi9BGd+JWDZHOeSKux0Tk5AtqRiiIrExqoyvS7pLoO2BAw2pBV8hF4vpV+zhcfOD4k133JKgX1JpI9gUA3mZTYYoFbpNJO0c8nhtD/ye2dJTJ+qg79nIdlvH6+xFJ+fEnumaNfifHicACNTyA/an5CeoKjuZzx5xjKMrrq2cpwH52bRG7ffA6VJJkXmCUzA8yant9s93Vsu/FKqjAP4jjdyEr1pDnv3BPJkZKS/GVyze5oBX025+7i8qoUZHmqEViHeN3DSAJXiTXnEuJe4cR1Vv90rpPQOCtEMl60o0KDnRodjhFpPl6bFpqAENhbA99cBAr6/eMJVWGdKKnH6hDHOVmdAMH1PuYECgLIscr0vz8IKGPIupHr8qpL/0sfnfvi15xIrR9AbA3XcDGZHiVmRvJ+uPd9eRVG3DZKnvQ8y4K+Z+NcPIAVWXlWWpbPoeHyjkIbrr1AcXIfCYFPI61bkOy7s4os3FqyICzZkwKeeUSCWf5zcZxBRe6zORLvj5Jrzsu4VmE65qwEOnKJR8RsHwfxnx60aG/icpjDigk2OqbD6bYCH46SRRlHwMqsR1kxd2lC/0tOgCDec9xNLe+4NVENJn71VZOnL/g2A8SDvMiFeacgK8WlD+QW/XgzX/b4ANpJSizdhD3xeAO7n7W0wM33XJeJQQ7W3SOr8fzTV74Pa4LF5exWmDu4bbsi+YwLvU/aPwMTtHC8MKXXnpcVgEnhNZrv4EIc++EouKEXAIcLmL8xyDn29PFr6IkzTz9UEf/UoAW7FBcYx3Pp8Gy9SqYDequWJapk1VQFE8eJuL7nKpFl34b0N1JU991VDsWdIzix+sVLzcgjYj/TI3JrT1cRKI+o/2fLdpZef9wsjhKzSo3CA5fpVTJxyxGykmtZQjyBg2l8JXc7dEuSTd44xyDh8P9WcjXMGzhN8OhDiOQS5198khFbU0+/n5YdZwBz9Fnn8WtCCFW2XJZ5soP33obSBbO966FbFcU/PcjiHIq5eNuSZyDiq8NHku+HiRB7x1BIXoVJlS0jIr2frEd9NVXhxWWppYk471EtzvX59JqW5BZrETcaSpyKb00UqGbrXxKH8quiwaq8GaT1Yev0iFTfiTi8ysfEDC6dpiSh9sdPFqJzFDgyleD75ANuvVX3s70PCcWqy89lVaD1glPITqBjOc+1PxxVtvzBIi4m5H+Qa2VwMpAD6LPZSlok8r6s8Ph5HN3m/BxfDJoE3BZ/v3vvPz869vDN5Nb7ruQS/5ZBC7YyOpCoYEWyTLhO7sWnjyVZGSVWRv4FpzTmkjojeX+NHg+SoroyQC3X4Iz8aeI/d6YLvD9EzyWQXR+n8qZrpMACKtB7EsfarSTDjrYZ8HAzgXEJAbBvCnJtsUMBrMTa1O2VZCXG0piBwdWFnHVnTjKcSKfDugsJuqPvcT0xF5ZdyomH7xD0/KOsAeLNe413XYP3o3cyROC0MX4dN//OwUNWXAw4JtCvic8xYd9C1rLxzmsswaFjKf5nwBv7VedWXnr+sSZdCzrxbxtkgabGXLx15ulwvLAO67VpY/Gi86SkAkhRBc0iV0VW4ymptRtLIzbckYu6SHzJK71avvHFV3VPH8lV+TeInVTdoqTCmhxpsbNycnilE9gurCRw4yqx0Q614igxv88079PPQTRP0M97CGA75M4Bd5+/5e/uvsfl/2f70PN8Pn9vWayh4Km/86q0bA1IRaWKw7/YNTbffQ2XX34iKf5MLb2YrSY/Wa1xDCrw6QfJtXQR7q/OjivYfft1eHBo+PXrrz/NWXX1lVuv3Xq2Fv+bBnGgvjEX76AwiUeWT2YUuLdSVWLXyGrcWaXK/Vsr1XjRowVkoSw18CKgnChErmmj6p7urlDVWVyS7isSrI/maoAbdEybFuWxHyXmBDQTs71K0Ym3pk9KYvKPnj89MJ3wCCguPP3qkbTtS9OdgLVDBaHPK1X2/ljZbGLWiyX/eL8Hkp/tu/NG1lmztZl+6hGs5koLy2WkfgT6uWKWT0sx3SuH+P80YkajY86jWi2OaFTLcDKHwGVya3u4qVJngec7yXXxPT4JJA+J4xzOroNH3nwI6kOkepTAY3JPQRMIJIUTzo1FTK49CiDATA4UoiaBKs1/9MtPO5tMFlPN9q1C1qyN8PQdQsDyoN/XENgO0cKeo/kwypp91/Tj5lkvi6w8d9HzzKP9/k/eL5zg93AwWZyGYtapggbfr/TfOmiBK8Rd2FVmljgw0Az+dSNcSzkCxGyBXFaW2DHKHFeJSJ+fr6Y3jhG32SHSYt/A9Hi6jVTVaAXH7MnyaBMEzSf6zK0EmLZnhcjw/+ZEzfS2EPO9MgiPQBvh6W0rPLxLi5l+FcjNViKAOMs5x7+iLA318LMTHl42wuN4+l8eDf6nBy2kTSwJr9UhoLuCR2RF/BzIJVkKnCOp/Xq/gr61yuLiUhNcJJf1mBTVQZLvPgSUxSInptsVx6acqbBMyZSQazpCsz25rxTCOP6rAGQZFX8ROowuWQSXSGWxjH9MFubWHDUP9mI3l3EouLwoIte1Vd1tKmU3kWCuOIzkNzGAw0HKWfT3fMYz/V88aJFfSwKtaHF9jg6v9kYnVDkRes6TCPF6Ulrkth5sUFXX06Wq9UnATT2kOcBobf53AHRRtppLpcPlaVo84CbWvmr2na3Nye5EqnkH6ig1IPh4DYEnh96isScEmj63hTA3ntX/oUEqaB8DYJlZMhxJTSS4tsBNcltcpnprOhHi1KSu+qsZeo79cEQ6LjGmOe6kEMmNZ/N/E0DjOYl5IiKg5819fSwENqRIgX1FzHCho9o4IXA4kewM8cCzgyxPLuNZ/N8GUH4CQWjcrhvHXExlNPk19y5uR5bHPBZwntNrmhvPnnFExoNmRHMZBcfdrOQO0tdEqI84x2uGsJfUWybjWTOOqAEhdASMdQyQ9UpG7GmdFvdWKwhspouKJpOlCiOSPJaeqzGeMePQByKFLEuno4r21oEGqbAyYzocVkxlIJBA5HtKCBfjWTIOg4C0ztS6iJcQdcnq1DgtRA7jWTEO4zAO4zAO4zAO4zAO4zAO4zAO4zAO4zAO4zAO4zAO4zAO4zCOf+H4P7Rlz2a+axl/AAAAAElFTkSuQmCC'
p41
sb.