ccopy_reg
_reconstructor
p0
(cemoji
Emoji
p1
c__builtin__
object
p2
Ntp3
Rp4
(dp5
S'emojipedia_url'
p6
Vhttp://emojipedia.org/flag-for-United-States/
p7
sS'index'
p8
V1139
p9
sS'code'
p10
VU+1F1FA U+1F1F8
p11
sS'apple'
p12
S'data:image/png;base64,iVBORw0KGgoAAAANSUhEUgAAAEAAAABACAMAAACdt4HsAAADAFBMVEUAAAAHAAEAAAAAAAAABQoAAAAAAAABAQIAAAAAAAAAAAAAAAB4MjQBBQkABg0NUY9uDA97UFKXGBx+b28AAAAiBwjVO0CWFBclZadJDA55EhR/g4IDI0U7DxCHExWgJiyFiooBK1QPc8VWkbhxGhwCXqY1i8pwDxDVMThlFBajIym2RkquMjewJCoARIVbDg+OHiJnKDC8MDnUKzK+JisANmYAS4gARotJdZACN2wlUXRjjqXQMz6RJi1yEhX//v7nHiX/+vrTKC0BTp394eLv6OTz8e0BN3L2JS5jj76Ttthgl8f88O7GIyhVgbMIarwBRJFOeKpJg7r/9vQsYZf2+fh1lr+lvNfRFBmuHSMAQ4j+jpT9///zHSXrNz7cHyP/Qk7eFxvUX2DiJSrHERT+OUX29vL+tbj/S1j13Nv8fIPw7un/l53zvL30MTm+DRH/6ev+UV3+vMD/rLH9c3v5/vvkLTP0OkPoSEz91tf90dNvptLSHCHotLJQl83+o6iZsc0DQH/DEBPiOD3/MT39hYztIynwhYf/yc2Gpsvb4+/o7fJUibwAWbAPWZ20w9cEMWYgb7TuKzT6SFQWYqr5+/nteXz3xscPQnRfg7T+bHT/290+dawke73zm5385ufzpKbJ0tnX3N7mU1h4r9hynsmFr9P0U1mBoMYAKVzhubiQqMXnz87YgoMKY7OGut5eo9QAUKc6a57zYWdJbZGWoLTg4uSSwOGInLT+JS/pXmH4q64HesvmFx2vEhb/Kzf0RE4MSYM8YYhjf56YyebzjZDnZmnfjYv1/v7YExj+V2TtcXXh6urEKzPWT1H9wsXJNjf////AGx/NERTu19Tca2u9wMDvoaL+Ymu5DQ/aQ0bx8/hDcafAyMoFUJSNTW4mg8k5ebfJRUv7Q0/am5zrlJS9n6CmyeTK3e600OcfUYLp3927srLLyclyjbAwUXVgt+KisML3z86wZGm9bnCjExXcqqqKOFeCjZ27iIoNk9cuotp4ITjJjZDGe3+LfZGzS5i4AAAAP3RSTlMAVBUpMAoCHBAGDUzMIjr+zczhzEJm/fj8l8zMzIHyaczM/bTM/vnX/TeC/fvymbtUnpbWsGRuzmnIU42027YRiVQeAAAIAElEQVR4Xu2WZXBc1x3F6xXLllYGkVM7rVI75pjdJG2XmRnEzMzMzMzMzGRmZmZmdhjb/t/b7EqW3U76sTM+n6TRnHPf//yu7r1/+L/SB32QroGOjqE+KkMdHQMD3f/Nq6+3fO3HK9Zv/Bui9etXfLx2uZ6+jiZEV/e/mA0xy9eu2LhhWbKdXXj47mKPwKOg4nt2GzauWG6oMhp8YWT4vk/S1THEaG9at8EsGcx2RUV24A9E/YEeDq5+RUTFOh3UoP/5ljWbtPXQ4WA6EIxrqK9nvGnNFizpVji4Iw6m120rjyTXBwQEkKujTrn7eA1HEM8uxKABmM9ba3lWSz/55Msv/4roi82bN69Zs8ViSW5u3JO+W+1ll75i487MlA3lu6//oocG6P15Qsj7af/j/aBH/S0DP/8Utx30JJqXK5TyR0WloaE2KhOBICIQcL8FSI7fmK8OUOYVbh/PGh/f/wT3uP/1z69xr7dbWTHvlNwh8fkJZ0JD3Tx9G9KPDbe3t0MHl6tCvFJ9gk95jt34SB2QmNc4cHug5dF4/6P+gZalt+OsbsPyg8x8EomfEHmprDnZ2RmPx6el0XelpLgiStlFtzv5jeYL9uXlgKvlWlZL9EC/pH87j8fM4uXmFloIZaRbfs4qhQGF9qMoBAeHlEk6PmbnVAc1JF7Lo2gms4UZHT0et30pz4rHk7EGScIO0vd05zCA0OAbRWYTCGdwOIIogBx1Kj51K3GniWYEbEkfMys6OpopeRK3tHZAEpeb2ycTltwZJJFuhVwqrye8AwFK7PlxjjqAhs1n1bJamW1tsrY4Vu3tuNpaVp+6A1yoigKBXU8mV5NhL7AREjaHj0+VOIJlCAuFrdmPW1mstmttvL5cZnbf4OAdi5oEoFAKEB6UbY2ws/PzC3d1cPBASHj5+PZoAv44OsRf0spktbW1drBYzDhebV9hYQmTQeJzu5Wj7ggEe3s8KI1O37UrBYUwaYtftnKuOqBiz80lzCwWg5F5LT/nTiHrWs4gqSRfmGdxk8//Ps0Z7PYAIaJ9uCoEVHX5qIfrLlugYKIOKNiTn1OYw8hsbZVlCnMKa1mFJcI8Er9bplQqISC5Ob2hHBio+8OJ2OSMbWVXFZqAvXteCktqGNmPGTnCjuzMJSRSwvE8Pv+6WDyReCvd19PN5j0UDjc9nKMOmBhJzGNk5mRmMhhchixnSQnJwuKmVJBIE7yhdeMkklIbGwKbHFUeFOQedCojI5IcIJpOATqAEhKyKrncjmxZjUUJI5urVGLzBYlPE2kF3TgqQDgYkRzmrNnLQOJoVV3XRU1AZ8WbGgsuV8pgyDpqavJqpGLs0J5E2sSbgoKCf6WfXBZz5Iijo+OOHXhb+iRgAAGFHTGrNBReVUwI8oYqsxsrBdelWdKbSmX32B4abWTv0320XxxjYuRy+7CI5oNl6dY+Pj7W1l4hlwNd6TvkUxR+2EvDcqXczEwu93qljHsTmygWV+zbW9A5Mtr5iyPx6oV3djMhIOqS02pNQAWNpoQOBAJpVveQGCtoGqLRKm6MdHZ2Frz6uq7HWxL6LgYo8bl6hI9+2PsUKxZcFwgq86ViMVbc8bSgoLOg4tW+0RcUKpXqJillk7/ybag7cMAahogPDsqoDiBMo/CnF01NjfkJCd0d0peVUMOQeGTfy9EbY2yRiE2lUs7HHrpgRrRHWrS1nfytRdfiY/cfqgPmX2wco6qOOuT/Hac+QUsl1POxvSc5Li7n5HIAAQF0CEA0CRTkCvVGWrjy1y7K4Zlj4jxjDzmdcElKcoEA4tWtZQfqtrnDVnIPjvdJrQr0w09RWKjgLGv28oHRoiKrqyMj4dxvSD94kigHa1LS2dNOh2I9CTPj6317V6oD5ijOEsPC73nAkRvoUXwv3K8I7+h4RH4O/GDuekZ1K30vhYvz1SU+/KdTM3LtBXp4OCCXFh4CYgD/odjzFG9vb6obO9K34UDZseHhy6pDPd49o14yjcLFxqZnnhlByHTWqaleXukwbjnZTeJG9fZGIDiZxUCJ0CJQAKEl+jVf+FEdMPd5Y1M2lDhDNqFuz7qgxyT/JJdz5+TghyMJhQh+hILmWF+46pv7PdQZAYR630NOp8/6I0rimCEHezl0DCVHZQQF+4TsDptGAUpMHg6xhj3mDgreVnfg2NarxHNJSf7+V/w5J3tjz7PfKZHgOXW5zl11lhMW7uABgg5T/NLwOxAIgJBzt/e7HgpQUKEjiERwu2oo3NBQeP6w9yDcm4GaALy9PQqhh+JNoaBFPji2NSIC3ijIqQ6HunX8KcrYWxSyqfXVUQiI4Pj4hm3u5ZH1IptSN8TbBVUguxntEblhi4rodLqtbdjU5Tr34Yv3UpBQeu5Dj1euXNm5c+e335qbz0O1evXqExxiTIyLhoKJ4m5vl+fbrxARufwBakaciz/9zHKRqems2ahmzTI1XWT5j3nm5p+qAjAm5gpO2O6jVV6p1ohSvWDeZPhP8Ae3+WITy0WzZi8wNtbW1tZSCX4yNl4w29TSEoMG6M/6bLHiRPLu3cXFxfdcYSen4R1j5C7ghpVRs7aWkR4GA68wlfT1MRg9Iy1tYy1DNEDHaIGp5Zy/r1p59+5dMzOzZac5HIXCfN6cdYtMUbMeBt5vBtMfk7q68Pg0hBgD1a/6RtrwRTDbdM1WrYzRB+9/eoSq/6ILT1kjGO0tacFnw8qw8O98DsNo0wVeZOnfpw/6oH8DcRuWWsW0u3cAAAAASUVORK5CYII='
p13
sS'twit'
p14
S'data:image/png;base64,iVBORw0KGgoAAAANSUhEUgAAAEgAAABICAMAAABiM0N1AAAAOVBMVEUAAAA7iMM7iMM7iMPdLkTdLkTdLkTdLkQ7iMM7iMPdLkTdLkQ7iMPdLkS73fXu7u7u7u7t3uDu7u7r5B3uAAAAE3RSTlMAYL///79gACDPzyDv7///YL8AGxeMcwAAAJlJREFUeAHt1zEWhCAMhOFoRqOwLrj3P+ziBZgmhS8vX0P3N0wTSSmuZdUpTG27DWJ2nEqAKPUJHR9lwFx1hE6lQBWTRVW/g07exnVZfUK3qE+o+YZmkQfABQ6979dyR7mjsCEO4CKHmpPIITiJHMod5Y5i7uhuLm7pzUWXX4GDYmL1wkDxM8tqATh++A37Boqfog5eF8pQhv4LVI88awnBxQAAAABJRU5ErkJggg=='
p15
sS'gmail'
p16
S'data:image/png;base64,R0lGODlhDwAPALMPABsQLoZlyKMsJv9aWs8iH1siJHlZv/9qaJ5INS4BZmJgXqYfYe5fWt1WUD09OwAAACH5BAEAAA8ALAAAAAAPAA8AAARjEMgpn70PhGC6SYXjYNrmJcLRFFfJdagqAI60cRw6NAJxFBoPLMXzARfIZEGw6w0KhYNUykA0moRndMDlIphF7aE7qPrC0OkUgcA+aaK4o83oEViYlkKByOLzJA0/gIAOCgARADs='
p17
sS'related_to'
p18
(lp19
sS'name'
p20
Vflag for United States
p21
sS'known_as'
p22
(lp23
sS'default'
p24
Vemoji
p25
sS'bw'
p26
S'data:image/png;base64,iVBORw0KGgoAAAANSUhEUgAAAGwAAABsCAYAAACPZlfNAAADGElEQVR42u2dS09TURSF+S3+BmcCCg4Y6lRn4otEhRqiqMSRhIEP6iMONCIJYqKiE4m1USKdEEESS9REQ7EDwJKCRiAhoNjWHJMaQu5qy+nr3vZbyZ50hQ7O19u99uYQalLIU6rhCACGAIYABjAEMAQwgCGAIYABDAEMAQxgCGAIYABDrgEWCoVSlHfqH7DaXa2eqOc7dlZ1AawSgBmpA8vkDQy8ll4w+E56ExNfAGYLLBb7/r+5bT2scx13pdd16YH06mrbpLe73ie99Adkswcwiyesvs637acvmzc09FZ6fX1BgHm1h1W78gZ29swd6TUfuiy9/fsuSm9t7RfAbIFtp78U2wNYEYFtbPyx+rmTJ24CrJhfifQwFwDLJ+0V2kskEgDLBVhTU4c83MEnIend730pvRvXn0lPBQ2j5eVVYn22WK9mLVNfp785vt566lZqfOyzo3e4+Uoq8GLM0Tt4oEs+ZeFwhMGZXWKFAzMrKZv+k0wmpbe+/tvqPQGWBdjs7KI8wMXFJel1dvZKL713dPLSe0eAWQJzU2IkJYqU+PjRiDyw4eH3Be9LDXtOM4fZAtusTIdVLg9gLh+ct3oAEz0sGp13JTSAuXAOM0mRHpbntj4SmSt7TyPW5xDrzfLV5tckvrbbVnMYg3OZVlN7G9ulZy7eKE8tiAFWhGtuI2/C0vv4ISq9+dgP6TU2tAMsE7BMPWRmJi69hYUl6V04f69g1+MA5pI5rOfaoPQMcFJilpR4/FhPSeM6q6kSzWF+/1PpmY298lpa/NZPI8C45gYwW6+7+yHAuObGtr5kXjz+kzksl1iv/tbLyNzqtbmutrKymvfXJ8AcgJk9oPrEHz1yNRUIjDt6U1Nzqf7+V47e5OS0TJSjo58AxjU3gAHMTcCQx1IiAhgCGAIYwFBJgFV7XPZcrOcwAEYBjAIYqylErEcAAxgCGAIYqymKOYwCGMAogFGspoj1CGAIYABDAEOsppjDKIBRAAMY5QVglIf+jzNh2VsCGMAQwBDAAIYAhgAGMAQwBDCAIYAhgAEMAQwBrJL1F9edQwuFvxu1AAAAAElFTkSuQmCC'
p27
sS'version'
p28
VV6.0\u02b2
p29
sS'uni'
p30
S''
p31
sS'desc'
p32
g31
sS'browser'
p33
V\U0001f1fa\U0001f1f8
p34
sS'annotations'
p35
(lp36
Vamerica
p37
aVflag
p38
aVother
p39
aVstars and stripes
p40
aVunited
p41
aVunited states
p42
asS'wind'
p43
g31
sS'andr'
p44
S'data:image/png;base64,iVBORw0KGgoAAAANSUhEUgAAAEgAAABICAMAAABiM0N1AAAABGdBTUEAALGPC/xhBQAAAAFzUkdCAK7OHOkAAAMAUExURUxpcdlOYMY2SdRFV8M0Rso6TMg5S61whXt7nm9vldlNX9FSY9lPYdlMXtdMXYOBoNdVZddIWtpQYW5unKSkvNpNX9lNXtpNX9lMXtZUZM8/UtlOYHFxoc1OXdJDVdZIWtdKXM4/Uc0+ULCYm9FBU9FBU2Jik25sntFCVNlLXdVGWJuep9pMXtnZ27GYm21tnHNyonBvoHFwoF1djoWFq3Bwn3NzothKXaqqqq+nqMGTmcw7Tb9pdsrK1HJyonBvn7pQYHl4pM5CU8xmcrGxsa2Qlbu2tranqcpqdrCwsMbCxNVMXcuorcy+wceaoNCustBaaV1djsHAwLS1ta2srHFxn7+Ei9mKlMdves5qdtnKzLq5udWFj8Brdsh8hp2bqYeHrGZmlKtbel5cjIpEZmpqm8O9xbOyvldVhch0f5qZt////7IhM7EgMrIiNP/+/rEgMzo5bTw7brQjNT49cP79/f37+0FAcro3R7MlNrkzRPvz9LYtPrQoOUNCdGJhi1ZVgkVEdfHX2rs6SlNSgLgxQv34+PDR1bYlOMFLWr9GVcVYZk5NfO/P0/34+duWnvTf4dyaovXh5NF3gtSDjchhbv35+tF6hfPa3lpZhUlIebw9TPnv8NqSm7UpO+vFykdGd2Zmjvns7vrx8rUrPHNzmF5diPjq6+7M0FFQfue5v8NRX+GnrvXk5r1AT85wfMpmc96dptmPmOWzuvfm6Pz29+Ovtr5DUtaIkpOTsMdcatN/itWGkM1uespjcOzIzLSzx9iLlUxLet+hqdJ8h89zf3h3mvDU2I6OrMExQ74tP7ooO/z9/Wxrkq+uxOSxt+KrscVUYua4vp2dt1BPfaqpwMxrd+m/xJiXsstqdoSEpOrCx8BIV+i8wru6zIqKqerp74eHpoGAoua2vMZBUunn6PX19+Hh6d7e4/Dw89PR3aKiulwyXFA5Z/j4+rYoOufU1mlTekM6bKMjOm4wVpsnQIIsTJA3U86xvpQ2UZuLoqwhNWpfhX1RcqkhNurY3EBK6MoAAADJdFJOUwAd+bv+8vYD/v5HDhRZfwoHkyLN/i8/TWMq3jRO+8uhh+TpJdjU3hjPa6wSUv04oy8iWfLEiXN4Une27P78PWHxs/DakhvDoneJ58fd9v3zZ+rYp2mcSPVm6f7J7+yVet30Z/j5s/Xt/TP2/////////////////////////////////////////////////////////////////////////////////////////////////////////////////////////////nxy/6wAAAq9SURBVFjD7JdZVBv3FcbjBVs4Thwb7HpNnNTbaeIl3pqmcZYmTdqmTZo06XJO9+VpRoNmNNJoHWm0GAstSEISkhAgISQkQOxiM2B2aGKEMYsBG1MbO97jpOm+nd4ZBHYcJyen7kMfep90QHznf+/97u9e7rvv//G/Hg+tfmLN/f8Fnfu/vD7lR6988Z51lm9OOZJVuPOlFfeos+qRJUckg6L3vr3q3sqzbNFioazLgsh/8MA9yCxdt/nRd1BJ12FEVH9h5UP/qcryNZu3Lj6CGWZcCBLJuvnwgs/47orte57duPe5X65d+8ATy9Zs2LBu3apVCxYsWLVuw7K1Kxc9tvgmqu/py0AQtxETPv/9T1FZ8eTGA7vTtu37Be9Xv164cMmSlJSvPrZ+/ZatO3bs2Lrl0ZSFv31XiCqaB4MI6LRhqOS1by69m8z2vW+n7dOdH+4kVO3h63/n81EUxYRC4REuhEKUjxVn9cyUgAzS55Siyo6LLz/+SZknD6bt6x+n8cC4n/SHRm4801rlNA4Zsiq0EpleL5PkZRlba2bccVbGUlqGocLKEvG3dt0p8/hz+0NesneSHmEYhqciiJGrlrjcVxKzajLNxyAifdaieAargoisHRJ4q9OKZNR/447c9uzeN9xEUTSlHg3jTPp5gqDPIncPl7W6TIqiQqcbQaxtX/rYwC3dmKajBgLq6U7cNO6hKJ3Jr6aGxaKMO0VEcXupw1CAYqiy1Yog8u6b61ffrrP355M0SeKBRJShGap3koKPng8djTXZXSdqpwoj5j6Nps9cWFreOHFGj0EPBJIaKLnFpkCX/PA2oY3bmpqiPC/O6Lz9vQTBG6cJ0znd9Y+gDlJlgUIv0eZBaGUKKcp1kq+oOm2BHMtlfOkzr9wa3Ge3eXWmgYRJ3YnTTTyS8XuZVB1J3vgjmgwBnwvWDPBZKqkaLII0410SgWDogzfnWbL9BR1B4KZwdDREkH5aNT6CdyZ4OPH7P0PbFcVKqRSDR7BC8D59Q1X2MdaPSFG+HhXknTp+6Kk5oYP90QETVMh/3qPqpXBVepSkVGrKS/4tM1I4VVtend94NDenpyenuyX7RKFVznVAZG4tQFFZuRj54KdzBtjfpEp4QmGCpMhz12iK9tK9qVD49Oi54/PNErssFtetJoqs2Q2Qpaz6MGLJfnVucNN0upB6dMAzQOIj6s7+ME41jVO4elw3cOWuPsoIRmoMUj4m0HbFkYxSbcqypNBvvARJqzqbmmg1hUdHAyRlijIqL03q/hIxa6yxEl8wftglFsGz4sE6TWl+mxZkUMxwElCSaRAsfjCZ29tqhoBQeVQJNUFG6cA5Ble3p0K1/yqTaBvOlDW3teYcdbS0OLornWV5CilUHUX1ORrI1OrE0Iqnk4N7YDpkUlEEiXv6TQEVgfeOegm610NSxJ+g88nWzwdrBz6qr5qRQ5bWCaCKbW5wD6b3nm8yhbwERTHp0yTp1zGpYXhhf+cfkn2HEAjmDCWQ6g3dUz62WJmAEmlucOdXZoX2pvpDgdSEKaDDCZVaN9kJQ9tP4KpR9YctHY6c1jZj2ZmGPGAJJFphaM6xnbK72KLHaw1QKacdufj07OBufIOgCHVAl0ilvdD2dg9Bhj202m+iPJdEYo4ldncfi5JIpjvmsyRR4nbIUAwz9kHBX5wd3D3b/BROEv5eXW8TjTMeZgBs5EkEcLzz0KeQBLFosg2AEsxoRhBfz5K1s2RMm46qTQRBErxpJjCCk03DFA5+AoeOyuOuT7BEFHTP5DawDlBOaEAzu+CdR7ittH3/qOdaQK0iCcBa+wBB6NR0wESRYR7zz7aJyu5GYMnM6WPmTI0mM3K6tvqos6EY6I2ikg5Aiahewi9+kRvcFS+ootPq8X6/isb9oagnlcZN7TwCT23XXf8XN6pSZTGwRKKFgisKOJSAjKLqFKBEdLJCgA69zg3uit1ekqFSwwAShiaJ8wkvToXCOM6E6RsfzRoHw7AkUTD2I38eJeLaCpQvmbr8EmvupQeiFFuhMK+zP0TgugCU3m9Sh1WqwD+ehx3CvkKKJaEkQDGlPmsOJfIuLYoWZ7uuvPx1zpG8EANjRpLMcC+O0+pQU+LQ1cuXfgcRs7rZugBKWrp7KsfGKnMcHEpmq67JVQhQpSOI+H7MDe5z6ZMDw15VJ06Y/J5zZy+/d/wuDRfB0LIoEc1DIFZtEKKoMrcEEZ248CDnSN5IaNKTUOGk6trl95HPFfI+2xC7TBSOEvaaeHfRcpbZbxAMFZ0cUQ9fmn2LSB7THJuaqR+sHzx5qtDstpcE5RZYTuCoDJE47rOeto1VKMEBfK0NamVthmtiF2dtigRa866KWRWfudzhNOTJgNZKWCEKmbYiC0hSmevoqMnPr2nsHjM26KVQdZSvbD4FU1fXCox77S3O2rwo7h2+wlnf5tQqUa49H18h7A+43gv4sz7iF5RV18GfxHrgmsi/+L0VrLUTal07FMdldoD1BZxT4K+kSnaDYGhShtPhHAW/VWqryu3s8GiqACWVRe+/uYu1dih8Fqpjr6nABBh7u2jLqnJa8m3V1bbsmpbcyjajoSEPVlMBJKss1kuymru7zMH5qwRtdiPHX/8uOHK3CnRcU0aAKF+qdXbM9NXJXXN9FgGpi+qsmkhhaW19PZT/tNnucyVR0ghXCTqUyZ5dK1lrt4uRoE0rYPPOj/gyPp8DbkdJMHch66Sf7URKHApIfKg8llQRy4tidrvdao+VFAXjYtEdIuKgezCJkjEWJbbFOzaA0Fs7S3KVKFaRH+Me7NPUZndPGA1ZbBjKjG2AElt5fWmhWeN2azTmwpkuB6CErSeqZa8Scf2FLcvYsX3qO7lKvtR5jPVRsLCmmV05HPAFc0sEnSUJe5WwLAGDQE6wTMYKWZTMbNr6BW637fpJMb/4KPucuhNOGcaig39n3BKd2yfKvMqT7DKx1G96eM3sHlm9XqjPh3b6ThgL4HuAG4U2a8g5UdnTUznR1gxLhGNJ0o1AEmmxxNDalcndpUW2TYs2zP2PslViiyOiSKuCfbHiTGv2jNleJI9bXC5LHJofc8O1Vl+d3+HgrpKjHdWDkVh8tuqRnK+tnD//l7/67wHN2boG1MCoXDd584TqUuytB2BB0rYV2A6AS5fNmCuroolojnJbrc2ec7AV2Bi7s+n4VmSNwKYDzlRVumj+wYtO8tJI7WP24KfA+M/Nad4xA2xZfvXa3lVr+kHtq+m792yauGbz9RVNE7bMqQY6BliYAEuSxWvbN+/Y9YSVmRe1O+oZNbkyt3LXbVDKL10+v/9aZ8WSSkgGzSkA5d6aqtnAsmTD+sm79+wBmr93V2dz60lrZgketGa/pc373JopoPhva5/bXVWZU3z61EkmYJeGlY2J5eSp08B+CKQQABUKoM7JaRZrOUEuHoxuSABTbtVEYIle1rt7XWXO+1NMiszyCpq84uLivBJ8glrMqorWQBNZTgIBCwsTq6KcFh8XI7Y+nw5b85o+SDlSfIpNQ5BXlAehjF2AR0hUTJxX05yPT4HPXJOXS5QRV8dRTPZCWfa0692VxSeVtHiFBMjup0r6VGcv3ticd0pJnouiUQHX6Jdz9tR0MDGLUzi4wG7pu7vmlBIfI8UjC9oeclLMOgJUGOtgZ5TkGR05GjoAAJTPTQJhcs+9AAAAAElFTkSuQmCC'
p45
sb.