ccopy_reg
_reconstructor
p0
(cemoji
Emoji
p1
c__builtin__
object
p2
Ntp3
Rp4
(dp5
S'emojipedia_url'
p6
Vhttp://emojipedia.org/flag-for-U.S.-Outlying-Islands/
p7
sS'index'
p8
V1141
p9
sS'code'
p10
VU+1F1FA U+1F1F2
p11
sS'apple'
p12
S''
p13
sS'twit'
p14
g13
sS'gmail'
p15
g13
sS'related_to'
p16
(lp17
sS'name'
p18
Vflag for U.S. Outlying Islands
p19
sS'known_as'
p20
(lp21
sS'default'
p22
Vemoji
p23
sS'bw'
p24
S'data:image/png;base64,iVBORw0KGgoAAAANSUhEUgAAAGwAAABsCAYAAACPZlfNAAADGElEQVR42u2dS09TURSF+S3+BmcCCg4Y6lRn4otEhRqiqMSRhIEP6iMONCIJYqKiE4m1USKdEEESS9REQ7EDwJKCRiAhoNjWHJMaQu5qy+nr3vZbyZ50hQ7O19u99uYQalLIU6rhCACGAIYABjAEMAQwgCGAIYABDAEMAQxgCGAIYABDrgEWCoVSlHfqH7DaXa2eqOc7dlZ1AawSgBmpA8vkDQy8ll4w+E56ExNfAGYLLBb7/r+5bT2scx13pdd16YH06mrbpLe73ie99Adkswcwiyesvs637acvmzc09FZ6fX1BgHm1h1W78gZ29swd6TUfuiy9/fsuSm9t7RfAbIFtp78U2wNYEYFtbPyx+rmTJ24CrJhfifQwFwDLJ+0V2kskEgDLBVhTU4c83MEnIend730pvRvXn0lPBQ2j5eVVYn22WK9mLVNfp785vt566lZqfOyzo3e4+Uoq8GLM0Tt4oEs+ZeFwhMGZXWKFAzMrKZv+k0wmpbe+/tvqPQGWBdjs7KI8wMXFJel1dvZKL713dPLSe0eAWQJzU2IkJYqU+PjRiDyw4eH3Be9LDXtOM4fZAtusTIdVLg9gLh+ct3oAEz0sGp13JTSAuXAOM0mRHpbntj4SmSt7TyPW5xDrzfLV5tckvrbbVnMYg3OZVlN7G9ulZy7eKE8tiAFWhGtuI2/C0vv4ISq9+dgP6TU2tAMsE7BMPWRmJi69hYUl6V04f69g1+MA5pI5rOfaoPQMcFJilpR4/FhPSeM6q6kSzWF+/1PpmY298lpa/NZPI8C45gYwW6+7+yHAuObGtr5kXjz+kzksl1iv/tbLyNzqtbmutrKymvfXJ8AcgJk9oPrEHz1yNRUIjDt6U1Nzqf7+V47e5OS0TJSjo58AxjU3gAHMTcCQx1IiAhgCGAIYwFBJgFV7XPZcrOcwAEYBjAIYqylErEcAAxgCGAIYqymKOYwCGMAogFGspoj1CGAIYABDAEOsppjDKIBRAAMY5QVglIf+jzNh2VsCGMAQwBDAAIYAhgAGMAQwBDCAIYAhgAEMAQwBrJL1F9edQwuFvxu1AAAAAElFTkSuQmCC'
p25
sS'version'
p26
VV6.0\u02e3
p27
sS'uni'
p28
g13
sS'desc'
p29
g13
sS'browser'
p30
V\U0001f1fa\U0001f1f2
p31
sS'annotations'
p32
(lp33
Vamerica
p34
aVflag
p35
aVisland
p36
aVminor outlying
p37
aVother
p38
aVunited
p39
aVunited states
p40
aVus
p41
aVusa
p42
asS'wind'
p43
g13
sS'andr'
p44
S'data:image/png;base64,iVBORw0KGgoAAAANSUhEUgAAAJAAAACQCAYAAADnRuK4AAAABmJLR0QA/wD/AP+gvaeTAAA1VklEQVR42u19B1iUaZYuMzu7e3fuzu7M3Nm9e2fuvdM9nabjTBvarKjkAnMOSBTJKCa0VUxtaHNqY5tQMgpIEhERTOScEXPGhBGVs997ir8sioqIrdJ1nud7lKLqr+L/3jrxPeczMTGKUYxiFKMYxShGMYpRjGIUoxjFKEYxilGMYhSjGMUoRjGKUdpeMnos+02BhV+/YivH0cVWXpYnLcN+b7wrRtEp2aZb/lBu4725ytbhcY3dBJJWtZ3D82Nz1oWFhZW/b7xLRlErRWbLPq2ydbpQbWtPWT3s6OhXppT41+505IvelDvGnQ6EhlFYWOSd8OCCXsa7ZZTm4Ok/66tqW+drFdZj6fBnPSnmL50UK+HrfvSg9gLV19dTfHw8hYaG3z4YXPT/jHfNKHLwWMzuXmXrWFduNYY1jjJ4Yj/8hi5FJ5Ak9+/fp4iICAoPjd1lvHNGMSmy8h9SY+f4sNRiFCWogCfm/Y5UsW4bqUpWVpbQQhGPwsJu/KvxDv5MhUwaf1Fi7Turxs7hRVH/4RT3cdcW4Mn1n0uNDc9aAOjatWsUFhxMaf4bhxjv5M9QCnvu+12FjfsBRFe5vQexmVIFz6kJXvT80SNSJy9evKATi1ZQhWyi0Yz9/EzWt6bCWT6HSCujs2Vz4DSB58QYN2q4d580SX1NLRVYj6FKW+ebYcPpH4x39Wcgeaarf1sum7QJJqvUcjQlf95LLXhOjp1ET+/c1Qie548eU8ZIFzr2dX/ODxVYBhhD+vYsqaapvyq3mTypytbpBrROZndbOqRqsprAkzlpqlbNAylbuYmfH/dRF8L1ymXu3xvvcjuUeOt1/1xq5eFcKXOphqaAo6ya31EO1QvnLqMXT55qBc/1o+l06JNuitcV9B1KVTLXCuPdbkdypn/Ax+XWkxZV2TpeA3CKzUbQ0b/1VQscrPgve1PtnlBqFI6xNqmvqqHETubNXpvRyYKqxXvkmC381Hjn31GBE5tn5du51HriHKENsrGhMC35pkMo5StTjcDBSrUaSXfyi0mXPLlZR2my0S1enyC0UQ3ea8zUGT+rmz58eOg/2A+P/ZObU0Qnb49YC2+3XaN9vSKdfT1CJ3t77p4V4L7529wBLnNKre3nlFg7zCqxnuhfbj3FvdLO1aHQesLYIivvIZU2s8wLLMf1yunr37HUfPlHqaYu/zfx8+2/TzVt/NVr+ti/SDVd8Yd8y+nflFp6ji+1cV1WKZuYXGXrcE8qeBYJbXPiGyveWG3AifusB5UsXk3P6h/oBM+zBw/plL0n+0jqrpU7cAJF7YrMaJdAcXK6+Rtv16g+3p7BPn7eEZv8vINT/Hz21/r57n022W8vSWv6tCBS/tnfbw9lD3En5Wq0vgsaoELm0FApc62rtnOqrZA5llXKJmULJ/ZYmY3D4TIbl9hKmWeY+Hl3ua39j+U2E7aXWjtsLbN23CL+v61cZr+jys59b4WN24Ey2YTkStuJmZW2TmeFSXrU7H3EN7/YfCQXPdNERBSvmghUtz7oTCfHudPtvELSRxBxZblP1wgeXC9903YKDQ17Hr3/+v9+5wHj7Zj7H94eB0b7eoZu9vPeXzjZd+8LACJgZhD5eO8kV5cfyH78Gho5YhkNHrSQbGVzydIigALn7SZ7+2XUu9dksfyoR08/Wv2ZBR36QDiY4iYhakHUgVQ/akVJn/bgCvXRL/tQqjAT2MD0jubsE5zqYk1nutpwtJPTayAn6vL7DKZC4cTCkYVPUiI2vsxqDJWrW9ZjqEyE2Xgeng9TlCOucaabjE50tqRU4c/g/fG5dAJGWh92puOD7OlK4lGdvo4yeHL9vtUMHjjRsxfTrZs3BYBCKSI02emdBI2na9THPl4hs319Qk5LgPHx3kVOjhtoxPClNGBAIO3bd4TMzaZSr56+1LOHj2LhZ0+PtZSYmEm5uVW0enUEmfaZTD3E76b9bTDF6rtBb+GKFhuPiCljpCtdPXxMbUlCm9nKEiF9zHuawZNqMVxhAmNiYig8LO7gOwMaZ+eTv/f1jPLx9Q7JnjY1iGZMDyJX180MGGgUCSAymwDauzeZbt++T0VFZ4UGWtkMQFh2trMZPI2NjTTVf7Pi8fGdxr97AGLQdKUU00Hs4+jjIKvK46vXOZmoTfMgcrudV6R4TXZ2NigeD2K3/J9fv9XAcXdJ+MrXK+THyb5Bj6BpJgrQeHv9QFu3xpLDhGXUv59/Cw3j472enj5toPT0QurR3bsFgLp386YfNsVQSUktLVy4V/GcQV1cKPyDrm83YFhDdKaEvwkzKhOmb8VGqsvK05nP0SR3S8rpqPkwreCB6bwQHtPsdVeuXGEzFhmcNuDtNFMTD3bx9Q6L9/Pdw+Zp7JiVZGE+k0aPWkgJ8Zn07NlzoUKPic33aQEQG+sAOpqSRwcPZtCQQXObgQv/AjAe7mtogN1scnb6nn0gPN63uxclTJzJfsAZl8l0YvREyhjuTOlDHPkbntzDlpK7WVPSNxb8jUz4e186JPwjrGixsdF/7iDfYGm9r7J0aBKs6KbX4lpI9uHaSZ3MeZOz3KdR5frtdPNEJj25cUtv30adND5/QedDDzJxTBdoixesaPFez58/p8jISIrcH7PtrQKOh0vyp1N8Q6OnTN4jNM1OGj5sCfsoEgisLGdQ9METXB2e8+2PajWMtdVM4TDPpb6mUxQaqldPH5o5YytrH9XnS6tbVy86c6ZM581H6v/prdu87ldU063TOXTrZBbdzDhDVxNT6ILYmOotu6l81Q9UvnITlS5dR/kzFjIwlRdAmuk2lf9fvHAVPw9cnPPBUXQt5Thfs776rM5Sg6Hy6PJVyhHvGauuvKGyUOrQpN1OpmfQGe+5VwNN5v3yLQi/M37j4xmxUpiqhnlzg4VvspWGDglUaAdpATBz5+ykkOCjtGplGPXp7afwfQYNnKMWGNA8AOGx1Hxym7hS4/MArh9/TKD2Ki+EU30hIlZoUplujSjWqfEeWvNGF2KSOL1QaOXX7Y2Cx8ct0crPZ995mKtxY1eJEHsPXbxwg7Zti1O70WPHLKZ+fac0A5ejwzLatCmaBg74ljWP8vPN+k+jqMjjbPbq6x+xj6RJC82evYOd6/Ymt87ksDmO0TMVkDHMSWuFHo53igAiclNlNl5L3ghwJtpl/9rXM3ITgDPJbaswT7PIy3MdXb9+h548aSB7+6WKjVU2Y6oL/szJE8X8muTk7BYAwgLgKisv0rlz1wTwfDVea4J4z/v3H7YbjQOzesbFj2I/1j84YPDcvqv1upmuU/i5hf2GUaXMueQN5HLSP0biD+AZPep7hYMLXwVmpKzsAi1csJd/hqM81f8HNlOqJk2uYabS/v0prGHmzlHvFwGAoaGpNG/eLhHJrVQ435IJVHbAL1688U4DB3UsOMjpQxwo9qMuBkV58MmeP3ykxftupOrtQS/B1tkCZqzxtPnyj34y8HhNSrac7LfvDpxkmc2cFj7O4kVBDBZrqxmKx3btTKIjyTm0bGlwC3AADN8t3kc7diSI5yUK0PkptI7kRAMoiv8rabNp07YwAF860p6Um1v5zoEGjvGV+COU4zubkjqbi2iug2HpAWHaihetohePn2h9n7rMPIpTIqYhUw8/qMzaw/+n8Xfc41ym+u97Nitgl3CS5/Mmq4IBUZT0c5/ek2nN6kh68OAx3bnzQJi56WoBhPAepgsLWguPDxsaSHPn7uToSvU1MGOI6HZsj6dVq8JFtDeftVv3bl60b3ciPbtfz9nZFwZkc38qQQj+8OJlunUqmypEWH9itJs8HH+vY6tySyi0XgiL5uvqAumR3gNavB5lmkob12OvHzwesdNhsnx9tlNOTgUFi0hKNUfTEhzebH5ysivo5s27NEY40NLvbGWz1Jo0Kdu8fFkImyNEbHCuVZ+zZMl+9ndg+nYKzSU97tbdkY50tRTfZAtK7mnLN+2o2TBKH+rIVepTE4SWmjKH8gMWUcmStVS5YQfV7NhHl+OS6bLQArfzi+hucRnziLHRT2/fUSxtgARgpefBDD2oPU912fl0NSmVan7cT4XzlvP7HzEdyICJ/vPXekVT2tYx2Wi6V6Zb4zbcvUfHB01Qe43TXW0od9L0Z7H7r/zh9RU93WNmIJPsMGEtrVgRxh9qyuRNik1zclzOWkGdswwNs11oilEjF7BWkR5fuyaS8z3mZtNaJBTx+PHjhRxR7dqVpNYvwoqKShfa7REnFKXHhn3jRFEffKN3KYEXTIZYSABiY7HiPuvJC0nHpC6WdLirlRyUvewYlGpXn4GU2MmM4r/oxUnE2I+7yM3Rex3bNKONzwXgo4CqT5H1jLOfxmsldzSjAzt2UXhIsv1rMluxkyYLzTPBfq0wNYso7Vg+PX78lDZtPMiaB5u7ZXOsAEmc8Ek2t9hk+C8wN8rayn78UsrLqxKR1SWaMX2rWtB5ea2j8+evUaQI4dWZMZirjRsOcliPpKSkBS27TaJ9H3V/Z4uqunydTDd/ul9Zww6xTvAInyjHZ7aW0koHqt0bTtHR0RQWGhPxGjRPoszPN+i5o8N6BVj8/DaKCGuP0BJzFEnA0tLzdOHC9WYOLYCjrlSB66xbFyV8ono6e/ZqM3ApL1eXFcK3CSQnp+XCN5qs8KmGD5+v0EiSxoP2U5Q6xNr8iWm7Ak7sh53p5Bg3upF+mhqFydaL3iHAk+s/T+t1kU1vfP6cMjMzBYAi76fu/PP/aLtoa2LSX/18999DAVTZV0GuRQIKQLJ8eQjduHGHLl++xWG05PsAZD17+LZwtKWNP5qSS0lJWeQ+aXUz36dnd81+lZnZVA7noZE05Za6i7XwC9k7Te1QmKrPe7LGuS18qcZnBtA7Hj6kbM+ZWq+d3F3GNTnI5cuXubh6ICTDuk3AM3n4xX/x8w0p9Pb6UQBgqsbEnRQ6g58zc8Y2GjJ4rgIgmWfKODE4YsSCFq9BtCWZOwl0KEXAcR46dF6L/A4WHOmY6JOccASdw811pXrHHcnJr0fSob90fPdAI/wx1LjS7MZS9ZY99PDcRZ3RlbpoK2OEi9b3Ae/optBmqsXV0JBDm9sEQP6+EaumTN4rfJ4lWsEjmQ9v4a9IP1sKkwS/5bn4w1FRVy6ASiG6qoYBYJyFI56VVU4lJec4NFcX0U2buoXu3n1Ap06WaIz8sEZ2dqADf+n8boBGmCdEZWhNrvphF/s3L542tCpFcKegVER5g3S+Z/W2vS1em56eLszYwUvCufrFqznNLkkdFy7Y/3z7tgT2PySNgmhJXdiNjVTeTGgXb6/1YqPruTouPd5fmD34NeoiKlw3cN4uqqu7T/fuPeQQXx0whgnthKJqcnIO0zk0AcjWbAplrd5GZ38MprLl66nkuzW8kKgDcw8LtaU027F0uLsNHRGRVexH3/DChnLN6YPObe4AQ7vg/ZBSKJj9HZ3dGcwksmf3H7wSveNFQwOdC4rgiFGXhkP6An6Pqpw9e5Yi9gTRCdc1nV8JQH7eEUkbNkRSWdk5hfZAARTmZd7cnWq1iepCxXy10CLjx72kc+Cx+LjTtGhRkNq8DvyaI0dyKDurgnx81iuABnBJ7wWa66CB3wqz6q/IdGONG/tdM7MHrVhRcVFrSh83EevF06dMeUAJADmc+sqzdDu3kG6dyqJrycfockwSndsXSbW7Q6ns+w1UumwdFc1bRqVL1lLe1EAR5cxSLIAiz38uFQQsFMDdQGd3hTC940pcsrhuDTXcuSfe64naDWytPLx4hbI8ZujFWTrj5KtxAMPjx4/p1PRAqpR5LGg1eCbZ5/9pqn9QY1ZWEW+AhYU8c4ycz9Onz3ijXkZJch+kf7+WPhI0iDLbEOCBwwxbGxNzUm10BqD5T/mBLMynNdMu7pPWkJ0WbYNwfuuWWI7YJMADjIcOnaL2LAA8QvCkLlb6FVmFXwQAayxzZOVRkflIqrBxLWg1gHzdIwcsXryP8vOqaN++FA6xsfLzqunRoydCo3yn8Efi485QVGQ6h/G6/CRLAcQ1ayI5MQjOs2TyoCmUq++qWg1hO0L+7dviuNKvWqmHdtq8OZauXr3NWevt2+Kb0gferAHbJXBEeH792Ekutsa8r59jfmKUKz25Vac5aqt/QCn9BnMXCYqrZywWtm4wp/ekXWPhPK9fd1BhQuzHL6GDBzIo9WgeuU1cxY+NGD6fbt26J5yuY4rnIbQfYPetxqyxr88G7qKYN3cXaxk5+3AGV+3VJQoBMpg7vA+At0VoGXXXRe0NUdn9+4+EhnxZKvFu4la3J41zLTmNMobpzwuST+9wZ/alNoFfhOcnNhVXy208fVpZaT9oiZKFMpcHgPh+eYjY9OkKWiqcWNSg4NBK2gRA27rlEC1eHKR2o1GeUDZruC58q9raqxQSkqo23McKCTlKz8V7+fluUAtOmMPo6BNcm5sz56WPNnLkArpx4+47DRqE8I+uXKOaHfvpmPVow2pn73WgbOEbaTNbnAMS/lnMBy9fh9F5FTK3I63uogCABtgFNtskaBxVHych/gxvquS8gqKKHM2C+Xt0mjQJcOisgHbB5qvzi+DfrFwZztoEXCApCsR7Kpsz5I4ALvhaEqDxnOrqy+8ekUxozcfXb9K5/VF02tlPd2SlLnP9URcqXrCSzZ3Wro7CUor/qk/z7HQ3GVXZOTSk99z0O4MB5Dg8/j8AoKFDFquYk+Ybi3KC5A9hTRZONjQJAOSrpCnQumNpOV1txAbAgI148+Y9jr6k1wAAyuBA5KX62iGD59F8AVR1oFOO6g4FJ9OjC5e4Os5E+tt3qeFePdt8mARs1otnb47ygbIEqvgPzl2kq0eOU/HClZQ+uIlI9n7r0gWJX/fjNh5dkd7TutuU0ndwywz1F73lXOnhs8a0Qgc1/sLPZ+/TUSOXa9Ue6soIcJIjwtM4nyNtLHjO69ZG0dKlwS0Sf3gOyhieHusE0JaSaVO9C/kmpAs0dWBAG65dG8kJRxRxwQXSlJGe+tVgikU1HD7Dex25NJDY2ZySulqx04g8EJzR046+lO01kwpmfSdC9Y1UvXUv1QZF0JWEo3Q99QQ35dXXnH8JxLo7CiDiX1S8+ecHj14+JgCKf/F8vK6+5hzdPJlFFyPjuJKOkB/vi+p+9HsdX5naAZN1YqQr3S+v0qtCzxxrDdcqHOZCB3dFBbcuD+Szvxb96DABWMoFUk0LYEBFXDnR6OKygsrLL3BicMzoRWpfp9pYyOZoyDwuzgJ4zs7fq3WaUTqBwAdTV/ZQ5Ic62bdJeUGxBBBBz0BPGUCIBQBwMrLPQAYlwmqMYQFQ5ctCDuD32wAkaj+fXOtUbdrJ2ky3iXxKWR7TtRRuv6GU1RtFgBRxNyzss39qRSIx+KSz00buQZ/sJ/9XMmMvC6MttYkyGKBtkNMBER5EMnRdKMyf0BiaNh0JxszMMi6DFBaeJfOmaE11IdONsD0xIVMtCV9aA7q4UNiHXdsntQOb/XFXzq5jKr1+Tvlzyp+5UOs182YsFPf2IhdXo/ZnmLcCQCGR6LKABrhypY76NQEDdFSYJzT46eMkI8dzQIT/HgKAUvgPs7RWXBd+0kQ1xVD4QdBW6OxAvUsdOADWccL/cnZazqZPOeko97degtu0uxft/qhnuwMOyGqn7L2oLitf76w2NA+D5wPN103pP4S12DPhF2K6fUTIofWG18I8921AO3LmmXKqrLio4OtgY69cuUXLlwU3C83hD/GEjO4tnVhlpqCcufg9FRfXslmDhlIHPPCj58/fzaCTqvu4NkJ+beYKCxGbMr+ou9CUaz81axfUDjadwlTlT59Pt3MKDJrewXODUO7QBspPu9NtpeEOx48fp7CwA+fgFxuWjfYMnrV40T4miJ0+Xcb5GWxcUNARjrKkfAw2dcP6A9xp4a2l2U/Z8Z4fuJu5QyCTWSiZJ9VirCpQYD53706ikeKzqHPg4achQVlUVMt8oWlT5RwmONLTv3qHx74I0Bz6azc6MWoiF0uREzK4TejGLZ30DqyqLbubva6mpkY+Ryg4/2vDstEeYQ7IRu/Zk6wwX6iBwXGF34FssmSiTgozgy5UqdkPQAC/R1N43bWLJ6Wk5FLQ3mSmgEjPg5+liZlo1t+fdu9K4qRgXd09Bm3LiM6bAmZuY9MHuoeX51rF7xw6jFVwnnnpOzDhDWkZfMaUvoMoc+IUrnU9OHeh1cVXaCoO1bX9rTgiYcrcFryjR48eYZIZRYQlzjUQQLEWyAV5uK9tHmXN2cm5H2gAbCBaasCNhkmSNh8hOGpX44S5QXFTnRYCcKBRJNBh8zGuBSF/QMB2tRoGoXtNzRW6du22gkqrjqSWkVHEkZ+y6Rw3IpCqYpK5O+JKQgpdOphAZ3/cT9Wbd1PpkjVUNG85ZXsHcKX6+EB7OmYzmgnyh7tZU8JXfZjALhHt1QJR30iuSaPIyftf81ygpE5m3DFycswkKpyzVIT4h7jL4lUHMgBw6ASJUzecXGUhjfH8sXpyfnJyMqUsWJttWDnDIflLAGjQwOYAcHRsnhtCERV8n00boxW+ChxaaKSc7Eqd/opUDN0kwFN3655A/FOaPl29g47oLykxiwuns2ftUDF9voprgRWJwi00mqSlAG6Q8w25+eDnYBMfXbrK635ZFd0rqaBrR44zCEHvqNkexAQwDIYqnr+CAYA8UsGsxUzzKJq7jMGJf0sWruSJH6B3XIpJ4l73+xU1fG19OisMonecv0SnHLz1qpfBaUaOSpNUnThNFYOdGjMtVup/1thEu9Q/qGajoYFUe9KxUeiokMyQzGYWZWfLe5TQZSptIPwTtPNoqmNhg6E5MDgBhDNN/tOI4Qv4+ZZNFBP8HzkjZYqJJrOZnV1B7V0QZUHrxP/NVC/NiPyVtvAfJLVsEekhK11q5eVhaDb6iT7Z6H4quR+YJ/TFh4elKcwacjuhIancfqNMAnu5vLkW5uK8gqZP26IAHohjY8cs1vj+fYVWgkOP7Deca00JT9TT9uw53K6Bc/nQYUq1HKG3r5Xcy1Zn7ggmHkDEOR2VMtfEVmWjJbpq7yaOjS6TBA0CAphkvuDrzJ69nRoanlNs7Em1kzVwXckEKj8GM7R/3xE2nRITQPn3MGXgAaEYm5VZrtEJx3NRGmmPwEHNK23AODkNV0/wIGOOsop2bnUJt0xzcbW7LVXbOj453SX+3/QP5X2CTyAbjYo5knboBVP2W7QRx5R/j2Iqhh1gItmGDQcU9S0ATLmHXh044DTjdUeO5GpIKHrTiu9DObWwXkRm2oCNskp7GftSX13LPfXQIgbxtoU2SRs4XmcqALW7Y1YjXwLuyz7yoeiWniP0B5BXaASy0aBmVFRcUNSyUPDEZFR0qGoCgOomwyzFx5+h9SI6kyKsAbazaeWKMG4YVNUu7DQLwICF+FSA4/vloWrTArg2+uNnicht9erwZnklVU0Hots7O/alUQ4ajGVBPggJv9akINBfpiu6Y7/Hc0aLIZ042LdC5r7XAAAFr8f4lgNRGdw9KnVJIPJCvxcYisp0C0RJ6tpssMmT3FY3My/YXGShsaG4lo21eiCuWhlOgYG7GXjKdTapj0wK3aVrSmYTYMP1ldMBeCx15wGeXcjzC0/nsJq+V1pJj6/dUDTYvRXMQxGVYbgDxtnlTZ/PwxhiP+lm+MgXpXoZZjfq6i9DVwhYAur6+DGAPdN3Xl1q6rxf6VnO2B8wb94+4WPc4qlgTk15FWxMQ8MzpppK5ggaxsdrPWsCdT6OqslDjkbqmNi69ZAG7SKPsNj/4rbll+ADhUNeOlE/iApO++GkbPbHAFxcAyWNwM9lFCt9c9Fi81EXvrmHPu3BK6FDf66eIw+UPsyRMidNoxy/2VQswvSKDds5BMcMHwAQXRt3i8p4SCdTO+7e46WzY7T+AQMWzX8AMK51MSqOyldtpmzfWXTMdgzFfdn75VCGV0xMpvQfylNh9ZHLMYkaB1ql9B5Akbv3UmTosb56AihiwvRpeyki4jjXu/DthhZKP17I5HpQSKUNhIZA9ld5diEiIm1ON4qpSPgdij3VzPTA59L0GgBjyXf76cL568yG9J+yqcV7wAfDZ+MU/uOntGxZiIIbNKnDqNZ3q6pmr5sAiDIDwAeHM+6LXszuAxB5fd1P/NuP6RwIrfE7PAecJBRDYzBl9YNOL5OSbVxsLZy3TO+E5I3jp/izaaJ3XIxPpvDwcAoPPbRavxF2btHmyAUpT86QGITLlweTna3cpHl6ruW61vXrtxV+Ep4HtiC+/apUWGn5+W7kTDX8KMn0QLugdRk5I2gfVXAAlDt/TGCqR2npOeGPqadxgDUABxy1POWsNbpV9R778q4uEY3hqAQMINdXYM7Bb9J0zdypgZxcTUtLQ+dqtX79Yc5JX8iTic2J7iB4KedbUNo4fDib61uYgyhV4eE05+fXcIOgprKDqnbZsSOeJ5mh4q8pOQgfrLb2GtfgNJU0rIVPtXfvYa6NKWetrdrx2BdM70A/PQZkGSJ1Z7SDByG/NLCzqqpKzhEKKfhCJ4DsB5/5X+q40arlCWgblDJ6NGkQ+DuIrh4+fELVVZebPV8mC9CYAgAoEW3Bv4KZ1FSMhdYCzQPkeWSmNZVHJB41anPKfOztH/dpP8DBORufduepZ9ePnTB4CANeow08MM2YqagokTx8yAAKD02cpVc22tc76PHoUdqz0cjyKicBoVlQCa+pvsKO8pgxL80aCGrIGEO7qJonudMcKNRkPk9s1cRz1tZOrWvBkf7uc5t3mxuE6R3C90INq3T5Bp0JQU3RFhKQugqt4ISryuHDhyk8LPa0fqG8d/BZZKObn1Oh32Zh2iocWin8hkZAtvjSpZtqT+CRtMvgwXKHXVuyUhl08uXNESFeg4XXc5mlr3xoJ/7lwea9J5Nvp1EUJw1PUEfveNsoHjzupTPFf9mH0gaOo/I1Wwzyb9Q1J6JpgIdIaKW1LlA7j6i4uJiidu55kWG+/o/6UFszXJw3chQGH2XixJfzmaX5z+or5/5cx1L4HsJRTkjI5JIDeM4WGnjO2pKRAAZ68JEQRKkE5LHNP8RwZyxmEOFkn5LiWiorO8+r9uxVpuPK1y3+F4+fLTlLd0QIzsMvk4/xgW7n9kfyuJOKtVupKFBO7Tjt7EvHB09gXk5ix/7cm8Xh/iddX55RoQ58hgBQ+TXiWthURHXxf+tDx2xG8XkYyMvgc7aGSNaiSn/hMlNWdH0uTI3VxBC4XVdHmT4BVGLtNVEPAIWFu0/aynkeVMslCip8HfCZ8e1GtKSPpkC2GW046P+aqGEwlPLz4RNhjiKSiQj10ZuPM8TeZLMfNhGze9Dig/acK4kpzcBXvHAFh855U+cxGQwT5jHzB9SK02Lj8O8Z18n8u1z/uVQ4ZwmVr97M3RS4Fq4J8pg+nRWG9p5dPpRMh7vZ6ARPqvUorfks5K1wOmOFzPWQ7lyQV8g6ZKPhJIMNKJHXARxEWYi+pC4NmDhoHk1aCaPr0PaDYQmqEZicKuJHw0X4jsFScKLfJFjakzw4e15+hqoeGhHgeaxF0yFbn9xTxkeDVts5Piqw2PM/tftAHiEzZwUEcTYaAw4kDQRzdu/eA9oXdKSZ/4KcEegX6mgV0hBx1eEJiKRAEkOL84tXGLBklJZdpziqKrFDf73MKsDz6OIVrSQ7aeZiSlNxtdRq8mAdAAq3nz0riA+IQ38YnGJomYz0Ip4VBE2BMJmr7g7L2NfAWae6HG1orRnTt3AdrOEtnCT/LsuTGzeFSQ3iiWv6+mNpA8Zr1TwQcLOVi6uVNuMwgGGnjhG/h8yQC1q6JOTl4SYiugFFA34JwnGYHpDEcNoOBAQvTcCBH7R0yX46f/66cafb0scRmhvFV4zwwyB0Qxz5Uw4+Oqd3YAADMwCUs9O9B1GVzPlG2HD6By0n8hz9HAAaOWJxi6ka48a+rFmhhIFxL9BAGO/Sp7dviwLnooV7udxhlDZy6hsa+CgFTPDA8U6YumoIcBBJ4ugFXdM7nly/xe3aLY5Y+Lq/8IMmUIbLql6aT1q2LPm9umw0zJgydQM5GGgWzI9W7fWC6XudI1Yw27Dhfj0foPbwwiWOku6VV3OkdOP4aRE1pIswOI2up2bwQviO3+N59VVneb4gXouKOirlrT389qeQx1euc2a4Yo2Iioc68sG9rTlCAUcxoDNFV6sQckbgH6nNUgsA5rhOoaj9sct1JBP3PsZ5YNqz0d6slZRBhagLXRRt4RgjDIVtB33i4oF4PssU55SeFH/cUfPhlNzdhivfqHLLD7yVt+CADiH1WUn/f9meI8+9xIHGITYCB+PyoSz9h/LEDrTZZLlNo4LZi7nrAmR1ZG8ByNs5hXLwYWyMiEwQ9qItpvEV/1a8Xvoy4PrXjmZwJwfSAhjWgLIDHwz8CkMYUGjFtXVruGfcK6bpWrhnyUHBFBpyoEIHN3pfjZSN1mcBRNOnbn4lcwUtAPUMnkzetEA6Lpw8jiaaNv1NZYQZnE0glEbFALhHmk4EOiYiGfRYnRznIecSeQdQnv88KlqwghfO88KSfkaLMth/OG4AM4FSLUbw6dIJX5kqDn5pq8x40jeWVLsnTK8WInxh8fm0ljnEtSorK+Wdq/sr/qoFQMHpLs6b2AFGHghZaW0FUYyja43WgfnA+VmYqoXuAhCq2vqEm5/jAmEOJ06j/0yfw1lg1rAHWs/XcPJlQv+DBw+aiqvx07VQW0PC3Cdt4w4JTFdVd+KgNI8QpQJDTROa9RA9pPQZ+Fa2Gr+7Z2z0ohzfb/n+kp6HEMNsFc1focN/MhdgfJkvSkxMpLCQQxlaBi2ErsWkDnR8ovEPZHrVLDLIYWAkGlLQuxSTyA6aPmefG5f+ZhZhPMwPDsszxCfDnsBd0MVyvC78MmUpKipC//zzqKj6/9QAoH0zpk8LorNnrzCAUBfroXSaDqIvtNXoI3A2zwcfEI7vsDbh+xqXHDSgyuJAuUvRiTpzOmpD9Zt1fIqjrvdC8NKCkFZXJyeZ7U101MCNDhs/b+4+OpyUxUMTJH4Pz0RcHaGXvwOnGGFjqsXwtvdrlCraUNtJ31jwYSOIWo7ZjFG/ZGP494jg8PzEjmZyjnKLyvpbygcSfg0+O3wbdKQiEmxszaBQYdowoCql3xCd74mIDH6POomLjKJc+2kH1QPI7UB/P9+9tHVrQrMSBSZz6CPoXsDgx7b6pmHjURwsXbaeBxwgrIadf3JThNN37vJhuzx99ckT+RkYmhZ+//hJ00DM+6wdn1y/SQ9qzonPXMSdDJeiE/gwlIo1W3lwAm7iaQdvPnsUWhTg4xG577Uh8N6XVkcevInoCaDHcd7g8aCqDlqGrgSgPuwC/G3xX/TSg94xkYdNaJKK5RuoytbxwcluYf/SAkBujkc+QzLR0eF7hdnSBzzIZ5QuXcf8llbNyRE3EC0pOMAEh5zcKShmgPC3QE+n8PXUDRp5MthzCXwCeGjTAfDu5BXTjbRTDDyc+47JHaB5gDlYOPs7Hi+XP3MRaw7QOfAzpnkUzf9ePG8bVW7cQedDDtDVw8c44Yn6VMPd+wz2NvubxXXQpHhy7CT9DvW1Ga21Zw7zh9LkxyNQiWVAy6z0GNn53wFAw4bKs9EbNhzUTdQWajHNdozBURVUM+b+VW/dw5nitubF/NwFYAdQ9R1cjsFU0HYaUy9CSbAb8GkPBlCxlfMoDbmgoEejRn7PPVnafB7UZzC4SWrK168N5Rs6PtiBz/XCN67RSOloc4GmhLlHh6u+7gJMNLhE2gRmHc89Ig0mt/K00TBoYX/1sqURWqOtp8K8qPZUa1vwHaDKcdjai3Z0IMrbU6Jv5CHnNTv26Q+cJvAcH2TPZlmb4HwNqYsV585X2014kWq68b/UAmhWQMjxpKQUjRcDEQlvqi9w4BMw/+RN+jLttUovIl6Y//IVmyi5p63BDvwZ1yk6T/ZBLY2HWGE/hdsh5wZNitOYTNwfFB0aFxen9mLQIJh0pTMzKrz9ogUrdSK7zb6Az1/ITyN8pn215cmBb0bRNHJ963Z2AffXo1jamqM64X+iTqdpVqKyHyUNskJFvthsBOitD3P7B3ymEUBhIXFrMHRaVdASixyKzrEiE/3l5ze0hcYR14CvhZsGLXbrTC4n0DD4AFEfzklHV8UJEWWcGDOJ0oc5KRa6LJR/xsJzsr0C+DWYbYjjLCvXb+doCNny68dPMQsAh6EgPYD3xbccB7T81P4awAJzj7RDnQDM2Z0hlO0TINc0rT3fFdnrTmacT9KZrRaRJ9IY3NAowFPUfzif6lNiM3eg1op8eGjsdGQbnyolkm5mnNHYjK8Yo9bDlq7Epxg0EFtdcQ/+FfIyOAYb404wwQI5mNgPf6JTmZsO4EXZBZQKOJgY1ATwofUGxKyylZs43XAx6hCDDh0WMCUAHlqDGXxYYhOe43xW1YXHBTj53Na6O9wwCJBcO5pOtUHhrB0w3wdJUA5S2uJA4Pc6clcrPqM++yCVOuJwlBRrHoeGIqtvh+jszogITRgHAN27J0+T30g/rTPSyvaZRY+v3miVhsGNhHZDywu0BIedH3R+t0oMHygDrzMzBnHPkBiExsBCBhi959LP3Hsmnhf7uk6NVsyi7sgjjM+HHNQrg80V+sWreHADfJ5i85FUbevwpNBy0UC9OlSjwtL6AUDXrl1jn0eb2Yr/ypQuhMUYnFpHsgyMwfwZC/iPM9a5Xk8ZBEQwVNz1HagF8IBQBzAnCHCXWYyiGlvHByWWHlZ6TyuLCin6FAAqTj0uJ21rSTxhaJIhDLyHQn0iW2twxGBchp2xIUwvfDxkoQ1xH3AAHrowDn/Wk8fcVds63c63Cuxp0MTW1AN//i2mU8H2a/qQYOHpj+oXnKqH42pQ0tG4DNY4+GKWrdjIk9QMSj7er2f/Dtc5+re+VCUbT5W2rhcLLGZ9YdIayXOd8RBnaar7oDh5T5/iHqIIkN1PO/q8GZ/mLT0fo23/vk7MEUfhF+NbpNk+hpH3rynI9DgGvNrWnqpsXXLy+y36U6vPk6+0da5CL5Bq4gkVYp1RlgAOKJUY/89U1TY6pU/iDcf9tTuraNw4mFFU/1FTAx85f9p8yp++gNV3ufgmYuFYAjwmrVzf2Uyix/HYaXbjmB2Ja4Foj8QnBiqwKfhzK87IeM2AAT8bfHFEZxgMgfPkX2Vg6K3T2czvhtnCYE2UKCpkrlGppmH/avIqUimbmFYo4v5m4FmxSWcuBBFV1cad8haUVwBLNB971J2Se8g49Cye/z2T026eOMOHkyB7qomv0hpBQg3XBH0T6h/BA1faD8ZzvQ/kKoAv03UKnRztpgAdAgyQ7XFAiwTwaEPHyChN7JBI/EghAMyHu1oLsIym3MlzeJI80hvKFNNW/70PH1HF+m38uXF2fImItGrsHF6U2fgFBpoE/tLkVaXCxi0EI++lP1IneITWQQIO+ZLWOn5oucHAa2gM5JNAmdCVKX2jZQQB4AZhMnDYiZxXVMjDKy/HJnFLUO2eUA4YAL7S79bIKR5KmhAL/HBoSTwPyVF0pgAk90rK+WgC0DvaWu4WllD6UEd5m/PX/dnfqbJzvFVqOVVm0lZSLnNfXWUzTi/wIIRHP5M+ZCVV0OBbBvODTDA2wVidf32ChCX406wxP+rC7cowWVUyt4wSs6X/36QtpdzGZRouXjBzkdb6EewvCnKG1mHSB08QJimqTdSxUXTzgmp27ucTp2EqU//eTx6i2zk2lFp7zdHa795aKbH2GJvnNpXu1mk+W+pucblufq0yRfXLPuzoIqRvFafXKAYJvpxoi05umtyRIHydvD6DWeuIED0/32zm1yavSzKmbOwbuTeIs9Hq/J3raSf1c5SbsqGo7bRmQKRRDA0GnnCgkTt1Hvd0oYyBQuipLtbs6yCrXGbjMXNLx+x/NHmdErG/8K/IRtfW1rbI7YD/q094jhEh+QGLuKf8p7p5TJa/WccLTigWgIslPf709h1e7zq1Q9lE3RBf6EIR1qPWxjm39+VzfdIFiMqtxkDrNAq/Niy336I/m/wUkhzW4d8BoNLS0mbgqfphp+6koNA6yM2AgN1W8kyEnQDBjfRTdE74Tii8gqh+cpw7h7nIwGIKBXIkyBFh8ZDMz3owkLGgCfl3OJJALFT48bpU65F8yvFpJx++JhxNHK90bl8EXY5P5hZsRJh4fwDvVTskXinya2jgLyQAU7FuK6c4cN6HHDQdFQOh0jtZUJnV6Ka8jltGkcWM7iY/tYSFRj7IyckxCDzYxHNB4a/k40AzQHPg0Fx0MGSMdOGqNtNJ3pcPPHjtPVxKwxXwL/IyfEALA8+Sv+kZw50py3MG0x5A78CZqjhxB10WtzJzubPkflWNfKqH0HzSAS1YytoPZQQ8BnA+vn6DgQrAArjo+KjavIunhpwc48YzC7m1SE1uKf6Tbmyq4CDL/Ry3U4VWATYmb0rCQg5Unjhxgn0e9BTpAs+p8Z5aWf1aQ0xx83DALYjbcMyRE3qnShHvq0706NAEuu4MfIXmwwlBHc3osIiIpAVNyI83aU9oTUSq0RKAtfSeQdugdgXnGCUIJANBNy0wn9Lf5E1LWGjMsZQjRzgDrM3nwWZDOxmaGX5WX0/Xko9xkTXh677GYQv6pkEAmq9MKavnAKqwGSfP5dg5XS+TeazIsQz80ORtkfCQQ8GHl63WeKYUFrg8YCsaIhgEgE7TZAMGQ6rewETxzU4VNxG2Hl0C2eJm4ltY0G8os+dUFx7H7/E8FIkzxOtSxTcXtIW4j7q85WQ1Ob0CnznPdIg8mpKDpr5S5h5caO0/KOzzsH8yedvk6OIfVpUPcND4h2EQlCEmC/kf+AxcN9ITOAAL+pBOfGNFuX0GUanFqCZVPUGxKm0nPKuSuVytlDmWVNu6n6iUTUgulzkklls7xuPfCvFzlWzSiQobx5JKmesVPF/59XwN8U1GPQggy+xhRyfF+2EuIN4b+ZPYn4hNgJAbYEGJAUAv6DeMPxs+I2YUis9fWy6buLnEasqAsG4n/8XkbZZSK3k2+pDqSBax+SDOa+ufVk04Yoo77Lo+NxE3EBtYKG5e1UuwNFbJPM9V2a44UGqdvKjI5jfjC6yPds3o4f/HQJNRBhX/yCT6F6mmwf+V1a/4mxLrz4aV2hRNq7AJ2lhhsyS+0nZKcaXM+T7eTx3IAGB8LpQBsgTQsMn4rNAO2HRoNZgXLMxXBgCxUpoew++PdzDj58PhxRBvXAuE9aZwW7GqbB2eVtq65AAwxVaeE7LMAv9i8i5JibXrWPwhiZ/2aAYe5HaePdTdhgyeSUHAYnYK9QENjpvGWH35DXR4USmbllcmO7CixLLnwKTuS/7zp/zbD/y9+28Lzb7+ssRyrFW5zS8dy21OfVsu27upUrYmrFI2N61C5ltWaTvpujptZsBqrLR1ul8lc6qokDkfLbeZ+GO5zGN2uY3niEKzGV9md+zwjybvsuRbevTFH4pvkrTR4NfqKngiV4HOAuZSazFVIGzj24tvNatoW8cnFbZusaUyL+eMHo5/fFfuU/Qnx3+T0k32p/z+9z/O7hfbIc9iY/cy61V9qmxXm1ZYLetfbb2wX5Xd+D75VvY9c829OpWaL//ocA+nP677kP7ZpD1LVt9vP8HGQjVjw0uWrNWZ34GDDL6MLm0D8lKTL9NYIXPJKLP2dk3vuel3JkZpPxLfJf7fACDQHJGf0UrpeP6Cq+vxWupj8AUK+g5tsu9O9ytkHuuLzBZ+arzT7VgqbZ3ry2d/pzXHgywqSgCaEo2HP++lBBzna6XWvjPyTAN/a7y7PwPJdAuoOHUsTSN4Hpw9Jx+0oMbXQWpd4tkK4NwQZso/u2Pgr4139WckkfuiUpKTkzUQsnPUNwUKTZQhzB4SXtW2To/Lrd2XZpst/Xfj3fwZSnjooaU4gP6xCjf5UkyC2l55ELSR02iqAicUWS/8wHgXf8ZyMKzks9CQ0BdSVR6Cs6TUJQWPdzSXE7RtneqKrafYG++eUVhCQxLWgRtUVlbG5Hmpb0q53IAaE2sdG7eUV2pIM0r7k+zsDv8YFhIXmbpgGRX2G05pHcx40GKyiK7g6zRljxvLbHyWhJm8BoK2Ud59CQykXxbJ/NxFWH+hRTpe5pJdZD3TwniXjKIbSCbzfpln7vf3Agu3YSVWXgOy+31rdJKNYhSjGMUoRjGKUYxiFKMYxShGMYpRjGIUoxjFKEYxilGM8jbKfwM0JOFWL+RO3wAAAABJRU5ErkJggg=='
p45
sb.