ccopy_reg
_reconstructor
p0
(cemoji
Emoji
p1
c__builtin__
object
p2
Ntp3
Rp4
(dp5
S'emojipedia_url'
p6
Vhttp://emojipedia.org/flag-for-U.S.-Virgin-Islands/
p7
sS'index'
p8
V1142
p9
sS'code'
p10
VU+1F1FB U+1F1EE
p11
sS'apple'
p12
S''
p13
sS'twit'
p14
g13
sS'gmail'
p15
g13
sS'related_to'
p16
(lp17
sS'name'
p18
Vflag for U.S. Virgin Islands
p19
sS'known_as'
p20
(lp21
sS'default'
p22
Vemoji
p23
sS'bw'
p24
S'data:image/png;base64,iVBORw0KGgoAAAANSUhEUgAAAGwAAABsCAYAAACPZlfNAAAKUUlEQVR42u2dCWwU1xmA3+6sd9drb2x8H2BsJAdqGzuFgOMeiAZK4kBBW3zEGApN2sRq0jh1W3AaYlJhcJuSSjSIpFF6uKRVVEGCKOWwW+Ig16WuE9LEQZUT0UtQKa2gpSBxv86b2bmvN7s7s7vh/6WnGc/OvuP/3vG//723RhgkrQSBCgAYCAADAWAADASAgQAwAAYCwEAAGAADAWAgAAyAgQAwEAAGwEBSBtjIyAiGkD6BAwaSHgLAABgIAAMBYAAMBICBADAABgLAQAAYAEt52bZtG8ankBgKCvJucWAyZZBw/V2EEUoNx/+M6WWa/IkhxYTTmSqP4XDIeWB6YUME4TNnzriqAL/fx6VdnK+fp/JiJmlwdu7ciXdtttbbgQMHnOkSH2rz4EtvISp4hXkuKOoUXV7cln8eR9R527t3rzNdYldXlyaxr3bSZaqizOcIrDf3Smnk5yYP2NDQEH79p3S6yAzay1/MwK5du2aakaVNCF99R/u8arr2WSLHvkOHDnFxXnzTXWDza71UgIZ/hPB3emLvAeLqEtvaWum7IRvhyYcRvv8+HmR7e7sz3WMM0t3dzeVJCFZp/GUY4St/sll+V8x6nRbzv4nEQgyFgtTZMW1dMQB7Z7/9/JoB/cfrCHs8ymcHDx50bx529epVqkL88GnEGir8/dRh/ur16r/733HtM+67FsIZN4lsXarvDr2kHyfJm7y7zw7x0NasSKwhlNCJ87QcryNdpDzs3r3bMP3pJb7EWomq71G1XDbMq6EvT05Odgp4OqKZ+cX3eONDL6N//nUc4BJh2scQ1+W346tsc29H+O3X4htHHQVmFO5q4LuLx9ZaF1LXPHYDVgzxtSxD+I45CGdl8nDM3q2cOSPFfIkOdYnEU6CeBpC/62cbj10PrtZ/3traktAyHHmR7r0bk7FPLRx1/u7YsYMzKno2GGee+CA/HLXXKtDsLj4wmebWarBQepeEULlhK9u+fTtGWRXSu2wlODNCn6/SQvPPydyLxDk5OZkG3voEtKx//U5SrgKCUyEjzKVVVsQkJP8vP5OYCXtCgJ07d043yOXme7EXVtMFugGMDbSVzsjR7ITD2RIYeuu0JqhlYGBA886NGzd047ujYa7CTUPmZuRqVuC6aqnAwaAnpYC99hzf3RXlITxrBsLd6xD+22/pjJqzZ89q9NbZ2Rl/C1NE+ssjlu8w1XM0n0c+HxHvjx8/rlt4o0m0PDCMi8DY9P76G/s9wv5d9N0fun+9aWOIH5hOpFNTU1SJlvQjvG/fPk3NfeNnCC+oQ3jLI9bK8PmQq8DMrFVilAh+ReIB6e9GGg+QFQTUtjbxwO5essQ0UvSDH1MlWvAo4qCJK62s5OdPUyji3mVeHAoaK+rOutQAZjWv++IDD/C9TV6BObDVaxIPTN3KOjo6jFugwVIJeV74dQlY+B7te13tSgWsWGxghBQ2Oh8CebpplxQo/x4dHcWnT5/GixYvVpSVFgCKtDsPDA2dMPzMSC5fvszBEoCRa03txxTvLF9+H6eEYEBSyIlXjGvysVADF5z4W8/bbrbYKJQdta2zBQCtbHEGWE9Pj27ETEWVYYIbN24UIQVKGVzwuBKYcK+wnN5QOUfDCP/nD+4Ds9MFiuWfeN9yvNcAWx5xBphRS7LqDgkU8lwAVLyFhVfOaFqbIB6PR1SIP8NcUW4B+/D3HsN8eGvrxbKj5pUY7T8m6sPLWM+/uO+4AYzMvWi6QzksdSBy2yptSyNzOG4zisEkWqgYbgGbUSrdkwolpH/z5k2p/N94StLH2HsafZDv9Pf3a/WzbIVzwO5tbpYi3/UTXFM3lyqxwcFBXWC1c2u5a/izxvMWoqCLFy+KChvo9Yq12ylg6vHr0U6+ktTX1xrPPcNhjLZ8VxrLNvATb9SxwbxCL212DpiR58PMOiRy9OhREVLOtBxxLDPqFql8k062MIrlF73yc91gIMB/PvEBFQj0mWXJAWYlBEjeg/rdovB5ZVUldT4YxusIsKOhenzhwgVzHUS7xWBmpnEFlgVuXDaKa9ESZ4H19vbGBIz096Lh0ScBI4UhV282/Xa3YNDPtQAngNlZDRbKLng0yBINmb4IYxiNbtCnFjsLTK+VVVRWUbUwJuDFExMTmPEx2D9NshRLvs1fSWHtLNeQdbREAuvPnCXza3ro9KCaJKOHu/m/5zfSmfVNi9wHRiMcmK3aFqYexzS+RpX8/Bl+x9XOb0WNkEBVwoAJsDifoEUrC+fk8t2d1yvBGp0UIY6NjWEPOz5Z6nLhJ5wHJmTSDjD5ZNkoeEPstbTYuGs85dy87Pkt+nH39fXZGsvn1NTY0+Wdd7nfwpjbcqi+F4lEcMXMCl2AhT3mFiPXRan3RZySraUlyIwnu47JJs+RQfPNOsJSk1wPe/bssb0gqdZlSVl5CmwRkElRr3ELGx4exv4cH/YV8koi+/dXrlpp6SryZ3jxlStXYgL2SYavbJu+xMf1/hEpXmFPB9lyrTB6QiFJyVFf4Pnz513Rn+vABKtQbmzIQ2472zUyHrGl5XdJirM66XH9+nVbwMoY5fbvJx4yrhSkQhi1CrPzXGkPTBCyRBOs129pCxsXivcMo1Qc2Rui8EQYTKppvPGbu5DhOCmkoVjyEYAFo/OvgiJ86dIlV/WWFGAERLCBbTHzeChFTyqBZZQj0WlseyNo9LOmpiZDYF/pQPj7m5BuN9bSslpcKFWnN/oywr6MDNvG1keihWVlZ+HW1lbcTPyTMgcx2QJAlPPKs1qFlRX5uLFm3sfrNfEdflEab8heR+E7cmBCBagoRYpdXGTs1HNaP/Fl/Ypye2Xyzksn9VcEOFM+zLYwdk7F+L2KFvLSVklBRfkM1URaCHc3Kv8mFt+vdvPbpxvZbjjDpz0WZHac6eTJkzqGDsILFsy/tYBZKZ8A/fsxewcWTr4q3V/4owTkhacRjizl77mxi712rlCd5TIQb1Y2Rq8OY/TUAPfe2s8l/uRo+gJjZetjUWBbkbUX32B8+/R83nUlKFcdhIMYj39BenbtXSmtdetkS/0Mo7i3cwDvlgCm5x3hDg1a+BVN94FEDwn+e0x26vF56f6RNQgHAhn8+LWq1XQZiZlVnTR9pMUv4QjQ1q9fr/mMW8WVmfzyQ/Fmx1jlG33qqmUHLeRwZsr2q+QX8NfuTUmzENMGmByah52XVc+u1lh0gvLJ2SxyPXdCC+ywznEg4azx+Pg4la8wmSZ9WgFT+x7VP0CSGbR/YFy4Dg5ox0nFuDVvoWxn1AdspfEBMFop3hz/CUzBcUxCwxzGljc+ma0rLYHZmRZYhdzcsD6sb/ZJgManAJjTQla14znfTFaNFWY9Cc++EDU6egGYE0LWzwa+Ft/PPnC7oLLDCnDcTzYBMOfE78+I6WcW5PM+Ji9fBJhsgZ+QtSFkvQ2AgQAwAAYCwEAAGAADAWAgAAyAgaQDMAhp9H+cod6mlwAwAAYCwEAAGAADAWAgAAyAgQAwEAAGwEAAGAgAA2AgAAwEgH2U5f+PslWRq14YtAAAAABJRU5ErkJggg=='
p25
sS'version'
p26
VV6.0\u02e3
p27
sS'uni'
p28
g13
sS'desc'
p29
g13
sS'browser'
p30
V\U0001f1fb\U0001f1ee
p31
sS'annotations'
p32
(lp33
Vamerica
p34
aVamerican
p35
aVflag
p36
aVisland
p37
aVother
p38
aVunited
p39
aVunited states
p40
aVus
p41
aVusa
p42
aVvirgin
p43
asS'wind'
p44
g13
sS'andr'
p45
S'data:image/png;base64,iVBORw0KGgoAAAANSUhEUgAAAEgAAABICAMAAABiM0N1AAAABGdBTUEAALGPC/xhBQAAAAFzUkdCAK7OHOkAAAMAUExURUxpcRsbG2JiYjU1NQICAgAAAAAAAAAAAAAAAEBAQAAAAA0NDQAAAAAAAAAAABQUFJeYlwcHB4aGhQ8PDyYmJgAAAFFRUQMDA1hYWIyMjHp7eiMjIywsLEpKSnJycgcHBzw8PG5vbn6AfwMCA3R0dGlpaZOUk//////+///XAPz8/ObBAfv7+gAmaOG8APvSAfj5+P3UAP7+/vT29unDAO7IAfLLAezGANy4ANSyAdi1AQHL2+7v7/fQAAfG1b6/vfHy8c+uAOO/AMo+W8Tg4vPQ1+Lj4+Pv8AAlZu7z9OvmzdrEUevs6ubo5+rJH/f27yR8EPLw5KPX29a4HhuABTJ1Iurlx7e4t+Xanp+fn9y8DgvAztra2STE0PLNDPj39Onhu+HUkz+BMObIKtG6RdXY1NNacrff4qqrquHLWymwu+vn1kuEPiBxDfTy60vI0eTfxMmqArzPudjq6xfG1DLG0u25xOKVpe7LFfDH0OTMS/Dt3srKyrufBQG5yOjo4oWpfdi9Ls/n6H7Q18k1VOmqt96ClQWvvT6/yfbQBuPRcMixQd7UpHHFzAwpY97EQOjLNbfW1z+4wc+1LJPS16ampsXFxe7r2ejfsc7Q0FSKRq/Dq1K9xtfBX9nHbuPBEGO9xMq5byu5xMvCiOGirM9GYtFNaA+osd7e3uXVhODSiSA5bRMyaKW8nOHbthsyWaGGBn7L0WGSVonGx+TGwtp1iuHZq7lrcl3GzxqzvySlrthqgciJfLKysoR6JAMnYjVERnKaaNLi4dri2Ji1kX6idHWha2nN1DN9Im65vtbPp9nJeUhOc6mPoH/DyMitHt3NgMW5V9CxDNFoeK6kGOvHEKehb6OOFzhLX09WOLBvSKuXG1ljhJYzVF+DCkctV7xLSrWORbabUsqHGbwvP6e1f1lrjouXq3WDnNnCtMKfrrW2qluLUbdQaaBYc5dRa4KKBUt/A0q1vdC4AaFuFWaXW5CkZDybd6iXMNvaw5i7psGTj0Ked9/g0+XS16HAsTtm84kAAAAndFJOUwCf7spRSAshBNgsehIZPpD+ZfqDuDPjXen8963B3fRt0PP6WPbz/cMQ3VAAAAkQSURBVFjD7VhlWFtZGp5AUggM7l6g7Inc3tzcuEJCsAQLLsWhuEOLFCttoQUKFOru7i5Td7dxt3X32d0fe+4NwVpmOqXPPvtjvj/Jk5zz3u98530/uW+99ZP9v5u5E9X67TeA87Yl3deVYjZ9HJuAPSy5m82MaeKYUWZFAQBC6RbTCw/N0U0OcQAyy386MBYOXu9ggLQiivlrB8fage4WCkZsjun3hXuGlYU11cXOzs7Fn0qztnaysDAjzcKJZmfj6Wo7BzegsEpjsADaVCBmVEsPUy8Tb3d7e3s/91m+Jiauzl70mdDoXq4B9ivXyo3egKT+JJDq8FIYK38K3dc2cE4kD2PhAGexEIwXJI+MigoN3RMaGiXn4WDM9E3RWrDW8yWkNPPxDCjag4FXs6xlws05eJCr9QtRdPF0X/CqKABgOZkiwV4cd7OchGNBMVmFvDIMYKU0CPjRSQCs8ph4NpqnrfzVYQCeHa1gi3RZAER5jSe3OZWePJU7WFJ2xQs/agcgjroY7mH52Y0DotJXTfVsJCe6oSmbNeE3hrZfyOaz300hLjGZMiZc66lxsN54MV+RlzQBO7tfrOarBU2kp6H0UXJbORYZ+MGKaS5dra/IwlgM46bSJ2kSlYCzbOzgDP2+aAUKcdSPccDAAOY9KlzLWTxiRUz23qa86OiBfF3x3pQ12dmric1ZzTlDIi5zoHkEJkab0rRUIVax4dlyGKB2EAcrbYzC9QwklqwublBwFEKBSAw/lmY2vJu3l3Q9SMdlMpcuyyIvS1scncnl8sVqISpoyGbUVnYyoHCtjEALCI9TRCIUVbPZfLFKDH3gqIVLl8XAvacamEwmJ7/NoAoFX8gkkFCB4F5W2AZlJQ/wTIzCdSQ90nYIhQK2Ws3mo3wO3KtQczPXQKCcTAJId0gP16zJ5LDhfxwVquDHawHvqCxjIQC2RuFSigigiqbNKFsEwURoNQr3cgUczqYofPXGpfA7kxPdyyCAuMRDFFK2ml0M3V1Yp4xjgAWOI+R2sCUvVdvbn7cZno0t4kv5MC5cbuZ7n/wiMF/Abrn4vhqek7fWNp6pgP+wJXx+fxXkVkSl7BYG5Ebh+tiP8F5fuonwiK8WSwTQp4Z9yQfC93/w4eXDl5ZfvnjR7+f7D7w3AP1jilF+/N3BCMiXTll9GMDdfAxALt6jxNWn3BtSs0UCVCVkMqMP/ebA7PDw2aSFX7oUHh7+y9JiDpMjRdMea7aEwfWFdcpCAAI9DOSmmYxmD0ZEUFLOpqE0NaoSMbnRjy7PnmgfbIdA7Go0v62zngAKq5d1IqPCdXIeET4eNvxQDtau/y5nCJVI+Aqm8MPw2dCj8FGgwy0cJlcqid+uqa8P40UxsFuyygiAuBuEa0Y3VAWGpju9kwVqbrcHJu3LV6vECu4/P/n8/v3P7x/ev3/5geXQDn8MI6RK235ngyyjNm4QMOKUdYUIeMcgXCvTAgKGxbiaoYwDoKa8rKwGS+oQsiWivBM75+8IPvG707/+9MHv//Dg0wc9XL5EFF9Tci5923C3BhIgQ7YhDOwxCHeGI6Q2oqmFJ67TYAXXExMTj10vSMlLY0sl2+eebAxuPDk3JHjx/F0hO+fr1BKU3388fcuKO2eJKEVUZsQhAPOlkkCUQIDFQfyFdRm1UX+LLS8v/21uDdJ8SteR1vNsV8iuHTuCQ+YumRfceP7ZEwnK3vhdpaykZIUMygPw+uIIbRuEa25ThA3XKYdZhcr6CLwmtzw2NnZd+zWAZ+mzt59eFPLs5LxF85aQTgX3xOt69Zpt6V0l25S3IATvKplgCgzCtbSNeFgn6w6LU57BALI+MTE24WZuO0ku/VffkBjzFwc3Qqe++fJUBQOEHi8517dhRdxo1jIK184ejzgjU8YNKzthhgu6QrhUfuUacQOH0r7esRge7Hwj6dQXX5PpVVNS8uduzbhqgRuES/VmMQozZGfOKIfhQ5D2xHWxCbllNyApmnVS/sYTwfOWwEgRTl1AhwiNFZ7dvbtzQrUwCNcaUpvXJ0svIfgO8PW5ZesSEmKP3Yji5Yik4rSt8GCLGs9Dp3boBJKOFAQCdW2rnZDb5c5ORmpDRiiJ7AIT/sGy3IQE6FP7jR6JgJ+29fTJxkWL5+8M2XU6XyxFN5/CC7u6jk4sX7i9D0lt2MdhR5UyUj8AtF3JLYuFSImfqaUSUXFQ24UTO5fMW9R44d9anVCgGkqK211SO6nckMJ923QO/LpwmyxDQ14Eo2ZdeeLthD/98S+czY861uD6rV9+AW/uwld3GdoBSbVo4Nv//GtyPY3ychqhNkCOKrsHDXUp8mBZ4u11z6vRvF5tM6tU97TlyEe/+uivR3pSYrQbe/I4/Op8/eRCSgjXnJJMhOZhX60xMTEKrq9v2/r8s78HwSX3pKiq5cjH7x9pqX66qSJLX/XkefWjqsmlNNUGBsmGyNq8q7yJf1UcOnisvQ0gm6RSiaqlurqlWiJ9+hjRbDm3+x/fxkxuT+wdSGq/vGAzrt08tr6tNF8ilkrYCqlKIpX0DHZ3tbZ29U3qpPBAUycDtaeo/ZHtt28GJQ2JUZTNRcUQb+vxFbuVra0rIibh0EmNUGdN2WMFHaxhsaryYcHjCsSo+FEVpjmbPhmIlWzAgdTmTdlTkYRYrUtTcxQoGn8XAZr01vTWDeOBsJWmIwXJwvmH2rWKffECrrijFwGMwS3nWrsqxz050t7RydjPEtT+fkNKl+VtrCIigIUdv7OlbxQIX2tiM9YhkdT+oX64eeTKcYQXEWVknDyV7jPWjs7wWABey3iBJhSncXONgdo/2oICfR39J45+Nitf2kwjGMKaimG8glRXRzurSe36ZGojkQXJqW7u3r5wuLEtWlUQKuchow0CC5PvCfyZiakN7cU5ZAK1sTlF7s6eFAcfFyqN6m9naePhOdPZxNvPzTYVmq2bX4CzqYclzexlM984asuTvWdSXJysxpaZz7AyIyY4H0tLBwcHSx9/moXVVEPxKLUji1w9XMxee740UhtLdqXQpjWBG/qIUD9H6jQHeXPLgILIQGcHqzfwhsLUy5Fq/ibemZhZvIlXJj/Z/8j+C1d/URnNuCfCAAAAAElFTkSuQmCC'
p46
sb.