ccopy_reg
_reconstructor
p0
(cemoji
Emoji
p1
c__builtin__
object
p2
Ntp3
Rp4
(dp5
S'emojipedia_url'
p6
Vhttp://emojipedia.org/fleur-de-lis/
p7
sS'index'
p8
V1174
p9
sS'code'
p10
VU+269C
p11
sS'apple'
p12
S''
p13
sS'twit'
p14
g13
sS'gmail'
p15
g13
sS'related_to'
p16
(lp17
sS'name'
p18
Vfleur-de-lis
p19
sS'known_as'
p20
(lp21
sS'default'
p22
Vtext
p23
sS'bw'
p24
S'data:image/png;base64,iVBORw0KGgoAAAANSUhEUgAAAJAAAACQCAYAAADnRuK4AAAOGklEQVR42u2dL/QMbxTGv0H4BUEQBEEQBEEQBEEQBEEQBEEQBEEQBOcIgiAIgiAIgiAIgiAIgiAIgiAIgiAIgiDs73y+57x7nr3ed3ZmdnZmdua558xx9mt3dnbeZ+7f5953b2GxbCB7vgUWA8hiAFkMIIsBZLEYQBYDyGIAWQwgi8UA2kB+//7tm2AAtZcXL174JhhA7eTv37+Lc+fO+UYYQO3k7du3i729vcX37999Mwyg5nL79u19AN27d883wwBqbr6OHj26DyD+5bXFAKotz5492wdPOnhtMYBqa5/jx4+vAIjX1kIGUCvtYy1kADWSkydPZgGEFnJi0QCqlJcvX66A5vDhwyuvHzx44JtkANXzfQDPr1+/FleuXFn+7dChQ4ufP3/6ZhlA/0rK+6TjyZMn+38HRKqJrl275ptlAK3K58+fF//9998SJGfPnl2Jut68ebMCLl5bDKClUPNK4ABI3759++c9V69eXb7n2LFj+5rJYgAtnj9/vqJd7t69m30fgEnZaZsyA2hfCMsVFOtC9Qi2d+/eGUB2nJsBAv8ovR/wzT03NFsAffnyZXHw4MElGK5fv17b4T5w4MDyc4DQAJqhXLx4cSXn0yS/c/PmzeVnAeGPHz8MoDnJhw8fVrRI0zoXYCOpmD5/+fJlA2hOwoKnxT9z5kyrSjtlDfWfPn36ZADNQT5+/LiifaCutpGohcgTGUAz0z4nTpzYiOdDziidC1DOkT89KwCRDNSSxf379zc6H1pII7lSEtIAmog8fPhwxW/pInoi/Ndo7s+fPwbQVOXChQsrBdMuZO6F1tkACG2jzvPjx487O/eRI0eW571x44YBNEWJbEMyyl3JrVu3Vir1cyLgzwZAusg40l36Kq9fv94aOA2gkYiWLrryf5IARjWPc/KDZgMg7bbYRunh9OnTsyTfzwZA+CZpge/cudP5+ZWxSLHVAJqYkHVOC7yNgQmAco5sxdkASHNA2wAQ5zSAJizkZ7ZpYhRAc8oFzQZAjx49Wi4wzYLbBKid6AnK+/fvlwtMxNS1XLp0aXl+yPcG0MSESnxaYEoP20wTwDkygCYo2qKcax5sK5QuEq2DhGKTTg0oIVwLGpKuEI6vX7/uTOPiaAEEOevp06f7Ec2pU6dWCpappYY+LpKC+Bzc+HXlCSWTdTnvBzprOi+aqEoo6vLd/C6uXzPYevB3/h+6CHW8sbYPjQpA3CRuLj5K6cZWHVBMSeiVTAgEsm1EStpwWIrwABkAVkJbkwMNxzWPrQNkNABiEeJouU0OnNpIMVXuTpeOtLb5EO1FjcPCt3kgSpqJXrSxENf2xqB11LTEg8InNwxz9urVq6WfwBR5FguNQ5Y5t0A87cr7wd/Q/+vKLCjwVfthepR4rwfXDLDQuPweNBS+UPKH+K1QZDHfpYlpY+gEGRRA3KzcSDluOjeP7tG6guOJL6Q1L+06TRwd9aVY4C6iuwRerpvv4UArRVADBuYONXWQuU/QUaL54/uGrvzvDQmenMnCudzEzrN4AEnJ7smkoXHOnz/fuJ25SnQoJ5QRwKHjYpK2AKybEs14SOK5ARV8pFkBiBsZNQ9PU5fTLgCogiXROLpmD6r5hbQffxff17W/ooXbBKKhJoUMAqC4sITk27LnWmJIvoe+bmImcw+C5pbUPLKo28xIc241aTyAQ/Sl9Q6gOIeZH77JItYRDd/jsUllnh77Usjdh1nB0dbvxYROGkCoch3ohJPJIvQhJRChkdpKnC+UNE9fvylnztq2au8EgAjF64yT25Yoa7CLwQgxOz7ERHvMqJrlbRSKRwMgDbHRRH3Xe9CAucivDZC1uj80kSy2LPWZH+oNQFovGpIzg3mJ+ZQ2Zkyzz8mBHnK4gj6cfXKyewNQnKfTZTW8qSh7sO1TG83X0BwgBTQzjyYHIM2X8LQMKZiymLFuYsai+cLvGLobVZsb0bB9XU9vANKazhg4wzGd0MSMxdwS4fTQQg1uCA3fG4C0qDiGfUh5QqMWqmPGYvKQB2MMAmD0t6AlJwWg3EYmQ0tMK9QZ2UvJQD/T5ZSPTYQ62RBD0AcB0DZyJaQEiLB48nga6/gAFFdVM9bxzTRxRyK0znhgFpeqOb8bZxtz03V9LPplkwOQqv0uQ3huHLW1SJ3g+6i2rzNLMRxfV1ZRs7euxx6wlNiV/I3r7qqME3NBgHZSANIqdVfT3Ymc6jD9AFKJPMYoFn0vZq0k8b2l0B06SiwYlw4ipi66OJRlwNHXxni9AUgjFzgtmwq+RxMqKM5u6aZqKaCq6RDfTc+Zy6QDnhKLsHRsOi02/oZN6nujBVDc6WaTJ4SbHamigJIFxs/gaYz7nXKgFXK+h5oxPlcSnTGUi764Lt2MJZ0Pvyn5ZvwbSWGblh8iK6DPGmNvAIojdiP5vInEskgukcdrwBQzxrk0f6RFlEoSCsrciJiY4QZwuQcFEOs8IQ443m0lmss+J6T1WkzVajgL25a6GiOOqinxOX8kRijKay5xpWOYHLnIOMP6gPCdVWYpUkHalkKi88wUkj6lVwCxCHqT2xKgYviNg161WDzxuvsy5ie+X00PJjAKGqLKBKt54+GoMtFcv7ICIKC1YSbwHVHD9t1W3TsjUbcHSDziNhKf4HV2H8BQZCwRrzS/g/aIokPKY74o7r9RZY7QiNEHapOZB3DRDA5BJ+kdQHEh295AtEpcCDQR58K85JxS3Swuaj/NSucSijqRPkZqqt1y/hjOM8VOWJHRucfkNI3AcuBBqw7RTz8IqZ6nMNahWISmkRmmQE2HHqU5iHrjteAYJ87HaE39KNV2OlihpH1iyWSTRUdzRlIc5LyhWp5H1ReGX8NT2qRjNG4el7K8pWq0AkiThrEYGT+vuR0txUTg5TLA0edRk1P3oUGj8v74WwHPkNyqQTtTCZejKk65EzQSTzNmJ6p4tAMmgVJCLhOdM4l8F+fT9yuthEXWc0RivGpM/b8YunNNue8vdeESVPAZEqNEh6m9maiO38i5MNW534njP/SwhcF74wFDrg04tsmwgBylXvNcG3MJACUCukaIMdTXz6vWQCvkriOnWQApzn/smm0zhQSnfgxbKoxmOgeapuTP1DnQWlU0kVxmGvWvUhqSoABi8auSeHUyy4ALU9205AHA8e3GNHxqdAOmMA9opJy6z2kmFhDgrPObYshP9jkuBKYjTQjLmUCuLZo2zoEfhAnSa65Lp+DBIStP775OGQEsABwtidbC/I5xatmoR9xh31kIFhvHNfFpiESa2n4ddLAt1a802W132xpAff/QDpkAJdHOkyEjIwNoiwDaZkeIZtkNoImJRnmJ9hH9GcwOf8eniWYu0VKjb8P70kQx9YEMoImJDnUohdtKelMA4Lym9AHRnIKrFDkaQDsmLDKahQiO3AzmBA2TFjvW3+JCR5KaAiBmqTVKy5HD9PO8F8ef8Jvr4iDq2pU50LMAEEm1UoKRMDjNTyRMjkm8FM1FkppGeSQ7S9wd3eIAagVAIXuMOUQ7lRKkXO8YGhJnDyCtkpcOrbxrqJ2GYiJa8GTRo2giUksgSmbXAm7cR7V0DDnfcPYAisOVSoeyB5XXo+w9pWTkQn1lU+o0+jhkMwmJTS2NoJ0Ann5PAvEum7OdBRDJRDUPLDrZ2rT3RIkkrz6LUi+U2ZcrhkZKRuIdx1YfLaeog63fRSSnpnQMrd6zA5AWNyOJS3fmScMP0Aia6AMwqfwRQZArQ+DT6HuoZSWJnRhoRpx4BUkcKaz7l6GFxroXxiQBVKeNd13VXjWCAguNVWo71uKnbh3O969rcIx0UwCvxdtd9YV2EkDq+5T2/irRLCJpPk7pqOIVx0GdWu+KnaHxyHVdqBba1V0OdxJAuoFuabwKYXjsWEBLAAI1d3FOUFVXAxV51TSxewP/J8c7ItTPFXCVzdjF1HwDqKaoI1xVHMWv4MnHSeVpj9nhaEYiP2gdeDGTOeIYIOR7AWcVL0hHxezqTs87CSAdl7dJH3jsr68znDL2x1c1NTb5/j4HY84eQJrLIdfSps+e7HTMStcZ0h07VDfZ9Ued8rb9cQZQC8G/UV+kaR6FMD/HeKxLNIuFWYDYdKCTPgR997M7D7RYnaiBFqo74h8NkgPPur1OVXIT7wFR3clrvE8fgFwnrAG0ZcFB1pYgQAR3uEQl5f040qWOiCZObNXmLeSHcKBziUHyV7EViesew86DswNQCqtzDXv8jdA50Sd4wnOb3bYtJ8SCbAlMhPREiYAqt68G19TFrokG0IYgKnFySgeLSQSkc4HaAghHGI2zLvOda0MaertKA0jyORQ7c095HGqpLUBaA2sSjmsmPHGs076muf6zCBxM7di27541gBRIREOUBcjsYr5YLECTmzpGzSv5I02caK2yxzwU50Sz4Sela8Dh55rwgcayXbcB1JFoJb0OLydOqu97IpgBNDLRiKrO1Pk4qV5pHQbQDEUzy+tG5SGRQrurCUADqEPRAmlVQpKSiYb+TfwmA2jCouF81eDPOAtok9G8BtDERPvGclslYdq0Bpab9GoAWQsVOUaReLbrGWQDaMu+kGaJ427PY9ji0gAaoegYYN0AJRZP+x7mbQDtkOiABTg7RF7q++wq9dQA6kmoUaVQnX+VPksGeio1LANoixK3Y+hihyEDaEai84CaZKkNIMtS4mYuUxjFYgD1KNA/EosRzo+1jwHUWNLwKPs+BlArIfuMFpoaCcwA6tGZ3qTz1ACy/DMK2GIAWQwgiwFkMYAsFgPIYgBZDCCLAWQxgCwWA8hiAFkMIIsBZLEYQBYDyGIAWQwgiyUj/wPnIVYHZV3NEgAAAABJRU5ErkJggg=='
p25
sS'version'
p26
VV4.1\u02e3
p27
sS'uni'
p28
g13
sS'desc'
p29
g13
sS'browser'
p30
V\u269c
p31
sS'annotations'
p32
(lp33
Vfleur-de-lis
p34
aVsymbol
p35
asS'wind'
p36
g13
sS'andr'
p37
g13
sb.