ccopy_reg
_reconstructor
p0
(cemoji
Emoji
p1
c__builtin__
object
p2
Ntp3
Rp4
(dp5
S'emojipedia_url'
p6
Vhttp://emojipedia.org/star-and-crescent/
p7
sS'index'
p8
V1184
p9
sS'code'
p10
VU+262A
p11
sS'apple'
p12
S''
p13
sS'twit'
p14
g13
sS'gmail'
p15
g13
sS'related_to'
p16
(lp17
sS'name'
p18
Vstar and crescent
p19
sS'known_as'
p20
(lp21
sS'default'
p22
Vtext
p23
sS'bw'
p24
S'data:image/png;base64,iVBORw0KGgoAAAANSUhEUgAAAGsAAABrCAIAAAD/3etbAAAKvmlDQ1BJQ0MgUHJvZmlsZQAASA2tlndUU0kbxufe9EYLIJ3QO9Kr9BpA6VVUQhJIKCEEAohdWVzBtaAiAsqCLl2wUWQtiCgWFgVF7BtkUVHWxYINle8GlrjnO9/+9805M/c3z7zz3pm5d855ACD3Mvj8NFgGgHRetiDMz5MWExtHwz0GJCAFiAAD5BjMLL5HSEgQ+Nfy/g6AxIO3zMS5/jXsfw/IsthZTACgEGQ4kZXFTEf4FFKbmXxBNgCoBETXyc3mi7kAYXkBskCEy8ScPM/NYk6c5+65mIgwLyTmNgB4MoMhSAaAJEJ0Wg4zGclDRhBY8FhcHsIWCLsyOQwWwnyETdPTM8RcibBh4j/yJP+DGYxESU4GI1nC83tBZiIv9uZm8dMYq+c6/88mPU2InNdc0UJaMkfgH4Y8kS8IVaZmBEqYl7gseEHnIjtaYI7QP3KBmVleyFnOz2UxvAMXWJga6bHADAFCf8dws+kRCyzICJPk56UtC1rQOWy6hNlZPuELehLXl77A+ZyI6AXO4UYtW+Cs1HDJGvI5XhJdIAyTrDlJ4CvZY3oWMvPvtTEZ39+VzYnwX9BZbG+fBWbzIiXr4Wd7SvLw0+b+77kzZKf5SfSsnHDJ3GxBhERPYQSELOTkZ4dIzgT4gxBAA3EgDFgDC5Cbzc5D/jcAvDL4qwXcZE42zQO5IWwancc0N6VZWVjaACC+b+IYAN7enbtHkCL+u3ZgPQA+Xci3/f275oicY7MJ8svnfNd0pQGQUgXgzF2mUJAznw8tfmCQWywN5IEy0AA6wBCYAStgB5yBO/ABASAYRIBYsBIwAQekAwHIBWvBJlAIisEusA+UgypwGNSDo+AE6ABnwAVwGVwHN8EweABEYBy8BFPgPZiBIAgHUSAqpAxpQnqQCWQFOUCukA8UBIVBsVAClAzxICG0FtoCFUMlUDlUDTVAx6HT0AXoKjQI3YNGoQnoDfQZRsFkWB5Wh/XhxbAD7AEHwhHwCjgZzoTz4QJ4B1wG18DNcDt8Ab4OD8Mi+CU8jQIoEkoRpYUyQzmgvFDBqDhUEkqAWo8qQpWialAtqC5UH+oWSoSaRH1CY9FUNA1thnZG+6Mj0Ux0Jno9eju6HF2Pbkf3om+hR9FT6G8YCkYNY4JxwtAxMZhkTC6mEFOKqcW0YS5hhjHjmPdYLFYRa4C1x/pjY7Ep2DXY7diD2FZsN3YQO4adxuFwyjgTnAsuGMfAZeMKcQdwzbjzuCHcOO4jnoTXxFvhffFxeB5+M74U34g/hx/CP8PPEGQIegQnQjCBRVhN2Ek4Qugi3CCME2aIskQDogsxgphC3EQsI7YQLxEfEt+SSCRtkiMplMQlbSSVkY6RrpBGSZ/IcmRjshc5niwk7yDXkbvJ98hvKRSKPsWdEkfJpuygNFAuUh5TPkpRpcyl6FIsqQ1SFVLtUkNSr6QJ0nrSHtIrpfOlS6VPSt+QnpQhyOjLeMkwZNbLVMiclhmRmZalylrKBsumy26XbZS9KvtcDienL+cjx5IrkDssd1FujIqi6lC9qEzqFuoR6iXquDxW3kCeLp8iXyx/VH5AfkpBTsFGIUohT6FC4ayCSBGlqK9IV0xT3Kl4QvGO4udF6os8FrEXbVvUsmho0QclVSV3JbZSkVKr0rDSZ2Waso9yqvJu5Q7lRypoFWOVUJVclUMql1QmVeVVnVWZqkWqJ1Tvq8FqxmphamvUDqv1q02ra6j7qfPVD6hfVJ/UUNRw10jR2KtxTmNCk6rpqsnV3Kt5XvMFTYHmQUujldF6aVNaalr+WkKtaq0BrRltA+1I7c3ardqPdIg6DjpJOnt1enSmdDV1l+qu1W3Sva9H0HPQ4+jt1+vT+6BvoB+tv1W/Q/+5gZIB3SDfoMngoSHF0M0w07DG8LYR1sjBKNXooNFNY9jY1phjXGF8wwQ2sTPhmhw0GTTFmDqa8kxrTEfMyGYeZjlmTWaj5ormQeabzTvMXy3WXRy3ePfivsXfLGwt0iyOWDywlLMMsNxs2WX5xsrYimlVYXXbmmLta73ButP6tY2JDdvmkM1dW6rtUtuttj22X+3s7QR2LXYT9rr2CfaV9iMO8g4hDtsdrjhiHD0dNziecfzkZOeU7XTC6S9nM+dU50bn50sMlrCXHFky5qLtwnCpdhG50lwTXH92FblpuTHcatyeuOu4s9xr3Z95GHmkeDR7vPK08BR4tnl+8HLyWufV7Y3y9vMu8h7wkfOJ9Cn3eeyr7Zvs2+Q75Wfrt8av2x/jH+i/23+Erk5n0hvoUwH2AesCegPJgeGB5YFPgoyDBEFdS+GlAUv3LH24TG8Zb1lHMAimB+8JfhRiEJIZ8msoNjQktCL0aZhl2NqwvnBq+KrwxvD3EZ4ROyMeRBpGCiN7oqSj4qMaoj5Ee0eXRItiFsesi7keqxLLje2Mw8VFxdXGTS/3Wb5v+Xi8bXxh/J0VBivyVlxdqbIybeXZVdKrGKtOJmASohMaE74wghk1jOlEemJl4hTTi7mf+ZLlztrLmmC7sEvYz5JckkqSnie7JO9JnuC4cUo5k1wvbjn3dYp/SlXKh9Tg1LrU2bTotNZ0fHpC+mmeHC+V15uhkZGXMcg34RfyRZlOmfsypwSBgtosKGtFVme2PGJs+oWGwh+EozmuORU5H3Ojck/myebx8vpXG6/etvpZvm/+L2vQa5hretZqrd20dnSdx7rq9dD6xPU9G3Q2FGwY3+i3sX4TcVPqpt82W2wu2fxuS/SWrgL1go0FYz/4/dBUKFUoKBzZ6ry16kf0j9wfB7ZZbzuw7VsRq+hasUVxafGX7czt136y/Knsp9kdSTsGdtrtPLQLu4u3685ut931JbIl+SVje5buad9L21u0992+VfuultqUVu0n7hfuF5UFlXUe0D2w68CXck75cIVnRWulWuW2yg8HWQeHDrkfaqlSryqu+vwz9+e71X7V7TX6NaWHsYdzDj89EnWk7xeHXxpqVWqLa7/W8epE9WH1vQ32DQ2Nao07m+AmYdNEc3zzzaPeRztbzFqqWxVbi4+BY8JjL44nHL9zIvBEz0mHky2n9E5VtlHbitqh9tXtUx2cDlFnbOfg6YDTPV3OXW2/mv9ad0brTMVZhbM7zxHPFZybPZ9/frqb3z15IfnCWM+qngcXYy7e7g3tHbgUeOnKZd/LF/s8+s5fcbly5qrT1dPXHK51XLe73t5v29/2m+1vbQN2A+037G903nS82TW4ZPDckNvQhVvety7fpt++PrxsePBO5J27I/Ejorusu8/vpd17fT/n/syDjQ8xD4seyTwqfaz2uOZ3o99bRXais6Peo/1Pwp88GGOOvfwj648v4wVPKU9Ln2k+a3hu9fzMhO/EzRfLX4y/5L+cmSz8U/bPyleGr0795f5X/1TM1PhrwevZN9vfKr+te2fzrmc6ZPrx+/T3Mx+KPip/rP/k8Knvc/TnZzO5X3Bfyr4afe36Fvjt4Wz67CyfIWDMeQEU0sJJSQC8qQOAEgsA9SYARKl5PzwXAc17eIShv6tY/i+e98ziAcRDgKMbAWIgALDtBuC4OwB6SF8K6YcgHOEOYGtrSUVUcclKsraaA4jUgViT0tnZt4gPxBkB8HVkdnamY3b2ay3i2+8D0P1+3oeLo7WnECueJqb+0pyN4uc/y38AuX384MFwjTEAAAGdaVRYdFhNTDpjb20uYWRvYmUueG1wAAAAAAA8eDp4bXBtZXRhIHhtbG5zOng9ImFkb2JlOm5zOm1ldGEvIiB4OnhtcHRrPSJYTVAgQ29yZSA1LjQuMCI+CiAgIDxyZGY6UkRGIHhtbG5zOnJkZj0iaHR0cDovL3d3dy53My5vcmcvMTk5OS8wMi8yMi1yZGYtc3ludGF4LW5zIyI+CiAgICAgIDxyZGY6RGVzY3JpcHRpb24gcmRmOmFib3V0PSIiCiAgICAgICAgICAgIHhtbG5zOmV4aWY9Imh0dHA6Ly9ucy5hZG9iZS5jb20vZXhpZi8xLjAvIj4KICAgICAgICAgPGV4aWY6UGl4ZWxYRGltZW5zaW9uPjEwNzwvZXhpZjpQaXhlbFhEaW1lbnNpb24+CiAgICAgICAgIDxleGlmOlBpeGVsWURpbWVuc2lvbj4xMDc8L2V4aWY6UGl4ZWxZRGltZW5zaW9uPgogICAgICA8L3JkZjpEZXNjcmlwdGlvbj4KICAgPC9yZGY6UkRGPgo8L3g6eG1wbWV0YT4KxNAoqgAACv9JREFUeAHtnV2M3EYdwF10ERekq9SEfogLTdLTXUgFVmmJWlQi4QsPjfrgii8htEh52vaJmAceLKE8bJHQPnErIWQitZbgDJStAAsqtyjOcdvmcBRcOCPiNLfX+Lg4Ah/ZqLtCvsorLbO53Y3ttT22Z+y9u54fdsfj+fjPb/4znm/f1+l0iL0LgcDHEPzuee0S2COIqgd7BFEJjqEGgNl/e3PTtu02uPoBOwSxjxgbGx/bv28/+N1uAhMjFajdumWaq/r1q9evXfvnP5YVbUHT+uBC/kmSJp95fGZq5jh5/Nj0zJHJBybGQ5zmZH1f7u/i9saarl5aekuS5uZF9FSSVOH5F06dpk4+cXxqYiT6AAjmczUMVaiwFDqz8BAKbEVS68180tOPhegbMvu3LUXkCpmS8zMl2UpVt+zMkuQJOEuCTUPkGH/qcryniuWabnmSm8FNRgQbMs/myCoqKrJQkrPkiJ+gqQh0VIpG84wsllUzk3KNlaBt8EyuFV7S3CiURdPBXJKxEWxo1W2oekGIaUExMVLEQtBRhVG+MYIwQezoUhXXKwadoCUwJETebfqYqeEo0mgEbb00gnqPJEmqe4F/1LwjuRpqiUbo1W1cfvGhZ85nrV8UzVCzz574/LHpRx85cGBiYr9/cKHdBmMRrVbj9u1/G++tavqVpYWL4gKsf+0SmxHUH3/7SZdFQmO6OtUx5EzfG3SxJEiK2UjZ/nCajbpa4yssHU9J6bKc+hWdphQ7hpRV2SULnKiYzdTJCdCHhqmLfBmKkmTFdB3q5AStWibaRzGiauAk54fpmHqtwhQiiijJCCkgJiRoa8UIEVI+onm5niU7D0unaUh8Kaxwk4yYtOJIRNCq4C693XZZbvDcJB2rJpQCc5yuKG6HUHN8go6MueVC8Vj7BtCkBjhoGkIpoE4qSUaA4xCruARNKTjHArMRbkmxWiNEotytG7pU9JdqUoxdJ8cjaEr+KOCQQl2AChtXjwof7YZU9r5kyFLMpnYcglYZX/UHWl5Jq2p8mCAhmQrvVpSYFSKcoMZ7MydUt+APClyyShqS4gwe+3oKQh2e3TCCluzOFjikcBeFhO+4DPjEC9JS7qkMWYZWONEEHRHTqBXJSiNptMRjNuTK1WtgqvWhxx6LKIK2LoSrVJInNLdtXryexEfcOHWxX/gq0cJHELSFe9qchJffbVFN0VeKSFxejyyFZ0pCvQEpPKEE7ToeBeS1nckvdj6Frd1q/+knZb8yJb8HDYIzn5tI7m9H+QhmbWFpQrNGcOi7yjZYB9/9FZdgkDdEYyrK9w+HPNpV1kH6YGBYb0Dzu7z+64ML0MHNaws/QlYS7uWv7fb6r8cogODKoowKkOK+mdcLpHWnhSotov++Mg7+G+jDqOUatC80iA7RYDIErcI7r4ixRHkfag82lYAhx2S5xOQ2Zu8Y3VWw3Eib7P5SfGflMuLSXKr81am8VuOuXXoDEHztwtVkWYzVtZ/gzSsXEcN/4SufRQwhtvfW27/pzvgvCIsbsf1gd+gj2FLfQVTBwpcefwC7lMEB3vn7z7eE1QT1VjvYTfa2XoJta3keLU761HReuxM2/vbnhZ6w2lt/NdHkTu/bR/CDG+mD6vqkT5N5NQPbf/nD6wNh56pXNgc3+Ro8BDcNDbEMz544mpP87fobc66e57y4MiKEHoKE8yFa+umnp3OqBDf1Re+ysfmlESH0tDvM966hEQQ74PBdG5df/sGviUMHAkL8OHHzzXM++5fOnrWeO0QE6UDjJvGtH7JPP+hJrM97+lt3c1vjEFvTtIJzOMHWRAxjlABNWdSy67Z4+iQahzauT0GmFNy5Fdfc1LmhFQXx9YUsVPToaY64coS6w0qQ5nCqoEvmusz1530S0KtIuiuMrIzeN0l88QJdNgNtMVhOzb643KxzsTerkEWgesvffe4zGOKGBuHOGuRSnJUODoQ0ajxsBQqZj+oNRMKqg/dD8wvVweGTZ16TolYB0Pxvc1K9flKwErzxQfajnZuLv4sa+xB/f+FOP235/HsIOh+iEdCW1tECgKe5tTx/3tUVGfYg/vTttVxHGTwEH5l5alikRDY4W9RBEa8tiLB+p/aqGIk4KFgUOw/BicmHUMICfv+Xbfa3Fl71TIIVuRpYk1H3NrzFs6+vISYjkffBOwUYwKB58maXJ7ZsZ0g86wBI9zJsuy65OwN5jvt7WtQdW0Xs1lHlDNdY6kJ/KwbJKMNbAGxj0KUimfwW23kJdszQnRYeVQu/yaJj1ysmvcXIFBuxsdUB663uClfIbQLPR9Cu9rM5HFL0E7qWTT/UrvMgYraquaudQLOlCqAuKsJWTgb6TWHpI9jReVSEpYwmi5t1NfaBE46lqUZGfXQ/ZD9BW+tmNcqVZx3kT80o7j2tGQBufPop90stBUptTtBGNOCeQlp0L36CxPiRU4gIiflf/HEVXbKdEsIQQWLi5GnUqnDuG7+8tVMAIMs5TJA4/OzzyMGee+XiR4VhAMGxw19E3wZ27nuvfFQQBr6+6oPWP4I2MqIRGPgus/S3ZnrJa6J27+6SL4x0WVpOORVCsNNR0EsyoFisZjfNmBMhWDShBDuY9iSyu70shxPsdGQWcaxrqxJNsF8clt+5PtdAB5diZNh8cxRBoIawibGYLxomwzUD2VA15cFyiXL0UEkkwW5tiDhg2EdMV3JbnI6OtKHeGxwoyZDTAiAEOxgPmCkK0ZmJnnIsIbjxEQX4GT4wgh1QlEt9RUL+L/LbHKIhV1yJpOQYBQdOsNOxRYwnDNKV2OeQYFGp+IHYNc4zIBBzjDYOQcBQ94TtyqY0RpJRt5kqOpbqP7mnEHdfYDyCXYZ4Nmz3iVOCGqOExFeg9C5ttTpcTSXoTcUlCCTUq1ELVvpoEvyD2d7R9lgsXQpcDpZoX34CgmA+WcLTxnZRpthaXhMabjVtGkqlGNzYZUXI4R7ucIA5EUHg3kJdKOyiNzAWK2I2p237EgtuHUOTSyHsgDxFXh32E22TlGBXBtQ55QE5j4FkecnAevqlO+VO06xVK9EnYRa4xPhAFMkJAk+2jr00D2CCL2TUNANX/eg0LVWusuFKN4iXEeAz0e4sGZhTEQS+nTrm0wgHSekZKKbMyWCGOLlWOnbD0FWRrxSjVc4VY0lKVvcN8AEDwmnKxK2ffWfyJcR9eK5khBlJip6lZk8cn5l6bPKTBw/e/4n94+Nj+/YRjkN0v+dkN8H1342N9dUV/fq7qqIkOkqZIEhevXDmyQfDYofbu3EmNzfFbL96A5cfzUUR/Vj0tKXYBXvHHcq/BZ1keByHyqd7k7jwbRnBYp/gxhWahmTnG+xyGkpESgsMOtiLuanjGkvMDlw3ZLqsDq89TEmv6w0fwW5oTlAfM1sgSUKnOBn/Lie8BO9StLQKwk64JEQSuGV5GXYMXlf4FBd+gltCmKoYoxmbAEFqpwwnZdplzIrgXY5OXakGDn6kxpHEI1UW5EzZbelKpgR7ZcKqK1wJ5xBtNEeqwIqKjqtf2EtD+F8eBHux2w2tJpYjv84QjSb6KUkXuWrNSPtJk3BEkCcovbroFIU/bbfW9KuXlhYXpTfPiwvh7mI8IWnm67PUl6kvPDH9qRF9RHYUBN1k2psbprn+r5X3V9feX19bvb7+H9O8cfu25v8ML/gk08GjRycfPvrpqaMzj808euzI1KHJh0f+6V2QlFETdNPcmeaAFZg7MyEjk3qPICr6PYJ7BFEJoPrf00FUgv8HHf2L8TdBDNIAAAAASUVORK5CYII='
p25
sS'version'
p26
VV1.1\u02b7
p27
sS'uni'
p28
g13
sS'desc'
p29
g13
sS'browser'
p30
V\u262a
p31
sS'annotations'
p32
(lp33
Vislam
p34
aVmuslim
p35
aVreligion
p36
aVsymbol
p37
asS'wind'
p38
g13
sS'andr'
p39
g13
sb.