ccopy_reg
_reconstructor
p0
(cemoji
Emoji
p1
c__builtin__
object
p2
Ntp3
Rp4
(dp5
S'emojipedia_url'
p6
Vhttp://emojipedia.org/biohazard-sign/
p7
sS'index'
p8
V1190
p9
sS'code'
p10
VU+2623
p11
sS'apple'
p12
S''
p13
sS'twit'
p14
g13
sS'gmail'
p15
g13
sS'related_to'
p16
(lp17
sS'name'
p18
Vbiohazard sign
p19
sS'known_as'
p20
(lp21
sS'default'
p22
Vtext
p23
sS'bw'
p24
S'data:image/png;base64,iVBORw0KGgoAAAANSUhEUgAAAJAAAACQCAYAAADnRuK4AAAMHElEQVR42u2dL9QOTRjGnyAIgiAIgiAIgiAIgvAGQRAEQRAEQRAEwTmCILxBEARBEARBEARBEARBEARBEARBEARhnd/znfucMd/szuzu7O7MPtd1zpzveN/veZ/ZnWvu//fMphGEEdjoFQgikCACCSKQIAIJgggkiECCCCSIQIIgAgkikCACCSKQIIhAggg0Hr9+/dLKi0D98OPHj+br16+T/O3v3783nz9/FoHWiD9//jTv37/fEmhqqba/v9+8fPly+50i0Arw4cOH5s6dO83v379n+04IdP78+ebLly8iUM148eJFc+PGjUWkwcePH5vjx483T58+FYFqxK1bt5orV64sqkog0ZEjR5rr16/PKgFFoJH2ztWrV7cqpIRFe/v2bXPw4MFmb29vtZ7fZk3kQeocO3as+fnzZzHzevbsWbPZbLYkWqMkWg2BsHdYKGyf0nDp0qXVkmgVBLp37952gSBRiUB9nThxYjtH7DMRqCBgZxw4cKA5efJkUaqrbZ6QCLUmAhUAIsBHjx7dLsrr16+Lny8GPnPFsF5L5LpqAl24cGG7IGfPnq0i+ktw0aTQqVOnVuGZVUugx48fbxeC8e7du2rmjado88Z2E4EWAHkt3HUWAdunJhBgNCnEf2tXZVUSiOiu7WISmLXB3HoGQU8RaEawY20HM759+1bdS7fgog08NBFoARsCQ7RWFewSqGYpVBWBKAhzpU+pgcMUQP41SKGqCIS94750PLFa4dpxDGJEItDEsHSAjRLzXqm4f//+P89y+PDhKuNC1RCI6kL3hddufLpxLBvPnz8XgebasbUTiGpF/3lqVGPVEMiNndioOSkZIhBqrLZyj2oIZElTd9ScCnjw4MH/nqdGqVoFgXDfQy+bmFCtuHnzZvCZaousV0EgvK3Qy6bzoVZYJYE/IJYIlBmPHj0KvmzGp0+fqiMPpSfYO6HnoexVBMoMmgPbCFRjiWgoJGHjzJkzIlBuXLt2rfWFU9ZRm+diNdyhUVterHoC1RaRRn1ZLVNoXL58WQTKjdu3b3cS6Ny5c9lKWpFmHMZAjIngJRFj+t1ROzkk3atXrzqfpTaVXAWBYi99jBSCFKQQkHJ4dV3fQTE8KgYVRLxmCKGwcbq+o7bgaBUEQrrQZ9714km09llQOjowztu8oZTBnHC7Uz3BtnCEO6Y6w2inCQSsJaZrpNQHkfFGJSJNhhKnzfjtqm9mE/jVBP4g2l4bqiEQdkjKQr5586b1b9BWE1vEMYNit7ZI8t27d6OfR42KQBMB9RRTY7aLUU8h9XHo0KEoAUjakuhELZlhbkfY8XMKwegEcSsjY4YwbUdd/3/NyeGqCsra8kchdeIWZ9G12rWA2EEkN/u0RkMojGnfhuJ78NgM2DQx49w+V2ODQFUEcnuq+tpDEMS3e4jHoHLG9NTzWdx9I8nDhw//+R3SKmW+dNfWiOq6Mk6fPp1skzx58uSfzyINSGKiCpEeOUtIUXeoIFftxVz2NZSmVEegtjqathEqvJ+6j55AZIq9VrP7Xi2BMG77ekfYTnPkyyAmBE9Vs248icDk1EcR7xyBIAs2xcWLF7d9VGNiN7jvRLSnDDPkCBFAJmJe2GZIMhGoJ/BE2MV+412uQb0Ni53jMCrmCsGnmqsVzRE6KLXUtRgCIb4JtuWOEMcWh0QssR8M4C5SIQ2QYBS34eHxuTnnavPFpiupf2xxAmE3sIvH5KRyDeaAvUS4wEVX/c5S80RKl0CkRQnEQqXGSeYedmgVkqfE+VkcC4m45OlsixGIB4+lFpYcZnNA8lLn6EbelwoDbJZQWbEKw5IIhJoofa6m1pZojZ6VQCwGLnkNC+J6PSVLSn9gG62SQH1D+yURqE/6JEccCLsQLw/VxOD7+0S257ylaBYC4aIPCbLx0nBdbczlNmOcuiUhKcVsQwfkoMCNioFQGYoL6pkIJWAChFq9/dqiOUg0OYFSM9IsGgEzam4olWhLPfBzyiWI21B3ww7tmzqIzcO/LI6FoFsi13ewmVA1Yy6l4z0QEO2S6pTsVk0gHrLL5sG2gAS4ymN2CxFhSipyhAS6KhrHxoMgO5Imd16OTdem4qZM30xOILtBJ9TdkKOcApEPcVzyYbsMNdRTSir6VgNY25GfikD6EHnPdashZgIEDb3rKa/fnIxAofNvrHEuV+WdnTPIAvkvCfGeUgnoqpVUKZhS32wSlii7K3FQz2wsU7s5O1H5npC9NmWx2iQEgiChUs+ch2L61Ym2WP4LZbFTbCQkWZ+Fihn02FJ+SgTbzZ8Lqic3QqrWL64rmkD+0SV4DLlLE0IR4rbFwA6IeS1uHXMMqKNYxj8UGW6rZZoC2Jb+GkxRE5V99n4XKTtxiiNYsH/6nBeEVOwysvvMkYhvl1veZtuRX5uLQMA/FnCKIGP22buLhFqZsijKVyP8OxZS8IOC7Ey3ljkVeFO+pEUCdtl3od42NtiUaSPXsOa7cseGshLIf0H8e0qEvI5YUhHJBYnME3RrgJAcsRfs/x6pYvOI5aKwQ0ISa+oMgGuP5l6TzVQLOsc1BCFvKMVQ56W6kgJSQCYkZpeXaJ4d3+ETyTeYQwj1tc1xpJ3rEefufs1GIF666xLPUewUMmZRoX3ENPP21RrSidAAhijEYjP49hNlrH13c8gGm+tsI7OHcnt92QjknmM410uBKCHvKrWsAakR885iI5WwoWPtIOpcFwWzUayqIEVazk4gi/6Sm5mzQi4U88BYTJGAodPvhxAoBSH1NfdpZHZQF5u9OALZTp67qAl7JhQo5GUNkQp9R8qJYkTJQ4HHPrGnHCBUwbsigl8UgewCNQzMJepz28otuhKjXXZJn5Girt1L8mwgsZcAoYec6ZNNLmYv2d9Nfim0w/26nhD8O8j6jlg3KST2JSS2yJQJzi5YH1tRBDJvaMnrt/3QvZsJ7wrh+7cg9hmxhYC8oUI6P2c3J3jenCehZSPQFFHOPsBobsu+x65RgmRDCBSzs0LXGRAyWPpc65xXRGQhEOK4hItPug6x7PI8Ussz+tysE5KIqK4SrmbIeS9ZFgIheaYqF+iLtpYhbCTyVyHw877k6YrhEPkNqcUlVZcfvijOjZ8rIBYD6oECqrYCr5BRHSvP6HOiWBt5UsIKc0rq4ghUEroK+XFhfVttCIFIDaSSB1toSfvQR86zGFdJIPM22lqJ/KN4u+p7Uo/kpSQkRB6M5lKk8xRYLYFsp4U8LBbaNWaxTfoSyHUaSKqG4lCkdWo8dUwE8mwiQve+dHBTEF33kaXYQCHDHU+nxnvgRaAWkHdym/BcFTSkDcgNxlmOyaQbEq0km0cEyghSCxS9uwQa2vvuVj9iVGOgz50gFYEWgkkI1MzQVIbbFIihvCtSRwQa6YGt4dpxESgTrLt1yJizolAEKlSNjT3cM2e3rQhUGQj+5TiqZRdtHxGoCfeVjTWmRaAdwZD8V677WkWgFdg+qec1prr4c5wGJgIVgrazi0JeFpIq9cbBnP1WIlChIMGaeuKpZe1JVaR8hhrpXch/7SyB/NMqugbJUNe7Su1irfHmZREoEdaZmXIlVMgojp0x1FZvJAKtAKmF8yRFu9QQkecUKbYrAcbVEwg11HZabEj9pNgw/M3YFeQY1TXeAy8CedIi1JsVWuwhPf2UhsTsorWrs9USCELQ7BgjD/GgMe43dlFbF4hbVD9laSsbhfbuJVIqixKIB8790MRtUmwUkqhIh1wRZGyersQskmqKlAcbZckitiKuvKSnngXgRQyJo7D7ONgh5UIX1BX2S+zQhSHgb4bqr/2TZCHu2NYaTsOlrnvp++aLUWG8fEjATkX1IEUo2MKwxf3mdzb4N7+j4yI1KMjfxRObo0uCjZAiBQk8csiU/3yxwbOHzmmUDdT810XBy8lxB7udzoHqWCJCbJIxZiP1KeRHeunW5kSg2khS9iET6oPdT/83C1gKUFlsDKRHn3MZ7XmW2gSr8cJQcXZPGCeuuyKdheGABOyBWoq78Px4FuaP3WQnhzFQa/wcAzlnG7LceEEEEkQgQRCBBBFIEIEEEUgQgQRBBBJEIEEEEkQgQRCBBBFIEIEEEUgQRCBBBBJEIEEEEgQRSBCBBBFIEIEEQQQSRCBBBBJEIGEX8RcTP+tTf1z7qAAAAABJRU5ErkJggg=='
p25
sS'version'
p26
VV1.1\u02e3
p27
sS'uni'
p28
g13
sS'desc'
p29
g13
sS'browser'
p30
V\u2623
p31
sS'annotations'
p32
(lp33
Vbiohazard
p34
aVsign
p35
aVsymbol
p36
asS'wind'
p37
g13
sS'andr'
p38
g13
sb.