ccopy_reg
_reconstructor
p0
(cemoji
Emoji
p1
c__builtin__
object
p2
Ntp3
Rp4
(dp5
S'emojipedia_url'
p6
Vhttp://emojipedia.org/heavy-large-circle/
p7
sS'index'
p8
V1193
p9
sS'code'
p10
VU+2B55
p11
sS'apple'
p12
S'data:image/png;base64,iVBORw0KGgoAAAANSUhEUgAAAEAAAABACAMAAACdt4HsAAAC+lBMVEUAAACKFQmUGQu/JBOKFQnFJhbNJxawHxi3Iw+ZMgCyIxHKJhSLFwuJFgj/VUahHQ+jGgyjHQ7mMiKTGQvPPjGrHQ/XQjbwWlSoHBLsSkHTKxzPKBbUKhbMJhTMJhXEJBPTJxW9JRPBIxXAJBTXJxq7IxOQFwnOJxW4IRKGFAa3IBPeKxmIFAq/IxSIFQiIFgm/IxSyIRLdLBmIFgjQJxaGFAmtIBDdLBnnMR+4IROuHxG2IBGkHQ/TKRXkLxyOFgn3b2mkHBCiHQ+uIBHlLRyxIRGlHA2hHQ7WKxutHhC5IhPpNyePFwuUGAv1bWj0bGfSVE7nNiqYGQz0YV6KFQrzZmLNUEjxYFnzYlzzYFr1Z2HsYl2vIBH2bWf5eHPMUEj0ZF75cmzpYlvhWVPJTkXoOy7TMCKiFxe6IhPrQDXsQjfQRUXMS0SiHg/sRDutHxDYUEmxIRGrIg7uUkruT0jyXFOgHA70XFPyVU6xIRHQNCfbOi/LR0DSNy3eTEPLQjjNRDrRQDfSOzLWRTzNOjHRKBaoHg+pHg/MJxbBJBPbKxjkLRrKJhTsLhvmLhrqLxzpLxvPJxbNJxbdKxnVKRfLJxbHJRTIJRPLJhSdGw3wLhqiHA3TKRftMyLHIxHQJxX4QjTRKRnEJBTcLR3DJBO+IxLdMCDoLxvUKRfRKBblLhrrLxvjLRrFJBPYKhe5IRHJJBLZKxjhLBnuMBvXKRfTKBbJJRTaKxnuLRjcKxngLBnXLR3aKxiuHw/pMSCnHQ7vMByyIBHvNyirHxD9dG2pHg/vLBjzOSjlLRryMyHhNSfvVErZMSL4TED3Py/4RTfVKhjnLhr7W1L5QDHyRzzqPTHOJxXSKBbtLxz8fXjiLBnkLx3mMB3GJRToLhreKxnfLRrfLBm6IxK2IhL2PC78eXLyMB7mQzbxPjLtYFn6bGbHIhD8YlnwLRn5VEjsZmD8aF/zNiTtWVHuST79XVT3UUf4Vk35Zl/8T0PmNifsRTnrQTXYPC/tMBxFyYGwAAAAiHRSTlMAu/3psCDwCBMFFbAsWAVbJWYonxLWCVgan2SSTvWmp3R1OpMmT+Y6vyYn6kuleJ9ke76S9W4vefj7wWSnpb3Orj6171n17lbo59XUi+2fkqZUi0lebWYlzC289Xe45SN3+e/mPrTUC/Nb7hZld4rL0PQ0XYqxNu0q1nTzdjP0NhrK1tYaY9LRHYbZ+QAABLRJREFUeF7tk1OQ5GoAhTPYHexwRztr27Zt27Zt3pukbXts27aNtW3fqtv5s7VTme7OzLztw34vSfd3zqnKnwr0Z/OXNStWLVk8deriJatWrGl5e93WTZurq6sfpaU90l42b9q6riVtG5f129Levi7MzH4sFj/Ozix8/TZt23oXm+b2XdY+f5n/7lVGhjgJIM7IePUu/+XztS7Nqp899aWkQBwVmkQgNEpcUPLl1Nmm+yfOfFQm4fXGE0nKj2dONNU/WfI1OyrUAFHZX0tOkp+e6+fCUNp/v8F7Db9poYWfXcnO0vVTKc2XhlNVVcWg+4WE+NEZ2lsaQCtLP7ka7h/OL2AwfHFot6PZyINZM2bMeoCwo2/TfHEYzIL8w4b6+8pKmUwGwJde5D5vov00O3Nzu2n2E+e5F9F9ccNklpbt099vu1+p1QBPFPnH3rJBWdr/i6CevyRDub+t3oFdSlmxJwaTrjp2aA9R7jl0TEVnAl0sU+7S11/2NJN+G+ADO53W9aedYB/c0zOfLtP1zgseetIxiinwkXaQHtodYVOKQcTz4QJnHT0zRUbx0ULPkp4DfT0L56RZdCxDkaXM1LGTU3woGFno3uOQAY7vRbNAyCdlss4rGCvzAy6EvxEyyEZ+CAj5ycY2fhFjEupq/DDC5psZHjCbH0bBQjV1CWOIxmZ4Qg0ghjcBImECLwbPJQy3IYieA+piMELiTMzJBsxN4kJAsHZAT4LoyKm9hxHjNQgiZZBXDAjWcjoSRNe4u3cArKHkA0NZeO5uXFeC6IDeA4IDdycf6M7jgOA9tANBdEbvcDCiO7UiH2jVKRoE76CdCaJNACcaA21tST5g3hoFQU5AG+IAF40END2A51AucaCLNBhnZFOPMPJXUNqFIHqwggMwIqV9yAf6SCNBMJjVgyC68QLwgeBb5AO3giPxJK8bQfRSc8MAmknkA5M0eI6r7kUQ/U28uQCPuY5kfce5HnjO26Q/QVj0hbleWqQaj/ZkA+09NFIsx4X7WhDNMLdwgFfObrLPeXeOF55zG9ZIjR7HCq/U4q3JOW944HyOxhtLhbPGjW7sxvtXemMovl24ZKh/6cI3BQhV+o/XkbaBFWBBUVR+/ab+/s3r5UUK0K8ItNV9PCc3BQujIvbHtav6+lev/YitABGFm5Oeg5qTTGVVYMAe329c0fVXbnz3gEGARU2eA+lh+n2YDRDGll2+6EyUzhcvl8UKcQ/fnw7pw242woYBQlV57tGDBxrUgYNHc8tVQtyykdl2kF5s09UwD0CNyPvwfsfS1Tu3ODpu2bl66Y73H/IiqLiD1em2kAGWp/oLqTiCoNgnuc/ebNi+fcObZ7lPYoMEv4TQP3U5ZBCHdDeQAhPyIFXeTy15qiA5qAPc0h0gw1g4JCLUiN8I5PIXL+RyQcM/VCTRwQIiY6EokB8hMEAEP1C0EGqClYtSEYGArweBAEldtBJqEitTUTLC59c3gs9HkkWmVlBzsJ4iindX12s3/AHadr3aPV40xRpqJmbWRsaS+EB3RI311Yh7YLzE2MjaDGoBVoONehuLJJLERIlEZNzbaLAV1GL6DRw1Yoip6ZARowb2g/5o/vI/8o0/sUo2qNgAAAAASUVORK5CYII='
p13
sS'twit'
p14
S'data:image/png;base64,iVBORw0KGgoAAAANSUhEUgAAAEgAAABICAMAAABiM0N1AAAANlBMVEUAAADdLkTdLkTdLkTdLkTdLkTdLkTdLkTdLkTdLkTdLkTdLkTdLkTdLkTdLkTdLkTdLkTdLkRwyRsNAAAAEnRSTlMAIGCPv9//AFCf70CvgM9wMBANZ/LfAAABiUlEQVR4AdzSwXLEIAiAYdAIisaY93/ZTrfbGVwTV6a9tN89/wQBJtD5LdBT2LxDvgd8I6ZAg5CiLYRe6IZ4XA7lQlMlL4Uw0VsJ34d2oQWyvwlhpUUVZ6EotEzcfWgnk/0ulMgoDSF7ZyiBqTMpwfx9qj9ybi3nw9fJO6lQpFFxJyunKzSKfQhler2TqxfsQsN/b8iXcBum16F9emw9J5fPBFeD1cYTrV4NBxebrydPnS+l9B3KY8dWys9QGTu2UvkKIWnSeEET0vAR8qQ5XuJI849QF9940UaKfIYiaciLkLTIwKnf5KrX74DD+EP2XwoM2O/RoJCC4Ewr0/ovwZNyssFJige9xsomVZ8NBJ1lEz1MAFIONjlI6UKZTfIfCrX/O9qP1v9rB/nRih3UAACDUAy9kuDfLwcUNHnzsE9b9kXYp2UzooZNTS0bf3aO5IF0J5tBBMMaB1oM/RyMMjxmwA4UAkhN0KwtmuXET6gokGOg6yAgjE8aPrL47ENDlEhjPtb9S/nwAD5Dhnoqc5dzAAAAAElFTkSuQmCC'
p15
sS'gmail'
p16
S'data:image/png;base64,R0lGODlhDwAPALMPAP8AAM0AAP0AAMUAANQAALEAAKQAAPAAAOwAALUAAL4AAPUAAOQAAJsAAK0AAAAAACH5BAEAAA8ALAAAAAAPAA8AAARM8EkJap34gRNSGYwAZADRZMQiTOWZUYN0uK+GaEGNCQWQ6CwFoACkCGNFH4BRfCwMD0FOV6IsqAeoRDTCbByZAIK7IWhfBYUicZZEAAA7'
p17
sS'related_to'
p18
(lp19
V\u274c Cross Mark
p20
aV\U0001f44c Ok Hand Sign
p21
aV\U0001f646 Face With Ok Gesture
p22
aV\U0001f534 Large Red Circle
p23
asS'name'
p24
Vheavy large circle
p25
sS'known_as'
p26
(lp27
V\u2b55 Circle Emoji
p28
aV\u2b55 Red Circle Emoji
p29
aV\u2b55 Correct Emoji
p30
asS'default'
p31
Vemoji*
p32
sS'bw'
p33
S'data:image/png;base64,iVBORw0KGgoAAAANSUhEUgAAAJAAAACQCAYAAADnRuK4AAAKn0lEQVR42u2dH5gVbRjGXwiCIAiCIAiCIAiCIAiCYCEIgiBYCIJgYa9rYSEIgmAhCIKFIAiCIAiChSAIgiAIgiAIFua7fqdvvu/s7Mw5M+d53nfed859X9crtXv2zMw9z/8/oSoMHz58qO7cuVOdPHmyCiFM5ty8ebN68+ZNdXh4WNTzCKV8UW7ulStXJkWatnPhwoXqxYsXxRApiDgi0iQJtK7EaSPS+/fvRaC++Pbt28zGWXfiNM+tW7eqT58+iUBdQFTv7u5Wp06dEmE6Do7Ds2fPslJrWRDo69ev1bVr10SSngfV/uXLFxEIYChK6gw/J06cqJ4/f76+BPr161d19+5dkcF4NjY2qt+/f68XgTAG8S5EAD9PbSwDOzmB9vf3pbIinNOnT1evXr2aNoEeP3480905eDMYooQLHj16VO3t7c3iTgcHB7Mwws+fP1u///fv32f/TzqFh4XX+ODBg5kDkMtLsbOzMz0C/fnzp7p9+/ZoN/XMmTOzvw9RIAnfJwbwjF6+fFk9fPiwOn/+/GjXy0uRytUPKchDECz1Tbx06dLsRiItxsKPHz9mcZsxIuo3btyI9qIkIxBvAVnmlJIG0iBlcgNkQuWdO3cuaYY/tocWYkqeVOThDSeelOKN83ipUHNIyFQkinlfQslqi4fAwyithqYmEh5pinBGTHUWhUAEt2K7rBjEJRKnjUhPnjyZqd/YkijG/XIn0ObmZtQbwefjTk8NhA7u3bsXNcxB5N+bRK4EIgYR6+IxPonVTB3U/sQMAWxtbeVJIPR5rIsmrjJmvmdqeUKeVVYEItYSo8idz8S7Wldw7dh7Me6rV5WjmUBIhhixjcuXL1efP3+u1h3YexcvXnS/v2fPnu1M2SQlUAyPC7cTMS78/5LGCIt4eGYmAuFKe18UnkgJAcEx3P379++73++nT5+OQyASh94ZaIzlKcR2YgIvytsestQShVXfBu9Q/Pb2ttjRE+TUvAvSVvVyVyIQNTAiz7jwjrmRhE5CIMSdZ7SUyLKwGjxtIp7pKqpsMIGuX7/u9qWp5JPNk48XvMrzGEQgT6+L2JFHHELe2aFrRn9o4LY3gXCtvQKGeG85Fn2VCuq0vbL5BBiHGNS9CURpphfLx+gemDrevXvnlk6ivMSVQJ7SJ3XXwDqBB59aCoWU0ufq1auKMke2h7xmDPSVQiGV9MHuYYiCEBcU73tkCPpKoaUEooFfqqsseEWq0TxmAnn0NFlC5cJqqswj1URJzbK40EICvX37Vl5XoaD81+PZvX79enUCeZRVKto8Hqirsj4/WsJXIhAFXR7llDkPiJw6KDX2cH4WFfd1EsgjbUHFmzAuPHJli4zpEFP8jTnYQPiLjx8/upghgwiEyLKGxQkaCnnAGlyk1KMr8d1KIPrNrazNYQCkEP95thLIOugb41txn3xANoHIsnWYZy8C4XJbQ+EQUMgLlKxai+/b8pjHCEQzn1XcrUMPe2mg3MP6XNtquIK3+74sbiCMp8asRWdtPWTB2/7p0pXC+LAOOm2LSh8jkLW+tk8GVxgH1Dtb69gXEggxZ9WTuSwBEdrje9aWrKZ3fYRA9AV5M1TIC1YN0zSkjxCIsgvrUjQhb1htXIKSnQRiFYHlw6mEE/KGtfC+WVl6hEDWVtl1niZWCqxpDcbvdBLIOhhc2ff8gQ1jeca0tncSiBpYy4fTISnkDUbmWZ4xE2Q7CWRt31Hpahmwtvt0Esi66EQoA9bMfBQCNUWbMN1Y0LymCV66kf4xoQxQLepl6/5HIP7R0zoX8oV1SJgIJAKJQIIIJIhAIpAI9C+oFbF8KAtBhDJgndwx3yOmONAawrrQrjOQaOlG5XeFMmBp22o+5+AZoVQzYf7gGUVLplqNKxr5hbxhLedoDlo4QiBruaMmkeUP6+SyZmvPEQKxr0slrdOGtaSVTU2dBLLOg1ZRff6waplmd+oRAln7p9XWkz+sjlJz7sERAlmj0RwGXQt5wqOxsNk4eqy12dqAr8kc+cKqYeBGs2z5GIGsnRkY4kKesM4IYm5mE8cIxP5Syx8hzyLkCWslYtte1WMEYjK51Q5Se09+oGTZav/s7+8vJxChbuuE1iELy4Q0wP2OMam1dcimdSys1Nj01BdNp20IMYwtzQnKC+xps6qvZgR6IYE8ppt3/UEhPawpKg6bm3oTyCMepGGbeQCb1ro0h9/valvvJNDm5qaZtW1TPYW08Nh3u2judyeBWNPksXdTUmhc6WPtg1+kvhYSCHisTZRLX7b0Ifm6CAsJZI1K1/qza9OLEA9Ifqsd2yc1FWJHL+WRjQOPUAzPfllWYenWZo+9qXwRdnAIaUAMzppN6Ls0ZymBPPZuLtt6J/jC2hwxZN9tSPmFtAYhPlgM5/Gs+raq9yKQh0tfqzLC6kIcYK94bNoesm07pBaLJOXUgOgP9pxYE6arDMroTSAvKcRhoLngCwaAez2fvtJnEIGAxyrw+rBWQfABGwI8wi2rjOkZRCDsF+s+1Xl7aFGIXOgHCuU9XPZVwy1h6Bfe2tpyk0KQUXVDq4P1XF5G86oNEYMJRFrf2pzWbEaUZzYc3DOPVMV8zqttK7M7gergopfOFYmGgxST50s81HA2E8hblYlE45KnrV0nOoFQZV5xh3kSodeFdmDgepPHGpcLlgtCYngacXX5hwZVtRvMnjZP7cRYk9zBemHWDXhd7iQNjsJfMG/AK3wyf8ibWRE8LtAzCtqsI1r3HWQU9Xk6LPOlGh731oVA6FC29cQgEZHRdRwZwzV7Rv6bdo9XlWjwvGDrxsNFdlFbX/ZUwaxJj2L4rkYHPDkvBM8Lx9CLoavnBzxOub6aOmbMgRgqq7YtvR2U4H0TyG955Wa6pNHe3t7kyENC1NvLag4Ij5F7DDFuBh5UrLdofoAD3knpRjYP1bote8wRzCHmGxWbRByCmSVm9cmiW6egpHTXkxOojhGlIFGdDKSVOmcbCW8V9ctmoxT3hBNb3YfYNy2VJJrX9fT1I5VyUW8knymViGnjpJY8yQhU20QxDetFoXr62tD/KSUTkgb7DCLHcseXvUSpIvkh5VuY+g1s3lRsDiQBqpUckJeEIicISYkaM+XWOz841EtNaROGlKKcthPvbLJVQrG+CGIR2id1srOzMxP9qN7moY4bAvKzRMixZWLGvUooiQmp7QGCZdZ9DTrHz8bGxigORHIC1fBo/tcZP+k8GoEAhuaYdlHph3s3dtnLqASqk7Cxss5TPthgnknRYglUg4DXmN5LKQejnYBpLjGubAhUSyOW1oko7YeYVg5SJ1sCzdtGHvMZp3IIfeRa4pslgQAimnlCsYrUSjGSGVKa8zSTbAlUg27JdSMStiABzRJGJGdPoCaRcopkxyg3LYU4xRFoHuR6iLymzPLHPKRSSJWUWBxXJIHmc2vkp8hnlShtdnd3i59OUjSB5kGxOP36BCXHKB3pU9BO6xMpHCoTVpmEIQIlTNgSChiTUBCmLh/BBZ9qN8kkCdQWEqDliJodVB4BOWqpPVQfqgjJQoUB9UDUGh0cHKzNING1INAycmFLQTBm5GCgt9UCcZBq/Aw/y+9MRQ2JQIIIJIhAgggkCCKQIAIJIpAgAgmCCCSIQEK++AeHSaSLsEpdcgAAAABJRU5ErkJggg=='
p34
sS'version'
p35
VV5.2\u02b2
p36
sS'uni'
p37
V\u2b55
p38
sS'desc'
p39
V\u2b55 Used as an alternative to a check (tick) in Japan for a something that is correct. The opposite of an X (cross mark) for something wrong. 
p40
sS'browser'
p41
V\u2b55\ufe0f
p42
sS'annotations'
p43
(lp44
Vcircle
p45
aVo
p46
aVsymbol
p47
aVtravel
p48
asS'wind'
p49
S'data:image/png;base64,iVBORw0KGgoAAAANSUhEUgAAAEgAAABICAYAAABV7bNHAAAAAXNSR0IArs4c6QAAAARnQU1BAACxjwv8YQUAAALXSURBVHhe7ZqxihRBEIZXUwPNTMRAMDgUM0FBMLnD0EDwAQQDQ9/B1Ng3EBQEU8FAswODg+OMBBOjUxB9Aq1vqMGmrnf3dqanq2etD37qZm/Z7fm3uqa7ZhZBEARBEARBEARBEARBEARBKc5o9OCSaEd0XXSLFzJ8ER2IDvXvreeC6IHog+jPhjoSPRVh7NaBMY9E30W5k99Uz0RVjKoxxW6IXoqudUcn+ax61x39457oouhud3SSH6Inojfd0Uwha3IZwBTbE50mC8g+3vtKlPssson3zA4Gbk8GY8iooWBozig+d1Ym5cwhm0pxW2Tr2WxM4kqTDpwTGZM1y7gqsldDsqtp+GXTAWMOJzIVZIw1iR+oSRisTfspzenJfe8UGTsaW3dYENaCHyL9bhaVTcHVJR2gRy2wSwqWBs1gs8drO0Dm9GNoJouoAak5mOUFWZOOpUYNXIsdlGeBtAV79BXtrMYxpHsl9lS0Jrz4JUr3Zvc1DqaEQXc0wluNnrzXCMs2uqemdAZ91eiJbay5r4laqT8pxcY0NoOaXLEaRl3JSkyx1jmvcRD/g0HfNA5irEH2kn5OoyeshVKONQ6idAZxG8ebyxqLUMKg1xrhpkZPbFEetXAtYdC+RqjZ4ljGrkb4qNEV20Xk2Au7cW6mu5huED37wrYn1MRuHmyj3mMBaXfyTTXwbUeRRnptXojSMXhO9Sw2vUveB1uH7Uk1efuHFE9bnqhGX5g643E3ZRAMLB0omtKknDktLDVWYtMdTWESFwJrjmc/fCNyJlFE7T5pKLbeodmY05MziV+ckxtqFJ9p6xyanTk9uacwEK9xUvx/nVlMJdZZOWPQpDWnxhNmrJGeix52R3n6p8xSVj1dBuyzHou25uHOZdNjU/EZUxT9ZmBaMb1yU2+VKPLVjfF8ThpYx1Bj6Btf0WP4Kfok+i1iCnnejAyCIAiCIAiCIAiqslj8BX3PLAoelw7XAAAAAElFTkSuQmCC'
p50
sS'andr'
p51
S'data:image/png;base64,iVBORw0KGgoAAAANSUhEUgAAAEgAAABECAMAAAAV8YMOAAAABGdBTUEAALGPC/xhBQAAAAFzUkdCAK7OHOkAAAGJUExURUxpce1sMO1sMO1sMO1sMO1sMO1sMO1sMO1sMO1sMO1sMO1sMO1sMO1sMO1sMO1sMO1sMO1sMO1sMO1sMO1sMO1sMO1sMO1sMO1sMO1sMO1sMO1sMO1sMO1sMO1sMO1sMO1sMO1sMO1sMO1sMO1sMO1sMO1sMO1sMO1sMO1sMO1sMO1sMO1sMO1sMO1sMO1sMO1sMO1sMO1sMO1sMO1sMO1sMO1sMO1sMO1sMO1sMO1sMO1sMO1sMO1sMO1sMO1sMO1sMO1sMO1sMO1sMO1sMO1sMO1sMO1sMO1sMO1sMO1sMO1sMO1sMO1sMO1sMO1sMO1sMO1sMO1sMO1sMO1sMO1sMO1sMO1sMO1sMO1sMO1sMO1sMO1sMO1sMO1sMO1sMO1sMO1sMO1sMO1sMO1sMO1sMO1sMO1sMO1sMO1sMO1sMO1sMO1sMO1sMO1sMO1sMO1sMO1sMO1sMO1sMO1sMO1sMO1sMO1sMO1sMO1sMO1sMO1sMO1sMO1sMO1sMO1sMO1sMO1sMO1sMPNoq40AAACCdFJOUwAoTef98Qr+AfPwEDpHB/LsWgsC2hbu3r4JCBwD9uogDUXv/DVYRG4Ru8py+JsFSO25Zg51N3pb5kYsmHk74KJAfQZTzBJtwajlrEoMsU/0kpfA5KYlTpFiZ4sp05VXyKmKrhi9hMdqrUtQ9bf6nZCl0aQaj4CDtdllQlagMTPpMqNw6FsSAAACs0lEQVRYw61YVWPiQBAOCYRQoBQoUEpxqLu7u7u7u7ve8cvvdhJoWkpI0pmn7M7Ml2R8l6JSExfwB5/ubq8vL69v756C/gBHqaC8G/r+4dHnjQnk9T0+3NM3eQphAsGLK0MsiQxXF8GAApg+62lGLAVlnFr7ZMLYeoq8MQnyFvXY5OD8+asTq4UtTGMjYwmL93Svb2lh3IvZCXm9r7esNlpRF4nUVURry3p9+gQre9EtjbMzORGXrawqaSss/2SVF7aVVFXGuROTO1I4mjGtIMi0dNYk82s6WxhBQDumkcDJEaSc56bun0W6TedOQShHkw5HOz2fm/ptufPTWmmkuV0h6hY80ob0LAixujv3E9sxzHNnltxpXbs0w8sOO5KZmctnwHONy0hNbtwFwmfLmUksKx+GLlpWinM0j6SzfhdfWQXG0LHMUsEdD4HC6so3V6xB1J4c2OUmtv3gBKJ/7auDzVng9ylWfolgpyAKsszizdFt+M4Nv5Ka5d8Ape1R0d4RWNqwrqz6rUM46Y5Erh8E7E2bMiDbJqgNfobAO2SiM19pXc+HtPuIJDa6wP6zrFIgdhZ83RVfGwfAQrTyVkODlQaMwtIEvt93KAdy7EMEmIRlAflA/Z6K9sftgWqB0Ao7CKxlRE0bHbEQ3Q6+bRqLoZx71AB5oFUU80ZqbieLQ1YNEHtIdNub+WiArrplVwNk3yK6oWdYREny6fspVdRPrB1+gedqAlraoA6ooZRoV8NzK8wGZnVAZrBLKzzXw282qQNqChHtelwgtF9DM/ZLGMn9zyGkgERLEbSkRSsjaIUNr9SiFX+0dkRFPn7TIJl3/JaNNkTgjTVogxbe6Ic2jOKNx2gDO94RAu9Qg3fMwjv44R1F8Q7HeMf1//T2inKBgHilgXfJgnjtg3gRpfxq7B/tMAPKscC+0gAAAABJRU5ErkJggg=='
p52
sb.