ccopy_reg
_reconstructor
p0
(cemoji
Emoji
p1
c__builtin__
object
p2
Ntp3
Rp4
(dp5
S'emojipedia_url'
p6
Vhttp://emojipedia.org/heavy-minus-sign/
p7
sS'index'
p8
V1201
p9
sS'code'
p10
VU+2796
p11
sS'apple'
p12
S'data:image/png;base64,iVBORw0KGgoAAAANSUhEUgAAAEAAAABACAQAAAAAYLlVAAAAZUlEQVR4Ae3SsQ2AMAxE0QtKx15ZhZlgVBwJ+uuxkfJf68LfUYTlAQAAAGgy49S3DgsYNo8n9+QeNp/K1X3hnR3gCyM7IP72AgSUB/AJ56VUbVetTcUIIIAAAggggAACCCCAAAJe8PMYHWrkEmgAAAAASUVORK5CYII='
p13
sS'twit'
p14
S'data:image/png;base64,iVBORw0KGgoAAAANSUhEUgAAAEgAAABICAYAAABV7bNHAAAAf0lEQVR42u3Xyw2AIBRFQUuhBEtQG6XEVwKy0MSFC4xukJnkFuCJH5wmAAAAAAAAAAA6tC5bqst1UVd+ujiuMT2NM/88zF2o+cmdM1Kca6TUEigPGOdcbgkUAweKlkBl5An0QSCPmJf0u5e0z7yD4ouDol8NAAAAAAAAAAD6sQOwfyMAEM0vYQAAAABJRU5ErkJggg=='
p15
sS'gmail'
p16
S'data:image/png;base64,R0lGODlhDwAEALMPAACU/wBr/wBs/wAr4QBx/wAAywBV9ABo/wCX/wCL/QAt4gA/4wAm3wCY/wCH/wAAACH5BAEAAA8ALAAAAAAPAAQAAAQaEIFJK2jpuRO6/4RRJIdgnmhYLEPrvoPCPBEAOw=='
p17
sS'related_to'
p18
(lp19
V\u2716 Heavy Multiplication X
p20
aV\u2795 Heavy Plus Sign
p21
aV\u2797 Heavy Division Sign
p22
asS'name'
p23
Vheavy minus sign
p24
sS'known_as'
p25
(lp26
sS'default'
p27
Vemoji
p28
sS'bw'
p29
S'data:image/png;base64,iVBORw0KGgoAAAANSUhEUgAAAJAAAACQCAYAAADnRuK4AAABPElEQVR42u3aUQ2AMAxF0Uqr08qomIqBTMMSMuCc5BnY7mfjgg3hCRAQAkJACAgEhIAQEAICASEgBISAQEAICAEhIBAQAkJACAgBgYAQEAJCQCAgBISAEBAICAEhIAQEAkJACAgBISAQEAJCQAgIBISAEBACAgEhIASEgEBACIjPB1RVdshm5n0BRYQdshWRgExAJiABCUhAAhKQCcgEJCABCUhAAjIBmYAEJCABCUhAJiATkI8T0I7MtEPW3U5a+dlJKwICASEgBISAQEAICAEhIBAQAkJACAgBgYAQEAJCQCAgBISAEBAICAEhIAQEAkJACAgBISAQEAJCQAgIBISAEBACAgEhIASEgEBACAgBISAQEAJCQAgIAYGAEBACQkAgIASEgBAQCAgBISAEBAJCQAgIASEgEBDPuwFmf/AIL7dasgAAAABJRU5ErkJggg=='
p30
sS'version'
p31
VV6.0\u02b2
p32
sS'uni'
p33
V\u2796
p34
sS'desc'
p35
V\u2796 
p36
sS'browser'
p37
V\u2796
p38
sS'annotations'
p39
(lp40
Vmath
p41
aVminus
p42
aVsign
p43
aVsymbol
p44
asS'wind'
p45
S'data:image/png;base64,iVBORw0KGgoAAAANSUhEUgAAAEgAAABICAYAAABV7bNHAAAAAXNSR0IArs4c6QAAAARnQU1BAACxjwv8YQUAAABiSURBVHhe7dAxCoAwEEXB6IGsPJHntfJCupK0sqQQDM7AJ1uGVwAAAAAAAAAAAP5qam+PJbbWczh77Kjne7bYOejuv3eZ28sDgRICJQRKCJQQKCFQQiAAAAAAAAAAgO8q5QKqQjCoojHTTgAAAABJRU5ErkJggg=='
p46
sS'andr'
p47
S'data:image/png;base64,iVBORw0KGgoAAAANSUhEUgAAAEgAAABECAMAAAAV8YMOAAAABGdBTUEAALGPC/xhBQAAAAFzUkdCAK7OHOkAAAAzUExURUxpcUDA50DA50DA50DA50DA50DA50DA50DA50DA50DA50DA50DA50DA50DA50DA50DA58suUVEAAAAQdFJOUwByLNYBl5acBQRO1f4qcJSWLKzfAAAAZklEQVRYw+3URw7AIAxEUXpiqu9/2giURdbYbKJ5B/iyTDEGAAAAjqN7G30yzqZrW7LuzYTsWcTnsEKtsFBpa6BepaHa50g0WGzMjVOUh+LfQ1rLVjt+tQup90TUHq3iNwIAAACHPK8HOYFn63xrAAAAAElFTkSuQmCC'
p48
sb.