ccopy_reg
_reconstructor
p0
(cemoji
Emoji
p1
c__builtin__
object
p2
Ntp3
Rp4
(dp5
S'emojipedia_url'
p6
Vhttp://emojipedia.org/heavy-division-sign/
p7
sS'index'
p8
V1202
p9
sS'code'
p10
VU+2797
p11
sS'apple'
p12
S'data:image/png;base64,iVBORw0KGgoAAAANSUhEUgAAAEAAAABACAQAAAAAYLlVAAAA6UlEQVR4Ae3YwW2GMAwF4FePw7XdoAzBBGUPtigTcGCU9sKBWQARp2eqRJURSah4+W5Ilp5iwp/fgsKLARiAAf5jgHp692H1VMNK7CUajaYniKIse4A7vIQa8ZRTsMFFbCeIvQT8EsZa8Jgd2KER+wliL8Gs32GY87SgeXkLQ3NBAN4HGGD5TAxH8vuB/0gMR+KR1/0DFL8TsgVsAVugfVp/BkCbFn+OLwjAAOuwfIWtwworsZe4Cq9hrnKwEnsJBxQ7XESu/4bljyGHVLGVaUjFEQ13QDu0YdrlmZaPvg/DyAsJAzCAff0AhTILG200zYIAAAAASUVORK5CYII='
p13
sS'twit'
p14
S'data:image/png;base64,iVBORw0KGgoAAAANSUhEUgAAAEgAAABIBAMAAACnw650AAAAIVBMVEUAAABBQEJBQEJBQEJBQEJBQEJBQEJBQEJBQEJBQEJBQEJ9LkK/AAAAC3RSTlMAYL//ACDP7xCfMN+6hX4AAACfSURBVHgBYxhZQMjYWNEFDTCg8cOMgSAVvyLXYpAi8xC8ityMwSAFryJhiCJDvIqUIYqM8CoyhgI6K6LU4YggoDQwEdFCfgQjAL6kggAeLS6YijDBCFQUWWyME5hPhSjyAqrBo2oJWFG4MV5QClY0Gb8iS7CiYvyKzMGKjAkAYhURto5YhxMOAiIDk3C0kJ8KRhWN1i0kKBqtW0ZWbgEAYbhSl9GUaYQAAAAASUVORK5CYII='
p15
sS'gmail'
p16
S'data:image/png;base64,R0lGODlhDwAPALMPALIZ/6MD/zIAmpMA+ZgA/7ks9EYCqscq/50V7sow/10BwoEA6TgAnm0C0C8AlQAAACH5BAEAAA8ALAAAAAAPAA8AAAQ+8MmZUpkYpxBa/lugfFnRNAaprqx0AHAswwgDEHiu44sDDMCgENgzMI6CpPJ4bLUOhwsrNJpyqquCQpHKRAAAOw=='
p17
sS'related_to'
p18
(lp19
V\u2716 Heavy Multiplication X
p20
aV\u2795 Heavy Plus Sign
p21
aV\u2796 Heavy Minus Sign
p22
asS'name'
p23
Vheavy division sign
p24
sS'known_as'
p25
(lp26
sS'default'
p27
Vemoji
p28
sS'bw'
p29
S'data:image/png;base64,iVBORw0KGgoAAAANSUhEUgAAAJAAAACQCAYAAADnRuK4AAABiklEQVR42u3cMRHEIBRFUaRFCm6QgQxKJCAAMeyk2m6bn4IN5848A8kpgbSkQMknEEACSAAJIAkgASSABJAEkAASQALofZVSVs45NIAO7rqulVIKDSCAAAIIIIAAAggggAACCCCAAAIIIIAAAggggAACCCCAAAIIIIAAAggggADaIwfKABJAAkgASQAJIAEkgCSABJAAEkASQAJIAAkgCSABJIAEkACSABJAAuhbrdU22Zzz/wBFb3zac7sRAWQAGUAAAQQQQAAZQAYQQAABBBBABpABBBBAAAEEkAFkAPlxAEW6X4G3PdZac6RVhx1pFUASQAJIAAkgCSABJIAEkASQABJAAkgASQAJIAEkgCSABJAAEkBvbYyxeu+hAXRw96W76K1PgAACCCCAAAIIIIAAAggggAACCCCAAAIIIIAAAggggAACCCCAAAIIIIAAAggggCSABJAAEkACSAJIAAkgASQBJIAEkACSABJAAkgASQAJIAEkgASQBJAAEkACSAJIAAkgAST96AM6JTEBZkOYkgAAAABJRU5ErkJggg=='
p30
sS'version'
p31
VV6.0\u02b2
p32
sS'uni'
p33
V\u2797
p34
sS'desc'
p35
V\u2797 
p36
sS'browser'
p37
V\u2797
p38
sS'annotations'
p39
(lp40
Vdivision
p41
aVmath
p42
aVsign
p43
aVsymbol
p44
asS'wind'
p45
S'data:image/png;base64,iVBORw0KGgoAAAANSUhEUgAAAEgAAABICAYAAABV7bNHAAAAAXNSR0IArs4c6QAAAARnQU1BAACxjwv8YQUAAAGNSURBVHhe7ds7TsNAFIVhQ0dHQwclLRUUFJSsAIkFsBb2wBpgFSyACiFRsAM6Kkq4Rx5LkXXxZJw4w+j+n3TkUTyW4CgPO550AAAAAAAA2LZDy53l2fKT8mi5sWhfaKeWT8tQzDjapzkh5coZErYkvYy8Qrxobih6RnhFTKXKs2g/bXftKm1LzDlmY7UKagYFZdQq6D1tS8w5pmlvFu/N2IvmhnNm8crworkhXVtyZ9KaE9qx5d6yWpTGekz7AADw7aVtCZ2TnPfD5rxYXvvhcvT16Oq5SkvR316Ei9UMCsqgoAwKyqCgDArKoKAMCgIAtGvO1x1L0eKEg37YfVs++iEuLd5NRD2mfaHp1s64mHE0JyStQfQK8aK5oWhx5tQd1XE0t8qCzlqXGheWo364Fs3VMTtXq6CTtC0x55iNcbGaUaugr7QtMeeYZmnVhvdmPJVwKz3WOQca8mAJRx/bq7/P+CuaE/Y3G/rHp1bca1/Vcv7Lxaru999ahtX0ulB9six+Hx0AAADA9nXdL3Pt2bndH/MeAAAAAElFTkSuQmCC'
p46
sS'andr'
p47
S'data:image/png;base64,iVBORw0KGgoAAAANSUhEUgAAAEgAAABECAMAAAAV8YMOAAAABGdBTUEAALGPC/xhBQAAAAFzUkdCAK7OHOkAAADbUExURUxpcXV/P3V/P3V/P3V/P3V/P3V/P3V/P3V/P3V/P3V/P3V/P3V/P3V/P3V/P3V/P3V/P3V/P3V/P3V/P3V/P3V/P3V/P3V/P3V/P3V/P3V/P3V/P3V/P3V/P3V/P3V/P3V/P3V/P3V/P3V/P3V/P3V/P3V/P3V/P3V/P3V/P3V/P3V/P3V/P3V/P3V/P3V/P3V/P3V/P3V/P3V/P3V/P3V/P3V/P3V/P3V/P3V/P3V/P3V/P3V/P3V/P3V/P3V/P3V/P3V/P3V/P3V/P3V/P3V/P3V/P3V/P3V/P6DE4jUAAABIdFJOUwCX4+0EMf6cBQECC5Zy9PljJe6//B7IDlF1EzxBJyyy1k7VKnCUzbESrdkf385GS/he0LaBChk9I+zSsxjhfyLgQERJ3cz3W0WprbUAAAFGSURBVFjD7ZjXUsMwEEUVxzbI6b335vSE3iGh6f+/iHEygMQLzO6FB8bnA85opF3N7hXiO2JTx5nGBBf/dTyxrMl47fM8zuhF7ViNHJZnqD4YMkzVltJoVakemU7polRaEkWn18rgmPp29w+m6PaCKDq/NEXRDVFUj34R1YmihmWKrAZRVMqZolyJKPIqed2Tr3jUQioUdVGxQC/txezTM1swek0u5+5e486XktX+mbujbDKZvTrJcD8keVMrl2tnnggJ+TvsQzK2pmkm4gdk4onmexN02opFu7Pv515XMen2dgfqu1yR2w+OZA8Um0Fw43aEL4r8dxHqsmHPDytIXIvAmhb4jYSE/DaoQQs0+snHZ8wwun3CjMeogR22QsCWGtiaBVv8YKsobDmGreuwAAEWaeBCliD2WUFiHyH8NSaI+nk09gYlw1kiustQWAAAAABJRU5ErkJggg=='
p48
sb.