ccopy_reg
_reconstructor
p0
(cemoji
Emoji
p1
c__builtin__
object
p2
Ntp3
Rp4
(dp5
S'emojipedia_url'
p6
Vhttp://emojipedia.org/curly-loop/
p7
sS'index'
p8
V1203
p9
sS'code'
p10
VU+27B0
p11
sS'apple'
p12
S'data:image/png;base64,iVBORw0KGgoAAAANSUhEUgAAAEAAAABACAQAAAAAYLlVAAAEcUlEQVR4Ae3Xb2gURxQA8HcBES8ghHxIaLO7d7u5vd3bP282V9pKQDBFvE+FFhEDUiRCUQjYfLCE5oO1oC1EDFIDUhALLUGQIhQCEUIjpqW1NFhCD9tALBYaUZFACG2vcp3uktzN3cW7NyHph8LN7z7ovTc7L29mb1moN5qjOZqjOZqjOZrDNQM9eImdDt7FAdYfHGF9gW632UBjKruCY+w0m8DLbCJ0FvcqLQo8X9V/9Dh2sBy7FHzKpthqqBhwgRVwMfz+EjsUlgYb2W3osEM4wqYCXovNYlRSzmg1oFr5H8HLwSc4zx4GnMZWcbrnbdEPo9XtdCx2VmJmng0zlYEALHIUb4kkWbgYvM/62FFvEOfYQ1aQnveETQRHenb1QCT8sBwrMr698Cn7Befw2wib9W/gmD+Jv1dlTK91MPzggw3Tn+Acm8UfWT6MrbLCJhd/gLfwjY277XbiAI7gEN5iBXwWZubDbQcIAHmFef+Cv5+pEANQWjI7rXbXRB97Wc497l/AaVwMJ/M6nuLt6MRjBwLBQd9/Ey+HndkLCCznT7IpvO1dY33RzjSix/3RegX434i/Wo7Sgh2Am5Dd4Y+yVeR1Tbu7XdicTaT27PJHfV7Je+x9X/PNV27nf1RAZqd3rXYxx8ru8D7wClXf5r0eD+RJpkXLe7ySezG7IwsRf7/7c1VsyTnogCypJLvN/bJ6eRxBEKx2/0ZVvIA+ghypJOecyysU3eMbdjLmfFaVc3EbzwBTMysOL/tHLF/JaM184XDBG9y2M2Afo5eP6PHMvMi078vdkmSC1W7fz/AS+0Mb6kvvyayIXPOkCTQywTps8xLrTnTyGzGHRHZ6QY/rQCET7DM2L3vNhsbCp8edihL2pIFChF0zvVC+4E2IATmcgxUdu2IBhQin37N42WELaHo8vVCakf4pszMDjRFhczTN1y2XH7MEMcd85lhb/CU0Pzb5GmMGYiA10q+bvMQ+Rp2ahkG9N7VUulTqagrkJHzzz3IJ57Z0G6YGU7zEGDdAkt29Up73EVVu4/CYKEC+A5UFGP1UuQ2DbqcxnuLdkU2cAb23uxjOiBT13i3+ELm7jaX1i60kXkyADPNkmL2maNhkB4hwLHnP4GvMIRNkGDOlGfpj+m2SCsf073S+7ler3QJK4pXk3+UZs+KltB5QCMlTOi/7XAdKclLkJ87TG0YmGK3Je0lediYJjWgnklxQ96lAAZUULsoFbbz+Q9boT/xVkTlPPglCQKfo3eqjBBfUGSWrQI0wK3E1igragAY00GTktOWqi/+hDVceyPAGPV+TwbWb5AGkD6Gg9yaWahb4TZvSxpOntGH1uuiQiOrdOsgAXZL2qvpI43LUmS6vC+SQCYK6T7krtfwY0XxqCxrIKgWVN6IUlHdE/vYX0NJ1QMmHfZh/3uLasvJ11wGqj/QWEPS4u9tq106o17Vx9QflrrqgLij58NZ8y+2Ubz3dAVL03qOYipnwuzzDVl6g8ukCtq5ZQLOAZgH/zwL+BRmtrj5pKeNJAAAAAElFTkSuQmCC'
p13
sS'twit'
p14
S'data:image/png;base64,iVBORw0KGgoAAAANSUhEUgAAAEgAAABICAMAAABiM0N1AAAANlBMVEUAAABBQEJBQEJBQEJBQEJBQEJBQEJBQEJBQEJBQEJBQEJBQEJBQEJBQEJBQEJBQEJBQEJBQELd6pctAAAAEnRSTlMAMGCAv8//31AQAECvIHDvn48PVPqvAAACAElEQVR4Ae3X2a6jMAwGYLIQk42E93/ZUXsov2iNnUGjczHqfx19ODZhmaZvvjHW+Tn8hLxbYrpIzM7Tvq64nI5MKdW1tPAev9ZPpa4+nNP68oKiDxeZ7amuaOfAhVx8QpyD6x1l1d6ulz2oKcgp+YcJYmZA1/H1gyHfneve+2M7Bluj4mx+ZHFertGexlDzI3uzaXubd96IV7yNic+ULpK70PsRCImufcxGh1jpVFSJ6SZU57cZm3uQaR89yncgeziEyuzfQza8ssXkBqRJcdrzdOemSjy0HA2u+wBnTZrEPneMvONYDUORXk5KyPbabByGPByub/MotPIOanJjUG0XDvpkdAgbm7lW7LPzI1DeW8pcFdVmDUJBq3ijeh0y0mRwnaxCnVnI7LyrUEPpUklNgxb5QGHFokCOvR5T8yZAKLxIUMHmBaixZ4A5QU2BuJnxc/slqA5A5h9W9PvQIkHLEETy+HHPkgJ57ahhycgRCfHaicxz+9ahtZiHBKWg7Y3ExwjSlbnZoQcb7hKKvBOb8qhFCJdkUvSHP9otSD3oryP+zc87ZfSVzX98mln6HpmEr6yAD3T812CkKpTWcKTYZ1nGlnDEjn+xbUEIHB1KVnMUCMnEM2TSEIRExzku3viFqFs7K22rd/+ObKdjT51vjgYBy89gSyqk5L+EvtAfOUWllJMyLToAAAAASUVORK5CYII='
p15
sS'gmail'
p16
S'data:image/png;base64,R0lGODlhDwAPALMBAAAz/wAAAAAAAAAAAAAAAAAAAAAAAAAAAAAAAAAAAAAAAAAAAAAAAAAAAAAAAAAAACH5BAEAAAEALAAAAAAPAA8AAAQiMMhJq70T4ByA19YnjiSYiZspqRTLrtf7dmFstym6dd7uRwA7'
p17
sS'related_to'
p18
(lp19
V\u27bf Double Curly Loop
p20
aV\u2649 Taurus
p21
asS'name'
p22
Vcurly loop
p23
sS'known_as'
p24
(lp25
V\u27b0 Curling Loop Emoji
p26
aV\u27b0 Loop Emoji
p27
asS'default'
p28
Vemoji
p29
sS'bw'
p30
S'data:image/png;base64,iVBORw0KGgoAAAANSUhEUgAAAJAAAACQCAYAAADnRuK4AAAHJ0lEQVR42u2dL1BVTxTHCQaDgWAgGAwGAoFgIBAIBAPBYDAYCAYCwUAgMGMwEAwEgsFgIBgMBoOBQDAYCAaDwUAgEAgEAsGwzufO4DDvB7+79737Z3f5fGd2nAF8b+/ezz179pyze6eCUhNoyiFQAqQESAmQEiClBEgJkBIgJUBKCZASICVASoCUEiAlQEqAlAApJUBKgJQAKQFSAqSUACkBUgKkBEgpAVICpARICZBSAqQESAmQEiClBEgJkBIgJUBKgJQSICVASoCUACklQEqAlAApAVJKgFQZAJ2dnYWjo6Owv78fPnz4ELa3t8P6+np49uxZWFpaCvPz8+Hhw4fh7t27YWpq6j+Nn/N72sLCQnjy5ElYXV0Nm5ub1Wd9/PgxfP/+PZycnCQ1yPSHftE/+rm2tvbvmrmOy2uKvW7+34sXL8LGxkb1eYzlt2/fqvEtAqDz8/NweHgY9vb2qpu7srISHj16FO7cuXPtAHXRGHQGG8DevXtXDfDFxUWng/nnz5/quvk+vpfvvwmKrhpjPDc3VwG6tbUVPn36FH7+/Jk+QNycp0+f9g5Kk3bv3r2wvLwc3r59W93oNvTr16+wu7tbPSTT09NJXjdtZmamuva2H6JWLRAmNtUBvGlQeVKZWmIHlr/j75lCHjx4kN31Jj2FQXhOAzo65WFBP3/+XE1Fo1PTly9fwvPnz5O2MnUN3ylpgPB3ch3c0ScV/+HHjx/h9evX2VnWmxrXkjRArAZKGOhSG1Nv0gDhUHqj0m2EUJIGCAezybKVv338+HE1N+NfMAViZnd2diprNtpYPfF7Ykcsk1n58P/7Xiq3tdQmjoUzTlyI67qM6Yw2Vnn8nr/juvE1Z2dnG/ljXTjQncSBuKFXO37//v0KEG76mzdv/sUl2g56EXsi1sOA8z04xEOvkrhpQMKD8f79+/D169dwenra6nUfHx9XIQmcfB4wgos8WHx31w50JwARRONCuCAubmhxw1hZAXCXgT2sCg/Py5cvq4cklWsn6o9FJ6hrLqwFATYBxbbhwfKZCytYxHLwI7qMkvP5TKUCVJjwt/AB+grWte3nCNCAYunKiqVP55l8YBdLZgHqWTiQrALHSWuwZD44OKic73F8JlZBlHAIUKbi5o9z41kCj1oPVlQkXZv6T/w9/RCgzEQOq6nlYZqrsxjEWwgANrVEJU9nxQGEtRgNotU1gm+jGfj/W82RaG1ijQhoplYlKUA33FyChbE3FiuFnzTuFNkEVPrVdUWkAE2oV69eRd9QpiKSv5NaO+q4Y7+TKLUAJSrSFbHTSpuxGmJMTQrpyIcJUGJiaogt+upiKuHzRpPINzX6WVK0ugiAKIOInba6ihJjiWIholpAgBIRT3NMvAeH+ffv3532hc+PCR/Q3yH2cAnQBNani3LO60Qpx1D1yQI0xrI9pmiMKHKforoyJsBYwrI+a4BYedXdKMo++w7i4WfFlJtirQRoQMU86USZhxDR6rq+0X8BGtB5ritPJS40VGkpVi+mf7k709kCRAqi7glnB8OQIvJc10dKbAUo0SliaB8DOFKdYm89QGyXqSsKG3p6iNknR2RcgAZQ3fKd/FQKokCtLsApQAM40HVTA5v5UhABw7q+5pwbyxIgdrbW3RR2gqYgNvTV9bXLE8QE6BpRzFV3U8YtFBuirzmvxLIEiLxWLk91zIklOe9qzRKgmHOIUilkpx8ClCFAXZduCFDGAMUkUTnqJQWxFajkpGqWALF/K5dVGDXQucB+awAiQZpLiiDm4NFUpttbAxCqKx1NJUVQt0+N8tbYTY0C1KJittIMvRLDUtZtNVpcXAw5q+hsPCdsDKmYNIbZ+IEUk87g6R/Kv6ASIKasta13dghQB/7FZUH9ED4Gp8TW9Y1t0Tn7P9kDFJOoHGJJz0m1Mf0q4WDO7Lf1cJxczIljfe1JJ4kbc5QwW5xztz7ZA4RiEquX/lDXEMXCU4r1KQIgVFfeetUSdTWd8bmx8BCCKMH6FAMQK60mJ9CzH6utemnqnmN2X1y1hJOeSyRAAzrUV30QkpjjWgLA4SUoTd/HgYNdkoo6oYygXNNTWTlck3dJxFokrAfHs4zzIhdOUCtNxR2ySfR53APCgYlzoYkgYylwdPkXYPh5k+PsRhuvdSrF7ykaINTEJ+mjsUO2RHiKBQil8v5WrFmp8BQNEGIKavvVTk1el9DVO7oEqEfh9DY9XX7SxvflvNdLgK5ZcnMUXtfWiOw7K7qSp6xbCdClODmMFVXTVyHEHOCJz5XCay4FqCeLROqBlMIkbzCkmpDPKeXEVQEaQ9x8kqyXb3omu0+U+ipYWCx+BnBYGrYV3UZrI0BKgJQAKQFSSoCUACkBUgKkBEgpAVICpARICZBSAqQESAmQEiClBEgJkBIgJUBKCZASICVASoCUACklQEqAlAApAVJKgFRv+gv+/m+PL0n3JwAAAABJRU5ErkJggg=='
p31
sS'version'
p32
VV6.0\u02b2
p33
sS'uni'
p34
V\u27b0
p35
sS'desc'
p36
V\u27b0 
p37
sS'browser'
p38
V\u27b0
p39
sS'annotations'
p40
(lp41
Vcurl
p42
aVloop
p43
aVsign
p44
aVsymbol
p45
asS'wind'
p46
S'data:image/png;base64,iVBORw0KGgoAAAANSUhEUgAAAEgAAABICAYAAABV7bNHAAAAAXNSR0IArs4c6QAAAARnQU1BAACxjwv8YQUAAALsSURBVHhe7Zq/qhUxEIePdnY2YnO1s7Cxt7KQi6WgoL2Nte/gOwiC9td3ELUQX0CxsLVSEH0Cne+eRJZlNskmmz/nMB/8yJ49sJvMTiazk90ZhmEYhmEYhmEYhmEYhmEkc8G1rTkR3RTdEd0QPRJpvBF9E30QfRV9Fx0tl0Wnoveiv5k6E3GNo+OJ6IdIG3SOPouOwlC3RAxGG+QWwhuZogcJXqMNqoYeig4GYs1zkTaQmuKew4NxSoJwqYY30lrPwZjPRLdFxKupOMd/a2PYsEZiMFqHNTEIcqFUCMRrjD9cTOKJax2dizxmjWHmcJ/UKTzM6kbcSZkGrGpbkeJNGHIIUpbzGkkd00i711Tdk0m8J5Yh14wHsbiHZ3cl5j0vRLUhrmn39urqRaHYg2fhYbUh6Gv398KAXWCV0DrktWVQjhEL2iUrZzah6dXKezwxL8qeZhddm8M912q8FP3eHzaBQhrFtSUozDUntHr1CIyhZb9LTqR1xKvHnI9l800ZqjMOYp7WF68sSmLQaFSJecdkoCqYgSLkGuiXa5domQN5iIubk2ug2Abedde25KprNb64djUlU4zdziXuurYloWQw20AlhEoNrcsMsbJLy/fC/1BU1zrjxf+tIHPX+uDVrfwaemqt0nu8J1R26Vo0i5UZWuwuxIp2hIJuxMoMeFhN907ZTelSC5pCWVXrmBcuXiMvwvChKY7w8O7EvAgRj7b0pBTj8H+x92z1hRlx4NX+cJGfovuiT+e/8sEbH+wPg/BFWum9NiV1x7N0d/VgiSVrc/nP6YY2VsoUC22bPBVN6zDEho+iK+e/0mH6vdsfNuexa7PRnr4X02q+QqUE0JFUjHbRqTQjMW1SY1JvFaNddC7NSLDmm6FeKka7qCaMpAVcst3Y/nlPFaNddEnEnqW3+FENVYx20Zh4/VhavjnPS+woxgqSssznFpv+iN6KYtsxrHqXRJRMr3GiMa9daxiGYRiGYRip7Hb/AERQP7jtTVh7AAAAAElFTkSuQmCC'
p47
sS'andr'
p48
S'data:image/png;base64,iVBORw0KGgoAAAANSUhEUgAAAEgAAABECAMAAAAV8YMOAAAABGdBTUEAALGPC/xhBQAAAAFzUkdCAK7OHOkAAAGhUExURUxpcUDA50DA50DA50DA50DA50DA50DA50DA50DA50DA50DA50DA50DA50DA50DA50DA50DA50DA50DA50DA50DA50DA50DA50DA50DA50DA50DA50DA50DA50DA50DA50DA50DA50DA50DA50DA50DA50DA50DA50DA50DA50DA50DA50DA50DA50DA50DA50DA50DA50DA50DA50DA50DA50DA50DA50DA50DA50DA50DA50DA50DA50DA50DA50DA50DA50DA50DA50DA50DA50DA50DA50DA50DA50DA50DA50DA50DA50DA50DA50DA50DA50DA50DA50DA50DA50DA50DA50DA50DA50DA50DA50DA50DA50DA50DA50DA50DA50DA50DA50DA50DA50DA50DA50DA50DA50DA50DA50DA50DA50DA50DA50DA50DA50DA50DA50DA50DA50DA50DA50DA50DA50DA50DA50DA50DA50DA50DA50DA50DA50DA50DA50DA50DA50DA50DA50DA50DA50DA52wj98kAAACKdFJOUwAI8xr9Lx3+BnkHrQPLJ/L67edsCtXMDuU6C7owMxmfsyLW29TkEMiyFwwfewRDrPjiw4UCNRy7q6SK6umeoa61TdNX/OxwGL3CLCYrXmPPZy4J5qDYZtKUMtf7ZfBKjQGmREmwxEjxSzERKc4ouNBzG8rjya+QOEJrRuuODcZkp4huaIw06Krd3m0KTwgAAAKUSURBVFjD7Vdld+JQEE2ADSEQgru1QEuBQoHiUKi7u29d1t3d+dWbPXkBEkI3j/205+R+e3cy99nMvAmCSJAgQQKC9PfIu7S3aGi75D2DrfZB1n6PtvcLa5gw+14hn7X4n1AymczmJ51Dqfm0B2ftuCc9nxpykn4bbZat+i3ZfGHPjjn4Oi9/rO/rajwM6Be9SzP0t46ZJe+ifoBv1+2vq2M8oWitDXTBuNEYD+ra2aM8IZWy1hZjY+1tShWE0E34b4SoROBpVa1Wx6ukOXHRoq28SJjJapz+4P7jQIISFIru2s62Ppwse0wEToMwya+GFHwhRflKzto9yydfts5su/xbi224rNxQvfzVupGfl9xEsLo2+HF0mx+hbrPQkZjdyN8cebiu1J315bK+PqhcQ6avsZ4P5DBBDJP1rDHC6UQ2Wc+Q9s9YG2LHmxEooQlwY0of8Iv4QDAoJmB0rFNgfsssS81aADVlhRCyjzNO1GiDG6UYbtwOc9Rgdl+4wYV9gIQ4bo0X1KKFZnYB1CSvRrQQOs24GOaa2TkDw06jooXkAcalt6+Z7etl2IBctBDWzbicckq745RhuzHxQiDPcpxNoDmQbxj0ikLhZjYcgl7R5MhNZzQyKf7WkoxLkVM03EWGTYq/Nc0ayKtU07Ot+QTyb018HCGfQRAHzxvcuQ2QryBS5BuIvdrOAZhec7ADKIMbQgg9YsuPoZB+h+NW+2GJZY5QmDpy3Ciuq8nKs/elRuE9hipsxHOF8IOo+ErA1dqMU1jImYFt3lykkI7FBd8GupytL212u5OGEjsscnXevMWQjoDH8t/rq1KWPr7GO+5yV7Yf5u4GKZnhgVr1wvRvHTP6iO6H72RWpH8HCRIkCOM3KPDeB4GQKzgAAAAASUVORK5CYII='
p49
sb.