ccopy_reg
_reconstructor
p0
(cemoji
Emoji
p1
c__builtin__
object
p2
Ntp3
Rp4
(dp5
S'emojipedia_url'
p6
Vhttp://emojipedia.org/eight-spoked-asterisk/
p7
sS'index'
p8
V1206
p9
sS'code'
p10
VU+2733
p11
sS'apple'
p12
S'data:image/png;base64,iVBORw0KGgoAAAANSUhEUgAAAEAAAABACAMAAACdt4HsAAADAFBMVEUAAAAAYA0AbBAAZw8AahUAcRAAdxEAAAAAAQAAZA0AAAAAIAAAfBIAKAoAaREAXAwAVAwANAcAAwAAQAgAJQUAehIAYRAAYhAAXA8AZxMARwsAWg4AOQgASwoAVQsAYg4AVwwAYA0AdxAAZQ0AYBEAbhMAdhcAYxIAaxUApRwAoRsAphwAoxwAiRYAqh0AjhYAqhIAphcAcRBGwVwAqhdTyGkpuUEAoBITrywAdAQAnw4ArRYAmRAAhwpwzYEArB85tk7L7tFyeXJ90IsAnRYdiSqazaLT3tcAohE2ukk5UTre1dyblJobQB7///8AuCAAtiA/1GAlz1Epx0gAfAyf5rCo6bbA7srR89cAvyZD1mQAqx0gz08p0FIbzkkZ1kov0FVP2HEAuyAOyzz79PoAyT0CYQswyU4q2FU7zljj+efX995B1WNU2HdH1mhx4Is42WMAgxUAtRtM124AlxgAqxsAqR33/fcAuiABshoBxzkAlBcBxTQ301qx7bwgzksIvSxd23oAjBs7012r4rUy0VcAnxsAyUQAtSAAnRkAsh8ApB8Bpx717PTz+/SK2pkArh0Awizq4ekDy0ECWQtXz22dmJxTbVQPxTkAyzYArxoAthky1VtH0WC4vbkVcR8AuiWG5ZqZ6ao91F5Czl8WzUS57MOxoq5E22ogvz8NvTUAmx8z0VgArR1G1mcAfROKi4gfyELb8+D/+/8Asx934JIAzjtq1YAAsxQAyEF/2Y5K1msRzErWydQmTykASwe7tboAohpcZFwAhxYiqzn6/foErSYApBwAmhne9OF3b3QAsB4AkxUArx4ApBYAYQMAphEAoBlR2XMMSRHp+ezB6MdRsWNNWU79/vwFtCY20mLu+u9QlmAWWB7DusHPxc3m9upzf3ENuSiQ3aCtqawAkBcvTTI6mUgAmRgHpyQAjw/Y790AoBsvYzJcfl3g195JklGCgYDd1dtO23Q2dDyWppZskW/E8M0Axj4Fy0e878dN13AAkRsazEwLsC/89/u/x6tgAAAAKXRSTlMA0NDPyc/PJh3RCgXPE7HMtk4nbz/PVXkuxYvUWY7C4r7jxjod3funyTOKZp8AAAcfSURBVHhe3JFFd9xYEEbn+MTZJPEucbwNzq95amZmZmYwMjMzM0OYmZmZmQbhye5uST1j937u5lXV+3SPVPrp/8X2zL1ZG35OwYasvZnb/1OwLWuPORL5IyWRiHlP1rZ/CbZkjEWG3p53HP8rBccd598ORcYytiS9fdqRoWL7wBydyZpcFxaTPjdgLx46kkb4jl27I0X2wSdXnVdZP5i/rQPzBwuGngzaiyK7d+EEGZGiRqW2lGEM68W/E7Baib1YHzYySrXKxqJIBm5/5txyqobOsVrF4stEeLykgVhstXLoGmp5rjmxyU3ptpEQM6APBb/AezyXTWq1KXn2JRjSB5ihEVv6pphgp/mEe65XF84+OtgP/TjEFKORkjTqHzyaHdb1zrlPmHfGBJnP7CFG2MAxvvlYbLIu4bD2MBg9xImp+OMbI8cQZoTszzLjK7Q1KjvIBkO0Q/bdq1oyjMYxjEpZLOkobrCk8n6XdUQNBnKHstEWX+OOAndLmMzhcPyd4Ju5p5+ToDlYWhpsxvr+HvM30OmHFTnc4i7YERNsvWRpGSVDuvwB0NoWMunIMYLdAHQH453OFGprBQF/F9qMtlgubY0JNh+yqHVRFH+UBT5/dai6oiuQpYsALErJq12XyvH1M2DBEIpObTm0GRMoo/4VRAYNKHl/VhhrfdkAZPtW66jw7PsSoDGIYq2SIKD6c1ahhJ1ganxM2jyckzPMr58EYLKej9bN0rHxKeAMU2JBP5UgmBgWxQjOAACetoVUOaIcAfUYAMeoAliqQm1P4cVMMJ4bnoACbIkTIn4cQScMPnjHFfL5nhoAqfHw+ULuuwew7BQkYqIJbIkboYDCixMU9MJoZd1rIa+iDEDKKnjC13WVsOoVBBMxChRsxAl4fyZYpmhhWPaI1lBxDUCuVTTQHslgoaUsYykeUVC/jKPq9h0AqVW8eoieD18patHzzu0qfKoeJyhw+37FI9ffBJCDdWCFuoPocVMvJ4R87gJMUMjOI+CZASh/A9wx4yFm2IV4gcuTt4DHQwdJ0D2EQJ7HhQnST55B2J6FX2IsLFTNzvoCREHANztbtYBlPGzkzMn0hOAcImH7UIFcDp+95aVV37vrxAucd+9V07y3oEUuR3M+tgQ5hxOUIy6JhN3Q0NCeS1NceX54/H7lFCAwVXl//PDzKwpabjuMVUgkLqQcE7wcIbkkyEWa4sD+G5/6PsjAGsg+9H26sf+AgnYRkbhIIy8JAhfpxem+fSUgJSX7+k6/gHm8wMbNR5B2tTGgdaYWOLUBo7odQfK5NqIAaZpvQga6Fxmn1rQ4TzEWuwdWggRBmo07TUIgJFLT/HzTY2pNGVOTLNAwy2qoj9F70mp2mmtLiwu83Ol8UgKLBbVcJ/7G6+izFguWyp/mejGBozCfAMld3QoItFa7ScRMoWMdAXKhFiRRewFZW/BPZeXSkzgbBWAYF60YwnXlfZZtsaXlznDxfp2pblz5K5oAzqTJtzINBcYhLv0B7kjNfCYmJoqII8aGAUImxN0kSIKiv8FpS6FFJ5F5NpxzOOdpITnvSyP8kZrPvllp6Aep+pj1fe5p4pGuYKCBFBMqwXqwJi3gf662wCXtxXMtuK4SJIpIY6ArgNIJhY3A2Z44Uf9y2z5Qbr/UxXzvLLChaktDakGG79T5OF49Fd/7+MP+h/aRJgTH4s84reJxpS+jEmC2rXRRJrGfvRMf67AXeXv7ULXzRbtDfJm77H6i05fesmGKIIdm0jJHpUOhdcZtF2K79Ce4pNA9I4SHpaNOXwbNdQWDGIxmZOK+C2GRN712MXG6xYvF7RRju3dTWOoLX7zTicLYoCzQTlVi4TaJ4KqwkCdOp5RFr8Sr7SoqJU7nibCKq8GE3BqrTGm7AiaFbonwgU9r5K6rHA1LaRQXL1c8KiXhaNm1S659CvBSiqYYlYBFYqhAGK+ek62VMtqhPEeSc6p0pUWeV/GwGMcQVhHkWSgmgEazH8kDbznWpewgSYc69x6QH7NRVIwhNt8RGCi2kBJK6dINWU/9TCkC/HJ7+xJXcuHLOnlTSothgaUMssDINW0IgoR9tefQMo6oKbRahZ4Cvhx6rvnCQmRrckZZMMzRMATFHp6WHP4C1INnZ8fTWyn4HUtPDykIgmluWBaYiAZjQ+YXFt1+6AX+UOh1zb24MI/YmAZhkgXgCBWBc48Or6fwEs/09F+KXsdjDo5QI6As0FsIjIXvkxXbK3LJZO51tZK8h1mMsOhlgc48ztEsU4H7psKwNDdu1mlkQOt7ir5mHvuGuaap91ZQ00EHmCY4LMIyfcJGMG7CBOg0XUDAOklQGB1pXr9JM0JjFDFpBUCNwhAIABYtwVH5/NQb5PMUR2gtAAAOaV4YzKNjRsPgmxiMY6NmZV5t6B9lXoXuHxSgTvM3dHqwL/Tq8T/nLSW/yFWYpgAAAABJRU5ErkJggg=='
p13
sS'twit'
p14
S'data:image/png;base64,iVBORw0KGgoAAAANSUhEUgAAAEgAAABIBAMAAACnw650AAAAJFBMVEUAAACqjdiqjdiqjdiqjdiqjdiqjdiqjdiqjdiqjdiqjdiqjdjnpe8dAAAADHRSTlMAUN//ABBgr7+fQO+OtZczAAABLklEQVR4AczMv0kAMRxH8TjD3QaZ4PJAsBQ0/lnDjGDhAIIDaGVt45YiB3mXXCCFjb/yy+f3Qn8XMa033YV+WGCboghphm4B/oK8f4Pyy+cIfb+VA3qHckYZrkQZuDyjJ6BUdAdQepQBniu6xxSAIV4resAUgCE+KnrEFIAhvnbkUI4o+/iLXET+iZx25FtFbiK/RI4ATUjkCtCERM4ATUhkCsCQqEkBNCGRKYAaEpnyDIlMeWWETBkSjVOlQ6aGIZEpQ6LryOTSGhamt4XI9FLgp9o6pgEgCoEgKoyKBCn414CBLV7Lr0nuAuwM8KiIPkc/bi3IzawdGosNmFbFlo7W14JAkbJwUswNGIQegxjh0MBKiCbYkzZIQKQykiLp1UXtyv9d5OeaHX4dTsgDONx5KRQ+uLsAAAAASUVORK5CYII='
p15
sS'gmail'
p16
S'data:image/png;base64,R0lGODlhDwAPALMMAP//VbnkUWi+Lv/fAHXjeP+/AGasQ/+fVap//2Zm/+7/xP//qv///wAAAAAAAAAAACH/C05FVFNDQVBFMi4wAwEAAAAh+QQFMgAMACwAAAAADwAPAAAEUZBJaZJNZkohpvnZxhEB0WmMQJpBW5KvG6SCq9yKy20raKwnBklRuRhyhEngVrQcc0rmBXObSYZNammiKvmAIhtOx5ERYGdZ14RKrWgeEFcQAQAh+QQFMgAMACwAAAAADwAPAAAEUZBJeZBFZ8pS5vnZxg3A0GlMQZpAW5KvC6SFu9yLy20reKwnBmlRuRxygwngVrQcc0rmBXObSYZNammiKvmAIhtOx5ENYGdZ14RKrWgeELcQAQA7'
p17
sS'related_to'
p18
(lp19
sS'name'
p20
Veight spoked asterisk
p21
sS'known_as'
p22
(lp23
sS'default'
p24
Vtext*
p25
sS'bw'
p26
S'data:image/png;base64,iVBORw0KGgoAAAANSUhEUgAAAJAAAACQCAYAAADnRuK4AAAI4klEQVR42u2dH1R1TRTGLwQvBEEQBEEQBEEQBEEQBEEQBEEQBEEQtFYQBEEQBEEQBEEQBEEQBEEQBEEQBEEQBMF913PXN2vNN+/ec/7c82fmnOdZa+Bd6+2ec+f87py99+y9p9OlqD7U4RRQBIgiQBQBoggQRREgigBRBIgiQBRFgCgCRBEgigBRFAGiCBBFgCgCRFEEiCJAFAGiCBBFgCiKAFEEiCJAFAGiKAJEEaDK9fDw0B0bGxPH+/s7J4gA+XV3d9ftdDrieHt74wQRIL+en59VgL6/vzlBBMgvrDIaQBQBIkAEiAARoID18fEhwjMwMMDJIUApJ0UAaHR0lBNDgPIDhDgQRYAIEAEiQAQocA0PD/8D0PT0NCcmJoCenp66n5+ftVwbq40L0NzcXG1hhZC3UDqhwoNVYHZ2thaIQgHo6+urOzEx0fMAX19fCVAWeOwHV/UeVAgA/fz8dGdmZv4XRsDcECCP7u/vRftjeXm5N6FVCb/6OgHCyoPV172HkZGR3mYvARKEPJyhoSF1G2F1dbWyewEsEsRVrTwSPDZELy8vBMjVzc1N98+fP+rEYWxubtYG0NraWiXwLC4ueucAP7LHx0cCpK1C0ivMHnt7e40FaGVlxfvdYQeFtPpEYURL4+DgoHEAbW1tJcIToicWpBuPuIfkCdnj5OSktOsvLCz8c72NjY3SrofP9n3XqampXpYA3fiMEI2Pj3sn9vT0tJRrY7Wp6tW5s7OTCE9dAdWoATLuLLYQtMlFjg6M71gB2t/f98IzPz8ffB528HthgMgOqLkDnlvREFUBEFZP/AC07wVvLIYk/ig2U+HeSoatGYODg4W6tmUDdHV15YUHNtjv728Mjyae3XisRD6IEB8pKtQv2SVFGe3n5+feeNfS0lKlUffWAJQm0FaUq4vVxv3ss7Ozvj8Xr1rfyoOVL5aVJ0qADES+gFsRJchlAHR7e9t71Wr3jThQbPBECZDR+vq6+jCwGdpPDk3RAOHV6tvnqyK6ToAyxlAmJydzx08Q6XY/7+LiInc8Cxug2n0eHR3F/AjiT2n1xVKwqw3jO6uw2rifhaYLWYXUC9+2TFmBUAKUUfCQNOMUnltWr6YIgHzbMfDCLi8vmzD1zUmqx0PXIEIuTxYDtV+ATCqqFrMqI3pOgArQ9fW1ClEWFxmxmrwA+bZfig54EqAShFeD5i6nhQgut/u3afJwfNmE8MLy2FEEqAb50mPh/idJ6lKWFBYAmFqQM9SEeAKUEHvRPCB4bkUDhJxtLbAZakkOAUrhRms5RYeHh+rfoTokC0BaNmE/sSgCFIiwrYEHmSWrEfZOWoC0OBSu2YamnK2ojUc6KDL7pAeN1AophuP+PymWpMWfEHsKNQWVAOWU5l5LCWkSQNLKI8GDXJ6Y0jEIUEaIpJwiF6IkgI6Pj8XVDFkCbYKndQCZWI1UdYHVBO5/EkDYVJVWnhhzeQhQTuFBSzlFcPthQCMX2Q0CQlr1bFvhaS1ABiLJ/UbqBWJIbiwHWxBScBK5PG2Fp9UAGW1vb4sQuSuQFJRsQjpGkADBzkA0F79a02ELI09uThXSPCpfPVoM8GBlRByszHhUKQD5ur27Nod9nBLqv+AlmQE7BfaFGbu7u71XBgYeOh4iUi8wsIMOaO2BV5ENMCZTe93As0oDEWwg7PqnjT/Z14eRbt8fDHJz/xjIhDTfDwMlz/b3h/Fvzw9SRuz581V7NBKgEAagSfMAbIDcc8TS/F3dgwBxECAOAsRX2H+vMF+ZDgEqESBMvG0/IN3CNgwxYCzaxiMGSnhsAxPlMLYBmsaIxtAaFiQ1O0gyovG57rVcoxmBSPueJcMZ39P97nAm3DlyDWhf6VB0AMHTMZMYw94QHmJWN76IUueyZXuBDCRWGEh0c6rxb+n1xkBiywGSyqMBi5tUj1cEkvUliPAq5VZGy4TXKtqo+NI63IAnBDuLO/EEqFdo6INHOvbSSCtgZDpHS1YeCR63eUJSQhleW0woaxlAcLOlRDKpQiNtSqvWni6G3oYEKIN8jTqlGrE0AEFaf2fkXrcFolaU9WgVGdjdlyQBpNV3aY2uAFHTa8IaDxAqQrUWK8hG1JS1sFBruYdrN728p9GlzVp4P6kfYdbSZnyWZpz3226PANUgZEJqdfFYLZLc7Ty18Vq1R9Pr41vV3iXt0QF5ADKentbLuqkdOhoFEMqUtZSMLJ4RYkLu35uasTQQaQ2mQjssjgBZ8rW4y9olo98Wd7iW1hUEEKWFkQBVJF8uD4zYrPZHEU02ET7QPMCyThkiQDnkq6bIe9ZWUW1+Aa6WuZiluoMAlSRk72nw9HPkgdRoPO+K4euUFktiWiMB8h11gPhPSEcdIDDpy7eOOTEtOoAQw/HBU4SnU9ZhKz6IYj3yoBMbPL6TehD/KaKVblnHPQEiX+41fhg87qkk+YJ0xigtqg+ztMtelK2iZTWagW6vMUEUBUBIx0AU2Vclkfc0HUnSkZdFnlUveXmx5hRFceiu7+TmIlcHH0BFn+kleXox9loMGiCkQvhObC56ZagSIM3Wco+rCj2nKFiAMHHaiTdJCWH9StpVL+tUQS2rsd9gaKsB8nWYN2Nzc7M0Y1My1hG0LEvSiudCFGpiWnAA+SK3VZXQSADhmmWGJ7RcotBzioICCBHbuuGpAyDIl5AWMkTBAOQ7osn2TKqIkUi2V9kAmVhXkseJH1hIOUXBAJQU6kccqCq3VkrDqAKgNGGL0JLSgnqFaRDBiKyyw6sEELZQqox9SatgiEdmBmdEAyI7p7mOM7ckgGAXVSlkE9ieaKiH9QbpxpsjBfAg6yiJkVbBqgEyEMHmCTmXOthAIlaiujwO7fz5usIaISfit75DWegABT9XnIJ0AMGopQhQoqTmUiaIRxGgVIYrASJABIgAhQUQKj0oApQo7MlV3e2dADVIUmcOAkSACBABqh+gtrXwJUAFA9TkVnUEiAARIIoAUQSIoggQRYAoAkQRIIoiQBQBoggQRYAoigBRBIgiQBQBoigCRPWlvx5ERF+EYxvpAAAAAElFTkSuQmCC'
p27
sS'version'
p28
VV1.1\u1dbb\u02b2
p29
sS'uni'
p30
V\u2733
p31
sS'desc'
p32
V\u2733 
p33
sS'browser'
p34
V\u2733\ufe0f
p35
sS'annotations'
p36
(lp37
Vasterisk
p38
aVsign
p39
aVsymbol
p40
asS'wind'
p41
S'data:image/png;base64,iVBORw0KGgoAAAANSUhEUgAAAEgAAABICAYAAABV7bNHAAAAAXNSR0IArs4c6QAAAARnQU1BAACxjwv8YQUAAAHcSURBVHhe7ds7TsNAFIXhwAoQEh0tLT0lBRtBbICeks2wCtgHHSU07ADukTMBWZ65D+PX5XzSVSynmMkvZBIHdkRERERERERERPTjaP+4tBuZu+7w4EHmtTukW5mv3lzKLO54/0gVDKRgIMVUgXDRxcxl7vVGwUbLhda66TEX6ch6i/m9Wc+mo4Gi6y3iROZdpr9hy6YjgYbiYLAH7GWVLmQikbyBWnGwh1WLRPIE2nScwhvJGihFnMITyRIoVZzCGkkLlDJOYYnUClSL8yJzLpOCFqkWqBVntb/Ko1qR8IL75x4HzmFSxilakSyTOk4RjfQv4hTeSJuMM/RC1jxDbzxVvGGmYCAFAynGfC/2tH+MupY56w5VHzLP3WHYpr5nq71Dbk35WJJeJE6Z9JE8cVqf3VKqxcGbwPveOcyVDJ7rn8eki9SKg3fItU/zeC79T5IWB1r3g7RbJZtmiQPaHcWUkaxxQAsEqSJ54oAlEKSI5I0D1kCw6UiROOAJBJuMhABDm9bigDcQ1CJhvdXqb9oSByKBILreosqmPZuNBoLIeovDpj2bHRMIvOuZTXXDDPddPrvDWUy2Hu8oKhhIwUCKtfyvBv5K47Q7PHiTmfM6RkREREREf2S3+waZh/PXaK1+pwAAAABJRU5ErkJggg=='
p42
sS'andr'
p43
S'data:image/png;base64,iVBORw0KGgoAAAANSUhEUgAAAEgAAABECAMAAAAV8YMOAAAABGdBTUEAALGPC/xhBQAAAAFzUkdCAK7OHOkAAAHgUExURUxpcfeTKfeTKfeTKfeTKfeTKfeTKfeTKfeTKfeTKfeTKfeTKfeTKfeTKfeTKfeTKfeTKfeTKfeTKfeTKfeTKfeTKfeTKfeTKfeTKfeTKfeTKfeTKfeTKfeTKfeTKfeTKfeTKfeTKfeTKfeTKfeTKfeTKfeTKfeTKfeTKfeTKfeTKfeTKfeTKfeTKfeTKfeTKfeTKfeTKfeTKfeTKfeTKfeTKfeTKfeTKfeTKfeTKfeTKfeTKfeTKfeTKfeTKfeTKfeTKfeTKfeTKfeTKfeTKfeTKfeTKfeTKfeTKfeTKfeTKfeTKfeTKfeTKfeTKfeTKfeTKfeTKfeTKfeTKfeTKfeTKfeTKfeTKfeTKfeTKfeTKfeTKfeTKfeTKfeTKfeTKfeTKfeTKfeTKfeTKfeTKfeTKfeTKfeTKfeTKfeTKfeTKfeTKfeTKfeTKfeTKfeTKfeTKfeTKfeTKfeTKfeTKfeTKfeTKfeTKfeTKfeTKfeTKfeTKfeTKfeTKfeTKfeTKfeTKfeTKfeTKfeTKfeTKfeTKfeTKfeTKfeTKfeTKfeTKfeTKfeTKfeTKfeTKfeTKfeTKfeTKfeTKfeTKfeTKfeTKfeTKfeTKfeTKfeTKfeTKfeTKfeTKfeTKfeTKfeTKfnoI3UAAACfdFJOUwAW9fHv/YT8+kYBMf7XBwP5DOsIBguJ+43sRRMF3UTNNxAEHPS4ouMtWnM8NDKzdfLLGPMKTW+OytnUycyUF3kRt+UwXiDFprouOOIjQ0InUFXbJrsb6SUqsBU+xO33pKnuGgJYM0cdaujICZkZtmbnpYfQiynwrYaDXNo/cnaYZ3vSzuESkXeenKPHfdMUnYz4qJOqfmSXloDggk5scKvPzSUAAAO0SURBVFjD1Vhld9swFI0DdpI20KQNFNY0ZUxSZmZmZmZmZtrabl3H4L8627KV5Jw4sRf3nE2frKune6z3nq6eJBL5atElzy8l0SK/20yaHMflaTP+8kyggTjRAtEJP4nGL3CqXYz7SWQZA0RjFj+J3mCACHvzrxA1GQGRsYnXNHX/Y7A7Ui8FRNJ6dzz4sV/NzhNwp3p4mnajSmgARA0JbjTTTw+quwA2nrpCcooOjXLBqvIBUX6VCxiF6kissM4zT3gRmCNfLHWCYdUArA5zYqWLcgCehHskCorEaSaD3rmIMoCVOResN9A8eGSQR6KQt/Q4njGrgWgcgOIgoJnNYOxyPRNZTYwBPpcFUQNATBD4OQfNTFbPTpq6hCbnMCJHYNMmwcjmQ6PvUyxR02THQKPYLhpMpDLSmEh3u2KhScwvDVv8F1DIJCsKAVizluxqm+mAfJFBHnSBPSMzbTrGTpwEYhswRPaGwFLDjz8w4zpbprc9Yp2MYCy7Wymkp53stPdQndZuZjRi0upjuw0MMraqVLKfPk9+z6eT36kqZmxwwPfG7Rhl8q2TlPyQZfJzmfRYdCeTsaMdXCQgDKUzDvtIuEFJZWSckqA8obVJgoZxFJPTeNrh2USAN8mvTSI5ftOOjv+s5ipLylB6260SGZ5EBFxG5GPWKr3BQpU8FK63DyxjI0GUSCSSNlGUsAGW29fLT2KL30uoiWlIsphYYzKSBtxjKOYr1uoVylGYKZXIUV2qifrD+BU1f9lXKnLJudu7eTiet7tNyYbCl3vSLQqFIrmiEdG7ols75G9I7DhuJ9dp3NlyHdUjjRXJxDRLOoSQM4cZk2GSclVBbc31TWVoSssSJVlX61K413EpSilw0FJLSmjlzXVNbYGqXEJMMzvOEFrKRzDcpQVicmmEI3Ytx7Z/mLIHmaR7KYf7tpy1WEeEVI4Fus7ARsBx0TaMe2wyrdh8YGd69gOzWCvzbDncRjn1G+53e0f90SehiIRamnDOdg9/zjFb+NevnOE/znGGv6AE4ZeQGEtCFr/GFnnFTSuUjAgkbEJJLYv4Z4tp8T/l6Ci24yjzK524GdyOI6EOSIGObKGKCJ9lTZKYU1nju9AKKeJSaPEt/bLZSj9vxegRLEbPodElSzHqtTw2QCDLZ3ksWMEu2BVCsEsNj2vWutnbNYuIyG2e6p7bxe9elXcb4EVAkH49t6uovh/hp7p/eTn+H+79gj1pjBcK9Mgy8UOgZx/BHqLIp7GXZw5PY38AtbdhL6MTv+oAAAAASUVORK5CYII='
p44
sb.