ccopy_reg
_reconstructor
p0
(cemoji
Emoji
p1
c__builtin__
object
p2
Ntp3
Rp4
(dp5
S'emojipedia_url'
p6
Vhttp://emojipedia.org/eight-pointed-black-star/
p7
sS'index'
p8
V1207
p9
sS'code'
p10
VU+2734
p11
sS'apple'
p12
S'data:image/png;base64,iVBORw0KGgoAAAANSUhEUgAAAEAAAABACAMAAACdt4HsAAAC91BMVEUAAADATQzBRwsAAACkUgzAQwnASgwAAAAAAADbQAnWPgi/Vw0AAAAAAABFFwDAUQ0AAABcGQO8Wg2QNweqUgybSAudRAmiSAvBPAmgTgy2PAimMwciCADGPgmPKAWYLAa6MgfNOQgAAACgLAfSQQh0IQPKOQjUQQq5Vw60Uw2gRwuURwulTgyoUwydSwusXA+bSgr/eBT/hBb/fRX/exT/kBj/eRT/jRf/dBP/bxH4Xg//jBf/gRb/hxf/ihf/+vv/SAD/iBf/iCT/rWf/fQj/8fH/bV3/hxP/W0X/gxL/eSL/8u//ixTjcxPkaRHjbBH2ghbkZBD2fRXjbxL2ehT/fSLjYA/3dRP1Ww77aRDsWA3/bFz/egf/9PL2hhf+gRb/7u3+dxTlWw7/YQr3bxHaTgv9chPnTQv5ZBD/RAD/cBL/r2f/SgD/8+n/hiL/bB3/hiP+fxX2hxf/s2veVg3/XUn/XgjybRHvZhDwVQ3yZRD/URr/Xkj/b2D/tUr/s0f/nyf/yHT/v13/wWD0lhb/pDH/tk7/uVT/qDP/sUP/qTn/pCv/uFD/lBrYhxXDcBL/wmL/w2T/oy//9/D979z/vlv/lxr/pTL//fv/rT7/wGD/mBv/+vX/mRr/rkH/wFH/eFz/xXz/v2z/ulbskxHzoSX/4bT/yYH/zIbmkQ+7aRH/nR7/9uj1r0PchxHEcxHafRT////djBH/q0L/kxn/w1f+7dXighbPgBTmkBb/kyH/sEX9u1z/6MT//vz/mSH/9+2/ZRD/wmP/+/H/oCz/ViP/4tr/nSP/tU3+mRr/u0n/xWr2jxn/dhL/qzz/xWj/vFn/1pn1khfQeRT7yHz/5sH+6cn/8+KyXw//uFL/VCP/fBD/3+PjfxX+rDzjgRX/dRL/xGbjdxP0w3j/gRXjehT/gxb/XCH/pjX/0IX/dVvNchP/fxTspjf/ZCP42aj75cb/6crhkxv2ixj/9/rHdhD505rilyL6s0n/v1j+8N//7O3/kRm/Pgv+AAAAMXRSTlMAz88Pyc/PJh7Rz88IGgTPIT/OUNA2GnnFxbaLHtRZco62H2zjS77ixqtZK7fdsPungEYm7QAABblJREFUeF7cjsVyJEcURb3wThFShNSajv4D0cAXFjczMzMzCZmZmRmGeeyFS5XZXdVhWbK3Prv73rsn87f/F+38N4Lfn0Xwht/+aL1N8DqmTqe/PkM6rY69FrT9rf7i1ba6okrlPn1/hk+5lKqi3n71orHfzYtVctG3Z+8/lAyGX/+IwVD68P7sbTRXifG6G95/qVZFg9+GHYnSx4En+VhKOIa/BaMq9UvuH3roftKgD93gc0snT7I0h9+E9IYkbehh+10jqkByawDXaJdo5p7gYa/V4ANbyYBqpKvWb+atVYObIVB/DqAIbQara7xmKGgfSQXWN0jtyb9GS26sB1Ij7VDAv6sGQzip/Q+QeChYveNDQWcm8GPFqAGMAjQsjy6MKz8CmU4o6MhQ/ThhYyB/AjQgsmjgggSRwPupTAcUtJap/lGCgbS+252YmNi96i3aCA62Yu8Vs3hnJcFktJ8qt7ICsc0IyE/+8cC+57JIGOsQxUvPPrOYzP8EI5uYFTSVKYRYBiBjWYYvnnO3cRlidJ97voD5GOIHMwKhyk2soG/ZD0CGs9Bwe++Gw2X3/S3sZ4dRMRz2NQikfjEAZQTAsOdmpn73HugDwQ449Es5giPKJVYApEAADbM7CsXOLOhDgVQEDsUu6qguOFi1KqYZECiAhoVZkWh2AfahAAGXCuvqAUdwOI0woKKxLNdwjKLHoA8ZE6HgcvqwQSBDUIA0YuEaPL29Hm7fEpHCQ0TGClouVs1oH2QxMsgp6PN5PScORhZrd6h59aKFFUy56kjC7B8cuNWKO9j3wxL2bqpBMCNxWWtIwoO1vk9CR1/NMBimI8QlmeEK5mfissU6Qq8F9oVMhAaLl4kAWXxmniuwO+NmWR05Y3D45DAyBouXiQBz3GnnCE7nTXanc0p3XQOjDQ4fVo+0weKlI0Q35XTaTfOnrOCz0mS3m0xDmE5ofkCIeRM+zCyEmDFfwovBlQ4bUirpa+XnRgGNslBQ0pJxnU4olF/L6aaOQQgincaxIXvhzwK4ZgV/VVInTYkDYQCG0ZTGocDS8mK5755tJjRMSAwDGsENFGQRXFgX932v8g/Mycv8DarmxHmu/AI9zMHixE1PmsOk7SYkM1QJzyVV6Xzv16c0Lb5IP2RyQJIYhpGkQiF+Y73/rbi33sQLBYmBUD6U1yDSy2KTJoBIKABZVszePd3ucnYOkR/C7dNdVmR5iOpSzcCvDygAIWSF2df8zFwW2J5lJZCdm8m/zgoshKhAvlUHVo8ZCcEXYKAwO53PywUBgFIJAEGez+enZwUoH8oFjDlerQY2oESgebQ/jwscAByaR17XUQFWAnBDE2AUeD8p7HLcrjyPTa8LLKNQBVqXPTzElP2kcHZ+fkbmlTsQvGe5tRqwsxjkyX5iy+/fIjFyBx6ymF0b4HGAieP9xM8TUTzR/GHW4wwO8KpA85KH47GFg3f1/I6T45w76sL7wQKPcZ6lZiWwAuyY6I+q5h1OIHM6VIWoX7RjYEUT4DDRP6/eDxBNYd4vcpg64PVtAszlntfs/68w73YBbNPnrR2ozpcAUVIKtQMtXt+RrfTB5Y5W5iPoFWGLVApRt4u8OvJ5W5RAoGzDyodvD8ieI/JsU3mOOPYekLdD5dNANbAWMJUJ2/cP+4/lfzzu4xNbmTAF1moFTI+YUqx5QALdJNATS5hNDTMnYj0k0Ht6sW3+2iDz9sVpLwl0JS9TU+YGTaUuk10k0NcfSxSnGlRMxPr7SIAaTF6nGiwUU9fJQYoEDHR3OGQpNsQSCnfTBh0x0jkWDuUsf+pmyYXCY50jugqKHp8MZ6w5S51y1kx4cpymdAoj3TmRDmZC1rqEMsH0RCdt1FW1d9D0qD59FQx++1QweJXWj9J0R7tOxSAX6IGhYf2XT+mHhwZoed6g02g30g0xov1aVFv9gTZKV4uBMrbVwUipb/8XeADqqdVRJ7kAAAAASUVORK5CYII='
p13
sS'twit'
p14
S'data:image/png;base64,iVBORw0KGgoAAAANSUhEUgAAAEgAAABICAMAAABiM0N1AAAANlBMVEUAAABBQEJBQEJBQEJBQEJBQEJBQEJBQEJBQEJBQEJBQEJBQEJBQEJBQEJBQEJBQEJBQEJBQELd6pctAAAAEXRSTlMAUAC/IECAj+8Q3zBgz3Cvn/yARZIAAAG3SURBVHhe5Zhbc4QgDEaLkZBwUb///2c7ZZnWrjeczcN2et45oySQhI//jXPDNR/DNURGIsBGNAKjicgD3kTEAJuIAhBMRASQiUgAuSkKrLvR342/cjgUMWLaC9pe2FIEH4o07gQoA0DeCWXU46glAKSbJRu9EoB0FjUGIO45aM9hc1LdJ6K2LOhKVACgrDQamvpUpFLXpXXQfoctVbPoVR45fCHTetvWGzJJFbvrhAyozNrEWC/UGZXQk9kFleiraG7e6vERldJ1RJLgAWvLopZJynggqUs0TGgIFXxTSNCYeg/tjFPm7tOvESdE7RYNHif4O1WEcQjfqiIqOED0lmggHEA3q0jBAeWeKOOQ3C8a3YwTZpcuRcnxTOigEGe/J1I/MUXcRCiwH39EmQSvQK6JFoGBqP2Z44XktV9b4z0Hir2brZd5lDzH++HfR4tBQla8wRGpJKNDO7DRNZKsLrZodNWS0eUfjMpRNiqQSWxKtopRE1GM2prFqNHKRq1f2nx42WxKTzOqYtQeF6OGfTEaIZzVUMMGY5bZ4Gc/itoPx/bjugf8ez1pDMC7PftYPEQ1/qToE4FBbsmMul2NAAAAAElFTkSuQmCC'
p15
sS'gmail'
p16
S''
p17
sS'related_to'
p18
(lp19
V\u2b50 White Medium Star
p20
aV\U0001f31f Glowing Star
p21
aV\U0001f320 Shooting Star
p22
aV\U0001f52f Six Pointed Star With Middle Dot
p23
aV\u2728 Sparkles
p24
asS'name'
p25
Veight pointed black star
p26
sS'known_as'
p27
(lp28
sS'default'
p29
Vtext*
p30
sS'bw'
p31
S'data:image/png;base64,iVBORw0KGgoAAAANSUhEUgAAAJAAAACQCAYAAADnRuK4AAAJm0lEQVR42u2dL9QNTRzHbxAEQRAEQRAEQRAEQRAEQRAEQRAEQRCE5xxBEARBEARBEARBEARBEARBEARBEARBEIT7vp977D3zzDM7O/PszuzM7Pd7zgTHfe7unf3szO/fzKzWkjRCK3WBJIAkASQJIEkASZIAkgSQJIAkASRJAkgSQJIAkgSQJAkgSQBJAkgSQJIkgCQBJAkgSQBJAkiSBJAkgCQBJAkg6X+9fPly/fbtW3WEAIrX+/fv16vVatMkARStFy9ebAH68eOHOkQAxenZs2dbgL5+/aoOEUBxevDgwRYgpjNJAEXpzp07W4BevXqlDhFAcbp+/foWoKdPn6pDBFCcLly4sAXo3r176hABFKdz585tAbp79646RADF6cSJE1uAmM4kARSlQ4cObQG6ePGiOkQAhevPnz9beGhnz55VpwigcH379m0XQMePH1enCKBwff78eRdAR44cUacIoHC9e/duF0C0v3//qmNKB+jJkyfry5cvb6aQOWUmUrv2/fv3We/pw4cPG2O+tLRKUQAdPHhw87AOHz68/vLly2z3YSZSu/bp06fZ7odIeNc358+fF0B9unr16vaB4UZT0DWH7t+/vwcgprU59Pjx4133wb8FUI+wM3CZu846cODAZjrJrVu3bu0BKDfM9MXt27c3fVByRLw4I/rXr1/rU6dO7Xp4N27cWP/+/TvbPVy7dm0PQNhnufTz58/NVGVen9G5REO+SC8M+8eMBNOuXLmSDSIzkZo7oYoDYaZRaCdPnty8WPLCIkQxuw0RHZnDQzOn0ZzTB4Y6MSfzusBUcklt0XEglzt97Nix9cePH5Nel8izfd3UCVV+q/3C8O85vb/qAUJmZWAu47pzmc3GtJbS6zONZRr38ObNm9IfTx2RaLM60ITo4cOHkxuW2Fn2tWhnzpyZ/HeRtHUZ7DRiUTWoCoCAxPZKukbkekqI7ERqqoQqRrHL1qLt7Oysa1E1uTAMSds7Met1pjI0sTlc1yA6PqWXaYcqzJBFTaoqmUqW3PZSpvZWXInUKROq5LL6fgMjEtOaAEooHrDLyKUdPXp0tIf2/PnzXoDGhhAIRtqeVu4QxeIBQnZ+yDauxxigGOZ93z0Gzps3b/Z+79zJ48UBhIgM9z0QGq7x1N+7n4Qq0x52Td93MprOlahdNECozwU2PbRYm8I3UsTGnrDJ+rzHuZK0AsiKo/S5wl1jfRfJyTExp/2sUMXgd0W0zcZ0WbuqL2klnoIB6ntQuMyhKQFXIjU2PkMEGbvGd09May2UyTZRE40B2ucax6YGfCNaSD4MA7/PSzTTIq3UWDdTVM8IM/TWh3hovmkHm2u/9lMNpRmLBgi9fv16T1LS1UjQ9o0Avr/vq0cGCN/UZ8apWtusqrllPebGUEPTiD0S2CtSQxKqvrSEPYWysqI1NbkuzCzOH5pOzOhvXyLVrEWK9bRqy64LoH8jSciU0kEBCB0QQ5/vRMqjLy1hN4r0W1WzK1MJ4oWODkwvjBB4aUOfpV4Idz7E1uoqBWpLkAqgf8JgHfLM7Gz40GeGIst2/Kklj2txACESoENxmRQNj2vu5dACaCL5SjRSNGyj1IX/AiizXMuVU7UlbQu8qO1dWJyYGp5Hjx4tqUuXBRDeUIwRHNuWuBnn4jaY8tVVj2mAmXP9vgCaQOSz8HQwWKnqo+CLmh3sHfJdJD8JKJKCICYUGvgb0/D4uBYhAWJAjEokWal0pCaae+ReSYG0cApQUQABA7EbVi5QqUeH0/HAwIPggXQwxMR3Sm8u6FiLT16PAGfJ0K1yw0DHtAxDzjgTuTymThM6jHigY3MKkrfk91JOrZMDlNNdVotrKaoBJgfItwJBbd6WYkOKVYqpiyGUkYikI0BdunRpM78zXTH06mGmm9boY0wDnAfKWqgEwHSg1DZFGe1sRjTGIC41xiGRW6Djh/KDmc9N6FK43bXA0GdYUzlQgmFdlRtvQ9e57B10dDTLeFgnH1puMaeX1YJr33QgkSEbLwToeGN5c/FSUkyjwME6LxMGrt1yLdAiI9EAlGqUoahfkeiGRTwq5dRGpLsrjxVADebAcgQsqbGucZsWATQQWgitj56iYcgv5XSf5gEijE9cJLfnRSJ3CRA1D1DoGrHOhpniM0s67blpgFyHpvj2EiK2FJJPMo8EnyN9IIAyyLcNnmukYLoBjqHPEujjs759hGz3vuUC+yYBImgYspQHl97cNGpoabO5MhWFrsMncNmqZ9YcQKHuOp+x9yYc2lwBEGwR3Q6JLeEFtlCB2DRAPCDiMCEPs29XVN/IRQGXSxRvhSR8W3TvmwGI0SPEuCVn5dsz0Rcv8p1X6jrnawnufTMA4UUNPTxc+qHkpm+/Rf7eJ8AMgZgabwFUkPCihh4aZR8hb75v3RirK0JGwhCYW9kvqHqAhjwhDNyYvZh9gceYYy85MHfovko7A35xABGk83lAeE2xheS+jTJjD96lvMNnlOMJln4iYbMA4a770grszbOfDS19Rx3sJ6rMKOMrYOP/anbvqwRoKLuOHROzO70pRpkpz8oI8dBI9tZauVgdQGTXT58+7d0BfszDcB3027UxJ+owyvh2QCv1XPjmAOozcsce89TJd+Dc2KlmKIeGQyCAEsp1gnNXYjFV1tuXUJ3Sc+wz/mvbnKoagPqWTOPJTFmH3JdQdeXBxoiEr8sJqG17vCoA4q10vbEYn1MfHdCXUJ361GaEC+/y0HgpajkSoXiAcINdsZT9HCYXKtf1MIBTiBHPdVRCLYeyFA0QRqvrDcUWSun2ukIErChNJUBx5dBqOBaqWIDoOJfbm2MTS9d1c+x/6MrpDR0xJYB67BDeeNuIpe4mh+xr5yyQp0LStvdCT0oUQP9kH6YLPDlXfLpiNTljNDgNtodWanF+cQDZ7jqjQe5ckSuhmrv8Ag/NrHIMPbJz0QBxJIE5fONpzWFEuhKqczw8XHkzbVPi2vtiACLHZQ7boQVgKeRKqM512iB9YE7pKb3B6kcg3FZGINZ0zSlXQnXuZTldGocXSwB5vK8SjkhyJVRLKLcosW5ocRtMhYiyDXt1qSSAot701HkwAdR6x2TIgwmghmUmVEvzfARQBTITqks8B0wAjZSZUF3CRlECaGKZx2PGLCgUQNJG5qExcwc2BVCFooSitXXsAiijzDX3JWbBBVDhYtSZO5EqgCqWuWNrLSskBFBBMhOqNayOEECFiXxYd7aXJIAkASQJIEkASZIAkgSQJIAkASQJIEkSQJIAkgSQJIAkSQBJ+fQfPlKmkzi9O80AAAAASUVORK5CYII='
p32
sS'version'
p33
VV1.1\u1dbb\u02b2
p34
sS'uni'
p35
V\u2734
p36
sS'desc'
p37
V\u2734 
p38
sS'browser'
p39
V\u2734\ufe0f
p40
sS'annotations'
p41
(lp42
Vsign
p43
aVstar
p44
aVsymbol
p45
asS'wind'
p46
S'data:image/png;base64,iVBORw0KGgoAAAANSUhEUgAAAEgAAABICAYAAABV7bNHAAAAAXNSR0IArs4c6QAAAARnQU1BAACxjwv8YQUAAAWuSURBVHhe7ZpPiBxFFMbr9epNCTEXRYlG8KS7QjS7ukFQUC9B1pwSvIl/0EP0ogmo5CBGiPGiHgSN5CK6e8rm4EUFA7LRXTXibIw3FcFjDB48udvl9169WnsnM5Pprp43sNQPkq6q7Z7p/vp7r+rVrstkMplMJpPJZDKZTCaT6Y2/cM9ObSZTdvbcr82RU+hx5Hh/7aPaTIcm7tTWyDETCO99extvvly972ltbi04xMrVmUXtNqZcnf5CmyaYOYju+uEPyLQrxUXBPfSPdk0wDDHhrKPiiLbr48snkcwuaM8EU4HIu6/IubkmLmL3ENEsFesf6JAJtgJNrSx6535r5CK4x3t/LoSqHdYhxvP9cl0XRfc4ct/rkBn2ApE7r423w3EYykNy8H5ejludsjN9ya/O+GHWNDj3jXDu9E86ZIq9g5joIp6VrgbRE3L07qIcjRmPQN4t84HzyiAXsXuQr3ZxG8cFGTRmLAJtmqoHuUjdg9nrL54BZcyY2gK1UZXzVM1TtrT7uKjqHpz0tRwTaXLv9R1UTuxGwnwZ/95JKj6rU3YvF8XcI/glbdSG7zHcK5J9Wdysw0ODl9SMIA6manLXoXtWVsk1woCvJyrERYx3/nAxuXKC22Vn5iSRe0p+wNDarXUWiL4z/TgWpAcg8gy6HbyA48XUd9+En9ajsUARCQ84gENFVslhIbgwjFio7n+NYcTXFpPLt3MY+HLiR3zeDWHcfwnhHuH2INjVOHk3i8KfKatu506k5q5kgSJsYQ6L6gPj0EFrKTqjG1zzKYQ4qF1OxsdwSzdW3QOB3sX1L2p3AxHSTxzA+Xtx4QMVQfGdxXvF5Lcn5cREWhMoIkI593y8YYZnIUm0qMR5BovhIiWE8x/KSUAduG3zteVsDA9117O4a7iEHpYTFL32k2Jq5TUdaoXWBWLCg1xzFK391YeNcNjgv2UWqxpO3YgbvH8O4h5E516cN6s/2iCI7z7u5bI2GIlAEX3jx/FgG2FUB374vuKxMI5OU7H2+igr/JEKFJEZj4oj+LI5HUoC4XSGaO0Fi60PE4Ei1RlPh2oRQtMfbTplN8FUoEhYOZeHkGindGggCKdzcOCptmamOoypWC1vw7u5XntXh+gmCLpde6bYh5jzr+BLQ41Vk3E4yUSg1NzTjQjl/EsWuWikAsV6rZ8wvRaGVcJUzhHWb53kzqTUWcMwkhwUKuiZRS5Gu8VhUfDg83j6/Vx79Xt4gehvrIx3YPY6zNeIoBXwduf4O7hk4TWXDrdKqw6KK+hNlTgI9dGVFT8XmJjJ3tJuOM+7W6qiVUsNplqp4+Y3cllwW/sLx1YE6lVayJrFuYu48/l+ISAuqywevaNneIbDZ7yqQ/w5PYtVJixAZZX+YFwyaFi+31ZNlixQtYoXUbTGGuYtbtruQOLFQ+29YhyegUB3c3sQmu/24YmkkNX8lly8NhYoCOMew0cgL/Tf0ugHhwqEPa1dcU+cvvmzqy6qvWEWakCp+sNIsdB0aVBbIMkB5O7Al15OWY9Udw2r7ol0uetYihN0M20bPumzujNe/VmsWD/PbklerJHfoy20i1Pa+h+Eh7b4NaoTmiH3C4GpKP/UoaFpHGIpcL6I+9G93BOJLuLEi3N26LAp46nFOJkqEGBA7qI35X/MjBImY2A8AmnI8Ep40KY6hzE7TDq8IT8GzAXiGWZjPxllghwHEfNT+BWOOfYCyW8ignuGmVGiiyQX8dLAmDGEGIWEPIx7IuoiLC8ekv5WBovAS1xiaHdocN0SErX53wiZOohDRGq1Ou6JwEVcb4WSwg5bgVCFe+8+arJ/I7mI938qSwQLrHPQTt6O0HZ92HmJq+q6mAmk1fYvKXs1wXlb9i/taV+SeyJwkeWq2k4gKn5vY6cvuKi4rN2RYyYQ0b+fazMdv/6ztjKZTCaTyWQyI8G5/wCe8M+1OIx3ugAAAABJRU5ErkJggg=='
p47
sS'andr'
p48
S'data:image/png;base64,iVBORw0KGgoAAAANSUhEUgAAAEgAAABECAMAAAAV8YMOAAAABGdBTUEAALGPC/xhBQAAAAFzUkdCAK7OHOkAAAGJUExURUxpce1sMO1sMO1sMO1sMO1sMO1sMO1sMO1sMO1sMO1sMO1sMO1sMO1sMO1sMO1sMO1sMO1sMO1sMO1sMO1sMO1sMO1sMO1sMO1sMO1sMO1sMO1sMO1sMO1sMO1sMO1sMO1sMO1sMO1sMO1sMO1sMO1sMO1sMO1sMO1sMO1sMO1sMO1sMO1sMO1sMO1sMO1sMO1sMO1sMO1sMO1sMO1sMO1sMO1sMO1sMO1sMO1sMO1sMO1sMO1sMO1sMO1sMO1sMO1sMO1sMO1sMO1sMO1sMO1sMO1sMO1sMO1sMO1sMO1sMO1sMO1sMO1sMO1sMO1sMO1sMO1sMO1sMO1sMO1sMO1sMO1sMO1sMO1sMO1sMO1sMO1sMO1sMO1sMO1sMO1sMO1sMO1sMO1sMO1sMO1sMO1sMO1sMO1sMO1sMO1sMO1sMO1sMO1sMO1sMO1sMO1sMO1sMO1sMO1sMO1sMO1sMO1sMO1sMO1sMO1sMO1sMO1sMO1sMO1sMO1sMO1sMO1sMO1sMO1sMO1sMPNoq40AAACCdFJOUwABC/pr1fwl9xv9EET7GMm1IdeWKLEU4A3+9L0Xm4IGGmVY8+3wyOMCn9YK77sOnPH2CZAeB8RpS09OkVzrJ9FCQfUD5eTBX5q2uB8VzJ6O1CAyNOYi+Wx+6FNNPC8+ry7Dt81Vl20PuSzhPzGZKRYRrSbP+NhXLZRvldkzPbqztJjl2dlSAAAC50lEQVRYw8VY9XfiQBAOECDBtViB4pRC3d1L3d3d7dxl/vJLoHAcbGhCp+/ml93Me/MlmZ39RijqWRmZmBihMKR+aqoeBUjr8WhRgKpnZ6tRgGqUyhocoIUFHCA2kWBRgFZXVlZRgNThsFqahczZTFIvRyLLJH2zUyYAdP/r0UxQ60IhHUFtfvxZJQAkT2tMBKQgwwQJOCbNbZ3Qv1XVqkyl7qD1errUcSZVbZWwlzikw91ipQ/AV6zbPSyLQ1GGfTDuFR2BF8Bb5NY9I+wbyp+c+Qgs2/F/PGcHsMsLNfFtCxyZn4uBgyjEAv7CjzQCGAtf7w/EIHrwfDTtWCC5UcAbtlGAUVsBq2wkwbIjJi63NmFtbjr/ONgE0DSYf5yeW4PNLVEBHl93g2v8OudfWgWgyp2/7HrcBe71uLirUjevB7jqeHKwFTixPjm+4wpAP18nmhNNnK274Q2/P0/xQKnzTBQ2uLm9SQJf3lh467cfuFf3O/ito5+7pCfH/NZyI4UIeht5m8aGj1S3gt8puqnLdDKj65XEKG0tGt4K3n++dfGry3qWyCg0LW3SuKm1PWMHinfZlVFk1/ZWqbzY2QcE6euUTLD+Hk0pjqbHXwFVD5QCDaipCiTAFOMwgQoqh7uu01Kg06478fWE3GAboq0ph4LkbIUjZaWHbAY5OQtpZ1iWXVQv6YK0z2s3jg2roIyohseMdq+PDuqW1Iuc4Yz2KS/pJj1RpVIZC0dCjB5Ei54JRcIxzjDqmdThAqH9GtHZF0LOvhB2NlGcNsLxN33qsjn/V0DiXRG0S4tFI3liY15GbDmqTZxZX0a1WfJPpi9fSP7ZdHR80kxIR1+/SWgasglS/TdBXjgrSZCElP0ll7IdElJ2uSKC+i6hiMAqa7AKLazSD6sYxSqPsQp2rBZCfiutqfktFJj3KbuUNsv+Q+iTZOyDlMbvgZW9div62s0xWruONkBAG2mgDVnQxj5ogyhxo7E/pZeTZp3kzkgAAAAASUVORK5CYII='
p49
sb.