ccopy_reg
_reconstructor
p0
(cemoji
Emoji
p1
c__builtin__
object
p2
Ntp3
Rp4
(dp5
S'emojipedia_url'
p6
Vhttp://emojipedia.org/white-left-pointing-backhand-index/
p7
sS'index'
p8
V121
p9
sS'code'
p10
VU+1F448
p11
sS'apple'
p12
S'data:image/png;base64,iVBORw0KGgoAAAANSUhEUgAAAEgAAABICAYAAABV7bNHAAAYKGlDQ1BJQ0MgUHJvZmlsZQAAWIWVWQVUVVu3XnvvU9Shu7uku7u7S+luDh0qICChIKCIgKCgIqKCKCklCopwEVBRsQgRUVQMBAXkbUC99933/vHGW2Osfb4z15xzf2vNVfMcANhZvCIjQ2EaAMLCY0i2Rro8zi6uPPiXAAIYQA7wAOPlEx2pY21tDv5j+TaBaqPlvsSWr/+s978WWl+/aB8AIGsUe/tG+4Sh+BoAGDafSFIMANhRVM4fHxO5hb+imIGEEgQAR9jCATuYYwt772DpbR17Wz0U6wNAoPTyIgUAQNzyzxPnE4D6IUaibXThvkHhqGoGijV9Ar18AWC7hersCguL2MJLKBbx/oefgP/m0/uPTy+vgD94py/bhaAfFB0Z6pX4/xyO/7uEhcb+fgcfWikDSca2W31Gx+18SITZFqZEcWe4t6UViulQfCfId1t/C08Gxho7/NJf9InWQ8cMMAEAA18vfTMUo2MJM8WGOOj8wrJepG1bVB+2DIoxsf+FvUkRtr/8w3F+0QZ2v3Ggn4n5L5/Z4aGWv3Glf5ChCYrRmQZfSwq0d9rhCd+KC3K0RDERxaPRIXZmv/RfJAXqWf7WIcXabnEWQPFXf5Kh7Y4OwhIW/btfiKSP1zYHFhRrxwTaG+/YIs5+0c7mv7n5+ukb7HBAfP3CHX5xRtDZpWv7yzYrMtT6lz5S6RdqZLszzkhjdJzdb9vxGHSC7YwDMhPsZWq9wx/5Fhljbb/DDYMB5kAP6AMeEItWbxABgkHQyGLrIvptp8UQeAESCAB+QOKX5LeF03ZLOPq0A0ngPYr8QPQfO93tVj8Qh8o3/kh3nhLAf7s1btsiBLxGcRiGDaOJUcOYo09ttMpilDEqv+14qH+/FWeA08cZ4wxxon94+KCsQ9FKAkH/U/a3JfY1dgw7g32IncI+AWZoqx/a5y2G4X965ghebXv59d0jKJ30L+Y8wAJMoXaGv3rnjVov/NbBCKGsFTC6GA2UP8odw4RhAxIYebQnOhgttG8KqPSfDGP/sPh7LP/9vi1+/+zjLzlRjKjwi4X3H/56f7T+7UXvH2Pki36a/VsTyUauIreRG8gg0om0Ah6kB2lDhpGuLfxnJrzangm/32a7zS0E9RP0W0e6XnpBev1/vN3rFwPSdrxBjF9CzNaC0IuITCQFBQTG8OigO7Ifj0m4j+QuHllpGQUAtvb3ne3ji+32vg0x3ftbFiEDgMrWfnzgb5nnBwBag9Etje5vmVArANSyAAwe94klxe3IMFsPLHpqUKMrgxVwAX4ggvZJFigCNaANDIApsAL2wAW4o6MeCMJQ1vEgBaSBLJAHjoBjoAxUgRpwHlwCTaAVdIIbYAAMgVHwEDxF58YceAeWwDewBkEQHqKC6CFWiBsShMQhWUgZ0oQMIHPIFnKBPKEAKByKhVKgA1AeVASVQaehOugK1A7dgAahMegJNA0tQJ+hHzACU8IMMCcsBEvByrAObAbbw3vgADgKToIz4Hy4FK6GL8It8A14CH4IT8Hv4GUEIBQIE8KLSCDKiB5ihbgi/ggJ2YfkIiVINXIZ6UBjfR+ZQhaR7xgchh7Dg5FA56cxxgHjg4nC7MMcwpRhzmNaMLcw9zHTmCXMTywVlgMrjlXFmmCdsQHYeGwWtgR7DtuM7UdX1Bz2Gw6HY8IJ45TQtemCC8Yl4w7hTuIacL24MdwsbhmPx7PixfEaeCu8Fz4Gn4U/gb+I78GP4+fwqwQKAjdBlmBIcCWEE9IJJYQLhG7COGGesEZGQyZIpkpmReZLlkhWQHaGrIPsHtkc2Ro5LbkwuQa5PXkweRp5Kfll8n7yZ+RfKCgo+ChUKGwogihSKUopGinuUExTfKekoxSj1KPcTRlLmU9ZS9lL+YTyCxUVlRCVNpUrVQxVPlUd1U2qF1SrRHqiJNGE6EvcTywnthDHiR+oyagFqXWo3amTqEuor1Lfo16kIaMRotGj8aLZR1NO007ziGaZlp5WhtaKNoz2EO0F2kHaN3R4OiE6Azpfugy6GrqbdLP0CD0/vR69D/0B+jP0/fRzDDgGYQYThmCGPIZLDCMMS4x0jPKMjowJjOWMXYxTTAiTEJMJUyhTAVMT0wTTD2ZOZh1mP+Yc5svM48wrLOws2ix+LLksDSwPWX6w8rAasIawFrK2sj5nw7CJsdmwxbNVsvWzLbIzsKux+7DnsjexT3LAHGIcthzJHDUcwxzLnFycRpyRnCc4b3IucjFxaXMFcx3l6uZa4Kbn1uQO4j7K3cP9loeRR4cnlKeU5xbPEi8HrzFvLO9p3hHeNT5hPge+dL4Gvuf85PzK/P78R/n7+JcEuAUsBFIE6gUmBckElQUDBY8L3hZcERIWchI6KNQq9EaYRdhEOEm4XviZCJWIlkiUSLXIA1GcqLJoiOhJ0VExWExBLFCsXOyeOCyuKB4kflJ8bBd2l8qu8F3Vux5JUEroSMRJ1EtMSzJJmkumS7ZKfpASkHKVKpS6LfVTWkE6VPqM9FMZOhlTmXSZDpnPsmKyPrLlsg/kqOQM5fbLtcl9kheX95OvlH+sQK9goXBQoU9hQ1FJkaR4WXFBSUDJU6lC6ZEyg7K18iHlOypYFV2V/SqdKt9VFVVjVJtUP6pJqIWoXVB7oy6s7qd+Rn1Wg0/DS+O0xpQmj6an5inNKS1eLS+taq0ZbX5tX+1z2vM6ojrBOhd1PuhK65J0m3VX9FT19ur16iP6Rvq5+iMGdAYOBmUGLwz5DAMM6w2XjBSMko16jbHGZsaFxo9MOE18TOpMlkyVTPea3jKjNLMzKzObMRczJ5l3WMAWphbFFs8sBS3DLVutgJWJVbHVc2th6yjr6zY4G2ubcpvXtjK2Kba37ejtPOwu2H2z17UvsH/qIOIQ69DnSO2427HOccVJ36nIacpZynmv85ALm0uQS5sr3tXR9ZzrspuB2zG3ud0Ku7N2T+wR3pOwZ9CdzT3UvcuD2sPL46on1tPJ84LnupeVV7XXsreJd4X3ko+ez3Gfd77avkd9F/w0/Ir85v01/Iv83wRoBBQHLARqBZYELgbpBZUFfQo2Dq4KXgmxCqkN2Qx1Cm0II4R5hrWH04WHhN+K4IpIiBiLFI/MipyKUo06FrVEMiOdi4ai90S3xTCgV53hWJHYzNjpOM248rjVeMf4qwm0CeEJw4liiTmJ80mGSWeTMck+yX0pvClpKdN7dfae3gft897Xt59/f8b+uVSj1PNp5GkhaX+lS6cXpX894HSgI4MzIzVjNtMosz6LmEXKenRQ7WBVNiY7KHskRy7nRM7PXN/cu3nSeSV564d8Dt09LHO49PBmvn/+SIFiQeUR3JHwIxOFWoXni2iLkopmiy2KW47yHM09+vWYx7HBEvmSquPkx2OPT5Wal7adEDhx5MR6WWDZw3Ld8oYKjoqcipWTvifHK7UrL1dxVuVV/TgVdOrxaaPTLdVC1SU1uJq4mtdnHM/cPqt8tu4c27m8cxu14bVT523P36pTqqu7wHGhoB6uj61fuLj74ugl/UttlyUun25gashrBI2xjW+veF6ZaDJr6ruqfPXyNcFrFc30zbktUEtiy1JrYOtUm0vbWLtpe1+HWkfzdcnrtZ28neVdjF0F3eTdGd2bPUk9y72RvYs3Am7M9nn0Pb3pfPPBLZtbI/1m/XcGDAdu3ta53XNH407noOpg+13lu61DikMtwwrDzX8p/NU8ojjSck/pXtuoymjHmPpY97jW+I37+vcHHpg8GHpo+XBswmHi8aPdj6Ye+z5+8yT0yafJuMm1p6nPsM9yn9M8L3nB8aL6pejLhinFqa5p/enhGbuZp7M+s+9eRb9an8t4TfW6ZJ57vu6N7JvOBcOF0bdub+feRb5bW8x6T/u+4oPIh2sftT8OLzkvzX0ifdr8fOgL65far/Jf+5atl198C/u2tpK7yrp6/rvy99s/nH7Mr8Wv49dLN0Q3On6a/Xy2Gba5GelF8tq+CiBohf39AfhcCwCVCwD0aB5HTtzJv34VBNpKOwCaY3KhN4M8MAuJoed2L8wKx8CTiAlyE2OEeYANw9Hi+vApBE0yPNlz8naKCsoCqlriMxoaWjO6HPpBRlqm3cwXWTFsXuxdnDxch7hXeX35JgUsBQeFpUTyRd+Jm+yqkvgmpSd9WGZUjkpeVyFasUKpV3lKZUONWV1cQ0XTQMtW20cnWjdD77h+vUGP4X2jBeNNU0azXeZ6Fm6WQVZx1pk2RbZVdvX2reiqH3Iad37i8tJ11u3N7vd73rg/8xjx7PFq8K70Oeyb5OfvbxOgFigQRAz6FvwyZCC0LuxweGSEXaRSFFvUOulFdG9MTWxmnH+8SYJ4Inni26Th5MaU0r0Z++L3R6WS0pLScw+czujKfHmQLFs9JzK3Jm/iMHm+ekHYkcrCkaKNo7uOuZXkHm8pnSqjKFeo8DiZU9lU9fQ0plqixvHM/rPnz43VrtbxXDCvT7nYdOlTg2pjwZWPV92u3Wuxan3Qrt4Rc72u81k3RY9cr+ONqL7Mm4W3SvpLBgpvZ985MHjw7uGhw8OZf8WMON2TvLc22juWPK44/u3+owftD8sm9j7yeKz7RHCSbPL907Fnzc/LXux96TmlPy06QzPzffb1q4m5wdc35q+/aV9of3v2Xf5i3Hv3DwYfxZdolpY/TX7u/nL6a+Zy4DezFalV+tWV789+9K5Vr2ds+P3U3+Tb3ETjjwNs6O0wAfSjNzpz6Aj0EpZD715fEA9kAr01PcdG4oi4VrwfgY0wSVZBHkChS6lBZU8MpE6lOUV7g26BgZFRnymRuYHlI5skO4mjk4uC25HnAu8mv45AmmCP0LqIkmiw2EnxoV2fJRml5KSNZdxkA+Si5BMV9iomKQUru6mYq2qoSavzaTBqEjR/aL3XntZ5qHtXr1v/qkGtYalRtnG8SaCpi5mxubKFsCWjFcbqq/WMzZhtr12jfaVDtmO0k7uziYucK6cbzu0DutN3udd45HpGeNl7y/tQ+sz4tvsV+PsHqAfSBr4Ouh5cGOIXqhpGHTYb3hqRHekSJY7Oi5HoUzGkWL04xrj5+PaEQ4nuSdLJcPKjlIa9efvC9juk6qeppqsc0MgwznTOCj94MPtszs3c6byfhznyVQocj0QXHim6WDx49HUJfJyjVPGETVlYeV7FxZOjld9O8Z22rj5Q037m0znJ2qjz1+pW6lUuplzqbgCNOlcONPVfwzYbtWS33m7HdxhcT+/s6vraI9RrdyO5r/Lm9VsP+xcGVu5gBunv8g5JDWv8ZT7iei9wNH4sa/zY/eoHDQ87JwYfTTyee/L1KfKM4bngC+WX5lMB0zUzC6+E51xfZ81feHN7Yfrt6iLxveAHrY9uS6mfRr/IfS1e/rJiu3rtB8ta5vrqz/jt+GMALRADliAV9KL3elUoBmqFYdgCPgWvIe7IXYw6pgWrjO3DWeNm8ckEdsJtssPkPhTqlOyUP6lmiEPUzTRnaUvp8umzGTIZs5jymItZqljr2drYuzi6OLu5eri7ea7zNvPV858UyBOMFdotrC3CJwpEn4q1iuftcpTgkXgr2SyVKm0mwyQzLVsvFyuvpUCmcF/xpFKgsrzyqkq3aqaamTqd+qRGtWawlqzWuvaATqHuHj0xvRX9mwYFhm5GwkafjbtNck0dzXjN3pm3WKRamlsxWU1b19tE26rZwXZ37YscXB15HOedLjvHuqi5wq6DbgW77fYw7XniXu6xx5PT87nXSe89Phw+k76lfo7+9P73AvICDYIAOl/iQmRCFkNrw7zDOcIfRRRHWkYRom6QkqLlohdjzsa6xzHH3Ys/mKCVsJrYmBSUzJP8JOXoXvt9rPvm9relHk1LTPc/sDvDJdMty+9gbHZmTknuubyWQwOHH+bPFXwtRIroi/mOSh9TLdE7blpqc8KlzLs8omL/yeLKi1VDpz5WC9Yknhk9J1y77/zEBYn6jItPL8s0ZDe+aFK8mnftZYtc68G2Zx1y13M7Z7rVe0p7v/XZ32zuFx44c0disH8o5C+BkcXR2+NXHtRNND6+Mfn8OXgpPV37Kms+923rB+pP2cssq83rTlvx3/kdbqvgFAE4OwuA42kAbNwAqBUHQLAcACIDANZUANirAFi3AEBPTgDI6PKf84MKCKMZtD84iGaOg+AdRIRkIAcoCToJdUJPoXU0v9OCveEs+AJ8D/6KsCM6SCByBGlHZjAUGAWMJ5qRtWFeYemwWthw7GnsQxw5TgeXgGvCLeJF8AH4WvwCQZIQS+ghoyBzJbtIDpE7kzdRECnCKcYplSlPURGoSFQviKbEdmoR6jIaKpo0mhXaCDRf8aF7Se9NP88QxvCNMY2JyHSSWYr5JosbyzJrIZsM2332eA5OjlHOg1y63ID7Bk8mrwUfK98b/usChYLBQobCgiKUIsuiM2Lj4rd2dUhclWyUapBukmmT7ZUbkn+h8EkJo8yowq8qoSajLq0hpsmjRacNa3/Uearbo1etn20QYehspGssZcJlSm2GmK2aL1m8tZyzmrGetnll+87ui/2GI5kTs7Owi4qrhZvP7uQ9x9wb0XPsvTfRR87XxW+/f01Af+Bs0EYIXShvmFi4ZIREpGgUH4kpmiz6R8xCHFu8RUJGYk/SzxSDvcX73qVapF0/IJ/RnmVycDbnYB7vocv52gVThYXFzsc0jpuciC/vr2Q/RayGa76f/Vz7oW6xfvHSx4blKxvXCC3sbVId+p0u3UG9cX37bqUO7L0Tdzd02HMkb7Rt/O1D3kd7nlQ9ff1CZipt5uGc+Hz2wvyi0YcLn2i+JC+/X/X/Mb8Rub1/UANJYANiQRnoAa8gCkgWcoMy0Ix/CPqIZveqsCecDTfCTxAEzdldkEzkCvISQ4XuKiGYcsxfaP4tg/XFVqBxp8aZ43Jwd/DkeAt8EX6SIEggEfrImMhCyQbI+cnTyecoTCk6KMUpq6gYqQ4RccR0akCdRoPQZNMSaY/T8dE10GvTP2QIY8QxVjPpMM0wZ7FIsEywprFJs02xF3MYc2I4+7gOcBvyUPJM8FbzRfMbCnAJrApOCLUKnxI5Llooli+ev6tIokzynFSz9B2ZF7Ir8owKqoo+SvnKXSof1QTVPTTKNZ9qc+n46jborRkYGOYZDZlgTZXMvM2zLM5Z3rCatF6yxdgx2Ys5aDu6OEU7F7hcdh1x+7SHyV3Dw9+z0Kvb+4Mvv5+zf0HAQOBGsHxIUGhl2FgEHCkb5UnKj74e8yaOOl4pwTMxL6kteX4v8z6T/XtTm9LeHuDP2JNZlvU4mznHJbcy79VhifyEgoFClqKI4uFj0iXlpcQTOeWUFccqhatunw6qoTzTdM71PKausd7jEs3lm40JTVJX3zTXtga1S3R87uzoTu8172O+OdvfeDtl0HSIdXh0xOHe7FjSfa4HIxN5j+0mhZ5Bz2deDkzXzxbMkebtFtjfVi0Kv7/yUXNp5LPHl4/LqSvUqyd+cK1VbbD9LNiOPzPQAZGgCtwDm2js/aETUD/0BeaDbeEMuBVeRHgRZ3S9D2IQjCYmCdOKWcYqYOOwXTgszgpXjnuLV8Mfwb8h6BPOkBHIIsmekZuT91IooZHWpRymcqF6S9xHzUjdSGNF84m2hE6TboH+JIMdIxXjXaYcZnMWOpZJ1rNsJHYdDnqOd5wDXGe4s3hCeO35dPhlBYQFuYXYhdlEeETFxVTEzXZ5SaRIlkl1Sb+SJcqpy5MULit+VFZQSVMdVxfRyNB8rW2u06onrn/GkNeoxkTUtNlc3+KxVaQNpW2jvRu6Xrtc4tzkd6+693oe9nb3VfSnDHgSVBZiEroQnhixHhVDmouxjr0aT5tASnyQrJpyeh/F/oTU+XTnA8OZulkd2fI5LXkahwbzXQreFe4rpj1aXSJ1vP2EZllPhfrJlirsKfPTx6pfnhE7G3+u/zxjnf+FjovES76XOxsZr0Q2DV0TQTOf92027a3XuTqzuj70OPXe6BO/eezW5kDw7QeD2nfrh5n+ih65O8o+Fjh+8f7bh/wTTo/SH59/cndy7un6c5oX3C/FpxSmVWc0Z7Vfac9pvladV3ojsyD2lu8d8d3CYvv7+A8KHxY/nl1y+UT+qfOz/xeaL21fdy+D5epvut9mVvavcqy2f3f4vvTj0JrwWt+6+/rqRvFPqZ+Dm75b8Y/2l5PdPj4gSl0AsC82N78IoUlFEQAbhZuba9Wbmxs1aLLxDIDe0J3/drbPGhoAKmr+038s/wXZWc58Q/jF5gAAAZtpVFh0WE1MOmNvbS5hZG9iZS54bXAAAAAAADx4OnhtcG1ldGEgeG1sbnM6eD0iYWRvYmU6bnM6bWV0YS8iIHg6eG1wdGs9IlhNUCBDb3JlIDUuNC4wIj4KICAgPHJkZjpSREYgeG1sbnM6cmRmPSJodHRwOi8vd3d3LnczLm9yZy8xOTk5LzAyLzIyLXJkZi1zeW50YXgtbnMjIj4KICAgICAgPHJkZjpEZXNjcmlwdGlvbiByZGY6YWJvdXQ9IiIKICAgICAgICAgICAgeG1sbnM6ZXhpZj0iaHR0cDovL25zLmFkb2JlLmNvbS9leGlmLzEuMC8iPgogICAgICAgICA8ZXhpZjpQaXhlbFhEaW1lbnNpb24+NzI8L2V4aWY6UGl4ZWxYRGltZW5zaW9uPgogICAgICAgICA8ZXhpZjpQaXhlbFlEaW1lbnNpb24+NzI8L2V4aWY6UGl4ZWxZRGltZW5zaW9uPgogICAgICA8L3JkZjpEZXNjcmlwdGlvbj4KICAgPC9yZGY6UkRGPgo8L3g6eG1wbWV0YT4KLqSt0wAADMdJREFUeAHtmkmMXEcZx//v9TZrZsbjcbxgT+IwRBbOwhIWRQpBJFGIQSA4ICGFUziQQw4gLkiAFBAnLhyQUCS4ISTIIeZABAGByAFICEKRgwnBWWwcxzPjzEx3T29vaf7/r189v+6ZcUdk3A7SK0111av6XlV9v/pqfeN16ZC7HQn4O+bkGUYgBzTEEHJAOaAhBIZk5xaUAxpCYEh2bkE5oCEEhmTnFpQDGkJgSHZuQTmgIQSGZOcW9E4D1A06iBo1KPx/cMVRNjJaO4v67x6F33gDmNoPb/44Sjd9HJUDx4FCYZRNect1eaO6D4qqFxA9/Q2Up9Z6MHQN1Q7QWGkhmDiG8s2fwdjRO+GVx95y40chOBJAcdBG+PS3UK78GxibJKAK0I2BqA2EHGrtDsKVBho4gsLSCYwvfQL+xHWj0H9oHSMBFJ37C7znObT2zQKVvYAvKyGgbkBIzZ4PWkAnQPdSE9X2PIrv/QLGb74P/jW2qJEAav/1x6jUfwlMzwBlAvLKSc9xmHUjxgWKgMLNxKICRMubqMVHULz1i5hYugt+caTTZWpZI6m1W5wGWiEwzuFU2CCgEhvASdlTO+yHVsXn4njSMA+FAz5mGxdR+9OjWH3+Fkzd8SAmjn4oyR9dMBILCi6dQ/2JhzC3yLlngl4rlsctmEc48oKkQBO3eQ6/mD6kdQUEW29j/SLnsbnbOUxvwdjiB1BeuIk8OZ9dZTcSQNJh7ZlfIH72B5g/Qmua4BArEpCfgWSc9JNxgiVQEX2HsJoBgmoHa+shJ/S9KB69C3O3PYDJQ0uZl3Y3OjJAavbqnx9H8MyPsG++i8IER3eFXqAKgpVYkSxK4OTEi4zsJxYsegerEaC62sSFi11O6J/D4qcfRrGy+1uE3QMUcSgUtk5p3ZArE/WSnppoN8+9gOAfT6C49gIKXgPlssfpp8080hCoQhIKmLybo4xTUpCsSrCaIdobbbzx8gaqB+/HLQ99V1K76rZqlBQfRxGiN19DXH0dAXfAYW0FRY+TbEyF23UqHVMXDzGV8EIu1fTe2B5ub7qXO576eq01ROp1Op+y5ekpTM6yp2cPEgZlfQ6d8FIPhsfm2JxE4S6Ba6/k5qQ0noFEoBWCvZ4yrRd/hfN/fB8O3fV5q2u3fra1oPrpPyA89XMU2q9irBKipOGgnlXjXegUybbEOlw/dElweSKmYu59N0n7Kpcrms/VyyM0zx03SFbLv6vDtgICI2hMl4+5yeQGFDrTbXbQ4rbgtTMt7Pns97Bw+93WhN342QKo9fo/0Xzykd6KM87JNFVG5kAvp4arZ108pdFLSjISBSWXyDuFBcInGLMY7YlkOYKTlN9XHt9VvarPU1n0VrdAae9U5wROv9m03fjZM23MPPAdzN/+Mcq+fbcFUO3pH2K68SQwM8FJdCrpXQfHKaCGuvh2jZD5yMtJNok7QPau3ndlOPnsO3qXzy7pckQZiRMsWlWsDSb3Vy2C2mji/Iuc2+78OhbueMAJIgxDBOsrNkWog71iBWNz+9L8nSLsun7nNVlImb0p0y9wn+HJ/NW7rqXZMKN8FkQqmy1bslmXlGNBEu+zyqzsTnG+Jyv0uXUoydrlqzh0WxErz30fK51NFOaOoPmvp1AJzvEW4XXy7NDH3DWMoVV+F8aPfwoHPnJipwpk2/2uW+F5qU3z1aqkcxInUv7Qq7cZ9g0vvctGmvknShoc9awarzRN0AodTMXlE+uRnDmXnjz2BU5GiduAtg7kHKbpYKzXxoXjRdTOPgac9bBnH/PU6drBd+m1aHBnH6+9hFd+/W2cq72Jw/c+2Feje9gyxNrnT6Hz1FcxfYSFjnPXqz2J7UsSBWwHrNeZng4ZPrq4KZxRItUtAaKJWQrZcUP9o3L4bMCcsKuL4RarUp6D7UImyZksJ+5ovTcvafhZOt+xTanawHe4QnPM2XWLbhFOn6rjxq/8DFMHbzDx7M8WQMqsn/498NJJlOIV6t2AFzV6K5ntflmZYKid2dCVqjRnUZIxHRShc7B17hIoPxkWBiuZtFPrsgp6dThIKsN1hOImqzADyla6RjIvcQQIfkErJOFYObSemCufVkDu0VBvoXpmHRs3fgmH7/+yCutz2wJyEnG7gbC6jG7zTRZYhxe3EDc36NfZtC7iFidG7osQNBFxJSlQ8a4qt4Zwj0MdY15jeEzzu03uEJoojnEXPUkYJQLSkCjRSotcEHyGECRZk3xicSkE1yoXsvAUlgDJMc0AUXmtcF22xVZKlp86yto1Cyf2gL7FK+ALNZy5dBjvefgnqZSLyMZ3dH5lgofCG5gv/7+5OAgQ61IsaKC7/BzwymMcurQcndy11JslMUzhUMkdoShLEATEQWHUnN5zaYpr6LIeWacgWZmZfJ9DrMB2FUPrsOKFVe4Wqrzx7L+oc91kVVyNH79UslN38boF+LXXeAZj4zXE7FjBhpvFSKFB5yBkQ8pkh5vizqfDLIGTzm2CLzWz6apX4NgODftSAcWohs768mAjUjvekrHrCVSkce4ULYkTZCzPHtTwtFUu6dlUea188gNw0rSkdekQk6iTTWBbQABpByTpzjoNjvIJiHNrhefBkFPHoLviEBsUfjvPMRWIdL+jg6aUESANLztGqKECQic9TRf9ZJVyzxJInMkmMiozhaR8J+/KcC9l85IBxDNihduDuME5dcAlEgOpV+HRlynPHqUFEYRBYiWyJLMKhS4ugIm3PDVGJJx3zwoll01XmpzS5BRSJnWDsPgsK6QvlXwENR6aB9zIAKne8WMnUF9lo3k5bxtRDTF5rSryBomWZUo5UA6cU9YpnIHgotkhl1qf5J2AQhdn1OQFiFMih1mko8qAGymgyoFj8Bbv791Pu81axJXEgTJYBGRL9XagnIIOktNG6dQytaYMBEuTnEujnDkX8oFRj8Ms7nBrMOBGNgepXvufdX1VLbNfNOTcTUHaKKe4lGG+6S1F1I96Zr4mVXOWyVg2TLIsTelyKlM+A8Tlp/AkJwn3Tu9Zv662yylXMabbxWCDgJJxn1alhtq8w+Fk1uPmJD1Lucwws2cponSnkMJsnI/mHBw9OJlMaMz4rD/dUOqAPuBGakHa/8S6HONp2oaDQcn2rBRSnzklGNXq1mUzbZVzsspX3Mkr7t5xIZPkHGCbb1zZylC58pSnj0Lu8Lf5SDlSC/I1pGZuBHjhbp907BKe1mH7IqZZmFiLLf+aj6TwgCWlViRFnXPwBE1eijOw5OR9u41UuupQ6ADpWBZxRz3H9H43UkCqusxPNesXeZjU9y63J1JDLa4Gs/ECZY2XokpzoTROnIFTPJNmSuvd5H2BtbOhWyElyzQrU3mSYxqvP5r8AFCcXlCBfW7kgCYX34/w8CcRrhJSJ4EkS1JDUzBquMAoXXAYmlc8UdCsJAFnabI2rojukKp4zNO8ACnfrIYy7j0316kO7s2aQQml6b3M73ejnYNYt8dhtueer6F28mXMtC/0zmRqk1YndZcsScNC98++wCjRAVKGngVJoQleDu2OWlcdyuc7CnXuExS7eUzOZYKj/wWwS8GYtxUBwtIejO89RNl+N3JAql5qxRHN3vTlj9vgqTeVZtZjkZ60LwWltGQJxpZ65TPurEwWon+nUbmySDnl6V0Hypc18T3J6i5IezFacafG9OljvDbiAjLgrgkgNb9VZQ9OsPHjgiKvlvHHlNMz48ZECgmQBOgdTIkLgJysThB0S6jrVJWhQ7GuWXXvpHx9f3N7KJUXSYbXrtU2Lv6njuvu5QZ2G3dNAPm6YD/4YXSWT6LMMxDGafq6/pDyDsBg6Bpv6VRObARIygsG/1st4nf7WpVLdqOB8akSxufG+M2BZasO7pRtc2rvCE6ELi2ner6GS8UlHL/1bldDX3jFG8U+yV1+COobOP/4NzHT+Bvm9vPryRj7yl3pShkHS3Ep5YAJiODIUnQ7sBlinf901fL3o7R0H8qLH8Wrv/kpsPx3GucyZmcrmOANZlmX+TpOcL+jFavR9NCKZ9CZejcOnXgEUwcWt9XwmgFSayIOiUvPnkTnxd+iW32VJxBeyRYifs0toMLhodOIwKRGQzBtfnHZ5BeJMCwiLM6jO7eEyWP3YPLoB1HRP2glrlXdQP3caX4uu0hr2eQCV7d/bvBK4yhOLaA4dxClmev73nHvZsNrCijbkM7GKv8RYZnfANf5tanK1Zl34LbE94xHRqSzXLc4xg3dPCqz+1GmL03y4+ZVdO8YQFdRx7dVtIw4d1cgkAO6Ahxl5YByQEMIDMnOLSgHNITAkOzcgnJAQwgMyc4tKAc0hMCQ7NyCckBDCAzJzi0oBzSEwJDs3IJyQEMIDMnOLWgIoP8CbIN2maCYBg8AAAAASUVORK5CYII='
p13
sS'twit'
p14
S'data:image/png;base64,iVBORw0KGgoAAAANSUhEUgAAAEgAAABICAMAAABiM0N1AAAANlBMVEUAAADZnoLZnoLZnoLZnoLZnoLZnoLZnoLZnoLZnoLZnoLZnoLZnoLZnoLZnoLZnoLZnoLZnoI7WtDNAAAAEnRSTlMAMBAA7//fjyCvYFCfgHBAz78y8sBcAAABPklEQVR4Ae3UXQ4UIRREYaBu0dD873+zzmg0Gm24Y2PiQ58FfEm9lHl6+tdZB3UGl1kh/RHuQ8KvxfMmlPg9yekOVPhzsdo90CuJtf0NVPmneq4tfAZZXjeK1UMYnOWr00JOOE2K00EInfN80kFwkYsOHQQkz3nd6SDg7DrJYFmo0a8lg49qnb81dkEs3yCXhTdrb8h53q6/ocwNnS+IO/K7IKZdUIQRbsmZzC0l4zp3dBi4IrzfMJhkhdpkBjmhvhmUuQmSXRD/Oyjughr1+RmEg+riFEIVKitzCG5Ql11AJ3V5zCEn1HUsoEZlYRM0sIACdbUVhEFNGUuoUZG4NYRTN2wNIWTPeQUqaHmUGUrIrhwt1Ba7tkCSoIcgvCoGfALVC2Y0YAWtJck/GD2EcPRfkFESAD2k74EeaFNfAP+QSWAiUSbuAAAAAElFTkSuQmCC'
p15
sS'gmail'
p16
S'data:image/png;base64,R0lGODlhDwAPAKIGAH//Vf//qqpfACpfANS/qqqfVf///wAAACH5BAEAAAYALAAAAAAPAA8AAANFaGrQ0mAtCAR5cFIRLo4MVQWd8DBmqpLXSL7wO1SqGQczMOyDdecbTgwI8b0IBKLD1ikIBqFNh+CERouqmYbC00qumUUCADs='
p17
sS'related_to'
p18
(lp19
V\u270c\ufe0f Victory Hand
p20
aV\U0001f446 White Up Pointing Backhand Index
p21
aV\U0001f447 White Down Pointing Backhand Index
p22
aV\U0001f449 White Right Pointing Backhand Index
p23
asS'name'
p24
Vwhite left pointing backhand index
p25
sS'known_as'
p26
(lp27
V\U0001f448 Pointing Left Emoji
p28
asS'default'
p29
Vemoji
p30
sS'bw'
p31
S'data:image/png;base64,iVBORw0KGgoAAAANSUhEUgAAAJAAAACQCAYAAADnRuK4AAAGmElEQVR42u2dITQtWxiABeEGQRAEQRAEQRAEQRAEQRAEQRAEQRAEawmCIAiCIAiCIAiCIAiCIAiCIAiCIAiCIMxb36w31ty5jnOcM/s4M/N9a+213vXuujjznf3//97/3qcrEmmBLl8CUSBRIFEgUSARBRIFEgUSBRJRIFEgUSBRIBEFEgUSBRIFElEgUSBRIFEgUSARBRIFEgUSBRJRIFEgUSBRIBEFEgUSBRIFElEgUSBRIFEgUSARBRIF6gTe3t6iu7u7aHd3N1paWooWFxd/PBYWFqKpqaloZGQk6u3tjXp6eqL5+flof38/+vj4UKAygjTT09PRnz9/oq6urmADkd7f3xWoLDAjMGN0d3cHFSc9EJWZToFKIM/MzEzbxEmPsbGxUkhUaYHIV35DnmRMTExEr6+vClRE7u/v/wlb/f390draWpzsPj4+5pbwHh4e1gyRo6Oj0cvLiwIVjePj48+HyMNdXV0NOhvw/Wol6FRrCKtABWJvb+/zAU5OTrble15cXNSUaHBwMJ4VFaggMOMkD299ff3bv/v8/BzPELe3t9Hl5WV0cnISh6Wtra0fh5/vJGLN6ObmRoE6GR749fV1/I5PPzj+nB0sANZLhMlhfpornZ+f1/y3iyZRqQRigY4wwLv86Ogo2t7ejleTWXchz2hEiGbGwcFBruEMia6urhSoXkhIBi8WoSEdHhhUQ4SJzc3NeGxsbPy1vcAaDvkLaypUUL9Vjp+enuaeE/F1ZqrKC0Rlw4PnQYfeJviNwczWSrn/XTjj6w8PD9UUiBeVSqevr680svAGGB4ejme+lZWV+PfLo/Qn56n1OpGLdbJEQQQiLA0NDXXUw2etZ2BgIBofH49mZ2fjBcOdnZ3PcPndILTmubD4FVR45D5f/ez83EjGz0COl4T7ZJDvJSGfipK9PUJ9O5LxIALRytBuQciBqIjm5uZiOUigk4fPO7gIO+CIkOdrgpCh99uCCFTrF2JWop2BnOjs7Cx+15WtP6aVWZuCIe9KMfQKd1sEIm8oYzNVqzA7UMGRU4VqJymFQMgj/1an5DadXCF2jEDkJ0XdLAwJYZw1rDylQUoqN4qFdrzmQQRizSf7i/ELdfqahnSIQIjyVUznayTRrDybDynQt7D1UG9dhuSaNRlypHbMTuQdT09PPvUiCAQsZv00fhP+WOVlkY8mrGQdJ9k3a3TmYt0HWZjtKI/TJy6a2fyUXxAI6LvptD0wNmKlIAIloYN9I1aKO2Hz0zBWMIHS8PBo2WC7gfwnVI9OrZmnLOexKitQFh4oe1bkPqxf5LUiS9jk2AwhlFzKWaekAn0FbafJrnPSYMbmKJXd8vJyPJOQFDODJRum9NWk5WOGk4oK1CzpPmf+WxSoaYEYtM6KAjVMdguFkCcK1DDZhUsSaZNnBWqY9HHldCdAkmhn20BJyOmeZOaiWnN/ruICAdVZs6U/t5JJxQUiZGWT6UaHOZMCxbCG1MxxIjsnFegTGvYb3cTl75EPmQMp0F+wUp0VhYQ5GSTOtJWW6dJLBQpclSGMKFDDZFtIaFr7bm2IMMaJzuS0J6FQKiwQHYnZHX5aSDjcmD6+zGYt57Oyx4sJe2zoSkUFglav8mWxsR3QhcCMl5xxZ00rnbMlg9yO/A3xuSD9N5P/SghET3UrjWtcVhAKujURhmNPrVwcQajm52Qm5d6h0JdBVEog4AWlwayZxjS2PvKG/iUeeMjrbwjH/M4h17cqdUci70hOZPBur9X5yItOyCNHoorL+w5n8qm8T6PWGyF7oyp7Sys5RloayvuQ0z6zWCthqtWPVVCgACEk/SKHutQSMb866t3OYQgLFM7S+QdJKBVNHrkWD4ytkWZu32C2aOTmNJJlLtOqdxNc6Bs6Kv1hK9nj1+RFlMicjOX/IQIPizt8sv1E6UFeRaN/s10A9Czx/ZoVmNZdKi/EIzFPyn3uIQjdUFdpgSih253QZi8pJ6ku8l5c5T9wjnNprTShNTOYHRCnDLv/fuTl//kQVVnIM/zJ1TYh1pQUqEMglFCdsU1A8pmHOCS5/HtlvVxLgeokpyTSnPao91EKSQJO9cVFEpTvJLBlb1JToCakSu4qompKKrEif+qgAokCiQKJAokokCiQKJAokIgCiQKJAokCiSiQKJAokCiQiAKJAokCiQKJAokokCiQKJAokIgCiQKJAokCiSiQKJAokCiQiAKJAokCiQKJAokokCiQKJAokIgCiQKJAokCiSiQBOM/AxqB8Hkf0MIAAAAASUVORK5CYII='
p32
sS'version'
p33
VV6.0\u02b2\u02b7
p34
sS'uni'
p35
V\U0001f448
p36
sS'desc'
p37
V\U0001f448 Index finger pointing to the left. This emoji is recommended to be displayed with a nonhuman skin tone by default, unless a skin tone modifier is applied. 
p38
sS'browser'
p39
V\U0001f448
p40
sS'annotations'
p41
(lp42
Vbackhand
p43
aVbody
p44
aVfinger
p45
aVhand
p46
aVindex
p47
aVperson
p48
aVpoint
p49
asS'wind'
p50
S'data:image/png;base64,iVBORw0KGgoAAAANSUhEUgAAAEgAAABICAYAAABV7bNHAAAAAXNSR0IArs4c6QAAAARnQU1BAACxjwv8YQUAAAK5SURBVHhe7Zm9a1RREMX3o1Sw1CKWFtbG3ogisdFCYZc1ndhYKLIWYqHWimhhYyksu2AsbJSAkPwB22oKG8F0qSws365ncgeJm03Yd9+d+0Y4P7jMzGuSd3buuR+vQQghhBBCCCGEEEIIIYQQ8l/Q1OiO0Wj0HOECxlan03m497AGXAqk4vRDtccY4xGE+hLKfLQ0ekM6Zz/L0+l0XYXLileBdjX+pdlsnkDoQ6RPg8HgTHhqj1eBvmqcx2q73f4IoS5pbYpnk/6JsBSqg2DK/UJX3YUvDfSRCV47SBhpnItMOYj0xtqX3HaQgJffRJg17Hm8sNoKeO6gRlEUd2QqaXkUYt4mnRTdQfiH3iGshcoNyTspqoOGw+E9BG/iCMk7KUogGOQ5TT3S1x8wCVECwRd+a+qVZ+iknuaViBJoMpm8RNgOlT901/04xY670jKfspXxUtcRFlnSy7AO076peRRu9kEiNkR6pWUyYAf3u93uay1Lk0UgXVlOhupQljHOhjQpO+ii05qXxlwgiPMNweLFyxC9PzLdSWvn1C2O0NFYGlOBMP+Pa1o3S7HLvqlAMN0PC56lcnBFYylyeJD8crcxjuomMWhrxvCh85ovjItlHiI+QXgaKjN8CyS72lardVXLf8BUlPZfDZUZfgVCh7xHuBGq2ogSyNSkBT2O1C2O8ENjKcwFwvTxcjXiUyAvVyNFUbzVtBTmAjm5Gvnc6/W+a16KLCatK9gDTLdj+mgeciSx2g/dgkFHfT9zsQ8SrK47QKU7oewCqRByOTa7sz6FceiX1Ei24T3XYqeXkFUgwy45gJwB8bcqf5o2N+n9aOfkYCeFOEJWgUCO648tTKuLKcQRcgtkudyP5f4ZwqxU8ZxZspu0nMvwIpcxBeTTTDTqMSKEiL6RqmMIIYQQQgghhBDnNBp/AE/Z3ZrUFRNcAAAAAElFTkSuQmCC'
p51
sS'andr'
p52
S'data:image/png;base64,iVBORw0KGgoAAAANSUhEUgAAAEgAAABECAMAAAAV8YMOAAAABGdBTUEAALGPC/xhBQAAAAFzUkdCAK7OHOkAAAMAUExURUxpcdljkthejtdZi/jj7Ntql9dZi9dZi9dZi9dZi9dZi9dZi9dZi9dajPXW49dZi9dXitdZi9dYitdZi9dZi9dZi9dZi9dZi+yvx9dZi9dZi9dZi9hdjtdZi9dZi/DD1ddZi/77/ddZi9pkk9dZi9dZi/78/f77/NdZi/vt89dZi9dZi9dZi9dZi9dZi996otdZi/PL29dZi9dZi9dZi9dZi9dZi9dZi9dZi/rs8tdZi9dZi9dZi9ZWiddZi/fe6N50ntxsmddZi9lgkNdZi9dZi9dZi9dZi9dZi9dZi+OIrddZi9dZi9dZi+aUtddZi9dZi9dZi9dZi9dZi9dZi9lfj/nm7f32+emkwPzz99dZi/LH2N1ynddZi9dZi/vu89likttplvzz9/31+Pfe6PHD1e20y9dZi/vt89dZi9dZi/nn7/nk7eKIrNdZi9dZi9dZi+2zytdZi9dZi9dZi950ntdZi+mmwddZi+WUtPvu8+yyyeOMr9dZi+SPsNxumthbje+7z+GBp+65zuB+pdtnlddajNdZi9pnlddZi/PN3PXX49dZi+WSs9dZi/33+thcjfz0+NdZi+ebueaXt9xvmt51ntxtmu+70N52oNxrmNdajPXX4/nl7d1ynddZi/TS4NdZi9dZi+utxu+90d1xnPHD1eebufDC1eWSs9dZi+qnwtdZi9dZi/XU4dxumtdZi9dZi9dZi9dZi994ofXU4fvw9PLI2OmivtdZi9dZi9dZi+eauNdZi+21zOB/ptdZi9dZi+yvx/34+uihvuqqw9ZTh9pkk997o+qpw/bZ5fHE1tdZi9dbjPTT4OaXtthfj+ecuuqpw++90fvw9Oeaue66z+GBp+KJreONr950nuaWtfLL29dajNlhkfTP3thfj9pmlP///9dZi9dYitZWiddXiuqnwtdYi9ZXif77/Nlhkf/+/+mivv79/tpjkvro7+eduvTS4P/+/uaXtvbZ5d95ofXX4/XV4dpllOqowuGEqfzw9eieu/ji6uB9pADDT3YAAAD4dFJOUwD5//339/wN0QEW/vr+9I7+Av0RNAX7D/LtG/j937jycv6//tkw/v7b/TjQKSB3+yL6bArWPGWP9vy8nSb+5fz5/VT9y2hIb4TK++fjFP6Xxk7zAwj+/v76/oj79JGa/fz9+/3++/IY+zKw/Pz4dVnM+i71Rvw9/B77+vz7Vvn9/Pjz9vT5/Ov8pfn80/fp/f76yPb6+vL59vz3/fT4/M78fdz18fj1//X5q/SzRP3zaYyy7/j4+v35S39B+ZTz912k/f35+v349vD888X68/n9+Pz7+/rx+/fx9fLy+/n0+fz////////////////////+///////+0YttYQAABGRJREFUWMPtl2dcW1UUwF+JJoYklkxKEhAho6ywAjRAw7JAKUNQyx7Ftum0tFS6qHbZYae0dA83zlr3nnWLinuP37s3zzxiAaHUYl33ZfB7gYSQ8EE/5P/53v87755z3j0Pw3z48PFfkxi3cMXq6yesiQkN0c4q3PWIZmW0Qey9hp17DQNY4MgK2xaVaEqjhd7FE0VJTBDYYMhmpWqi+Z6L8photyCndysJTcOyu+8yjFgmFhYZpFKpP9uVR7yIeqml8Ts3rzlkljMDjKQlNmaIyGGZ8PGwmQq9Xp+a6Erk3wYAzFyM47ha9/sD8x/+rfU+eQClaoqkL2tptsa6i+VSNBMAY4cKH+asLv7BHCqqU7aY+Kz0pNI6iVV0hUuR+CEkKr4ap6Oed5IKqjOdWhBd1zZ1m8x+eq5F2PpmAOc8q3Yw4RmxlCl1BXpQLbUfwtEiVpzy0ewzoXn5KZMtpAWhdeGf7Gx0MM09QqBt2oSYxDRUGx9OemfDCJE0NETxpIzLZDAAHZOg4asvpnxZ3T9YbjPdmUWZmNq0a1HAh49/9C50ECnDmMA50DhdcGyfX8NGm2hgXoN1KwcYL/XgPeeNdJEh1bKHNFqYLqBgyi2Ye3uH5tR8/els+8upNoYT1mcYL6nwbgcROxQlEebUFBR3nEOsmkIx/yqKD04PDv6t+3wv7ZhU1ScFlqDIfyrxgb/oImEnirTg9Nq93QP4eFhSkenH4wHywp84/gddJNIDeOts3AN0/Ye/+4E8EoHjv9BFK8sAuUmNe8ZPPxNHLxshyi0DxFOVHoqunERcPlLUgmrPb135xEX+Taj0bii45977+y9enNvX16dbsLbxjrM9HovYCVTzkYwNcrPZ3Ds0NHT0sZotm1o73orv9kyEsdLshW2yACEkCNL4dma9hyKsKH/PqOYwbT9wu8pTESaOrArRBnElEgaHY2uy7fEqT8/I/h1Z2JK9LFmjyX/59bBpgNitwr0T0VEWAuLNsfvl+LhEq7WAeHXMEh34/sfxiMQlAMifW+BSc2P1gcxjcBwiTKQAgBdb8crTTltw8S1d6JqDh064F7GfnwoAQQq2POPEU7/UcsON/ow4Nb2ITJxYZyVQ/pK1QmBWhlp1zp2IumrhbRlO4ul+Yx/auQ01Oufbb/ZfgO5E0lNIdMKJZ10XBNwdSSVUTAQB3V6QQnQhcNb04fivanpBVa6iPClCLDeY3k9jiLBkNB9wbt7/3u7ztILKaOUhz+RADLtO+ZqmqqpumntRYi0XJS5A0FUx/DGJWN6O8iVLCbRnhB0T7F6ECW9SUKqPbaWkXrI8FoUDyl4IpK0JG4cI40cnB6MkfxbR2Fj//ubiLB51MwYn08dcdmlUULOEyYxiuRkA0cwB/doPHmwP32qkEsR9ItJxjGQbkrJnJOQtczf2ioItwwu0zi+SphlCL4dk/vrhLDOCQs5IvR+3+aLaNsUevaJzR0Ika2I/AOyidJEyTsjHfPjw8b/gXw/2aMKGvRErAAAAAElFTkSuQmCC'
p53
sb.