ccopy_reg
_reconstructor
p0
(cemoji
Emoji
p1
c__builtin__
object
p2
Ntp3
Rp4
(dp5
S'emojipedia_url'
p6
Vhttp://emojipedia.org/squared-katakana-sa/
p7
sS'index'
p8
V1244
p9
sS'code'
p10
VU+1F202
p11
sS'apple'
p12
S'data:image/png;base64,iVBORw0KGgoAAAANSUhEUgAAAEAAAABACAMAAACdt4HsAAAC+lBMVEUAAAAAN6AAMZ0AAAAAQY8DKq8AQqIAAAAAAAEDLbQAF0UAAAACKKIAN4UAPooAAAAANJYAPKEDLbMAEUkBKXwAKnUAQp4AOYcAO4QBJIUCLKICH3sAAAYDIpUAAAYCHoEAF14DLqwDLqsANIMAN4UAPY4AQJEAQI0ASZcAYeUBWuQAY+YEVeMBWeQAYOUAZOYCWOQAaecDV+QDVuQAXOQAXuUAZ+gFVOMGTd8AbOcGUuMAXeUGQtMAZ+YAZuYAb+cBReIAUeMASMMDPsgFSNcAVOR6ie0AaeYAY9gAZuIAXtgAWdgAUMUCV98GWOMCV+Pn7/wAU8YAauIAX+AAVdcFU+IHT+MFUOAEUd0AYeEATMQAW+D///4CM90CT9QBN7cDSM8ENsEFP8+yy/aErvIBQ8GJke0ZHa0BWOgBPryZv/bw8Puzr9+kouoEFb9phux0lO4AJs8DT9hDg+ufw/VTku1RgOoNauYfONxNVN0jT+EvNc9YVbFta7fPzuB7ecybmcx3dMNutPFZqvAAcM8chusliu0AaMIActoBdegsk+svlu4nj+wZg+sAYLqAvvMAYcRNo+sLgN5FoO+VxvQsj+yz1vhWqfBdq/AHe+hRpu8Acec3l+4AW8fI4vkAT6UAa8cAWa3Y6vnJxOrj4fNlr/FLou9NpO/Z1e0qkfAfje4AbtugzPYylug5m+1Sp/Cw1fcBIsgojegeh9oAdNu/3Pk7me4ymPEAbedCne7x9v7r9P3J3fbR5vgOfen6+/9Nat0AYsg+mu4HdOjq5/VIoe/E3vl1iONxrPEAV7QAVqzi7vsAVacATJpvsecAV6kwhOo3j+0AcOdfrPATM8UxlOIwkuwGMsj///9Ppe8KeM0AadnMx+h3t/QAV8amz/cSgOoEdMtBauIcMMQAbucSbOiPu/QWcegAdOR1pPBcrPBYm+4AX8gmc+MfcehsbdU0lO0AW69jrvAoOc1irfAMes4xdegAbuNUrPHNyegoPM+MnOjc6/lmmO5wAgPeAAAAKXRSTlMAz88Kyc/PJh7RBBq9MsYSsM/RP1lQxnmsi9RyKI4nbEvi4x0Xt93U+6vkwFkAAAWjSURBVHhe3JDFbiNLAEVnEWURKVZGSmLvg9/ZzEZmZoYwMzPTIDM8Bmmq2t1yOXmyk+07u9t171F1Pfp/0anVaTRtLdBodNrO/5z3aIb9u8FvLQnu+oc1PXfm/brtoETTgWcXvzbl4lmApqXgtq7/1u2HtqQAUd7JTE2H/mlCaHoqs1MmAtLWUMN/9A0GaaJsmZydDPlWmuILgZKlTNDBwT5EMLARII5DEwU9Fo3+0pRoFNMXJkLHRGBjoL7v9tPE8eYK5jj8Hm3J90MHtrJ5TND+bnXf0SYRJp8NzO8HUNh8JkJq61Bf0E8zWBV3HN4bB17FGNqvvqN2nTAVMNzxAHCsYCLWtYqgSyKyFhf+IFyWLCF1KYJeA2PE8vYHkceMjKFXEbQbKkbchWL/A2C/nfNoBTdWDO2qYL5itp8jxPc+Afbi5yr7co6hHbu5Mo8Icq5YnTj//AvgOR9Xcu43mOeSMKu4cg2CbHy5TozPnAEsfEz54MFgLnAwq8SzDQIuZkbw6OFA71Fz7j3MGX4Z6cQ4VMBw5nEE7hoOrjk1e3CYLRzaMXMMeoPS+AKCUBMIaubzskBAO+Ml5AYfmdLCiEyjQP3In8P8OqVsa80S8xEVjHggPEklk8nRVE2QGlVIxmqCUXBIkbxcHWkQpEnPV4DnzV8vjo6OTourcLBaPFUozsH8d/EUHL748YqXu2S6LvCmnScQ7nMkkkgk/gxH4CASvlIIJ2BeCl+Bw8jSniCXnWmvKnjsTb8lT6wAcuKsJbP7FGiekG/T3seIwJmyCoIgTt5HkBIEa8p5S8CyIkVR5OxZa/ZJihJZ9o6AdYqk1WZ7Asj4YNGXeaKQqcI8LedCdYEUnWyj4OYSCNxu9+LM06czAHYNDtbYGQX2Qz2DxuKB2w0ElzeI4Hc34ODl2NgBkIjsOzh4x5KiDMn+WxOIYPyz0jrZbVqNAjieElUOTaRACovOhZ3t2F+S2rSmeKqdJk0I7pDcJJ3nCSjzPNx7n+MueYLuLITUDU+QVSUkxCItQkh3WVZIHLs2seO0pL9dlO/8v+MoC4scp4vG6R+eQKUiinqcFwSeum8GKl8suhm4TwhI4ONcVaxUvIEKECHAxeMCkkeNwKh0yyKZn+/JOIJ5CIiQqDgCLRCoiqBa1bkUXwsM/mUanFs3AxpCfAoCx2ch0GIHJtKTetWg65xRSFqBRNQUm7trBJ4ySICArptn9cn0hCtg4jh4BJ63NyAoStMoiph7B4G9IxqeIM4BHdQHOFscCrK58rrEMgRgEs8/QuD2ASkYAZszcDM9loo7sKvjYFVjTbT0YhYCH0hYoCY1lr5ZC2QcAR4cfAXPaNoM4Mc/wTYjwDeOQMYV4H8TACJxnMYNNI6kV7eNwBNWALVzjsA5M+AuIEQC6KDN3Tv7YPyANOZdgXN2YDpTRm4kzJuEzd2/Z43AKoHcypnpWiBbJhtC16Sdf2ePF2BJt3K2FhjJTuFeJEKbDzb+gXnwPYbXmcqOnB4gWenBxuu3+6ZDgv5DgK6HSzsbb2Dc9JgZpuu5AvkZth7z8g78/+z7GdZjJu8KMMN1GHbbGn//c4AY9mCcgbV8jvGgtBUzsHIkE0wDufyaHbiwNZ8jvJL/v9/fW3mkJYmGcvNr9ktWBwSoBuRvh0dJOUY1lpvf6rAClxcWS1qsgaQsJ2In0EqLC5etQKBTeZjTEl4DA4mTaLmHSmfACoS7YIVodOAMolFYoCtsBfy9IUUtFqJnUCiqSqjX77ME2q8qaqkw2LRCSVWutgd8Nj/Wf0VRh4rFwvUmFIrFIVW50o/BArYg1h5aWlbVoaao6vJSqB0L+mraAhjW17qkLN9owrKy1NqHYYE2n4MfCt2XekKtkcj5U0UiraGeS90w7/e5tAWxMwla97uXaJJ9vTcRDgaaEAw7x38BgsRKUw6OPXgAAAAASUVORK5CYII='
p13
sS'twit'
p14
S'data:image/png;base64,iVBORw0KGgoAAAANSUhEUgAAAEgAAABICAMAAABiM0N1AAAASFBMVEUAAAA7iMM7iMM7iMM7iMM7iMM7iMP///87iMOdxOFUl8tsptLz+PtHj8dgns7O4fDC2uy20umFtdrn8PiRvN3a6fR4rdapy+U8tgFNAAAAB3RSTlMAYL8AIM/vi50ITwAAASRJREFUeF7t2Ll2g0AMhWFWX2lWNtvv/6ZBxVDY8UlAOjkp5u/5GijQbaS2I0Vd2+81fT+MpGwcBBpupO427NBIBo1905JJbdPZQF1DRv0DqEKe2b0Djtmfgx4AwpsUAwB/CmJ894jHHv8RVKEKpVxa8XP39BHKOFX+CAUraMKppo9Q5FIWYOaXZgEyl2L9IK9AFVqsIDaFFgMoF14LrQI5PeTECXQeSt+9tHwOihMCv+qTQJv+/8hBSnpoFmclNZQgbXroLk6IamiGxKSDinMnJRQzpJCUkA+QsJAKchOKo4H8jMO5DLnHcy3MmugqFDOO8Ix0GdpwlL3mqOHCzMIoIBcAhGmJ6jPLbUuqF2SFfpPZyGI2+1gNUWbTmOVYt2cxH34BljWiWlU31WUAAAAASUVORK5CYII='
p15
sS'gmail'
p16
S'data:image/png;base64,R0lGODlhDwAPALMPAPXu6vwzAv9kV+uhif9cM6gzAMY8DufJu9R+X/4pAOEoAOszAvo9Ed8dAP8fAAAAACH5BAEAAA8ALAAAAAAPAA8AAARu8IlJK5UshKx3Z4WgOcOQJMTBBWGQOMfROARgnKzAIAJw8AMAj7AI1Q6ApDKJULQYhpjBgLBNi6IATEazcVqukiJRNXTALsUiEbxp0CdGr3nOspUHc70jGCAQenUMCwELCodrhIUFDwWOj5CPDxEAOw=='
p17
sS'related_to'
p18
(lp19
sS'name'
p20
Vsquared katakana sa
p21
sS'known_as'
p22
(lp23
sS'default'
p24
Vtext*
p25
sS'bw'
p26
S'data:image/png;base64,iVBORw0KGgoAAAANSUhEUgAAAJAAAACQCAYAAADnRuK4AAAFtklEQVR42u3dIVAyTxzG8QuENxoIBoOBQCAQCAaDwUAwEAgEgsFgIBgIBmcIBoOBYDAYDAQCgUAwGAwGAsFAIBgMBoPBYCAQ7p0Hx1f//0G8veO4veP7zPwao+vdx73du73FcQkJEMfrByeTidtut91areYWi0V3Z2eHSkjpfNbrdffh4SEcQMPh0M3n867jOFTC6+DgwB2Px4sDJDzpdJqDu0KlHskrIue3y1ahUOCgrmCdn58HB9RqtTiYK1qbm5vTDiQQoHK57OmXaXxUqVTc/f19yvLSeRIOL+d1MBgEA5TNZuf+AjVmNBoxl41hut2um8lk5p5fXYECAZontdFocBZinqenp7nn+Pr6OhxAurSRZESz7FQqtVxA/X6fI5+glEql5QHK5XIc8YSl1+stD1C1WuWIJ3AstDRAmgoSAAGIAIgAyHM6nc60PV5LyxNsiNph0u4oZrgrAUh/jMmzHFt6SrXDpN13d3cAAhCAAAQgAAEIQAACEIAABCAAAQhAAAIQgAAEIAABCEAAAhCAAAQgAAEIQAACEIAABCAAAQhAAAIQgAAEIAABaOUA6Y8Pq46Pj433+QuzPV5L7TBpd7PZDK0tP+3Cag0gtoazu7SlL4AoAFEAAhCAAAQgAFEAogAEIAABCEAAouINiGdhPAsDEIAABCAAAQhAAAIQgAAEIAABCEAAAhCAAAQgAAEIQAACEIAABCAAAQhAAAIQgAAEIAABCEBhpFKpAAhA/qN1yCbtfnx8BBCA/APSyQQQgP4lk8kYtXsymQAIQF/58+eP5zan0+lI2gggSwG9vr4atTmbzQIIQF/RlnKLePEPQCsKqNvtGrX58PAQQAD6Sr1eN2rz1dUVgAD0ld3dXaM2DwYDAIWV+/v76e/2WlH9N3+PZlVe8Wi2FsUUfmUAxS2mA+itra3I2gogC1Or1YwA6fMAIv+iezomgNrtNoDIR/r9vhEejX/e3t4ARD5SrVaNAJVKpUjbCyCLopORSqWMALVaLQCRjxwdHRnhWVtbi/TyBSCLIggCYQLo5OTEil4TQDGcuquGwyGAiOuORiPjsc/e3p414zYARRg9gtCdZNPeJ6pnXwCyLKZfx2lT7wOgiKM1P6aXLpt6HwBFGD0wNZ112XgMARTRQV9fXzfGY8N9HwBZMOMyfVj6WZeXl1b+MwBoiXg2NjZ84dEKxagWjQHIgvR6PaNVht9L6J6fn629HAMoxLy/v0+n6n5mW591c3Nj9XgOQCFFa3tyuVygL3prNpvWTwgAtOBopqR1PUF6naiXqgIoIjiNRsPX/Z1Zx8rGQTOAQojuDJfLZaPNEOaVeq844AFQgGhWpPsyQcc4/y8tKosLHgAZRjtm6A0IbWQQdHwTxwEzgHxMwTWTOjs7c7e3txd2iZr1iOL29jaW/1QAmjEQ1sYGuvMbFpjvJZhRbE0HoBAzq+2LLl0CT09Pp71cnAOgGdGJDROPejct50hCAPTDDCuMQXI+n7f6sQSAFhi98bkoONptVbO3OE3PAbSAm4NBeyEtlteBTCIcAHlIsVj0BUeL3rXeOclwAOQhJhtd6jKl52BxnpIDaMFRDzJvBaGWpurRg7bQW4XeBkA+ol7ls/1aCK/Bte5MR/HFJgCKISBN6XUwVu3SBCACIAKg/5SmxSRZ+WlL4lAAadnCeDzmqCcoWsO0NEBefzCJz22On74ULzRAmgozo0lG5m1NExqgT0RxXYFHPnqe37bkCwyoUCj8evtfbzJcXFxMMekrqym7S0tRtFbKy7nVY6BAgPxsGkklp7wMU+YC0g6iHMjVLK+3a5zfPmD6rXtU/EsvInjdgs/x8iF9lycHdnXwmCzZdbx+sNPp+N6Vi4pHaRGd6cbnjun07+XlZbp2hhlNckovXvp9NcnhjggJEgARABEAEQARABECIAIgAiACIEIARABEAEQARMiM/AUI8rujlXhIcgAAAABJRU5ErkJggg=='
p27
sS'version'
p28
VV6.0\u02b2
p29
sS'uni'
p30
V\U0001f202
p31
sS'desc'
p32
V\U0001f202 
p33
sS'browser'
p34
V\U0001f202\ufe0f
p35
sS'annotations'
p36
(lp37
Vjapanese
p38
aVsymbol
p39
aVword
p40
asS'wind'
p41
S'data:image/png;base64,iVBORw0KGgoAAAANSUhEUgAAAEgAAABICAYAAABV7bNHAAAAAXNSR0IArs4c6QAAAARnQU1BAACxjwv8YQUAAAKPSURBVHhe7doxb9NAFAfw92BD4gPAWAkWWBCdEXI3BkYasbQ7QrCUkYERliK+ACwoKTNUlYgFO0gMZWUsUqdKzOi4d/cS4pj02cU+29L/J119Fydp+pfvcncuAQAAAAAAAMDAsB6rm+R75GhNW8PC9IM2s3vaqqR+QOP8i3/VTW0Ni6OvNMrWtVXJOT3CCgjIgIAMCMiQJiDnfvryZl6I9uOJWvYL7yEDbgKJriA+otHG9rwQHcTHazkovoc71MdbhS5mQEAGBGRAQAYEZEBAhuYDCnMeP0dZLLKKLjopPccq8poCPi4/z//uhjW/mpdJXJzrpDeevibmLW2VSYhYzTcLARla6GL+Mi4tA/x4McqeaEO6wh3/s9bOnrfnu+4HrcvO5iPfnW9oS/F187PV7GJpdhSXP5j8cUS7sVHZY9rMXmrdHm/+BWNQ8xCQAQEZEJABARkQkGG4ATFf0FqrhhPQb/dRa1Gi29/DCEhW6fc3vmtLuctaaVWigNzVMAOfFece6IlqmL9pLZKlCvMlbbUqTUDMF8PyZF74ip6pauk2Ed/WSuv638Vk/bS4BosyPbau3wE598v/eKqtKHSvmovl/9DfgCQc5oeFLY6An2kliX4GFPaUaOS7ltzH/2ucP0959Yh+BSTBOHoR9myWr5xJvuXD2dFWMt0HFO9EvPNlOwazsPM4E3cPX2krqW7+RzF2odxXPpXHmCVn2TlcZTg7in4WLFfKaeHIVTOeHjUWzhl1E5DMgid58etbvJ1eCwOxBCN71olmy6fpbgxydDccZV4joUzyz3SeD8NA3INgZroLSMax2IXe67fTrXiiX7r9FuvRlbJKtwENAAIyICADAjIgIAAAAAAAaBzRH5ZN655i4bDaAAAAAElFTkSuQmCC'
p42
sS'andr'
p43
S'data:image/png;base64,iVBORw0KGgoAAAANSUhEUgAAAEgAAABECAMAAAAV8YMOAAAABGdBTUEAALGPC/xhBQAAAAFzUkdCAK7OHOkAAAH4UExURUxpce1sMO1sMO1sMO1sMO1sMO1sMO1sMO1sMO1sMO1sMO1sMO1sMO1sMO1sMO1sMP///+1sMO1rL+1qLe1rLu1wNfvd0PjFru1pLP77+e1qLvShe/OcdPSmgvGMXv76+O95Q/3s5PCBTve5nf/8+/vdz+1tMu1sL/zj1//9/e1uMu1vNO51Pe95QvOed/jGru1tMf/7+vObcvzj2P/8+vGNXu1wNu53P/jGr+1uM+9/S+5xOO+ATP718fjFrfSifPjHsfzk2fvbzPzp4Pvg0/nOuf7z7vzq4fCEUvWvjv/+/v3s5f76+e50O/OZcP739Pzl2v749e9+Sf749vfAp/Wujfe8of759/3w6vrYyfzn3e9/Su98RvSie+97RvGKWvzk2PjDqvGLW/e6nfvay/Sng/728/OedvnNuPKacPaxkfjIsvGQY/vczfSkfvjErPWsi/Sjfv3v6PSohfrXx+96RO5xN//+/fCIWPa3mvzi1v///vKYbfa4m/GOYP/9/O9+Su5yOfCBTfnQvfKYbvjHsPe8oP728u+ATfve0e53QPCGVP3y7O98R/Wrie5zOvvczvjIsfrTwfvf0vGPYvKUafrSv/3y7fCHVvjFrO1vNfa1mPe7oPGMXfe7n/rSwPOacf759u5wNvKTZvzo3u99R/nRvu51PGxnPm0AAAAQdFJOUwAPlRT4y3fhtAhdAaQGtQlsZQFkAAACaklEQVRYw+3YZXPbQBAGYAUbjr06By5uU4jlmmLHdhrmpIGGy8zMzJiUmZnpb9a2tCd/0HSkO3UynfH7cUf3jMbWwZ4kSVJOft48geTl50ipZGXnOoWSm52VdIqLBJ2EVFScgEpLnMIpKU1A5WXiUFl5AiosEIcKCjPQnENAiRrqNayahaBp73w1l9p0CTbVaNXvfpNQlTvuUNNxTmZVesCnVX/8BJNQlzbC0dCoQ2QnVhctNgvV4JDqBWnQkgz0L6DNDGr8O+Q1gqD9VrgylaO7cIjv89tKTOc2rE4MdKYq4U/XwACSo6MOixmNykaQu9YqVOvOQHMO1VmF6gwh8uZZhRrPID45MumpwHhOsO/9glZ9dZ8YTpGAS03kCBvyQnFhWtZgdcWQ9mSAa9LSMFb7HgrNfmUAq5NjTgEIguux6rkuApGNG7A6800EknfsweqqFhGIHsdtzbEaRKBIM9vsolUCENkSw+K6rdQ6xNZs2V2Nxf6g1zIUZ2+0bB+bYdsVs6cR+vFJbGkysV/T2mSih5azmVpv+ljj9N9bqOZ3BF/oIHuhvnZi/sQGGPypxzsY1O3nP/qR1rvMWbufckMQvDnCoN4m4IXgzOW4viieJLynWjp2/qu+uh4OAR8E9E53g+6sNPjvTUHwuL7/Ytpy39wGXBCEnk6lbxs9Q5Tv5E9uDKY7D74AbwuhvPfpzsQjhbsXgdO9zJkadgF/U0Nf4my9PfwORLoj/4ez6q7YFQChNotMP09+0KeueEX7NTL++mrPsRARb/xcs7tbnWBHBynL8H/2tLZdadh2yWLbtY9tF1E2XY39AYrIaOwHOhvxAAAAAElFTkSuQmCC'
p44
sb.