ccopy_reg
_reconstructor
p0
(cemoji
Emoji
p1
c__builtin__
object
p2
Ntp3
Rp4
(dp5
S'emojipedia_url'
p6
Vhttp://emojipedia.org/white-down-pointing-backhand-index/
p7
sS'index'
p8
V126
p9
sS'code'
p10
VU+1F447
p11
sS'apple'
p12
S'data:image/png;base64,iVBORw0KGgoAAAANSUhEUgAAAEgAAABICAYAAABV7bNHAAAYKGlDQ1BJQ0MgUHJvZmlsZQAAWIWVWQVUVVu3XnvvU9Shu7uku7u7S+luDh0qICChIKCIgKCgIqKCKCklCopwEVBRsQgRUVQMBAXkbUC99933/vHGW2Osfb4z15xzf2vNVfMcANhZvCIjQ2EaAMLCY0i2Rro8zi6uPPiXAAIYQA7wAOPlEx2pY21tDv5j+TaBaqPlvsSWr/+s978WWl+/aB8AIGsUe/tG+4Sh+BoAGDafSFIMANhRVM4fHxO5hb+imIGEEgQAR9jCATuYYwt772DpbR17Wz0U6wNAoPTyIgUAQNzyzxPnE4D6IUaibXThvkHhqGoGijV9Ar18AWC7hersCguL2MJLKBbx/oefgP/m0/uPTy+vgD94py/bhaAfFB0Z6pX4/xyO/7uEhcb+fgcfWikDSca2W31Gx+18SITZFqZEcWe4t6UViulQfCfId1t/C08Gxho7/NJf9InWQ8cMMAEAA18vfTMUo2MJM8WGOOj8wrJepG1bVB+2DIoxsf+FvUkRtr/8w3F+0QZ2v3Ggn4n5L5/Z4aGWv3Glf5ChCYrRmQZfSwq0d9rhCd+KC3K0RDERxaPRIXZmv/RfJAXqWf7WIcXabnEWQPFXf5Kh7Y4OwhIW/btfiKSP1zYHFhRrxwTaG+/YIs5+0c7mv7n5+ukb7HBAfP3CHX5xRtDZpWv7yzYrMtT6lz5S6RdqZLszzkhjdJzdb9vxGHSC7YwDMhPsZWq9wx/5Fhljbb/DDYMB5kAP6AMeEItWbxABgkHQyGLrIvptp8UQeAESCAB+QOKX5LeF03ZLOPq0A0ngPYr8QPQfO93tVj8Qh8o3/kh3nhLAf7s1btsiBLxGcRiGDaOJUcOYo09ttMpilDEqv+14qH+/FWeA08cZ4wxxon94+KCsQ9FKAkH/U/a3JfY1dgw7g32IncI+AWZoqx/a5y2G4X965ghebXv59d0jKJ30L+Y8wAJMoXaGv3rnjVov/NbBCKGsFTC6GA2UP8odw4RhAxIYebQnOhgttG8KqPSfDGP/sPh7LP/9vi1+/+zjLzlRjKjwi4X3H/56f7T+7UXvH2Pki36a/VsTyUauIreRG8gg0om0Ah6kB2lDhpGuLfxnJrzangm/32a7zS0E9RP0W0e6XnpBev1/vN3rFwPSdrxBjF9CzNaC0IuITCQFBQTG8OigO7Ifj0m4j+QuHllpGQUAtvb3ne3ji+32vg0x3ftbFiEDgMrWfnzgb5nnBwBag9Etje5vmVArANSyAAwe94klxe3IMFsPLHpqUKMrgxVwAX4ggvZJFigCNaANDIApsAL2wAW4o6MeCMJQ1vEgBaSBLJAHjoBjoAxUgRpwHlwCTaAVdIIbYAAMgVHwEDxF58YceAeWwDewBkEQHqKC6CFWiBsShMQhWUgZ0oQMIHPIFnKBPKEAKByKhVKgA1AeVASVQaehOugK1A7dgAahMegJNA0tQJ+hHzACU8IMMCcsBEvByrAObAbbw3vgADgKToIz4Hy4FK6GL8It8A14CH4IT8Hv4GUEIBQIE8KLSCDKiB5ihbgi/ggJ2YfkIiVINXIZ6UBjfR+ZQhaR7xgchh7Dg5FA56cxxgHjg4nC7MMcwpRhzmNaMLcw9zHTmCXMTywVlgMrjlXFmmCdsQHYeGwWtgR7DtuM7UdX1Bz2Gw6HY8IJ45TQtemCC8Yl4w7hTuIacL24MdwsbhmPx7PixfEaeCu8Fz4Gn4U/gb+I78GP4+fwqwQKAjdBlmBIcCWEE9IJJYQLhG7COGGesEZGQyZIpkpmReZLlkhWQHaGrIPsHtkc2Ro5LbkwuQa5PXkweRp5Kfll8n7yZ+RfKCgo+ChUKGwogihSKUopGinuUExTfKekoxSj1KPcTRlLmU9ZS9lL+YTyCxUVlRCVNpUrVQxVPlUd1U2qF1SrRHqiJNGE6EvcTywnthDHiR+oyagFqXWo3amTqEuor1Lfo16kIaMRotGj8aLZR1NO007ziGaZlp5WhtaKNoz2EO0F2kHaN3R4OiE6Azpfugy6GrqbdLP0CD0/vR69D/0B+jP0/fRzDDgGYQYThmCGPIZLDCMMS4x0jPKMjowJjOWMXYxTTAiTEJMJUyhTAVMT0wTTD2ZOZh1mP+Yc5svM48wrLOws2ix+LLksDSwPWX6w8rAasIawFrK2sj5nw7CJsdmwxbNVsvWzLbIzsKux+7DnsjexT3LAHGIcthzJHDUcwxzLnFycRpyRnCc4b3IucjFxaXMFcx3l6uZa4Kbn1uQO4j7K3cP9loeRR4cnlKeU5xbPEi8HrzFvLO9p3hHeNT5hPge+dL4Gvuf85PzK/P78R/n7+JcEuAUsBFIE6gUmBckElQUDBY8L3hZcERIWchI6KNQq9EaYRdhEOEm4XviZCJWIlkiUSLXIA1GcqLJoiOhJ0VExWExBLFCsXOyeOCyuKB4kflJ8bBd2l8qu8F3Vux5JUEroSMRJ1EtMSzJJmkumS7ZKfpASkHKVKpS6LfVTWkE6VPqM9FMZOhlTmXSZDpnPsmKyPrLlsg/kqOQM5fbLtcl9kheX95OvlH+sQK9goXBQoU9hQ1FJkaR4WXFBSUDJU6lC6ZEyg7K18iHlOypYFV2V/SqdKt9VFVVjVJtUP6pJqIWoXVB7oy6s7qd+Rn1Wg0/DS+O0xpQmj6an5inNKS1eLS+taq0ZbX5tX+1z2vM6ojrBOhd1PuhK65J0m3VX9FT19ur16iP6Rvq5+iMGdAYOBmUGLwz5DAMM6w2XjBSMko16jbHGZsaFxo9MOE18TOpMlkyVTPea3jKjNLMzKzObMRczJ5l3WMAWphbFFs8sBS3DLVutgJWJVbHVc2th6yjr6zY4G2ubcpvXtjK2Kba37ejtPOwu2H2z17UvsH/qIOIQ69DnSO2427HOccVJ36nIacpZynmv85ALm0uQS5sr3tXR9ZzrspuB2zG3ud0Ku7N2T+wR3pOwZ9CdzT3UvcuD2sPL46on1tPJ84LnupeVV7XXsreJd4X3ko+ez3Gfd77avkd9F/w0/Ir85v01/Iv83wRoBBQHLARqBZYELgbpBZUFfQo2Dq4KXgmxCqkN2Qx1Cm0II4R5hrWH04WHhN+K4IpIiBiLFI/MipyKUo06FrVEMiOdi4ai90S3xTCgV53hWJHYzNjpOM248rjVeMf4qwm0CeEJw4liiTmJ80mGSWeTMck+yX0pvClpKdN7dfae3gft897Xt59/f8b+uVSj1PNp5GkhaX+lS6cXpX894HSgI4MzIzVjNtMosz6LmEXKenRQ7WBVNiY7KHskRy7nRM7PXN/cu3nSeSV564d8Dt09LHO49PBmvn/+SIFiQeUR3JHwIxOFWoXni2iLkopmiy2KW47yHM09+vWYx7HBEvmSquPkx2OPT5Wal7adEDhx5MR6WWDZw3Ld8oYKjoqcipWTvifHK7UrL1dxVuVV/TgVdOrxaaPTLdVC1SU1uJq4mtdnHM/cPqt8tu4c27m8cxu14bVT523P36pTqqu7wHGhoB6uj61fuLj74ugl/UttlyUun25gashrBI2xjW+veF6ZaDJr6ruqfPXyNcFrFc30zbktUEtiy1JrYOtUm0vbWLtpe1+HWkfzdcnrtZ28neVdjF0F3eTdGd2bPUk9y72RvYs3Am7M9nn0Pb3pfPPBLZtbI/1m/XcGDAdu3ta53XNH407noOpg+13lu61DikMtwwrDzX8p/NU8ojjSck/pXtuoymjHmPpY97jW+I37+vcHHpg8GHpo+XBswmHi8aPdj6Ye+z5+8yT0yafJuMm1p6nPsM9yn9M8L3nB8aL6pejLhinFqa5p/enhGbuZp7M+s+9eRb9an8t4TfW6ZJ57vu6N7JvOBcOF0bdub+feRb5bW8x6T/u+4oPIh2sftT8OLzkvzX0ifdr8fOgL65far/Jf+5atl198C/u2tpK7yrp6/rvy99s/nH7Mr8Wv49dLN0Q3On6a/Xy2Gba5GelF8tq+CiBohf39AfhcCwCVCwD0aB5HTtzJv34VBNpKOwCaY3KhN4M8MAuJoed2L8wKx8CTiAlyE2OEeYANw9Hi+vApBE0yPNlz8naKCsoCqlriMxoaWjO6HPpBRlqm3cwXWTFsXuxdnDxch7hXeX35JgUsBQeFpUTyRd+Jm+yqkvgmpSd9WGZUjkpeVyFasUKpV3lKZUONWV1cQ0XTQMtW20cnWjdD77h+vUGP4X2jBeNNU0azXeZ6Fm6WQVZx1pk2RbZVdvX2reiqH3Iad37i8tJ11u3N7vd73rg/8xjx7PFq8K70Oeyb5OfvbxOgFigQRAz6FvwyZCC0LuxweGSEXaRSFFvUOulFdG9MTWxmnH+8SYJ4Inni26Th5MaU0r0Z++L3R6WS0pLScw+czujKfHmQLFs9JzK3Jm/iMHm+ekHYkcrCkaKNo7uOuZXkHm8pnSqjKFeo8DiZU9lU9fQ0plqixvHM/rPnz43VrtbxXDCvT7nYdOlTg2pjwZWPV92u3Wuxan3Qrt4Rc72u81k3RY9cr+ONqL7Mm4W3SvpLBgpvZ985MHjw7uGhw8OZf8WMON2TvLc22juWPK44/u3+owftD8sm9j7yeKz7RHCSbPL907Fnzc/LXux96TmlPy06QzPzffb1q4m5wdc35q+/aV9of3v2Xf5i3Hv3DwYfxZdolpY/TX7u/nL6a+Zy4DezFalV+tWV789+9K5Vr2ds+P3U3+Tb3ETjjwNs6O0wAfSjNzpz6Aj0EpZD715fEA9kAr01PcdG4oi4VrwfgY0wSVZBHkChS6lBZU8MpE6lOUV7g26BgZFRnymRuYHlI5skO4mjk4uC25HnAu8mv45AmmCP0LqIkmiw2EnxoV2fJRml5KSNZdxkA+Si5BMV9iomKQUru6mYq2qoSavzaTBqEjR/aL3XntZ5qHtXr1v/qkGtYalRtnG8SaCpi5mxubKFsCWjFcbqq/WMzZhtr12jfaVDtmO0k7uziYucK6cbzu0DutN3udd45HpGeNl7y/tQ+sz4tvsV+PsHqAfSBr4Ouh5cGOIXqhpGHTYb3hqRHekSJY7Oi5HoUzGkWL04xrj5+PaEQ4nuSdLJcPKjlIa9efvC9juk6qeppqsc0MgwznTOCj94MPtszs3c6byfhznyVQocj0QXHim6WDx49HUJfJyjVPGETVlYeV7FxZOjld9O8Z22rj5Q037m0znJ2qjz1+pW6lUuplzqbgCNOlcONPVfwzYbtWS33m7HdxhcT+/s6vraI9RrdyO5r/Lm9VsP+xcGVu5gBunv8g5JDWv8ZT7iei9wNH4sa/zY/eoHDQ87JwYfTTyee/L1KfKM4bngC+WX5lMB0zUzC6+E51xfZ81feHN7Yfrt6iLxveAHrY9uS6mfRr/IfS1e/rJiu3rtB8ta5vrqz/jt+GMALRADliAV9KL3elUoBmqFYdgCPgWvIe7IXYw6pgWrjO3DWeNm8ckEdsJtssPkPhTqlOyUP6lmiEPUzTRnaUvp8umzGTIZs5jymItZqljr2drYuzi6OLu5eri7ea7zNvPV858UyBOMFdotrC3CJwpEn4q1iuftcpTgkXgr2SyVKm0mwyQzLVsvFyuvpUCmcF/xpFKgsrzyqkq3aqaamTqd+qRGtWawlqzWuvaATqHuHj0xvRX9mwYFhm5GwkafjbtNck0dzXjN3pm3WKRamlsxWU1b19tE26rZwXZ37YscXB15HOedLjvHuqi5wq6DbgW77fYw7XniXu6xx5PT87nXSe89Phw+k76lfo7+9P73AvICDYIAOl/iQmRCFkNrw7zDOcIfRRRHWkYRom6QkqLlohdjzsa6xzHH3Ys/mKCVsJrYmBSUzJP8JOXoXvt9rPvm9relHk1LTPc/sDvDJdMty+9gbHZmTknuubyWQwOHH+bPFXwtRIroi/mOSh9TLdE7blpqc8KlzLs8omL/yeLKi1VDpz5WC9Yknhk9J1y77/zEBYn6jItPL8s0ZDe+aFK8mnftZYtc68G2Zx1y13M7Z7rVe0p7v/XZ32zuFx44c0disH8o5C+BkcXR2+NXHtRNND6+Mfn8OXgpPV37Kms+923rB+pP2cssq83rTlvx3/kdbqvgFAE4OwuA42kAbNwAqBUHQLAcACIDANZUANirAFi3AEBPTgDI6PKf84MKCKMZtD84iGaOg+AdRIRkIAcoCToJdUJPoXU0v9OCveEs+AJ8D/6KsCM6SCByBGlHZjAUGAWMJ5qRtWFeYemwWthw7GnsQxw5TgeXgGvCLeJF8AH4WvwCQZIQS+ghoyBzJbtIDpE7kzdRECnCKcYplSlPURGoSFQviKbEdmoR6jIaKpo0mhXaCDRf8aF7Se9NP88QxvCNMY2JyHSSWYr5JosbyzJrIZsM2332eA5OjlHOg1y63ID7Bk8mrwUfK98b/usChYLBQobCgiKUIsuiM2Lj4rd2dUhclWyUapBukmmT7ZUbkn+h8EkJo8yowq8qoSajLq0hpsmjRacNa3/Uearbo1etn20QYehspGssZcJlSm2GmK2aL1m8tZyzmrGetnll+87ui/2GI5kTs7Owi4qrhZvP7uQ9x9wb0XPsvTfRR87XxW+/f01Af+Bs0EYIXShvmFi4ZIREpGgUH4kpmiz6R8xCHFu8RUJGYk/SzxSDvcX73qVapF0/IJ/RnmVycDbnYB7vocv52gVThYXFzsc0jpuciC/vr2Q/RayGa76f/Vz7oW6xfvHSx4blKxvXCC3sbVId+p0u3UG9cX37bqUO7L0Tdzd02HMkb7Rt/O1D3kd7nlQ9ff1CZipt5uGc+Hz2wvyi0YcLn2i+JC+/X/X/Mb8Rub1/UANJYANiQRnoAa8gCkgWcoMy0Ix/CPqIZveqsCecDTfCTxAEzdldkEzkCvISQ4XuKiGYcsxfaP4tg/XFVqBxp8aZ43Jwd/DkeAt8EX6SIEggEfrImMhCyQbI+cnTyecoTCk6KMUpq6gYqQ4RccR0akCdRoPQZNMSaY/T8dE10GvTP2QIY8QxVjPpMM0wZ7FIsEywprFJs02xF3MYc2I4+7gOcBvyUPJM8FbzRfMbCnAJrApOCLUKnxI5Llooli+ev6tIokzynFSz9B2ZF7Ir8owKqoo+SvnKXSof1QTVPTTKNZ9qc+n46jborRkYGOYZDZlgTZXMvM2zLM5Z3rCatF6yxdgx2Ys5aDu6OEU7F7hcdh1x+7SHyV3Dw9+z0Kvb+4Mvv5+zf0HAQOBGsHxIUGhl2FgEHCkb5UnKj74e8yaOOl4pwTMxL6kteX4v8z6T/XtTm9LeHuDP2JNZlvU4mznHJbcy79VhifyEgoFClqKI4uFj0iXlpcQTOeWUFccqhatunw6qoTzTdM71PKausd7jEs3lm40JTVJX3zTXtga1S3R87uzoTu8172O+OdvfeDtl0HSIdXh0xOHe7FjSfa4HIxN5j+0mhZ5Bz2deDkzXzxbMkebtFtjfVi0Kv7/yUXNp5LPHl4/LqSvUqyd+cK1VbbD9LNiOPzPQAZGgCtwDm2js/aETUD/0BeaDbeEMuBVeRHgRZ3S9D2IQjCYmCdOKWcYqYOOwXTgszgpXjnuLV8Mfwb8h6BPOkBHIIsmekZuT91IooZHWpRymcqF6S9xHzUjdSGNF84m2hE6TboH+JIMdIxXjXaYcZnMWOpZJ1rNsJHYdDnqOd5wDXGe4s3hCeO35dPhlBYQFuYXYhdlEeETFxVTEzXZ5SaRIlkl1Sb+SJcqpy5MULit+VFZQSVMdVxfRyNB8rW2u06onrn/GkNeoxkTUtNlc3+KxVaQNpW2jvRu6Xrtc4tzkd6+693oe9nb3VfSnDHgSVBZiEroQnhixHhVDmouxjr0aT5tASnyQrJpyeh/F/oTU+XTnA8OZulkd2fI5LXkahwbzXQreFe4rpj1aXSJ1vP2EZllPhfrJlirsKfPTx6pfnhE7G3+u/zxjnf+FjovES76XOxsZr0Q2DV0TQTOf92027a3XuTqzuj70OPXe6BO/eezW5kDw7QeD2nfrh5n+ih65O8o+Fjh+8f7bh/wTTo/SH59/cndy7un6c5oX3C/FpxSmVWc0Z7Vfac9pvladV3ojsyD2lu8d8d3CYvv7+A8KHxY/nl1y+UT+qfOz/xeaL21fdy+D5epvut9mVvavcqy2f3f4vvTj0JrwWt+6+/rqRvFPqZ+Dm75b8Y/2l5PdPj4gSl0AsC82N78IoUlFEQAbhZuba9Wbmxs1aLLxDIDe0J3/drbPGhoAKmr+038s/wXZWc58Q/jF5gAAAZtpVFh0WE1MOmNvbS5hZG9iZS54bXAAAAAAADx4OnhtcG1ldGEgeG1sbnM6eD0iYWRvYmU6bnM6bWV0YS8iIHg6eG1wdGs9IlhNUCBDb3JlIDUuNC4wIj4KICAgPHJkZjpSREYgeG1sbnM6cmRmPSJodHRwOi8vd3d3LnczLm9yZy8xOTk5LzAyLzIyLXJkZi1zeW50YXgtbnMjIj4KICAgICAgPHJkZjpEZXNjcmlwdGlvbiByZGY6YWJvdXQ9IiIKICAgICAgICAgICAgeG1sbnM6ZXhpZj0iaHR0cDovL25zLmFkb2JlLmNvbS9leGlmLzEuMC8iPgogICAgICAgICA8ZXhpZjpQaXhlbFhEaW1lbnNpb24+NzI8L2V4aWY6UGl4ZWxYRGltZW5zaW9uPgogICAgICAgICA8ZXhpZjpQaXhlbFlEaW1lbnNpb24+NzI8L2V4aWY6UGl4ZWxZRGltZW5zaW9uPgogICAgICA8L3JkZjpEZXNjcmlwdGlvbj4KICAgPC9yZGY6UkRGPgo8L3g6eG1wbWV0YT4KLqSt0wAADWhJREFUeAHtnEuMHEcZx/89PT2zs7Nv27vr2Al52FFQLMCQBJRccogSKQgR8ZAiIYRAICHlgJDggjggEYS4cAKEBOIQoXABRYiIADKPJIBwCJZIHCex43jtZP3Krvc9O6/u5v//pmvcXnvZZLZnNAd/cm1VV1V31/frr9419mIKrsumBHKbplxPMALXAW1hCNcBbQEov0X6tpOjRh3h4izi6gK8+hLCtXmguQ5EDT7bA/wivEIZXmmc/hBQGEauPAm/PLrtd2fxAK8bjXQURai88U9g5hDy66eBxjwGAgIZ8IEcocjxn0nEPkLdRBgxX4R6M484P4p6RFBTd8G76T4M3nBHkrn3XuaAapfOY/6Z72EiPIqB6TJQKtBKWJM9OYFJXFvXBJB1pgrLCVYIVBpYPEsLvPWz2HH/V1r3tu/rTSDzKjb/7M+w2zsGb+8ILYZw8nyFH9Bq6Hu0IIEy85EJCVYCRfrGhCI4cZP30eKCOsYKPqozT+LSv3dg4p5PK1dPJVNAjVoV/vJxeFMlwiGUQIAGrJ3hRUsxWRA29A2KMiEs1TeBylUJjwmxh4HdZSy9+jSaH/w48kU+r4eSKaBo+R0UwgWgyMfm1N7IEZJHB4bbDU9S3UzRNp1EbUEiIFVLgYroCDtfP4vGyjwB7Uny9cbb8Cm399LGykXk4hVCodL6+gJkVUqvSUBcVc02vlP36rsJsqomn0FY+XwIz3q+jfm7e50toNUFFApUzKrRtQouSAmodrKLc75L0LUAX46PQlpTjyVTQFGtwmqRbnSTNsX6caeZ4jaKIEhcmrtPDXYrrE4tVkPfY8n0jWFtnU0GFXKQIvZGqhY5fgePyqpxjhXWd5ETGAeDQSdqe5DcqzaI46owP4l8ecLl6JmfKSCNhGvrDZQ54EOQqg65OhUiDAdG7ZDaFzXe1oA7WIKYuJj3hOzJmgRVa6Li78HU0HDPwLgXZQoIxWEsLdYxvtZgO0ulfSpbowXJUNQr+Xydun5OL1oWJDBpUUaBVK9HsdKtYG12GcFtD7Tievw3U0C5wXHMvUNAF9ZQWK4hKOURjHFMNDzIORb9PJ3r8mVFRk4ay2okAiRJIPmytBjF6Qqmx5ZbST3+u/ETbuv1w3v3YdW7AcdfmkOlGsKfYpWY4Ii6xIlnQOcJEK3HQbKxkUA5p+IonPiequEg8kNl+LNPovHa77ZVvk5uzhRQoVRCY89daLI67TywC7kSYeQ5H8txlk5F4WkUrBG1g6DX/z9HAxfU/Bi88RJyp36O5sk/d6Jnx/dkPlldnj2F+PmvYfQWwggIJ6AFSUk31Xi3RbXaxj/WzbMKRovA+hzCuSrC2x9DYf+D7/ZJ28qXaRukkgRz/2GNYg/GOZRNUM1alKLu3LTWxbXligFmktcNFHOsooU6/HE++/UfoV5fQeGOR2iMssbuSaZVrMnJau34M8BgMkWwhjhd+GuMea5IVrqTdJiwNP0IxjjPG4Q/ESCY+QUqzz6OqLrqbuiKnymg2uxRFGqnW19VX9a+vuuh5DtAaX+DXlalXFwakuLY/edZZQOuQrJ3HAxfRPXwT1zmrviZAlo//hcMjlEJGzk705eSguOc9NiouOK2ElkRn5lTo832TetMgwX47/wVjbNHt7q54/TMAIX1GuL541yaUM+j9iMFoW0VitMIW37a8TIt7fyKdPmSDKpqWkLRR+BMv8jqFr75x/TdmYYzA9TkWo1XeZuFJhwVXoppTqUVQhc2ZVV+Z01OeecrLZErILlIgdcHICBNW/QhtHow9yKiNa5DdUEyA1RfnoPvcf4kQBIpaEpK+TQkWZAkDUXhrSSVR1bkAPFjBLklNOdovV2QzAA1V+cJiCCseiUlNesRHEFxkOjbbF15HDyFJSkIdrnh2vLoT1JsfQCC8odYzc4faadmGcgMUFhZRKmYNMxt6xEM51KQBEsL8yaC4FwStaknILJQOrNOBVXNfASrx/lITowzlswAeQThapeV0UEyaxEAtUdpSIwyC1PuNCCFU+JApKLaQZfGxtpvvIlw9nA7KatAZoBalpIqllmOgFBhsxZajVmOfAcqiWsD2gAn9birgvYBZIm8h1bkDfmIXv8V4jp3bTOUzADF/IqR7ZKmlGxDkiLOguSnwFzTijbR0EFJ+gG496maca0piE4jPHVok5s7i84MkJZFYxXYFdqU4bUAaOlVVmTOWZX8dFgKCG4KnqIkelZbEti61nY132u3sTfzRgYQn3qK5wC4s5KRZAeIo9tanQqnAanwti4tOFKEztoiXlvVEyDFKS2Jc9emNZOuEmc+TGjyPkFSXkXLiorzaJz8/VV3dRqRGaDcwCgXyaikA+RKZF9Y4ARJ6Ykfs8exasfrtiUpLJHFOHgW0YqyIIusdSWfU44G8wuS3iHR2IhnAbwzTyPWKZIMJDNAfnmMJzPYzavAqhIGhr4LmzU5pRUvpZJrC+ta8QlAsyRety1JYYnyMQ9hRDXer/0g+yiM1gheVjS4ipAnS7KQ7AANDKNWjdmLsMDa+pEYHIYNFhXTFo42/8yK6LfbJKY5MLIsyLo4Km9D0sM2CJ/dWE8sSNXMIDOPDkpwq9o7+ye2Rdtfx84MUHFkAlWMobFK5WT6VmjCUcGdFZmfANJ+WUgIEZ1g2BiJ98k6rCoKkq6d5ThAAtuC2+C6d2TtnuArH502FwnJ97n6+Nbz7qaO/cwABUMjiIbeh+U5bh6uUOE6lZMzWIKSKOGsSpYUMt0gCUYtgcWwQeO1AeJ9ZklOR0FnGvfLKvwYZkXah7PnK6+6fE5my0XEM2ysG9sbF2UGSMUf//DDeOPEIi6dXUXzEgu2SkXkqlS66YAIlnNUSJCaUphOG4UOWJNhELS1U3q6RHB4b8xn5yewth6gxkNWsT5E2mJz3CyQFTVm0Dj339atHf7NFNANH3sIuPVBnHhpHqdfmceFEwuYO7mEKvfJDBR3SFs9j6DQaVNRvkFSWE6wCIZnGw2WVb3EMgwQ89DCYq55r1Y8rCzWeOSRz1AVa3cEpEFAuZEiojN/6xBN6zZW2OzE5yrfwa8+jmO/3oNTRw6huMbDT9zTCs6cwE23jKA8MYAC16u9gN+Fo9+YPZCnBTY7T8Q4d2xGysoiuEhv1Ux7aa4tUiNuVTNGLSxjYX4eIztK3HajZRV4j6zTGnw+g+9oXniFB9WqXGPTltN7l0wB6fXF8hAOfuGbCD/3dbMIj1vNR5/4Pl7++5PYtTPA8FgRRe64alxXp0UNEdrQBPe8OCO37WrCs3ad1pAbJIwrGmoCsCoW8eReHv70Acwdfo3PHOBSbxG+YPu0JuiUCfNyyFG9dBEFWmPfABIkiazJ1o0Z/sAXv42Ldz+Ic/96BmdmX0e0sISBnVMY3rsfMy88henRVVoadyoCH8OjBTQ4xgmGA5TGBUQKO1EbxGu2Z+HaGm5+6DEceu4PKL29QkgFTLjlXp9WpE5gcR2VcATjOg/QoWRuQZuVY/LAPZDTEeGwXudROu5MsAosfPQTeOvZ3+DcDKuCH2Ny9wHsuvMehMd+mlQXWRFB2QyDvqoaq9/6wirG778dH/ryd/DCDx9DwMMSnNNjaEeDzQ8HkWy8Ly6UMfmp73ZsPdKlZ4D0MkmOo93cwOX2YHzfAcgJnMZLOW4XNdf55V/9JQGxJ9OwQCdhneiaomaqwY2C/Q98km36Oo498QNU1i5gcmrQ0vJ7D+LGz3wLxal97s6O/J4D2qyUAuckJ+vStrW6c4lBsoBduj/cN7fg+x9+FHsO3otzhw+hvjKH6QMfwcSd923Lctw7+gaQK5B8wYq1MG8AnPVYHWMqr/nP9z1a22WoI7tvwsgjX0o/JpPw5Tdk8rjsHuLJosTG+LiAg8RaV+AOq0bMXZa+BWSDPil/mQkvjBa9mONrJmglscvSt4ASFCn1nRWlonoQ7FtAyPPA1UYxavxzNb2NOTO77ltAOf6GzBrpK2BcvvA5Lel+BWOHkRnqjB8U2ZxK1pIMDl2LrZ6Ng6Cowr14LYt0WfoWkJ1tNIPRH0FyoBIigc48dn+U0reAvAIBaLgsaVuRRtsCReERmLjLx+/sNfayfvyjI8CqTgYksSAHivHag0vPQLqlQt9akF/ieURZkOZoql4GR2s9uuQ4SPB6IH0LyGpX+4cxgiQ4iUWZBWn23n3pW0D6WUNr+0hQBEdWxLUg+bbayFP8+u1Hl6VvAcVqg+xHYiRgi2aCk1gRvWbE9B5I3wLSKf31NUJRG2T7+xzzmM9rrig2ueTaC+lbQB73+ut1Fq+9f6YtIQJjuxRyF8MvcTbfA+lbQP7QTv6OjrsZtpXNOqVtIG0LcQ9seYE/tdpxcw/w9PFUIxjdiZUKD2Vx34vnaghGcLhJyN+hXTjP3+dP3NoTQL2pyB2oolXFSn4v5s8cwSi3b/L8fz9CnuZYOreG5WgSt03f0sFT3/stfQtIquy671G8/ON/YPeFCgYG86iy7Zk938Btn/8Gj7jwN2g9kMx/L5Z1mS+dPIYzz/0Wq+dPo7RjN26892FuH92d9Ws2fV7fA9q05D1K6NterEf6b/ma64C2QHQd0BaA/gcZLOYdMb8vCAAAAABJRU5ErkJggg=='
p13
sS'twit'
p14
S'data:image/png;base64,iVBORw0KGgoAAAANSUhEUgAAAEgAAABICAMAAABiM0N1AAAANlBMVEUAAADZnoLZnoLZnoLZnoLZnoLZnoLZnoLZnoLZnoLZnoLZnoLZnoLZnoLZnoLZnoLZnoLZnoI7WtDNAAAAEXRSTlMAIGCfv+/Pr4BAAHDfUBAwj88Mvw0AAAFaSURBVHhe7dbbigMhDIDhehzNeGje/2WX2VJsxWhcvVrmv5YPRDE+6IRU2uCVPZyHQQ9oJ86AXxnl/wAJhY1snISSQyKdZ6AckO7kQxK7qcSEFA6yiYBIh5YY0ImMjjHkkZUbQckgLz+AFDILfcgjO9eFNB8yqQNlnOjsQGoGCh3I4EyZhDxO5UjIzUGahDTORUJhEhIUhJP5XdC5C3quQdaWY1uCfLlua9DHurwLOndBahcUdkEomlCah+Qu6Ni1NdOGDiYUihSbUGRCukBq4fH/+h6YNgTPC9BhAGUsRWr2R5dBDSCwBToIiDEnqy+doKGy0BLQ57m5HgTxd6UTFCQLFCqoLnsv2pOunlypB9UXwsgKSmVzngVBtIioBFQQZFNuUoH65QusIcj65Ug+BDX0ppxzMsEaVPq/0A3d0A3d0A2Zt2MWIfWG1CKU7MsxaRGCpC5HCyD7AdzB/7CDVCjeAAAAAElFTkSuQmCC'
p15
sS'gmail'
p16
S'data:image/png;base64,R0lGODlhDwAPAKIGAH//Vf//qqpfACpfANS/qqqfVf///wAAACH5BAEAAAYALAAAAAAPAA8AAANHaGoSHgKsJQp5gUSp6sXQAHDCB2qjAZQgFI6rizXoKNyaBtEbMNzA0G0gghF/LyJsGRMUmcuGc6liSp8K6BW20Co5E6ZokgAAOw=='
p17
sS'related_to'
p18
(lp19
V\u270c\ufe0f Victory Hand
p20
aV\U0001f446 White Up Pointing Backhand Index
p21
aV\U0001f449 White Right Pointing Backhand Index
p22
aV\U0001f448 White Left Pointing Backhand Index
p23
asS'name'
p24
Vwhite down pointing backhand index
p25
sS'known_as'
p26
(lp27
V\U0001f447 Pointing Down Emoji
p28
asS'default'
p29
Vemoji
p30
sS'bw'
p31
S'data:image/png;base64,iVBORw0KGgoAAAANSUhEUgAAAJAAAACQCAYAAADnRuK4AAAH20lEQVR42u2dL1QVWxSHbyAYCAQDwWAwEAwGA8FAMBgIBgLBYCAQDAaDgbUIBgPBYCAQCAQCgUAgEAwEAoFAIBgMhhsMBoPBMK4faw1r2OxzZ+7lzp9z5vvWmvAebzH33fmYs88+++wzyADuwYCvABAIEAgQCBAIAIEAgQCBAIEAEAgQCBAIEAgAgQCBAIEAgQCSE+j4+Dh7/vx59vjx42x3d5eni0DV+P37d/bs2bNsMBjcXBKpKYbDYfbjx4/sz58/CBQjb968uSWPrrm5uezfv3+1i6t7z8zMXN/z0aNH2cXFBQLFxtLS0h2BdP38+bPx+66trSFQbCwvL7sCHR0d1XpfxVr2nisrKwgUG+/fv3cF2traqvW+GrJ4AyWAZlyeQK9fv671vnnsU7w+ffqEQLFxeXnpCqQ3RK1fnnPPnZ0dBIoR722gq86ptXe/vuWfkhHI5oHy6+zsrFGBDg8PEShGvFxQ3UOKd79v374hUIx8/vzZfaAfPnxAIASafCamHBECIdDEAilb3KRAdcZcCNQDgbSoikAINLFA5+fnCIRAkwuk5GWf3kIINGWBdGmR9fv37wiUgkAvX75sXCBds7Oz1xWSCBS5QEowtiGQrgcPHmSnp6cIFANfv35tvKSjTKC8MjLlwDoZgUJFZScnJ40IFFrM1TU/P59dXV0hUFdRUbuGi6bzMsX7fPz4Mdve3r6OfUJvohQD6yQE0jDlPTSt0Nf65RXulRfTK+YJSZTi7Cx6gbTzwist1bW5udmIQC9evLj177WcEZJIn1VvTATqCCqcD82A6n5Qi4uL1/dSAG9R4BySSG/GX79+IVAX0AZC7yG9evWq9ntr2NIbRfvDPBTAh2IzvbX+/v2LQG2ieCM086l7S09OSJ4cJRNDMzQlOWOXKGqBQhsKFxYWat+VOg4qcw29ifSmjFmiaAVS4Vbbb59xODg4CEq0urraKeF7IZC+9FCA2tWHsbe3FxzOvnz5gkBNoT3voQdRZ+Z5GmjNzvvsdS76IpBBGV9PHk2rY8Bb+NWUH4EaIrQHTHFGNF88ArWDkoOh+puYZjPeMgcCNYAyvE1v32lCoFiG3+gFUk7FE8hbTohJoFj7CkUnkNqnpLAfy37+t2/fIlATeHvgY4t/EKglJImq+1LIoSBQC4QWT7uaxVXAH0otIFALqHwiluxzcaFXJSe2/geBWkBLGDF0xFAJR1l1JAK1FAPFIJCG1LJGVwjUkeCziwK9e/fuzmfUSjwCdQCvpqZrAnl71GychkAt4XWH75pAVT4jArVEvhOiqxWIaivsDbN2ZyoCtYRmM1U6sar5uBpsqnKxyTKPUNNzu0MWgTo0RVaH1iLaKaGtxMV9600dwxRa7LVltgjUEpLDloRqX3oRvXHa6iDvVRsq8C+bTSJQi3GQ/fK9ntFtCmSLxZSVTuWQligFUmwzqpjMW7FvqtFTFYG8LUld3wyQlEB2UdV24Xjy5Elr5R5VBNKQa3sLle1wRaApYyXZ398PDg9euYcetGZ0WnaY5j6yMoF0L+2cbXofPwIZbEs7PSQNDV7Jh40vNjY2bv1cJx42JZC3TtbFnbTJC6S/ZP3l2ofx8OHDkQG0hrLiFH/arYA9gfSZJLE+r235EvsZq1E3V5AMXmZ6lEBeAFu3QKFLQ2vsZ81H3x9IwadiGa/U1RPIDl/TzsF4Q1RoG1Ls8iQhUHFIUxZYpRQ20Vg8M0x/9fZhaqv0tPCWWtSESp9LP9Oyi+K0WLtxJCtQESuJMsGqZhReT6GyHIxmdgq0q5x+qGO/7e9PuWN9kgLpQXtvAYniCVRWDlIUsqxtsI4at78/5XMzkhRIw0Ood+K4BWk2ZioTyOZ46j45GoFqQvU3oS6pVQWyfYiq7F+3aQT9c8oMUv6f09ChPMuoYwi8euUcZbfHWfDUm8/+br0JEShyFMSOyhfpLZEH2aOGr7KMsYY3+7sVEyFQIuiNomywFwdpuJMwqigMzebKTt3xllE0fUegxFB1orfkkV9aqNWKuV3yKAuGNRSWVUsiUCLoTRM6YyN0leG1ngnFVwiUAIp7vAXZSQVaX1/v3SnOvRaoOPSoilFJRg1foTdTGZ6MqRyqgkATSDWuQDaJ6BXTI1BP8Mo+yrCJS73NEKin2CRiFYG8I50QqKcog31fgWI9vgCBOiJQnWfWI1DHUZXifQWKdbcpAk0Bu3mxypQcgeAGrzS1rBYIgeAG70ipsspC+99rcRaBeoq3PafsOIWmz61HoA7j9SEqq51GILhBbxsrRL7/vqpAsZ0ghEBTxGtqXlbb01ZPIgTq6pczZmIQgeAWtmqxbGli3CEPgRLn6dOndzYnjtqS3PX+1QjUMF6B2KgKQwSCW3i5oK2tLQRCoGpoF4bdmTGqIVRbjT0RqMPYsg6VrVad9qfcVAGBKmIXVVXn7AXSXuKxbPEVgXqA1/XeG5q8ElgEAvfwFNvYXHibCmM7ihyBasJrzGCPb/Km/H0AgSqgqbu342I4HN7EP7aFjO1Oj0A9xh4flV/qDKvCM8lkfzbN5uUIlOhbKHRJttS3NCPQBHgdWL0r9ZYuCHQPlBca1TJPsU/KTTURaEpTey/uUXePPmSfEQgQCBAIEAgQCACBAIEAgQCBABAIEAgQCBAIAIEAgQCBAIEAEAgQCBAIEAgAgQCBAIEAgaCn/AcmaYf8ewVCNQAAAABJRU5ErkJggg=='
p32
sS'version'
p33
VV6.0\u02b2\u02b7
p34
sS'uni'
p35
V\U0001f447
p36
sS'desc'
p37
V\U0001f447 Index finger pointing downward. This emoji is recommended to be displayed with a nonhuman skin tone by default, unless a skin tone modifier is applied. 
p38
sS'browser'
p39
V\U0001f447
p40
sS'annotations'
p41
(lp42
Vbackhand
p43
aVbody
p44
aVdown
p45
aVfinger
p46
aVhand
p47
aVindex
p48
aVperson
p49
aVpoint
p50
asS'wind'
p51
S'data:image/png;base64,iVBORw0KGgoAAAANSUhEUgAAAEgAAABICAYAAABV7bNHAAAAAXNSR0IArs4c6QAAAARnQU1BAACxjwv8YQUAAALhSURBVHhe7Zo9bxNBEIb98QPgB6SDIEHt9IBIkwIaCh8GSiSqpDAlRRqEhAUCCQlEl8jYLQ0pSEEVIcUtokAUCAoQFRLt2bxz98Yyjn3n4Nm9D80jrWZ3LUfyk9m53burGIZhGIZhGIZhGEbeqDJ6o9frbbIbUa1WPzabzX0Oc4dzQd1ud7Ver99B9yJaI5o8zne0D2gv8ybLqaB+v78zGo2uIktOcWoR9tAe50WUE0EQcwXhGdr5aOKEQOpvhF4QBHfjmexQFwQ5LfzA5yfMmnkMwjC80Wq1PnPsnRqjCspyhEatVjuUv8uxd9QyiMX4Dbr/taySkCUH6a9Ql+5xyhtqGQQ59xHU5QjMyDYy6VE84w+VDGJRfhePnNPxmUlaGXSb0QdeM0lL0CVGX3iTtLQgXmFW4pFX2tPHFhdoZNBZxizY5j/IGRqCzjB6h1e3h7LFiGf00apBWbKCLcZr9tUpgyChgaW2w74qZREk3HJRtMskSGpSW7selUoQkHr0gH0ViijoPdqnuDuT66hHcvRRoYiCvuEsdgFxNx4eJwzDr+wuTWGXGCTJ+W8dbY93II/oaN5gK3QNkvvWaBtBEJzG8CYy55z2Sb80RRpiui5uzboUJI9ykoppEst8VxVnglAXOkj5axzOYjBVO8bge5eREVKIRVSmOF1iCSk/gIA1uc/M8T9MfO8HY2ZkWoOQQZlnSBqlKdKuMEEpaAj6yThGii/2Jk85LDRLC+LGTF44iBA5KL5POCw8KksMkjYQ1iFnazgcrmG8HX8ylz+MuUetBkHKviyrGZf2AeMkciKfyby9UVY4L9LydgZCJIk/Xp6MRhmGbHs7LQTL84DdXOD0BapF4GObLYhaFTkQunmUhfjsEGH6rbRdCPb2JDdzQUnkQZDzJVZ0TFAKJigFE5SCCUrBBKVgglLIu6BfjJN8YfRCrgXJrhphfExBe7HAQdgwDMMwDMMwDMMwykyl8hcItfqHmtMQMgAAAABJRU5ErkJggg=='
p52
sS'andr'
p53
S'data:image/png;base64,iVBORw0KGgoAAAANSUhEUgAAAEgAAABECAMAAAAV8YMOAAAABGdBTUEAALGPC/xhBQAAAAFzUkdCAK7OHOkAAAMAUExURUxpcddZi994oddZi9dXitdZi/77/NdZi9dZi9dZi9dZi9dZi9dZi/79/fz099dZi9hcjddZi/77/NdYitdZi9dZi9dZi9dZi9dZi9dZi9lgkNZXiddZi+KHq9dZi+usxddZi9dZi9dZi/rp8NdZi9dZi9dZi/32+ddZi/DA0+WUtNdZi9dZi9dZi9dZi9dZi9dZi9dajPvu8/75+91ynf/+/uedu9dZi9dZi9dZi9ljktdZi9dZi9dZi/zy9tdZi+idu9dZi9dZi9dZi9dZi9dZi9dZi+qmwe65ztxvmtdZi/rp79dZi9dZi9dZi9dZi9dZi9dZi9dZi9dZi9toltdZi9dZi/HG1/HE1vzz99hcjfjj7OSNr+eduvzx9uOLruOMr9dZi/TT4ddZi9xsmfff6eKGq9dZi/PO3ddZi/PN3Nhdjuurxfji69dZi/fd59dZi953oNdZi+66z+2yydpllNdZi+GCp9dZi9dZi/C/09dZi996otdZi9dZi9dZi+eaudhcjddZi9dZi+B+pddZi9dZi9dZi9dZi9dZi/TT4NdZi/rs8dtoluOJrfrq8d53oOWTs+GDqeqqw9xsmfz0+NdZi+qow/TT4Pvw9Ntpl+GDqP34+uOIrN95ouKFqtdZi/bZ5PHH2PLI2d94ofHH2NdZi+2zytdZi+64zu22zOmmwddZi9dZi+mjv+mlwOB9pNdZi/HE1tdZi9dZi/ji69dZi/LK2uKFqthbjf31+PLL2uCAp/nk7NljkvTS4NdZi994oe2yytdZi+mkwO20y+KHq9dbjO66z9lgkO20y+yvx9tql+aWtu22zN50ntdZi/PP3dxvmtdZi997o9dbjdljku22zPDC1e66z/LJ2fXW4+uqxOB8pOaWtuaWtuB9pNtmld93of///9dZi9dXitdYitZXiddYi////9ZWidlikdhej+yxyeieu9pllPXW4t97o/76+/76/NlgkNdajPnm7vno7+SQsu+90fHE1vXW49ZUiOecutxumfvw9EQ0HYcAAAD3dFJOUwAO8gT++f7D/vsB/fL//Ib94v3+A1ob1RTt/P7c8bnxM0z1/Sl3S/478vvQtAcWi6b9+/36/vu+V+j8gRKX/Rj5CW5xCO9p9/rzLP27UmaaI0hg5vvG9vn1/v7//fL88vId/DX7/fkK/j76+vr7rPyT+5D7+fl6+sAQ8V39642h+vvYxfqEyCc4IPzN/f39/fT++/j2+379/vr59vzx8/PS+vP5+/t08p3y8vtGh/rx+0D6pTH8Y/75+vz58/v99qf1+3L5+vz+8v718/r9+vyu/PrZ+fr5+/Px9fT68vH49/3y//////////////////////////4dJCbfAAAEwUlEQVRYw72Xd1gTdxjHL4XESwhIGsIKUAgkUDZCQESUglDLEKiIWJRRrWidVatttS4cFWe1Vq3W7r2HHXS3dNC993qee++ShyGUVlvtfH8XiChJbsDT7x/cPU+4z/O7d3zf9yhqiCqzRnlW86sKSowuVYOAwoL/Z5ByhEBRWiFQ0HhRoLjrhUDXiAt2YBD/3xw7VBzH/xQhDhRQpNNimKrOc+hoeEN9fUP9D3ib8c/OEwS0zEsUiPIqtqQC+1OdH6/WI+moI61+fvsn/PttqB0S34ihROtmYBvSmaH67ktOaaEkKAfYo2POJ1L1EanwztfKMDVfQMgNUkBmgK6fw4kO/0J0W3j4rT/O+r77cz2EbZUCMtAArO1skaRh1rZcKwUU2V9LHP80Xwn2/iJap5ECmmTejvXNVR3o7j51+vSpbtRMhNBTN26vpCQpoDgMwLZrUObexbel1wYma6SBvFaiB9BvDsr8s5fhkUoVlETOlBCM9lUlg0CLqjDS2ig5nDlXDq7FvngWj5Q4XgpHY0CO95rLrWdVdcs4PJL6kSYJIIsOQP/cS+e0h+qhNDySaZn4MEWij+jnRg9ptAnxNBaTet1EkZyJEfheq6JdtGxdpj++Hf2UOKf1ylEDl7GEcaXYhaEkTqOTRDntVLCHPsm4lmoyiXiImCJoSsUAxaczbklobRAhogieKMQWW8K4lepRbBVTmXCEltLArle5BzE77sbCLBd07UZMfWgL40kr8EgJgiVgqQZ21QyPoCuutkOhoN9upsG7zSOHqXucBaVBgJP0MZr1dHeIGbW++Nf3jw6gVwqAkqeBveeYO9BXGSfJJc8IkCvgbxWfAXfTGDec9JldveT6mB7tRKB1Y3TAXeIOVLfnt4Pk+iC6QEKgZ9C2IDzRDoaxugLtvsX/a3K9pwu7pNgzKHgaQPsnTMuHfS5AtT1p3/D5HwegHCswPMpxCO2d/tHeX12AejuN+3hf2sQCvVQjYl3b4D2LcQnquJE0j7XNGyBLYOA2pZAN0jXoYCf7KT9X7sIgBW0TqCRFQUI12DbFMkzJe+e4do0/vL2c3MxrB9AJLkmaxhQf6JqsSl+vfMcBGEjhdf6OUdeXiZZ0e6MI80ePfDn+g1DjxfzzJw8scoKAnltzZ2a7yD0yKRfAbrOB7a1Y8vw+44ozINBvWKAn60SOmB2gotSxwfDWXbLmr+PWM6B+6SJFTZKtqVofNQ6T919/5YVdtCPp/a/m4GgLAsTNNsX81WVmE3D0guc5YA+38qD71EAnpmbTPtkRhklSlq2U/o8S9sX9POgCH4DNF0VGWWZLXG4U5jD+Q4nbc8gJGk3JkSZmdVECOI1FPoho8UiBcslOGj0CoBQE9fzOg9qMwwGZaSfoeMdwQPfSOFdqB0B0jmxQvg/YO/8cAKnzZYMMagT1OkFFskFjnSDr3wiaIhv0MPZJF79w9+GoVpbJBs02Afhf6Bi0NqiulA3C2QtpDxDQodc40D4tG5S8BcCYR5ztGO5FugrZoID7sbTn3IHL40L8VB8VTMlPG0aby1g+L68TZ8faAPmg5CxiSXCCQ052HDUMxW0ccPzCAq/hgKj5WbznmpoNSdTw1Ji/uLm0/BmPs/U/Q/BjSZ2rEXsAAAAASUVORK5CYII='
p54
sb.