ccopy_reg
_reconstructor
p0
(cemoji
Emoji
p1
c__builtin__
object
p2
Ntp3
Rp4
(dp5
S'emojipedia_url'
p6
Vhttp://emojipedia.org/white-small-square/
p7
sS'index'
p8
V1261
p9
sS'code'
p10
VU+25AB
p11
sS'apple'
p12
S'data:image/png;base64,iVBORw0KGgoAAAANSUhEUgAAAEAAAABACAMAAACdt4HsAAAA4VBMVEUAAACNjY12dnZ4eHh5eXl7e3t+fn6BgYGDg4OGhoaIiIiJiYmKioqRkZGampqcnJyenp6fn5+goKCioqKkpKSlpaWoqKirq6uvr6+xsbGzs7O1tbW2tra4uLi6urq7u7u+vr7BwcHDw8PFxcXHx8fKysrLy8vMzMzS0tLV1dXX19fZ2dnb29vc3Nzd3d3e3t7f39/g39/g4ODh4eHi4uLj4+Pk5OTl5eXm5ubn5+fo6Ojp6enq6urr6+vs7Ozt7e3u7u7v7+/w8PDx8fHz8/P09PT19fX29vb39/f5+fn6+vpX8qWSAAAAAnRSTlMA/iyWEiMAAAGiSURBVFjD7ZWxbtxADETfUDEM5DrX+f8vc50iiBtHy3FBSaechBzTayBAgLAczcxyl3DhwoULBR0/3P6x/AM/fPl2WPP26h21WEsM6PUnzwhuL9+tpVz1clUba9x+P1WQ8w+FrKrWVmyc7+apAsCTJG35LF5s5cniI4GxTRiZzQI2OOkocI5Ag9XB6gFyZIPAzhndY1yKMWak3SBgxG4TNwbMDA0CMgc6I3B2FJB4KFzJs2dIk40QMw3pv9t82ZA8EsRJG4w04sGv8Jjd6QPwLE0SoXsuHmm700gGCc+SMkKAM20vJhohIrQ+WNhI1Z5WU0GEQpICVK1tj1LRUqCYREgKpCp3TgxnRwFCkkpCNZRsY0fqeIGdWVBMoSJZFABho1TPQsSiYG8BpGhZQKGoYq1nohQ4/ieDxUIlUAroZ7CFiLCQ606MbgaKRUZlsF7QXQuLfHEPEWELqWkhov4u1qvN0bewC7EsINupfojEem5VQ8nViXa07kTpfdsysY0210F/ThCfv7yNpP1oBKzPyIPjB7z4bIBt9PrDhQsXLpzjC3rL+IUtzEsnAAAAAElFTkSuQmCC'
p13
sS'twit'
p14
S'data:image/png;base64,iVBORw0KGgoAAAANSUhEUgAAAEgAAABIAgMAAAAog1vUAAAADFBMVEUAAADm5+jm5+jm5+iePCILAAAABHRSTlMAgP8AwYKAaAAAAClJREFUeAFjGBJgFLCtAoP5/0GAAUz+ggitHwlCo0Lf0BMAAgw+oVEhALCaOYN6lvCGAAAAAElFTkSuQmCC'
p15
sS'gmail'
p16
S'data:image/png;base64,R0lGODlhDwAPALMAAP9mAPqsAP9yAMwAAOY0AP/XAP+YAOpdAP/MAMYAAP9aANQXAOUrAOBPAP/iAMwHACH5BAAAAAAALAAAAAAPAA8AAARTEMlJZQnNls23wwtyGWRJBscziIbivi7AJGvRAngOCATNKrocz2cDBne92u04VBqDzd8RSVxCk4jPTsDtNi8HBmFMHi8GA8wjwW63VYPGGU2v0yMAOw=='
p17
sS'related_to'
p18
(lp19
sS'name'
p20
Vwhite small square
p21
sS'known_as'
p22
(lp23
sS'default'
p24
Vtext*
p25
sS'bw'
p26
S'data:image/png;base64,iVBORw0KGgoAAAANSUhEUgAAAJAAAACQCAYAAADnRuK4AAABaklEQVR42u3csQnAIBBA0RvMwlHcxAEcwtEcJYEUGSAKJuR9uFZQXiOIcUgThSMQQAJIAAkgCSABJIAEkASQABJAAkgCSAAJIAEkASSABJAAEkASQAJIAAkgCSABJIAEkASQABJAAkgCSAAJIAEkgCSABJAAEkASQAJIAAkgCSAB9LSc87bpvQP0+Q1GbJtaK0AAAQQQQAABBBBAAAEEEED3tNauq/bMpJQA+iugMcb0+qUUgAACCCCAAAIIIIAAAggggAACCCCAAAIIIIAAAggggAACCCCAAAIIIIAAAugFgDwoA2gKkCetAAEEEEAAAQQQQAABBBBAq/O9C0ACSABJAAkgASSAJIAEkAASQAJIAkgACSABJAEkgASQAJIAEkACSABJAAkgASSABJAEkAASQAJIAkgACSABJAEkgASQAJIAEkACSABJAAkgASSABJAEkAASQAJIAkgACSABJAEkgASQAJIA0oJOLXKyYfgOTNEAAAAASUVORK5CYII='
p27
sS'version'
p28
VV1.1\u02b2
p29
sS'uni'
p30
V\u25ab
p31
sS'desc'
p32
V\u25ab 
p33
sS'browser'
p34
V\u25ab\ufe0f
p35
sS'annotations'
p36
(lp37
Vgeometric
p38
aVsign
p39
aVsquare
p40
aVsymbol
p41
asS'wind'
p42
S'data:image/png;base64,iVBORw0KGgoAAAANSUhEUgAAAEgAAABICAYAAABV7bNHAAAAAXNSR0IArs4c6QAAAARnQU1BAACxjwv8YQUAAAChSURBVHhe7dWxDQIxEARAQ0HQDQVQByllUAAtkNECKRIRCVWAXzbBB8gmAFvyjLTaCz6y/nQBAAAAAAAAAABgVIvcLRxz19rFXNM4hueXWcX83TI3H7RcsemveNvH3NI4c8g9Wcdc0jiGmvWp+eanrFiBByrwQAUeqKCXK3aOeaRxZpN7MvQVq4kr1qOWK7bNXesUc08jAAAAAAAAAL0I4QV1xSqroRCIlgAAAABJRU5ErkJggg=='
p43
sS'andr'
p44
S'data:image/png;base64,iVBORw0KGgoAAAANSUhEUgAAAEgAAABECAMAAAAV8YMOAAAABGdBTUEAALGPC/xhBQAAAAFzUkdCAK7OHOkAAAASUExURUxpcUDA50DA50DA50DA50DA5/D1nK4AAAAFdFJOUwBwamwvjo3xKQAAADpJREFUWMPt1LkRACAMA0Ee03/LxE7BDMluAZdJrQEAn0RP4jg0VzKPQyOHhpCQ0JtQ2WjLbgQAuLQBI4MEPdYUOQwAAAAASUVORK5CYII='
p45
sb.