ccopy_reg
_reconstructor
p0
(cemoji
Emoji
p1
c__builtin__
object
p2
Ntp3
Rp4
(dp5
S'emojipedia_url'
p6
Vhttp://emojipedia.org/white-medium-small-square/
p7
sS'index'
p8
V1264
p9
sS'code'
p10
VU+25FD
p11
sS'apple'
p12
S'data:image/png;base64,iVBORw0KGgoAAAANSUhEUgAAAEAAAABACAIAAAAlC+aJAAAABnRSTlMAAAAAAABupgeRAAADOklEQVR4Ae2ZS47yQAyEJxPgLGy4HAfhZCCx5CaI8Mi0KOkTFLLUIh7YdP1SZLr/tKts9yvz0/BFNDQ0NDQ0dPbbsNlsvk5xvV7/xJjVDPF7x4d53+6Q/b6AcRz7vl8ul4vF4um12cwUmiF0Xcc4j8zMAJfLBXsYhsPhcL1eJwnA/Wq1KmwKv+4FImp2NI6U8DRIleztdsuLkwQoMCUeJeplXJFTpI2xbHsKMLafpkooGorH8/mcIKCMJa44FjMMGmmnFxh1/QezTYwgMZMEIMOGlu9SoMizrlCAAN3gp1OfIsBiI7vwFlG5oWY8PyYgriLmtElKEMCK5isJMyGunBoBjGbTICEDOGBESOtZSogwx4bzjma21Q+9aSUkAVTOI1EjHQtwMSaMlswSuj2AaglDDgIBlVMCjwkCLLlW8RjGmPZ6DTjCSJgDEQNjb7aJsbfq7akCNE3LWag2JIYJAphvOWeh0+lURkRJtAdH9QMqiwqnOSXE2bAIYP+qoRsKiFtY4mCfsw8op8fjsZzn5vN5cGaOWyqAlxKpcpJTCeXsA6pCkdZ5vZwTlQ2drquT4JOeeAtyJBdslGklxCUGVQUSgBJOFgh7BFus7S004gUZaXNA05fA2HoPA3JFWoy9GXYTYgvDac4yqpCUZxkRZ/iOrzXhhWbUv+DswFsQSDgLEX4jTUIEs221dcagmLenFninHaeNnIAAa7SnUaflCb+jJobmNE7TltH+DhdgwmIBleAVPCYso6AzBCzjLgAn761Xni/A8KrKqh/8uwDtLyz20K0UAPX6EuLGp48GTIn8DODMe+sCyYuWioBxtoD66qpco/NLCAck9M1lNIi6gdjzogZX1xcmcXzJdE7/noEC4/fGJOYZIdoBv5KBhI3MzrMJf+AQsgV4pZnHHAHRupYoIKqThO9CfH9+zYBdD2oFBMvRawYgkFNCUZgnbGR++rcXE0oIvLEKoVyVYMvoIyIBaZMYVAp4vXwig97P7QNcT3W0spuXONECbFuN7mJcgr0dpGxk+iK02+2ita+nWOnqvUUYrzdfJOLvP8MwSNskAQr8fr+H7geAJOV8agbCrzQNDQ0NDQ0NDX/t7kffhTdMEwAAAABJRU5ErkJggg=='
p13
sS'twit'
p14
S'data:image/png;base64,iVBORw0KGgoAAAANSUhEUgAAAEgAAABIBAMAAACnw650AAAAD1BMVEUAAADm5+jm5+jm5+jm5+hpSK+5AAAABXRSTlMAUN//AByXhmwAAABHSURBVHgBY4CDUTAKGJWNMYCRiAsEMEBpYWMswBBNkTI2RUZoioyxAuorGlU0qmhU0aiiUUWEi2hyCntH/NUGPjAyFI0qAgCU2ueifIMEWgAAAABJRU5ErkJggg=='
p15
sS'gmail'
p16
S'data:image/png;base64,R0lGODlhDwAPALMAAP9mANIMAMsAAP/NAP/AAP9rAP9hAMwBAP7JAP/MAOBQAOBOAP/HAP9bAP+/AP/OACH5BAAAAAAALAAAAAAPAA8AAARHMKVBq31IScK7Z8oxOI1hnicQCANhAHAcF2v7yjLNunhe8z2YzhYU/m7BITB5LAKUyN6Q8SxYr9dVJsDtegMHwSIsKJvP5QgAOw=='
p17
sS'related_to'
p18
(lp19
sS'name'
p20
Vwhite medium small square
p21
sS'known_as'
p22
(lp23
sS'default'
p24
Vemoji*
p25
sS'bw'
p26
S'data:image/png;base64,iVBORw0KGgoAAAANSUhEUgAAAJAAAACQCAYAAADnRuK4AAABfUlEQVR42u3dMQ3FIABFUSQxMjIiAAE4QRpSkEL3jv83oTTnJm8v5Mw0LOmPgisQQAJIAAkgCSABJIAEkASQABJAAkgCSAAJIAEkASSABJAAEkASQAJIAAkgCSABJIAEkASQABJAAkgCSAAJIAEkgCSABNAv9d6PHUBvOEAIxw4ggAACCCCAAAIIIIAAAuhbgFJKK+e8bTFGgE4GNOfc+m1jDIAAAggggAACCCCAAAIIIIAAAggggAACCCCAAAIIIIAAAggggAACCCCAAAIIIIAAAggggAACCCCAAAIIIIAAAggggAACCCCAAAIIIIAAAggggAACCCCAAALotlrraq1tWykFoJMBeeIOIIAAAggggAACCCCAAALo6fzuCSABJIAkgASQABJAEkACSAAJIAkgASSABJAEkAASQAJIAEkACSABJIAkgASQABJAEkACSAAJIAkgASSABJAEkAASQAJIAEkACSABJIAkgASQABJAEkACSAAJIAkgAaTNXewGcT5l8OYbAAAAAElFTkSuQmCC'
p27
sS'version'
p28
VV3.2\u02b2
p29
sS'uni'
p30
V\u25fd
p31
sS'desc'
p32
V\u25fd 
p33
sS'browser'
p34
V\u25fd\ufe0f
p35
sS'annotations'
p36
(lp37
Vgeometric
p38
aVsign
p39
aVsquare
p40
aVsymbol
p41
asS'wind'
p42
S'data:image/png;base64,iVBORw0KGgoAAAANSUhEUgAAAEgAAABICAYAAABV7bNHAAAAAXNSR0IArs4c6QAAAARnQU1BAACxjwv8YQUAAACjSURBVHhe7dgxCsJAEAXQ1c4TWFnaegUrr+ABPJi91xFyHt24W9jIBCJDCO/BZ4ZU4bNbJAUAAAAAAAAAgAXb9JnlUnNo6yz3PlfnUfP6Q9Js++SH7Cs2nqBrW8vQM8W+5tzWj+z3TvN9xW7jg4lONa7YEikooKCAggIKCigooKCAggIKCihoYXzNr42CAtm/DY41u7bO8uwTAAAAAAAAYqW8AakMLoKyWk6fAAAAAElFTkSuQmCC'
p43
sS'andr'
p44
S'data:image/png;base64,iVBORw0KGgoAAAANSUhEUgAAAEgAAABECAMAAAAV8YMOAAAABGdBTUEAALGPC/xhBQAAAAFzUkdCAK7OHOkAAAAYUExURUxpce1sMO1sMO1sMO1sMO1sMO1sMO1sMC99/PcAAAAHdFJOUwACua8Bs38e49OEAAAAQ0lEQVRYw+3VwQkAIAzF0Gpb3X9jJ/iHQhGFvAFyjRkA4HcxhCiG1hRWMZRbyGLIVcgJESJEiBChaztqG2TbsgEA7zmKLxERfmZHoQAAAABJRU5ErkJggg=='
p45
sb.