ccopy_reg
_reconstructor
p0
(cemoji
Emoji
p1
c__builtin__
object
p2
Ntp3
Rp4
(dp5
S'emojipedia_url'
p6
Vhttp://emojipedia.org/black-medium-small-square/
p7
sS'index'
p8
V1265
p9
sS'code'
p10
VU+25FE
p11
sS'apple'
p12
S'data:image/png;base64,iVBORw0KGgoAAAANSUhEUgAAAEAAAABACAYAAACqaXHeAAAELklEQVR4AezQTQqDIQwE0BH/PhGvoNfz2p7BhQqCpQcQUtpd522TgWRARERERH9KQe6EEOC9xzkH37jllVIQu+TXWhhjiH8zEHqeBzlnpJRgjBEd88n8Xqp8Z++N3jtaa5hz4qcFOOcQY0StFaUUvFlrobV+0WIGq6rEQBAVly506Z/7fW5FEV3oQlEeZ+BAUahP4aah6E4HJ6lKJzNxEgQ/n8/JKRB+ytmP4e2nD3s+nxKY/OPxAOTJ4Y3Jt5+AONvtdrbZbJjr3wvghBnscDhAhIEUARArxIQUBUviQgGAcQph3/1+x0tc8uSJ7fOZ2N8LwCCoTCVIGlJNmvLuHGYew2uS1VvqCkAbJNEUw99Q/uSHCqD6OTFiCROnxxQFmEtReIYCZCW0CMagt0kK9IvNfyGPKQCld7vdBHuOE1jQBvSZy7jbPNOcntO8n2EfYA608W4F5zqmAlSZwVlJV4JVZCvQl+X/asVtp89VN7ayshIy15XQ22eIABhKe7pLHnLG5Lv0FQPrGEvSHeOTeMd9UGIjBHBgyz/Jevq+JNvtFMF8kmxBsq+9MMe8jIcI4BYASaR9E30X285TvwVvYV4JYr+H4XABULpXWHQ781qK0YS1d1vhUzsEGHoI5oHWxL8CVhWg/xkhxthDMAe0VPNd/z8RsG6/EwD7UQC30NAKYADezVQAg7wlqyifRDBu4uFF5/pMcC7MjTmO/RLc7/fcARCh93S+1z8JoP+2ArrdcHGY27hPYR/sdXO9Xs8Wi4WDS8oJfbXyLUD6b0Qxd71eZ7vdjgoY/yXIpC+XyyTCcrmcrVYrhLDsLcsm/LMAepGm6BA/n8/A+8jYL8Hcbwx4PB5np9OJP0u4ISIEcd7/m6Tx274UOsybH3cDiLMIxB7EVt84AfrdmyXvhGhz9wf8dQb8zwBR/IT+9CUIICryEuSlR4FEizt0C4g2yThJBMm+JP6vXSvYrRgGYe3+/3N7715WWUOVI0ue8GHCUg7kRSsYCoF1exEid302QqvEMR1bq8A7AgiowrhEFWz/DjxrDFl7qwAWsI8EQBvKQI0QHq65qfMVEIYTY4mS+hn+XnsVwOqCT4CXA75cArAAJdd9y3jxHOx1T4RIGeQ1PeJ9IrfPA7AUHEJ0dGgCYq9Alfk8TxOmvPpaZFzGz8STIGSUocf761z5H+z5EZb8/MQJOCEs+XgfrG2wHwHhKvBLBnS+fyR2E9wTo8twPgkmyp9DQOtY3Bk5pQmAjrkI4H29vBneB3ICNphBvpxohgDWtVUS+BmIt18Cg80QT4S6RfVfAd/76QjQRvGM//e8kI8ArohueW0PGd4GAckIkPO9CqcdNvqGbBXAvm+gHxGa3PxN0FDQT4jRmaDT1PgVQp7PE7A+jbmuy/V8tzHQse9T2f/zGfBgMBgMBoPBYPAN3cpP8vHUexUAAAAASUVORK5CYII='
p13
sS'twit'
p14
S'data:image/png;base64,iVBORw0KGgoAAAANSUhEUgAAAEgAAABIBAMAAACnw650AAAAD1BMVEUAAAAjHyAjHyAjHyAjHyCMLXc/AAAABXRSTlMAUN//AByXhmwAAABHSURBVHgBY4CDUTAKGJWNMYCRiAsEMEBpYWMswBBNkTI2RUZoioyxAuorGlU0qmhU0aiiUUWEi2hyCntH/NUGPjAyFI0qAgCU2ueifIMEWgAAAABJRU5ErkJggg=='
p15
sS'gmail'
p16
S'data:image/png;base64,R0lGODlhDwAPALMAADPMAGf/NABlAGD5LQZyADbRADDJAABmAGX+MiiiFDPPAAVvADnXAGT7M2P+Ly3GACH5BAAAAAAALAAAAAAPAA8AAARIMMhJZ0sBjc37SEcwPEZpmsoiiAbgvm9BrEMLwzJt327O8rHZDwjw1YhF4ZFo3PGaSJ9DUaharYwZIrEgeL/gwwEkKJvPAnEEADs='
p17
sS'related_to'
p18
(lp19
sS'name'
p20
Vblack medium small square
p21
sS'known_as'
p22
(lp23
sS'default'
p24
Vemoji*
p25
sS'bw'
p26
S'data:image/png;base64,iVBORw0KGgoAAAANSUhEUgAAAJAAAACQCAYAAADnRuK4AAABVElEQVR42u3dwQkAMAgEwevc0pMWQvIwwixYgDJ/s6SH4gQCSAAJIAEkASSABJAAkgASQAJIAEkACSABJIAkgASQABJAAkgCSAAJIAEkASSABJAAkgASQAJIAEkACSABJIAEkASQALqpqsYOQD8skIwdgAACCCCAAAIIIIAAAggggAACCCCAAAIIIIAAAggggAACCCCAAAIIIIAAAggggAACCCCAAAIIIIAAAggggAACCCCAAAIIIIAAAggggAACCCCAAAIIIIAAAggggAACCCCAAAIIIIAAAggggAACCCCAAAIIIIAAAggggAACCCCAADrLuyeABJAAkgASQAJIAEkACSABJIAkgASQABJAEkACSAAJIAEkASSABJAAkgASQAJIAEkACSABJIAkgASQABJAEkACSAAJIAEkASSABJAAkgASQAJIAEkACSABJIAkgASQmtsB7gO+Aa1ujgAAAABJRU5ErkJggg=='
p27
sS'version'
p28
VV3.2\u02b2\u02b7
p29
sS'uni'
p30
V\u25fe
p31
sS'desc'
p32
V\u25fe 
p33
sS'browser'
p34
V\u25fe\ufe0f
p35
sS'annotations'
p36
(lp37
Vgeometric
p38
aVsign
p39
aVsquare
p40
aVsymbol
p41
asS'wind'
p42
S'data:image/png;base64,iVBORw0KGgoAAAANSUhEUgAAAEgAAABICAYAAABV7bNHAAAAAXNSR0IArs4c6QAAAARnQU1BAACxjwv8YQUAAAB7SURBVHhe7dixCcMwFEVRJZ2HSJlRsqZ7r+OFHIF/a14hI0I4Bx5f9S3VAAAAAAAAAAD4YY+6s3z6XudzyFr372x9xw2b5lmXCwIFAgUCBQIFAgUCBQIFAgUCBQIFAgUCBQIFAgUCBbN/FN99y/kcstcFAAAAAACArLUv36wTuzMRwfgAAAAASUVORK5CYII='
p43
sS'andr'
p44
S'data:image/png;base64,iVBORw0KGgoAAAANSUhEUgAAAEgAAABECAMAAAAV8YMOAAAABGdBTUEAALGPC/xhBQAAAAFzUkdCAK7OHOkAAAAYUExURUxpcUDA50DA50DA50DA50DA50DA50DA56q1OAoAAAAHdFJOUwC5Aq+zfwEf0ecwAAAAQ0lEQVRYw+3VwQkAIAzF0Gpb3X9jJ/iHQhGFvAFyjRkA4HdrCqsYyiFkMRRbiGLIVcgJESJEiBChaztqG2TbsgEA7zmKLxERi2rx1wAAAABJRU5ErkJggg=='
p45
sb.