ccopy_reg
_reconstructor
p0
(cemoji
Emoji
p1
c__builtin__
object
p2
Ntp3
Rp4
(dp5
S'emojipedia_url'
p6
Vhttp://emojipedia.org/white-large-square/
p7
sS'index'
p8
V1267
p9
sS'code'
p10
VU+2B1C
p11
sS'apple'
p12
S'data:image/png;base64,iVBORw0KGgoAAAANSUhEUgAAAEAAAABACAYAAACqaXHeAAAEl0lEQVR4AexTSwqDUAyMmqX4uUev0R6oB/E+3qP3kIK48dfMYkRCpHRrHQiTXyEzvqr8OS4DLgN2aNv2ZtQkSVKiNpYzYF1X8tvoafHiTE00mGhU9Y4kyzI5gwkUP8+zANM0NUaP8AWkaVqCVRUGoD6FAcuyQAfEU+MGhcj9MoQj8jyXuq7xQ5pwyHEe9nztj/01/8qIruuk73vk20sgFE1/FEypqkqKokCO4BwR5gR32XP9wx6+EhH0KCjskX1OweBhGMK7NPoyfC7jOCKnCV6gr3l0ZAwO4S5n2HVCQuGccxbXsXj+7z/tm0Gu2zAMRBHAJ+itepqueoper+foprss6oaLAfgH1qsYWk2MlgDhyJa+PaOhREv+wjU/DUbjaBjhIFDuYawI/u0ArYySH8ldpOTBL7ycB+Q/Gg+bj64Y1a0bEgBkYL1BuUiA3zSDz4RIHTq3kgBUAV8nAti85wdA7Tr/XjkLyL0OE1CUv8pkCxRAITE1O1QJwDAIc4JWEODlgvz7BOT4zoDDi6HCVhjgoK4DF4YeAQIzSIJoiqNynYS6KhoE8JjgYUFhonKXgCoJYPU8QMAFBsBimQnok0Bq6IdA2ARYAMek1MOAiVgSAgDeGK/1PhPAxJidFwJiLlzG4NfkA2XAnBjVXoa8sfewWYOUpgp4aoyXuufHAL3CUj0Gv14FYMUxwBre7/cApPXBBkhoByC7ChGGOD49DcYfyGuEVzDJPrw0Deae1oJoeIwHwWJcRyImxoa+sdy1AJJzl/y8ruZNJyqsaoks2uom/fgvh4FcHRTe3xmy5fBRb+uGYljHcFo2K/XmEVjd15Oc0bPmZwxsQRYRQC84w+vWG7rmZOCqsS9yOuijDDCl55S0FRSQmMxOhHAPx8PFcc/5xVHaDCByDPOC6WiFWTiYAN7UmD2G898pxH/hOFSCPdO8AvIIWlgCr5BV3e0Z9rzXOVi05RBw4A4eAMuxXBkIec2f83sBzyQIQz5m2/zEAAzVwfLAXAHdvGFIiDsqIDK+A6NexfJsCAAoqFsgBTBuOgGhUCEAiKsTUJ/WuPN4DGDwQACD7hPQU0Uez8KnEiEmgEGtJoCJYCx9BbDE1hPA4YFh6DMADoJEgIF4FQFsoAAeBKUABv/WBHiK7QrgMYCZvAQBIoGN3wWG3ieAbQExtURIdiYBpKQz5/z+LGB2NgHrQ6BPgK/odDLBU1PhToj4Ygy+DOU1vjoBfy8T5LaoZFgULQyCfLO1BLAy+oMgVn7fRIinPiYADELgUpnga/MABr6ADMTzegL4Q+nXJkIxQt4GwC9k3JmBsbw1doIC6HN6V8PJr8psmwHdYepDcKwWgVTlp3oTv0zzHMGvJ//AymYg1Ava5lK5vBkCR9gam/sWePaaf+pDClDlm/biYhfYWCynu9TOy41/kaG6wpKJuA3/ZUYNUqOQLu8JRvM4FUoYgNM11R2Fyq99z/WIiFnyhEf+RwX8lOzjKPBgjQ8k1n8j5CQEpsD4gYDESgD+8ih/e/z8pPN10OuNyUAifjwwfqWtse8PMJ9h0Li0cSL0b9p/An4D/uptVvixQU8AAAAASUVORK5CYII='
p13
sS'twit'
p14
S'data:image/png;base64,iVBORw0KGgoAAAANSUhEUgAAAEgAAABIBAMAAACnw650AAAAGFBMVEUAAADm5+jm5+jm5+jm5+jm5+jm5+jm5+iCaedZAAAAB3RSTlMAYL8AIM/vi50ITwAAAFlJREFUeF7t1qEZgDAUA+HMgKlGMUDKBHxMADugQfStzwYkDpPT/wAHYKrPZhLcS3QS/VJobFhLdqBpdGPR6EEZ/YSCgoKCgoKCgqyhsdbImixr17zxI/VCvmJHrBVlhqdbAAAAAElFTkSuQmCC'
p15
sS'gmail'
p16
S''
p17
sS'related_to'
p18
(lp19
sS'name'
p20
Vwhite large square
p21
sS'known_as'
p22
(lp23
sS'default'
p24
Vemoji*
p25
sS'bw'
p26
S'data:image/png;base64,iVBORw0KGgoAAAANSUhEUgAAAJAAAACQCAYAAADnRuK4AAABjklEQVR42u3YMQ3EIACGUaQgAQlIwQkSkIQUJCCBSy+5vUmXcrwv+bdO8MLQsKQHBUcggASQABJAEkACSAAJIAkgASSAdCqgMcaqtdqhm3M+A9R7XyEEO3TXAwKQAWQAGUAGEEAGkAFkAP1WSvl+Z3uttfYOQNcfS+3XnbsFSAAJIAEEEEAACSABJIAAAggggAASQAIIIIAAAgggASSABBBAAAEkgASQAAIIIIAEkAASQAABBJAAEkACCCCAAAIIIAEkgAQQQAABJIAEkAACCCCABJAAEkAAAQSQABJAAggggAACCCABJIAEEEAAASSABJAAAggggASQABJAAAEEkAASQAIIIIAAAgggASSAAAIIIIAAEkACSAABBBBAAkgACSCAAAJIAAkgAQQQQAAJIAEkgAACCCCAABJAAkgAAQQQQAJIAAkggAACSAAJIAEEEEAACSABJIAAAggggAASQAJIAAEEEEACSIcBijGunLNttpTSOwDZ/w4gA8gAMoAMIIAMIAPIzgEkASSA9M4+HrfHj47LyO0AAAAASUVORK5CYII='
p27
sS'version'
p28
VV5.1\u02b2\u02b7
p29
sS'uni'
p30
V\u2b1c
p31
sS'desc'
p32
V\u2b1c 
p33
sS'browser'
p34
V\u2b1c\ufe0f
p35
sS'annotations'
p36
(lp37
Vgeometric
p38
aVsign
p39
aVsquare
p40
aVsymbol
p41
asS'wind'
p42
S'data:image/png;base64,iVBORw0KGgoAAAANSUhEUgAAAEgAAABICAYAAABV7bNHAAAAAXNSR0IArs4c6QAAAARnQU1BAACxjwv8YQUAAADQSURBVHhe7dqxDcIwFEXRwAjUbEDBCIxBDxswCj0DwEoMQgkGp0JCryDBQTpH+vKvr2RX7gAAAAAAGMqsP7+xLLOo6+Tcylzr2s6uzH2icy7zlXl/8oFAwRBv0POKner6su7PVo5lNnXtLmW2dW3n/Q1q7fnueIN+RaBAoECgQKBAoECgQKBAoECgQKBAoECgQKBAoECgQKBAoECgQKBAoECgQKBAoECgQKBAoECgQKBAoGCM/0H7/mzlUGZV12n+D5rS+B80NoEAAADgv3TdA9l9XMEX8PkjAAAAAElFTkSuQmCC'
p43
sS'andr'
p44
S'data:image/png;base64,iVBORw0KGgoAAAANSUhEUgAAAEgAAABECAMAAAAV8YMOAAAABGdBTUEAALGPC/xhBQAAAAFzUkdCAK7OHOkAAAAtUExURUxpcUDA50DA50DA50DA50DA50DA50DA50DA50DA50DA50DA50DA50DA50DA55aYPH0AAAAOdFJOUwDhtAjiW8QE5kmftQUJapznMwAAAFhJREFUWMPt2EkRACAMwMBy3/iXC2hoP8wkAlZARKSkHJ2imFORV6tbWW3PmX2r6/NCa+ihsS4UvB7yAQgICAgICAgICAgICAgICOhPyGyymG0fsxFltMYOPgDyJevsrQkAAAAASUVORK5CYII='
p45
sb.