ccopy_reg
_reconstructor
p0
(cemoji
Emoji
p1
c__builtin__
object
p2
Ntp3
Rp4
(dp5
S'emojipedia_url'
p6
Vhttp://emojipedia.org/small-orange-diamond/
p7
sS'index'
p8
V1270
p9
sS'code'
p10
VU+1F538
p11
sS'apple'
p12
S'data:image/png;base64,iVBORw0KGgoAAAANSUhEUgAAAEAAAABACAMAAACdt4HsAAAC+lBMVEUAAAC8VgC8TQCvQQC5ZQq6VwC6RACXUgChPACuSQCYMAC8bBq/g0SxXQK0aRq3f0e1djTAWwC0SgCzUACxRACiJwCwNwCrNwDAWACsOgCwNQCeJADCXgC6PgC/RAC2UgCrOgC8TAC6UQCgLAC7cSK6dSq3YwyvVAG7eTS8ZQWtXQi/iVC3p5TAlWnAj1qvYQyzoo2xZBK6jF+3hlSybCP+ryf+pSX/mR3yun/zvYf2zqbxsnD/nTD+oCT/ryn9qyT20Kr5vX7+woL9qCP0yZn+liL1y6D0xZT4tGzxtnnxq2L43sT43b/4mRX35dL56tv+qyX0v4ryvIT/sij9oiT+miD4oRfzlwnigAD4nRbzwY75uXj+riX+sSbmggD7nx79nSH0gAb7mh30xpbhdgD1yp34iBD1tXTZagD3rWD1tHD9khz7jRbvtHX3sGX2lDDwrWfYgib0xJH31rX1yJr42brajTv01bf+s2b78+nxv4n1voX+x5D+xo35v4T+xYr1vYL1vID/nS3+v3z1uHn7ph/5t3T0kAr+vHfxuHz3lhLYYgDsbwDYWQD7mSH/uG78lx77lRzxiwTyjQj6lBjzhwT20q3uegDxewDzsmzvvYjflUnxsGzzsGjzwpD2ggPgcQD317flr3fvplnwqF37okbwkgXut370zKX24MrlwJr77+X21bLanV3uwZHeeAD/mBr3jhD/ojvZdgDzuXz/pib8qCDvxZr67N//qyj7oh3/oSXhbAD0lQv8pCD/nzb5unn1uXzmfgDbegD5tXH4ihXufQHjZgD5kRP1zaPdYQD/min5tnP8mB/4kxL3kBXFTQD1zaLZbgDek0X9qlbfmlHyyJzyyqH+sGDy0a/jpWXnfAn24cvkqnH6lzLshRPijDDUXgDdiTD9qVPsplvktILqr2/WiDbstHznxaHWiDTsuYPctY/5+ff17OH28+zvhAH79OzguIz64cjer3/28On02sHy2Lzcpm/0wY7boWXZk0r1yJz8nyEqtVrLAAAANXRSTlMAxsaG5MK+AwmCFePgs6+sq8i8lZHAhX31f8Ca9PPQs57Oxa3izsi54+qW4eHg16Cwr6udlteuiGIAAAKJSURBVHhe7dJDlN5QAIbhO9Np569matt2ftsc27Zt27btqW3btm3znCaLtstJMsvm2WXxfvcmJ+B/QSAQlqzoX7+04+Wq/vTLnr15/X41/n5xx6vOd58+auPthz3q3Kr4EK7zVRtn36CrG6xQKsPbv4/A0y+4paMbGKxUBgZ3fu7GvqA5t+Gmgs7tqq/vonN1vnSvARjNud4e6OhM55aUcOk/gxShP7SwnT/00jWuviRIfIxOPycOCvgWuiVEC1NfeaWNSquRCJ3FYmehpIZm0NUTshKgpnGh57KMStO3kDgKhY4BFvq0dGrbi+fL0Z4/r7KiooqRTjWAJwKQ3IAqYzAsnj5ZhK7XCGn1bvJjeMuQiYgIOE+XeTP85K2P/Yej6u/7VTXKq8s9XJM2xsdFRsbF70ty9SivljcxHqJYGLLwrtzD3cdHKj2YYrmXx4uJ4fEsLVNOSqU+7u6ujf7zQR9m37vje7v5YlhYbloinx8bHRUVHcvnJ6blhl190Ozre+NsnzeYWVdW6+XpKRIlMJnM9Yg9TGbCCZHI08ulttRtBuiTel3xmfxTxsbGFAplLYICgx/zita9dRsAUJjlVFjkYMdi7fiHxbKzczhdcB7u0VCzSVXZGpHJm/4gk8lGthmFvYMBSlNsdpnvJutt+0sg2K5qMZsO0CKNNDM1EehBEJttaMhmQ1acZPOWA6MBBgPhhc1W1oYIa4iTbNKyAb4/5gWOFRuCIA58vincY6SGfAeBHgx5/17MPdCcsD9V9csI5pBR4DQKYEdSdyo+mpeTkw//P2MALoN22rt4HXI5nDkRALwLZfb2pZnjAW7TjmRlHR8H8CNNzc6eBPqDNHYyyoBAIBB+AxuUAeEdFp2nAAAAAElFTkSuQmCC'
p13
sS'twit'
p14
S'data:image/png;base64,iVBORw0KGgoAAAANSUhEUgAAAEgAAABIBAMAAACnw650AAAAG1BMVEUAAAD/rDP/rDP/rDP/rDP/rDP/rDP/rDP/rDO3qpHeAAAACHRSTlMAQAAQv5/PrypZZKMAAAC/SURBVHhe7dQxjsJADAXQzxVS0RLgAhR7AKrUc4Vttt8TUIB8bMpI85AiTYnyy5H1CtvjmD17cpjmPukfzstzu+inqiH10F8VVISkIiQVIakISUVIKkJSEZKKkFSEpCIkFSGpCElFSCpCUhFaKaSlyLOXrmWqddKxTD1Gii5l6t5JdqDqdbMF5PdzM4Uci5ADBlolKCCXTsj1FfIjCK2S1P/Y55RqYwdDqo0dMak2dlihgAaP/XyaNovM9xft0ht3UtWUdLMYXwAAAABJRU5ErkJggg=='
p15
sS'gmail'
p16
S'data:image/png;base64,R0lGODlhDwAPALMPAP+ZAP6VAP+1AP/NAMgrAMsyAP+aAP+YAOVlAP+iAOFdAP/SAP+vAOpuAP+cAAAAACH5BAEAAA8ALAAAAAAPAA8AAARP8Mn5BL10iYDvGEwAdNInGAcwYiaQquvUvnC8DCetGklSCQxXDeAINBCIRyCgA6AUBMJk6DwoCoVLzWHFdnaBa5YESDQIY9IjgZCqJ0lMBAA7'
p17
sS'related_to'
p18
(lp19
sS'name'
p20
Vsmall orange diamond
p21
sS'known_as'
p22
(lp23
sS'default'
p24
Vemoji
p25
sS'bw'
p26
S'data:image/png;base64,iVBORw0KGgoAAAANSUhEUgAAAJAAAACQCAYAAADnRuK4AAAEF0lEQVR42u3dITNtURTA8R0EURQEQfABBEEQBUEUBEEQBUEwIwiCIAiCIAiCIAiiIPoIgo8gCsJ5s+8bM957zrn3Hudx9t6//8xqZowzf2uvtdc++4QK+ALBIwCBQCAQCAQCCAQCgUAgEEAgEAgEAoEAAoFAIBAIBBAIBAKBQCAQCCAQCAQCgUAAgUAgEChd3t7ePAQCtZdnaWmpOj8/9zAINL48q6urVQhhEGdnZx4KgUbj9fV1kHne5XkPmYhAI8mzsrLyjzwkItBI8nxctkhEoM4yD4kI1Jk8JCLQyMvW1dWVmohA9a16nRwTExPVzc2NwppA48sT412ejz+/tbVFIgL9ZmNjo1aG09PT6vn5+dNokq7UzcaiBIrL0dra2tgFs8KaQK27rXGjtEwUSpFnlE1CmYhAYxfMl5eXtTXPsGgqrEvJRKHUzBNb9evr6y//jtK7s5CzPMMyT1eUnIlCaZknxtzcXLW5udlpTE5OFpmJQmmZ56ciV4myEujvk4QkIlAnmScWzOvr650vW3WxuLhYjEQhF3mauq2Li4teLaM5SRRyzjwxumjVSZSxQE2zrYODg9abhF3E09NTtbCwkLVEyQoUC+ZYb/S1YC6lsA6pytPHVr3EAWxyAvV1n6fUTBRSk6ep23p4eOj935Db2CPkkHniGOH29jaZh57TADbkIM/d3V1y/7m5SBRSkKdpPDE9PV0tLy8nGXHZTV2ikGrmKSFSkCiQh0TZCTSs5tnb2xvsMucUTTvqfZYopCZPigVzzoV1LwWqK5pTa9cJ1NMsFC89uL+/zyqa5nqWsP/QvpcSfd+d1sb3OA4PD7XxMlHeE/rkRxlTU1PV4+NjcgXz7u6uUcZ30nQGKDWJ4tJkmNqz5SwVieKmYU5ngrI6UBYl6vPwNMfXfZI80ppbYZ3yuehkD9Xn0uI7VN/jTBQHlD89JJ2fn/dajxa/HXEvp+7QmBcLtfiNnJycZC9PNgKN0uLHV5y/azAa93nq5Mntwqmsrnfpe2Htehctvut/cxdolEwUzxTNzs52Gk3yHB0dVbmS9SWbTScbuzwaG89ou2SzsEzUlUQ7Ozuu+c2Zphb/q2es9/f3XTRewh857FKGNjXPzMyMTx1UPraiVSdQf1p8n3uSiQbXAcdbXT+Lpna91K8WFvnFwjYtvk9eEmisFv9jd1Z6q06gFi1+7M5iJtre3iYPgbovrMlDoNYSlfqFZgJ1sE8k8xCotUTHx8ceEoGGS/TZ+1syD4FG5uXl5Y9MpOYhUKsWP2YimYdAX5IIBAKBQCAQCCAQCAQCgUAAgUAgEAgEAoEAAoFAIBAIBBAIBAKBQCCAQCAQCAQCAQQCgUAgEAgEAggEAoFAIBBAIBAIBAKBAAKBQCAQCAQQCJ3xCyhOZHtadlWTAAAAAElFTkSuQmCC'
p27
sS'version'
p28
VV6.0\u02b2
p29
sS'uni'
p30
V\U0001f538
p31
sS'desc'
p32
V\U0001f538 
p33
sS'browser'
p34
V\U0001f538
p35
sS'annotations'
p36
(lp37
Vdiamond
p38
aVgeometric
p39
aVorange
p40
aVsign
p41
aVsymbol
p42
asS'wind'
p43
S'data:image/png;base64,iVBORw0KGgoAAAANSUhEUgAAAEgAAABICAYAAABV7bNHAAAAAXNSR0IArs4c6QAAAARnQU1BAACxjwv8YQUAAAG3SURBVHhe7dlNSsNQFIbhe+u81AU4tYqgexFB2gW4AkeOdOwOXIBBEFyGKxCtm6h0Ab3mg3sGhVKa5vxk8D2T5J5BCG9+BkkiIiIiIiIiIiIiIiIiUraanZ4t59P7uhyEUd2GQ5x1zu855eflbPpYx+Fy3YaSOO3pXNRRKqU8HTeL8FDhgbbFEUOIFBpoVxwRHSks0D5xRGSkkEBd4oioSO6BDokjIiK5BuoTR3hHcgukEUd4RnIJpBlHeEUyD2QRR3hEMg1kGUdYRzIL5BFHWEYyCeQZR1hFUg8UEUdYRFINFBlHaEdSCzSEOEIzktoHs3U+ukoln9RlqPaqX9bd3lQfsb/5+W17+V7ao47ryF8pH5NmcV1Xvam/pEMjKccB9UAQEskgDpgEAtdIRnHALBC4RDKMA6aBwDSScRwwDwQmkRzigEsgUI3kFAfcAoFKJMc44PrrefL6/ZZyvkslreqoo/I1SuWhLly43kHisDupjVPKzbj5/akDFyGBoFukmDgQFgj2ixQXB0IDwe5IsXEgPBBsjxQfBwYRCDYjDSPO4CDScjb9xNfJOiIiIiIiIiKiTSn9A5hSPGdHABCPAAAAAElFTkSuQmCC'
p44
sS'andr'
p45
S'data:image/png;base64,iVBORw0KGgoAAAANSUhEUgAAAEgAAABECAMAAAAV8YMOAAAABGdBTUEAALGPC/xhBQAAAAFzUkdCAK7OHOkAAABIUExURUxpcfzCG/zCG/zCG/zCG/zCG/zCG/zCG/zCG/zCG/zCG/zCG/zCG/zCG/zCG/zCG/zCG/zCG/zCG/zCG/zCG/zCG/zCG/zCG/nYd+QAAAAXdFJOUwBSUVDkVOMB4U9T4kzgDEkQur/EA5MSIwDeoAAAAKxJREFUWMPt1lsOgjAQhWHuh0IRRHD2v1Or8UGNEGlPfDr/Ar4EaGfIMqWUUvEtC4WBX1cPglNXZlUNikOQ0D2cIHVJEvLGnjU5KE6ShKK3l/oCsU5rb7VxEsoPJ0glKE6UBPfFCZIDxTksbTpHJT/YZsP4u3O92E7n0/8h2qPxXjbt8/MOJO+K8C4tb4zwBhtv1PKGP28d8RYkb2Xfz/g8O4ITmib92imlVEI3Y8srG8UYMCkAAAAASUVORK5CYII='
p46
sb.