ccopy_reg
_reconstructor
p0
(cemoji
Emoji
p1
c__builtin__
object
p2
Ntp3
Rp4
(dp5
S'emojipedia_url'
p6
Vhttp://emojipedia.org/small-blue-diamond/
p7
sS'index'
p8
V1271
p9
sS'code'
p10
VU+1F539
p11
sS'apple'
p12
S'data:image/png;base64,iVBORw0KGgoAAAANSUhEUgAAAEAAAABACAMAAACdt4HsAAAC+lBMVEUAAAAAJLYAK7wAMMUAQMYAHbQANsAAALgAN74AJZoAQMkAPscANL8AOscAIZUAEZwALpwAKZQALJYNP50CNZcPPJgAJb0AFa0AN8AAFawAOMYAKL8AQ8gAMcYAKMQAPcEAHqwAC5YALbkAF5QAAJEAAH8AI54AJ5kAK5wAJJQANZwANZsAKJcJOp04VpIiS5scSJ44VZAdR5gYRJgye/42gP14ofKNsPSVtfUwe/9woP5qmvk6jf57o/J/pvKCqPNllO9vnfl3pf5xnfRtmvQ5if44hf4wgPs3gv5ol/M7j/4FVd4wd/5znvCLrvOkwPZnmPlrmO42hP1wnPALXOQ8jf91n/EpdPg3if04i/4abe9vm+4ye/84h/48gP8gcvIvev8zhPwIW+Arefg2hv0xffw0ff0wePx+pPAtdvsRXO+FqfAnbvoYZfJflf4ocfqGq/OSsvNkk/OJrfSYuPUBPrWbufVhkO5ole6ovOV0n/Qve/96pv5zn/ksffk7jP4yg/w4ff8od/cAOdcbYfYjafgaafBjl/8ebPIxefxklvkNWe1ilPgsc/wDT9sbZfdTjP1fk/g0dvFhkvMKSb84ePlYjvd4ovBbkPhaj/JVifIbVL4iW8FajO1oj9ugvvW8ze2BoeA/a8IQSbYJRbXT3/itxPLO2eytxfeqxPdPdMLc4/G5zvYwX7qyyffe5/ni6/qux/iFqvMpfPgBS9txnfEAQ9kkbvcgb/MWX/E4gv9Agv8ESt85hv86iv8vevsFVdpqm/4GUeEtevptnf4GV9sARNwARuAGUOsFT+tom/4NYOQxe/sBSdUAE6kHSdJbkP4TYO5KhvwEUeAAIbcSTr07c9xKf+RTg+ARV9xuluNCddlHgv12m+NDhf9bh9psmfGOquR5oOudteehvvM4acOdufF7pPJJdsi+0PXC0et2md2bt++owPCnwfcZT7ZvjcsiVrdpisvI1/XX4vpKbbSyw+cqWrg+ZK/p7vvy8/fm6PFCaru8yugF+07AAAAANHRSTlMACn6+wgiTAYLk9caGxbMD4pav4KuswMC8msaFyNDzs54WzrmtFOrI46Djzq/h4eDXsKudkgV2CAAAApdJREFUeF7t0lNwHVEAx+FN2yRN2jQobRvXth3btm3bts3Stm3bNmZ6bzudPGZ389j9nvbl9z9ndhf4TyAQCM1Va4FhWf3p67rh9Gve/mjtWA+/H//+e++3zp8TYfcdnR97uvp+dcNb0FzZ0Nrc3tPf3/f5ywQAhmUNz5ulr9vapO294e+gL+guf1r3DBdUK5XW4kI+hHfrQ72/3qO6Fj8sLigkJAiHDewKf2MA7Xy9qgcPnwxIsP44nD9WQqW01DcaQOmXVN57vIlMHQiUYLGSwAEqBvPqRdMKADStynr/u+JSMoXq6efnSaWQSw3FL2ualoI9f3HVLbfQMEOxCYbsRqG4kTEmYkNamGdNoz64XuvSdcvqUJpcbqnaUNWWcjkttPr+neBxoPqiq7SK8sIAPp/FYjIjIphMFovPDygsrwi7AWJh4aKiKwElZflZGTIZkUinR0fT6USiTJaRlV9WQrscPB8YwoKL1wqKz+f5+KTuIxAIDEZUFINBIBw8nupzNu9mccGZ08AQ5s7L8cj1zRaJXOJtbGxuq+xQPsSjRKJsr9zMU3OAIelc8PZ1TUehrKzw+Eg7O7tIPB5vhUKh0t23nNs4FgBBR5hmetIFzds+iMdDu+wxTclR9mCMMdrq6KzgcHb9w+Hw0M4JKcLRAEjaJ2wPxFmz2bv/YrOtnbiOFg6zAbDUZhjZxijMYknGKrEkczP7DRaHNAAIRjnYcp3YJIHA2Fgg+NPvVd4f4kKMvZk5KVZ1fhy0fvBNchXWSgpugoUQcg/oahulmTqjeWi08vsJpwDQqU/b7+3r7uqq+n80AFhG7tyW7OWV7LF5BADAXfBISspU9rDNPHL02OHpAHzqsxITJwHDoTZ5KsgAgUAgfgMhwwGyXodQagAAAABJRU5ErkJggg=='
p13
sS'twit'
p14
S'data:image/png;base64,iVBORw0KGgoAAAANSUhEUgAAAEgAAABIBAMAAACnw650AAAAG1BMVEUAAABVrO5VrO5VrO5VrO5VrO5VrO5VrO5VrO62E5ZzAAAACXRSTlMAQAAQv/+fz6/p+UjWAAAAv0lEQVR4Ae3UsW2EQBQE0LkWkFzAwekKuMS5JQpw8HFOCxYVuHFnDvYhkDY1E49eAPsn5sqV3IaxTcYm07ycl96r1rPStFVBRUgqQlIRkoqQVISkIiQVIakISUVIKkJSEZKKkFSEpCIkFSGpv9JcZGlLzyqzNqW3KvPZU3pUmY+mNG1Fvl5+AvJ98DGB/C1C/mAgn8o+5KMT8vkCeQhAxyf103+cnnn/YDg9/SPmHPYPqxPdP/bjfdgpmf9Wukq/Cd578evKOzUAAAAASUVORK5CYII='
p15
sS'gmail'
p16
S'data:image/png;base64,R0lGODlhDwAPALMPAGZm/4KC/wAAy2Ji/mVl/pqa/52d/2ho/zMz5Soq4Wdn/29v/3x8/zs76gAAxwAAACH5BAEAAA8ALAAAAAAPAA8AAARQ8Mn5Ar3UhIFvMcwAdFJRBAoBjJgZAOrKTi4sy5OhpTdwLItKgGG7HQYNBOIxGMRkB0JC4Jj0AKmp4GKUCraY1VFLegAWjW9ZskBU15IlJgIAOw=='
p17
sS'related_to'
p18
(lp19
sS'name'
p20
Vsmall blue diamond
p21
sS'known_as'
p22
(lp23
sS'default'
p24
Vemoji
p25
sS'bw'
p26
S'data:image/png;base64,iVBORw0KGgoAAAANSUhEUgAAAJAAAACQCAYAAADnRuK4AAAIC0lEQVR42u2dIVBVTxTGbyAYCASDgUAwGAwEgoFAIBAMBILBYDAQDASCgRkCgUAgEAgEg4FgMBAMBgPBYDAYDAYDgUAgGAyG63x35jD737d77uPB+Ofu/r6ZNyJ3uTDsj7PfnnP2vqZF6AZq+BUgAEIAhAAIARBCAIQACAEQAiCEAAgBEAIgBEAIARACIARACIAQAiAEQAiAEAAhAEIIgBAAIQBCAIQQACEAQgA0bP3584dfAgBNppcvX7YvXrwAIgCaDJ6maboXEAHQxPAAEQDdGB4gAqAbwwNEAHRjeIAIgG4MDxAB0NjwbG1ttTs7O0AEQNeH58mTJ1dwLC4uAhEATWaYMdYAdC14Hj58mL02OzvbTk1NAVHNAHnwHB0dtZeXl+3jx49Hrs3NzbU/f/5s37x5A0S1AuTBc3h4eDVudXV15PrS0lL7+/fv7rogYjmrDKA+L6OJ7xu3srLS/vr1q9ud4YkqAmjcPE/sf+bn59uFhYWxPVKNEDU1w/Pq1avO26Su6fPn5+edJ4ohstf9+/e7e9QMUdEAra+vu/Bocn/8+DFiigXPxcXF1X0EUSryfP78ubu+vb1dLUTFAuT5lGfPnl2N29zcTI7Z39+/GpPbeYVw6OMaIWpqizx63bt3r3337l37+vVrd5wg0u4st203OHQv3bNGT1QcQJ7n8UDQsvXp06esJ9Jrenq6gyXnifq+R4kQNbXAI8/z4cOHZKQwwyydnZ21Dx48SEat09PTK0+UgkjwaLnb3d2tBqKmFnhMSgjG1zXhoVJ+5unTp/+Z+FQyUVApTyRp+asBoqZ0ePR6//59N25tbc0tY0jjtG9oGdNylhqzvLzcZay/fv3azszMFA9RUzo8tvzEkUdJQuVx4smPl7bYE2lMuAwKpLh2pvYPD56SIGpKhef58+fZnZF5HuVxcpFEAHz//r3zRDljrfufnJy4yUYDpdQCbFMiPOZ5tHTF1xQtzDBLX758GQFNJloJRpOq8CmIZMrDZKOiWq5IW6onakqExyYjledRZLHdlHRwcDASHQSU+SYpt3tTBtokzxMviTEcJWasm5LgseVJS4+XJLQtueDx7iWznIMn7JtWFEvBE8Khn8nLMQ0VoqYkeHLJPE2clpDw8/o4/L8ik5abGJb4Xnt7eyMgxGMUaWJP5CUYhwxRUwI82oLnyhdhkjBX0zLDLH38+DEbcRSRzBPl2josp+QZa0Gin7kEY92UAI/p0aNHI9dVngilprB4jJayUCkYreHMSyQqVRBKu7wU0GFn49AhaoYMT9h2kRunMbajyiUJbTsu6d/cpBqs8jy57b88keRt/w2OXJvIkCBqhgqPvRR14h5mTVwIgbblygvFJyzCpUof6/vFvig2x4pO4ec0XveKc1AxPPH/VRpJbfuHBlEzRHh06K8vKnk7LIGhqKStei7a6PNagnLb8zAqeZ7IolJfslHL3xCXs2Zo8FjuJTVGf9FhkjAFkW3zTaklS4BZt6GX4wn9V27JsiXNM9YGiAf9XYWoOIDCVlRtyz1PZEnCFEDyOaZv374lAZIJNgncFEBhslGV+kkB0rIIQLcEkXdW3SDydjh2SNBLEhpEgidnhnX/4+PjLvp4y5NyR4o+cbGWJewOmGhNbqqKHk6GIImNdmyiU0XPlIlWS0j4dSkTrVRB/HUxhPoj6MtM3+XIU8Q2XhOnSKK8Siq/Y+0WVvvy7mVJQu/U6cbGRjeZXuQSYNYPlDPfgkdRUsueZ751L7bx/yiRqF90KpFoYJhSy4iWmFCps16KYOFkvn371u1IlARuCnrzadoF5kC865GnuFJGrtIdGuvc6QnzRJYkTDWD6eusfUORI+d5DGiBlPM8OkrkpRAoZfyPnihVuBREWppi7xJHBk1+nGGOvZTuEycA43tpNxUvqeMWU4cSeQYJ0DgQyXcoinjjLJp4/TkWTbRUeZNvpz28FlYtf/qZUqc9aOe4YxCp1OCNU4QJm8VS9TEBEyYJc0tfeNpDfidVHwtPc9BQNrBkY66lNUw25lpazRN5WWYrwJrn8VpaS30wVZVN9Wasva22PJEy1jLMuaKnIo7aRQRPLo1AU30BxlqTF0OQOtYTH/1JHetRITeEIXWsR/fuOyvPsZ4BQaTlQxMlP+KVG3KeKEzsKdp4y5ElCRWZOFhYCESCQlKGOFVHCwueUtw7ZOUJ6ySUUoXPsBtANbIaHsZZzcMVFGFyx43DZKMMc1zbiiv0Oc+jZUs91YIn17HIwxUGDFFuUg0ibcW9Aqcg0tLkVdX1PWp6DHCRD5gax1grz9M3Ts1g3qNaLM/jnbAYaoa5aoD6IApPWOTGhZ2EuUavsMDqPeJOkIX+CYAK8USScj3xljusmEu50xPWJuLtyhR5SoWneID6IFKUyXkeM9ZeVV15JN2j5rc+4EHj13zQ+DhdhDxovEKIbML7erGV5+GtDioEqA+i8M1WUhlrlTDkhaRUkZY3WwGisd7uyWtD5e2egMhtchdEtWSYAegWjDVveQlAE0Mkw2xQpJ4tDTwA1AuRMtCpZygCDwBNlCeqobYFQP8AIiIPAE0MEZEHgCaGaAhn1QHojkJE5AGgiSHC8wDQxBAReQDoRgIeAEIAhAAIARBCAIQACAEQAiCEAAgBEAIgBEAIgBACIARACIAQACEEQAiAEAAhAEIIgBAAIQBCAIQQACEAQgCEAAgBEEIAhAAIARACIIQACAEQAiAEQAgBEAIgBEAIgBACIHRr+gvhJ9PItudw4AAAAABJRU5ErkJggg=='
p27
sS'version'
p28
VV6.0\u02b2
p29
sS'uni'
p30
V\U0001f539
p31
sS'desc'
p32
V\U0001f539 
p33
sS'browser'
p34
V\U0001f539
p35
sS'annotations'
p36
(lp37
Vblue
p38
aVdiamond
p39
aVgeometric
p40
aVsign
p41
aVsymbol
p42
asS'wind'
p43
S'data:image/png;base64,iVBORw0KGgoAAAANSUhEUgAAAEgAAABICAYAAABV7bNHAAAAAXNSR0IArs4c6QAAAARnQU1BAACxjwv8YQUAAAGrSURBVHhe7dktUsNQFIbhk6LxbAAFkhUUh0OVwbACJEhmsCBZAYZpFbKKrACLYhloCPnoPTOITqdpzs8V3yOSe4985yYiESIiIiIiIiIiIiIiIiJrL29Hsmjvyq4Kk3LPhzgTee1X9zJvH1bDfE2559I4TXNYJiKdPMrF9Lbs0uQHWhdHVRApN9CmOCo5Ul6gbeKoxEg5gYbEUUmR4gPtEkclRIoNNCaOCo4UF8gijgqMFBPIMo4KiuQfyCOOCojkG8gzjnKO5BcoIo5yjOQTKDKOcopkHygjjnKIZBsoM44yjmQXqIY4yjCS3Qezveakvx6sNskaOS6r0WwfsUV7JV331J+i/TLJsJTZ9KysR7N/SedGMo0D9oEgJ5J5HPAJBLGRXOKAXyCIieQWB3wDgW8k1zjgHwh8IrnHgZhAYBspJA7EBQKbSGFxIPbX82z63Me57iN9lckwXfcp391N2YWIPUFql5OEOD9yLpenH2USIicQDImUFAfyAsE2kRLjQG4g2BQpOQ7kB4J1kSqIA3UEgv+RKolTH0Sat+9/XyeJiIiIiIiIaB2RXxcc2jBVZPZlAAAAAElFTkSuQmCC'
p44
sS'andr'
p45
S'data:image/png;base64,iVBORw0KGgoAAAANSUhEUgAAAEgAAABECAMAAAAV8YMOAAAABGdBTUEAALGPC/xhBQAAAAFzUkdCAK7OHOkAAABIUExURUxpcddZi9dZi9dZi9dZi9dZi9dZi9dZi9dZi9dZi9dZi9dZi9dZi9dZi9dZi9dZi9dZi9dZi9dZi9dZi9dZi9dZi9dZi9dZi/E4mI8AAAAXdFJOUwDjUlHkUFQB4U9T4kzgDEkQusTCA5MSR/nfqAAAAK1JREFUWMPt1lsOgjAQhWFu5XApCgLO/ndqNT6oEQPtiU/nX8CXAO0MWaaUUiq+ZaEw8OvqQXDqyqyqQXEIErqHE6QuSUKR27O8AMVJklD29lJfItZp7K0mToL7cILkQHGiJLRfnCC1oDiHpU3nqOQH22w473euF/vRdPo/RHs03sumfX7egeRdEd6l5Y0R3mDjjVre8OetI96C5K3s+3maZ0dwQuOoXzullEroBi7tKxMqrCNYAAAAAElFTkSuQmCC'
p46
sb.