ccopy_reg
_reconstructor
p0
(cemoji
Emoji
p1
c__builtin__
object
p2
Ntp3
Rp4
(dp5
S'emojipedia_url'
p6
Vhttp://emojipedia.org/up-pointing-red-triangle/
p7
sS'index'
p8
V1272
p9
sS'code'
p10
VU+1F53A
p11
sS'apple'
p12
S'data:image/png;base64,iVBORw0KGgoAAAANSUhEUgAAAEAAAABACAMAAACdt4HsAAAC/VBMVEUAAAD////////////////////8/Pz///////////////////////+/np/////Anp////+/nZ/Bm5v////Zt7e7qqq/nZ+GAgLNlJRDAABKAAD///+/np6/np7UsrIQAABXBgbQWlrNXFxdCwsLAABnAADIg4OXWVm/cXGcExOLAACwMzOLBQWBAACHAADEhoapHh65RES9UlKREBDWXFyZBQW9VVWqaWleLy/GbW1/GBixPj7DVlatV1e2UlLRaGipRkadUVGPZmZuLy/VaGjMUFCuMzM6AACCHh7IU1OmMDA5AACLGhrib28eAACDFRUfAABmCQlFAACpPz9hCAg9AACzPz+9TEz5hobvbW2NAAC/Dw/5f3/8jIzrbW3rWFjTKCesBAP3e3veQkKzBwagAgL0cXDyeXmKAADvcXH1hobGERD1bm73jY3YMTHzfX3RHRn9iYm3AgL1dXXvW1rJHRu0Cgr2fn15AADoWVnxaWn4iYnoX1/aPj7tZmanDAyaCwvJJSXiWlnhQkHLHR3qW1uPAgDwZ2O+CQjNFhblUFDnRkbvYmD0VELVICDTMC/4QTDaJx/qLiD8jo/PDgu5DQ35k5OuIyOmAADwfn7tNCbyOivOGxvWPT2WAgLTGBXpenrsVlDfNC/cGxG+FBT8hYW5CAevDQ23ISHbZma9NDToYWHlPDPsQjXdPj3NKyrNJCTEEA69AgLZT0+iDQ37k5T0gYHSEw/GCAjqS0HmV1fySjngT0/6TTrue3vqTk7zUD7pdHXKEhL1RzXbSkr3hIXJISDmVFPiRkazFxbXKyvaJCToQ0PYGBjeLS3VODeGAADhSkj9kZH0mZmbAADkenqBAAD7Uj9yAADUSUncWFjoj4/ceXnuVErsZ2f7VkLhLy/dKSngKB/cOTX7WEbkKBvgMCflIxbrUEf9XUn0goKPBgDnQEDwW1HkZmbxdnbWODjIPj7ZQ0PgS0zDDQjxZGTDAACpBQXiNzfjXl+6ICC8FBHEKirukZH/v79nTBZhAAAAWHRSTlMABwgKBAUGAwECDAkLbBBcE2daDRgPX8BPBgsPZGItHoD89HcURWtbcPXr5rU3kTnr0sea/PizZkGoqtfgjNbvwYM5XPn15Feo7dtVw/4yvjCcauaYZPHVnMwIMwAAA3FJREFUeF7tlFOQJEkYgLu60Lzu6+nB7u1obRtH22hbY9u2bXNt27Zt79mIy67aidi3zqqJvaf5HioqouL76s/MiGT9XwwwwAADDP92eL/8ry/9e/qLfvgjvvyn6uI3I5gHvjrZa6s6+Tlj/7Nhp0+ZT/UM/YRp4NPK7mp9dVflRwz9Dz++UG2KjNSf3/4uI3/wB7KKUKVS2Rm65p2XmAS84xpCl0csXRqxosjXm4Hv9b51hd+yhpW7jtb/Kn/bi37gvRO6dbqE1Cd//BRYHqyeR9t/463EdTrjBs12Tfy+I+Xanjk0fe5rZfWFaTGaLTVWuTbvepNsPkEv8GZzbs6SvZoaX98H1ljtocN5zbNBFd53eSUuJzA30eobEBC3O+yXrb8fNixwAQJ04/WAhHpjhs+agMrVq9UqS3jewdYtL7Pg8XxV46dbskEeFFd2oixE5R/+6MjajGGeLC7sAHNrlu04YIyRG2RqdUiHwT/80LXCQp9ZIABXGDT0x+z0wOPxPlFkQGXfhIM7jDMGQRbwaSsrlHu+37TQJ2i3TCbriAqL1aYdyPFLnYqxoBjV+6epPaVh00LNd0FRKpUhTJ4Ysy8wPTvlhzFQvvP47t8i21OO7kqNvyK3WCz+sfkZucaidKXp7ynOMIFJVUkgsKco4fhebX5WVlZ+eMvWtJu6CKWpa/90CH/i2FVmfYVfcEnrovX3Wh4DLq9fvOhOSdPyTn3SzMmOAxOSG82mn9e23S6tXbxxW0FBwbaNO+tqS++2lWfrzclujgM2RXLSX8E3auuKd24+e+s+4OrZzcXFdaUlEftXNY5zfDdFnzsXHX3mmE2hyMzMfEgCXhQK27Ez4JPbYIeBkaOdnMSurh7uEonkBQqJxN3Dw1XsJBY7ObPg4eCIQCiVSoUCgkPvLuFhOI6wUb5UJHrRjmiIFGUTOIfHBUD4XB4Hw3DCXpAOEQFbygc+htEJAAiELUBRoZDP56MChMBxjj0AtQKqgJMFISrkCwVsEAAD0ApgmD0AQFGUjSAERgZAAS7BAQX7CCRgAQQOAtQewB0Dj9pHYBIIguA4WADpw47A6ysAFTQwAPAZBcADx0mfDEAWuNQ+Uh5mh8PjPNVpnSQVoH4PoFTIAggAgEpleFSABPogn4W2/zwCXJoBXp9I+vQDfSJ0gDn/AZ3rIMGbUrZmAAAAAElFTkSuQmCC'
p13
sS'twit'
p14
S'data:image/png;base64,iVBORw0KGgoAAAANSUhEUgAAAEgAAABICAMAAABiM0N1AAAAM1BMVEUAAADnWnDnWnDnWnDnWnDnWnDnWnDnWnDnWnDnWnDnWnDnWnDnWnDnWnDnWnDnWnDnWnDkYbFIAAAAEHRSTlMAEO8gv6+AQDDfUHDPj2CfAHcyNwAAAMpJREFUeF7t1FsOwjAMRFE7adr0yex/tUgVyBAhVHu+QDk7uNLY8ju6rutyFUO4AYMKbwSAIrSM0yKsAaeUhbPiYSDDEp5WMswwIzhgsEmYJrzaJarg3SQxCxqzcmGm8GGID3xCIzhwndEIDnzHZysZZioXZjZ1fzMTHnhFIzrwDd8k5cJMIcPM4fhmJjzwFY3gwHPCBSMZZioR5hq4Jly0e75ZfOALrkvKhZniCAsOfIJPyo5vFhn4AbfF8T0Cl5LdaXOW/9V1XXcHjLVDWNeEyWYAAAAASUVORK5CYII='
p15
sS'gmail'
p16
S'data:image/png;base64,R0lGODlhDwAPALMPAP8AAPslJf+ZmeoAAMgAAP+NjakAAPYAAKQAAP9lZf9aWto/P78tLc1LS5cAAAAAACH5BAEAAA8ALAAAAAAPAA8AAAQ78MlJq33tWrGcpkWAfJMCEOQTAoNBmsD5rXGrJXGOWnQ+jBVcTlfpDX8U4ZAoCR2eUCjywTBYr1jDKAIAOw=='
p17
sS'related_to'
p18
(lp19
sS'name'
p20
Vup-pointing red triangle
p21
sS'known_as'
p22
(lp23
sS'default'
p24
Vemoji
p25
sS'bw'
p26
S'data:image/png;base64,iVBORw0KGgoAAAANSUhEUgAAAJAAAACQCAYAAADnRuK4AAAHMElEQVR42u2dLzRsXxTHBeEFQRAEQRAEQRAEQRAEQRAEQRAEQRBesJYgCIIgCIIoCIIgCIIgCIIgCIIgCC+8ILwwb33nt+77HePue2eMuff8+XzWOmu9N2a8cXzevbPP3mefvgZAF/QxBYBAgECAQIBAAAgECAQIBAgEgECAQIBAgEAACAQIBAgECASAQIBAgECAQIBAAAgECAQIBAgEgEDd8ufPn8b7+zsTgUBf4+TkpLG3t8dEIFDn/Pr1qzE0NNQYHBxsvL29MSEI1BlbW1uNvr6+5lhfX2dCEKh97u/vG/39/f8E0tBjgEBtsbS09EEejdnZWSYGgcq5uLj4JE82zs/PmSAEKg7bp6amTIFGR0cbv3//ZqIQKJ+DgwNTnmxsb28zUQj0mdfX12bIXibQjx8/Gi8vL0wYAn1kdXW1VJ5srKysMGEI9D8PDw+fwnaN4eHhxsjISK5E19fXTBwC/YdC9DxJ9vf3G8fHx7lfm5ycbH7oRiDC9lxBJiYmmolUSTI+Pp77HOXKEChhJIh1izo8PPz3vJ2dndznKFeWeliftEDKtFsflN2riyWQxubmJgKlGrYPDAx0LZDC+ufnZwRKDWXYi0L1dgXSWFxcRKCUyMu2dyOQhj6MI1ACKKqanp4uFcISyBJvbGwsybA+OYEkhrWu40ZklkAzMzPN55ZFbggUIQq5daXI++Xf3Nw0s+1lAmnR0boFplj+mpRA1mcZ5cFEuwKJvKIzjY2NDQSKEWXQ87Ltbna9E4EUuuctA+jK9Pj4iECxsby8nHvFcLftdCKQsOqH5ubmECgmrq6ucj+zKBXhRk6dCqRUiBXF6d9EoEiwylQljEunAjUn0BBICdgUdrVGL5AVtvdaoKwcBIECpijbXoVAukXGHtZHLZC7u7QOgVLY1RqtQE9PT6X5rioEij2sj1ag+fn53F+omwf7boGspQK9FwQKiMvLSzMyOjo66plACt2tiE/vCYECQOs6qmfO+yWenZ19iMq+WyDt1NDIu3XGmq2PTiCrTDUr+uq1QGJhYaF01RuBPMQqU9UVIWvPUoVAypNZ2Xq9RwTylLW1tdLC9yoEElbJbJb5RyDPuLu7M8N2V4aqBLJKR/QetRMWgTzD2l3qm0CxNauKQiBr+7GvAmmcnp4ikA9k3VRDEyiWZlXBC/Tz58+Odlj4IpCGnoNANWKVlapM1S1frVsgrYBb7zP0Xa1BC2QVtisLb8lQh0B6jZtCac2fIVAN3N7e5obtqv/R5yLfBFIaw9pSFHKzqmAFsnaXZtGNbwIJtQm2KgRCzZMFKZB2gJZ1DfNRoKLbbqjNqoITSCWiefu7dDvTba1MhroFUqFbnkDqx6hbLwL1GO387Ka6sG6BWl/jDi1JIFAPKSpTjUEg/Wz6GRGoR6imp9v6Zp8FCrH8NRiBVC76HQXyvgsUWvlrMAIVHYISm0Ahlb8GIZAVtisVELpA1sZHrVwj0Deg1itWN1U3IgtVIIlilb+GENZ7L5B1CIoe/4oMvgmk11jlryHsavVaIOsQFF2RFO7GIpDqgrSQGGL5q9cCqVFTUdeLWAQq+pzne/mrtwJZh6Dol5z13YlJoKJsvc/lr14KVLS71D1yMiaBij7v+Vz+6qVARYeguGWgqQjkc/mrdwJZZaqpC+TrrlbvBLJapKQukK+7Wr0SSN3iy5pCpSxQ1lEfgQysMyhSFMi6jftW/uqNQOrdY1XquYnUVATSrdw6q9WnPJkXAilEtZKKWgNx972nIpD+rK/lzYnmypew3guBrN2l2cSnKlDRarwv5a+1C1RUpqqWLakLpPmxmmb5kCerXSBrm4ubiU5ZoNbv5Q7NXdICWd1UNdxamNQFsrYC+bCrtVaBis4udUldIK3OW/OknGGdh7rUJpBKMorWexCoPYHqPqu1FoGs3aUI9DWBtFZW16EutQikrqllK84I1L5ArZ1ooxZI/Zrd3RQI1LlA1rJH1gs7aoGsLu6tBWQIZAtkLS5m3fijFUhhu/W/p7XTKgLZAikjbyVblVOMUqCifNfKysqnvA8C2QLp79ZWICVgq8zWVybQ7u6u2ZFCE4JAnQmkQ+ysq3mVh7pUIlBR2J5NFAJ1JpCwrkIKUqoK6ysRqKhMNUsIIlDnAhUloqva1dpzgYryXYomMhCoc4FEUc+kKvJkPReoKN/lHkaLQF8TSGs/1lXIbToapEBWc+1sUjUR2VDlYeskZcOVUCuu2eNuPk0RnvsaN+LT87p5jbtyrvfivqa1erKb17ilLfpz9rjC9tYw3v1+1rpQtjwSpEBFYTujutHr/WQ9E6idfBejmqGjH4ISqN18F6Oa4Z4ZG4RAVr6LUd9wI16vBdL9VoffKopg+DXULjD4bDzEBQIBAgECAQIBAgEgECAQIBAgEAACAQIBAgECASAQIBAgECAQAAIBAgECAQIBAgEgECAQIBAgEEB7/AUrIapdvdftmQAAAABJRU5ErkJggg=='
p27
sS'version'
p28
VV6.0\u02b2
p29
sS'uni'
p30
V\U0001f53a
p31
sS'desc'
p32
V\U0001f53a 
p33
sS'browser'
p34
V\U0001f53a
p35
sS'annotations'
p36
(lp37
Vgeometric
p38
aVred
p39
aVsign
p40
aVsymbol
p41
asS'wind'
p42
S'data:image/png;base64,iVBORw0KGgoAAAANSUhEUgAAAEgAAABICAYAAABV7bNHAAAAAXNSR0IArs4c6QAAAARnQU1BAACxjwv8YQUAAAKBSURBVHhe7dq9bhNBEAfw3dsHILGiBAk6PwESPalooHCQIpEWJUUaLCQKiBACiQLK9DxAmiRu6CjgBSLxFiRN0sfysbsZJBC22fjmY0H/X3Ozrk6j2dk53zkAAAAAAAAAAAAA+G8d3urdprAKDV2rMFpbehAu3RNaVqGqBMXb2XfevR2t3LhDP5irJkHHq8vb8dJPcRvCbrrWwNPVVOo7cWt9i3fTo5+iycPB6cUnWpipooJy3/ktOYl/SoEp8wrK/aYJn/9MUNJuDU7PD2hhwryCcr+ZmpzEv6PAjGmCjm4u3YslvEPLafqj1d4zik2YJqhp/R6F87yyHB7NEjRaW34ct9B9Ws4Wt18YuyGt1BlW0LX6y3Or4dEkQdRX8lBYqm3CSwpVqR/z04fCUvrDo3oFTR8KS+kPj6oVlPtICCe0XEjbtjsbZ+cfaSlOtYI4+oj3/gWFKtQSlP7r8d5t0rKLNDy+plicYgWx9o+h1vCokqCr/3oKhsJSsck3Y6dSRSoJkugb6RlOY3gUTxD1i2sNhcVC854iMaLHfLehsJTs8ChaQfkhUzQ5aS7ybygUIVZBHENhKcnhUa6CFPrDT+kQkDr2RRKUhsJ423zH+t/18zOeAJEESfeFGYYSxz57gtJQGEv+Li31xMNA4oUja5POx/rYfYmhzNxTYOIn64++X3ylZWesFUR9wCw5SeGLgGJsFZT3/8wXgNr4hke2Cpr/AlBbs09BZywJKngBqK1PX4t0xpIg7n3PwTv/gWN47Jwgg6GwTNzuHMMjQwXx7Xd2DF+rdUrQr1+F1arr8LjwMa/zXw+XxY/9hSso7+9/IjlJHV+rAQAAAAAAADBw7gcOC44wpyPH2AAAAABJRU5ErkJggg=='
p43
sS'andr'
p44
S'data:image/png;base64,iVBORw0KGgoAAAANSUhEUgAAAEgAAABECAMAAAAV8YMOAAAABGdBTUEAALGPC/xhBQAAAAFzUkdCAK7OHOkAAAEsUExURUxpce1sMO1sMO1sMO1sMO1sMO1sMO1sMO1sMO1sMO1sMO1sMO1sMO1sMO1sMO1sMO1sMO1sMO1sMO1sMO1sMO1sMO1sMO1sMO1sMO1sMO1sMO1sMO1sMO1sMO1sMO1sMO1sMO1sMO1sMO1sMO1sMO1sMO1sMO1sMO1sMO1sMO1sMO1sMO1sMO1sMO1sMO1sMO1sMO1sMO1sMO1sMO1sMO1sMO1sMO1sMO1sMO1sMO1sMO1sMO1sMO1sMO1sMO1sMO1sMO1sMO1sMO1sMO1sMO1sMO1sMO1sMO1sMO1sMO1sMO1sMO1sMO1sMO1sMO1sMO1sMO1sMO1sMO1sMO1sMO1sMO1sMO1sMO1sMO1sMO1sMO1sMO1sMO1sMO1sMO1sMO1sMO1sMO1sMO1sMCuxF0EAAABjdFJOUwAEMQL+BvenBwP9PuiVzfueCI71+uABg8ZFKwxP1RFUFrsgxaaHJWirSe6MC/MQltkVv+MF7QrycXb8OBmfPYAepEJm7EzSDrNWNxjCYOYiJ63wLA3WdLfbWn4cX9r4mW+yEraDiAsAAAHjSURBVFjD7djpNkJRGMbxynak6ZxGpcwZogwJkbmMKVOmSPHc/z0goeEMe+gLy/8CfuvsD++79zom039/M7O5O46lWrV0w3l9AV5exZ1A7Rl4rgXED1bBexXhw8X3UG8vLggVvJ+QtyDmTB2i0eGUiGN1ki+IOK0CUGQW381G+J3HCTQ18cjr9A5sNEMbA72c0L4DLTn2+ZzRO7R1N8rj9N/62iHfbT8HlPGjI3+G3TmagUozR8xDPy2pQdI06xoYvIFqN4NszqoCjZRVJuhkTQtaO2Fxxl3QzDXOMBtzNm3INkc/KbEcdMrFaJ3NJHRLblLORlnWh+Qy3aTYl2HQsp3GGT6GYcfDxk5PWjKGpHSP8YV4D4ruDS/MUpTQQCRaMoCevKDK+6TvXAyBsqELPce9QGghsuDWgUauQN3ViLazGwRDwV3Nt+KkjQWyTWq9LUMOMOUIqTtLY2BsbEl16Nd9rJBvXW0NnPrBnP+005m/BEeX8x1Dn5V4ICnbvgauF8HV4nWrE1bAmRJugR4SvFDiodk5d4E713nThegh/BDx/FyYBysQaOXgy8mfQaizfGM2dmQxSN75nJTtIgQrbtc/yAPhPB+fZHaKQ876irNv9Qm21XgLpNxWodyp/18av7Q3OGLVS80ngW4AAAAASUVORK5CYII='
p45
sb.