ccopy_reg
_reconstructor
p0
(cemoji
Emoji
p1
c__builtin__
object
p2
Ntp3
Rp4
(dp5
S'emojipedia_url'
p6
Vhttp://emojipedia.org/medium-white-circle/
p7
sS'index'
p8
V1278
p9
sS'code'
p10
VU+26AA
p11
sS'apple'
p12
S'data:image/png;base64,iVBORw0KGgoAAAANSUhEUgAAAEAAAABACAMAAACdt4HsAAACBFBMVEUAAAAAAAA/Pz9ERERHR0dLS0tJSUlLS0tJSUlSUlJOTk5VVVVOTk5aWlpRUVFXV1dPT09bW1tQUFBSUlJXV1dfX19WVlZgYGBVVVVaWlpgYGBmZmZaWlpgYGBZWVlpaWlhYWFjY2NbW1tbW1tmZmZeXl5mZmZtbW1hYWFpaWlxcXFiYmJzc3NoaGhra2tubm5jY2NycnJmZmZwcHBlZWV0dHRnZ2dwcHBnZ2d3d3dra2t0dHRpaWl3d3dubm5sbGxubm56enp8fHxzc3N5eXl3d3d+fn5ycnJycnKBgYF0dHR4eHh7e3t8fHx/f3+CgoKDg4OEhISGhoaJiYmKioqNjY2Ojo6Pj4+QkJCRkZGSkpKUlJSVlZWWlpaXl5eYmJiZmZmbm5ucnJyenp6fn5+goKCioqKjo6OkpKSlpaWmpqanp6epqamqqqqrq6usrKytra2wsLCysrKzs7O1tbW3t7e5ubm6urq8vLy9vb2/v7/AwMDCwsLDw8PFxcXGxsbHx8fKysrLy8vOzs7Q0NDR0dHT09PU1NTV1dXW1tbX19fY2NjZ2dna2trb29vc3Nzd3d3e3t7f39/g4ODh4eHi4uLj4+Pk5OTl5eXm5ubn5+fo6Ojp6enq6urr6+vs7Ozt7e3u7u7v7+/w8PDx8fHy8vLz8/P09PT19fX29vb39/f4+Pgt2rjxAAAASnRSTlMAAQQNEBETIS0tODlEREhIS01PaWlpcHB0dHSCg4SUlJWVlpeXrKysvb29xsbHx8fKyszMzs7S0tvb4ODl5fDx8fHx8vL8/P3+/vQK4toAAAWMSURBVFjD3ZdZcxvHFYXPvT0rdpCimFJUsi0rDynZlSrl//8Fp+ynJJQVWpEjiiQIgCSAWbr7+GEWDEiQUh7t4QM29te3z10b+N0/8uAPUdIPE6PwLitXWcH/C6DpZPp0EgRqBHTe2sX5fLHxXwqIxsffJklkVEQEJOldkWU/f1oWXwIwT17+uR8HxpggCIyAzlrrnLP56td3l+6zgOmrF8PUBMGgN4iNAgC8y2/Xt9a6zc37t/PHAcHXfznqBUFvMo3h6EEBBSoG+XyxtnZ9cXJqdw3e+ZS+fn3UDwfPng9QWrbC01tnhoeRZdSbhkv7IGD45ttJHB193bfWQ7oP6B0HB76QeDSYFw8Apn9/MQ77Xz21JQDdPZ0StDhIMx/3hotsL2D45vkoGH2T5l4hInJHKoE4m44zG8W9WbEHkL55MTLDr4KiXrwrL6svbDjalFGcXNh7gPC7b4ZR/3lYiMj++CIEsGFv4zTWS38X8PKv4zg+GhS4Y/zdx8WSUZPs6g5g+rcnaTI+tBTBQ3kDAqBPrYVGs2wHYL5/1o8H48hDH8tQQAhVayF6xi7g6etx1I9HHo/bX0V2kMNqMFtV/q0UfNUL4zhUgnx8NQlqGMdh71XYAUyOU5Nq4IEqfUnukrZfCuADTU16PNkC9Fli4kik1gm4H0jtZwIQiWKTPFMACAAgOU6CVIVsBfQg2eAEEJH6JyFIZZolxyfrBnA4NGEkhmWAffZ3rBARoKRxUWiGhw1ADiKNVVV9KSAItPvtxIAHBAJSQcbr6OADK0B0FAWximhlb734Ti50BIJSNA6ioyivAEmoQSCqaBB7YkmqXCAA8VQyCDRMakA/FaMiop002qWwsUFAQOlF1EjaX1aAWNUYVdVaZ9xLx9p+VhkpBGmMalyLGAq06gF14dhXrimAUAgQIiKqkLAGGIUREW3El7tmEKA0MUEh1YsYqGksAEQrDdtD7JxCQAFZy0DxVEKAxgIAooJGQxEIhFsZWRtfpRoFSi+1YAgAlL4NYmkA0K0OUhG6LhGA9GUNcPSuDdTmbyslIahaFIVglTJC5+lqQOHh6mhvjr/1Rh1DjSMorGuegy9qQO68JURURLaH6HpBUG8tpBDqBbTe5TVg5V1RhnXSC6R1QicWhFItb9IhK5xfNRasB3nRh1QVXQSNFh03tpZI9SpF7tZ5XZGK89Jtmg21OkrN2n23zVjIxpXnjQacl3ZlQ1Da7XfimZ2jUEkQUq5sOWdTE6/W7vZauC1eza5tKWoEqsWhXN+69VVbVLOzvFyS2Pk36UwIkB00yGWZn2UtwH8s3GKhbPJgmwvbTt1qC4C6WLjio9/2heUsz2estK4Nb+Kp+65+ITjL89my01jKt5mbXyi5rSjodLka1GhKvZi77G3ZAWB2nhVnK5BNquwrilVikFidFdn5bKc7c/U0dP4QHamlKQzd8kiQHv+ZFTc/bXbngwzTIMeUkJ16VFXAOptIgt7LLx/L9b8+3p1QbtO+rnRKtGrLvt7sqe/fF5sPJ/dGHD+fxHojE1DQxFS3rJOEp6P8clpmFz8W96c0ezUNdcmpUKTrjOrklf0OeHdqN1c/rPfNicViGJqbzTBxbW1tGwJB0nuz/vevdjP78Xr/pJrNRj64XXJUzSms15EkSO+BDycX5XL+j+uHZuXiPEnFLm61p/V4UC+m9xR/+fN/18Xmfz+tH57W7WUxBFezW58EgK/8Rk9Ayk+np8syX//zpHj8wnHw8jgKTTiajIeJ1lcen90sF9elK4tP764+f+U5fHkYGWOCpBeFgcLbslhn1jlXzN7NPn/lARAN//Q8CoyoNOHv6Wzx4ezmiy5dAKDJwfhJXxUKwMP71eXyKvvia1998UyTKDYGzuVFtimIP+zzG0TA2+WFAqqaAAAAAElFTkSuQmCC'
p13
sS'twit'
p14
S'data:image/png;base64,iVBORw0KGgoAAAANSUhEUgAAAEgAAABICAMAAABiM0N1AAAALVBMVEUAAADm5+jm5+jm5+jm5+jm5+jm5+jm5+jm5+jm5+jm5+jm5+jm5+jm5+jm5+grtndMAAAAD3RSTlMAIGCPv9//AFCf70CvgM/BTNtMAAABJElEQVR42u3YUZaDIAyFYQJyJVHc/3Kn0+mUtuegaO7bzLeA/0mBJOyQmKaMhzylKHNfmDuKPhtN1nIuJMnQYUmGQ8uKXesyFBLFIZXjUDUMsHoQkg2DNtkLRcMwK/1QxSm1F1KcpB+h1nGUgqPTSq+hikvqZ6jgovIeEsNFJm+hDZdtr6EKh9pCYnAweYYULvobWuC0PEIrnNafkMBN7qEEt3QPGdzsO1RAUG4hBYHeQhkEeQ4CCgkRFDEkUKQwgWIKGRQ5gOQ/9KdDtA+S9ovQflreMSKgENZRSzv8adcR64LkXtkCN2E9a2gPLdbTj/YYZT2PWQ922gjBGmpoYxZ/8POUlDsc88f1pjgWCI6VBmfJwl778BdR/NUYf1nXnFoffgEORH1qQbrePAAAAABJRU5ErkJggg=='
p15
sS'gmail'
p16
S'data:image/png;base64,R0lGODlhDwAPALMPAP8ANKEpAP8bTMgIBK8bAOcAGf4ALpoyAP8gU/8LPv+Ctf9dkP8yZfQAJvYAKQAAACH5BAEAAA8ALAAAAAAPAA8AAARG8MlJq71YJIClYYtgAMVlLIoIAA1hMUoyrsZQAQgy00NAJQzZauXo/RCbIYlwuClJxkqhYTA4CgPmhTDoEgLNTmDcKZstEQA7'
p17
sS'related_to'
p18
(lp19
V\u26ab Medium Black Circle
p20
aV\U0001f534 Large Red Circle
p21
aV\U0001f535 Large Blue Circle
p22
asS'name'
p23
Vmedium white circle
p24
sS'known_as'
p25
(lp26
sS'default'
p27
Vemoji*
p28
sS'bw'
p29
S'data:image/png;base64,iVBORw0KGgoAAAANSUhEUgAAAJAAAACQCAYAAADnRuK4AAAGjUlEQVR42u2dLzRsQRzHNwiCIAiCIAiCIAiCIAgbBEEQBEEQhA2C4BxBEARBEARB2CAIgiAIgiAIgiAIgiAIgiDMO997zjrOnrczc/fea2dmP59zpjzvefvnc2d+M7/fzNQMQAFqfASAQIBAgECAQAAIBAgECAQIBIBAgECAQIBAAAgECAQIBAgEgECAQIBAgECAQAAIBAgECAQIBIBAgECAQGHy9fVlHh4ezOnpqdnY2DD1et1MT0+b8fFxMzg4aGq12k8bHh7O/nx2dtYsLi6aRqNhzs7OzNPTk/n+/kagfuH19dWcnJxkErRL0m2TXCsrK5lQ7+/vCJQa6iGazWbWewwMDJQiTaem3y85r66uECiFIero6MhMTExUKk2npuFQvVLqQ1ySAmmYGhsb64k47U0CX19fI1AM3N/fZ0NVCOK0N8VJisEQKFB2dnYqj3GKtqGhIXN+fo5AIfH5+WmWlpYKzaLm5+fN9vZ2FjNpuNH0/uXl5afd3d1lgbGm/Ht7e9n/Jxm6/T8leyqxUdQCaUhQsJr3C5ycnDS7u7uZGN1+kfp3t7e32e/R78v7GpaXl83HxwcC9Qot4uWdYelLUw9TxdN/c3OTuydUvBb72lGUAmmIGRkZySXO4+PjnwXyWgvyfW1TU1NRSxSdQIpJfKfoGlo0TPUC9UhKf/i8zpmZmWzdCoEq5u3tzftLWV9f7/mXop5FvZ/P61UuLsbAOhqB9OH6rPEox3VxcRHUa9fszmeJQUldBKqItbU1ryl5qKu+Smv4JHCPj48RqGz0ofrIowA2ZCS3SyL1VJokIFCJQbNr0U4feq+C5bxoeHUNZ1rbiiUeCl6g1dVVZ+8TWszjQivaqQxlQQuklV7X06q0QIxsbm46h+QYVqqDFkg5KtuHrJ/HmlPS63alQJQmQaACvY8rs610Rswobou9FwpWIFdeaX9/36SAaygL/X0GKZB6FlvsE0t84IPKUWx5vdHR0ezvIFAOFBjbnkrV5KTEwcFBtLPMIAWyBZeKfVLpfX73QupVO71nrcIjkCfPz8/WpzHkD7MItlSNhrhQZ5vBCXR4eGgVKPR0Rbeo/MP2vjUrRaCCsy8FlCljK1UJNe4LTiBbsViqw5fPMKa6IgRyoAIsWzee2paYdrQh0rZBEYEcqNzBJlCKG/N+o/jO9v5DLHsNSiBbllozkdSRIDaBNENFIAtatrcVyPcDttqnEGdiQQlkW4Gem5vrC4Fse91CPDYmKIG0k8J2OEE/oAel02egIR6BupzGpj6Fb2GrgUIgBEIghjCGsCiDaD2ZBNEE0UzjmcZXBwuJLCQWwpXK0OEKKaMjaEhlFMCVTL28vExaIJKpJWAr59AOhpSxHQVDOYcntoIyHcSUMhSUlYCrpDX2zYSdoKS1JFxF9TqON0Uoqi8R27YexUip3T/Btp6ScW0s1GlfKcHGwpJxbW1OaVVaaztsba4A11nLempTYGtrK+pt3MEK5JqV6KxBHX8XMzoL0dbT6j1yvEsBbKUNagsLC9HKo4mA654P9U6hE7RA6oVcR9zFelKH61wgZeVjyP0Ff8imrcisdUJrbHeUahbpejCUF4uB4AXSZkLXMb/6eSyHLvicFc0xvyXTTweN6+ccNF4BukfCRyLFTaEOWz63HIZY95yEQOrSlY33uWwltLohLlsJBBWcaWXW5/qkRqMR1XVPsZ55Hd2Fc8rW+95WqGD0r24q/N8ShO/dZrq1MOR0RVICCUnhK5GGDg0Nf7Vq3bry0vcKcq687BFKuPo+4S2RtKZUVUGaCr5UTZnn7nou3Q1gjUhPcN4rtzW0qTCtyA3O+ne6qkAr4d28BsVGscsTvUBCsUOeW5L/twip2Z16J82WJJXWYTTktZqGJa12a4otYfTl2wrAXE31TqkUxdVMIuhLyTN89KJJ1tTOeayl9GbUU7gy3L1q6rVSPOOxZhJEqQ/fu+WrbtoQGOpFwAhkQYuIimnyzNTKbOoJFTOltgGgbwT6PVtqNpteaZCiTTGYAvrUt2D3lUDt037V2dTrda873H2aZmOKb5QsTf3wh74XqH2I03RdQmmlWlJp2NGQ1y6XJNGfa+FPPYzybBqetCgZ4okZCAQIBAgEgECAQIBAgEAACAQIBAgECASAQIBAgECAQIBAAAgECAQIBAgEgECAQIBAgEAACAQIBAgECASAQIBAgECAQIBAAAgECAQIBAgEgECAQIBAgEAACAQIBIHyD0nipR32erRKAAAAAElFTkSuQmCC'
p30
sS'version'
p31
VV4.1\u02b2
p32
sS'uni'
p33
V\u26aa
p34
sS'desc'
p35
V\u26aa 
p36
sS'browser'
p37
V\u26aa\ufe0f
p38
sS'annotations'
p39
(lp40
Vcircle
p41
aVgeometric
p42
aVsign
p43
aVsymbol
p44
asS'wind'
p45
S'data:image/png;base64,iVBORw0KGgoAAAANSUhEUgAAAEgAAABICAYAAABV7bNHAAAAAXNSR0IArs4c6QAAAARnQU1BAACxjwv8YQUAAAIVSURBVHhe7ZktTgRBEIUHHI6gsQhCgoIQBA6CQCBIOAA34A7g8CQEDoDD4iBYJChOAAqHhPeW7mRSKZid3e7Znt33JS+1I+avpqq2uroSQgghhBBCCCGEEEIIIYQQDSxDR9Al9AJ9G31At9AJtALNDHsQX9w6pEl0Is+dWhgFD5D38m1ER21DnTAXbG6YJje/P10eoXfofnBUVZvQEnQ8OPI5hy6gz8FRjzmDvEhgmjFlFqH/YLSwTnnXYEQ2nV80nnOYIutQW5iiXu3qrZNOIfsyjIRxX8a7Lh3XK5gW9iUYTalgatrrs871AkaI7WtyfGEvkthbFQ+/ZP2h2fDlqhG2bUgZpdmw0ZMz9Fns6/eiio4iW3tyRk/E/rMx9ZIxH2wqDoKNXEG5G7nrYCOHwRaJTa8ulgRMqfo9qWL7okk9qP0wozSiLilTzBtJdLVOeg02OSkdtBBsCWwEOzapi/TUkdJBX8GWwHOwxVEvlFRXRZr9Vv2+yYp0aqbubz51DboLNmIbxxysBhvhdLLYKeMklhp2wVr82EOL1Qa8cUeuh+7luIMpZaNIAzODF/oauRo0tB+ClNs+PMfWHKq32z4Rz0kUv/qwG4d2ahiV3Tmlbj3vBzsTW8+Rv3ZG24op2sUSZmIwrUZxFB3DczulqxTzYM+yBe1CO9AaVIdTQopp9wS9QUIIIYQQQgghhBBCZKSqfgBtOB9KogGbWwAAAABJRU5ErkJggg=='
p46
sS'andr'
p47
S'data:image/png;base64,iVBORw0KGgoAAAANSUhEUgAAAEgAAABECAMAAAAV8YMOAAAABGdBTUEAALGPC/xhBQAAAAFzUkdCAK7OHOkAAAA/UExURUxpce1sMO1sMO1sMO1sMO1sMO1sMO1sMO1sMO1sMO1sMO1sMO1sMO1sMO1sMO1sMO1sMO1sMO1sMO1sMO1sMB30fHwAAAAUdFJOUwAFCrQGmz75Fj/YuBhbnsII+sFfbvp5swAAAHFJREFUWMPt1EkOgCAQRFFAUJkElfufVRdGWdOVuKl3gJ/Q0ChFREREv7LGWEAmnVuM25mkHV/2dtuLl3Xm0B5hlnTWo72OVRDKyxda8nhHu9ZxejhUpz401f9DsKPBho27ftiDxK0Ibmlx3wgREREJXLfzC7mOpm51AAAAAElFTkSuQmCC'
p48
sb.