ccopy_reg
_reconstructor
p0
(cemoji
Emoji
p1
c__builtin__
object
p2
Ntp3
Rp4
(dp5
S'emojipedia_url'
p6
Vhttp://emojipedia.org/blue-heart/
p7
sS'index'
p8
V157
p9
sS'code'
p10
VU+1F499
p11
sS'apple'
p12
S'data:image/png;base64,iVBORw0KGgoAAAANSUhEUgAAAEAAAABACAMAAACdt4HsAAAC+lBMVEUAAAAAXMsAVcAAQ60AR7gAVcMAUcEAT7oAU7YAQ60BQ60AX84AZM8GT8MAQqwAQ64BQqsAZs4AWMgAU8oAWcYAV8cAUsoASr0ASLgAQ6oAZ9EAXs0AYcwAZs8AZMwATMEASbsASbsAQqoAQ60AYcsAUscAUccBRrUAQqsAXcsAXc8AYMwBQqwAYM4AUMgAjvwAkvwAgvwAkPwAivwAhvwAhvMAifwAjPc+lvwAivUAfOgAi/wAkPkAhfwAjvkAceIAbdY4lvwAf/wAhO8AePkAc94Bc/gAhvkAe/QAc+oAf+sAfOwAeOMAYdEAfPsAg/UAiPgAcN0AhfIAgu8Ad+YAgvoAfPgAbOYAgewUiPwAbvUAafEAduEAf/UAZuAAdOQcjPwAatQAdfQAdO8AZdcAbdoAZdQLhPwAbOwAX9k/lvwAeegAefAAbN4Af/AAcvQAWNAAZuUAa9wAadgyk/wrjPwCevsAYd0Ab/AAZegAZ9sSe/ohgvs3j/ytxvaTtfRune7Q3fUARbIAR7wAUc8ATcgARLiiv/XX4PQASsPd5fUETb4AR8AARLAAVNfE1PWiwPm2zPYrdug1eOOnwvcdZtebu/YMWM2XtOqHqN/J1/QASbrf5PDs7vUAQrWQtfmWufkAYORPkvkBXODm6vNaj+W8z/UAVdN6pO9Cj/smZck1b8utweUfZNFcku6atOGnxPpLlfxonvtTkfWLru+OreB1pPYRYNqJsPjw8faoxPlgmPZom/Vun/a4yuqKsvsAWtupwvRMgdV8oNxWhdKgueR7qPeDq/WcvPiDrvsAZu18q/xKjfUPb/I3g/IjfPYVW8hqk9SCp+xymtvU3u/O2PCcvfyyyvg0hvh1qP1gn/1GlfyQtv0WbuxilvFDd82Wuv1oof1gm/xvo/2nxfyiwf18rP1vpv1oo/2Dr/0BW9VZlfdMmP1amfyJs/1anP1SlvytyPt2qf1hoP2cvv1TnP1anv1hof1vp/1Mmv1FmP1Smf1Ad851pvvpHf6zAAAAL3RSTlMAIBJl/is0CgT+1tvR/Zt1qrBM8Rc/0IVYRfPlnMSNo5etksVhjdylgHv0cOrB5PV0xRUAAAXBSURBVHhe7JTVjuNYEIZXHW/SjuQkWs10d646k2hn+mK0j2iEMDMzQzMzMw0zzzIzSnvsOLGdzr7BfldJfX+Vjo+t+qCH/1HptRqdzqj4sI8bVCqMOp1Gq1f9Z/u1MTUMOwHwbZOiJ6ZSmAQHq7UD/fsVt2FnKsVCLJtKOWGTXur0aicJXDzOO/VIv9NrYJKlajvbs7N3d2pUioS14unHgLPXL6O7u7OXdTtLwsbBK0+oc7JUffxechGQvDf+N8WSGiGl0oH2nUYiCVhcTDReUimnpneAkWSRu5ZkwWYhCMJiSyZmLyioPWHwFkTVxhM2IuZ2u2MEcNsIS47J+0dICIkWCoS75OUouYnCWs0RN/D9cUd9zcYZwdmS4whEyu5oQA1ZtwuW0kORkmWtabWDexi2W5trhFeivLFC1A6ppe9JCzm2EoQXRX/ogKIPiUiYQZTXESYciaEyhboTWxSkkNygmgo3LGggsDQx8Y5jYmIpEEDdRZoeGqLpYmlTppYCm7HGBWUS34QSHOA+avZ43nfxeDzmzU2/C+A3B4CSOqDubzkg8XtVUEy0FAodPAD8DHjAcxAyY/583oeZeSM6YELeKBMXn8HgCO+asUwm80pCBhDCcBwLZa4azBwJO4a7A25YmxEMS6fTz2SkAZlMul8dwyJN6y3JgODMzMLCwvr6+rcd1mXIBYjOzAStN8QBTPDO/v7+4eHhF3JApW8RhO8EmdHugFEmWKns7e0dc3wq4bh/BUQrlXnG0B0wzMzjlbm5fwCPeX7sS9txqbm5Cv4lI17iCFMu4qurq28FPuvwO0/3b8eDKF4sM+JWUCJlP76ysjI1NfVa4PMrdAwIgSjupxGluExu0vOtF8vLy28AT9r8xPEbD/9TKHMJEHzRmqeHJFtvlHb5Wl8BvuH4juPXHvgir7lcy+eiDdJ1QLvyvunp6dz3HH8BfrkCV+V1DgR9eRfzkXQffFLeyD4/O8nlcpOTk1+3+UOCUAISRE7Onmc3yjdle/tjeiObPTo9f1StPm3zZw9CuVp9dH56lM1v0MP/tlNnS2lDcRzHD84AzsCNCL1AsDfaGXU6LVVEUgQKIYQgIQECssu+L7IpLg/D9KKv4TWP4lP0n0NsrSvobT+XZ+b3nTPJJOg++ertz8k0mUxQl1fD64N6vX5QP7injo+uh1eXVCKZhMCvVRn6x8fuzWQ8TSYSFEWOKvGT4WDw457BYHgSr4xIikokktPx5Ka7idDDK5ydQqBDkeSIZVmXqVKJx0+weLxSMbngcESSVOc8OT09u4ULPLDZrU3G1fNOniRZl8tlegQOWZLMd86r40mtu4UeWvoEV8CBKOsSBNMh2JMcApMguNgoDsAFPijRI5puLROrFvJ0NCoIs/G+ZBYRhGiUzheqsUytq0NPMMAVYr4CTachMBvvYrOIGKDpgi+WObvdRE/RqmoZCDQh4N3D4+8SHPF6hTTdFAM1+AqepNsuQgECQa93H9Zf/oAGBILpZhP2xW0FesZO4MLhazQhwEEAhn8LuxwXhIDP17oIbKBnGco9h8/fDgY5Ttx/k4gFCKTb/oijV15Hz1N+LrayDX87ZOYsdnH/FYgFu4Uzh9r+hqNVXFGiF8hUfT5LQMBqsdvxHhfsdovVHGKILN9Xa9GLFPqSJ8KEccF2F7DhfZiJeEprcvQKjb6UakBBDNhmARsExH0jVdLr0Ks2cnyKYNxSQdpbQ26GSPF6DZrDjlg4dpulgrQ/hn1uA81l3ek5kgqQwA8Q9kee3Baak+GuYLUAq7R3rqN5La/ggvguADw/vDeg+SlxgQm7Q8AdZsT9yjJawJIRF47DgGEa4l6JFqI1OvlshCD8foKIpHincQktSKt28p5sBGQ9eL8wmTpX4h2AL+XwB7B4QVXu91qtXr+slqE3kasC5WKxHHjrHgprAaCC/VspoKCSo3dQrMIP4F00OvSa/34DfidM4c9B1NgAAAAASUVORK5CYII='
p13
sS'twit'
p14
S'data:image/png;base64,iVBORw0KGgoAAAANSUhEUgAAAEgAAABICAMAAABiM0N1AAAANlBMVEUAAABdrexdrexdrexdrexdrexdrexdrexdrexdrexdrexdrexdrexdrexdrexdrexdrexdrex1onOTAAAAEXRSTlMAMEAAIHC/769gz1DfEI+An1KbGu8AAAGcSURBVHhe5djRrqsgEIZR4MdBkVHn/V/2JG06iUHYhzI3O/u7ayZZaQE11f2pfAgenZ7n7vYpLpTkVVqXiKq4rJ856byGtiy3aMetneRW3h6hUKSKArRAUlVCBfEhjx0fpzXnO8RZGmX+j7lCPom0JXUeS14hcBHpSeo8VlihLN3WVbrlD3TKZOcbijJdfEE0DxHg4MUgD4fLArrgkCygBBfEpOBOG+h0qw20OrKByGUbKDsxyiUbJ5mtkRlkd452G2h30QaKVhet5W1ks4A2OLAFxHDAOu+sgAP2eWh/QSizTsEb2uaX+g1xmnOSPvuXOWhRCGVyhRTaJ7dMIdDUc18hIKZvnRQVwtR6L1Bo6scRbtDXhylxBSF8AwXUEM5x58QTNH6vvPAMcR5zMjcgcBl0WhD8wNYljwak0rij0LikTg2pNOgoNC6p04fAeWC/ehCY+g4xGlDV9fN57kPallpM2jACwTcWKnsMQO3/7wdjAGq+USgBGIfqL3UwBiEtkmgUgXFIC1S9JRmFlLpELmUmIIAZMIGAXwn9Ay+S8SMtfllMAAAAAElFTkSuQmCC'
p15
sS'gmail'
p16
S'data:image/png;base64,R0lGODlhDwAOALMPADOZ/1i2/6PW/w00z+Ty/zJr/zN5/wAEnDWI/2y+/x1L5UCl/y+J/zCU/y5n+gAAACH5BAEAAA8ALAAAAAAPAA4AAARZ8D1Am5EGFSUnWAtVGBSAcFMiCIFZAo0zPItACO9rDMxCEIlGjrKb2ILDRmHGCAgSQ5Pi8Cg0VKFXbCaxBqAl5YDaKfSyYnKnahCm12vHSKaGSxx0u31qjwAAOw=='
p17
sS'related_to'
p18
(lp19
V\U0001f49b Yellow Heart
p20
aV\U0001f49c Purple Heart
p21
aV\U0001f49a Green Heart
p22
aV\u2764\ufe0f Heavy Black Heart
p23
asS'name'
p24
Vblue heart
p25
sS'known_as'
p26
(lp27
sS'default'
p28
Vemoji
p29
sS'bw'
p30
S'data:image/png;base64,iVBORw0KGgoAAAANSUhEUgAAAJAAAACQCAYAAADnRuK4AAAH0klEQVR42u2dL1AkOxCHVyBOIBAIBAKBQCAQJxAIBAKBQCAQCMQJBOIEAkEVAoFAIBAIBAKBQCAQCAQCgThx4gQCgUAgTpxAIBBz9W3VXu3jbXrC/plkkt+vqutV3WMhO/km6XTSnUYhST2ooUcgCSBJAEkCSBJAkiSAJAEkCSBJAEmSAJIEkCSAJAEkSQJIEkCSAJIEkCQJIEkASQJIEkCSAJIkASQJIEkASQKoFnp7eyuenp7+2Z8/f6Ju7+/fv//T3vf3dwFUFSh3d3fF0dFRsbq6WkxNTRVDQ0NFo9HoaBMTE8XS0lKxt7dX3NzcND9fpQD56uqq2NraKubn54uxsTFnWzG+z/r6evP7/fjxo1ZgRQ0Q0Hz//r0YHh42O6DMvnz5UiwuLhbX19cD6xwgPT09Lb5+/WrC7WMAt7OzUzw+PgqgbsRbyJvbSye4bHx8vDg4OCheX1/7Ntr0A/JOBoiMTC8vLwLIR4wO37596/kN9gXp/Py86xGJzwHiyMjIwNvK3+BvxTi1RQMQb9ns7OzAO+OjMdJ99g3HAZ6Zmam8rWtra5X7c7UAiA6ZnJysvENaNjo62nS2fcSoxc+HauvCwkLfpt8kAHp4eOiqQ3A0cYxZ6RwfHzcdWIyVDNMgI8RnpkJ+ls9bYhr5zO/Eeceppj20q9VG2ovfxOjXzXefnp6OBqKgADEcf2bkoTPoCN/VCQ7u5eVlc+lPZ/r8jd3d3Y6/C1B9R7PNzc3mMt63k3/+/Fns7+83ww++z2JlZUUA8RB8HhZxEjqkFycSP4elsY/Ty899Fh5eBEaWXkYGvh+/w3dUOjw8zBcgRgafh0THtA//vRoP3WfUOzk5+Tdt+Tji/Hy/2ui7umNUxX/MDiCmLpbRoRxRX58I2HynvlBGxD07gBhRYu6UuhmB16wAwqcpc0RxKKs2nxVWiHaV+UREq7MBiP2osuU5u9YhhP/hgoipDEc+VJzM2iqhbaG2OyoHiLfFAihUJ7U79x87C4f29vY2aLtY5lvPjdVbFgBZRxuI88QgotIt55n/MmqGFjEtaxQK5UxXChDHM6y3iAcUwsfoZK3OAqBY2mStCPl/IaLTjZiGYVlvFmKarRQg9oTU0YOzVvAzWYDm5uacX35jY6P5Bslss7Z/2HJJGiBrs/Di4qKQ/EIN1nmhpAGyAnW/fv0SHT0uRNiTSxYggoPW/L29vd08SiGzjaMi1qmFZAEimipHd7CGiyCAZAKok56fn82sA+ZvmZ+5AopJA8Rpu5icvzrLtZolqyXpVZjrEBnxIal3gEKck64UIFcQjPMukp84zekKh3w8y50cQBQ7kLM7ODs7O0sboLLDZLLeLMRBvEbVw28VueQ5WggHunKAEJumrqW8NkttY7/wswmRyQFEFqbrIfjmp+cqfBzXsyPOlgVAyJWVQQqy5JbrOEzIOFoQgDgA7krmYymqTdP/G8UYXKMPiQBZAYQzHbJESkrGaB6y8FSw3HjFhPpjZSVpkgWoLD+eZak2TuebqU6uZ0QNpNBl74KWd7ECizGULolBVmmZ0MmOwQFCJMS5csTqUOZ2kKJogmvfK8T55ygBIn7hyrhkiI6pHmCVYlvCFe4guzeW0r9RFNl0LetlcdYPiA4gRPVRweFX6jcmRQMQxQOoPipI7HJ/sV0oE1WlevbJXP5Qq0pG+203qRlTk+u8M/9+f38fna8W3V0ZFPKu0xvYL7FYsEZgnkuMivKyFSv2wYZiCvdsfQyqWj4gSZexKtrrnlzxoRZEVDpLxaw7QnCaY35hogWIIX1QVz7VxbjKIfY4WNQXzhFMC3kJS0hjn7AO/l70V14SqbYg4ihsHact6zgLEei6bOPU4s5UlrhWcU6OhtRJ1vUJvBB12gOsza3NVowoVHm3bmTVogaekFXnkwYIUVzJgog9tZgDhbTPBQ//HsPxjKQBQmRuDOKC29AXu4Q815wVQIj8qCou5k25umrWACFypFKAKNQVBdkD5AMRKUIhfR7ScSx46rZ6TA4gVFb9PpRvwc66BXeIms4CyCEO4Ft3SFR9WUr7ZS2u+71S2RBOAiBk5ZnRmWxKVhVltlaJKcGTFECozOcIbanBkxxAMUMU+7EMAdQmVw2i9qzXfk5Z1iUyqY48SQNUBhEbs/26b538LCtFO2V4kgYIWfeT0em9JudxXofkx1zhSR6gMojo/IeHh66ChHzOKnyQAzxZAFQG0SCM89wclM9BWQDESGAd0u+nMaqlmnqULUCIEaFstdQPeELUahZAFYmRwfJbyg50caDNtUXRD6dcANVAdLLrshIgcI0gpNe4PsfWBUduc1Qjxy9tHdInQ7TT6okcLddpwqo3awVQBGK6ck1HTHPtdQqtzNEQF5wIoEhkVX73MdVxzBwgxKlF6w5S1yhFWCCHQKEA8tDy8rLzsHsngJjScgkUCiAPscJyFbTstBEb6mITARSx2Nsqyzera/KfAKpIZdViQ93JJYBqJNfFwHKaBZCX2O74WE6Gogc5blMIoC718WrJ0DfiCKAaitsTra0NSQCZYsqiihirM0kAdaW6FXsSQJIAkgSQJAkgSQBJAkgSQJIkgCQBJAkgSQBJkgCSBJAkgCQBJAkgPQJJAEkCSBJAkgCSJAEkCSBJAEkCSJIEkCSAJAEkCSBJEkCSAJJi0l/Lc97azIKP2gAAAABJRU5ErkJggg=='
p31
sS'version'
p32
VV6.0\u02b2
p33
sS'uni'
p34
V\U0001f499
p35
sS'desc'
p36
V\U0001f499 A blue heart emoji. 
p37
sS'browser'
p38
V\U0001f499
p39
sS'annotations'
p40
(lp41
Vblue
p42
aVemotion
p43
aVheart
p44
aVperson
p45
asS'wind'
p46
S'data:image/png;base64,iVBORw0KGgoAAAANSUhEUgAAAEgAAABICAYAAABV7bNHAAAAAXNSR0IArs4c6QAAAARnQU1BAACxjwv8YQUAAANcSURBVHhe7Zo9aBVBEMdnYy3WtmJstBEbK4v3CjFWETRBEFOKGrSJIIKiIOJHoYipDUp4z4BWGizeK0REi5Q20VYEW+s4ztzOmRhekp3bvbt3vPkVdzNbbPL+OzO7t7tgGIZhGIZhGIZhGIZhjBRO3mno9Caox5PU7SFAHAfn9mbtiL+pbRUcfgGEtzDdfpe1a+n2r9DzOPW3n/oe940Ewgr93V9kfYap1h3fmIY0AmXCuMtknfANO7IMazgHZ9tfxd+ebv8miXLhn+DbkQ0GvKZBmPENccQL1Ok9p3/8vHjh8A9x7tG2I77YOwi73DxZx3yDAsSf1P916n9BWgoRJ1C3z6kSGjWDQVwYONoszhi8oR+5nkpFQHgI061r4qkpLlAKcdZZopE+I3Y6cXIiRBqTtw5Oq3TiMKeh03+QWanFYRzM0YDqywChjyA/kzz2TnI41WgWJMFSg/iNUvmAeMHoIwjhnFjpQbxHz/TiMByR3d4z8YLRCcTR4+CIeOkJmcZjQJgUKxhtBJ2SdzPhAeA1lQKdQIiHxWoyR+UdRLhAWXq53eI1F/5MUaCJoD3ybjbK5UO4QIj7xBoptEV65FAI5Hg7YeQIF8jBD7GaDa+oFYQLNNV6Qp3zXkuzce67WEHoapBzH8VqMu/lHYS2SKs6Hzp4E40zQYFOoCzNYEW8BuJeihGMNoK4WL8Qq1lw9BTYNNML5EP0g3cahHP3xVKhF4hZw4sNm9F4S1dVe3KKCcTHNXwi0QQ4tdbwtnhqYk81XtGznB3AdMxQ9BQ++klxLraq/UKujMgjH6ZYim3kD0xSGKuW7xWxFCsOEy+Qr0d3h6xoL1NarZ+zRRCfYjl87oT4lMSqe9eRxZkQO5p0AjH1i5RUHCatQEx9IiUXh4mvQZvhKdW52YoLdyniMOkjKKeMM/aB4DxMtS+Jk5z0EZTDsxsvAcr6buNZk9c5JYrDlBdBG0m94vaXr2azdC6ZagRisust2TW6uOLNtY0jM/T6XiTVCcT4Ge5GRF36/6JVBZRXgwbBKVGkLvlV+q2qxWGqjaCNhKacXy5cLXx1OJL6BGL4+jDfVtsq5ba64Fkh9QqUs/kqMUcNfwBXMEvtxHAIxOQFHOBT3VFjGIZhGIZhGIZhGEMMwF+tlgrKkuF1mgAAAABJRU5ErkJggg=='
p47
sS'andr'
p48
S'data:image/png;base64,iVBORw0KGgoAAAANSUhEUgAAAEgAAABECAMAAAAV8YMOAAAABGdBTUEAALGPC/xhBQAAAAFzUkdCAK7OHOkAAAHXUExURUxpcTe04je04je04je04je04je04je04je04je04je04je04je04je04je04je04je04je04je04je04je04je04je04je04je04je04je04je04je04je04je04je04je04je04je04je04je04je04je04je04je04je04je04je04je04je04je04je04je04je04je04je04je04je04je04je04je04je04je04je04je04je04je04je04je04je04je04je04je04je04je04je04je04je04je04je04je04je04je04je04je04je04je04je04je04je04je04je04je04je04je04je04je04je04je04je04je04je04je04je04je04je04je04je04je04je04je04je04je04je04je04je04je04je04je04je04je04je04je04je04je04je04je04je04je04je04je04je04je04je04je04je04je04je04je04je04je04je04je04je04je04je04je04je04je04je04je04je04je04je04je04je04je04je04je04je04je04i50V9gAAACcdFJOUwAE/gsTLAMB9MHJH/3yDwj59uAhIK/79eQHDL76DonwF98pCt3W6ivKsGLOs0tJFVDvEZfaGz8l7tQQNDnjTRSfR1vC2wJjq/OLdvwocDLrBoQSnTCBpdNS0h3H0ZN0txyDZKdFJsvQkrZUWTpexekqbU5T+He6fL/tkLSVexniHsNrUXVWGL08YKjMrXlPXQVC7HrhjnNokYAJlPex0D0AAAIkSURBVFjDY2AYBaNgFJAIlIVZWdWjlNmxSDEqKLGyKgWxEWEKn6Mnp6qQomI4p7FTKqoGfb1QHW0VISEVjTAtEQLGMOrp8M6BAW+TGhuEUdxeeeJwKbFIX3t85khN9p+DAiQSTSEy/NndTCgyYqI+uM1h9hScgwZ4pM1AjhLJkEeXmcOpjsucCb0Y5oAcVWpqpNvIhEWmLAGHQX2T5mADAtqchlgleKoksZpTxzmHRGBhh80c9iYZUg2aE2+FxaA2LpLNmeNhgMWgLEHSDZoTjBlKrnJkmDMnRgEzLYqSY5BaCIZBLNHkGMSri2kQFzkGcURQy6BmahmEGf9W7eQYVNmBYVCAAzkG1QtjJsgWHjIMkubDNMjMgnRzmOSwlN5GzqQbZJiCLfcXipFsUKYstnKkIY3kyG/FXkImiZNoUJcUdoNkk0kzx8UPV+nPmk5SqebGjrM+cpQg3hwBOX7cFRt7rj+x5sjMlsVbZXfaEumeGSz4K3/2IlWiCrRAPoLNEZsKwpluyvRZRDRsRIw5COQw54muRDW0mN1c8HorlpvoNpu1ewlOcyyd+Elo/fHF4Yg9DocC0tqR7DnVAljMMdFiJrlJal+ej5EIe/zIadwy2mmgVau1LGS2k33cvZFDuZiR7Ba3/lR4E4WJ05qStjvzTFgjVNOcsl6ApC/EJFFuBgpBwDRQhtGk2BxgUz1QfI60OQMVAHO/l/BoT28UjAIKAQBh4+amfP2jKwAAAABJRU5ErkJggg=='
p49
sb.