ccopy_reg
_reconstructor
p0
(cemoji
Emoji
p1
c__builtin__
object
p2
Ntp3
Rp4
(dp5
S'emojipedia_url'
p6
Vhttp://emojipedia.org/purple-heart/
p7
sS'index'
p8
V160
p9
sS'code'
p10
VU+1F49C
p11
sS'apple'
p12
S'data:image/png;base64,iVBORw0KGgoAAAANSUhEUgAAAEAAAABACAMAAACdt4HsAAAC/VBMVEUAAACGNMB1LKyXO85yRrl/L7STOsmFNLqLNcGPOcd1K6t2LK2bPc6bPc6AMLx2LK51K6p0K6udPtGXO86YO82LNceONsaLNcOON8eLNsWINMF/MLuAMLqHNMN0K6p1K6yXO82aPc2LNcqKNMePN8eGM8KKNcl1K6t7LrR2LK2bPcyWOs+NNsqROMqdPs6ON8t1K6p3LKyXPMx5LrB+L7d1K6zDUPzKVPzKcfzCTvzLVfvKVPrJU/zMVvzDUfS7TPrFUfypRN3HUvzBUPK6TOy+TvykQti3SvjEUfnATvq7Te/BUPfGUva1SuehQdW/T/KqROK3S+uxSOfHUvnJVPnHU/ezR/atRe28Tfe4S/KnQuiaPdKrRd++Tu+wSOOkQt2gQNitRuWwRvHLbvy0Se3KbfydPtTGUvvJU/uvR+muRuK0SPPGX/ybPdm9TfPEWfy0SunGXPyvRPTIZ/y+Vfu/Xvrp3PLo2PTs4vOAL7uIMsd9LLnTp/TXq/h5LbKDMsDZs/bdvPXw6/TWovzkzvTKdfzJgvuTN9bZq/vUnfybTNfeufqSOdGBLcB5KLXWpvnGkO+tXOeNNs3Die7OqurDnd/l0vN9L7bauPSbWcvDfPXIifbEg/PewvSPQcrgvfrMmfPcuPeFMMV7KrfIdPvEefeOMtLhxvXu5/PVovrZp/3z7/WPNs/MjfmcPd/Zr/igPuLbrPzSueXIf/revfitT+/AdfPOk/nRnPi+fe7LkfXSofa4e+XNoe/GpOCqb9WYO9uGOb/ctPnQl/naw+rEd/jMf/y9k9zYtfKZTdGUTseqddLWr/PhyfPMr+B3LK7gwPe4V/eXPdXHd/vhxPeeQd3gvfvYp/3Xo/3BZvrFcvrEbPu4Z/KsYuLIme2qXuK5jNvLq+OyhdTTmf3MffzUnf3etfzSlP3MefzOjvzcsPzIe/vTmP2hZM3PhvzhwfnRj/zPivyjQeXMifzMhfzNgfzRk/zLdfzarP2oQu3Vnf3fufzOgvzQj/zQi/wlnUmFAAAANnRSTlMANaraAwYeCxQpR9LQw6Rhm3Xz5KONR1U+ezCGrfuSZ22X69xfmtKAl8KL9PXstcvg+Lbd9vCg3GwXAAAF/klEQVR4XuyUZXMbVxSGbY0ySqQZ2/qQpq1je6YB25+aTNu/tgxiZmaWmZmZOczMUGacnpXW2rUt5xfk+bCa+z7nnLnau7sVh/iITK6skUjqG06VcdLKhnqJpEYplx3bfrJRsVvkm+bqQ2WyhubLvFQoT5bvr760yzgcWZLMOhzMrkIudnJFweE4yblL1WXaT9TsMll8Y3N1Zubx5gbuYC4rhd03gpsPP/Xv7PifhlkYUS890i+B9vATRNMJaJAn3+JZpkYquPnNAQwcgA0U3OEB9QzJPkY6NRiCoiiCabCZBBlskhb7g+TGDoahOiCAYp3Y6jzJNB7slzNknV/Thupar3O06tC2pbAdbwIlrcLt4SVM1xq/zjtMMwMT5Afu/1cku9qGbO/t7X0PwE98G1lat7OfVVTUspn1JTS+J3KBNj8bVIjPSRm0zyJoXD00lEzevJlMJoeG1HHUZyPqKj+tI2w+nbqgeKdW65BZe7BadAIKPDGAqtNpq/XvAlarNZ1Wb0+1eL686GmZag2BKjlQocBAAm8WTqISNhBQq1QLL0ssLCyoQmsPjMCjtZAKliKnUoUCs/avPy8NaMAJ//ZWb2/vWxGwVFHunh43pTpqtuJ+Ahf+Q5M94VujaNpk6v+jSH+/yWSiaZryeikaBJiS4gS15UvYa0sDzrLrPopyOp23gI6OjltFnABNO/lcUBBQlG+drRIGZCzT05OT7e3tWu1tHu1trbadB1Ih59LJyelpS+aseMDDVGpszGx+AfzFwV3NJSDgY8BsHhtLpR5aMsIOqgiLK5VaXFx8v8+zMuy7RSCVclmIC6UBtcRVr2tiYnT0tyKvjoHXo6MTEy7vVUK4iecJ25QrGu3ufsPxb5EfDsCHhYLu7mjUNWUjzggPEtHywBuLRqM/Az/u85+IUshVQGHM+6ilTniQZOe6bozHYjGDwfBLge/KUnRQBKXjN7ouit6mKo/RPR6JRAYHBw2GlZVfef7h2V+vrBgMUAKF426j50KFwBmPscc9Esnn3wHPPwDn8/nIiLvH6PlE/D34wjbXN3x/ZHn5GqDXvy6LXn+NY3nk/nDfnO3cge/26a65vp/+HL5y597dXE5f5HcRfJTL3b1358rw/+2Wy1LaUByHj0OlMqMbxOsKW9uFVjvTRVovJUQhIQkGEpIQSCCBchOVqz5DNz5Kx/ER+goy48LxLdhl1/8B1KqgQLf9Nskk8/vm9z+Ty7Hbl79/LaG/cX1qXbRtu6EyV2c3t/lvfcnf3pxdMWrDTrYvfr5zokd8gBmSdrahqgwZPK0eN5v5fP5HDzhtNo+rp0GSUdVG1k7CBHMI9akQz6oMQ5JkMBgkiGq1Xj8G6vVqlSDgEtxgGDUbt9sXLSjwhLnzk8tkPHsEApzfegaLDczRUTaevDw5X0JPmXrfum5jg6aRbJDdIp4AApbUNJxvX7fgIXrGQq9CQtNYFhL+R4CCZTUt0Sswj/rggQqZeK4jCBH+vUf4iRDLgyCHC+hzqB9TjoIZPcwlEhWeDfmLxb3de/aKxRAWJBK5w6hZ+Dxgi7C4bpkZMFR4PhQqFksPghIW8HwF8hnTWl9GA/DqVhQLKiCIlUqlr1124TQGggoIMlFLX0UD8cAQUo7DFWJg2OkKSh0BH6lwOQkGWEGDeTsjUGVJ5CI+EOxsb29/B+CwE4uFfRFOlMqU9WUSvYDTYVHpWiC17wvHZDD08jLk91OBWpqypqfQi0y4aSMtYoOiyHcNZEXp5g161oVeYd5Nd4cIK7LcFciyAgMERMmg3YvoVVZhGQ7EFBhkMABw6CzAQZlyL6Ah8GIDHgJ3wCidBYC84EVDsSZQ6TvDQz5NCUtoSFbuDWFFCd/n19CwvPHQBjZEfB0iOG8IK6NsujexQeRSESDFiZCnPZNoBKZmaAoMAQ4I4AeQ3oQ3cFRDWaqJQA3nZ6bQiDinBcooS0DZoAScH8NAU0Y0alC0AC/AGLgcBcs0TdoqTDsRGs+gFyyroDsgP6ZhVgccLjQ2E7P6Oc6Pz+LGxjL6J+Zf/wD85w/+EmK7hegv4QAAAABJRU5ErkJggg=='
p13
sS'twit'
p14
S'data:image/png;base64,iVBORw0KGgoAAAANSUhEUgAAAEgAAABICAMAAABiM0N1AAAANlBMVEUAAACqjtaqjtaqjtaqjtaqjtaqjtaqjtaqjtaqjtaqjtaqjtaqjtaqjtaqjtaqjtaqjtaqjtb2aGAuAAAAEXRSTlMAMEAAIHC/769gz1DfEI+An1KbGu8AAAGbSURBVHhe5djRjoMgEIZR4MdBkany/i+7SZuJa0QJnbnZ7Hc7yUkLqFH3r/IheDzUnjv8Lk6U6rs0TxGX4jTLnGTegJZcT9GKUyud53lpQqHUSxRwzOk6L+EC8as2e4lzN+czxLnelLk/PyCfBGhJ4rRL/oC4CNCWxGlXWCDk+tg8P8+zQFtVtn2gWNXFN0R6iAAHXw3ycNgtoB0OyQJKcKGaFNxmA21utoFmRzYQuWwDZVeNcsnGSWZrZAbZnaPVBlpdtIGi1UVreRtZLKAFDmwBMRww650ZcMCqh9Y3hKJ1Cj7Qol/qD8RJe4g+EDDpoEkg5SoVCKTcuPWAVM9/wm8opm+dFA9Itd4TzhBI9ccE+vowJb5ACN9AAVcI27izoQWN3yt3tCHOY07mGwhchp02BD+wdcmjCYk07gjUkfqOQKOSOB1IpK7Th8B5YL+eIDA9O8ToQdLeOc99SFrSHZMWjEDwue1kjwHo/v39xRiD2l8USgD6UP9HvRijkBTpYCgCw9D1iwgFQAUBYa91F0YDAcyAEpL+JPQDL5LxI3O0ZkoAAAAASUVORK5CYII='
p15
sS'gmail'
p16
S'data:image/png;base64,R0lGODlhDwAOALMPAPXU/81o/sx3/vzu/8xN6J4wnMuJ/9y7/8yZ/8uU/8VF2MU80M+m/7o7w8yc/wAAACH5BAEAAA8ALAAAAAAPAA4AAARj8D2EEhJSmEDkdIzjIIGBiEb3OAcAHI6RjFWwPAwwADRFOYJFgjEYHCy+X0Cx0h2Sv0Sg8TAcjFBKqvAIJFqMZGzq8R5gURu3bGCEHVLF2tMVzDZyOj0QEKj1enwNc4AeeXoRADs='
p17
sS'related_to'
p18
(lp19
V\U0001f49b Yellow Heart
p20
aV\U0001f499 Blue Heart
p21
aV\U0001f49a Green Heart
p22
aV\u2764\ufe0f Heavy Black Heart
p23
asS'name'
p24
Vpurple heart
p25
sS'known_as'
p26
(lp27
sS'default'
p28
Vemoji
p29
sS'bw'
p30
S'data:image/png;base64,iVBORw0KGgoAAAANSUhEUgAAAJAAAACQCAYAAADnRuK4AAAL80lEQVR42u2dLfQNXRTG/0EQBEEQBEEQBEEQBEEQBEEQBEEQBEEQrCUIgiAIgiAIgiAIgiAIgiAIgiAIgiAIgjDveu5aY533sc8+e849987cmedZa9b74bp3Pn5nf519zux1krSG9nQLJAEkCSBJAEkCSJIEkCSAJAEkCSBJEkCSAJIEkCSAJEkASQJIEkCSAJIkASQJIEkASQJIEkCSJIAkASQJIEkA7YR+//7dff369e/x8+fPSZ8vzi89X5y/ANoSKO/evesePXrUXb58uTt+/Hi3b9++bm9vzzyOHj3anTt3rrt792735s2brT8o/N7bt2+7e/fudRcuXFidj3e+x44dW13XgwcPuvfv3+8UWJMGCDfz5s2b3YEDB7I3P3Ls37+/O3v2bPf8+fONPZw/f/50L1++XP0Ofm+d8z148GB369at7uPHjwKoRh8+fFg9iHUeQu44dOjQyjL9+vWrmVvC9+F7N3G+sGCfP38WQNFRfPv27bVHcOQ4fPjwyiXiN2vPFX8f37Ppc4UFvn//fvW5LgIgjORNWR3vOHPmTPf9+/dB54oA+OTJk1s/10uXLk0uPpoEQN++fetOnTq19QeSujUE2xEhjtqUu4ocGGQ/fvwQQL0w+pGF1Dz006dPmzf46tWr3YkTJwZ9H7KkZ8+eueeKLMnLpnLHtWvXVnHS48ePu6dPn3bXr19fCyJcW6sYbqcBgk+HCxnibvAQv3z5sjLl58+f/9+fw4qlNxauBin/kIfz5MkT81xrHzp/H84JaX36GcR9uC7+/yV3tniAkKpGbhbAQB0orbMgO0k/g7oPj0p+6EeOHFkdpd+DpUgh599qCc+dO3f+Ccyj3//w4cPlAoSYo+QO8OcYmWn2YVkeuC0OLuE2uLjYWy48pBJIfUzE32O5UqtWFYEHfy+9NgwADIQh9S187yIBKgXNeCCvX7/+p8LL1sAKKvmhI2PiTAsj3/t9AOZ9BueHuAaWkVP5oZanvzZ255HYEPdjcQC9evWqaHlevHjxT7zElgejtWR5AA8DhimGdTMhWDMU+BgMCx4GwYKHSxiY2sA145+l80HhdVEAlawPHnAJHmRgPHkagYdjDEwbYN4KQWmkoNcXHwEQu0GGx8owETCngtvia4NV6QcG/rxUc0LWuRiAML9VCpjZqly5cqWZ5UnjLsCTjl5Ue735qf6zsColeFDb4gcPeDjmYXgAQynms2KhocXQnQUIgaN3MwBYevMuXrz4j+Vp4bYYHgg1GiuwhxUBEBDcVgkey20hXmKrym7LgieaAaaZ46wB8uaO8OC9kQfLw26LU3ULHjw8jrHSsgCEImIOnn50Ax4Gw7I8HBcxPLA8HDCnbmsoPGMG01sF6NOnT6FRlMu2aiwPwwPLk1o5CNleOoGLz8BSwtL08ETdVgQeTtXhohkeHjy4Nlgoz42NUZ3eKkBejIEbAOtiBcyAh318LTzstlDvSeFJrVNfY0HAXErVcX4leAAGwxOJefprKw1AJAOzBsgryuGm5dwWWx4Eoy3gsSwPuzYr5kFxk+HhgNmCh90WMr8SPJj3Sq/NK4DmpmFmA5A374Ubzm6L57ZqYx4LHsyqp9Vj6zNWnQdpfKlIyPDAslrwpNfmWZ7oPcTU0KwB8iYL2UXgZjI81vQEu7YIPJxtwQqx5QEYkQpzKdsCPFz3YrcFcbZpwXPjxg3XhSGWmjVA0VYIjLJIwFwDD6rgDA9PmcDybAoePOQUHvx7C3j6WHG2AOGGROBBzBOZ22oRMFvzbZHpiUjAbMHDqbo1029dW2lCtz/QujJbgDBiI/CU3FYreCy3FZ2eYDCibqsET1qw7MUtL14YgD9bLEBwWzVzWwwPrEop24ILgyvj82tV5ynFPFHLw24LbhWpPAbI4gDCzfdMb4siIeDh3mYUDdMbDpAYnsj0RG2RsBYevn6cHyykl4zMGiDcuGjw18ptobCWNsDn4ClNT0RT9VLAHE3Vuc4FeNJFhjmAME846ywsVwRLAdpkzMMBc9Rt1WRbsDI18FhtuNx1mFsVMkaf9FYByvXc9Ka3peXhmIfhiU5PlCrMOcvDAXMEHstt8fJmvn6vUW12AHmdgNx5VwsPxzzWcp1WLRmRIiH+nfuZIm4LcPcxTwQeHKVlSTsPEKxApJ6xztxWOj0BeFB1HlrnaQkPz6BH3BbOD9nWEHhwjLHgcKsAwaznUlBveiLSDIb/ZsvDbgsPheOHmmwrCk9pYjTntjjmicAzRgC9dYCs0TYUHph23q0CBUFO1S14IhXmmpgnkqoDHgaD4cG1DYl5vPOcLUC4QbmbgP11UlkN8Gx5eFmNBQ9+ky0Pt4DWZluRNtRotjU05kkPrmDPFiAot9wYRbheaD7zGuAtt2XVeSx4eNVH7dzWkGawVLzeDAOg5LZwnbnJ6DEmUUcFCKPfW+PEN89KZ/G5NGCutTzrzG21sDyAhweGBY+XwbLlnj1AuNm5Yhin11Y6yzGPNase7edpZXlqpifw2xHLA8ByjWQInsfceGq0pc2R1aG5mIenJ7gXOBowb9NtWQFzFB5vJe8YfdCTAAg33uvv7TdDaBHzcBtqy2yLC6CRVD2SbfXtJjiPnLUee138qABB6EvOAYQgmi1PGvNYbisSMLes89TOqkcsT7/0KLeUBwH1FDbfHH2Hsty+iBiB/SjlmMda22XBE1mrXtPPs47bKqXqqdvGAMllXugVmoJGBwijKLcPNNwBbiLDw3FRtM5TcluRfp5aeCITo+m1AfbcKl5tcTcgrS8tSbbgYTBa9vNsOtvqldtQAfdgShuQT2ab39LOXNaiP6ufh1saWvbz1MIzxG2VKtBjtGzsBECeybZaFTAKSytGawPm6Fr11jEPhLQ8F/egFjS1zcYntVO91+4BEPoHZrktHpktWzJqs60hMU+u+JnuxTjFVx5M7l0Z3gYMyNhww0vwtCwSbspt8eoRBMXe3tbsvgWQI28hHZt3K+ZhMPgztRXmVv08XMMqbSU8he18dwogqxkr0gMT2dCy1vJE+nmiRUIuQ3g9UviNKWuy7wuzHnSu9SOXqreCJzqrXgOPNyfIO3gIoIGCO/JebNJXmi3Lgx3GWritaD/P0IC5BA9+d+rwTB6gvlLtrQdHfNDC8kSX3lgN8DWWB+c9ZFGBAFpDGN3R117WwrOtIiHkvfUnLVcIoIbifX0i8EQnRiNr0lrBk9sNNmfNBFBD4fUHHkRpamy9AXGMZrBUuX2oc031AmgD8kYw3BymAjZZJIz2MA+BB+e9C29ongVApWo1HgZXdFvNqkeLhEPhib5uUwA1VPSNO9YO8JusMDMMJXjGfNPOogEqWSIc2LyyVbZVE/N47hYdl7tseWYBkFWXyT3UFjuDDYEH/d4ePNzPLYBGFG+fYjWo12ZbNRVmZIvp/kR88Mv0BNDIKr3Zjy3BJus8vKHnFF5HIICCEEXeOrhJeHhbvam800sADYCo1AbCjVnWhpY1ATPckjfdwuvcBNBEhSIi1otHVrzyJt4WPLxiZGiRcIqN8AKoINR6vBfVAiLexBttI7ytHG8xY6XeJXi40V8A7ZAlKr0d2kvVud3CWg3r1XnG3DVMAG0RIqtIyFYl99YfL2BeAjyzBygCEe9wEYFnyTHP4gCCrGU+1g4e2AamBE+pzoOSwNQW/wmgBoKbyvVXAxqk86W3GGIrOQ8efgeqAJqZrBWt3vQHxzye27JeDiyAZih+j0ZkW72S20LJgN91JoBmLLiinDXB7H4q1H28CjNiq7H2aBZAI8prSOtjn9LcFtzhrjXBC6CGyk2+YiP0UkuG9S4OAbQwIeiNVqvn3pYhgCqF+MXb2CoSJwmghcvbFczaJWyJ6boAKijyZhxYKn4dlQCS/srb5AkWiouLkgD6n7yNPufe1yOAGsl6sQnW2C9tjksAraF0rRlqQUsvFgqggcK8Vu/KltIYJoAaCytLUZHehW3mBNBEtesbHwggSQBJAkiSBJAkgCQBJAkgSRJAkgCSBJAkgCQBJEkCSBJAkgCSBJAkCSBJAEkCSBJAkiSAJAEkCSBJAEmSAJIEkCSAJAEkSQJIEkDSmPoPKy0mawrxWKUAAAAASUVORK5CYII='
p31
sS'version'
p32
VV6.0\u02b2
p33
sS'uni'
p34
V\U0001f49c
p35
sS'desc'
p36
V\U0001f49c A purple heart emoji. Shown as pink in Android 4.4. 
p37
sS'browser'
p38
V\U0001f49c
p39
sS'annotations'
p40
(lp41
Vemotion
p42
aVheart
p43
aVperson
p44
aVpurple
p45
asS'wind'
p46
S'data:image/png;base64,iVBORw0KGgoAAAANSUhEUgAAAEgAAABICAYAAABV7bNHAAAAAXNSR0IArs4c6QAAAARnQU1BAACxjwv8YQUAAAOOSURBVHhe7ZoxaxRBFMffXmrxE9iJRLSyEQQLmxTaaUAkWpiUemgQC00gCorpRGJjkaRIxMaztAiCoOAnMCC2FrH1A7jr/599K6c5z5mdmb1b7v0gmffm7obd/7x5M7szYhiGYRiGYRiGYRiGYUwUmZZR2Jb8HIoZNHqqEDmeSXaE9bB/4P8uzA/427kqnfes92VL8nm0fR7mNNo+Uday/eITij189nFOOs/K2jhEEUiFuYGLvlTWDAc31JsSuX9FOl+1aigvJb8Fke9Ugg9DO2MLndDVqiCCBYI4a7jwm+o6wxvJpFgZ1uOvJD+Wi6zhMme0yhl0wjfc3CLa72lVLYIEgjivXaPmX+BGng/qbYrzU+RN/1CqR7EMkR6r401tgWKIUwGRNiHSvLoRxamoL1JHSy90WEURh6Ct68gzS7Tji0OyR2i/1vV6RxBnko5k6+pGpphFbrpAwbQiGojSXUTpSXWd8Y4gKLqgZnQgztMU4hBGJCL/ibrOeAlUrkOyM+pGB23/dxoPZE5LZ7wEwpcvq9lK2AFcU6nrhJdAhWSn1WwtGMZn1XTCWSBd5h9Wt81Ma+mEs0D44iE1Ww2TtZpOOAuE0Dyq5kThlYMmEWeBkH++qzlROAuEp+o9NVsNV9RqOuEs0DXpbPAVhbpt5ouWTnjmoOKdGq0FnfxWTSe8BPJtfNzgSzSOBHWd8BKoHGb7739bCSaaF2o64znE9qMo0auOtDB66rw08xaoDNFiR93WgI59oKYX3gIR/KjbphkN0bPpm3sqagnE7RruSKg71nBoTYmsqutNLYEIt2vYM+qOLUjMi677b4PA78PYlvyz7xNyc4Rt+ZDaEVSB8L2ISPJavjcBoztUHBIsUJmPZGWckjbE6fXvs4UQPMQquO9USLaOBkf61lHFmVU3mGgCkVGLFFscElUgMiqRUohDgnPQ3yAx9rBGWsAFN5a4U4lDokdQRZo99oNAnFWIc0/d6ESPoArOblwC4BaSPLeVs2axnFIckiyC+sFicgORFG3PneJwGHM4a1UyGhGIIHkvIXnfDU3ezG2MzJDHBx8aE4iUM5w8rJuXIM4fB62aIFkOGgSHRJ28pPnmdtPikEYjqB/XIafLhS7EqXV0OJSRCUSQvHl8mMf5Bg45iDPwgGeTjFSgCj3z+PsoMaMGF8YjwslnqdbABM53SxRLqwzDMAzDMAzDMAzDOIjILx7tFcusrAF5AAAAAElFTkSuQmCC'
p47
sS'andr'
p48
S'data:image/png;base64,iVBORw0KGgoAAAANSUhEUgAAAEgAAABECAMAAAAV8YMOAAAABGdBTUEAALGPC/xhBQAAAAFzUkdCAK7OHOkAAAHgUExURUxpcXdCzHdCzHdCzHdCzHdCzHdCzHdCzHdCzHdCzHdCzHdCzHdCzHdCzHdCzHdCzHdCzHdCzHdCzHdCzHdCzHdCzHdCzHdCzHdCzHdCzHdCzHdCzHdCzHdCzHdCzHdCzHdCzHdCzHdCzHdCzHdCzHdCzHdCzHdCzHdCzHdCzHdCzHdCzHdCzHdCzHdCzHdCzHdCzHdCzHdCzHdCzHdCzHdCzHdCzHdCzHdCzHdCzHdCzHdCzHdCzHdCzHdCzHdCzHdCzHdCzHdCzHdCzHdCzHdCzHdCzHdCzHdCzHdCzHdCzHdCzHdCzHdCzHdCzHdCzHdCzHdCzHdCzHdCzHdCzHdCzHdCzHdCzHdCzHdCzHdCzHdCzHdCzHdCzHdCzHdCzHdCzHdCzHdCzHdCzHdCzHdCzHdCzHdCzHdCzHdCzHdCzHdCzHdCzHdCzHdCzHdCzHdCzHdCzHdCzHdCzHdCzHdCzHdCzHdCzHdCzHdCzHdCzHdCzHdCzHdCzHdCzHdCzHdCzHdCzHdCzHdCzHdCzHdCzHdCzHdCzHdCzHdCzHdCzHdCzHdCzHdCzHdCzHdCzHdCzHdCzHdCzHdCzHdCzHdCzHdCzHdCzHdCzHdCzHdCzHdCzHdCzHdCzHdCzHdCzAkXp5YAAACfdFJOUwD9B/ksyQT0AQsTH9sCFb7zDw7gCsD71CjqwgP+7jTj9vDT31JhyB2yEisRIESwn3WtUPrBIe+2Gz/kJRC68nAy6wiO9Upjq5MGcvyvzfHcf9EXnaImxS9Izk20FFd7GeIeR2uPUZRWGDxgZagnakvWdFocX4OnRYis0AySlzpe6coqTlP42Tl8Gr/Ehu2LdkKFCXrheYJoSV0FgISJmKjpUugAAAInSURBVFjDY2AYBaNgFJAIRLhZWLTURTiwSLHxSbCwhGrzEmGKUHmfqLiwsrKSaFqRtTSKFJ9ugJ6vv7AwD2uIqg4BY9hmaCjOhwGxtho5hFHqBt0CCCkle0185nBOdpyPAqxKLSAyTLFqMigyYoYSeMyZqDAfDTDyW4ICJDHFDF1mvokWLnNmTcUwBwjkvSxsXKUYscjYFuMwyFVyPjbAHMkvi1WC0ZkJqznxovNJBLL52MzhSDYm1aD55jZYDMpgJdmc+QJGWAxSYSfdoPnBmKHEW0GGOfMDgzAzWCU5BkmGYxikGUaOQX4RGAZxsZJjELsKtQxKxTRIjSyDMONf0JYcg3ozMQzy1CfHoARTzARpwEiGQfyCmAZZypJujkyPNKZB2lKkG2Smiy335zGTnvuFsJUjnSSnJPZ07CWkqguJBuVU46jSykgzh8cBV+nPUkVSqebGgbM+SrIi3hzmuU64KzaOekdizfGeJ4S3ys6SJ9I9Hnz4K3+O5gJizLGbI0iwOdLeRTjTTZk+iYiGjU4tgfpERmoCL1ENLU43Hrze8uAmus0m596K0xzxEicSWn+ChThij12/ibR2JEddNLbCgCebk+QmaUxHA7oxxoYO5DRu2aIa0arVOC4y28kS7t7IodzCRnaLm88Z0Rg0kaOk7c45G9Za1silrBfAZA8xyYebgULg6QVqputRbA7QTdNc5vNbU6OPwzmz33S0pzcKRgGFAADNrPmR55LL1wAAAABJRU5ErkJggg=='
p49
sb.