ccopy_reg
_reconstructor
p0
(cemoji
Emoji
p1
c__builtin__
object
p2
Ntp3
Rp4
(dp5
S'emojipedia_url'
p6
Vhttp://emojipedia.org/heavy-heart-exclamation-mark-ornament/
p7
sS'index'
p8
V164
p9
sS'code'
p10
VU+2763
p11
sS'apple'
p12
S''
p13
sS'twit'
p14
g13
sS'gmail'
p15
g13
sS'related_to'
p16
(lp17
sS'name'
p18
Vheavy heart exclamation mark ornament
p19
sS'known_as'
p20
(lp21
sS'default'
p22
Vtext
p23
sS'bw'
p24
S'data:image/png;base64,iVBORw0KGgoAAAANSUhEUgAAAJAAAACQCAYAAADnRuK4AAAGkElEQVR42u2dH1RsXRiHB4ILQRAEQRAEQRAEQRAEwUAwEAQDQTAwELRWMDAwEARBEAQDwUAQBEEQDARBEATBQBAEQXDu+p37zXfn+5rmX2fO2fvdz7PWlrvuWp17z9M+e+/3z85FAD8gx38BIBAgECAQIBAAAgECAQIBAgEgECAQIBAgEAACAQIBAgECASAQIBAgECAQIBAAAgECAQIBAnlJq9WKbm9vo/Pz8+js7Cwel5eX8Z+nzcfHR9RsNuOf336WRqMRPTw8RO/v7wjkAnpJekG7u7vR7OxslMvlvh1zc3NRqVSKHh8fx/Y8r6+v0cnJSbS+vh5NTU19+yy/fv2K/06tVouen58RKAtxjo+Po5mZmZ7SfDf08jQTJMXLy0u0t7cXTU5ODv0sExMTUaFQiJ6enhAoDa6urvrONoO+uHK5HMv4E/S57DXbDDOSeB4E6oGmfL34JF5WeywvL8efnlHQrJP086yuro78PAjUg4ODg0RfVOfQjDbsQrtYLI7teRYXF+PPIgIlRLVaHdvL6nxpgy5oxylP5/P4MBM5L1C9Xk/8M/HdWFhY6CmR1if5fD6VZ9HQz/r8/ESgn5zrjLKz+ennrNsOTc+ytraW6rNoaPZFoBHR9jbtF9beoVUqlejt7e3fI4Pp6elMnkVnRi6vh5wV6Pr6OpMX5uLY3t5GoGHRdhZ5/s6Irh40OimQ1iCI899xeHiIQIOyv7+PNF1ieQg0IDoDQZqvw8XAq3MCaceR1rmPb0MpIQg0wMEhsnQfSltBIAfCFr4OHWQikANxJhbShgVKM9bk29CpNAL1IYt4k08DgRAIgRAIgZwVKKsIvA9DGQEI1Idxpq76PpTwhkB9UO4NsnQfm5ubCEQk3lZE3slgalbZf66Pu7s7BBqEnZ0dhOmSq+1igr2TApHO+nUoR8pFnE1pVcUo4vxNaR1nUwiTAqkGHnn+DJVQu4rTZT2shf4cHmbR38iEQKrLUgpDyAKp/5HLOF/arG9/qNt6NatyHS+aK9zf3yfWg8eXoZCOD3jT3kW9D0ftSIY8CBSjig3L23tlHKrjmU941+JOzQ5UK24x39nFUIU5gdpcXFyYWVyrXMfX1r9et/lVBy8loPlaiDg/Px+HbXzGRKNxTf3KlfEpMKq8J9e7jwUjUJubmxun28LokytxfGvlG4xAbfRZcGm3JnGOjo5MiWNaoDZqRpBlKET9HVWqrZCMVczf1qN1hn77027WqUCw7/dgIFAHeplbW1up7Kx0ah4Kwd0XltRdG9bOcxBoyPOjJCtg9XnUwWaIBHtjodZGyvRLotgvyaujEMgzFLwcdYGte8cs77AQaIhzo2ElUkA3tPUOAiUkkbboFsIQCJQwyj/uF5hVzA15EOhbVH/ea8Hs022CCJQR3bb4mpmUmw0I1BddbPL/9ZBPecoI5ACdja50ch36dh2BhkTCtEuJfKjPQiAH0Um1cnk470EgQCBAIEAgAATqgcIUKqFWqZCqPNpDXULYyiPQF1kU/1L/QZUDDdK8QQeMKysrcUD19PSUdI4Q/9E6aS6VSomURivEsbGxEWckhhhkDUogZQ4qCWxcpdA6sVYFSEgiBSGQCvrK5XJqpT26dbrZbCKQBbT4zeoacSv178EKpCxDNW3KsqxZqa+WJcpZliftatQQJcox86RX6mxRInMCaaflyszjy30XCNRxMJjVgnnQYa1u3pRAtVrN+e5kS0tLpj5lZgTqzCCkAz0CDY1OgH3pkajPLAI5hm+XsvjendWUQAqO+tbiV6EVBHIEddjwTSCljyCQI+i32TeBtOBHIEfI5/Nedqq3kIxmQqAk29WlOSx0cUUgBEIgZRkiEAKNTLFY9FIgLltxhEql4p08Vk6jTQik0hzfBFLXfARyBHXPcC2BbJB8aQTiLGjky3VbrRYCuUSj0fBGIKW3WsFUQpmStVyXR0WNKjVCIBbT5EVHBpPqVfPu8i3N1trlmRNIL8jFxHpF3y3e6mOyLkz9fVzKUJQ8VmvlzVamapvsws3NluUxLZBQvk2WkXrdraFOZ5YJor2Lus6PqydQr1t9QriYJZgGU6oIVWu6cYujJlP1ej2U/9bwWtzprEgt6ZKekXSIqYJBbm0OBG2pq9VqvNAeVSbNNkro1zon1EvoaPP7z2Jb98lrBtF6SQlqynLUArw9CoVCfEip+nv9XQvZhAgECAQIBAgEgECAQIBAgEAACAQIBAgECASAQIBA4CK/AZwhXNeWYGLNAAAAAElFTkSuQmCC'
p25
sS'version'
p26
VV1.1\u1dbb
p27
sS'uni'
p28
g13
sS'desc'
p29
g13
sS'browser'
p30
V\u2763
p31
sS'annotations'
p32
(lp33
Vemotion
p34
aVexclamation
p35
aVheart
p36
aVmark
p37
aVpunctuation
p38
aVsymbol
p39
asS'wind'
p40
g13
sS'andr'
p41
g13
sb.