ccopy_reg
_reconstructor
p0
(cemoji
Emoji
p1
c__builtin__
object
p2
Ntp3
Rp4
(dp5
S'emojipedia_url'
p6
Vhttp://emojipedia.org/pouch/
p7
sS'index'
p8
V189
p9
sS'code'
p10
VU+1F45D
p11
sS'apple'
p12
S'data:image/png;base64,iVBORw0KGgoAAAANSUhEUgAAAEAAAABACAMAAACdt4HsAAAC+lBMVEUAAAB+XkOAYUZ3W0KAZkiFZUmXgl3ryoKPck+6nXB3XkGyiFOPd1WOdlOXgFx0WD5wVjxxVT13XkCHcE6qi16WgF63m3Crk2h1WT9tUzqjgViLclOBY0ucgVyVflqefE+gimWsk2mHZEZ/XURuVT+IZkZtUzuQcUyYdk2Ebk+DYkRsTjOefFVnTC+VeFWokWi5n3K4nnKQfVrsv3bot3Dms27jrGbiqWblrmnlsWzkrWfotm7lsGrot3HdpWTfqXDpuHPDkF3NmGHRm2LhqWbcp23ntnO4iVraomXIkl7gqGXfrHHTnmbhrnO9i1vXoWnVnGLbpGqygE7WnmPks3e9iVWzhFrkrmm+kFzYpm3ElmLhsXTnuHnYoWGpfFaug1jhq2usfU2KYjuXaT2cbkKWb0+kelatf1bYoWPou3zIl2LPnmfkrm+vhV+oeUnEjVixgVKkdkWAWDK2g1FzTyvLn2mickR5VTPEkmK5h1SQaELXtH3vxoLvyIbsw4Tx06Ly16vtxojvxn/uxX3wzpnvy5DvzJTvyIPwyYfuyIzKq3jhslXCnWby2bDvyonvx4PuxHvw0JzwzZPvx4Hy1afJpG3qzJrgvYjNqHLQrXX31pftuVnIp3T63pnx0I3ZqEDcq0rXtoTbr3Xr0KS0lWnxwX7Qr33luG3ot2TEpXLvxXzvx4nqvXzvyorwz5fvy4/vy4zdt3vuw3zmv4Tlslv/3Y7eu4PgtnXuw3nOpG19YULInGbqu3X31Y7bs1Drvnfwx2Lrv4DWrHPSp29yWj7zzYT0zZPx0p/nyJWYdlDoxY7kxIyVcDy1k17mulTAonX+7LLbtm/yznfcqGXozH7qu2Pxy4/tw37ls2zns2DFml3aq3BsTC7gwGrXrnefeFO/l2aGXTf+5Zz90m7puW7Qr2bpunKmfD+kjWbx2Z3rvHTUpkrlsnG1jV2Ma0u/k2LhvWTMlV7So2vtwnvswHrsv3jrvHLtwXm8k1/ntHCmfU3hsXingVjz3LWf/3J8AAAAM3RSTlMAvcyBEv5GAwv9Of5uIV6Za6wwGes32JdVdvWS8MWA23bk4d1I7tT3wqbp7PCWmLSptpuL42V1AAAG+0lEQVR4XuyUVW/cTBSGe1Ft4mY3F81uIrVKmly1karS3zPzMjMz8waZmRnKzPQxSh1vk8rJtqp6WSnPjI/G1jyvjseSz/x8nHLKKTKFRKKQ1f+I0qSQNLa3t7XcuNkMqVOrXq/TmYJaOi9Kz31HPNvecr25Wa1Wx2EYLoV7e3vfJJLJpMez7dnQ7KmhVXWH9Bud1EsaW5rVXpcrvN67t7/vAc7K4+Hg2NrdkY2twMjd4AeNJuHwQhWX/PxX9MYOKGULJ5LbK2OPH42Mdb8MrKwFAkEwNMGuruSTJ8/+eDWOjVdKqWj29pVaXwaF4t3DT8ceEcGRLQ0wg13JxNDQ6OhvGMlyszih0/0vQNjh1NRAQ21ARyhk7u5ef63pSj4bymaz46SKYXArATQdgCCsVQhCZy1FH16q8W+tOvyL05qnFVLFMSbcqqtCfPZwHJ8FmEymWaEVu/dqzZeoexH3+/zaVGiBYYRdh1QlhmHy+TzHmQXyJhzXwdGmmhOEenw+/3Kox7HAcRxzCLAALHBZli1UYc153Dpnk55soNU77POtQ6FQaLHAiinUwDJ4xNV6wq+Xl9w+9zIEw3FHQVUoHgKEophc9SFnijiiJwIk0Wm3e3geguPOnqJKlclVt+aOJigi2HxkTis55tddC/vd7umBB/dcNriQyaCoPqcHIeACi2oRUTSbIra24wGXYjMzOwkQ4NTeU5EkiiAoiir1eiWoyqNyhLKYj0xcOObXD8Z2ZpQHA1oQ4FIJPkVTPMrzPKpEeRRUXrizGAwGnjegqNnes6wQB0g3Y5lMbOmdLTypdZIkZkEoii6D3QYLsIAJosD6CEPBvqhtEwdcPvg9Ftu8Mz8Z7n9gIzEEQSyUMf0rTVkQICAGHgRaqC9YSG5usFUUIJtv+Pj35tLU27AQgGGY8AbGstHY9ycQLRRNU2BUSQtQKGv/RS46BOl/f/3zfGnqfv+/4f732gqG7e7SVNqY7iv3GfvKNEWBSaXptPEQGinaJ+Sin0rnp3bKJDatKwyjeFItW63tdmMnlSolTlp1WDGZeXqP2QYz+DEYM3kCbMDjkIWlttvuu/e23hhLbR2QnnC6sJslCypjhSBFLBDYwoABw6L/tR+QdNNtFz134kr3fP/j6ek6o9FCs3DSaKSoACBSqkaqpWqVTi+VIj/CPlIq/V4CIpHID7+cHRU+7gSc17YOUqmDhsl+ulV7e7wfT8K5cjkJo1yh03P0ChKTSYi7p5z8/uzX686l1J8u3BzYGyaT/cC6VatBQBlUUKoVFEDS6bdkGaiWKxTl/T9fX3zSDhhoXr+atJugaazRWs0Xjx+WQSXJCgwSRdze5pBMtqjE988uHrcDHjttKc0kInUTLRSO4oeH6BBlVHIkBNySZK5C5ihIeISTzrXYXfBbNZMawHpjswwexX0kGYvloOdiJFqyt9nsOxL9aCUcxl+/6txqX1qiuAgeQSOyBmwK58GhbzaWzcbuycayOdgw3sGl/B5k/OfUt+3rOG3RWkUajUiEo4ClN3FfTAxmh6yYkRXwxFkB4wGBIOY7Pm0HjN75A7gIwHU6qWTPfeqbnRULoIlhxMQIhpjH4PEYbQTy2ePTR60vqedOosNxEY5bdVqpZfDuBALkqAwIvLqgLoAw0D9AID9686iXCugKS3XT0zg+rdNq/VODd1vgy+X1OhMGrDDXGUyAw2G2qct/O222Ap5t+LWQAL5MKjGHgzaTKZ+v1zl1Zh0ENP2FZs4HyO3tgE89YakWfOVDgGHN1jDJ83CGyeFTEx9mPsHnT/ARBGw4eftNk3oHY56wSq9UKo1GmbQo2TOsWRr5FfD5D3AIgk9QsFBHuFyuVKBJe+A7T3BPq5cpZbJiUWLecK8pJvMrBMElJgjuBIHgsqBxCRYs0KATmAu3RhepgOGd+T2VXq+XyoqqkNng3g6LVlwEOGwYahYFxsK4LAxTYyy1GkskErrA9TmN4tKzFlaFiqpiKGTeMwTn3RDgYrdRq9ngsdUYmJhamBAmlA5twH+92tcKGNvJbG9smM3mkHnDEFzzBiEAnWer2WzhvZXAhMCy0LG8vIxelf9it7CaHqa1+GYz4912GwB3cNvrdcM3iQnV4AoRDofSuOzQ62UyeMkqlcQypZhxNtNXPbQOzy931j3eeYTX47WJ8GklquUwGsHTG0EEVSKxSBSKGcXM0lx6oW+ol/Y+I5eXm+vrmYwns76+dBPQQjFpEcqBBRWnpkCcWXLOLS6m0wtXT7qGhim9wzhEAJubOy+u39p2dyXIQhrUmwPtfGHhqu8pmONt9Z/09zz/4+XLq/Qq4HSChuoh7+rZk6fdIz2jA599RPs3xnu6P+9DfN3d3dU1MjQ2OtDb39tP+2/zP38DeBpzheQC4FkAAAAASUVORK5CYII='
p13
sS'twit'
p14
S'data:image/png;base64,iVBORw0KGgoAAAANSUhEUgAAAEgAAABICAMAAABiM0N1AAAAt1BMVEUAAACm04im04im04im04im04im04im04jBaU+/cFPBaU+m04jBaU+4jGLBaU/BaU/BaU/BaU+m04jBaU/BaU+su3u1lmem04jBaU/BaU/BaU+m04jBaU/BaU+4jGK6hV6m04jBaU/BaU+m04h3slV9tlum04i0nmyj0YWAuF+MwGuJvmidzX6Pw2+ay3uDumLBaU+XyXigz4KRxXK/cFOGvGV6tFirv325imGypW+tuXqozISUx3WSWKbtAAAAJHRSTlMAUI/P758wAJ/vjxAgj+/PQL+AgBDP32Aw3wC/cK8w70BQYK+mNODXAAAB0UlEQVR42u3Wb1faMBiH4f7R4QyrWJhgq7OMx9+KRawi3Zx8/8+1pFlJsp1jSzJf7Jxerzl30jxpD16v1+v1er3/0vzT51d0dHT8YdDwBrr5yccXHCRgf4eGp1H5/B0HCtkfodF5yalO95IRGvIM9w0ocIDVPYBYC43L2vMrsC0O6FQrceSsCU3OSukCwI6K7p1bCNPfoVkkMyfDAEBOtEMn+ZLuIAQyNLkshfNhkqTgtkRrdPFAtIKQylB9zNFVwoXgHomqJ7S7I7rV5ubN684sEVCriJZoI9ajDaQ6dC1CsvNlvxTdo0VeEVEOiYmQ6IwTYXaD2hNxbQ9XEKnxZk1oJDqj6AekLRE9tEyeSJuJr4UmY3GvpXX7lgpjrXj/aKNTcQde1GDbTkltqLlI3lm59xNQp7TFG3LzB6kIXamQevV3YrRvqWiZmx8Ab9Bs6XIOZb1pOewN7yjyFRnz84muvyYM1pgI7WWwlhkhH9Z8IxTDWmyEAlgLjFAKa6kRCmEtNEJwoIcYHDAtlMFBpoV8OPC1UAwHsRYK4CDQQikcpFoohINQC8GJCjE4YZ66Rk6yfx1yf7R3mNoUDqbv8mFjC1hasDqk+AurjG/8YXf1C0dMoJN610QfAAAAAElFTkSuQmCC'
p15
sS'gmail'
p16
S'data:image/png;base64,R0lGODlhDAAMAIABAAAAAP///yH5BAEAAAEALAAAAAAMAAwAAAIZTICJZsDsXmwPpkphnTrjyEneNorlsSlTAQA7'
p17
sS'related_to'
p18
(lp19
V\U0001f45c Handbag
p20
aV\U0001f45b Purse
p21
asS'name'
p22
Vpouch
p23
sS'known_as'
p24
(lp25
V\U0001f45d Clutch Emoji
p26
aV\U0001f45d Small Bag Emoji
p27
asS'default'
p28
Vemoji
p29
sS'bw'
p30
S'data:image/png;base64,iVBORw0KGgoAAAANSUhEUgAAAJAAAACQCAYAAADnRuK4AAALmElEQVR42u2dL7QNXRjGbxAEQRAEQRAEQRAEQRAEQRAEQRAEQRAEawmCIAiCIAiCIAiCIAiCIAiCIAiCIAiCIMy3frPWw/vtO3tm33PvnjNz5nnWmnXdY865Z/b89vtv79l7q7GsXWjLTWAZIMsAWQbIMkCWZYAsA2QZIMsAWZYBsgyQZYAsA2RZBsgyQJYBsgyQZRkgywBZBsgyQJYBsiwDZBkgywBZBsiyNhegb9++NV+/ft12/Pr1y3fUAG3Xnz9/mtevXzc3b95sjhw50mxtbXUeBw4caM6cOdNcvHixefz4cfPq1avm7du3BmvJAL148aI5evRoFpqSA7CuXLnSQoj1shYAEFbn2rVrRYAAGJCUAnXixInm+vXrzfPnz22dNhEgrM6xY8eKgbhz5842gHB1p0+f/vv78ePHm/3792977759+/4Cdffu3ebJkyfNp0+fTMYcAfrx48f/bvpeHXzmly9fmpMnT7a/Hzp0qLl9+3br1nLvAcDz5883N27caB4+fNh8+PDBtEwNIG4qburs2bOtFTh48GA2hgECbroC4/Tg9QcPHrTnXLhwIRts81lyXYL1/v37vTBFV8l5BOhv3rxpgTdAI+r9+/etq+jLpOKNvnfvXhv4/v79e6W/9/Pnz+bp06fN5cuXt/1NuTx+AjGujN+vXr3aWhsgK7GG586da10fBwBzjUuKq0YDCBC6YpDDhw+3N5gUnZvw6NGj1prUyJYAg7+BxeuCGIgAHBA4h9f4zrdu3WqtDe8n3ipxm5QTABOAP3/+3CYFBmhFAYV6uKAhtgCqdTcsVorvQlzUBQJAUaRUAVPBPe7248ePrcWR6+VnLhvkdVwrMD579qz5/v27ASp1W9HyXLp0aZKxA27y3bt3bTyE60qtJdALFP5PQTVACB5eA0iC7xIrxXsoemLViKtevnw5O7CqAgQoKgLSA4FpLgIoXCmAKHtLbz6dQb8TXANAfI2AnuRgp1kjVo5YDEu1avy3EQDRCGps3BgHDUx8gWvoyqbkLqYm3Bf1KeKjkuAaeGSdOLBKXHMXLII0uvkIKu+baufbqml9uhqkNACdeopMsRELwc2nowBVLv4BEkoWuVIBkPAZWDDiKj6XYJ926Eo46IhTGZKpBhA9psssk5nQO2kgehavcdBDsUwKZnF9WCtuEHEJjTv1TIbvhxXl+uK1pAfXG61TPIivuF6JLI7PSmMyOifxE+WGdVqnagBxYbHBSmsjBJFpz4vDEQw1EOzSA+eQGhNYY3ly1hgwqHelZQXaIILBtdKJgKbrszh/HdXyagDJXNNAq7gjshkahFSfHtlVt8GqkcHQ0FOHiQ6EGyOG6grK4xBKBITOx/ui+B0Lno4X8j5gHLMtqgBE5qBGwPzu1Wcq5ui6AXKRmPw5pMJYUCwpNagY45BE4ALTGhIdKdfRsErx/FOnTo0WQ27VahxdDAORNURD05tzo/a8rkpw2oOnJty9AnDiJtWboiXCkvfNEqCSn0I0RgmgCkBkErqQMfwygNBDGZfKzQ3CNSiDYWhhaqLNYmfAMnFdMRAnzumDQsMvOuhgswSIeolu2rpiE1WVGT7IjcFh+qc0VQN3pAQCKxQHeWPBMtemQBiBo7QwS4C4cVwAPX4qVWXSawJMemmXheKGARvBKUH5uirA/N00psG68p0EE+WPHERAGAeC+X12AGnEGr88RWncSyPzXRZKE/Q5B/jGBipO58WdpdVvvluuNML31XkkHrMDSEMY9Pg5iN5MDydmoKDZNbGN3s9NIwtkjIz4pDZUaTbGuBoBt74f/5+TMlWs1ewAIpjly1P0m6MAiriIDsC1dFmodBCVXk9wvtclBEbp9ffJrLDqinN4PTd2KC8ASLMDSD6YnroJ0hAF7gwLRbbUN87HDSaeAkDaYLdQAXOEmL8tiHBtXfEQ5QslMrMFaE7TN1YRwS2JAjcxrSB3zadmbI8EY5WHHckW9VmAibXrc2XM2db5swVo6gW8GqKIitvJxVIpVLQVbrDESgGrMkZcFKWInCujEq2/U7MyXxWgqc7tGdP10QZkfHo0OzdCz+u4nb4hCD6ra6akxsxSySLWfM7NAK0BKtwLroyMLq35EPT2FV9jZoalo86DRQKWtCCq2aC4TAO0wcJCRctEsJ4TsZOsDmk9NaLoymJpwQAtSOkwRF+NB8uTi6viOJ8BWjhEgJKTrA4/GSDW5H3+bYAWDpECZeKaXLqvjAzgOEeFQ+pPBmjhitMycqUQYh0NCscnOnhNQbgBWqjihPu+YmyawQkisrwIUM0hJQM0QTG2JiioDeXESHucCis3pgBcAPVldQZoQ9P6ODU1JyrMsjq4KU1G46cBWrCIe+JwR58ALJ3HBFTESAZooaLdSgGKE88ARXOxqEoboIWKLErTgocAUhykKrSGOhixN0C2QoMAxUeoCLg19ZV6kAEyQIMAoa4RfuYnGSADVASQsi/SeVL5uIqaATJAg+dq3SFNIU4XpzBABqhXCrhp97Q6bYAM0OC5mkCfOwzQggFiTaRSgEjlmTabLl5FXGSAFiYNZ2hYogQgLaWDxUlXRDNAC5MeTy5ZX2kIIJ4QMUALk0bkSxaoEECk8fFZf6Xxe7XI1+gAeYeb1SUoStwP01hzz51p8v0sAeqby2KVpeYlAMX1p7E6KiRqgYXZASTyDdDqUhzT93SGpBF4si2eE4sLnPKTEftZAVQym87ql0bVS2o4Aoj30Obp9go1l7qrChBBHQ2wxGfkdyvN8ylZpFQA5Y6asWgVgLr2hMA349pIKYeeAbf+QVFixZm6IZeVrmRGJ665TmXVler7NiVh2iX/j4WiaGb9X9oyinYckqa10o7pU6slMdQkAZK4KGoZQxuvaCMRGsB7u/8bUdcjOn1Svadra6ma42CjACRRVOT5JDIFGmcIKFJQzqUBN3W7yD4pFR9amoW26WvHmkXEUQFKxeO4zF8hXlLaP7Sz31QXCa9ZChnqPJrSigVn+KNrG4iNBCgVmRqA4Pv7FrVUhZVRZ8r9m7pDsgAakrbVYlprbpejRQAUxdMFuC6mJTCdYcjdsZIqtQ4WJtgUd1cKUBo0EwfF9RRL5hNtHEBdZpr4iUUqc7sCxmAct8h2C7VXaV8XQDyRyvVxnepcWG0CZixyhGr2WdheS2s4Y51IX4esE+cQjBNvTX0D2y6A4ncmEcF1x04EOIAU62pxb3ussgEqsE6M/3RtSpfuDogV4/yplwqUkvOdgYkj3YgOK9RVkMXtl85mXDxAqXUiE6EHps+M54Jx1hicYqkgbtCLxRH4PInaB3/caqt2Cr9xAKWid9LgFChzy+tG60QWwzSKmsvilmonQxlRceO5mqPwiwAoFVVxMhR689Ai4NqgDgDXEYyvAhDWN7q5kiq2AdqFuwMospS+TXDjTj0sWMBNGsPd7RQgrGa0snSSMbRYgLqCcdJfRraHSgX8PzcY61RrqspOAMJVx+0y+X5jJQkGqEOkzmxNQICd29Q33c+eoJcgd692OywFCPeaJgxjbrNlgAqElWFaRSlQuDzO283qqCUA4UrT4Yuxtxk1QCuIAV2GToY2o9P241gngvedDLUIoK4dBxW/ac6QDoqrYxdLDdAeuDuynb79V9NyAecNuSY+k3OxZvHRZAaQ06Cf33G565ABqgAUcRBA5bYcTw+qzrgeoMK6yUpRaQYgPgORBaZDN1iodQ7RGKARgMJ1cfOZ0zQ03BK3IMfyaB/WWCCMlfR1V9AN0BoEUFgbrA4ZXF9RE+DSqapYIWKk2tNVDdCMFHc31FMWXTCRdU1pL1oDNEExpweXR3yDpeHfU322zgBZBsgyQJYBsgyQZRkgywBZBsgyQJZlgCwDZBkgywBZlgGyDJBlgCwDZFkGyDJAlgGyDJBlgCzLAFkGyDJAlgGyLANkGSDLAFkGyLIMkGWALANkGSDLMkCWAbIMkDV7/QdTtXLX2KHS9gAAAABJRU5ErkJggg=='
p31
sS'version'
p32
VV6.0\u02b2
p33
sS'uni'
p34
V\U0001f45d
p35
sS'desc'
p36
V\U0001f45d A small pouch, somewhere between the size of a handbag, and a purse. 
p37
sS'browser'
p38
V\U0001f45d
p39
sS'annotations'
p40
(lp41
Vbag
p42
aVclothing
p43
aVobject
p44
aVperson
p45
aVpouch
p46
asS'wind'
p47
S'data:image/png;base64,iVBORw0KGgoAAAANSUhEUgAAAEgAAABICAYAAABV7bNHAAAAAXNSR0IArs4c6QAAAARnQU1BAACxjwv8YQUAAAHxSURBVHhe7dq9SgNBFIbhmU0rqCB6AWLhBdgHsbOQJU2CYKWiNoJgJdhYaq2IWFiERIyIhYWgeAMKNpLKLgj+sMY+2fFM9ihWObPaOJvvAZk50wgvs4OFCgAAAAAAAAAAvFUul8cqlcoej04CXjPPxsnlcuda66VqtbrNx6KeCPQVh7bjdjbGLFCkWbuXZD4QhZj6GceiW9RPy0YydZfpQPaW0G2p0fY7DmvQ+T7vu9K8ZhIFuqEln0ydT+uDlkqpVFpOTmSZvkHtdnuRlnoyqVocxxNp4vQE+0Dbd4jH1Jw/MX715+mnr3Pgp3qxWJzjvRPnQPQHVpNff9/tUKR13ouc36CMxLFGeHXSE38o/kWaT2yVt16jL+GBPrErHuGvnG/Q2fCg4a3nzGb40tziQYQ3SIBAAgQSIJAAgQQIJEAgAQIJEEiAQAIEEiCQAIEECCRAIAECCRBIgEACBBIgkACBBAgkcA9kVMQ7v+ngiXdO3ANpc807v8XtO945cQ4Ux+qIt/4y5iB8/bjnyYlzoMJb84J+wwmP/uk8EWaXJ2epHum4FawZpW559EugVtLeHitVoEIUNUxLh57dpEcTm3z4/H7Mcyq//i/X06GB6UCrGaX1JI2jyen/YZS51Do4CZ+jQz4CAAAAAAAAyAKlPgEFhILRjTOEIAAAAABJRU5ErkJggg=='
p48
sS'andr'
p49
S'data:image/png;base64,iVBORw0KGgoAAAANSUhEUgAAAEgAAABECAMAAAAV8YMOAAAABGdBTUEAALGPC/xhBQAAAAFzUkdCAK7OHOkAAAMAUExURUxpcddZi9dZi9dZi9dZi9dZi9dZi9dZi9dZi9dZi9dZi9dZi9dZi9dZi9dZi9dZi9dZi9dZi9dZi9dZi9dZi9dZi9dZi9dZi9dZi9dZi9dZi9dZi9dZi9dZi9dZi9dZi9dZi9dZi9dZi9dZi9dZi9dZi9dZi9dZi9dZi9dZi9dZi9dZi9dZi9dZi9dZi9dZi9dZi9dZi9dZi9dZi9dZi9dZi9dZi9dZi9dZi9dZi9dZi9dZi9dZi9dZi9dZi9dZi9dZi9dZi9dZi9dZi9dZi9dZi9dZi9dZi9dZi9dZi9dZi9dZi9dZi9dZi9dZi9dZi9dZi9dZi9dZi9dZi9dZi9dZi9dZi9dZi9dZi9dZi9dZi9dZi9dZi9dZi9dZi9dZi9dZi9dZi9dZi9dZi9dZi9dZi9dZi9dZi9dZi9dZi9dZi9dZi9dZi9dZi9dZi9dZi9dZi9dZi9dZi9dZi9dZi////9dYitdXitZXidZWiddYi//9/thdjuqnwv76/NdajP/+/thcjdlhkfzz9uytxtpmlNhej+ecuv79/v34+v31+P77/P79/dtpltlfj/jg6eSOsNhbjeWRsv33+dlikdpkk/PP3fno79tnlfbb5v75+9xvmvfd59dbjN1yndtoleSPseB9pdZXit51n/z099xrmOywyOB8o950nuOLruurxPnn79xtmeqpxOyyydhejuWUtPzz9/ba5e+80OWSs/vu8+64zfvt8uCApvDA0952oPrq8Pzx9e66z/XY4+yvx+ifveidu/jg6fDC1OGBp+20y+KFqthbjPvt8953oOOKrdtql/LI2O+90dljkvbb5eusxdZViPHF1u65zueaueGCqO21y/PN3OOKrvXX4/TS4PDD1e63zfTQ3vff6eKHq//+/+yux/rp7+miv+2zyvvw9f32+OmkwOGEqfjh6uqnwfXW4tpnlfbZ5PHF1/rq8fTP3vLK2d96ovji6v35+/rs8uWTs/XU4f33+uKGq/LL2t94oeaWtt1wnO++0vz1+Mwc6YMAAAB0dFJOUwD1/AN6FgEC/vgG8iYO7RngEm4y48QYusp85sME5xesM0o+22VQ8fv6BwsIEMb9Rhwt3dLrVlGDzd4eyK8knncqIbS/k9UTKC/O2GdbmXm7TjtiN9A8m3SKqXBxlmmhZJc26cFATY4aLn9LRb1gXZBJs6a8AZEkSwAABgFJREFUWMOl2HdcU0ccAHDEoKAyhAAVKKAIOFArzoIKVkXrto466yjaPWx/7y4JAQwQkBlQRhGIYVd2ZQioVT9YtxbFXVdddXfave5eQggYkvfk/gE+5L5597vf/e7umZg8dzObMcO6p0mXW1/bYULheIFZV50+boMAiSSmbpO76LwJAGW5pyQwwbUrTpAbQHiNYs/JCPBe0QWnx2oLQMdqGaY2H8HGoV2YL2dAiV8zzJ1bSQDLevHpOtTH1Xqyn7WZD9trfTdAMfGMYkcOgNVYjoSLT+B62w2ffPrqtBedpo13nNSvv0PQGwCpDzelH0UAXracHshn7cA1w5x6m4NO81rk2BtQVmbFdgzgtIqDYzmgn/M6U9oXYRFpWJerVErJ8/h/3N2Y0rPP8ilWtAcWgSwxv/7cvUO5SboSHdbKiUYD477Ug44H5cmUyUXpiqf/Rd4/cZakH4BEItFQ3VYNNuaM/MiJfRiUqDqTkcAwcdktVY1JKA9jVJmamoTIT/Jvq/5GGNcAX5YJ//xBdhjDxGaWnEsD8Wn47GhNc8OFy5fTm0ouFtJPjHqvh6FRvTvFmzKy4ts3NzHMnifJchCLZVlbqndGxjPqdmObYj8NmMcAA0k7bh0byca6I6THnX/rK0UiSKxpKN3G6LZNpY10Ep07XfuBE+h8o8KS3eTTd88clObhlMaS7HZKWGT2yZjcaDo48zVD9DvB4ylTqcoMIV/6WBWBsSy3Zbcu8vTq+aqj21Nak8prjF7Hk0YZZbXE0VFFHccY8utq25TY7CsqZSqZPNSWTv5+eoqDpw1Jk/A/dtJOO6/nYHS8/KZWiVecv54IWBehzVTwbNnuTxwki6GPEN9UhnG06nFIK1N7oqYQOiJs8w3s6CycRpzoZjqsrSUReeif6jiNsvnnqGKpXoXGe2mH5eb3PnWi6PxEHpDiw8mK1vh+eaAMMHTafKe3c4ZMNQWJtDmWOmdzcGpopCZhrsVsRwgMtOEB7aAxXqSc799Kun5x9jB+VB2mdo5ElRlm6MTp7m1+L5CBHaJxji2X4UcN6ign/HAw3BhDqsB8neojMCXl/BIdyskILG/YzDoFzXIMHNqctgyY7kH+Dk2g+ZOFI+oSWOdm1WHExYFRL2lTsZ85IGUpDfQxHH5LvbLuH+LGkLGNaIWsSYTgAYnLjSsyfG4X6yh+4uoACFrr0nyycT7KJr0z8kXyq6yTcY+7A24umlCvBBAdo1O/j934aA5skXB3YJEmARxo8fiKZs1f4kR2yYYUpfBwwMldDS2wIiOjwBOpqIrNxEvHER+om2YbeM0ccHEByb+/RdEnqHM3GfNxwHy2OkRTSYgOkNzZlX9ayZbDH5MkvCCwZaFejuTXatL/YZo4meZi7A4RPwcE6iwaBSjtNwI0AapgI5SGnguyEwLOyiBAEc75k05ZKObpwFwWGtEbcO7vJNb7xfJMAsXV84ZmqUuRN2AVmfUw1WklfbBriXxHZuHJQh+QDTqGBDnkO/EOmt5NUr4PtG4hCwUQqJxs80xpxTVakULFfCH/viwkIFBR2zb4yxa+kw/jeuiDIov5xvrlt0200L426PtCnrEeNFdTapcT6JZ2T2Uy5TwhNx9NWfuQQL/Ga6H0CH4Lzb5Pa6EdawG4PlYLnYnm58zQbiGLRwP+Z5cWauFT04Zv1DlDTPQAJL+khepyeFS0OW/pbvv2ZLfeq4XKueej0Lbdya/7EhJtdnGwjXNim84L7nDIGki2x1PpfCGndxw6HrHsyDkfJ8fxgryWLXj2PtOL3L9AejuEO2ThOFbvuTiY3IOQ/Bv12aHCOOO8Okj/8XrwhuFUqiig0N4Uo0znN3Q/eo1H0osXCui2bXCF2g90MHQjsvNnL0QRB0u+VRpYs4OGzXIwcrdyZyUJFos7dyzsZ1kbv8GOnOBtZMIdZ3N7oxIksDGwu9tMGmHJ9SVBT/clTvqZ0fNWjHTh877BZe04f6uOC9z3ldcXW/J/fdI32HbqRvuZM22EQqHNzCmTAjwnPvdLFJchPmZmgXZ2doGuloM59/of8KHuyD08giYAAAAASUVORK5CYII='
p50
sb.