ccopy_reg
_reconstructor
p0
(cemoji
Emoji
p1
c__builtin__
object
p2
Ntp3
Rp4
(dp5
S'emojipedia_url'
p6
Vhttp://emojipedia.org/monkey-face/
p7
sS'index'
p8
V213
p9
sS'code'
p10
VU+1F435
p11
sS'apple'
p12
S'data:image/png;base64,iVBORw0KGgoAAAANSUhEUgAAAEAAAABACAMAAACdt4HsAAAC9FBMVEUAAAAoIBEoHxI7LxxIMw0vJBU4LhooIBMyKBc+Mh00KRgwJhY6LxssIxMsIxQ0JhQ1GhpJMR5GMSFSNB5UMhswJRYjHhAtJBUxKBdjSjg2KxhjSDVfOR9SMxo/KhdlPiNgOh9SLxddNR0lHQ8lHBItJRUnHxElHRA2LBpWPzFcQTRpTzstIxR1W0FrUTs8MR1nPSJFNBxHOB9ZMxxPLxiIb0PXwZrXwJiDakBSQifbxJtnVDLUvpeNc0WKcUTVv5hPQCVkUTCsjlbVv5eGbkEBAQGTeEiBaT+jhlKafkyEbEFcSy1yXTd+aD56ZDxIOiJvWzXTvZV9ZDzJs43UvJJqVjN3YTnGsYthTi54YjtZSCqliVWPdEbZw5uBaD6nilSXfEuhhFB1YDnZwprdx53BoGGukFeliFOegk/iy6CVeUnNuJG6ml7LsYKcf02RdkdtVzOLb0PEo2fQupPgyJ6NZDzElpAREhPLto+8pYGCaE+qmHg7MBx3Wziul3HDqXqym3Z9TS+EdlzPtomIa0FfTC6pjFW1mmnGsIhMRDfJrnuIcFCZgVy+o3SchGGljWXCm5qohoHBrIeEXDiynX2aeEnOoKGSa0AKCwxBNB6/nmC1i3ake21DNiB2XEIeHyE/Mx5VRSmSg2eRdEd+blltVzw5OTm/qYJ7XzrVv5Wzk1tpXky8nF/RuY5+ZElqUTF5X0Swklm1llwcGxm5m2VvVjSfiGSokWuifludeVO5lJKJXTi6kY60jIeYd3K2oX3No6UzLSOJeV/KnJuWckvQpaZ0SCutiGW5iH5RUVJaWlqrkWPDoWSOOE2tlGd6bFVZUEFtQCWTdWbFpm1wRCnUwZe6o3y3l12QeFecTVmReVfEpWoyMjKgf1hwWzxkQiV1UDB+UzN6YVCSb1eLaEOGZEWthHuXc0Wjg1qohGKggFY+NyuXiGzp6emQkJBtbW2/oGlUBiINAAE2AhOabWNsBS1JPSR8Jj9eFSwqJR0/Dhs4Ih8WMk8dAAAANXRSTlMAOKnsBRcPJP319czk2UFNCTFYJcPmXaGN/bN67LhG/KN53mAb8GhxxG3M4DLtsNX77szGh26ziJQAAAfpSURBVHhe7ZZVcBxXGoUnkmxJtmRZcgxrxxhyGJSmYWZmEjMzMzMzmJmZmRnDzEzL+LJ/98jSzNqJ7Tym9lRJNfXPnK/OPbdv16X9vvV/TQqaszTA29/fO2DpnKBJD22fNjtAw12lsIIUq7iagNnTHsr+yNxlRN2OfWUbSZUp9zEU3GVzH3lg++Q5/oR130Y9XpvFYrGysmrD9WWZdVz/OZMfzO+79O91+zbiWWuSI2Wy9HRZZPIaVm14mcmuWer7QKsPIHhl4VniyMQoqVSakCCNikqUiZ21eq2VG/AATSzwX2XaWLsmMlGaEFFfz+fX10c4EkhEFh7NI/wX3M//vPeqTH1WcnpUQj0/Pj5+1674eIA4pFHpySzczCC8n7/P5r9E+ROlDj6YN1PaFc+vj0gAghMIq16a9IvdL1i8aNGrY/568G/e/Tal3YAAwp0Mry5atHjB3fsxffGSN6qO7HDll0bwSXtq6lZQKkXguwiSaAax40jVG0sWT/f0zwg93zPQd7aOoUcyZFFj/q3DcXFxw8MkAjI4pNAkWxLNU5ztG+g5HzrDw7+kaqDvuwvFPFutMxL6iwc/2K+SiiMJm3fx62EvIjOAULf9wnd9A1VL3Ag+oVUD6d9evLhOibPGFkD5s7Pfz84GxNbU3ZuhBoiQ7ERU2nUXL36bPlAV6jMOCLmVJ7uQf2aUoWKLZa4AqS4/CAjDAKAipEeKWXI1b/RM/gVZ3q2QccD8qq+/ye8/WayUQ4CosQCk/3UQEIa3Ui0kuCKEa4tP9ud/83XV/HHAY0f6RvrPdX6kRsgn0HEHAH6KQK5hHJDBxs3rOs/1j/QdeWwc8HLeofz+c10mFTsDABH8+M1vpwIAzK4IccMA4EdIpYmwBrZcz+g6159/KO/lccCtvA/zz5y8nYmzxQBIqN+9949Q3niCbEiQunfvbn6UTAYlCFWm2yfP5H+Yd8sNcDC/s5OsQCxLTNibZty0aZOxpvl1IFD+q8011CitIT0ZAJLM4s7O/INugIV5B48ePrzTDB1GRqShKMYBYaix2bULzUYUdU1i0hxOJyJRLj98+OjBvIUTJfYcOna06yO1kJXh2IZyBGPioDXwHGSnoZjgjsK2OdgItNh19NihnokSQz89+9Wx45kqhCWrQQVuQtOuxqV5TmpkQrnadPzYV2c/DR0HvHb+i9GutZkShNWGMkkjFoO5MgjS0uCf24iJtiFylWlt1+gX518bBwQv7Pn8ODzHwvRtTAAww+iGGDrT5XORmPQYAz2M/I5pTMQl2nXHP+9ZGEwb16OffPkZz4YLr3NIAN3QJPq+m+6enN79vajJQCcBWAMuMVs/+/KTR2kTCvq4rI6nliNtJACjN4kuDZ5iurWBMk8NXhI10TEAcCqEEhtPUfZxkBvAZ76dYKjl7AoMAsSWiC7/+LPoh9wJQO4Pop9/vCwqiYUInEZ2uI1B2Of70NwU/AphsuHsCrLD3LWDl366PLjFHbBl8PJPlwbXwoiJNbIkZgb3FWjAXXMJhg1H2lDq13s+WP/BiqbYCUBs0woY7aGYaIWQTDDX0+8zlWCY5cIrMRRgxfr161fcdAfcpEYUIKwBD4c341Qfz9e5N8GIxpHIbSgAVhdAggIyL7WHGLkqarSaHBllcgkAvD1f775TCF60BEEa6BxBjGFPwYqCgiLoXKcTkH8YvagARnsMEJDeIBTCm5WY4ns3QIUgrAo6GWFQJKrOFegshkKQwaIT5FaLRINkgLBmJyJUKe8B4PKUKiEbyagIQwWxvTdKYjkCS3d1tcVSXd1tEXBiS270xkKUZrGQAnD/BzBpJteq1cuB4GwwhmH0JPixzlIiEvX2ikQlFh0miE2iY2HGBif4cbXWyp3p2YFPoEahVUuECJvNSmyDKkE6AwBOnACAQUcdRGNbIoIgQrnElqnQBPrQPOS1zM6IVskRhM3KEEe4DnVh4elqDKs+XVjoOsgOJ4tNAlTRDPsyL5qnnioleEq1hCRkiJMrYqgjmEOH2nLpOdTBjKkQZwAAAqihw9KnwOTZokZhMqtwoZDNciaTLxEMRBrvfELTxJQf15tNCg3Zoae8VhI8rU0ll0MNiUYMOoyJTUrKBSVBo0wYGNMRRC7HVTYtj1jpdffNzk9jZyjV4bhcKHdgsG17Tt3csvb06tWnb2xp+tcpSwwHc+DgD1crGXaN3z3ufLNLuQqTUq2S4OFXUB29989uEv0nB9OhV8JxiV6tNCm4pbNpd+uJmUNEnUlpVqv01zk5Ovrtv0zo371huhzOdb1Kbdaa6oihmU/Q7qEgvyFCwdBG28wdOSkpOehf/3RH/xwJIycd0TallqEghvyCaPfU435DXLuVodW2GixwDN4c+cffKF0rerOQnLRmahlWO3fI73HaL2jWk6Uawm7l4W8VbehutORYRt+9du3dkZSUxsbuDUVv4VarndCUPjnrVy7ZU/1WwiWd11FeWQmQxsIUgyGlsBHMlZXlHTy4tq/0m/qrl+7pTwf6lS7T7Gxv7zhQXnmiaAOo6ERl+YGO9vadmqFSv8Cnp9/vqj7LK3DK0PLilvda9x8ohyTl5Qf2t77XUrx85ZRAr1kPdGGf7DstZN6LL2xveae1ff/+9tZ3Wra/8OK8kGm+4H4IzZj33PLtxS0txduXPzdvBu23aPIzz/4B9OwzkPs3yic4JCTYh/Y7138BmkjB6SygOWYAAAAASUVORK5CYII='
p13
sS'twit'
p14
S'data:image/png;base64,iVBORw0KGgoAAAANSUhEUgAAAEgAAABICAMAAABiM0N1AAAAq1BMVEUAAAC/aVK/aVK/aVK/aVK/aVK/aVK/aVK/aVK/aVK/aVK/aVK/aVK/aVK/aVK/aVK/aVLLhGvXnoTXnoTXnoTXnoTXnoTXnoS/aVLWm4HXnoTKgGjQjXS6f2l6OCtyMSQpLzPOinHHemLCcFhkIRZrKR3BbFVVS0ezd2LNh27Qln2BQDLBh2+sb1vMl3/JjnaPUD+WdGbIfWXRkXhKRELLhGvTlHvEc1vBkHotRukEAAAAGHRSTlMAQICvvwBQn+8Q348gMHDPYEC/YM8AMICvUZ3QAAAC0UlEQVR4Xr3Y127jMBAFUBXS6iWdKu5O733//8vWIRiS0pUZaeXsBfxCBAfkxDMD2PovsR2XMBHiOjY1xKK7MvF81orvToZCgROyzvhOMARy4DJA9YHskBkT2gbIdiLCEzkeABBP/bWtQ7bLRsS1BRQTNjIk/oISn42On1ArCNkeEgZWyvaS1Mr2A2UW21N+F7qo6qLcpqiri11nCCGzLLUsOQVnPaBVUTZSrLrOECIt57qEXHedtRxipeD0CEqpFTffVfZO83WxRYle56I/VOgVJ19Nq0HLckCWGpRsIRqpC5WDoq4U8XkUyHarhkGVbDTKISXVw6D62wkERFMBFcOgQkCpnNmZgDTg4XKxuHxoAHimXiaexhB6W2zz1nDwbC2kWEA5Qs8LnmfdwTMmkgvIQ4hfiF8JzxDyBJQxKPZCRHPwrJCjn0OqRKwG6I9y8Kxm3wk4ZEuoGnajSkI2h1JsETOELZJyKIKm7VfsJWv1GsExYv734xghHMpwsJm/kDjYMg7BqP2xRXDUAsQlY8BBCNcRBtcRQrggMbggEcKVjdm9sgMJQV66nRcw8Eb9FtxqGLTe/bT1TshnmFcFzGb8I/PKMD6HiLlAmw3/GMtERNNCPkzQBziiaXNwPksTVH4ClHMoAOjdDL0DFHOIko5SY7EN5SZyHbVS/hB4mYBoOA7y5crOx0GphGg2BsqogpIxUKJBNP13yKE6RD3otNmmIzPoNo9KCCX+hZx3QXP+hQSHQyCJFrnqgq5EiygHIZq2mvYWnVvZtKo+CNEkbIyRm/O2c37TGCOhTQEScXy93Hdt6K5RaiegAMnEnj5q75vOvT5qvZhShHQq8tXwn2qvO5+q4e8rRkGY3JXT9lFW/PZRzlk3D/r+7BNMokys7unTfLOZP03Fqs68SUNBCHNwWLZyeKAQhAw5OtaZ46MTQ6wTY07PxLUOz04BAGgv+QuYErrcIbl1cwAAAABJRU5ErkJggg=='
p15
sS'gmail'
p16
S'data:image/png;base64,R0lGODlhEgAMAKIGAP/////ql5h3AAAAANyuAF5LAP///wAAACH/C05FVFNDQVBFMi4wAwEAAAAh+QQFCgAGACwAAAAAEgAMAAADQmha3M4qFkGrpUVhEbr/wkQR02cGITGWBfC1aKEKJDcU3x3PdUD8wN8OI/sVjUCGwDAJOoGhxexyIUmf2MziwYUYEgAh+QQJCgAGACwAAAIAEgAEAAADDmi63P6whcBmNCKrLFoCACH5BAkKAAYALAAAAAASAAwAAAM9aLrc/lAVEaq9oiiRaQHXF3QcMQVDcaVjQZRnRcyElb2GtggMv+gGn4HAIG6ORo5SqSAKZ4WoNDqLWK+RBAAh+QQFCgAGACwAAAAAEgAMAAADRmha3M4qFhGqvaJEM0MB1xdkWzcU1zlqhpBRV/y6RFcT+L0SLpP/QEZPkHMZibhZ4ZdpIHGTzK8wqJ6mAg5wm2NxHmCIIQEAIfkEBRQABgAsBgAHAAYAAwAAAwlItUU6oxEISQIAIfkEBQoABgAsBgAHAAYAAwAAAwgoulJebchREgAh+QQFFAAGACwGAAcABgADAAADCUi1RTqjEQhJAgAh+QQJCgAGACwAAAcAEgADAAADDmi60r4wClOKmTHbtWECACH5BAkKAAYALAAAAAASAAwAAAM5aLrcbiLK+VQI7La4CmDewhHLUDDmQjba0joCJjBzMCtCIRB87/O5SKE3mfR0hiGvwGwyj5WoVJoAACH5BAUKAAYALAAAAAASAAwAAAM/aFrczioWQaulRWERuv/CRBHTZwYhMZanl65c1cmvQHJErudooYa+XFCoYwgMk51SF1r8LheSc0nNLB5YiCEBACH5BAXIAAYALAUABAAIAAIAAAMIWBAcOqUFmAAAOw=='
p17
sS'related_to'
p18
(lp19
V\U0001f648 See-No-Evil Monkey
p20
aV\U0001f649 Hear-No-Evil Monkey
p21
aV\U0001f64a Speak-No-Evil Monkey
p22
aV\U0001f412 Monkey
p23
aV\U0001f34c Banana
p24
asS'name'
p25
Vmonkey face
p26
sS'known_as'
p27
(lp28
V\U0001f435 Monkey Head Emoji
p29
asS'default'
p30
Vemoji
p31
sS'bw'
p32
S'data:image/png;base64,iVBORw0KGgoAAAANSUhEUgAAAJAAAACQCAYAAADnRuK4AAANt0lEQVR42u2dLdRN2xfGBUEQBEEQBEEQBEEQBEEQBEEQBEEQBEEwhiAIgiAIgiAIgiAIgiAIgiAIgiAIgiAIwv6P3/nfdce6c6yPub722fu88xljjXEv3vfss9ez58cz55p732QwNGCf3QKDEchgBDIYgQxGIIPBCGQwAhmMQAYjkMFgBDIYgQxGIIMRyGAwAhmMQAYjkMEIZDAYgQxGIIMRyGAEMhiB9jB+/PgxffnyZXr//v306tWr6dmzZ8H1/Pnz6e3bt9OnT5+mb9++TX/+/DEC7bUv/Pr16+nq1avTsWPHpoMHD0779u1rWvv379/8rnPnzk2PHz+efv78aQTaNWBZbt68OR05cqSZMBpCXbhwYXrx4sWesFA7S6CvX79ODx48mI4fPz6cNLF16NCh6caNGxsC//371wi0dPz+/XsTq5w6dWpjCbZFnNCCyPfu3dvETkagBeLdu3fT4cOHF0Wa2MIy7opF2gkCEbwuzeLk1pUrVzYW0wi0RRCkklGtiTj+wtV+//7dCLQt7YYNWCt5/EAbXckINDNIlddOHj/AXqs7WyWBCEJ3hTxunT9/fpWB9eoIRClhbQGzdt25c8cINBJoKHOoydtcyBFGoAHAvJ8+fXqnycNCy1qT2LgaAlES2HXyuHXixInV1NFWQSBqSdq4h8r4tWvXNvEEAqNrxSDw5s8PHDgwPBi+ffv29OTJk38/+/79+5tibokFvXv3rhGoF27duqW66aT26EO5OGqEBAA5cvELblj7XbBCRqBOyFXU6et5+vRpURqMZUDE60EerEXJZ3/48EGVDNBRYARqBA1aOfKQ2teq2TSC1RIHEuBeazNKrEzq9z969MgI1IqXL18mbzJ/3wIU4JMnT1Y1jtUS1ydwqiuSOp8RKAOKiZh0XAqugMD3169f//799evXk3FHD/X28+fPxe2tBMk98PDhw+hnHD169D/f782bN5vkAMsEeXFx287WtkIgvjQbEIttiE1ovuIJTfX4fPz4sds1cT1a8uD2et4LiJISFmmPjd0r3CgP3rZ6sWcnECcbtI1fqZT78uXL3a9NEw+NEPqwvilXqb1XyAU7TSBuVOyGlLgQbtaIDIWnOGUNRpYazp49W/T9Y3+HTDBnUXY2AsW6BhHeIBbBLH5dk1qPFNk49rONoBZiasiDlcHtcZ2o8yEyIZjORaJZCBSqoJ85c2ZzE+QX1cQioxuw2IBt9OzktKFLly4F5YBQosEDuxME4mmRnYMowanNSKXVEDH1s9xQshSeTqwbcQ39x2QvWvfD75CER6jUAF2IBIAYjc9mscFkWzm3y8+k9K5U+yufKf/9HEXZ4QSS0j03NJd6ypshLVcIWDJIkoul+HxNH7Ifk2AZctfM0WgIm7OeqRgF95Qq0+RAvc3/mYsXL66bQOg5ckM17oenuCQOYUO4WdoglEA5RyK0Kf8YTgp8p5IjRbiiEIlS2Zgm7iMJkG5wdH/RUALJ1lNt6o2LimVrxCehAL1USdY8nfwbiOELmyHU9Cnh0koIpCWCvBdYxdUSyE+JIURJ6h2rmIcI5NeUcAOUNzQWCbeTAtfLpmotFWRD5+JncnKAVJlTBCLT0mZVuFpaWuZKOoYRiIuWvr8ExDMaAlGGCLVA+H9eYgVKQe+P+30E7qE/12aTMQJh4VqEyZG91sMIJAlQmhHE0nlJIJ74UKaikQNC1qwUfuBM4I2lwApoAmpZCI4RqLR0wjX4MVkpARdBIN+tkJaXgkFPsSPBqTjL1dK0DWg9v6cjsVZVl8F5jEA1AqavZRE+jCq6DiOQHwTXmFA/tkg9jamUf46iqIw3ShbXrrG6NfdPPoC5eG9RBCKL8i8+F4iGgCuKnSfPWaDQIj7BjSIRIAqOskCxhRpPXEY25ZRjaYFiOlCNqixLI6j+qyGQDKBrCLS5uEj7gp+R+DFQqnPQ131oAxkRA6UsnX/NzmrKGEgKgS1Nc+479kwYZiOQFAJrO/diG8KT7KfaubZQWfpwT3qPllEEvtTn44plCu7aRvzvkSrh1IiBWNuUu1w0geSm1qqh2l7h1JQO+dkEk645q8doFWlt5Yq5Fq7BB81zPVtIJIFG9QoNIZC8eAK6ngSSKrJWwcUSuHlCPVszUo1oMq5z5JXF2R4qdGoPtMXgRRKo1lWkGqpkWkp9KfRvaQfFjRADOBeBCpw7P1ZqcWO1MO6F62V28kKopJOqxNcQSIYRtXHoIrKwWiU05RrYFCmeQZKcBoPliZGH6+b3kiW5Vgy3sHqk2TG3x++MkdgnPtcoYyL+P9ULVEMg4s7VEkhuvhT/ehBIZjY+CchaSJEhgjvmzOaHanFsPP8WFVkrAJK68ztD2gqfwWdRyuCzWQSwXFOsKJvTsmoI5KSK2AO3eAL5ajD/XdPNVyrElcr9EKfldCpiKTW+lk5FXGyucb6GQDIu63mCZRYCyWJijRim2cSaDSQu8Y/J4Fqci8Kq8PexxZOMKOlX22tOqDqXqxn2UEogWUjGYo7qkR5GIJnKs2GlX0JrCUoFQV/842dr0nmCeAjgrEdpz3Sq+7CVQHJyba4hbpEEArSftgiKmlEq+Ppcw5cPV0YgI+sh76MDud4jqt7aa+FhwprF1OdaAsl+bixcyf1ZFIFkcbC0Oy4XyNbEHlgcMpLeJh0yQs6aomWs96mGQDIgD53kWA2B2GAZpKLJtBKIJ0yWAWrdLGQikK3RWfjZHj3HkDl1sFD7Gbhieb9rRdxFEMg98bKVU3uOO3ZDe5x5ooblp+0lBUuu3w9+cWGtZ9NDR4lKK+lSh6LVZPQBw+EECtWKNGYVvx0jUOtmhdpNS4Q2qbT3mvMca87XlCFCUz5GBs+zESi2YTkrEtqkHk1gmHmZOpe6RIgiEwRXNul9nzRECI2nwfrMMf1+FgLxRWTjlRPhYhmClOJ7nYsPNaDVyPzET7L80HqEJnY+PnUgAdKGToDUTk5bJIEAwXPIxxP0UUjEBEMabiIrVldqvTFSf2mpUssiaqt1jJ2HgyDuvrh5QZAq1g0554TXxYx30a7WOIPaF5aD6+hRYMTV4i5wi60j70BLjzULXWlOzD5girSy5XUFIZBBzTWNogeIWWItLrUE4oEonRa7SgI5U43gVVPIjFm20Ud4e4I4LFYILiUQxEHA3NbrEbY6ZJN0HH+O9eCGsvjv1KCC0PkmNxRqtGjWAyQNPDgxi5k6Ek2cSAzHfeK/eXBGHddZBYFiCKXIKSUbs82NrynYzg037ia08amhErGHZ9tYJIFS7Z0xTcTVgHqN3x0V+xBsx2YcyaM4crjnErFIAqVmQ8ea4d3Nxz2MrD63wEkTMfeVaqyXByqNQAVajfYlJE4X2ca42xz84Z2xgJfW35Z5Rkagf0Bgnco8Yk3xfh/wklyZP8EsNWQrNRty1MHAnSRQrA6Wa0wjgPYPGY46C1VLHupVsSFbuN1Ue+tSX4W52JetpPSQVAsrG+ZvROvLWFpA4dYXTVPn01NDIkLn4IxAGYRmNWvbNGXJZBv6kGzcTw3/5s9T70SLZW1GoARSGYkmJvBJBOFolZjjhSQQmzKFb0HJHFP6VC7m6zFFZM8RKBcHhYZUSrCR0nKNkv0hDrWoUItHri8n95KXUadKd5pAuaxE27YQkgSwTKTMzBZqsUoQmOAWdTlUftGQJ/VuDnetPc/x7ykCyeO5oZur6Q9ik1IdAPwdbgJCUWKIWTY2kgyQUxRke7Gyg/bEamgweG4mpBGoAGxA7rw6VkqToTgXozkJijXhlIQ/XEE7yg7BTzsPW/MG56UXiBf/ztRUWcMtAmQtsCLyREaPBXFKuiVxfbnmOqzTHH3NO02gWG90q9CG1eJn5Dl37YKAxDhkUKVxFNZQ85klD4YRqCGYLh0gEDoLj9vBXSAPkHbL+UAUQtlQ4jIKt9JtlgS6ubmKtcPZjUAJK6SJXbSvUyC9hxTUy1oyHEgE6SCXthcZZbzndzECKaF9Iw/FSk3cQLZFoMxmuiENGlfkXjeJlSJGwRVpT4760zxyU9SW3hi3OgIBzQtM3JQMbVxCDOM0HDYXAhK442Zcmy0LC+NI4/4t16PJACGDZgpHrxOuRqDGrMzFRNrAmqAW66A5LQJxIJL2JKv2TYbumpfaDLczBALaDXFCXEkwysweLAsFTOduqGshNGrdnNOwtLqT+4w1BM07QSCe0pK3BLKJqMdzPN24H4LzEmmANtxtn67YUwQCWIJUC0Rso7AKIzaL6yHQL70m3OaoAZhGoAzQbmqnrPKmnh5dflwDAXKpsu0OBM7RYmIEymhELWUJLAbdgPweyJDLqthwzqZReEVLqjnrTyF25HtMjUCFwCVp1OoSt0JQK5c2IE6VP2gvWWp76p4lkBP4CJRbp3+MWrjMHm8HMgINBnFNy/SP3gvLhbtbkzi4pwnkUmk2LXXGfo5FpX/p7RhGoAwIVsmSWt6JUbrQqOYaMWcEmlF8RODLNbC3LGpqZHS76q72NIFCVqlHrETQ7hrLdim7MgIpQHyCVXINZBpCufEs9ABRgF27EGgE6gwazLBQ/lRUFjGNRmg0AhkMRiCDEchgBDIYgQwGI5DBCGQwAhmMQAaDEchgBDIYgQxGIIPBCGQwAhmMQAYjkMEIZDAYgQxGIIMRyGAEMhiMQAYjkMEIZDACGQxGIIMRyGAEMhiBDIb/43/HSU4ZPYSiLAAAAABJRU5ErkJggg=='
p33
sS'version'
p34
VV6.0\u02b2
p35
sS'uni'
p36
V\U0001f435
p37
sS'desc'
p38
V\U0001f435 The face of a monkey. Similar to the monkey emoji, but only showing the head, and not the entire body. 
p39
sS'browser'
p40
V\U0001f435
p41
sS'annotations'
p42
(lp43
Vanimal
p44
aVface
p45
aVmonkey
p46
aVnature
p47
asS'wind'
p48
S'data:image/png;base64,iVBORw0KGgoAAAANSUhEUgAAAEgAAABICAYAAABV7bNHAAAAAXNSR0IArs4c6QAAAARnQU1BAACxjwv8YQUAAAkxSURBVHhe7ZsPcBTVGcB395JAQo4kl4Q/SQhJSEDE0NpgxWqSJlE6gmIRRx1QR6HRqg3tjNAStFIGp2hhaAdwppQGHf8w6shYnfEfCYQYR8UhrSO1IaeQS4D855KQvxfubvu+l29v9u727t5udhOd2d/MZb/v7U5u93vf+973vbfHmZiYmJiYmJiYmJiYmJh83+DxOCUUlRaVcCJnpQrP5fE8b/WK3nZe5NuhycJZLtXW1jbQ81PEpBqoqKRoNTFCsciLxTzHF2AzC9Xk85koinWfnPikdrxpcjDcQIUrCucJHmGjyIkPEKMswGbNkP9zjhhqNxfFfVB/rP4CNhuGoQYqLC18TOCFXURMGm/RD8lQ9SfqD2KTIRhiIPAa3s3/lQyntdhkJNVei3ejUd6ku4GocTz8OypjzIQAbyJ/yo2IT7oaaCqMI6OXDLm1ehtJwKMuTKFxgCTS3Yegk1DXBd0MVFxW/M8pNA4FZkkyY1ahqguah1hhWeF6ktCtIYG4lKhMs9Saklscq39+09gsW1Ic6G6P23Oxs2f01ferrV983ZhGLyJkzE7pr7hvTfuCeWkxsdOnxUDbyKhr7NyFtrE/7Dt0Db0oAhiXviLi52KU+JbWIK7aQJD9EqNUEvG28ZbILF+6uO2P5Q96Z8ROz8CmIHp6+8//bs+LyZUb1nUszsnMIOnBDDzlh9vjcdacauh5/vAbC7GJhV7y2Vd3vO5P4yo7qgwEXiNwwn4iMuc14DUV636ZGuqB5ZAyY4jlOgAMes+WHTmoMkG8qkG0iGvUeBOzgdBzjhLREONo4VJXz3frt/05F1Um1BrJgseIzM+ZX0OCoC9OwLBZecuN7Z3O3qgrQ8PTsdmPA5UVXotgSUBVd2bOiLPFREfZGxq/TcYmP6CDigryu+Tn4Rl4Ly+2NLccw6awMHkQ8Z6niPfsQZV7YVP52RuXLqbB0jU21vGLJ7bOoSdkyK8xEohJtz62xYaqj0fXrrKvu72Mxim4x4079sSSCcHXWYJXWMayUsA2zfPc4yhRz7khf5Ev15gWEzMHbgZVHwVLFs5C0VCiLBab0vevWL4sCkV6jy9WbupDleIVvHeiGJaIBiopKSmA/AJVbvOD944GxpSbll6L0jjg2nDjqPoBgRgCLHxAxuaQQO83X2q3wxGbgigu+FHQc0jpgURCfPz8AEP+DI9hiWggD+dJR5GSkpQQNHM0tfjHu1uX/8SFoh/wkA8987wbZh/4bNtf1Q9DBE8HAUaE4fvI9t0L4Xjq68azeMqPRGu8YgwMRO5VBKY0hW2IIUquDDQ1X/Trrbjp0xRj29Hj9VfkcQCSw4Zv7F2o+gGGC5zGIUnsHxxsQdWHUn7V5ewdRtGHdUYsTVDVoMpASsCDvFP7aRaqYfnH0feDkrtzl9oU78E1djXoAQFn/4Cidwby3snP/ToNgFiEIjORDcRzAyhx3c7+oC8N5QFKQGxC0YctYXxJOpBpMdGKvW2Ni5MPk5BApw2NjF5ElRIQx2AZNyIRDYTLB5Cq0y+VxwyIEUq10fCoS0TRj4fvWhE09EqW/Xgmin5AkIdUAVUKGNiWaJ2Nqo9AQ0jsPPSqIJ8I2rovX0ERMsYzKIWFKQ+CSp0cNoIMNwkFZ9flPm+owhGu+e36uxWHHTyMo62D3nTuvLSESG4PnXC6scmdn5sjzE21zVXKysNl1FD47nzikU7otCd37VuEzZwoiqUsa0dMBoKpnuQNp1FloubgbmeoqV5vjnx43K4U38JQTQrXFSiHhSlI04xT5PaiyoSa2DQRYMirNE4vyaJhNYIJ5lms7kTdU1DooRoRGH7hchy9eOvYyR4UmSAxqVLNZiRzsQpk5mV+yIv8dURk2t8aGBrp/Gn+omhSxwXNfhIQREnwbL3Q0dVdc6rBOTzi6r7qdjtJLnWVDNF4vEwRiD1PHzich2pEyHf9Wu02EVMMCqSorOg06/IqzERQuykFV/Cwh599wSJPHuWQ+qlpyYIsX2CVA8FbzXoQa1AOhHmIySHGYR46MNT2H/lX94jLpTomKWXk4HHfnHM0qV0s07rbocmDyLQPaynMS67A/q0V3fm52amo+oAHdvYNdA4MD7uxiYuJjhZmJyfZlGZBSBNWVWwLuXQbCjJraXpWTR6kJzD0oADOTp+7UPqkz0rJnawUIRJTbqDvO1oN1IrHHwq0VNKCJgORGaERRdVADAm1rhMKmO0++uxLxaUWRlRVAXI0GcgiWk6iyAyppD1whHUamNkgONMTDPRdGexTuQ/mB+nQj1FUjSYDYSbKtFwgYW+5SCtpabkCZi44stDp7L2Koia0dKiE5iAtesUDKDIhrSVJyxWwiyr3Ihh6MIxg+MnXbeCaXYePzNm64X46xGALmp5gp2oi7zmqKjXktDhamrJysm4mIlPZcdbRmvjQnbfRndMblixqeuOj2vSmlgs9CzLS2vsGBi/f+/ud2Z/+57/JNaf+nXLy9Fee66/JbYX2v7z8pvi/862plRvWjcRER808821zJ1yD/zYSUJhucjgc9KVQLWhKniRwGQSGGtNu60s7ttghzwEZPCXUelIgb+/efh5yJfCm0vLNzLu05HrVtVcgEzIQgPv1r6EaFli8euW5rVFSXQbDCoJ24GIWAHVYojXeIs+o1RiVUEWy51+hrBnNQ0yitbn1TGZ2Zgep2O/AppDAFvXcVJsjd1463QqGIZM005o8y5aYUlyw1E6CsStjdurA3zY/2Z2VNicPtpYFQYiFa6E4ffS5vayVuy7GASbsQRL4RuvfUQ2L2m1plZW7bsYBJuxBEsSTGjJzMr8jlX4JUWmvhwKCbP/AkCM/L3sQvAibg4CY8+WZs+yeI3J7607U/QY1XdDNgyQgcHsEz0HW9SJpE0B66wxQ+zYZodfLeSvqj9e/jrpu6G4gieKyYniba/u4ZijVsMY8kVwnHIYZCMA0AN60V7V2xAK8g0g+243wGjmGGkgCfsRCcva98rdEJgB939Br8Vb94H+rEQjOdPDzBC0eNamGkZhUA0nQn0UJ/Goi0t3acNB3CkXxkNE/WgnFlBhIgr4V7+ZWkiSzXD7rQXzhRf5dQRSOGBV8WZlSA8mBgO7m3cuIoex6/97CxMTExMTExMRELRz3fw1pEUdP5gOrAAAAAElFTkSuQmCC'
p49
sS'andr'
p50
S'data:image/png;base64,iVBORw0KGgoAAAANSUhEUgAAAEgAAABECAMAAAAV8YMOAAAABGdBTUEAALGPC/xhBQAAAAFzUkdCAK7OHOkAAAMAUExURUxpcYVcUoVcUoVcUoVcUoVcUoVcUoVcUoVcUoVcUoVcUoVcUoVcUoVcUoVcUoVcUoVcUoVcUoVcUoVcUoVcUoVcUoVcUoVcUoVcUoVcUoVcUoVcUoVcUoVcUoVcUoVcUoVcUoVcUoVcUoVcUoVcUoVcUoVcUoVcUoVcUoVcUoVcUoVcUoVcUoVcUoVcUoVcUoVcUoVcUoVcUoVcUoVcUoVcUoVcUoVcUoVcUoVcUoVcUoVcUoVcUoVcUoVcUoVcUoVcUoVcUoVcUoVcUoVcUoVcUoVcUoVcUoVcUoVcUoVcUoVcUoVcUoVcUoVcUoVcUoVcUoVcUoVcUvzCG4VcUu1sMP3DG4RbUoRbU/3DGvzDGy8vL+1rMP3CG/7DG4NbUy0uL4lfUPrAG/7EG4deUfi/Hf7DGoZdUe5xL7CBPqx9QPm/HPW8HY5jTsKQNohfUfzCG9GdL4RcUv7EGvO6H49kTey0Iu+3Ie5zLpJnTINaU6p8Qb6MN5NoTPqwH55yRuStJpxvR/q4HS0tL59zRsGPNvmuIN+pKfe9HZ5xRvu9HO5wL9eiLO1uL/G4IOixJO91LvS7HywtL/B9LFRKKzIxL9KkH6yII0M9Le64HI1jTrmJOoRsJ65/P/e+Hah5QpBmTcmWM7aGO/O7H6l7QbKCPSssL/a+HfK6H/ekIvzAHPSSJ9OfLveiI/WYJfisIHxmKPKIKfu/HPmyH5V4Jfu7HaqHI3NgKOewJXtmKNurHuCqKNqlK8uYMat9QM+bMLSEPNymKppuSJhsSe21IruLOfONKO1tMPenIriHOvSUJuGqKLuKOZdsSa6AP/O7HJZ5Jc6hIDY0LtioH/vCG09GLIpwJuWxHTg2LuCuHr6WIVpOK+m1He93LeezHfq3HtejLOOtJqR2RMSSNYxiT/e/G0hBLX5nJ/GFKpBlTfafJPSWJu96Lfq0H/GBK4FqJ5R3Jfu8HPORJ+94Lb+WIb2VIeKvHuq1Hf/EG/i/G9+tHp19JDExL5x9JLaQIvOMKNT283wAAABTdFJOUwAXAxD4Kwb+AfshAgT86dyM1r9WJq4j8kgNC3TulmSPSnzFE+9GeWn2kMlSzsKEoOd32NJshjIbiZpdWqll4Uzr8bUULm+wt99gBX9hUPW0maqn558xCQAABk1JREFUWMPtV2dYU0kUNRIMTTpIFxBFpOnae++7bnlv570EAkkgsECAD5BelKqioChNikoRde0dG/a1d+yurn17cXvfmcy8BDSB4N/1/EnelDP33jn3zky3bm/wBprRvY+1ncsg8969zQe52Fn36f56LD1sRzm7D+zFF9AQAn6vge7Oo2x7dJnGvu9IMz79EvhmI/vad80aVxsnWiOcbFy7YJWtswetFR7O1rqG2NWH7hA+4010cstzIN0JTD11cK/HIA+6U3i4dcrU3XMirQMmenYiKgNvU1onmHobdEg0xYLWERZTOuLRG0PrjDF6HRCN5cTM0uGhoeFsfNuZ8Sxqg11E5mO18xgNJoPCszPilhysa4lmGY6GYaNb6g4uicvIDictg420RtpNgIdIzycDYViYUL4gglBBmogFctQGks9L8SiBm7Z425JIx2bIhZQSwqij6dEsRHT60SiuTZ4RS+Jtq8UgR2wQE6kAFAfhqgUxR47ELFglVDUBRSR2WOCo2aQ+7phnzTn1JERFyWRU+5ZzazCTex+NRHZY02xEFNUJoiLw1k2008RjPJREKC6sM6KwOBLvocav0Jjo6Q/AnkXPx34AIGsNajs9iJIBHDzh/ETs2wB9vfYVRc/K38fMEBOlJitHg5UV331/TazmEV/bVVOxEvclp2IiQzMff6s2Ctefpi7PzJokNBhcqinLlZSWq2wKKi+V5JbVXFJ2Jq1h1IV8mr5K0JaIgHQxVQeQayE/3ZIEBCzfJuOIZNuWBwRIbv0cglw7UMWNRr+WROIm5rAhPLWKrBB7OAEZcAPyBOSW3iQmBd0szYUNkhvoO+EwkSRdlRoOqcxxoPRnQH8eP4wIJvl6UjlxXxOad/02R3T7OmJu2qb8PkkyNzji4WPo5Qzs3Mye8U/iKHkkIQperYAhDrkMpwUsv3uPiBzcu7sctVyGrokVq7mxkXIq7kl8z5lK/Yyg2UY5UDwiqzDHiuHkoCuVyIJd6l3bhSysvAItAsXHSIjYRwogb2TpEUhPs/xpJp8Cc+dxRKknULRleyrLru69DyjwGxCHwJ/7e6+WVe5BwReeSOWI5s0FVD5D+89Cx8YHdHwdUBPFJyYhIrGsvOIOlI3413/+/LviFzEU1p2KchkSljApMV5NBOpo+n10qJg400wGBRryOIuOY0VSISHQEOppzV+5Esm+dZAJNuB4JR/nLMprAFQGQ7+Hts1gNs2mR4nXrWa5VdaDNonx+/MmiaTpuaxNE1jPLcquXieOSmfp2cp6YsVnMpsT5LVkJ9LaZz/4Y9+zZ3v3g/bZn0Z2rVae0JzJ8K2wsGFhrF8Fqkln6KEE9RSRSASe7t+vAPCPSJ39h0LJotVgVT0slVjaxn4CWrr2s7XYIiaRZD8koQp35zzIKsjKKigo2Jmzu5AiZMLmL3CQguE0KS3wI9VkOMo1KSkx7CIcItHH32w+u33FpykfYaQsW/H5xg052F3VFitnWQ5Xna/TDVXJzKYvVA7O+ndZUSDEhxzQR9GKL3egzoXprGqC4fQ2Zy5vqq8TvizSwS2ISFTwdRsONQIXb0DeLWzBcRDwnXyn8tqVtsnDvCcR16BYKdFXmmgQ01mla4uwRZO8h01+tWhb9VcHW7S5SDOR0iKu1Pa30niK8HDRDo9BaVD4ySkNNgWeelGILMrH4RnA03xADlGGnLmwFJlUuGXZy1EKDEzZUogMWnpBaZDhEC1nNs8XL1TboBTAzo0/Fqm2Df1J2b5VufkNtXicL0/bLcIVX9dCz5QgTYqoB5tffAuFtHgxUtH2LQXIHEpYcgbresJ47RfIfvg0Cb2orCRIyD/k7Nx6+vTWrAe7d2BZg6SLmIffr4NLsr0XUWb2JoUQcNkmUiUaECrisokOvTp8TOh5zcFqkjZuKm4Na393CGst3tQoxQqa46XX8bXWwZFca1lpdvWS5pJWWCshKKq1pHlJdTahoU0dHTq9aNtZknsby8Zm5rXU58dA5Ne35GXGMoRGYGmny9uN189MdX4Hp3FHalqw6pQ2c+Pp9qox0PezMNR2K+Zb+Okb6PzOMjZysRnH18AyzsbFyLhrT0gH69Hm777lNMeQ1IteEwbbjBht7dDtdWA/fNg7Q/rBx/FQx7ft9HmvR/IG/wf8B/2mvps7rB20AAAAAElFTkSuQmCC'
p51
sb.