ccopy_reg
_reconstructor
p0
(cemoji
Emoji
p1
c__builtin__
object
p2
Ntp3
Rp4
(dp5
S'emojipedia_url'
p6
Vhttp://emojipedia.org/panda-face/
p7
sS'index'
p8
V263
p9
sS'code'
p10
VU+1F43C
p11
sS'apple'
p12
S'data:image/png;base64,iVBORw0KGgoAAAANSUhEUgAAAEAAAABACAMAAACdt4HsAAADAFBMVEUAAACQjpCPjY2amJoAAACQjZCNho2UlJR2dnYAAACRjZCblZuTkZOgnqCnpKWgnqCYlpejoaObmJqfnZ6YlJWhn6EAAACdmZyppqcAAAAAAAAAAAAAAAAAAAAAAAAAAAAAAACIiIiNio2YlJYAAAAAAACZlpiYlpgAAACmo6SenJylnqWcmZuUkZKfnJ6pqKialpihnqCjoKKZl5ijoKKrqKqhnZ+amJqtqqsAAACvra4AAACzsLGuq60AAAC3trYAAAC0srQAAACvra8AAAAAAAAAAABNTU0AAAAAAAAAAAAAAAAAAAAAAAAAAAC5t7i5trhfXV9fXl8AAADk5OTi4uLj4+MSEhLl5eXw8PDm5ubs7OzY2Njr6urn5+fo6Ojh4eHh4ODb2trs6+vc29wLCwvg39/LycoICAi4t7jR0NEFBAO8urvX1tfd3N3Ix8i3tbbIxsdiYWFwcG4BAABqaWlnZ2bW1dXKycm6uLnS0tLa2dqxr7HEwsPAv8CpqKjNzM2wrq/w7+/My8vQz9AdHR29u73Z2dksLCzGxcbz8/PU09SsqquzsbK+vL3u7e3FxMTe3d3DwcLp6enu7u7y8fHV1NQvLy/8/PzBwMHPzs/e3t6/vb41NTU4ODg/Pj4TExPNzMyysLEpKSmIiIgXFxdLS0taWFfT0tNkY2MgICCkoqMQEBAODg5WVlbf3t4zMzNubWxfX15GRkWnpKaurK61s7Sgnp+amJgmJiZVVFRbW1ocHBxQT0+dm5wTEA05NzUdGBVQSkb39vZ0dHQqJSBcXFxJQj7+/v3y8vL29vWin6AhHhs9Ojb5+fgOBwHh3+C0srMaGhro5+ciIiJUU1GmpKRDQkIUFBTj4uORkZFsbGwkJCRJR0YzLixkYl4kIh42My8nIBmBgYGUkZCPjIru7ur09PSHg4DOzcoTDAQNDQvl5OWUlJQWFBFAPTlGRURERER9e3xlZGIZFROsrKlhXFeLhYLq6uWhnZo/NzIaEwxZUk/y8u7k5OC6urWHmeOwAAAAU3RSTlMAQTQ1KjkTCgJklxegW8uz0me+Q8zexcWECz/6i4936rceXu0bIPxmB7B3JY+6pdqYq6Lq/euY7eLV8rHvnF3oy8NukBedl6iFFUXxplLr9/fz8zxqN4YAAAi7SURBVHhe7ZZVkBxHEoZHFqNlkQW2JDMzk8wy+6C7h5mZmZeZmZmZGcXMzGhm9mFW76y0O5LiLu7p4uL+iHmYqs6v/8yq7CrKf5v+rxUrV69/+7Z1024EmLbutrfXr1654kaAdctWYUhrPnz/eoD3P1xDTq9atu66gLtfIqfNZsRYe42LaWuvzmIv3X0t4J4XYFr+9c6zO3/8QoVhH8yeDJj9AYapvvgRpr+WA+SFe4IB9y8D/MiuU6e+PVI0vGlIhUneefP1V/+gBv3x1dfffEeCqYY2DRcd+fbUqV0jQFh2fxBgNsTvPNTXO1DZdqSoaHi4pisyJ8Ygk4XJZHaDx6seNA4PFxUdaasc6O07tBMIQQ5XvIZhQ1WWH4ybGyvbitq+L/UaZLnOOJtGo7FlViv99uR89/cwUdm42fiDpWoIw16bvBYrV2HmbzaaWizW1sZKiy/f4HdqosR5TVKBQJqXImRnKsNiEn2WysZWq6XFtPEbM7Zq5STAG2DgDABOWI2byx2eMKdGLCW+pHORmPgxfl6UTWlPVZRvNlpPAOAMWHhjEuB2DNtkMp2wWI013ZGGXJtYinN5HBYpkYjH/ZJIiYrzJ6u7a4xWywmTaROG3T4JsB7Dzpks1ppWY1eiLpydR2WmsZJCQxmg0ND0JBaHiwuEttwYdZextcZqMZ3DsPVBDsy7WqCEfd1qnTIqDz8gQuHbkDIyGOnpSaI0Jl+rCY9Rd/dBGVt2mYMcrAaAtbWvt9wRA+/HeaJ0FB6LBAgGA0ykMQmtLTfZUd7b12oFwOpJgI8w8+kzVb0mvSdXE4iH8E+QAJHBCE1iiXh0vtbmT9WbeqvOnDZjH03us4+xs1WHquJz/JlagstJD83YBuHbkQCBCOksDo8uEFbLvD548Cz28eRumbUWGxodKI+0O8UQn5TOCADGCQBIEkElpVFKg7p8YHQIWzsreCurzhn1UAApDvUnCwDxEyygpYAypGj8Hr3xnCp4K1PeW2MeGUz127THmBwAgIHY7eMaywEBuDhfGBfmHRwxr3mPEqR3MUu+LM4loPNErLESBAMgBx6T2sR26hKt2LuUYL31Z4cBdgCVyxElXR/AAgCXTu4Gx5/eugawXAErKObTeQjAuCGASYUd6fcolgcDbunMCcsUSmELc1jgYNIqxJKrAAAoAhcn8lywlvtumQyY+mKizsluIug81ELjgE8m7gMoIieNx2RSIQmlLvHFqRMBMxc4YlACOJcLKYAFqS55W1Js7JWdWF2y8dBxLw4AOh0lkZusWDBzYgIJObJqlACTm8YRcXMvVEgwSVt5LIiM33gQkzfIjxq9UEU6nWhCSZROSGLmY8iAlo8zmTxeGqe8UF5/9CiNVl8z1o6MC5Li4mIaDJSpuaQFLXS247GrFua780kDdDqkIPgKg+dJSUwZ0MyMrnoUj6Q6kshk4qiOTnu+e/4VwAN6j98GBuhMAByvbaDRAgRVCXxQWIF4ZKG+l8+k41SBGLXlA+OAuc+ooQmaCJwJSi6Ug9kAglaZnp4+KIH4gBr6u+mQAz+PDd+WZ+YGAIs7InXOKCkVp9OZuAnCKgqbmwMWeElJlSSvubmwAhEK2AAg8qKcusiOxQHAg+58e7VLiiOAoUBCKy7sj44oIE3IFUn0kwhQEBHdX1gMgP1fQQpUqasaivBgAPBsglcWJ5TidFApJHAywqr9LrqWtNzN4qIX10Z/p7VGIJS8VYvjVKkwTuZNeDYAeGKfNyxOKKAiQI2ERsuKaPE11kYjgLxcFFUPgOjaRl9LRBaq434CAALU1fueCABuJgFQA1igAQQoK6xsLgMAqFyEFwAhuqy5srAsi2SGIAck4OZxAErBRQIEB9HTWQUFBVll5MLrRXgWAMrIoTFTCgRwoRTGAY+OFZFAhEIAHIwuLCrMqoWSSSy7sxkbVbTi2iwYij5IlqUDp/LHivhoAPAwLKOSncenUql4EZis6IluLuupAEDW5a1bt0b204oresqao3sqSAcGKiHQspWwjA8HAPf5HMlwHAoIgkq1NAAhAtQP+6Hhp90AyGiDVuhHYzSkHipBCMToiPHdFwBMretMhSI08QHgkKBds3//ftQ9fX/biuSobSgmh8gMqqgEv8kVF5baWTd1vBmXuhMNSo2WtFBLu6LWX7NJQPYg2BqXRAMG4JNiSHQvvdKOj/sUqWFgARH0qgCg4tPL2yGaJPykqh9vhi4+ISANKHyPU8Y1/Wl3pCFcI2ySQhaDRxvIVP/xa/Jvl3759NNfLv32WfZnBxsQQiK5RBDSJqEm3BDpfnr61YNtkU/vtcOtBBGInJMVcnnPZ5cvbhn9K6nRLd3ZaZvhnlY2EMXnS1PEGqfdq/ctmnC4TenqcHhkTo1LK0WI+AtVf9+QPfr7loB+H83OzuYfTvZDuFTr0jhlHkdH1xTKBM2rcwNBaWMLxSl5cLOKhYifz5/fROr8+Z8BECuQwn1LLGTbwiHeXTePMlEzFra7HTm6XKdNw3a5xE0bdu/ebRj5S0AjBvi7oUnscrE1NmeuLsfhbl84gzJJNz3XHqLIT7b7w53VcbYURgacTHWf79nzOfodhsMlg5Fii6t2hqMroyKk/bmbKEGa8lRdfKfD64mxy0pybeiAC824aMb27MHMFzNC0cFq85fI7DEer6Mzvu4psgBBHhZ2+Tr2KdT5OanJupS9BH6AwzouV6nkx1mcAzixN8XgSc3JVyv2dfi6FsL7r9WMOffuaI8PSejUKxxhmZqolL3HmKWnT5cyj+1NidJkhjkU+s6EkPj2HffOgfyvq+nz7hrcUXfY54tP8OhKwgGiaGxUQHB4id1TGu9rP1zXNXjXvOmUG+uOO+c8smTJrYtuXdoBt3VZSbhSGV4ii8mJ7FgKg0uWPDLnzjso/0qzZqEGW/zKy3p1fiooX61/+ZXFM8dn/n09tPz5kNKEhNKQ55c/RPnPNHf+kwsWPDl/LuV/W/8ECFY4glPsK4MAAAAASUVORK5CYII='
p13
sS'twit'
p14
S'data:image/png;base64,iVBORw0KGgoAAAANSUhEUgAAAEgAAABICAMAAABiM0N1AAABQVBMVEUAAADM1t3P2N/M1t3M1t3M1t3u7u7u7u7u7u7u7u4nKysnKyvM1t3u7u7M1t3u7u4nKyvh4eHu7u4nKysnKyvu7u7u7u7u7u7u7u4nKyvu7u7u7u7u7u7u7u7u7u4nKytdYGB4e3vv7+/t7u7y8vLX19fJysr09PSusLBrbW2hoqL9/f01ODhQU1OGiIjz8/P4+PjwpK3ysbndLkT75ejmYnP5+vvs8PLneojm6OrM1t3OwcraTmHSl6TZWGru7u4nKyszNzdlaGhmdX8/R0uwsbF3hI3JyclWY2pAQ0OIk5vV1tZZXFy8vb2XmZni4uJicHqqsrfk5eXm5uejpaXV19nM0NJydHR+gIDd3+BDS1B2eXmLjY1ebHWDhob5+fn+/v4vNDZaZ298hYtCRkaTlZWZoqkrMDCiqrBMUFD///9m8Z2KAAAAIHRSTlMAUJ/fAECAr7/PAECf749g3+8gII9QMBBwn58Aj0DfUFo4S/gAAAP1SURBVHhenJXnbuMwDID1y82AUbeXtEjSJo9CemXPzr3Hjfd/gItkRhLd+C7W98cAIXwQSZEWG3qtANcErV5tw6m3VwGiuueddjaws4TIPvUANUFdWdo+5PDbysXPclEDGY3afhe20t3v5M/aohZyogMo5CBCTotE+j7JMF4zTDBM4Z+koT5LdyJRXWpe32LifQH/YfEeE2+v0lQnUSA9y5j4gh34iomlNAWZqCel+j4r2Ilf+k64pidFqtLJ7h5iFRMJ1VuozIY8rzLZDSk3UcM1FBxDCcZkwjU5Uf8cSnDeN6IfXHQJpbgsutEKSrLSIlbsPpSmr4ttt/8KSnPF2k8PcgwOjOlB2iNyCw7c0ohYQ3sPTtzT0Jo1MgEnJrRG9GKLwJEIW2zVzsCRGVu1tUNw5rCTIdTnBJw5YaIucC6iESJOL8CwmE8RMYwopunaoiYw0hESowEQAxPL1bNpidrMc42GcEJtDtFww0RtS+Rzj801KKb5oME3oiPu4Uzo3RWbjrTIA8Mcc8y3RlMweFpUtXpDtbhbxvHyTqcR8RhiuABNdSM6BsMDKhLzq5nK8IjFJA9gOFYi3ny60GMmepRSGWYxxSj/AAQr0QwzYuIniXhMMQCNR6IKy2xX0Rw0FRL5xSKTGo/xIvmZyJ78qYOINoBgtb5xEzWVyAPH1Hi1BZvYFL+1//f29uMsN7fCbhos8NuDfHp+eXl+YjFJCMDbJvKjz0bk4/Psj+Ls84NiRQtAdMCCj/nfyuqgJ3UgCsOwQA2SdGzSBCG2GMACV4siFFABHVyxMOQmrO7iJriAhfP/f4D2JPTz9GAK766bJ5PpzJn60iCzrKeHAgLE/xvVWJlUq0bi/NdZ0N9PyUjqU2dCevEmGEFhiDBISHXGCKr+tgABSDxFzWuT0XVT864IKnIn+ADQam+T2i1IHwGHigRVmdNJlD8381Q3OA4dBlUJutjv3AJAt/ulixhisz8wh0ImYNOfIAdQCCjoSqcbAAoBObtXRCU/zCDTElK3ZZDBTdu9Ip4jIGp1x507frz4ggjCJDG87U9na3iYIYBchT0SF4LdPblHygWEN3ItL8T9Zj7f3BPDWifzGhC2qWcOrocNAgQpPNQJ4QCiyio5kRnhPKqyJyHPpRP+IIF+XzoPdKJdT0BUVWG/0SCKBvt2WlU9ChCqXMo19aPv+nI9lxVPQsj1lQ5CMMNRRI2GYMJAK98FAYjnFHVvTdb48SlKenock7Lu6aLjIUCyStkv6efJd9PZzplN4+9nXfLLFQASktXyk7iX15h5faGPfA1AJoTsSSrbQqIT6/fOuXNuHQmh0wKYwql1PIRyNlkFO2dl9AWPUbIxvZl/1AAAAABJRU5ErkJggg=='
p15
sS'gmail'
p16
S'data:image/png;base64,R0lGODlhDwAOALMPAJOTk+fn5xgYGCkpKU9PT////wAAAKioqHh4eDQ0NMXFxQoKCmRkZNjY2PPz8wAAACH5BAEAAA8ALAAAAAAPAA4AAARz8D0hax1WmG2nWdSwcZU2GqYxIMcBEMuZxIhT3LeSkAtQBIGbo/FLVBAFhiqIUDUai0mg+VEUCJtBg7EgOHaooHLTGjCuG1+hoVkoDoMBEHAoABhDhGJKOeMQCUEFDgBREgkADQ6LQwcwHQ8LAwkJAxQWEQA7'
p17
sS'related_to'
p18
(lp19
V\U0001f43b Bear Face
p20
aV\U0001f1e8\U0001f1f3 China Flag
p21
asS'name'
p22
Vpanda face
p23
sS'known_as'
p24
(lp25
sS'default'
p26
Vemoji
p27
sS'bw'
p28
S'data:image/png;base64,iVBORw0KGgoAAAANSUhEUgAAAJAAAACQCAYAAADnRuK4AAAMp0lEQVR42u2dL9ROSxTGvyAIgiAIgiAIgiAIgiAIgiAIgiAIgiAI1hIEQRAEQRAEQRAEQRAEQRAEQRAEQRAEQTj3/t675q5t1pzzzpkze58z593PWrPu4rve7z1znpnZ+9l/Zq9zOCZgz6fA4QRyOIEcTiCHE8jhcAI5nEAOJ5DDCeRwOIEcTiCHE8jhBHI4nEAOJ5DDCeRwAjkciybQjx8/uidPnnTnz5/vjh49+te4dOlS9/79+9W8hO/fv3d37tzpjh8//tdznjx5cvP3Hz9+dALl4M+fP92zZ882pNm/f3+3t7c3OE6fPt19/vy5WeL8+vWru3btWtaznjhxort3795mYTmBEmBHYcVtm8h47Nu3r7t7925z5Hnz5k135MiR0c978ODB7vHjx5vF5gT6F1+/fu2uXLmyIcLYyYx3I46CFnD9+vXJz8uOBAl3mkAPHz7sDhw4MGki5bhw4cLiycMz13peBovv9+/fu0cgzvOaExkGhvdS8fbt28k7T2qcPXt2NttoFgJhs2iQh4EdtVRcvnxZ7bnPnDmzMcpXTyDcUq1JDGOJbi9GLwaw5nNjB1ofZ6YEwtPS2MLjcevWrazv8+3bt40MgDGKfPD06dPs8erVqw1RcQJyXhrHl/ZzM27evLlOAjHRhw4dMplERLjg5vLfDx8+bIzXGzdu/C9M1iYyz8YxgiHPEQ1hJLGuXr1q8uwMyL06AqEeW01g2IX4nVakTQ0EQgxcCGX5PTgqrSQNEwK9fPlytpe4qwODfRUEYiUcPnx49gnlOzCpqLjv3r3bHKk1B7YUn40ug8hnYettGy9evGifQJqu69A4depUd/v27c0kzqGR4FJjBz148KC7ePHibIvm58+f7RIIL2Wu1YentBRA4LnmAQI3SyBNwXDbeP369aJ0oLnmAW2oWQKR3zLHpBFfW1pgFRd/LhJhozVHIAxV64nCeMXuWaISjWh5//79jVufk/9Tc6CBNUcgFFHLbXoJqQ1jPFOERStPDfG0OQJZKK8QB1tnKclVY4HrXyM3KCda7wQSg0w+5PpWiZMiEi/ZCWRAIMIT2BNrBC63Vr6QE+jfgdK7dhD4rR03cwLtCHmkAFuTRE0SiGh4rQmg9GXXgHNQ6zhr0gtjAmo8PDvZWozlsSAcU4NEmmVPagQimWqqYEYQclfJE/Do0aPJBELUbY5AYEoSGary0qow5wJH+JR51FyEqgT68uVL0RbMzvXp0ydnjtjNS6p2GSTzaUI9H4gteOxRtuTarrmA9jU2Mc/C+TBJaeUMzn14Et8dabCb5Ozo/D8EUC3sR7Ok+hxdCHdz143mbSCin1OVYgUzAoVOFKEJArGsUGpDmTN/dqM5D6jVHPNkPDB3z58/38TTZPqwVdsbEwJBGOtqgV0EsTTrlF4TArFCwoOxYhw6kOIt1SGrIZAMa2i7lbsMpA9ZkbEaAsnc6JZb0i0dOCBSMrFIe1EnEHVJ0r10L0sX1MOF+cZ0aJ5A8lxmJ3LoQoY9LDp1qBOInF+LtALHf5DBVws9SJ1A6D7hgSi5ceiCUm4pKjZd2kx9uJTePcalD5wUSSBtO0iVQNRqyYdBQXXoQ3a+xYRolkAcWZJAczSB3EVIs0G76agqgWStE7Ewhw1kTAwTQnPhqhJIilrugdkhbmZOn6LmCCQDqBZ5PgiURPRDF1W8kTk7uEvQnTZ8L4xabc8o9sToQNscgeLmUuSxaP0eek+nEtaordL6vblORKqtCzsz+VFa5dkQtvnuHHFf5NqrgN0lN2l/jgAuu0zObTwYubX798S7PwusOQLFnVlrtl8h8Yx+zEsorMu1Q7Y1i6gtcUj9jd2uOQIhGspJokKjBhDKxt6zxWRaZztKVzr3O9YU/Y4dO2aSxKdGoPg2nhot50hPIL5TUt5iKWLGCvwYEtXq7ShtryZr42UQlYmpYVOU1kbV3AFzUdocARW5Btk5ti2yINQIJMWsGiKiJGTwZCBUbrmQtQo+1FSTF8oR07dL8fOp31emdWhmJ6oRSKrQTOZUVz2e7NCFPaeZ5xwqeF8Zk7xVcYhkU/s7xyaEViKfGoFkGuuUBG8ePG4XzPEQJgQXeEl1UtsIJG/SGaqV4yib4t4jWsrP00pvVSOQNHanuJGpQjpJCJlIPnQVk3Uqbd/1BjKssE3HmjJvMYG0eg2oEaiWDpHa5jmSgo2Q28jKIj84ACO4z74JZU0cy9tuMOTnpcSPCaQVD1MhkEykn0qgPm+GyY0NaCR8BMvUBS8Y3Ra31+S0p4sNaNr3hUvx4v+XZ6pBIC01XoVAuMw1CMS5PUbNDas1njx5g482Su4HCW57HIJgkONcg0BaPSZVCBQH8zjrS5Bj34TdRQpwfcYpK18bZB2UtmBJ3ata2p4Owli0uVMhULxzlK783ItqZbI+x2efbWFxhOE55d7OzBEsbZyUPVeaBhN/llY+upoRLfNyS3UYWVO/zaYIL6LvWnHLTq+531sat2QXpIhXevzHXqBWn0Q1AsVhh5Lkrj5bpq+rGceYJG4Io7CKrZPLSF/JCWeEOFXfs5YSiN6ItWORpgSKPaGSIOEYAqXcZiLic1aC8NJyrvxkh46JP4VA7Mby8yCyFsyi8SVFhWMIlPJellKHjwvdR5CcPtlTnY+poaRZCBTn5coYUC5KLq2z0ntKXqrM0ckdJdmEsXqvWRumRiC8EXmssAJL7JCxnUmXdNnuNnlDK48pvjqqVEualUBAthopldPH3HwIYZd2V+o25yJXHB1j/8RtlTV7MqkSiCh8Kg401n7InfCSY9Iaso+hRsvjuDZe04BWJ1BsBKNNjAXHXm4OtHYdeA2MuYSm5PiK79bQLihQJVCsSLO1luS4MJE53e41b6WphVzHoDShzNL+UScQOHfu3F8PxJ9L3GuEuW2J6lOz+CwQB5r7VPOSOYrjXzgu2n0S1QmE+xq/+NLIMO75kCvcwtXf5DH1xcr4exZBCXkgSqw1WVTlmnRpjdu8MFGlVRJMLtsyUj2ZiQxSXvkdrTTwZCEg7oXvz8BgnuJByiqMoMKv5q4MHiTeOXBnrYr9iNCTrIWNFAYkRFaY8h3YTcK1A3iY4bNZ+ZbtjOOKFcs6OLO7MuJuZVYkgjxxYLEvoo+XSOhgaJDbxOdtM+r5eWk24Riksg8svVEzAoFUPbs2icaWGNccU47q0p1H5ouvjkA8WOyVhSqLWiW9EkMJaewi/E7KbDDq8XxwgdmJpG0SD9R1dqpwSw5HxVDEXcMzhJSpxQhhrbMPTAkUSNS3K0CumrbDUDS/5qUvQ655TW2KuSPTMCVnzEGeWQgEUJdjr0HGs4h/1ejiNUSgmnbCULilFoHYyfoaSxBwnivvaRYCSXe8TxMhhoN3M8UVjbukpRLOOLp4OZCAIy9ncPRx7LEbsBCGcqCnKsE4H0N2HIZ97QZVTRBIekloOH0JV9gqU/J5xzSiqj0waEuVYI7Fvl06xLiW0Hd7dgJJJZXV1BeuwHAtEdqwG+K0EisPjB2w1M7pW1B4rUtS3BdDoABCH327BseabE5QWwuqNfieJbsDhOv7ntg/xAOXprYvjkDSBe9LvsJuGat1BJurtPFTbjptqQPAd0vtOiE+ttQu/4slUACrLhVAZUWWrHKIBDnxjrAj0H769J9UHhJHLH/Pz9kt+LfEsYhvlQiifQ1DISNHmXZP6dUTKLz0VNUmk9xCCkcfOI5TJMXrmtOzWh2BpN6S2ubZBaZEskvCDVOOFP5tn3qNPrWUDvurIxBgZaZ0EWyF0nIejhBIyG6WQ0SOlVKBkABr6kie8v2dQIVHWsrlJ5F/rN0gE935TNx+tCnCHYiZKNqkaECy8DtLCMRnpKL4LAitDmJOoC1HWkoFRtofU0KUauK5bYxJ1WBXSwWRQ+VFy/eoNU0gQPA1JRRCiDEpnRi0OYn7qbYsQ0BFTxVHQnzNW3ScQCOPtL7GThx1uS+bXSunt0/uddqQMqU7aVyw4gSqAAKcqV0E2yXX02JH4wWncoHwnHKORryoIRttTVd/ropAYRfpU5vxtrCbtMIBxPMwrlO/HzKVVlw4gWawi4YuZcGNZjfBRuKYKQ3ShoR6jk+qLPoM8biHoxOoAfCCsVVy+/KwawylssYj1+Bm12vVRd9pAgWgCQ1l82mlcmADLSFfxwlU0VND6UW0K7nLKzeBjDKbpQdAnUATgZeEEMguge1S2n4u2FLoOdo16E4ghxPI4XACOZxADieQwwnkcDiBHE4ghxPI4QRyOIEcDieQwwnkcAI5nEAOhxPI4QRyOIEcTiCHwwnkcAI5nEAOJ5DD4QRyOIEcs+MfQqzLGztCMb0AAAAASUVORK5CYII='
p29
sS'version'
p30
VV6.0\u02b2
p31
sS'uni'
p32
V\U0001f43c
p33
sS'desc'
p34
V\U0001f43c A panda\u2019s head. 
p35
sS'browser'
p36
V\U0001f43c
p37
sS'annotations'
p38
(lp39
Vanimal
p40
aVface
p41
aVnature
p42
aVpanda
p43
asS'wind'
p44
S'data:image/png;base64,iVBORw0KGgoAAAANSUhEUgAAAEgAAABICAYAAABV7bNHAAAAAXNSR0IArs4c6QAAAARnQU1BAACxjwv8YQUAAAZUSURBVHhe7ZvNTyRFFMBXRDQZJbrRjYLRoDGLMfGE2XhZuXCBmxy8e+LshQNX/wBucvAPWL1u9mRMuK0cR0BnNSYSSDSgm4CCIF/Wr3yFNUN116ue7mEw/Use/TFdX69evVdV3dyoqampqampqampqSnAE3JM5Xkj7xn5wMhb3BC+MfK1kW/tVW/pmzrNGtk2cp4ja0beN9IrPjYSq9OyEV9xlfCpkVDhWfKZEXo2xrsZEoMG0/BQ2VkyZaQSsJxQgTGhAa8aARpNb6O4lIbxLGlI6xRHQ2NWExLSqC1J64Owgh+MvGSv0tmRY1v6paWldY6Tk5MDjUbjSXtT2N/fP11eXj7jfG5u7h178z/Ir2hd4EsjH/17Wg5FredCxsfHf3/48OH67u7uzycnJ7vniRwfH++QljzIK1RGojirLoUvjIQKiQoNOjo6+kXaWRoHBwdb5B0qUyl0emkkj/XNzc1Hp6enf0l7KgNrLKgoAk5phAoIivEra0WGULdQJmWH6pQhjIrSCBXQJviFnZ2dn6S+VwaWG6pfQEpVUO4QQzk4UanjlYN/UjjyUodYppPuN+U4qFNEScypSoPMLhXSr8pxYEmheouUuuwgs0uFUAGpS9+S4ZNw5qXTFiFardZ3Uoe+JxDdSh1eDtY+tgCGVi/mOGWBG3B1Fyl1Fu1jewKzlbKvDd5kMsl6BuSo5ZaxnscjIyOvyfW1YWJi4pacviHH0mEDLMn3sLi8f//+mgu38/Pzj4pOJhnS/kJ1dnbWLlxTZu2Ub9Iyp6sEu1mmCes8kzftp2HyqAryk8YF86PTND7Ri2iazbhkrCVIWZkoZ7FqJdHwPOU44ZmYkthVkOdLj2JsmNlwKWUFYUjxnFY02yBYRyhtSOiYmIXLs6WuwwCTzI1eqcpBNNEQXxNKmyUoKc8viTWqJ4raKNaQYxBTod/u3LnznFyWyvr6elK+xuJuLiws/Hp2dnYot9oYGxs7NofOLdyusWux0NKCcZ/ay040Q8ybvyQJ0VOyaMPLr1SsgkINyljrRCWrAZ3QARqnH5JIfVWkThQv8eDBA0w2CWNxG9PT02/KZS4DAwPPNJvNv+Uyie3t7T05LUzXCkrFWMPje/fuNWi43IoyNDT0sgkCG3LZFbxOklMVWgXt8mdvb+/AXnmMjo7KWRyUs7q6ejY4OPii3FIzPDz8unHA38ulCpPmaTm9wL1r06JV0I/8OTw8PLFXHnfv3n1WTqOsrKz8UUQ5jtu3b79tnCzzIhWNRuMFOa0cOw8KrcO0TpR5kiTpGk1ky5rUSl3V8yAtuTPpWCQr+22HZvmRNYWQ30ufSYOd1Uo5beRVWLvmSiWvzJClA0qTZ/gQonTsmw0qJuW1wfS+s8JVKccRUlJemd5yqJItV7vdkTf7pcIMJ4Zcrzb0/TJjfs5b+FbycZf9woOKSHnXDm+PqpI9afvqR7tE6Eeov5HKdhRhmzAp5SXjhkNqyMe/ka6bYVu1g3aQuWrbNYTvUN2eMsqi8r7zJ3/uMZyxWJcGKTrESSd5VPaNIth3Y1lhNA+sgLTdStEh7nWO5qPSwpD5dtZ8KIYXRQpLEesljaSvdHg5bLgv6g80y4QsKbpc8cqsdHg5bDSLbeDnkaokAkNR5eDbqlp/5WFn1XmTxhhEJc0il+FcNChAr5xzJ3Z1j+OTehQCx51lTSiPxvnRLRUvMPTUehzWF2nDLg3Nsjga4vW09W8hxfBcitV6M+de/t/IBTaiGVFFFmcpHOVWGzSc35EQKMcNSY0/8hReydaGFvtBAxWPDQXfQhiaNNJPw7X7HWXI7Qvrcsrh6P8ewsuLDqx03qPBvhKi0TElpUavTkE5MevBmkWZKKfU7xC7wfojlBTrXfwLkYnnUwTlavJ2lmakp1FLg1USFdRMIulpnmP4YBXO+Tpn7vZ4OI9ZJvhD2EjfKcdhhxtCj2sa1i0o0Ftn9dWwyoI5kg2vWBM9W4WisMAOn8Y668odshYqijXZaQDCKpyhFPMjeaAUhp5nMQidUdk8p+h/PWtBUR8a+cTIxScnxklvTE1N/TkzM/OU3Mpka2vrpNlsni8uLr7SarVuym3gvwY/N/KVvfofgG/Aquw6roBgKQwj9sYr+865k6otKA+sS/s58VX8H35NTU1NTX9z48Y/3IQ0EevJqEIAAAAASUVORK5CYII='
p45
sS'andr'
p46
S'data:image/png;base64,iVBORw0KGgoAAAANSUhEUgAAAEgAAABECAMAAAAV8YMOAAAABGdBTUEAALGPC/xhBQAAAAFzUkdCAK7OHOkAAAMAUExURUxpcQcHBwcHBwcHBwcHBwkJCQcHBwcHBwgICAcHBwcHBxMTEwcHBwcHBwcHBwcHBwcHBxEREQcHBwcHBwcHBwcHBwcHB/b29gcHBwcHBwcHBwcHBwcHBwcHBwcHBwcHBwcHBwcHBwcHBwcHBwcHBwcHBwcHBxYWFgcHBwcHBwcHBwcHB9PT0wcHBwcHBwcHB6OjowcHBwcHBwcHBwsLC8zMzAcHBwcHBwcHBwcHB7y8vAcHBwcHBwcHB7S0tAcHBwcHBwcHB+Li4jo6OgcHBx4eHgcHBw8PDwcHBwcHB5OTk4eHh+/v7x0dHSUlJSMjIx0dHQcHBwcHBzY2NgcHB+Dg4AcHBwcHBwcHBwcHBwcHBzg4OCsrK0ZGRg4ODo6OjhoaGm9vb2NjYzExMQcHB+Xl5QcHB8nJyfj4+AcHBwcHBykpKQcHB/r6+gcHB2xsbJ2dnVRUVIqKimBgYIGBgbGxsUFBQWZmZgcHB8bGxldXVzw8PHNzc1RUVHx8fJSUlAkJCY2NjQcHB6CgoNzc3EhISGhoaHZ2dsDAwKurqwcHBwcHBwcHBwkJCTMzMyAgIKqqqn9/f0pKSnl5eS0tLWBgYAcHB09PT3R0dHR0dIiIiAcHB/39/V1dXSkpKRgYGJqamiQkJDo6OjQ0NC0tLTAwMAcHB////wYGBggICAsLC/r6+ggICAoKCv39/Q0NDQ8PDxERERQUFPLy8ri4uBsbG/j4+Pb29vT09Ovr6+np6RYWFjk5Odra2j4+PmBgYO3t7SQkJJiYmCAgICgoKDQ0NK6uruLi4u/v78rKyufn59zc3FtbWxkZGcbGxldXV319faurq76+vmlpad/f39jY2HJycpGRkS4uLtDQ0NbW1pWVlcPDwyYmJoODg3l5eaioqElJSZ2dnXZ2dnBwcH9/f0ZGRh0dHenp6VNTU1paWmxsbCwsLE9PT6GhoTg4OB4eHry8vM7OzpycnF1dXTY2NpqamqWlpRMTE7q6ukxMTDExMY6OjrS0tHNzc0JCQu95PmsAAAC7dFJOUwAxDiEI/fD+//0G+wHy4wQQ+wzPAvRB/vgbOb2tsbTD9TRgf9Wj+/vpiCfe/uw8A/5EUFf8/pxd0Xz9eo9w/LVOFv77PvnM/OZJ9/798/r6+2Qr+rn8GlOUdcD6+fn6+vv6/vmo/9r+/mpz8oX+yPv7+v36+v76+2z9+v309fn8+/fZ/f78+/b+/J+XjPf38fz7+fr9+m34+vn3XP77+//28/Px8vH///////////////////////////zYfhx6AAAHWklEQVRYw+VYd1gURxQP3B3sHkpVqSKCijRFEVTEioLYey/YFVvsvZvEWBJTvvTE1J399j5u7+BQCL13wS6CCgL23o0lmZ3bdrsokPyZ94dys29+8+a9eb/3Zt577/8gLZQDbbs2Wdvc16WL2aRW8g8KzxDXiBXuPgOcpV+6mtuaSyaYdwtr5xdgYe0QMsDW9MvAqR1wAolThJcvO6h2dgnqM8Wtres017bzw2ImmznboHHbye4WBCsebbuIFzGbgBO8WHbwaaNwVrj0cevVupMlP4w7WTh07BvVrbuXa2tCJNZjbXgcFwfCVFr79VpoYUnIBffwcJKOB4zlbFK0I94mJK6iKJqmKUqFk29TsnZhnelj2bBC7KwhW7Ztraw+vuj4sx1bt6WMnhXbsKKbPQLy9WvQFO/p34ROBCLRTgz9drxVQ4YFdEFAnrj8087RcxZpgVw0m1aOVsnVY1pAHJspsnHVqNVF4G1StHa0bOUQJnDKttJhq5WDwLtk7xo7iVfdlQxQf0mEZ/QDjcnhUaZI/ZVyi1TrT4PGxX+6yfbc1IyPQkxwVmWApsigmWKkMJTsfUUjnT6PB02T6+ECEu6Jwt/GQkiz8QtAU6X4S37a0PZGTnDlR4YEg6ZLaDTvIqUxRzw7sQOR74PmyPAeLPMEcWTEJi2+StMsoGMzjYegP09uPZ3QwJgzoHmyyRsl/2CBOeejyH8GmisbYOTw3i0EhozygECjipoNlDoGAsWIqHbcUGjQF6D5Mhea5Cri/wHQSdEX/gXQIuglizY8TqsD0MKvtU2KVEFBvCi2i9fDwC3jgSZB8u8RKFDhmRNZWdX+cuDEEzdfXivNTrll4LFmw7PUzpwDYpJkCJcc8VlppTrI+EfS7kqO1ckUGnIwSRKYPs3AudubzxA2bT9gZxnuUQSiZZKgbySJcU4kiLI7udaY3Y7TSQL/niv6HWHaf4TGj15KFmljd46JKCjTWBXYb1RNPhr+EMbNhz1J9jBFdB8jnFO0UY3OvK3H4H9ZAlA6xkzPPp+MsaukFDPDw6CT3Nlaq+hAEN57EQ5lVEp4mpRhOA9nPDnK4eRnQ1t0Z08XPKzhkRgurdITRAR7ksysCWLkn7DW1HH2nEO+hbtMLuSAXuvg1BImkkU53M6vQjZdcIQkdiuMQF1g0JaOAOCKni2O9xFtH7sH/Z3HAT2CVZY2CJtEfqoFYMRIkrA2Y6PfkiA/SQT5FzlHXktFpyYXAp3ggO7CXdPr0J83OSCyNBiM+FQAGoAT5FUtuMRXduoSo58HDYw7zgFVPYd7qWGimJothDVd6/g7LNkskXSH2DUg8YlQ1eNqK1IroT55PpEDir8NP1M3qk7n5WJCh5BZtPw32AVFCUBXgX+cuBE5ksAEEKsXwl/PzMfi7uvE1Yt+vfwPmLbdjEDdPKCPll+hTdsR5p+cfAEoP8fkQLILljtCH3E5gqK2+DImayZ0VyDAgiunSspfQOc80snbECzdURQ1dI5G1MmAsLlaoKm8SGEYpr9aATSP5UuRf2XAc7RQIZxsq0Eyi7C06wCc07F7OV8MitLkSGWLRCcb5Vq/R5REJwdS5nX+bGF1AFRclBl99mdRrhmz/0KcqU7CC+igB3r+dy5MO0OpBIh6xmT/Qa6OTGX46GiaSUD0KPFFQE8Ywjoncfi1C+Ek10Mw8W/NMGS1WIm6jJg2KYff2mXEwmcp06A9tCKIzjxDToqAnD1MFBWSvsXyx9PnJMsZRio+WiJGykzdDlvTaTxntwqDHU24Y9JNo00klrCaZ/7A27pYjIq7Ucylyikd74KEvIwZ8Edvoa4x7D/rMNDs+TtBR+sz0wtFVJ2RV372XLBQBzRZORQqAXSuAezoIeZ+eACYPnIepHpNceHJCr50F931F7XYeQbWzKJXd3JzU8oCC8Cgn+C8/WpRze7eEjbpc6TdeQmVydOI5o3+iEGok4mMiZofVQKHsCbBo0TYBUqAakji/itUkrQPy2iSlnwHs2dB305Rm9z8zBZCpOh1por7sgmSyiwrH/4mLRkjY0skjeoepj1y8JVcaHsyLWm0pPc7fo8ijdWSJOJumeJoZzM4nbtLb67q3sy90G5OgYl2xvCXcTD7Y+nSOw9M10jaEAn1Lb6ykd2OlV4Mkio8VNJ+FFbW1w6vTjVtKbT95jGXJIu+6gYu4Mo+zO4svdf4N9rcBG+2YzbceaO6wau8uudu1NxGr6la/A4Ux5ObvVHX32uyzdteBdq7of4Wt9uy1j+xQZT44O3j7RCMR8dx73hfsF3igLRIldW89F37khx/4CGWJ+b3++7xDCsVCiO+oqf9u58qFL25pwTLHpHRS2fOLb80bNiu+rqyX38pjdzJXtM6RWx0bvzVQ7FkQgBHJ8zq+KFDO/kfyMfuY52b+IAy2GuaNd7gzRz3m9DHxb4ZTzf2ZkE+/TsMbSlcOZ0C/CLmewWNUzb7GaiVcqBZlGfMsoP7Ox5Y5rUkqI2vufo/PSt1VSrVLRpV+wfPS7TOAWt69QAAAABJRU5ErkJggg=='
p47
sb.