ccopy_reg
_reconstructor
p0
(cemoji
Emoji
p1
c__builtin__
object
p2
Ntp3
Rp4
(dp5
S'emojipedia_url'
p6
Vhttp://emojipedia.org/turtle/
p7
sS'index'
p8
V276
p9
sS'code'
p10
VU+1F422
p11
sS'apple'
p12
S'data:image/png;base64,iVBORw0KGgoAAAANSUhEUgAAAEAAAABACAMAAACdt4HsAAAC/VBMVEUAAAAcRRcgQhcfRBweQxsXNRMcRBYACwAABwAAAAAzZCkAAAAmUB4kTR0pUiI/bSQ4Zy41YigAAAAAAgAAAAAAAAAuWSYlURwqWRwAAAADBwIAAAAxYSAbQRQ0ZCkhSRcjTBgDCAEAAwA0VikgRhhGbDYhRhk0YyRAZTZMfT0+ci8aPxYfQhg7ai4kRhlDeDkAAAAAAAAECgNHejlikE0rUiElXB46aTI/cDRMezwhVhtQeEE1TSogQBgrWScVLgwaRRQ4YioWMg0BBQEtXygdQxYhQhUAAABEdi0AAABek1BXi0VRhjtbjE5YjUtonlopSRlMkD9AhjM6gixJjTxGizlQfzRanE5FZzCDrWY/fDa34plXmkqaxX04dS8zbypChzZ7p2AhXhkqaCFzt2d8wHCKtW2Ru3VRlEQlYR1chD9XdkRTcj5qrV1doFE8ezFzn1oqbSFnqVt4u2xCgDeq1o1Tl0dEejJ1rGQxfSReekkndhl4pFpPkkKNuG9usmJblEsyeSSo04proluCunGx3ZUueSE3aSczfyZ7smlEiTd5r2c1eyc9hTAvciRsl05KhEFjm1Z8tG0reB03gSqVwHdThjhaizw7bSw+cSwsViBBdCxgi0NKazhljUsnZB8uaiZFhDs7cDOGsWhAYS2HtWijz4UzVCMuWiE5fSxUej0zXyK9551PjUVFeT5ynVNQiD9rk1SFxno2WCQ7XyZeo1Jjp1d/qGU8XC1uillimD1KeStPcjh2uGrB66JalVKgy4I+ZyR0p1QsTh7N9682dytho1QjYRptoklumFNKfz9Vi0vI9ahigk1ml0limU5Ady9HfzWW1otuqF1MhDp/tm4rWR5oh1ImTxqFvXUoUxwcWxIuZSckdBZUjEJwqWWt2Y9afkKAm2tehElYkUY0Zi2BxXVBdjCHpHGBr18/cTVfkUGZx3lBczwTDhdcWV6Q0IaMy4F2kmE0ZCWOvWx1sGjY/7kiSRkgcBKM0YCbzYNhclRXaUk7MkKNwXpfqkOYAAAAUXRSTlMAEHMgCBcyAQJAMTE/VV7+5bwoObK8j22AH1/BxyZT8J+efa2qxc+d9cBqRE6A5U2niHCW+sT+/anl8fT3YdCGsbK3TPKD9JX8kcba8NSf1v6+C5TNAAAHH0lEQVR4Xu2WdXDcxxWARScpYlm2JMuyZIplduLG7Njhtin5mJmZxczMzMzMzExmZmYKpzTd30mOG+mUGXn6V8ff3OzcvLv37b6F2dX53/KOd7zDYPdfv/56606TtxXs/tu/1SF/xzcctjV4K8E295Dh4RBuP6eh0lr3bfoPUg9Pc1+8+CcZn9u90Wj59f+FS6ye/se/XjznciYq282XLXCS9YdUTz98/vxICr5OULx32UP4XVtpCJFIfNjB4XjHCXBH9Jcr2EonB6oDS/ufgvxcAa7McNkCGZdMTvHlFNHjsgWVuDKzNwJdwx0WFuZm+r+9uAcainxBOt57Ijdb0I1rWjsfN7S3trp3uXay9tmWo+ssfmN5nSon2vB4ugz0f+tWZc5GY03U3PpxfF/CjRrqjcQbQQlTz6xsl5wbY9ucOxN1E7mCyu7KmYaDMCi2fW/tVFDipcaXffmUhFevGoNv9D1ztl+yEjOXnFt3bolEwoY2/EcmoHTbwqvxl16ePn26j9qopFB6Tr98FUwofHx06fndmCP0nLlA55JT6IctTBxrExLjKTXxBEo+m61ku+ZRVAQqwz+h9guLpQT6W2ZkbRxyv/pmSptw/2Tf942EGixWUiBt7GGx2H5XsAqxgkrATt6zW8qwMxfvSy4NDCQS8ftrp87cVxX83Hi/8X6+kq3sYbEJNWwWW0mg+scvadA/TOeC/m9Wk+8Vxvf5+TOVyp4e5X2qgq1ksZQSJkuh8OspYNao7i11Vj5tSAkMIVar9+cT4kkShsQPALrmsVnQFyZJ3NrS6qfKqyF8scRM6t3hqonV1bX7pCoUKV+qGG1tVYhZBSqWWCxW+BVQFKMSrKSFmh9feFT7an4s5KiJvTIGRVUAV42RSGAKJS3iGoq4tXV0tBXLl0hIJJKrK59CuPqlVsGOHHAoyfuoUlUkPE/K8+HxXF1JWB9mCxaihYkmufr4+PBoDEL6obXaF1KW0j/Jp0hVaCkfDkfB4eD/rnA+CZh4PBKF6goHURQ8Nl96dZPWGqxzfb351JGKmMi8ERQajUYB4CjggvCJ5PvANVEaQ0rdp3UeLYRtbsyRkQokkoFA0GiRkWjwQfMjURrgfBoKBGg0tFw+krdORxvv32HGBkRHJ8uZMUhkDCIGQQOaPATwABNcPoKi0RCAirGK/EMwLQLz9x/LY0MDPMIZscnhycnJSGCJQfArQBYgMpYZGQMAsbHY2H12Wip4XD+lqggITUq6kpQUGurh4REONMixaKSGmOgxJDIZAimXB+R9skiga1V/IigBy0MjA8a8rl275uXlpfEwkjw0hHswwsPnvsnHAuSHdBcVUFjvfyLojLv7mVF/VzTSI8nrJ4hrV34CNo3vCmgga5IXIyA2z2nRTk4/W3/9rv+JBCCJiHAXK0axPDgaEUOBigoNADDBBEUDKiqotIKCgwdMFuzk8gy3U6fOnq3/RRMVkXgOkBgRFRUVARp3DXPhxKigKSuzXwlgzuVh6VkP3NyABhKB8cyZoLKA4FywhksQwcHnvg/yj7f69Q20ffNQZtW3Yenp6RkZGVknT0KueRUYFcRdCP+7c1y/PrnfdsEda+jSXFWemVleXl4FTGFhc6qsB685+QtugAfpVZsXbUWMQIDBNWc6f/XjjxcvXj5fXvXtPGELAKGqzIsLz5QTJruuLhvTNWCna2jV3t40dBFYLl+GGmhY58+fh1oNIOi865MF+9lo6yzdFx8nwAzY6+hu8fzm4e0OYU5x2SY9wN6mYhxONFNVNTBgicFYWtqvXau/aCuZfARuaTK+LjvLXmd7sRASeArnr1q9YpGnZ8dtS8uurrRHj550WWt9Jsh8A4nqlKK61J06dsWimY4LnqKc5l2ace5oB4ILtysx2Wlx3NKStD9oec4Z/IlOJgJBiXfqNh29Jly3SNSNKy6bO/n6R6Cb65vcOG9vfGlvCD1tJwguqqBI3VsdyC2pwzjpmJeBmgcGmpuc5+/6Te0ioWdHg3cRh6seHn4at9Vo8VPvhC9xuLfU99EsGB9sV1lzc3NT2fGP5/VmQzhgyPUGL4nA6R9uDv4ZtngKZkvAFHCLBtOsDIyMtu8aGho6vnmH8Wu+HGrH4bon8Bxfcu8PRHraf0+CEcDY+MCTwZLvSh4NdmJcVq9escJG79gxh/c02NjYmJquOPbV8aEmgayIkxIyfXMwbTeUNZ8P/AYGBi6ps+Pj452dqZZ7HPZs+PCP6z9YuXLVqjVrVq1aufKD9b//cMOG9Z995pgtw5c8Lf1uPNXMAKRBCqh3jcHCLa2zszMtNWudwy8CkA8Z5gR7HBw+/9wqdbZucHD8yUHYvOBNCbrWWRgMpsvSFgZVYGpqamPz3ms0NaxYvRoGM3TM6MKkpp7aZgxlLdgIdp86WtsbQjbtGEE9Gpivc3R0MdP5P+I/G4eE4nVmolIAAAAASUVORK5CYII='
p13
sS'twit'
p14
S'data:image/png;base64,iVBORw0KGgoAAAANSUhEUgAAAEgAAABICAMAAABiM0N1AAAAwFBMVEUAAAB3slV3slV3slV3slV3slV3slU+ch0+ch0+ch0+ch0+ch13slU+ch0+ch13slV3slU+ch13slV3slU+ch0+ch0+ch13slU+ch0+ch13slU+ch13slV3slV3slU+ch1RhzBzrVFzrVFViTRajzlYjTdEeCNWizUpLzNThzJ3slVLgCpAdB9RhTBGeiVckTtPgy4+ch1lnkRQhi9JfihzrlJXjjZMgitHfCZQcURelj1CdiFNgixwqk5bkjlTijL1U4vpAAAAI3RSTlMAUJ/fr0AAMHCv3wBgEIAQv+/P71Cfz4+PQCBggDBwv2DPALydmukAAAJySURBVHhe7MAxAQAAAMIg+6e2xg5YAgDA26nXrkShKI7DakBmGHilzOYS2NQJOf7VJhqovv+3GtYecG85lvR+fi9cywU8bOCs0+6cqCLLdoxOu2c9UL2z7un5B7Xo1yWFcveV/gUhXO+i/yHk+USwJJgBjAaSkpA3VLKRt3PGkpHU+ABUOS/39y+K6lTjTBiIl1qvYqYmfROyFHVftDdSfwpuqYuW4KZ1qWUrCVFtw0k1lZoSQxYx8tFUUDlZHuooBbDQ1AJFdwsd5rEhtZSZX0CFg5yuDmkgHulXIRI/bQJd0nupoIcKegDA5uVx6IodvQL0LoaiDLiSkH8ImgKPuuwRKUMpqyEwldDsxJSugTiqoAQrhlZAyAdwvbcg5wbVowcrixEyFAroAehJqOjmW+D7/IxrOdAC0CJ5iwwYC4ibl9AG2IoZMgllyDW/PZwdhGaKeoL44DpHIqFEQCGAPkOiTvVk0AJKJZTKvwDGByGboN9AYozArjwGXDIkoxf+DOTNoBz4zpAxUvYVaMCQMRK+AsG3/u3NLWcv24RqL7sOKaVObBNyLILEtXH988dSBZ5oBzMhb6RQFIqFjYidCMBCriMoqmNATpugOC9P3/KGUm3b2/IWecyQmhuQ425QliVJBsidIKJr75IkQdmmhEYm5PxAvWxJVLSMUe/q3HYDv5AY4iZo3ERuI2bdARo16JLBkFG/u8XRtn9+3nKt24PdqNf12/uz5CTx/P62flVK3TgUr2yjQO2aO7XmfCw4CvnNIP8opJpB6j9EuXXI/QpkMTSrQzN2rKOQzed+dhfbgIzaQ2JGgWdCXjAiZtgW+l8h6mIDzZCs2wAAAABJRU5ErkJggg=='
p15
sS'gmail'
p16
S'data:image/png;base64,R0lGODlhDwANALMPAARpFVlNAjLRARONASayAJpoBaVsAMGMAACSLwA7AFijADT1AJRXABahAJ9AAAAAACH5BAEAAA8ALAAAAAAPAA0AAART8MkphaBYErEEAJnUWUKDIFPBPBwxWMNwPkbABE0Z798TFAWFYCMY5DygB1BBIDaIAJQk2Bg0jc3eJJDoer+YgHhMxhwMDsqBkZ6c2+oVpRBaPyIAOw=='
p17
sS'related_to'
p18
(lp19
V\U0001f40d Snake
p20
aV\U0001f41f Fish
p21
aV\U0001f42c Dolphin
p22
asS'name'
p23
Vturtle
p24
sS'known_as'
p25
(lp26
V\U0001f422 Tortoise Emoji
p27
asS'default'
p28
Vemoji
p29
sS'bw'
p30
S'data:image/png;base64,iVBORw0KGgoAAAANSUhEUgAAAJAAAACQCAYAAADnRuK4AAAO2ElEQVR42u2dL7RNXRvFbxAEQRAEQRAEQRAEQRAEQRAEQRAEQRAEYwiCIAiCIAiCIAiCIAiCIAiCIAiCIAiCIOz3++1vzHc81rv+7XvPuXefc+Yc44x77zn77L32WnPN599a+24NhrEDbLkLDBPIMIEME8gwgQzDBDJMIMMEMkwgwzCBDBPIMIEME8gwTCDDBDJMIMMEMgwTyDCBDBPIMIEME8gwTCDDBDJMIMMEMgwTyDCBDBPIMIEMwwQyTCDDBDJMIMMwgQwTyDCBDBPIMIEMwwQyTCDDBDJMIMMwgQwTyDCBDBPIMEwgwwQyTCDDBDIME8gwgQwTyDCBDMMEMkwgwwSaJX79+jV8/fp1eP/+/fD69evh8ePHw927d4uve/fuDc+fPx8+fvw4/P792wTaFECSZ8+eDTdv3hzOnz8/HDt2bDh06NCwtbW1o9fx48eHGzdujOf+/Pnz8OfPHxNoHfDly5dxUK9fvz4cPnx4x0TpfR04cGC4cOHC8PTp07Uh09YmqAtmBRODuvQoCwN9+vTpcbA5nu8+evRoJB2m7O3bt3+9OO+VK1dGYmDGOJ6/T548Oezbty97DVTu/v37w8+fP02gOeH79+/jQF69enU4evRolSgMLsdAlDt37gwvXrwY1Unq8OTJk+HixYvNa3ItSJMDvtCHDx/Gc+XIBFkxc9++fTOB9go4rbdv3x7OnTs37N+/v0td+J3v1ICyPHjwoItAKFQLqA5tRZ3SdtHuy5cvj2QzgZaEHz9+jCYDk8SA0eE1lYEsZ8+eHa5duzY8fPhwjKZQBM7B57XBQhFQDEiGosUXpidGX5gqjiNqqwGSCJ8+fRrblSP8mTNnRjU0gRYIopiDBw82/RdUiHAbcpQcVQYb3wY1ePXq1UhGiIBTzfdRCpkbTBgKU3txrNoGYSEY7f1PZ//v89TnYVLgN+WceUzb3NMBK0MgBjaV/CNHjgynTp36N/xGjWpOKYOBemmwUCi+z3chDySCfC9fvhzJhbLwewsch1ni2igUv3NursN5cbz5jGuiPKWcE8RLFRU1wq8zgXYAzI86NOesMjgoAANV8pEYSI5BIRhkBqo1MDjXXLsFjsOvSpWFqA0Fg+xSNNSmFsLzGQoYSQQR5+ob7RqBiG4YOAaEV2/4yiAzm6UYOT8DcmBKUh+GGX3ixIlxQG7duvWXWUHRaFMNmDrUpAUiOAa5dg+YSZSK+6BNNWWj3ZAdB173DgFRz40kEB2IuYmzCh+kZ1ZhUqJPkFMXMr4i5Js3b0aTpKgGZzQ343FgIXTr2ihVC/hRtI+cUw0oEoRARbl/1DDXB3LgaR+kh3AiEfe3cQRCxukAZJ7BjSSiExUuK0qK4H11HrMYE8D5IA2DyzlQE97nb3waFK41mAwOylUDg8u1W1ljlIzjWoOr86lWRpshOvfz7t27v46lr/B/dP6owi3lXCsCMeiKUvALQHRk0xeEuHTp0vg9ZiLfUedBDGYxA8U5GADlVHCkCc97gTOLSamB67fCfTnn3GPLX4KI3B9JxajOmEARSWaWY6LTDeHVR0y4jSAQPoScRwY+7XSkH1OSmrf4QlH0OceXEnQ9Cb/UyYXELXWB+JiyFhQN9jjc+GMpUEz6gsnCT4gDqWLQwMRSv8zFlC2NQBBG5IkzrjbbFbVIcdIXMzUHOplrlaKwWma4ZQ4wla2MNUAJMaUtQB6ZphwgEkShDyBvJDl9pFoe7ZpDQXZpBJLjl3N8W6BjIBOzNWZq8ZdKZN2Of8BAtRxpHHH8kVZCT5FYKzWAmeOeWoMfnWf6QfdFUKD+mEO2eikEItSW37PTJBgdyWxT8jCG//g8dK4KkqgXpqQ3e4satBxpzJJC79TRjYSHaByHI19y4Gm7cjw9asl90496kapAhWTSSxNq5QlElCGZXRQYaM6Jc835GTA6FdOhSjbE5Zo9vggRn5Zr4JDnFIHr8DnONioHOWhHzEVBCmXJlZEukUgZakwik6FWgNUkZFLQDtSSv/leXJJSymyvNIFwUBV6t5Yp0FFIMY4qvpIitdyAc05UjU5kNubqTRzH5zm/i2iKwYNkKAFRnAYfM8V3c+RRm0QWCIITy/FSAyIjEYvBTrPHWs6hBCI/dR85xeRzzhsTjqrkx2UhJB3X0gdSx9YyuQxCWo2OA5ZCdSI6spXjoZMZQGYonSzS4KvwXlQcBlfFUFQJQkMeVC7XFs5Hu9X2HAkgEeekDRCdYyFsBCZYeaw0M6/SS04Z8YcUke21GVsagfAvtPKulJ1mlkK0tFBaMkGoR28Iy3lVcCVKayUWIUpcpwMpao6uMuQQMncc74lEkBcy5o6DzCJ3DACYSHynFuUqb7aWBGJGylbnBk8DgP+hTK5eJdWCOKWCarwuBIQ8kLhE4BJQiZ6yBCoHQVp9oMx7rY6F+qAk+Eeon/yfUt4rtlPml/4s1RdxI1prlWaZSGR2luw0M1wmQ8qCEvGdUj6FDqJj08p3VDVyLPI/mPGYvSkZahzb3LqdHIHSAm4pQqO9rUQnZFPJhz5BOWsKKBMWXQDV/yAeUR4TSa5ETzJ0dgRSNMagRwc1hsexhIGvwHG1gSGczvkGkATipOtnuE4u81sC6kZ7WuglkMx5bxsUbbbyZ6rsKwplkqaL+JUd7/EbZ0kgwIDKOY6DrmWlesn+c3xNMeSnxAgnRjSpVGP2pqQTIFBceroIAnHOmj+TKpFWQpZqcBwj5cmViBQ8gNxapZUiEGogXyiNQpg1mjHYfmYfdaDWwHG8TAI/OUdJoiEtytSbL8Gc9izhmEIg2lYrX6QmFF9I/UJbUJFIJsyTJp6y6WnCFjXv8b9mTyAphLKpdFCqRFpbDKFaKX46Sv4SHURn15xNkaKnniXfbNEE4lh8kRYwRdyPFBhzruSjViZyH8p6x5WO+lz72fhMhdll1sx2bUWiHGWZsymObSnHhI3vqX1hxvCdekockKJHLaYQCMVgoFvAbOV8Ja3lljugF+TgM4imbU2oPROL9i0r8toTAqUJO9n57SyOUgTSQ8IY3UA82lCbkczenuTcFAJRQ+P6tbogvkxP0VYZ6pz/s1Z5oBLwReKicRUJpxAJU5fzqVKooo1JwnSquo1TnVayMR8MdCuBtx0CKc9VioRIGdDGnt2pRGcyX7uhMLMjEODG6Yhov/kdCcZhxOnE7DDI2m+Og41M85lCU9SsRDzMhuQ8liPwl1AYVdghU1pO4W/yUTU1mEIgrS6kLbl9ZZji1rISZcvlD/Veey0JFGemqurbfeIFMzctqkIyzok/UTJXkAdzpb1gEIvzoAIQlO9j8tInaWCGUECVSiB3iWgoC9fouY8eAml9eM8y240gkEBnaCbmyKTB5PPcVmYVLRloKVutSg1ZOF/NBEAkVb5RKVREj4NBCfVUDpE49UdwbDHVtI22lEgGIblGy3GHjEqHKK+jbdp7ubx1dhsL6SjIwACgULlB5j1ljCOJ6Fh+lhZ+KS+E+vQug6AtmA1Ikqs3QUZFR/zEz9ESW9SntLIgDQo4vlY+ke8jtaIP4g4XbZik33bTN1rZp3PoCRvKf9R2rqa+CzO5d2Ojdma0dlwQHUkdWxsHU2iZamntOCoTlRli1h4qwf0xQdYujF8UVJWPDyCQr5Gru0V1g2xTdnBocHuURFnyqYk7Bhp/intIwaqAdKtzuvSFNjKhUvOvtIUJlMnVqIM0WPxUnYz3c8sxUKeW75OCc6IovRnnnkJsKYGJqYy+EuYwqitmCuXhPcxXblG9dnVEIpUm1EYSiMFXMjI1V1rEJcc2dpz22LdMXAoGq2eNdcxP7URVMX3cB/5WTLpOabd2wPYuK94oAsmkpDs0IrShkRcdT3iOqZvi+0T/p7cQy7UY9O0A0qg8o10o2yFPVMLd2MW6cgSS+Wol0uJ+8hip4f/0+DNKAPbsXo0E6inE5qBNA2n6YjuL5lVsXeZCspUkUDRfrQo8Ml5LUOpZiZg81ImOJnuth2yiVJQ1WvvGdkogrkMyMn36GufJJQuJyEiQ1iZB9IGWvflwpQgU107XamcQTXUvPSWMMsmUZ0JLvTCHDGTPBkmu03K4MYv4OxAWpcht48ZxTwkCqbWioaWKVOl1rmU/U2ilCKSqditUloRj7lIHEiIwizENdHQp+116LDDHU91HtTCHDBDn01YbVAufiReKxnVE4J5nVOPb4bTzfc4J2ajLxVC+5RPFJGvvSsiNIBCD1drKomOmhOsch6NNOYLBggiL+FcHvaSEMFoL3XN8a+VCXLG47LrZ7AnEzTPbtYhcqxFziMtnp2SCa8RCXXCmaQPEIheDGtQeSdNTAOYe0sfulR5GHl+9Plnc40aJZVmrEmdLoFipVy2KgWMAS3vKtVeq5+nyiwIDQ/IO8wrZUDGZLT35lfbi9JMYbEWAnCeaq7gXPj7KrwXaFP2rqY++WWkCqYApG97jwManm7YitFUAGWndt+p+Ux3iuPyj50n6a0EgJF0zjiRYr/RqqWdaDlh1oCSoMJNjqhmKGempyciVJZD21E/NGst8zWWl3qKgiGo7CUXIJwL1PO96LQikBy0QmaAq/Oyx30qezfFZyjuBzLIe78ekinvyMXNRcVFwPUYvrhdaVj1sVgRCotOMLA5xj3Rr9d86mS/tgdMWHu2zx6RxnzjkRKciF1nnXGKytVlzbQhE8ixumGMWKRpLczZxRmk9zbKTZnsBrXYk+0wSM+Z29Dc/UWvtaCUS1H8EKD1ofS0JhM0mXNdOVv3vUj2rR/8CIK5ERKG072vd/B85wjE3FJ+PmMsTLVNtViaM19oYZhS5D4ijR8XwHkTBN0pX4S0ieThHKEBgwqQPpYhLW+mb1nONNoJAejgVhNA/ZRNR0hwPx9Jp6/5vtsnjaPeF9sXRL9y7lrhAoN3+15mzzUQrYyvliU/kMP6/FVrmShs1Me/LCtdXjkCxo9bVv1kHzJ5AOM+9T+EwTKCiT2SYQIYJZBgmkGECGSaQYQIZhglkmECGCWSYQIYJZBgmkGECGSaQYQIZhglkmECGCWSYQIZhAhkmkGECGSaQYZhAhglkmEDGKuMfhXx13MWHRiQAAAAASUVORK5CYII='
p31
sS'version'
p32
VV6.0\u02b2
p33
sS'uni'
p34
V\U0001f422
p35
sS'desc'
p36
V\U0001f422 A turtle with shell. Looks similar to a tortoise. 
p37
sS'browser'
p38
V\U0001f422
p39
sS'annotations'
p40
(lp41
Vanimal
p42
aVnature
p43
aVturtle
p44
asS'wind'
p45
S'data:image/png;base64,iVBORw0KGgoAAAANSUhEUgAAAEgAAABICAYAAABV7bNHAAAAAXNSR0IArs4c6QAAAARnQU1BAACxjwv8YQUAAAQtSURBVHhe7ZjPixxVEMfrzV4FvXnKRVSUFePBOD0K4mF3VDKgBCX4C3IRUUEUwaw7kIPJjKsXUYwhghdJIiEXFyYomz3k5PRIwBgMBoV4iH+Ai15nym91V89mMzPb3buvu0XqA8uret3bPe/b9erVe2QYhmEYhmEYhmEYhmEYhmEYhmEYhmEYhmH8h3HaVs6g+/S9I5474BzdRUwPavcmjq4w03Wu8aVH3z+/rr2FU7lA/W7rDWJuOuee0a5UmPkqObfaWO61taswKhPohw/3L9RG7hh+QV27csPENzCEFQj1hXZ5pxKBwm7rSzSvxp4HmE4H7d7L6nmlVIEkzzDPfb2bqJkFpt1qo33+WXW9kUugxlrjhRGN7lCXBs3BCTVT6XdaS2iWkIRvj3v8U4RImQQK1oIPcOchmHvinjEbCO+zYTN8Tf0xEi3Ecw+TG15C1BzB/7+klwqFibo+k3eqQPW1+utYYbYmQSasIvQPrHiqwHfkOv1m/xtxB53Wi+zodHStZFAKbKAUeM5XKVDTdiYY+JNqJgwQMQ+Ei2EAYSTZyk3z7PhMsB68J+7I0Xgalo1M4Wh19ESqQFhKJVI2YfpZLbl2Wc0YpgPS1GhYWiE3FSwCUX3lgSwRdF3NhMca3zfuE2NKdNXlWn35u98kYWpfNTCXJNDInUGzEXtAptMc/xpcCP6CPVH9Yv6/E7f0ueSDqLMCkDfnEUUddXdMqkD9p/rXMHXOqnsz05drRwch3kKUJB0d196K4FfU2DGpAgmIok/QZI0GES5KkrLcVjnVkAL27DaKMgmkUfQZzAHaq3HvttRRO50UQwq3avPR7qJox1sNqaqxih3EE56AO326MR1FSXBEzH5n/7d5duye+TRY7r2tdi687MWiYpLcQ3jaXohyG9p5vXTDsTucFJBhp3UK10qpqCdgWndu+KassNqTCS8C5aGMPdlMIBJ2/YvqZSJTDvJBtJ8DjXZvpeaGj5Sdl6ItiKMf1c1MKREUbUGYPoI5cEN3KEr64siejegt/Arvxx9CXIfxRQwzlA+j3bkoR6C14Be8KclLcgLwFZL3u+rv6Nh1GiIIBnQN77rimC7W2z0pcsdIfYYP9GfygbJQuEDRaoeNrLqbMK1CpC1nN9ExLLsWrs0jsvbNylNjIYj+xgj+gD/zMF9EwfMex31NuBKpG7C74UL4cXRDCoULhBXuFCJjcuVydDjLj5RpmJwO5D17ln0hhFvBuyZLEXwgFMBLadFUuEC3TK8xCPX784T6NJITzqjEILoTf3fLu8LFcGJct9wLffgyPtzvuHfbk4fiBboQYLZMMm0QeSny2QmFLvPy1dT0znbPjvKOJwoV6OYDfu+M6Ce1JkCNdY+au6bQKaYryPPqbmHaQX9ekg3xBI7OpeUWwzAMwzAMwzAMwzD+nxD9C+QBiyVtxfX+AAAAAElFTkSuQmCC'
p46
sS'andr'
p47
S'data:image/png;base64,iVBORw0KGgoAAAANSUhEUgAAAEgAAABECAMAAAAV8YMOAAAABGdBTUEAALGPC/xhBQAAAAFzUkdCAK7OHOkAAAMAUExURUxpcXeCP3aAP73PRr3PRr3PRr3PRqe3RL3PRr3PRr3PRr3PRr3QRnV/P73PRr3PRnV/P3V/P73PRr3PRr3PRr3PRnqEP73PRr3PRr3PRnV/P73PRr3PRnV/P73QRr3QRr3PRnR+P73PRr3PRr3QRr3PRr3QRr7QRr3PRqu7RL3PRr3PRr7QRn+KQHV/P3V/P73PRr3PRr3PRr3PRr3PRr7QRr3PRr3PRnV/P3V/P73PRr3PRr3PRr3PRnV/P3V/P6m6RL3PRr7QRr3PRr7QRr3PRr3PRnV/P3V/P73PRr3PRnV/P3V/P3V/P73PRr3PRnV/P73PRr3PRr3PRr3PRr3PRnV/P73PRnV/P5GeQnV/P73PRqKxQ3V/P3V/P77QRoqXQai4RLDBRb3PRr3PRr7QRo6bQbnKRmJpOq29RHV/P3V/P3V/P73PRnV/P3V/P3V/P3V/P3V/P3V/P3V/P73PRr3PRnV/P3V/P73PRqGxQ73PRp2sQ5qoQ7DARb3PRlddOCsqLlBVN0ZJNG12PTIzMKOyQ7LDRZ6sQ4aSQb7QRrXGRaCvQ7TFRbDARX+KQHiDP5ShQpOgQoCKPaOyQ1VaNXJ7PyEfLFZcOC0tLzc4MU1RNnV/P3V/P6m4Qz9BM3V/P73PRnaAP77QRnR+Py4uLy8vLy4tLy0sL0pONL/RRjIzMDExLzk7MUJEMzg5MbvNRj0/MVFWNm12PVRZN7jJRbzORkxQNm95Pl1kOXN9P0RHM1ddOD9CMjQ1ME9UNVZbOLPERGpyPDo8MrLDRLDBRHJ8Pjc4MWdwPGRrO1xiOTY3Ma6+Q3WAP6W0QnF6PmNqOl9mOWZtO2x1PW53PbbHRUFEMlJXNklMNYGMQJqoQVpfOUhLNJ6sQlthNkFDMmlxPISPPWFoOpGdQHaBP73QRpupQWpzPXuGQEZJNGpyOIiUQX2IQI2aQZWjQomUPVZbNam4RHR9OpelQHeAO4yYP46aPqKxQisrLoaRQai4RKu7Q7fIRYCLPHB4OneBP7IxFBMAAACfdFJOUwD+/QTPGPoB/gkbBWsx8P3wBE2m+Af+YQ439L9R/YLF7RgRnYwoe/bz8S3Itf5sTzKG6haxZ5aT4h0UQz4egNP6cNzky9okkstz53wVVHe54NV13667+jnO+gis8aaLkfzx+dJYmvj4P/g46rV+KfdhW0BKl4dcvBAs8VZK8PWy/Dcq0rfG8fr790X8K4B23dPm/Pv392QH65425Nrk/d9lxWYAAAXkSURBVFjD7ZdnVBNZFMelGBLAgKKASLEACogNxYZixd772nvd3nuvbu/t7L6pKZOOkARCKCH03hWR4lqwr3133TIzKTOJmWNcP+1Z/l9mzpt5v7nvvlve9OrVox71qEf/Bfk8N/nA6MdHjXps9BOPLH7o31L6Tl6y5dnlB8MejYhYGxZ4cP3mRU8O6Xv/mG/2zUsNA44KTH1q9BCf+1vT9999C1wpbP70Pvdh1uJFP2BaFLjWpHl93LXqwCHPMlxRBLi0fNFit5y85EfwdxeurMuCuUgRh/q4wRl1EIA6BY6Vt9TqYC5W6r57cwIBqJVj8hxCROQY6oFrVNGbr98D9HUgQMvKseyS6hqtEsdNmg7UBQouKX/7Da4dHzrmRf+ZH312/qzeiLekwwBGC/LUMkypLXGBysPa3xriCuM1MDJq4XAIgjIzzJ3NuTp6KgwayhQyrDi3wGaITbqf8TzPLS4Cyjd6NmQTguS3HbUGUSVcrSdRcoMOoGh1ekFHXSmpkgKDTH4GDlxyFyd+DR9iCUHMNxh3VOvbcVyR26JQm5TFRoKUsZjANeSj+ZOdONMGQU5CGk8yfoF1eUoME4lxwliuNJEqLifwXNLmtdMdF+c3EbpLyJ2L7E0yYMojrbU1dSUF6aQ6SgyEsYv80iTHuJw6GIKkUukpC4K8o0n5vzHJ9kuZuAm1uNni8ywt1qQj7+axTfIaBkGqY9cvNyIUQNXWeVpFk349ywYpHHIYLpDjBmA1adpUXxqUNhdCbqrFxFVqPnIyR6bupE3LvORokVMg4aZ6GERM9/FdsFOY7EeBwvsjjVfEuPh4BUK65gR5J6mgjEMKbUEAKvPE3Y6gygY1nkdeP/04igdBGwdQER0LIRUSEY5l/0GCCjViHFNX0W6CrtnnHRFJnJPEgKsbAAjeT34zYCZVoPyG0XaIxDUZpLtV58QYbRtlkvkCyg2qN+F6GO74gnx1Zxq1MsGr5JS25vYTVfR6qq4omy5nWjZQdZEbBIBG1J2ly/7qMBKwgPa1YCTtj6o7luVIC09XqazBJL2mL4K5QHApUVyjxRQ/SRN6MyAqwcwIQiVHVYbUHpUVEkkDzGVRdRMux421Xw7fZQmjAUGWzb6uvdkoNXfm5hyzg6DMc+LsMzCHRUUtGCbXo5/vFljrULTl6ydNxhNXc2XEuXzEDpJeM2GK+koXILioq5vA20sB+ORDW2RPsGS+6ka2+PZt9Z93EFbGmevl2PHqSkdQJYyml3UTWHkzWf7AfHt9WzfOOu3WX7m1pzMRdu6qzncV45oi2A4iky2rXq81kb1BUkdXzs32M0GorYggUCHjaKsuoa0EoS2gQOSsrPQ6fXO3HBfL1JoSqluhYD2rAPjz7Es55VxNbsFZRwhMKcdyWg0aicJkxEQYodbWNtDdBU18+SV2nU2AuIT8DgO0NkeG0RKJCGVOy2ulOkCXEzR4ww7eBHZBCh/MCaoIpipkV/Px7Oxuraa15kwRaqlJKBq8bYYKgYb5sUtkbH8ukPmCpZ1kkUIBbOu8KEjcQGEgyNuXbVLo2BEcoPyjdx1KUBQ+u+29d63bK1znUG0FE1a5A0JRFHgk7mnbsZdvixJHJ5HxPXA1zxUp47ynh4eHJynyEpz4/p5jMw4L50THCu1v7HY+LD3j0k+Zr8TFxW1/YdOmd7bH7Tfn7xXOGhn5Qe9e8QvtbyQkOfXsiRxeYiQcudU/JY1O0XimMY+LdwQledue8IKSg9YMGhTlTWnOLIaZMNT+dgwDWvi8I2idPZb6h/j4eHl5CZJ6k5oSzYDmTmE2J8ja43mrxgocQSF2X/Nj2ePJDGh2DCsbVi5bsWLO6qd3xfg5+fphZsJW9vhGZnxwikPEhA4NFbg43o5lJiSzx8cz4yPC3TnLhjC7P5EDxAtxBzRlQZSQF8CHAoZ792OPBzEg/kr3julJY8L9l0b6T53msPBIBhQw80H+tMaMnysM4PP5wlnLlvo+0D/bgLSUfqRSYgT/17/WfwC/6HYsM6WkXAAAAABJRU5ErkJggg=='
p48
sb.