ccopy_reg
_reconstructor
p0
(cemoji
Emoji
p1
c__builtin__
object
p2
Ntp3
Rp4
(dp5
S'emojipedia_url'
p6
Vhttp://emojipedia.org/dragon-face/
p7
sS'index'
p8
V278
p9
sS'code'
p10
VU+1F432
p11
sS'apple'
p12
S'data:image/png;base64,iVBORw0KGgoAAAANSUhEUgAAAEAAAABACAMAAACdt4HsAAAC+lBMVEUAAAA3TDozTTUzRjdUWEVMe1NtVTc5PC9JY0NEVT1UcVo0bj0ySDd0TDQ2Xz10TTQ4TDlIbk4yZztVdFk7d0UzaTwxaDpBgEx0RisuSzc8eUZXblV6UjUxWzg3bkF3UDQzUzlzTDJkOSNqPSU3b0EzZTx3TjMzZDsyaTs1YDo2UDc7ekYyaDw1bD93TzRTdlVWn2Q0ZjxpPycyWzoxYDlLblU7dUVzSS94TjRnPSU2Yz44b0ArVDE5dUMxXTlBfkw3aT9qPyU8ekZkPCRjOiIvYjhhNyA0TTgzWTkwXTg4c0JiOCF0RSlHbU1mOyMyaDo8a0M2dEBkOiJFh1ExXzY5dUNySS1sQChHhlI8fUcyYDpsQyp3UjdpPic4cEFiOCE3b0BtTjQ4cEE1ZT45dEMyZDovZDg3aT9Gh1NoPiVAdklDfU4xYDkuVDMsVzMxaDoyazosZjRFWDdDUzE/WDVeMx2AUjIzaDxFTy8sVzAqWTJIRCk1az1RmV5Tm2BMkVhVnWJdp2tIjVRQl11BhE1Kj1ZSml9YoWVVn2JOlVpEh09bpGlgq25eqWxFiVFapGdOlFtTnGFGh1FGjFJirXBJjlVPllxaomcxZjpDhU5Nk1lDgk5MjlhAgks9fEdXn2RmsHQ9f0g/f0qVYj5KjVZLkFdEiVBXoGRgqW1HilJJilRhq282bT9jrnJ6Si2ga0VosnVcp2meaUI6ekVCgE1AekqJVzY6dkQ1aj5wvX9ptHcvYjhTmGAzaTw5cUJQlF2aZkGSXzxtuXw2dUGockhBfUs5eEQrXTNKiFVYm2Q4b0EsYDQ/gkqDUTJXpGUybjxIkFNLklc0cT4oWS9jqHCMWzgtZjd5x4k+dkhQjFswRDScbUVan2dnt3Vzv4N7TjGkb0Z+TjExazpFUkBPWVE+ZEFLg1VUUzKtdUtcsGk2VjwlVCxRaj+weUwiLCRvtHw6Tz58g35vQSg4YT9gr20bJh1iuHBThF1aj2NiaWSVmZZrcmyQbUNrYzx+ineOAAAAfXRSTlMADQkUCBARAQIFC60QGz4zHySkE9V5jfX+Gv4VDV64FDVJyfG/ZTiUnAsm9G7TKB4RhoxPrBnmVC6hR82JyG3pTv3dsb631yxZgN3Q5C7l0DXV8f7X7V646Ot2ciOB5/vrPdle87/oWPiUmrWNfprc+PGF5+Hv7OLq3r/d61JxJmAAAAlGSURBVHhe7VdldBtnFrWsUaRRZFtmx44dsmM75IZjO8zQQJtyypRueRmHxczMjGZmxjAzl7nLdM6ObGc3bZ1uuzln98/eH6MzOnPvvHu/9+l9irtH0OP+W/g/pi9alQDeA5+RtPWnT824BwHgwJcNuxbdi4MlFTX3ryKFEpJWTWH8BwJTYgJJQMKsTXP2PDI95gkEv5fOjB9UuO9fSdIPuxs2J5D8hJUrE8DvJ9D1s0fnXO++2FWxhAxzyoFnnnlq+vcRIC10Xz3sruyq2LwIjKOv2tpwuHTKd99wQNKmrG53Q3dl19VdSQCZ5coNNQ2PAN+VDybMmr2h4nRNTWXN4dlzY7SE0qya++fS/233MBix65SkJQ9mHT5d+X7fBH/MgXv23CcXJc1NumuUjHjWvKXzWED8vB/9+OZ7DTWV739ym8+Y/siGru5HSzfv2rPnwdKEyV3Hs5/If2Wof0vi9qctl/SWjy9e66upIPl0YMai5w7Mzqp0V1Rcb+h2u+ckTcovXrqxUxzFENG6dW1VZ5v5pII7a/MsNjtpZemuBzdkXXV3k+zKi+7DWydtcGBpJr/5bI/AKhIqsehlKRE0f/zeT8pX7HzoF89sIPM43V1Z01VT6b4+pzRp+mT+qeVo1dmz1WqbyCskjol8Mo7NVhdETCbC8s7V013Xrr3/SV9lV8OcTbMmzzA+1xLu6ZEgtoFDVqvIp/ZyZVanyAvZJS0S5OOLfX19n/R1NWQ9Oith8lYA2Wl2R4vcJBo4UWtVE/LLzQ6pHhFx+Y7mZg3U/7drfZXd1+dsXvnkdAp9Uj41pTMQFhMyp9OKV2sER/7Q7Ki64jBxq3suS454bX93n67Ys2nWkzmJBcsnEWAUz8vrDEfFhJYjUvD0Vb/zqY98IBe0XKn2ohI5CokG3vty65LnEqYkF6UzGd9YPpDC3rGuLVAlgb3q48pwlZjn63/3j386haItDoiAIaHaGfn1gVUzmDnpL79A8u8gUqksFouaWLiuEwvIxSiPgPXiKgdhrv/w5q0LFzpNYrIoRG2tbfzlcwmUnH173z54B59BKUtJS8ubmrfO04ZJNJgSRuUYaYN//FD/hVtf/OXPn74TUkYDJlWdLfLyG6tXr/7Vs9kFTPodfZeb2cYzebQmWC7VowK+Xi6PVkU1MO6q/e3vb/71i1uffmiBMb2n3qyyDA+3daoiTYXs4n8ZAGdmYhqh0SjDEQIyCZX8cBQLSFAIwY3OoXff+fzzCx+eV0B2lODzCfiDDy6flTZ21O99g02ZkKBT89EWiTYIVx+BhFqcx+djUj+KEgoC5VqNuuhnp4aHFV4CJnTaQyd6fcf8VzTZIRgKPbx6GjBmA9hukUT9gsApzKHBCK2Qp0AgWInCOqXguMgqUmqkPK/PqyQ8xt4TvYe8OrvDPmL2QrBQ9FbZWCOz8i9pMOyzztGP6nqu6HFjUIbDdr4YNcGoDseDuNDk1eKQHPXKOByRVimN6utGBjhBlXn+S7ljAtv2Y1JNj2NwsOlSc7OfU2vEESUM+5UKHh828fwwjKIoJJBiSCik46FYeLjOYLjRsffNXDYLGEsh11Itbekxnzx/qqdFjDhrOT6Zlsv1KnRCCNL5MbleGpYLUL6fa+w4pwqpbIbI3h3bZ25jU4GJhSxAMEezY2g40FJlD4lUKp8syNXpuFwhj3wzzJfz+Xqx1A+hJllTxGBoPdo7MOAymx8uf7NsYhlyLdKW5gCs1wSUoYFem9FCxh/WKHUopgmI+dUYH1bKw2KewK5oGj155obzmJqL6gWQAql/fXw3J4ak0ZaAOCzxC00nnD6f1YbYNWQbygPhQEDi0PCVfrHYzlOiuohh9MxRp0/GFcghxOt5OhEcO6NRV/ClknDYUSWVhsWdZpcR59jOD1na9MOW/pHz4SopzA/oIUJnCnYYzpAGaq0yHK97fstqNkBn0EgX8Wv3w3oMC0RPnQqIL10afrdDht8wtI6OjrYaDIPmcBiF/TxCz9ceGjH0HlLjXK32sVcLtk2LJQDuA2NbaXve/P6O1pMfkRgcPHly0GDEDe2GVhIGw0dtZA8rTJC0WjZwpr3XdxytRmGxPfRsrIA4YP3YoACoa0fq6881RSJNMZw7N4JY6/uHLJah+pGTdW2QguBBPKHrxOCNo7UunKfgieWKUPZDM8E45gLmxM/wQgvRhtr1YrFYD5s8QyJTvwlp45EdTdK1x/nVEM7Jbu2wcYwul1WkCqplRlvjQ9Q4Zgbz9oZcaFapQh6LJ6Qypz2f/yKRXd+Y7VJ5EK8XD3p4Si7H1tRRGxQcIYTIa+lF5SteXLhsLYWRnEK7PcDZa5ctW7Zjx+t15sRpVHaKjrOsKdLe3h5pdHGMIpHI2dtaL3JxhAIUc9gfy2VTqVSykYEFExWMBUFhUYqLd3O4BUAckI7IXmgasLka2w2G9qbIUfKjw6lEg9b9HjRcDWcmjrcQbcuCr0+G1HLTmuUgWKbGD25p5AiPnTjaSPbtSKNR5bLy5DzvK69lqhCd5fl5YCy6kh+WfX0yAQc53JQcsCSTuyDxZZfw+NMv1hp1qNrGRWHtfq8Sg9Nmrk1Zk/bsYkbs4QVHS74+Gei0DBk+dV9yGpKSvPQ3TufCLTafTiw0h1Cx8rFXPXyobimFwqKCMR4954GFqd8cLLTFVty45i1uZmHKS283RlQd1iCkW7HTg/oVi59YUddYeNs1HUh3FjHjJlEoy+fgIZvX1tnWea4eMUeMura8bYWZis78adR5MymM2/zE+fN3Tzac6SBtX8aabKO21mjeWF64fuZLqtAyFmXb4vKfs+LoDPpt/u6d1vTYcJhUgpmaXCQzZWbsLqGBIGtpyhPx5NBkscB/OWUm7rQWpX7LcZeRmuGDkMeLynJozGJKPOOr+rSS9PnOwrvyJ7J4YQWXEAbX5WUcTF6ek5pKG0dqzvL1i/Metz68gMYYU7u7ArA8fY2RqxCatDLOxrT8qeNI28gRiTjzU5LHhys9/tuKAGjJBUVrjGovQsKEaHFcHQz6jBunFpQwwRibzJB5Fy4YD9JJMBgMkJZctjhj6tQHHogVkJG+PjmHBoy7jydV7ptcAGRNK77jrhgASTDGQL/je1KAFnePYPzP/3wDX5WjM4BiCrna902ANgHyZvxSDNInTnMTT5T8A3rwEuKXwbVUAAAAAElFTkSuQmCC'
p13
sS'twit'
p14
S'data:image/png;base64,iVBORw0KGgoAAAANSUhEUgAAAEgAAABICAMAAABiM0N1AAABHVBMVEUAAAB3slU+ch0+ch0+ch0+ch0+ch0+ch0+ch0+ch0+ch0+ch0+ch0+ch0+ch0+ch0+ch13slV3slU+ch13slV3slV3slV3slV3slV3slV3slV3slV3slV3slV3slV3slV3slVgmD9gmD8+ch13slVwqk5zrlJpokdCdiH///9MgitbkjlFeiRXjjZimkBspkspLzNJfihelj1Qhi9lnkRTijLE3bWIvGpkkU0qMzJfiUpyqlOAt2Du9eqRwHW72aqfuY4zPzdBWD6ZxYA1VSdGYEA9bh59pWTn7eO1zac0USg8ZSZdkj7m8d/d7NWz1J/M4r/b5dXD07gtPC8uNzWiyor3+vRhkERijEeNvHHP3MdulVZKeyttolE4SDkNA3nBAAAAI3RSTlMAEABg7zCvz3CPIL9AgJ9Q3zDPEI9A31Dvn78gAK9wYIDvUDBOe78AAAOBSURBVHhendZnc+o4GIZhI+w4YDqBBcIJu/vI3XSSnF639t7L//8Ze4Q0YxsLy8r9IQyTmWtey7KRUa0hUWWQKtVhWumXCxuXD4MaAGzBWDZYzYdAdbD4EHUT4ps+1DTBMofc5NkPgBzwGoRYzOQ1taEWRLispw7sVqvdcBynVRlyUFqnKmQhWxBF8W0UJUjHrAp1UmW/c6nIOywFZlWFTPCSnUfzrSIGkYpQlzORTyWtAthVoYZg5HlbNNqXrWEFqAdsOSPvFgBMSwk1EawYoJDaSqi7PF1i/xDHsZ+7OqCugvqDHHJYbsHLSGsAw3KodpVV3DizDeMMH8MmpdBonGG8JbL52X8FTgqpxtkFECWRWKO0uCcuTT3OHryvv/FoMRdwuoZyHHFjgM++erL57xmVtAVMQzEOi8/zyZPN+z6VQTHQMRTjsCIAyc+bY7/IoANgGYpxWCtg621EMmiNHjFU47Bcn9K33HlLZaFxCn0woWd6zKHHcqh9hEbT2ezqej6fj2b0fE/fbDZvntLzE9UecfVmwZiynv1LzwTTMsiAlveOqgNs40OFcxfeVYFgjPltWReEl/fHv2EY3qscD3AMsVEQeXnn1/C358eBQvVIPswmg1ywdnnoRRi+4h/ht2qoRYwJA1lRiohLekHpfch6roB2NiFssd0giaKTie4Y8JK+O0KqGxczqDamsr5jwPf0Vcg/y9uzSyP9iQw6Aj8w6MefXn/ul0Nb2OwRuS5sSbE2X3wZ//4HjrmqbdQy5E/8n3+9/vsfpMVljs8h1vUsg6x3twnS1BPtgN6QQ+wNIJB9gJO2UewrfrXtZuZ9dH310SmSRPFhTZUlnZOfo3rujBf7Hq2UaxaONRfiWpYrl1Zv55BTaGi+Rw6ZQSaziRraFyciHzMk4/TntZux+h3SLkBkmoNGc9ainFoBaBag3It3MRfdlF3gXn5iqw1yjqg/KLsymHwi+flh0J9nqo3LtrUlPx/1r2az6WKer3/+yb8YkhRSN5U7PlsfLejMSLc9ogkRqePC1IYGZ45YXV1Idt+8AOjoQmcGgqO72PKB9CHZYWMJAHVNaCw9X+OiRfSgES0W8U2tB81kh2KbEF1oUXS8BF1tqDaRrrQ+NJX/vDZ0oYV8C+mukfS8EoGlB9UG8mcD6CkgtbMCy6xrQY+KzjpgikWIDjSVO+iSfP8DpJG5ffLGF8kAAAAASUVORK5CYII='
p15
sS'gmail'
p16
S'data:image/png;base64,R0lGODlhDwAPALMPAAJnAAGSAJ6YALi6jg6sAGSXBiS4CEuUSPqbAGm/GJR7FinHAiSOBGHJR327fgAAACH5BAEAAA8ALAAAAAAPAA8AAARn8MlJFb0PSWWtRKCWEE/nadRCFJyXXYPBBEWxLBk5Dc7hEIRA4MFgAB+LxsEnHD4AACFQaKi5DAFokCYQFGaTGcPbNWajkgNvMBgFDIusM9loyAAPQhwtaWYlBlh8GA8BKnKEgIITEQA7'
p17
sS'related_to'
p18
(lp19
V\U0001f409 Dragon
p20
aV\U0001f1e8\U0001f1f3 China Flag
p21
asS'name'
p22
Vdragon face
p23
sS'known_as'
p24
(lp25
V\U0001f432 Dragon Head Emoji
p26
asS'default'
p27
Vemoji
p28
sS'bw'
p29
S'data:image/png;base64,iVBORw0KGgoAAAANSUhEUgAAAJAAAACQCAYAAADnRuK4AAAKO0lEQVR42u2dLXAVMRhFKyoqKhCIigpEBQKBQCAQiIoKRAUCgUAgEAgEAsFMRQUCgaioqKhAVCAQCAQCgUAgEAgEAoFAIBAIRMUy581sJ6RJNrub3Zfs3juTgdIf+l7Ofvn+kqxUktRDK3oLJAEkCSBJAEkCSJIEkCSAJAEkCSBJEkCSAJIEkCSAJEkASQJIEkCSAJKkSQP048eP6sWLF9Xt27erq1evVp8/f9ZsC6Bm/f79u3r48GG1urparaysLMbu7q5mWgA169OnT9Xm5uYZOIwLFy5Uv3790kwLoLDevXtXra+v/wcPY39/X7MsgMLCv7l48eI5eAAKX0gSQF79/fu3unLlyjl4GI8ePdIMC6CwHj9+7ISH8fHjx+if8+fPn+r9+/fV06dPF043UNpWjY/597t371aHh4eybqUD9O3bt/+iLXNsbGxUp6enwe/n869evVoAs7a25gXRN/i/b926VX358kUAlSgsgW9ymdiQjo6Oqq2trdbQuAZ5pp8/fwqgkvT161ev9WGQC/I53NeuXUsCDj/nw4cPWsJKFA5yaHL39vbOfQ+ZaVeo32U8efKkcYkUQJmKiXOF7ea4c+fO2dfj7OLnpACHsb29LXhKBgjHN2aiqYPt7Ox0cpBDgwhMKhige/fuJQWi7Xj27Nmgr4/Sy/fv3xeD9IIASigSh9S3lgkQ/3+bHJNvGSYQwJqSeyJqvHz5sjMwwILyOb4G3+vly5fZ5KCKA4hk3zLhMSeVOltsoZacFbDg/JOMTLGskoa4f/9+dXJysniwBFCEiK5yAMhMJt68eXOxrGJJ+P0YDx48WPhfwBIT+fE1N27cWOS2yK4/f/68Oj4+Pht8TGqCBGkoqYl1GtPBLw4g3qScAOozAAYwyCX5LAgtKoBJ5BdjtYhO+VostQByyPcEljJIPuKEs6T5RGkEK3bp0iXv8kn2m1QFP4ulkQTpMhzuogDCNJcIDcsLS1Moa40FYqm6fv36OUcaWFgS+TygLMvfKR4gnszS4MFKhKwNNTQcazOyxB9iqcay5F5jKwogHMRSwMGxxn8JRWVEUKaDjeXBgaavW4nEGURgroHfguXwRUJYFLvpv4YnBFxIAEdLLxly8kRk4AGYQSRIhMjvNHuAco/AsB4+Rxa/hcn1hfT4PrHCemGN8Yt8yUd7ANHsAeLNyhEcfq/QvjMsg71bxFciMf0lkpRkvEkUEu7jiMcCI4AcEViXN26ZVgenH8uSw+85e4B4wtuWGmKr9l3rYVgGH+xYk9RdAAKoh9rAUBc7cViHmAycVF94jdVJ1fEogBKKJzrW8tQJOyKTlJNA8fL169deq8NylpPVEUCGyJnEWB4z20sLaypwyAL7QnP6dnLxdQSQRxQIm+Cx8yh9w/4mcBC7O1L1WQugARXagkN0ZlefCYG7Lick4N6+fRusOeED4QuVkhmfNUChEB5I8HVsHRwctLY2NIiF6la1iL5K6wqYNUAsTb43xpeij/FJ6J0hm4vfFNOEhdWhOFpiR8CsASIL23bzYCjpiG/05s2b6LYIvo4ocNm92AKooygI2m8I+7x8VsO3awPfps1OUn5+bBlCAGUqKs22M0zUQz7GtTOBRJ7L+tAWGtsrjAOOP+TrCBRABQFEBdvlONd/p2m9BglAXL4POaQYYZ3wcXJNBs4WIHwIIhf6ecirxG6FYd9UTI4FyELJRt8ervpMIDLIqU7qEECJRVhsLwUsMTzpoRYIIKMXOObNweqEjnoh5AYuljEGf+d7pmhpJgcQW1dCCUAmEytQR0T8iX8zBcdVAPUUy1ab9gssVY49PwJoSQClPFJFY2YA4aDKmgigzkrdi6MxM4BK2IIjgDIGyFV+0BBA0YrN4YwxSBKyfZi6FoPEYdMZiwJoyQDl4ECTLKQxzFUDa5OoFEAjA0QB1HWsyVjJQdousDRNxVNKHAIoQ4BoMrdfANllJnToNlAgjekqrDWXckZRALmOYTEnNWaHxVhXDkypZWMyALkOwsQqmUtc6p0MwNPlZsK51NwmBRAKVc/bDnqCusCT6357AeQAyL4SKXanaYzPY8MZK/qN5EQXApC9b4vGshRnD/Y58DvVzlUBlFi0hjZtv0kBkO90jNjlaywHmjN9aKAjgUl6gTohFrm+zoDBA8Z7RAmISDV1orMogIi47BfA055yCTNv4+miVEuor/uRrUhmo1wXYV3Zt5ZiE2NRANHKYb8AnGZTfS5MIXfj8nsAF6vEk8wT7kskMrlDOc9D3OQDhOy07bMvrbhShp2gw9mtJ5Q3pI+J5qm0gXUVb3nD6wtKWDKxOqEW2xSj60GZsSCFzlmcFECuq7jZa4Vl6NupaDvONMrn4KgysWPcU4GP2dZ/Kw6godpZsVz2JOVSWR9qknz1xqYjb4oGCGszVIXdFJsKcwmVx7rgxFzSYs9AKg4gDi8Y6gT4HCvq9u+VG0TFAdT1ZkEsTGhJsi2QnbTE8uEwj3koed+EZoqot6m3qchtPV3qXYSrIaeY6M4+jNuM+Eyx83XoqMvcWr1MsZSH8kVFAkQPUNvJIErjiQpVyfkcZxNifXCozQMYXH4Iy+lQ5xjiyOZy/VLoOtAiAYq5390eFDhr+JqavehyNENbDpyyM97AONQtzyyTOd3dhXy7YYrdG+86niU0uETEfKJ8ZhmLUsPmg5efNdRZhizPY95N2kauI26KBQgfpc3ywVNt5zuwKuSV2F3BwNLY7SGmL0DGeahGMV5LTL/1MsV7blv+os8HapsTYidFWweS+hYO85ANYoTqudzX3iT7aojYQ7ayBAi1Od0U4GIcRpZH/KChuwopy4QukctVAG8e8Vc0QLEJL0yvrz0Vy4QpHquPGf8Jy5aboxwrOhbqXBzOddEA1Y4teR5fZEaB0K5mM3lM4pi7JwjNsTjLuEZ7KPdhEgCZUBB24xzzwnB6+dh+0gnlxzq7kCeVNpFQZFeieE+x2JMCqElEXmOUIrBqRHS0mJbm37QRS/9sAKJMMaTVwSHGoaR2NWVoXEHH5AGidjVE4g9o8AWmtjzloGwAIjGYsjGMhB8+Tag3WpoIQDh6qaKsOvSeQgQlgCKFpUjR6kpUJ3BmBlDT1Uyxd7cTuUkzBKjPZbWUMULXJUgTByjUABVzd3upJQYBlEhdt/7k3IsjgEYSzm6XpntyOnKUBVCnbT8420oGCqCFiJy6LF2SAOrs/yxz75WUGUBmt1zsafMuldJiKoASq+1dGuYWnlqE8TjVskwzBKhL+cJuSaj9KLYySzMDiNbWLjkgdl7QF21uWe5zVqJUKEA0fKfYTcHuVdXBZggQSnHlAa0b0kwBwnJ0bV/FegmemQOEuBylTQM9nYZcHtf2UhVpogDVYj8YSxrhutnaSr2Mf+NzbPNRBV4ASQJIkgSQJIAkASQJIEkASZIAkgSQJIAkASRJAkgSQJIAkgSQJAkgSQBJAkgSQJIkgCQBJAkgSQBJAkiSBJAkgCQBJAkgSWqjfy649NOEhqFxAAAAAElFTkSuQmCC'
p30
sS'version'
p31
VV6.0\u02b2
p32
sS'uni'
p33
V\U0001f432
p34
sS'desc'
p35
V\U0001f432 The face of a dragon, showing only the head. 
p36
sS'browser'
p37
V\U0001f432
p38
sS'annotations'
p39
(lp40
Vanimal
p41
aVdragon
p42
aVface
p43
aVfairy tale
p44
aVnature
p45
asS'wind'
p46
S'data:image/png;base64,iVBORw0KGgoAAAANSUhEUgAAAEgAAABICAYAAABV7bNHAAAAAXNSR0IArs4c6QAAAARnQU1BAACxjwv8YQUAAAiLSURBVHhe7ZtNjBRFFMerepYjkV2VFT9O+HFzI+jJA3swq4kYdyES0MSDCMSQSEzwYogGQ/yIGxIOHBSBkx8JAdagCW6UrAcvihqMF4kTD34uMQsGL2bpKt+/6vXsTHfVdPXHMGsyv2RTVd091d2vX7336lWtGDBgwIABAwYMGLA8OHnbyO1cXRZEXC4LZkaHt0aL+hFuLguWlYC0lpuo2GVbywPJZd+ZuemG+0Sj8a1pxPG6yb/+/s7U+8zy0aCoMc41QYJ6kmt9J0iDTo+OvEMX7uBmJ1osCKnPCy2/FCo+U/bLn149/LWU8n5uNifnF+7keiFO3bJqQ6SjjfRg99LrTfDhTswzi2N0jxf5iJdcAdGDP0sPfoSbAehZJfVrm/688gUfcDIzuupRuv3KyfnLH8JzNa6JX/iUQUk1jj5wnZLin/z+hrdSfweoutYeySe5Bzed9GCIyQn6gnMzq0de4AMGCAHCphf5dGZ0RNOtP6Zr1+Ocy3NFKlpnKjpab/qj35jfUr/pUAAaTn19QNVg4YQSNsQ61T8YrfV5KeQZLfTvVL5JdxvhUwY6v2Pq0uV36eXfouZeezRBz5J2PWw1DcJMocUr6Jdqu0o9mxBHpuYXdnLTS5AGqRVyCi/LzWDMg0ux3wzRlHCAlPoPW4O9SCOtNsRGCFm4314KBwS7eeOGo8ZnrhctCxlJc3875LLknS+H1Uxu5BJsg+CdVKQQyP1vwSiIh+R2bgZRyEjD4sNucLMybca2yeUScMV1Qv3pSO/d/NvCr3wkiMJeDEaVimnbqkbjmhqzNZ0REI2pz1FaI10LB/JcuotSbj4eEoe4Wg0d3W0KLU6Ydgd61hb2mspIdZFrhSglIKhpGa+Whty0mVJAK9v7M17GaircyG5T9olSAjJIWXkyCRedBJQkkAcQ2eIvccF07mUqagn+4qHoAlcLEezm03gDuDJQ0BevEMcSA8pTjz1UTQWPpSk9tystIIDQn7pwTwg7MPbkOJVXtYgep5s6PWEyzHzBH84jaG38G99MMdljdGhPSFxWJDBMU01A+cEjeSe1Z3L+yifcNlDg9xMVhYdOenJpNU0fzftIIZNSH+VtEGFSG1I7jSi+Nnm78bRwmNNcFiL9khiSiIqhIXzIgZ4tKxxQSUAGLddwrQOp1E5vUKbFVa7VghoSr3I1C/JUFag0xIDPDmEeZZJXKtpAWvagPSq/p9eZQwqD7rzfHitAHK8ztifpT8uzQsVz0GRvxoEcwOSlBb8AcygtILy8VNFuKcUTfCgNouN68zM2E5ixdxjO3lm9nbIcKiukUgJC4oseqECWsf8kHrDnczGkNmsSTpO/bgB61j0dCQcaFi3qws6hkIDM7FvLw9wsDb4mAjcKDsdQ58NuYEPIU01dWtjCR0oDIXF0HkwhATUWxTMuG5Aim7pIQQ86hxLqDrX3aRK0JrEd6Ty0h9x7E4jQgyk2xKR4mmsZzBDAgh9pRp5W0PnWGhiEpKU4yc0OpIpf56r9OF3APRF3kZfcSE2/oOgDw0xwK5dgAcFrUeH0Snb2vbAlWRNDYsqc8GBUvS3PI7VwGc5m0h/fu+uXT5JhCEytoLppk11NCSFYQJEnIMTwSAdqiFzzjWp0iF8cEuI4qQ0thjGsbDghp7sNbWhPe7RsPZXex00HrkUCN+FDTEtn4grDw+U6KX74gas+1ibrXXR1di5FAsFiIq6BxvFRD/JnrrTAgiQVTi2ij5c7wU0oZoMceIYHnVDfcK3n+D9GNpUL8gW+RGUBeXGvZ4V4GT80nJ0OQOpC6dQ8J9JOuIAKakRiYFvQy8F40t8d9IA77Ayc885dMddMU7mNXP6NyDymf6daC5Bh0PQoeMUkeKrRsX+nDXwN+9BZOiey9ILWLnhJPBvSoy67lpDOQyULjO1wVrJjQ0SLAhPYYA2CRrhUE+O55Y0yYPZumM4TDoCLxl834QCjnZyH8g2XbnGTilRwfqioDXqbyw7ghp2RrhawQ00aVvUsE7UBgdthmvVg5oP50ynNIgm0QgKiacFZKjKGFlpE6jyHWX6HoKS6qKTanqcRZbHx15I9wr0x14pUdIoPZSCNe4OrQRROd9gw3ezF8dOnPYZ5ue5u9tJHYQGBvHwQPYjZ98NNJ9aIqjFeOV1pj2a4Ci3MM9rA50RaIOKP1Kai+elSAgJGSI5NUQDTDF96AvaBpi0v0a0DlouWQJ86Uod9L2gWIKU4yM0OoDnIkZfR6tICAt0WDxHvpL965T1GiKVWiDGXNvly40VcuotKkbRZ0qGH5mYHrn2HOjLJ+nLCAfRbV79G8B6NrCIcUElAgFyt2abiILNjnobkrVwtjbMPu8qawYYB1agsIHoM53QBrr/GvT1eOKxw5oqk0Oe4WprKAjLeyjPM6BGf50pCHQuGHX10SQM3Q6L3PGrQIEKKY1xLISeS7S2ADOwJvzADsEa6lYjrFjEXDQh91COgOH6fay72JXM1eB/eCFom7dHEbxMPhqFlMo1umnlxWCi1CIjjC/fDwvPo6GgyBUEcwznjIvscp/Gb9hgoWhQHfYmvurQHVIqD2jGR8aK44LEHzmAtP2jM/t8H7mOF41vyLrYPOo/aBARy52mwP1LvThtPxDG60XhOarEZbeS5tVTvpaNmCBTDyqc5pn8VP1TnPLBWAQGaMDr+7yKNCQ2Oh3oZIxgdPUUPm7NHOz8pV5TaBQS8YX+WJgVz52j8fbX0fxsWreUa0pR7aGiOezWmDboud4Jchp4IyNijgK1xddEr4YCeCCih638q1oHHptVJPXGQB7uzVG+rFBx6ITsGg9xD4YCealAChwBIogdt282Bgky9r9eCSbguAkqwMQzSFXKiy9Y9F8aYS6E+8uya7RnXVUBpOK65y5sGwYpprH7sR357wIABA/qPEP8BgGYuKkdV8/4AAAAASUVORK5CYII='
p47
sS'andr'
p48
S'data:image/png;base64,iVBORw0KGgoAAAANSUhEUgAAAEgAAABECAMAAAAV8YMOAAAABGdBTUEAALGPC/xhBQAAAAFzUkdCAK7OHOkAAAMAUExURUxpcfeTKXV/P3V/P3eBP3iCP3V/P66jO7acNneCP+myLHaAP+6iLXeBP/mdJviTKXV/P3V/P3V/P3V/P3V/P36JQPWTKfrBG3WAP3V/P3yCPviTKXeDP/eTKXV/P3V/P/eTKXV/PnaAP3R+PoKNQHV/P/WTKXeCP4SMPvzCG/eTKfeTKXR+PnqDQL+LMnV/P3mEQHiCP3R+PveTKXV/P/eTKfeTKfeTKf3CG/eTKfeTKXmEP3N+PXV/P32IP3V/P/iTKb3PRveTKXV/P4OIPfeTKfeTKXmDRfqlI/nAHH2IQHV/P/qjJHV/P73PRveTKfeTKfeTKfeTKfeTKb3PRr7QRvzCG4CJT3uDP4KNQHuGQPeTKbSJNPzCG/zCG/zCG/zCG/3DGvzCG/zCG/eTKYeSQHR+P73PRq+/RbfIRbzORveTKb7QRrWfLveTKfzCG/zCG73PRvzCG/zCG9aOL5iFOeuRK5GeQr3PRvzCG/eTKb3PRr3PRqOyQ6OyQ6W1RPzCG7zNRoaSQaCuQ32IQP3DG/qrInV/P3R/P/iTKf3CG+5sL73PRnaAP77QRnd/P/7DGneCP/3DG7zORvmTKe1sMHqFP11kOe5xLnN8PvKFKrjKRZKgQuFuMnuAPn6EPJimQqq6RPSRKIWRQHp+Pqy8RJB/O7l0Nj0/Mp+uQ36JQPy/G399Ppd6PIKOQOtsMfipIG94PYmWQbJ1N4yYQfC8HrLDRbWfLoGEPI+cQf///5GZZi8vLzMzMIV+Pb6jK+6SKkdLNKi4RC4tL4uKOZuSNclyNKW0RPu6He92MaCvQ/qzHouTXOm7peOQLIx7PK2aMNyzI8+sJ6J4OfehI+dtMbXGRdBwM/v7+k9TNpOON+O2IaGGN5qFOWpzPS0tL2lxPMBzNfacJISHO7/RRthvMqOWM9mxJJyrQ7G2kuvs48rOtbW6mPGohsuqKM6NMPSXJsyMMdiOLlFWN7uSMGZuPOh8LZ2kdt2lJqGSXfGhXu7v6N3g0LzBoaGfOayANwsKoP4AAACHdFJOUwD79/1LDfMBAwcG0wk9Dvi9ojHO7hdC/OJeKYQipG/6lp3ogp3Ze/t9/iZVde/9thMcZBKUZP7IYOMuRXpXUsfy8EuMj9ru/hWrsjgbxBXojmy/r4FsxvrAcMjT+tE+3XKYtitaYqtSeTnmcK2W75xPz+x+tu33+sThb0nUWvm95JpxuKQ2enivy0AAAAbkSURBVFjDrZh3VBNZFMYhCSEQIBXpXUooUsQRBQUEQey9l7V3t/fezgyQCSSh9ya9dxQUUFERu9jLrt1Vt/dyzr4pKSQTQjzev5KXmd9897v3lYmRkb6w2L3IwuhlxLh9U6a+DI6FE7Rv3MsATV0ATfHVGmVZsQwFeUHQEsIjq1nKmyc6TPYb4/1Wiybht8+aDHEmESOuk/1MSY6rMbRwjKAZnDjcGT8ONJPIbGoU5GROIo0V9DHUigM5gOdbLIEgV+L2ccaQEy7SwoED0p04RpDvTGiJFRAWBcWRNfMzhlxZCs5k37F6bO6EFWvuYghabKUEeeE+A85MAxpikrHxwnFOxhC0m3R4CzCYZerrhHFmmBrQP3EQJw6CIGVbfwA+ezmsAUMLZhjSP6DueJCVwhuKiAVbDGpGliu4JzGRo2y8hSQnapGBTT2Jk5hW8vPaWBMS7ERwOF7mhs76qN6fbhbAgmDi69w1BMfByuDlY8KtAgSmxUwPcXa2Y1h6GeN5qXHMHO3HUDyTaSsBBobpQqYLnU5jvv1OIuCUvGUfZGJiZmZmEsQP4dlyTfRy7HlMWD1unQGcxJIJAbZsbiCPxwtku7vAMHt0kGkw304wAoOUn0nDObhIVbiZjVp3O4EtbcT1cMqEtMS0tN61Ghw2f3R35sGakTKht/fMDzdTRnDokZajc+yEWiC4oLz80EgM0MOwDrafFuOsyyc7JkwRCIJoDtE8IwXAcYG1DofcYIOC6ayjl6znGcQR+uvMjGaQnhCdve0PIwaAXLaFMCyn+zMocBH0o4UjUXrATCENjtEGmW2796hjBKagUK8utj3FHPN8aNN2DFGpuX7hez0kOpeiMR159A5R6qNOhGyeo4fbUm2OjZackDeNopH4XBh5aCMTkcl1nrshShLJzo0Gco9wDNKcumbTPIGKzgs2befwa9AOkUwkShpdEeziPs/NQ71sJpbkEtR57ChKZHb9hiw1NemCfrdV6wmL7xwo1JpWwKLz5w/f09tYtEA+qSjIw5byCgQuLNTboDSuXZDCnBgXFKW+CtErx8U/SGlPOBO53UQMo7qIugWFq1aOUDizsvI3jNCUeS0zW2slQpDRhIUqK2bGza68c6QPAJr6uo/0ZKIjMqs9W3fxYt0h3Vaxg5WgyOy+I0cqm2A0s7u7+841NU5ZXcWD4YaGhuH8inJdKJpyhjh6ot/0Vf6SDUA9PT2VSkVI2cWB4eTkrKzk9PTk5PyWMmoQ6qPYxpzpMJrdhFmT/Vtm5m1EUfq6gYasnJJLjY2XctIBKr0lBQxLpVqk2SyFRThXUTSFnrKW4eScxhMiGYgTOCn/EAIj9VX1WiY5knMjklJxWUvW3RoZmGwikayGAJ0FoNLc9maNKwNIk1geVKuDO9L5ZxKJOfVjFgb6FpiEdIkllzVIdIZiMRNozQzUw1LQYSPCozHnJG7RAMgMRgclEvFjDZ9WKco2R4O04tmQv9HetiQMU3MXV5OcX1ELOEhzrnx/XsbIRkBjlS3JZ8er6Rn69+pBj1nLCT2XsjA1oI3wHbv6eH9XBpKRV6+OQserViO3oSfxQiGTKbTlerit+O+fgxFheGKyUycxl1vOEhu/tLRUimS09suLYB2gkKFnAQxLBmNOcJCRSYT7wRU+hKCaEpDXgKqpEbQ6rzhXIumX6gA5CuLdlHsvKzw0NgHnyBqzQLFqSYy0ujRvsF0uEYPCVSPUIFO+ndpewPo6gUzs7+cnryg43E/bc+WgZljkluoAqb/Dbg5L+IzQcyLn9NXTdQqO/TLJ/fsSLMTidnUQ7EP14hi26X2CIhOdymk4feDqE1RxzPv4k/5iEMerilrr1T3yZlC8gLyK5ZSUmlpzorHkZDoAHfhuCHu4J5gGW70Vi5S0Wh1kq71js97E1bSdP/zr71nJIJ6TIFvsoTuOP85rbe7KKxosLs5Qn/3aZ9vNGwDmjY17C9GUuoorDwZa/nr69A+U5JjvkYjlWIgl99XL771VO7MwwFn3mrkjG5tvtbVlMBIfj2DHTuzHnbvIkoHyqzfkSu29n7VRJNqwHnxg2KrtRHTuHHzvm91VVXxZDhpAcl/erCpaAIXV5ptENq9gPWEaHigkjoB0psAffyJrx7sZcEZ9a1HV8f7+KpVFNB+Ktzfz5aJ1c8nVjs+ICOXxQp0tiT3CYlm0fH9RaTUKdEqlqn3GO5bqMGqeQAii+GVpNHBGnNveX1WUl9eqtDrAh/pQuz5Mx1vd/NdJlzG/JYMkiL56uqF/tbC2vxctVpSsnViNvFevsn6Bf3/mf7h0z0e7ouVi8eUuGPV2Z4+f/iIYwvD5O7cvW/r5l195+HwRbq35ivw/vy9PUZkT8x0AAAAASUVORK5CYII='
p49
sb.