ccopy_reg
_reconstructor
p0
(cemoji
Emoji
p1
c__builtin__
object
p2
Ntp3
Rp4
(dp5
S'emojipedia_url'
p6
Vhttp://emojipedia.org/watermelon/
p7
sS'index'
p8
V320
p9
sS'code'
p10
VU+1F349
p11
sS'apple'
p12
S'data:image/png;base64,iVBORw0KGgoAAAANSUhEUgAAAEAAAABACAMAAACdt4HsAAAC+lBMVEUAAAAAAAAAAAABAgEAAAAAAAAAAAAyMBYZJQ8CBQLy+/hoizdznjkDBAEDBAFkhzX7uLhymjwYIQxkiDJjhjNnjDZ2oT39wMlwmzkWHwsAAAACAwFlizRihTNdfDNrlTRfgzH/sblkhzUAAAAAAABcfi5fgzBskjxegi5slTVkiDT9iJP7jppihjL8usL/tLz7s7v9hZNwmTj8mqdNaSZhhDJkiDT5fYpXeSxUbTBpjzV3nUz+rLb8kJ7/n6b9rbf7bXr9n6r8kZv9mKNIYiZXdi1NaCf7Y3D8eof9qrRmjTT8/Pv8hpB+lV79nav8ZXL39PCWpoXf4t39kqA7UB78UmL8VWT9YnH8V2b8X238UF/8ZHL8Tl39Z3X9YW/8W2j+h5L+jJf8SVj8S1r8TFv+ZHT+g5H9Wmr8aXf7R1ZVeyb9XWv9XGz9coD+bXz9bHn+lKD+anr////+go79WGj9dYL/e4z9cHxZfiv/oKv+qbL+doX+Z3j9e4j/naj+f43+kZz9eob/o65cgiz/maZOdh3/hpV2qDf6//9LcxrU2tX+jJpSeCJsmzD+c4Pb4dxXgCRijyz7RFN9tDj/VWX3+fjZ3tj+bn9agSlfhC//eYpwozH8kJn+jpxfgTZ1kVT/cX5eiyeru57i5uK1xKb+uL/t8e7ripR+mmC8x7X9+/z94OL6wMRQex6GoGv86On5ys6BvTjP1c/l6eV2rjH/T1/h7ujq7Onc5N98rT7e6+T/rbdkijPwcn+jX2bfZHGfsozHz8Tq9vLx9PTz3NzM1Mj0/vtliD7Ce4IABAP/1dmHvUHUbXmDdncUFhVnVVeoR0/+8/TCzbr3tbr3p6ymwod9oVODLzeJsFj+7/CZy1uOrmXEanLGXGYrFBe6TllOYF6No3VEJSn0Sllyc3Px6efdeYM+PDzRh46hND6xOUOawWxpiUPTUF2Gwzvj7tWkyHetzIfR5ra52pCLaWxUQ0TQUFybcXbmbHnqTFqPW2KQpnonKyt7RElBr4F/AAAAVXRSTlMAExkwDCEqAQMH/TLkgY9DCqmWG+l+/DnyTWNzV5Mg/tkYrD9V6nVp+4rNmmS6ZSZQ48f5oe9M/OQKuxeZyCmC69qCsIO/0dy1svTJxeDHyUiLc+i4Z8MOYwAAB0tJREFUeF7tlmVwnNcZhWNLsi1ZqSPHzDXHrduAHTtJ06RpkjL3Y15mZkYxMzOzmZkZg8wMZe5M312lM1Eky5LyN0d/djV7nnvee+5+e+8Yrq/1tR5Jm/WV/DPSXlqw7q6vALhn3vMvtf5s/qT9D87L2PmHblPKdybpvzt1X8m2z0ymF/hvTW6MezJKtv3ZZOp28sGff3cS/pnzSra9WGYytbHeWv99907YPz0tY9unf4IB7JTCKvD+JyYbwEco9Dq7EDD/8JsTA6TtuxAL0MMoFHq9opGP1P1g/gQruBAL4MQUjF6h0x4RnL4HJtLnuqEKBhQUBPAo/vv2u0LogO97d01oAjgDLgIATONr5650yARXW+DR8fb5SOrOWIfdQQAwCuu7V94PBL1CyJkz3j5nZZSUwATnCYoBgJZ3+dLd1hxDwBmJPDYuwFzYAujApcYoSm8PmvmcHLPM4PP5XAdCPxlPn2kZJRdgC3iOIiit1s8LAYPBEAm5nIaIyzeePu/fV/Jiu+maniAwxmr18gIQfKEQbIK/7sCBcfSZmlHyUZmphyBYitFrvXygNhCIOJ3OiJAuM7hCdbftMzX+JBjEAQBDWPlagefTA4ZADgBk6RFX5Je36XNBxs4/dpt6UTXFUGpKKxNk1gp3jmBOl/ltZpu/LhT53b3jALSRaowxGnVBHgA6t8yrc3vzbemyaltOyFn32JiAmp3PlJnaUIKQHnnFCi0IMq/ba3Pn51dUV/tt1TCGM32s72dqTQ1sYi+ilv7tr5cOmXleMJtltiOHD1UrjEatrdpW7Y/4ZPfNHwOQ8dEJ0yDCeZ479xezmTd7vWbZP958+2K10WPUAeDIvy6mG9K3fPuW56Cm5vkdmT04x178e4c3GNTqtUHbK+euHJJ6GK1Om6998/Wz7nzBUH2r521aXs2+8sxrGM418o12q53QUArdlrMdOoryaD2YVPHqex0V+fk5Bv+j3x/9iZxXU3O9zOQnOQLH7Fo9EzuS0nyjFJMadRUezNPxQL60okLnNsgeH3WMJXl5ec+cyAyJcRzlFHa7liEwjJPDuZIS0gqMkLrdjI5hPaxO8DJPTB8JWLYgLw824bwExXECvo/wYUKNcBiFyeWsBpcbKyo8UoaVU4RRZlb8eGSf0+/Py5t3qqxbT3IcxjCUAlPjKGKR43ICk6o1GszowTRShmOlBKuVMT8a2efc5TBDe6ZLhHOwNkfIwY9aEFpOaAg5K2UxQo7iUtyCyVkL49VTI/qcuXx50bMFZQMcwqnVOIKjKEmTCEqiuMYCf3KLBkfkwEAQC44SVis3os+Hlxc1tbZnOiUch1toyC8mSRohERrVyBFEo0EhEbykERShcYs+qP7Vl/pcUlTU9OzelBdYUg2ro6W7JDRNkyQylMQiL5UDB8VREkEQkpawXurxXw8DPLShqKiodU9mr4Tg4CNXr74lEtESMYQQAQp/7ZNSsANCTO9CLPA/3H4+5bcjI2S3Zwq0Hi/98D+X/imSgMSiWJDS514/vAumocUQ6sOrKCohi9sy2wt+M+yC9HBRU9PRlhPX7JxV/cHlw6UiMS1CaHEMU/rq5ZdLaSVCSsS7Pnjv0lsSidKVuaeltX7Tsi8W8dOmpoNdO1IGWNa/pUOnVCpFIiUoxnn5LCOKjURCmMuHNaQI/AXN9Q0Nm4adhYOVhQ2nWk73cFQgKCkGb7FSAj4SEbNqkVhCi2Aq5ND7jRJJG/hbw9H6XywbNsTGqsLCzmwgMJzgx+OriyGEhBaLioEniiHFpayEGzy9o7z5YGHV+llfumatCFf29WdDmTziF+wkGGIpwAwSK5WAEaGoMjiQ0lLeXFVYeXDtiPM4J1zY17+9oP30DYKQ8XoSzMVxBkwALBHKiVFXWXtB9tHKwsqqpaP8yM6pdEQ7j5W3pAzUopifD1IcIoL8EF9M4iyFokIPLH+ss6+wMrx0xh2jElR9Z5qzy3ccP2mgLIqg2ey2WvV6u96uIHDKcDJld3l285msvsKqUf0wxYqwKprb35Vdvv/4O721dhbDWIpiQfba3neO7y/P7urPjapU6+fe8ra0MuzIzap/o2s7MHbvOTnYe+PmzZs3Bk/uOb67AOxv1IM9PGfJGDfGtZshRJaj8+h1YBTs3Q/avX8vmLOPNXc6snJVqqqNM8e+M66scqhys6L1Df9u7rp+antMp663Hu0/E43ZwyvWzbjtxX1j2KFSqbKyoo76jxsaOhsaPq6PvctVOarmzL371ulBM+JKfnDl5lgMUDQazYqCcoHoWL9h7bLRrXFXcmLilClTk5KSpk1LSFj45FNrKh0OSBKXI1y1ecPSWQ/F8NNBw+xD7rh5WsKqhatXL1q8+E7Q7Nm/f/rprVvXrFmzdcVTm55cmDAtKWnqlCmJiYnJyclDJFAs+OfLxwExwqI44RtDmg26c/GiRasXrlqVAAxAfJHw/+njKYASn2JoDIANCV4mgaZ+vjpolEEmr/8BVGhcnECi9dsAAAAASUVORK5CYII='
p13
sS'twit'
p14
S'data:image/png;base64,iVBORw0KGgoAAAANSUhEUgAAAEgAAABICAMAAABiM0N1AAAA/1BMVEUAAADdLkTdLkTdLkRckTtckTuuvXn/6Lb/6LZckTv/6Lb/6Lb/6LZckTvdLkTdLkTdLkTdLkTdLkTdLkTdLkRckTvdLkRckTvdLkTdLkRckTtckTtckTvdLkTdLkTdLkTwmIVckTv/6LZ9olR9olRckTtckTtckTtckTtckTtckTv1467W0pfmXWHjUVnr3admlkO0JTccBgmKHSvBKDwOAwQAAAB8GibMzZA3DBHPK0D/6LZckTvCx4h7oVLyoovqdG/ui33dLkSjt3GuvXn70ahvFyKPrGHhRVL93K/3upr5xaHwl4SFp1rg2J+YIC+ZsmnfOku4woDsf3ZwnEp+EYRRAAAAK3RSTlMAYM9wEACfQAAw34AggK9QAO+PIL9gEFCfMM9wv0DfgN+Pr1AA7yCv359A5dwQzQAAAtdJREFUeNrtlWtT2kAUhmmbtFq11dqopWktrVER5SKCxV0CrhdECgLt//8tPScbfGFnEmfhK88MfGBmnzmXd5fMkiVLXsLLfnXcRcnQJyulfPtuZTEyKyurkiiJ92vrC4o2yNMRQnRHHz5uzk1mc5M7a5KopZTa+rQ9t8iRRIFERRXx+dXOfKJd8oTcmZqwtfdlHhGP6EZ3Bl6/2bEW+fGI/qpZ9r5ZinjWpyQ6Uybf97dtRJIQxAgGQIGwFikAEIjFRBaByHCMytOiynkVDgTCWnRRq1/CYATCprXLeu1CGdUhEBai6nmFvlGdGQjr9aM6MxCWgUR1LwcCV+Q3rkg6CETapbWAA5H8jIBaI02CQKQ9bEylXr9KdSAQSU9tTL1ewbhT+bG2/vz45yaPPwLQqBkBSGLUFeLnrwMic3Cg/47I1FbAjCSmVmlMpf2ajpVkkDt8/oO8pV/uUJJxSTA1Vt/PFCRu6PhRJPL43vK4r1USmNq9bhYFFcp03ItEThCX1H1I8mBq1QbG/yCIWzp87JKI2JiU9Kis6EUTIjwt0iV1RNScBX8E0dcFaRFNSV84bA4bSqQtiKYkdrWI8bm5Eo8J+TY2ZHLGngFP2nchOuTmwgJM2NAUT7UqPF3eWEjHgsNYhOaGAt3NbAg5v0JfREc3BhGRhylx4lecc8xZDCWRd2dFThamXlKeqrUnRRR78PCAIIKpU9BFjVIu6rVgCn1JZB2IZk3hQDBdqExNVzCDEB4tMk3lsdCqFu3PpNgiDTMuP3sggsmXTL8kNHetdnFK0m7dCc2gL5kj7YEI5GTEkFUxvceIHn4pDWXEhhsDEdgNYtVAJDCINcEJTkEEnLzUhGOUhWLGodTkHNcUmZz4cuK6aZ5Cctoc/pMxPsqBKEWldX0iLgSadBFU+UAmEORXXZAkAo6nXabFw2xeEoFVL+cfy5hjP+ehFgCRDUvRUrQUzcl/zMtF3CJe030AAAAASUVORK5CYII='
p15
sS'gmail'
p16
S'data:image/png;base64,R0lGODlhDwAPALMPAMblpQNhAi+oJfhcU+qUeP8AAIHmeZ4FBf43Ng08DWUHB/4bGmXEVO0BAdkAAAAAACH5BAEAAA8ALAAAAAAPAA8AAARl8MlJKat4LHSxREtRcBlYOMrYfeFZNEexXMDSvkojqkFdHLGG46UbMAIMwim2O6QIgoDAJ2rohAVANGFQioC7geERSEwHIsdQpiUHpACCxjYArN5SA2C/X0nwUgKCAR5kCWUJGBEAOw=='
p17
sS'related_to'
p18
(lp19
V\U0001f348 Melon
p20
aV\U0001f353 Strawberry
p21
aV\U0001f350 Pear
p22
aV\U0001f34d Pineapple
p23
asS'name'
p24
Vwatermelon
p25
sS'known_as'
p26
(lp27
sS'default'
p28
Vemoji
p29
sS'bw'
p30
S'data:image/png;base64,iVBORw0KGgoAAAANSUhEUgAAAJAAAACQCAYAAADnRuK4AAAOAUlEQVR42u2dL9BN3xvFBUEQBEEQBEEQBEEQBEEQBEEQBEEQBEEwIwiCIAiCIAiCIAiCIAiCIAiCIAiCIAiCcL/zub/fuvPMdvbe59z3/Lv3rjVzhuG859737LWfZz1/9t77FoaxB+zzKzBMIMMEMkwgwwQyDBPIMIEME8gwgQzDBDJMIMMEMkwgwzCBDBPIMIEME8gwTCDDBDJMIMMEMkwgwzCBDBPIaMSvX78WN27cWNy5c8cEMrrhzZs3i+PHjy/27du3vF68eGECGXV8//59cfny5SVpDhw4sLhw4cLy74cPH15aJBPIyAIrc+TIkSVhzp8/v/j27dvi58+fi0OHDi3/7f79+yaQ8S8+f/68OHfu3JIkkOXp06eLv3//rv7/5s2bs7JCJtBMAEkePHiw2L9//5Igly5dWvz48eOf+7BEuufx48cmkPE/kXzq1KmVSOa6d+9e9n5cGvcgrKN1MoF2MDS/cuXKijS4LFyT/o7macLbt29XP/PhwwcTaBfx7NmzlUjmIsIi6nr06NHq33BpORw7dmx5D7khE2jHQnOJZC5IFIXy79+/lyE7/3f06NHFnz9/Gp+D/lF4n7NUJtCWieSHDx+uwnBZDwiT4tq1a6t7Xr161fg8fk4WDAKaQFsMdMrJkydXpDhx4sRSx+Tw9evXVaQFmXK4devW8h4E+FRi2gQaWCRTu5JLghR3797NuqUIwniRrQ3RSoQ0gTY0NI/1q7Nnzy4+ffrU+udfv369+tnSz6m8gfg2gbYACNqoYQ4ePPhPNrmtZlJI/+TJk+x96KiaqzOBNgSxfhVD83UhN1YiBzUx7iGyM4E2FJQX5EpUp1rH6qRAL9V00PPnz5f3nDlzxgTaxNCcfEwMza9evdpbXub9+/er5yKYm6CsNEK9jTg3gWYCqubMeg0wofTHjx97/xzpoJxIhjTKSkM4E2jmYMAodCp8RiRTchhq9quhDMuWA6mCqSIxE6ijS4mhOcI151r6gkoWJR1EXW0qIW0CtYAa2qPVYWDH0BxR4+SA6xSpv3z5YgLNCST0pEO4cClEXeu6PqxEvEo5HoAg12eju3LP1ncce9WGCVQYOOkPNW/lCpttIza0EtYrNo5x1UBVvkYOVfjHdmMmUCa3ohmN68ByNFXN1wGaKbZzlFyTcPHixVU5JAclHSnamkATAdfEIGlwT58+nXUbewVZa4j57t276r2KsgjXc1D5pHSPCTQQcC+EwHIvWAXczdT9xgJEq5FDNTFcrQk0IrAwhMiyOjSsD2V1hiSQ7im5OROoRxC53L59exWaMzgvX76cjdUxgWYMdIciGwjEYr2+RPJUBMLlWgMNDBKClARkdahfdWnyagJWi0EjsmpaCJiCRjMiPOpoRFdEfDWr14ZAykabQAOBhKB6dSAQg9KHuyIsl/jm+bWCJtFXmgeq1bDaEEgdjCZQz0gTgmiEvkVyXMulvucccJUQIma3caF7JRBu2VFYz6F5XEbDnwz0UCJZyb622WVEPE1nkKNWGulCIGeiewBuJSYEGdyhF9+hr5RhZrlNn1BnYolAco0slTaB9mB1mK1RkyByx8Q6hdYa2mSZJaLHbq7fGgIR3WjxHjqEzGybqGgToN04KK3UCFTSXyZQRpRq0yU1Xk29Y0XfUBNbSd+IQGPvGbTRBMLvKyGI2+qzal5zU3zWOs1b/FzXn1XEVtI3SiSOvQHnRhKIAYyhOTNzCO2RgzoAiey6WjtFhRC+zXJkJkSbcF+RWpvq/k4TCBMdRXKbTO4Q0I5iVO7RX22hdVy6ai4HS6V7SxtrSmibQAWrIzEpcz6lSKYVNVrALlDzV5vMcdyNrBRRammPCZSAhFtsBUUkT7H+qSnvI20CsbuAnBQRI4MOmdparJxu4rvoHhMoMd9yFYTmtF/0tRICt4dVq7k/yJqb+Xw/op8hV0JI23DltvXl9zCBGkJzVc2HaPKizMGza6tJtea9tnpiKKhEQrSZA0LeBPo/WPmgvAcRCyJzCJEs0QmRStDmUGM3agly3RApB0T8zhMIq0OvzhCbFJQsS02DxGU9U0CfXypRaPUq19iBxSwIhHuI++pw0d/SVpDycru4OLSELEstgmobLQ1NoFKJQjoJUT/695taJCs0R+/E3S7a7n+sMgZitsvntg3BtRH4uvsx0xlA1+M6bjhu71JytXLHpfXzW0cgkmJYAYhz/fr15aDGcyCwSLWXHrsBuxAoDszQ/TNqxVhHQ2k9GJMs5855RyrnkJ3fegIx6LI0/MJpCByTbDW3pO3duorHKDqHJlDcLJM+oS6WSMFEacf6+PwpjoAanUCqYeV8euwZrjVmxfVcXQW3VoYOvZsFwUHcwax0iEqO5KWJpHQEV5eSykYSCC0gF5WrLDNDNfNwT6UzsWK4P2doQ/AuDV+49TZZblns2rvaCgLFCjoaJ9d6EbOvZJ9zIAmI9mnaCZV8Ui3H09ekqBV0Ca0ZaNxlG60Wt/gtua84iSDcJFHiFNanZs4hhO7FuqzT44POGiOsVSMXBOkr4Sn3xe9esioKBkqHsmwNgbA+DGjM95TCzrjKoa1uiGG6CDh0Yi2WEfpqppdbqqUOlGIo7Z+4FQSS9cHM8ifEkbDMnTQTxXRtJpZc4Bip/Xja4F4/T6kMrtL+i/GcjCmPvtw3lvXRmQ/SP2ib2nlXMbHYRc8oLzIWgWI6AU2yl7ZatabWNI22c1knAt0oAsmd6JTheFSjZlCu0o2P76qFtMCuRiC+C/qltDYeXdHG8sVNLrkQ1etAESiTqnREQkygTpF9HpVAEplomti3Qm5Dy3CwSDmtEldctNkHOW0ZzRFIM52iammWY81qLiJOjK5Z8Sa3XSvwxsNcxog0JyWQflkGIdagCLNjFTkXrsfOP4hWizYgqdo7IUfufn2vUv5Ez2mTFVfZge+6zt7RTCAFGKUeJe5TIRjtNVX0NRqBlC1mYJuKgyyWEzlyQGjr5/o63jHO4lzlPxJoSKEKCWJ5pw1Rp+j9mYRAMVPMzEyr7Vii2ixHGyjS4Vl9dCdGAuVcTiRQza30EWSgf0qCGEsZlwVNbX1GIxAXvyzmN56lxb9BKplkNFEuGYcFkytjYPdyDldMwpVOBIwbNAxVdJUWI1iorTGLlnhq7TM6gbTwL00iMvtjrahUuoiRGwO61xmI1igNWhTkfe+4AXCdmjw11wzJNYEg9lz2chyNQBKWcad2nbfFi5S7gCCl0DrOQjKxQ79IXCzRUd+fw8RpS55ofXl/Y5+HMSmB9JIk+OJpN7gh9Az6JmaecWWlnE9M3I19NkRfbkuWtE1QEMs666YINpZA2nRJi/7j6lKRCgLh06PmqLmMmImd20stheCxI6ENeZRHm/p8+MkIpLBTqfloPRSJoXswzbgyzUz+LOVDeJEKfbl37F0puiDdbq8teajKR5ffdqHBVhFImgUfjltilWcqpBXKQ6hoWWqujLA2htpzOp4gkiAWW9uSBwEv91/LmG81gWKjPG2sMZehk2qIpvg37kuPHqhpnLj8WacXz+GogvT8ePXttDkyKiYLFXVNWTCdlEBRr6jyrkp8rCRL/3AvEVtMmNVeXnoWl/aBniLRhs7hs6O7Uoa51pvE5Ep3e6XXZ8676I9CoGh10EDRKmklQVyViriOdTJcWRurwnPTnejHSPdDVCwL2eqoWXDbpBrafAe2cYnuWO9mjmd3jE6gaJaxQsxERWda/xU7+3BhDIo67lTCaLutC8+K6QIIiIjtO3+CyMeapqtq+a7onLYWEIsV9Q4TYFMiy9EIhBlWoxczNdbAJCpjiA/hGICob7q82HRfoViSgEzrrhbFmhLxobXSHm+ISm9TF72S6p11ts3bCQKlITzRmAilVZuxPiVBDfFSXcBLbzv4JCsRs+lgS1/xbKwI0VLTwGMtGVBIjo7JPYdndNEqPDf9vcbe63HjCBTDbgZCO2RwyT3FNlb+LqJAvjh4alDr8tmQgHxUbHlNLz6D75iK4PTi/9FbWNKulozGuHhWhtaLzaG6PmsCaebF1ow0zxFdW7ouCg2jLkbpqXX3D+JZuCJ+nsgP64IFQDtBoKYLQqNXELzrREb8bnGCzDl/NVsCyRrEk4vT0kaMyNLiIQMXxfU61mhsQJxI/Pi7zTmDPlsCiQjpS1VDFf8Xk4mY+zQCI60fa2dYIxKVe+0T6gtYFKI0anrR9WpD9NyKWhOoA3iBaQgMKbBQvPw0tG2qBcUt8eLBudw7habIRX9KJm4DaWZDIEVe6cvG4lALislEkSi3BIioLiUjz0Gc4hqH1BiQBosCcdPvoLzWHPqXt5JASsilUYksSeoCSo1k6ZmoTVET4Xofu1jwDMQ0KYVcVAeZIPymCuSNIRCILZvxwo2lLkpRWy4SQkcR9jcJVz0TEjK4EAqRXouqiB5xlxCGlSRNJFX5hGeTrJxiu5WdJZBC6yieaxcDSW6n1AJLMhJN0ua5WCnCdXQYJIAsuEB+NkeYuAnnHPt1dopAcdCxIAxeU7jfdGGlcFEk6dAjTRdRWtqbs+4FYUhKYmnQX3OumO8cgVKQK6llhoe++HxqeFpha2wQgZQ3QrPkdM0QhEFnYQmJFLdZCO8EgXKkQtgyyGzCgG5Bv+BemjQLIh1Xxz24RlwebpJCKDoJPbVumcIE2kIQOVHi2MQipQlkmECGYQIZJpBhAhkmkGGYQIYJZJhAhglkGCaQYQIZJpBhAhkmkGGYQIYJZJhAhglkGCaQYQIZJpBhAhmGCWSYQIYJZJhAhmECGSaQYQIZm47/ALGf7B6CwrfDAAAAAElFTkSuQmCC'
p31
sS'version'
p32
VV6.0\u02b2
p33
sS'uni'
p34
V\U0001f349
p35
sS'desc'
p36
V\U0001f349 A piece of watermelon, showing the red/pink flesh, seeds, and green rind on the outside. 
p37
sS'browser'
p38
V\U0001f349
p39
sS'annotations'
p40
(lp41
Vfood
p42
aVfruit
p43
aVnature
p44
aVobject
p45
aVplant
p46
aVwatermelon
p47
asS'wind'
p48
S'data:image/png;base64,iVBORw0KGgoAAAANSUhEUgAAAEgAAABICAYAAABV7bNHAAAAAXNSR0IArs4c6QAAAARnQU1BAACxjwv8YQUAAAadSURBVHhe7dhrbBRVFADgmW3Lbtvti0JLSxGoNi0voYBhKySC0orwg/7wUYyJpCGGH0oDGjBKBGKjSCJNESISICQqFm1iiQGR1kcE2S0UWoSWorJFW4ttqX1toc+93nN7Ztjd3t2Z7bbIj/slmzn3zu7OnbN3ztxZSRAEQRAEQRAEQRAEQRAEQRAEQRAEQRAE4f8k49YrS6nFRjeLhlpD8lLy2nKm5sSQu/3t8sZT0dj9QCIFK9rl0JDooj+L2gp/L4zBbkW5LdNmwZjLgFu/OAYdTgwffKZgE0YjMqIE3XTc7GdBgAe/H2RZZmOs667rYx1+0k4QkS5jpOoe7GYzCA5OJpm7WKcPbb2Ozu8aKqt2VBRZ4fVC6Qfl0Ie7NcF74TPK54tunLlws6v5Fu72isyNv42h1D3QTTC8h3NunrRr0GnLh/Rdm7DJxJviG0qWlCRBTMpuNMrFNYlsB8eGs59YP6o+kYFNlTV7V40lPm0mNn2yNdXWZJRsHvbe55MXlx/L3OJWH12RDYtuyTPjEiDOPpvd0NTTxMasItJuW5btdWxxac4gIpE/MFS5HWheQghGw+yrPmHjJQekRie5D9aHiOCwUAzdfGn/ZRHMJmwOlxg5DiP3MSPeuXnSTFB5VvnHGLo5aD/YyoIYE3fw4MC1015rVIzRHImhplmxD03HcJj3K4u9/kBSlDEcNupYPXg7N1e6ijTN9PcYqs63nu+BrRxkMJPc+Y2s00NaVGIvhm4ejZ1ehaFuk8PG12Loxtsx2OWFBVoZqyveOfHoSpBM5HMYqq50XJlc56gbOvCcuDC29fDO/DVxGLrZZVmL0T1QiJM+XVs7tzivilfADy3LG3aSwNsxpNQJEbCBMcJYWZ8L3jnx6EuQUz5KNx1DrXsO2Q+1wxYWYrxZBJcGFONliXMqoA0z59SqHVVPJ6XPY29wsfSbt+1/3/k37dfWunnrf953DbtV8Bn4rDL74Dvhu3mXH5s9dGZDrIzRQweekybNu5iC3s1K6LtXY5ORJblrd/pu2RJrMRNCeqQdP/XL/zjYL+cPuHVvv3jUrZhvX/CiddvCHG6B94UtO7YtDYHLy9Zqc2yq3ETo5eQ2JjrWz2n9eQmbPumaQYws7cVIBQfe89ueoVkE1/sbjw+wHX6Ay+ndS0Wp2FRBnz9rJdWWJYNK7YGxeSYH0P1HMNSkO0H0maUMMo9NFV2hJhVeL2yBWDYbY8jOTO4dw5vr7Q0Ng8Q5Hpsq6IN92NQFjg2XO8QwJhgb2+GKSAfgXLClSf8MogxOQz7dDKtFx+qPmU42nmT9crQpluQ/xRKmh7c1DpgUNt7z4dIrlhx6bIhhLDAmtsMd1J4CjHUJwq0uDZ813E56OQkeMzKHelTGMy1n+hNMCT0pESkmOSwknCyZ2iqX2bl3N1dxYVEx19r+Kq9uq3f7tV+btcq6JuWJGdj0yTM5+TX5Bt6lRcvENrpyPo4tXXQXaVe8gg2gaG+dudW5MnFlFLRJ70CndPhSn3y5aQJ7gw+wIv7afo494+XOyDLy7nSeyJPJTdLq1FDZGMwWnb6S409hdjWiBAGapKv007OwqYIk5Sbn9q1LXsd+UUAaO5ulAxdDR3KH42F3qlcW3JUTI9U1EKyWD9sPj+POHCJV05kzG1t+GXGCMk5lpBEDKeYlCdBbf2NBeoH6EMuWAbe6OqXjtQY9M4qHPZ2vTnNKCRGRyp0KbKzc2Ehv6fwHZpocWneeta6wclfiWkacIKCVJKPB2LL+4fXB8O8jdjHE0dsmtdzplS40yvIP9njs5mKX0WOJRJoYZoS7JHYz8C/h/hv7B3qdvROxy12AyQEBJQhoJQnA3yM5U3LCPROlIINOh9Q36L6GGhcUrKyGPUFiiuqLunlP6KpRSA4IOEEKb4XbFcyo9Jj0/sz4zHClkOsFBbi0qbS7sq0yxOuMURDpOK052dgKyKglCFjKLJvp4N6ioebJQzGPM8V1zI6cHQztaeZpIeYgM1uXwX/eyt+6VzuvDjT3NEdxi+9wHfSL37Mtt+3CdsBGNUEAL7mdWrNp1NFZQy+pNwO9pDyNeoIUllLLcjroV8c8UTQx9Bh7/Xl88MeYJUiBiXqOHukZ2pwy1Buwevqd39Lv/GqsEqMY8wS5yjidsYbWkoX0qItpM42+9BbqDvq5CpnIl2ntqrBmWb/A/jF3XxPkCeqV0+BcBjE98UfoRrmtO2hC2B/q9AH5x9GuK4IgCIIgCIIgCIIgCILAJ0n/ARwosmp549v8AAAAAElFTkSuQmCC'
p49
sS'andr'
p50
S'data:image/png;base64,iVBORw0KGgoAAAANSUhEUgAAAEgAAABECAMAAAAV8YMOAAAABGdBTUEAALGPC/xhBQAAAAFzUkdCAK7OHOkAAAMAUExURUxpcXV/P+1xNnV/P3N9PHV/P3V/P6HKsHyGSXV/P3V/P3V/P3V/P3V/P3V/P3V/P3V/P3V/P3V/P3V/P3V/P3V/P3V/P3V/P+t3PuWbcexyOHV/P3V/P3V/P3V/P3V/P3V/P3V/P3V/P3V/P3V/P3V/P+SXbOCngOp5QueEUet4QOt1POWOX+ORYc22lXV/P3V/P3V/P3V/P+x0O3V/P3V/PnV/P3V/P3V/P3V/P+eJV9+abuiIVup7ReeLW+aNXep+SeiDTuh+SeOognV/P3V/P3V/P+Kvi+t9SHV/P3V/P3V/P/n693V/P3V/P3V/P+t8RuiEUeqCT+mEUuqCT+l8Rt+VZ+WJWOSATMXJru/y656lePO6nuHj1XyFSOnq4HV/P+t9SOeOYOigd+/ZyOfp34GKT/n597m+nu1sMP///3V/P+1rL3R+P+1rLu1qLXR+PXR+Pu1sL3aAP3N9PO1tMf///r/SRv/9/HiDP3yHQO1uMneBQe1wNfe5nezt5HqFP3eBP+5zOb7QRu52Pe1vNPnKtPCCT/P07vz8+pObaYCMQH2GSe9+SPKUafCGVO98Rv7+/YyVX3+JQP728oKLUJupQ5+uQ4CKTvOedv/7+Z6leePl1/749fn69+96RLXGRcrOtvCATObo3O5xN5OhQvawj/7y7aSzQ/a1l/GPYZCYZbnLRv3u5oeTQZelQoiRWq/ARY+cQeHj1fzm3O53QPnRvvnNuPrVxPGKWv3v6Jeebfzl2a60jrLDRfe8obK3lHmDRIiVQbvORu95Qqa1RNbZxoSQQPOZb/jEq/fBp4uYQfSifPjHsPrTwfvczf3r4/3x65qhcr3Co6y8RMHGqPve0Pvf0o6WYrjJRfzj2J6sQ3qERvX28fazk/zo38/SvNzfz9LVwLi+nerr4YuTXaWsgoWOVfvh1aqwiIGNQNrdzPWriPKRY8LGqve+o/rYx/j59aOpfrq/n/Hy67e8m/rZyqm5RPSlgPWsi4CKSN3fz8bKsISNVMPHq/WridiLmhQAAABpdFJOUwDK+xMGKJcBA/7pdkD792XgDbqC2vLds98b9C0JOBdFMltvoXruKg7Mc9ToPTQH2Iodzu0hwCOlm49hF2i7T0imjaASToCDCaxUYNb4O+SqwX6YfZW3Il+GEqtT7lDtvMfEVD6RJaXdaPZRIv0AAAasSURBVFjD7ZdnQFNXFMe1BJKAgKJAKw4cdLhHrVpba61St9170N3c81YGgYQwYtiygoAMFUWGgKCgoNYFKoog7glqXXWPoli72/teEkzgAVH7zZ5vL8n95Zz/We926vS/PV4msOn1H1CE33z/7Zi5M7o9Iub1r77+btayVKnTOJtHwbz25bTRBfVIf0gDjt6Ch8Y89dIXPSUyujoJRUYzYN/7IaV5+s1BT0hYC1yH0LJKALuHcWnYkLeeDJMYjK5OR02FDPR44cGlmThttK/EZETZUaS/A+DY74GleaOnr0xy34h8JVqTKoVxogeS5m0sjTkGx1aQhBozFNC5j/VVM+SdZmnMPNpxDKEjAK5drMQ8M3HS6ACZpLXJahAX20CrMBNefLmnr4TX6LR0dAqXkrvACmmee/YJSVtGxx9A+gpFxwUgGvoqjzRmIoX+gmtSA05925fmlUmDA1qfpsKyCcL0sBuLlCyF/u1VDSsNj8LZ1/eu3xpv/IL+xx+dOq6AsW1VkvA9Vhq+RFERRQiho1kGn+i4xSjqtgJ8+KfSsPakya5TIpReTRuxeUh/lwE3W15pJg/mrRqjwAk1RUnlCQaPqMx6rLYUvFqX5IT33+WVxowUGLEhtDltPyO08yQ4TueTpiOTUbQpa7LAcJ60iYZ+MCiwA4gvRVg8B+D8B69moLvQbGRN5qsai6Dm5YenzbMg0UEINSUyYGfK/4effvRJGNHqJE1ZpD4rDy2usSCxoFOFChNI8PHns5R5cVSrDrgRb2hXQ0AEm6P0NKoFKCpaAXO5thU5f3YGV9m+TEsSkRm+eN8OFhGQYHDDN9cfoXwLx2sMIHdu5dq6MYUXEPIPstBIFnZLj4oi2MpLW3uLIxGhW4s23TD7Oy5rjRg0gPPIWQyazVEIWQZHxeJmqE+guEGYFEcbaihzh2/L9m9KNGokGg+gSd7JtlAsZQlSbsXH6A1JOCBDT8gIi8Co2P2G9I9nQYIBAMAcjERIvzXMrKjDci/vZluBAwVRvJOtYLGhIB3YyHq5YxBo7ugRSkqjzUXKDDQos94UWivQdX+uRcTcahOMBZDLpcnXcHBr480PEAb/iIjcNP5pEIC1RjcZcOVGpMgOyPnFJLOxCX+6PoEnBoogeDlU1o84+1dMW5sF7apaQMLmRkwKL6Mk1hq9Jx2hyOMMuPRq9mjpQpW08iaWyb+ujLCSQ8wrx/+8M0YKU4X3QStrSWnqOfyF/7pYK32i43A69RUmidg6wiC/VSQwq89iknJ9PGWdQ/gFCQX/xICP8fVvIAdKIQEUhcvxd6i+OsCK8Kg9uIj0h+QgNq1sByDVJbqS+ZjERHOkvNOhdIeceJwydAE71NXDCOonBtU9na5BzlZ49CKW5L+3wLf9+OhYPK5RVAWAeIRpqnXxAjJFpytRkywp8ZqSRR0IyiLaQdFZ5ezPzuGUzWzeRX1G4UJaqtvCgYC5tCyKJaG1ubEEzb9QKEnBPvYny/GUdXK+P/W9cY8s1K3chkFyLUhjKpo4kn5Tfnw2TclabREq4TS7b1HwRinAWLMt69kVyKtbdIdxdctzikGqOfiHnkMpfwjfk5VN04Sx6/AYoejAiN8u+3OcDByAj/mSFXmLAUpX6nApkau2lGpJJvluMDJY+v51uXFZodls1/qGzSvb8Gvdfg6DFm3EnOGWO3akD4B21fYGHJt6xYkUNSmFxCPBSiMLJRUdK98dhK1u76YDBgpaciYRx9V1SotN3dceQJVSpQIgQ1boDtdqgdEknl+zBLVhyuVXYhiAmX1bvs+I+rtiUk6OFpNKt+tOLFTj9ElTM/5cHsXHCT60Wor9GcNzDRF0d8LRFS/AoG0rdboTu9hSkCrkf2X8veaUJaVx0fnjGuyOq91Ivpeibg5e+KgqRAU4Nt32HBakkpNSBaRu3LxsTXBkox7pGyMvnD1y+xKLEXfu18b1UTDDDZ+VY5Qak7YU44ddKbVqwCxGc3J1dMbFKxczDhYmx7BBQVfvtt9khb3dHTmU6mqVzq8EF5Uq5UTJwtL5KiBZmlyeGhOjYYtf7DbCo937h03/4WIWJV+Qs+LwNrlWrqry89u+9F5K7Xy1WvV7ZaWcdcZp1FSPjq4xQo8RPVgUSWrVIWp1iHxbQ0NDyqrSYrVWC5yJ7d2dRwqtuDCIbB3GuEKzkUYzPDnauzh4Wn+ttuni7TLHEVqYo73PAGfPB72cd/OYMnCAS+cebvZeXnPcZnZ2Gecw3bOP6CFvwYI+tra9Z8/2tH3eRiTs9DjbvxKK5Ac3VwigAAAAAElFTkSuQmCC'
p51
sb.