ccopy_reg
_reconstructor
p0
(cemoji
Emoji
p1
c__builtin__
object
p2
Ntp3
Rp4
(dp5
S'emojipedia_url'
p6
Vhttp://emojipedia.org/pot-of-food/
p7
sS'index'
p8
V348
p9
sS'code'
p10
VU+1F372
p11
sS'apple'
p12
S'data:image/png;base64,iVBORw0KGgoAAAANSUhEUgAAAEAAAABACAMAAACdt4HsAAAC/VBMVEUAAABBQUE2NjYCAgIpKSkrKysyMjIAAAAAAABZWVk2NjYAAAA0NDQ2NjYAAAA3Nzc0NDQUFBQAAACQkJACAgI0NDQ2NjY1NTUBAQEAAAA1NTUAAAABAQGBgYE2NjYAAAACAgJ6enoDAwMBAQFtbW2AgIB+fn5ra2t6enpxcXFPT08AAABeXl59fX1mZmZ1dXWHh4d4eHiGhoZ8fHx9fX18fHx6enpDQ0NBQUFiYmJUVFRPT09LS0suLi5JSUkAAABWVlaIiIhiYmJ/f3+GhoZOTk5VVVVdXV1BQUF9fX18fHyKiopXV1dnZmb////h4eHi4uLo6Ojf39+tra3+/v6xsbGnp6jj4+PY2NjCwsLa2dmenZ3AwMDU1NRsbGyqqqrc29u0tLTt7OygoKDIyMjPz8+4uLj08/Obm5vm5ubQ0NCjo6PhwJbh2cPFxcXHx8fjxZ2WlpbLy8u9vb3W1tbd3d3w8PBwb2/c1rz4+Pj8+/u2tbbU0Lbm4Mnk5OS7u7vS0tKZmJimpqba2troyqHAvr0DkkwBhkN2dHTNyrbZt4vNxqrNzc1aWldiX13Ev7LFn2PVu5PSrnyvkmDYs4Px6dK0q45TUUm3sa7UzsF5eHjJwLy+uLOugjhdTCy/pYDOp2/Tyq3579nq5NC2nG7p6MvAtpa1splvWj6PeV13YED889rPxb6akYTLvqtkQxGXeU16WzE1Vz+mpYzLsIbCvKhMmWZcRSKDbE1+dWfNvZ27uqNOX1GKgoK/l1NxZVybjW/guYq3taS8sZA/b090lnSvpoaloX8EfD8afEjz89Wso5nY1NDRtI/Xyreyq5+LhHTbvZPLso2nei+snG9YaVuriEtvdlKdbSIJTCfLq3mNklwlWDkQcDtyhW4WjU+9z67o5OGgl4qhiGE6TT3dy6xgc2KQq4+cupksik1Ue1e7mVx4p306klf/+dyDlXc0bT2NZS1lfWaeuZmkxqNLkVSMmIKNjY2KioqJiIiSkpKHh4d+fX2MjIyEhITh7AorAAAATXRSTlMACBEIBAUKAQIDFhIYDQskEwYO/iUdGyEsHCcXUf4tdjX7Rz5qVnmluvN7aMSlikPRKqnQ6BKPhFXp3r3Od5hcXfMg2uBB+veysDHm7AmvPyIAAAiFSURBVHhezJRPb+MgEMULC8yAjAyywJKlRlqprXqJoqpp7lV66X7/7+L8rXbAoT0tXHdO7yl+Pw/jIXf/dwHVjymunYGiEbEYSAbbBECtbyEALYTWN4NkhMZWHrWQUiBkLbz3UpNeDPNetACgJWMplLVnSnlBupg2ACVllNeQtbJWsRtAsORkC6A9hW5vRa84p8wCIBo5r1sdeFtCWbuSAaG4c1x5bAFUCikNC8AYvrQNmlmXnEeoAUAqCjnOBCy6y5mEXpyjjqA+BOu6lJIIpE2MkTK4NORiiIazKgEE4yaGbiEw3oUxmDwHctaEcaSfyNUIysVxjPkx0qGfKJMnSbzYT33k9UmCtN1IISuBaNaM06pPJrPJTaMhdq00PZbew/LBeZhWq9ExTGyW3NRZUZ0jUt8FQLSOAFOn9DegbwF0Ong6N2Sa6RPA6oJuHgGkNTGkIf4AeqMwL4lJ6MYQMW8Ctx4WWuxXU8ztoE/o+mcsd6gsPaYv1weXMoC3bRZQB8hfSnmJ30sRosu3C8pVrecBUAj2snnYrZ9f99vtb6rtdv/6vN49bF5s+y/l7m3z9PnxfjwcDsfz+fhFdT5eD9d5ng/H9/3n0+atmn5cf8zz+ev+crnc5+h1HobT6TQMw5xqmK8f68d/Mf7s/jZe3jFtpGkYZwVRTkLKiTh/LAroEpJN34gl0qVXaZPo9myKsQ0YXHCwDfYYG2zcK+zaYGoJS8sCoRMgyVI2lVRKSAjp2ZBetqXtdRt7sO6dGXsduDvpHvmP0Xie3/e872t/n+YLlyO81kZmhXucJJdZKGTyeCKLxUKn0y0WEU8oczmcTofL9cUf//Rf7J99SpI5a5U21IOemTaDVySqrq8vqevu7q6r+7KaSqXRqHQRU+ZwO11m0qefzfWv2C10KIvOnLl798cndy8z2dXdJfkHQYcPHz5y5PDB6729vSV1RhqVLWK6pqdlwt0rZtk/ipIxUXLRq29Bjx5fGRtE3rf+HTM316ia9TUDvSq9Hrneex2p00IOpsvj4MmiPvL7g6KEdNvXrx49+vbM5SvWr0CDz97+/OwfP//0k12nq6lpa1MhiF7VpjtypLlbS2OLhM4ZtjAqyOf/JJLHnSkuKj537sfLV8bGrFbrV1br06dP3w0OtyN6RGWvGh1ps9vb+vJLVK2tSM2XVAtvhsnlRX7iLX9GxJfYbCja87fXw8PDv/765DXEwPTL6A+IvllvrzrdrtMjTaeb8i8O5OtUSE21henK5ItmVuDru3n8QpOy1lNffTF/ckCnuvivQesvdx5arWOPH78etatUVX2X7ABqVl2y6xDVD032JqSa55IX8nluLEOkmZsVk3rWVqLTtULnW5+9HXz3z6kLlfcfPHjwl/sPz49Utevaq9qaEORU38gpcUF5+amq/Pqz5tSYLK45EgBuuoSTqua8qHgzVSDOy5OWlYkryy/cvNDQ8+RhpVhc0DKqGm/VtY9culQ1MCGGG413TudPFnPUqRwJ3Q0AEq3QINDEXzv+1wogSPPy8sRTlWKpuEzX31hZUFBQ2dI3/v4gUnK66pRUmicVV5aev9jelxGvERgKaSQMoM1IF2golOfnjx9r6S+TSqX9jQXw5M2Gocap8vLyxtI3+vFxfVOZWAq62d9y7P6Nq7EUikaQnqHFABtoaYwcTTyFQqk533XiZUtDQ0UpJJCK7x0aKgUNDR3qz79VCmnKJm413Dl2/Jsb1+DheE0OI422AQDrSYnQA008hoib7OzqOg5JGm5NTFR8f/sQ6Pbt7+9VwKei4mXniY6OzqsKzB6vgR4kk9YDYM9qWbbCSwDw8/qeE10dXSc6O48dPXr0u+++AZ3rwK86Tr6oh+y/+Y2y1XsCQMtRGGSSITZWTfFKkFRXfbXnxrmvcRUXKW0neyZLrgl83+ekxzKSsrhCdDmxja1EZWytkWs0MbBm+qVRqwWCHIFaPfuuQcKm8418qix8pXd/nLcSJTFF1MwMkzwuFiZK+Z+KFxjSjFSLiGmh81zoynkBPi1ftVuolRSmJORyFNHpqQK1RjPXqhakRssPZGu5NOzfSHKGr8Ly+7VKRkvOSkngKOLioqMZBkNsKigHKsjJSY01xHHkGVmSxOTsbCOfCwCz27YuYLbWO+nGAyYcEMMwpGMyGGKi4+IUCk6SPCUjrTDrABBwAMQPZ+2YA9iFQg0Zcj8AJzBwBCdBbsrwA2BLciwt3jUHsGc1iZpcmJL7/wAsQrdy7+8D5mhdOI/vq8FgMHj9ceDHSjBBCZk4ADZFkQslbw2Yq11KEhsiJCnwDAxgMLz+XF8AibcC4bStaNN/nInz1qFCmiRNnsuBOTBwEfk5ufIPK6CxeSSUvC1k/vy5h+rnZA+TC4QkfJIxMWAn/AkwBG8FWAARjGDv5/BO4EfMBzu8EKxRupm0xCyiDyAiP+b3BcDXd4UrizYGwjkNCC8D9weFBK5necxsPo7gKBQKPH5SAlZAGuHXwgAcKKtox4LAwJDf4QTcTgQIXLBwDWupg8nmJ2dmmUwpcrk8JcVkwlYHe3I2ll7o8tSS924MXgiEIMjgB4AfAMGb1ilRh1BE1RqTEyW4IDjx84PDRObw1LKKt20K9QL8bQBAEA5YvGjNZuVSj0PGFNHZbCouNhs72s2uGQ9qYxVv2fjxotDFAAgJwgkf9BAHhC5asmbrZmUtGu52Oh0OxwzIOe32oEttSnLxn/dvX4b5gwkA4fcDvISPl0Rs37F1y2Yyi6VkESKT9+3bsm3/9rBlS3x+fAyzBklkWBgciiGWRYSF7Vy79g8+rV27c2dYBGb/YP1Zv4QALARRBpYCGACJAAyhCDAT7sULMXuIv4H+DEQKYBAQSAIcr+AyFKJD9t/C+wFzGVgQrB+gYJ/gegHuxcyzF/831bLBqTXwNoAAAAAASUVORK5CYII='
p13
sS'twit'
p14
S'data:image/png;base64,iVBORw0KGgoAAAANSUhEUgAAAEgAAABICAMAAABiM0N1AAACHFBMVEUAAAApLzNmdX8pLzNmdX8pLzNmdX9mdX9mdX8pLzMpLzMpLzMpLzNmdX9mdX8pLzMpLzNmdX9mdX8pLzMpLzM4QUYpLzNPW2NmdX9ebHYpLzNmdX9mdX9mdX9mdX9mdX8pLzMpLzMpLzNhb3lVYWlXZGy8pmP/35XZnoI4QUbZtlqMi3O8g1/1x1DivFbswVP/6LZicXrgp3j/2HtIUll5gHlekz0tMzj/13R2rlj/0Fr/4ZxqhHVASVBebHZETlTCtkZwenyyeWL/0WFbaHHGjHLPsV2flmzirVVvlGrGq2BneXznslRPW2NckTvBo3cxOD2oqGx0p123fmZtkG2pm2lmdX9sjG+DhXazoWZyrFB1qlrboX//46L9yVBqokhejEjKkHbFjl2+hWzWvUn1wlDZo1jUnVnBh266pHRwl2fqsmtwmD3Sl3zst1KFoEB1sFPPmFr/zE23fmFjmULCnHWur0T/5q9mlTzxu2FpgHd9sVhunknzvl72wVphg11qoExzo2DDiXCJrl2WrGOQrWCcq2Zon0ZvqE1mnUXgwUqqvFJrpErUmX7uyU5flT7JpXZxm2XjqnWPo0HNknhriHLBiGPRmlyrrEfMukf4w1e8gmq5gGhkkj/6x05ofXqDsFuiqWmup27uuGS0pnFld3s0PEHAiV7nr27Kk1vdqFbXnIClplB3slVtpkukpWLHonpLVl50rlIpLzOIZav+AAAAJXRSTlMAAABAv2BAgM8Q3+8wECAgv48wz58ArwCvAIDfUJ/vcHBQj7/fn1n09AAAA/1JREFUeNrt1edXFFcYwOG9bpldli2w9ICgycAuK+yiFCMtrIhSdgCBq8TejZpEr0Ys6dH0aHrvvW3a/IO5ZWbfqR4cPnkOvw+w+4Hn3PedYca33nrrrbe64qFQqFVqpj83mPJtcCvULEkNgUAgjGlh+qFBkloewoY2NrTG7wnFQlKA/cVH5156tMTauziNXQqE3KBqKYxZ35wTiOjFF7BbLTEHKC7pZ19kDHREOfqTm9Rgg0ItGE8PLU5O7ht6r2TuNUU5it0KmaF4AON9e0vOXVEU5c/O5aXsmAMkmSAJ4xvAWLqo0J4mrNzEUp914QYoFqbHgbVYe1thEb1c+36XE1VvxHio5NrFu8y5Rgx17waomUO6M33AHTqilEeDupZ1qFpAYi486e48rvAeI5ZyWQGFYxpUhWkH3J1+7lwghOzsyOcHt+0oU+1CqhJQHNNulGjffvf97I/zt25aHd5J6qzkeYfKVre4HeIU4gfiq745m9Z64jY4f/XDYB35coM7jVIVh8KY9nep9E8amn1FMP9dUcAheUMrmjTFt8QhTMuS0qtpU/OUef0NjbnwJtEgqIOI+MbL0AR5ax4QMd+z/Rpz7SoRdZgkIprQIT+mEXLn3bSlZ77izAdw2cWyARJhWgT5UEJA5HzaJn169bOThAbSoH000qePNiKg62lbWw8Tazu2HSovG0400tjoa2wsCujwQQcJBKM1SM9DHYCK9fW++voMXzYhPwAA0vPEPVh2prbWV1uryuzy034FAHr/OTcBLr9cgeiy0UAPNacI7ZOXn3SgDp7/nOhtX+H72Q7OFDtQkkOPYNpYN6GdLiycPfaOw4TXiYg6XCLE8M/Wq9YwqBpjkJ76pVAoLJzY9aH5aH8c+3jGAoFTVNUmBlVhrXbC2rOlIFr44uwu0Ykv2fdLXxtHg8eIPKCqmxgUwHrZHFAOnXF8sBVVWkJA0HIX4QNeuuwAHXd61I4yJ4p0CNrdTXgzZ6znurzH/vAf/1ll1XGoFZvb354jvFMzp4/r2pbffj9FrK+jnmFVFOQQCmNrfUsTArMHL8iR3gFVKyGg2MPYobHs0nJnZ5dhJ53GV7Y8rJZLIQEhf0bG99X46JxqqE2HUFSdGy4CNiL/Wxx3RYrDYiQoUoZqVNFchqZqZUZ7ZbkHhB5Z7h3NqPZqUBmqVNdSJUAotQYniQxQcG0HAghVeHY2IxPk9+pEIwDx6jxCfmSBIlFPThMyQt6Hq0FmyOuVS0WMkHcpyR2AQPI0F0CQ/z42Hg0iGwRF6lY9ViVygiD/qu7xCjgOQNaCSQ8MQMYSbal7KJthKFcIimxqSqbsSF0bKKuAoISfFWwKsl8JxPIA2XrAoP8BDoaQK9iKE7IAAAAASUVORK5CYII='
p15
sS'gmail'
p16
S'data:image/png;base64,R0lGODlhDwAPALMPAN1UPejl0d+CPuWlbSR7Cu/Gntq0nTEjF4pXL6C2jIWEW2AvHf+ZM////wAAAP///yH/C05FVFNDQVBFMi4wAwEAAAAh+QQFMgAPACwAAAAADwAPAAAEe5BJVlorM7MQ2LBGFjRDdTFGMUxmYIynNwiMdQ1cYwDCmBCJmEwgMFgCBIJixUAAnoBP45dENJ1QniIZ+CEOCYMBsSgfDsbpeaFQLAwDRKrAURwQDsVYMFgMxgkKDgt4DgcLZ4lnDg4IAgeMkZCRhjSPlJgHNBNfmVYSEQAh+QQFMgAPACwAAAAADwALAAAETPDJ0V5h8oXWxmOMUX3S1gRaMAwbaZ0Gw13rIwjTABaXADwIgvChAGUAP0sgQZAgMBmcYJSp2jKGpWRo7SoSiW61AAw/HOIJkXB4RAAAIfkEBTIADwAsAAAAAA8ACgAABDDwhdYGYy8/NuygTXBpTPE0m9QUY8ZJW2dh2ka3da5vwEHsNUCP8ANmhAej0rjYRQAAOw=='
p17
sS'related_to'
p18
(lp19
V\U0001f35c Steaming Bowl
p20
aV\U0001f35a Cooked Rice
p21
aV\U0001f362 Oden
p22
aV\U0001f374 Fork And Knife
p23
asS'name'
p24
Vpot of food
p25
sS'known_as'
p26
(lp27
V\U0001f372 Bowl Of Food Emoji
p28
asS'default'
p29
Vemoji
p30
sS'bw'
p31
S'data:image/png;base64,iVBORw0KGgoAAAANSUhEUgAAAJAAAACQCAYAAADnRuK4AAAUFklEQVR42u2dH/B11RfGXwiCIAiCIAiCIAiCIAiCIAiCIAiCIAiCdyYIgiAIgiAIgiAIgiAIgiAIgiAIgiAIguA0nzvz/OaZ9Vt7n33uvefec+53rZk93/e999zzZ+9nr/WsP3ufe1NJyQlyr7qgpABUUgAqKQCVFIBKSgpAJQWgkgJQSQGopKQAVFIAKikAlRSASkoKQCUFoJICUEkBqKSkAFRSACopAJUUgEoKQCUlBaCSAtBG5I8//ph+/PHH6bvvvpt++umn6ffff69OucsA+vvvv6dffvll+uKLL6YPP/xweuedd6bXX399evXVV6fnn39+euKJJ6bHH398euCBB6Z79+5122OPPXY49rnnnpteeumlw3nefPPN6b333ps+//zz6eeff57+/fffAtBegfLDDz8cgPL+++9Pr7zyyvTMM89MDz744Cwwzt0efvjhAzgBGOD69ddfC0BbEUzKt99+O3300UfTW2+9Nb344ovDGuRajXvjPj/77LPpr7/+KgBdWjBBAObJJ5/cLEiWaCfM3vfff18AWlt+++23A99YazDhNJg5tAPmZqS98MILh3sSdwIQx14fMwdZLwCtIB9//PH0yCOPnDzbGfQPPvjgYD6++eabA9HF0zq3wHO+/PLL6Y033jiA8qGHHloEJPhbAegMwoykQ1udzcA8++yz02uvvTa9++6706effnoYtB7YMH2YjZ5LjvcEwOBV0jb3798/8K1jhPPxLJjeUS2KZ0cIoQB0JM/pAQfQ4Gm514VLvoQXQWYBkhPZf/755+C19TTGV199dXRM6c8///wf+QeQjz766E0AaTMAopMBwpzKx6RJPvnkkwN/0XdPP/30QSNhpjItw2e49ToejaCBhf+4psLcoTkADQMJ6Lg3+NgS7YP7rt9i2lw4NxxqDuz0CwAvADU6mRk5B5w4GxkYJ8Fff/318DWJESkuhLZDG4krtcgs1+cYBjMzt9wPTRyGAZfJggsBBMCSPT8TASLee37OsUWP7aoAwvz4zM9mHxoldhzRXsV7AJ+btFGB53hwERCSsuiBjuMiCAC1g59zommk6eBSDqbWvQKkORMqAG8pyn01AGE6mFWtjoK8ZpFbH3g6/BQBfLrenAbDdOlYmRMAJ9LO/QKW+AwabPE6AOAE/e233z5oMAELXsZ99SLnft47CSAGo2X7GZDWYAIoxVvo5HNEs6XJ5siqA4j7YAD1DC+//PIBVDTdHzk2juEzPMS5UASAwZRq0vC35xigmbcAoosDCHPU6kxmFjMQcolrTrCOmYuZg9Q+9dRTh+OYtecSiDfnbLnp4iiYJIEDjQFRl0lzgisuAxi4Tw8wYp54Jg9IAgT3yAA04FNCVvwsa9zTtcn1RQGE2Wq5r8xSOozOm3NvcfXPJWgPzgmvcjIM50GI3/A9wEBjAQq+E1Dctef+4+QAEAAFwLX4DyDge0IUzsnk8fFdy6Rx/9fURBcFkDyZGBDUINDRHpVl8AAdWkscAi10TtE1M63IdyK1ukdAoHtBM7qgJWOKBGAujbzrmjyrwgxwv1aiOPMMbw5A7naroY3k+YjQ8hkmI84qtIM0wRoAckDDPXywmOUu3B8aQZqQGJa8SUwWEXEAd6xm8Nwfk07nkdmMLQsP3BSA6OCoghkggUcuMp+1Yh3MQM16CC+dfGoui4GRKeLaMlsRWJHUA2YGWIMqswx4zmVe4YLSiq5h8DwzENE/NwsgZmR8YHlRgEADgAmIvABXH1PQUt+QYNT+McVa8C6dJ5oaztfiXAAIvuImmX9DfGNahmO98dmoZuKeBG73EgF0zP7Th2skh68OIDosDr4TP6llOkBuLyWnvchsq3SC36A5COTNFWw54QVImYsv9zoOuAZWuTmAwWd4VJyTZ+ndP+fkdyNaQ04FvCtq9RgKiZzsJgAUvSrA5HkqBxA8KZJZ+AguPbwDkydgqOid77LBmiPbpBw4Drc60wiAsDUomBSf+aeUywKkXgSc54xE3rlYL1e4ewAxwFH7ELtwicRQdcSYBGb1aJwD7kTMhN/S3BxmIo8JAEYzQ1MqItMScv0jEEZqeVQugqZ0TZppwRgxR+M42OmbOOEA9CVjQ6sCKIb2Y8QX86ZoK0BjMI+tFeZaS6LTo7U5mRB0VD0S1zyWOBMSQAPq+VsRePpEYItORkaq0Uy7B5CH9T2240SQ2UPHMfhLyiQyUcBvpH4mu7dW04xHu8TZfw7hnPL4MIUtL1QR6ThJAKGXtFxaC60GILnmmauJzRdvoGN6Al+C49B6mXd5TXPaAE+pl8TNykh0PAO9lkgjAobsGZlw4oRRrsmFVgOQF27pwTWDNSD8jSaLmS4OI68M0yaNQQe3XHZ+1yvtYHafuj4MTbdWrEyaBI2caU2R6Vgs50lh10LHlLlsBkBKfKpJ04i8Yr4UpnfBFfaKQaligCaPDjB6+QM8QIv3eqq7ld2WZsw4m4i9kq5ZzOhcAnkXEGJMyT3ajON4Hu2SWmgVADGIcUboYaSqGeye+VNwEZIpUHiyleBk9GTmyjxinkr/Fv9qEWvMp8iufovXtAbPEBAycylakIUWPDbl97k2F7q31kyKD4P5QGtgQmhzUVMGVVrMXX9+N0eA6eCMlLeCe0qLjC4fItDJBOlNglOdAfooamj4nb6LwOD/WaXDWtpyVQBlriXgAUTSHqOaTOkCyigwNdHj6C378c7z6sHY0DytUlKuh1l108rz8RtAlJmaU8QL14iRRY9NHC6LOXmAM1KHXQEoRp+VLZZmWjJzW0VV0eZzDMcSo3FNw8ATwR3RLsxgPy56ROJBXFvZ95hiOKcZw8loccuM32SaPzvH5gEUTYVM0DEAQms5+WWAIeJ0oD6LXguD3iLEvcZ5PcGKqXQv0a8ZzfM5BRPZOrcmpyYMxwJm1U/FiZKZu80DqBUZRT3zgCPxFDgJneVkHA3AZ86BWhV5aKJWBp9O9XSEzBNAlflV0ZjP9MxdVqxIKZBTA6LxOrF8l5CGtGXG6bLP1lx3fxEAuS3HnHgJqwf4SGBqT58WJ6Fj6dReDolBdK7Eb3zg6WQRUpFoj8GoKD4rJlNQ09ML0eU/R02QvD4mTS++xr2gpQScLE936uqVTQHIuQR/mekxZhTXskst00maTTomZrIxXzHeg2kCoOIWdDIaLrumsvSurVRwz3MI2GhVLzoDgDwL35+DF8mMAXyPhTloATueGp/rvjJ3HjDeFIAYZLRILB1lsOh8YjkAA22lDmOwnNDGGI4k1l3jLUnTacABRGtBo0xEVuaaLUGSOdF9SAOcqoUcyJwLEGkC0Ce+ikRmVwHWzKzdFIBGhA6Sy5qR7gxAcfAZeA/7C0AyT/xFo6FNfGZrgACeu8aAM9v4wXmKjs82YiDRSwhjJMWAZtHkov80MfjMOY2vT1MJy50BEB2ZeQgi273cUwQQycaozeJar1hA74G6uMpUIk6kQXAvLatHVrQ4A71M9yipldbTROJvLPlQPRXfyWO8aQDxkPAaeI+i0qhmjmE2oTFEaHtFYQ6guD6dFnfCyADUysMpbuUFW4qnOPlWTMidAYCYpSIUYV4CoKjtvOhf9yLyDNg0GW8WQHgLve1M4A+ada1SU4lMDqYiRqcZvFhhiJaILm7Ufh5BR7QSxGNNnhXnb6wMULTYA3hoWk8zHAOgSMwhy3HSAObMOdgdgGLJhAAkFc73zEgNLt87B/EFdS0R31langGpFhnFJfZAoeqgRaZ9NQlaLu4m0tpwiknA82gCxKDmUgBhmp2UE5uKYQkBtBUb2hWAoscCQOAjmrVZnbHiQ61ShijRlHjMB4CoNtobGg5gMksFImXWAbSHExgQZecxY/H7XopAIEM74U1psPV3BECeHPVrcU4Hj6oPOL7lWe4OQPFBAJDIHp7PXBJxbj9CB4AGBm2CN7XklQQekGwVjgGuLPrc42fK3UF4pXXxohQcHAGQa0NfWOh5Qe4/ltlm1Za7A1BMfvJ/AagVZHMAtTLImBBA4nwCQB67A7xvVNUrxorPk5VauGgZtziKFv2JxI8AyIHgnpc4JKDIOKKT9d0CKCYd4QMABBD1lr5otvLAHK+GRmIWxtQBHOXY9efa5o4B4d86D8Dg/57E1OoJATcuTWoBKLr5LQBxzfi8URui8ZxLtRYRXjojvwqA3HsZWffkwcMlxe5LwcPxkGFUP9oh5uMyreiiwvbeQsAIIK8UcABpd9klBf6tGvMWl3QtvSsAZQQXzjIiWcEYM59O8C3plmzIDS9CW8mk9DbTdLIaYzmALyY3s2eXJ8Qze6jAFyv29oYcbbHakGtlKRc8yl0BiAdp1dvMCbEYVLZnlfF+mLEyjaMzSrPc4yWYrJG1Y5gx+JFzHZnhnub1epwYzJRbrr8AmUnhxF9b4ombATSBne/cE8QE018Kh7R2M4sByM0DyMneKXkx35CbjlJcZqQgjc72QnhmpnOdmLhk4BkQaTaRfif0xIxaxVlMDifk/NvrvgFJjFm1yizEYzJnwveJHN1Ufc03A60GoKw+Vw+0xPyoPEHv3RoFkAfh0AQtrhPddLnMHkSktKKVAGVwvEZHIIkkVwTYJ1bLe+R8vYUHbsrRxr068bV37FgNQK1An1T3qOst934JgPzaPfLODIfTADDV3zB42T6NUVtg2mIJKeRcJsbNly9o9GRsVr2o7XB6rjeBVgdhtvvbpdaGrbq5QqtQTDNxpKxBS5YBkAJ/2crNLEDYcrfRRmgYf4VAXB4MsLSDflwEye/de9JO+UqkMkH0bJ7l13Ijdyy4rjQNZk7R77nYjdeb916yt/a7XlcFUNx0MtvEcjQiq1cdjOwJ6IVjGTcCYDFdEjP1+h6NEE2u5+F4Ru0RLc7F9/yf7+KGmQ6gXhsF0NzeQ2vLqgDSjOy1uTfgyLNgpkEuRSB7W5iIv2AumIEMJGBSaiG6v2gU5xE93uDF+kqhQLjdLUfjONEF8DJXowACeC3C3qMHcQHkrgEUQ/Ktnel7q1SzrYHVWlxIHhSDGNU714um0wOY1AS1vBbAOPKaJtcikYDHmmWAJ6BELtNaLtTjPK0lSbsFUGtX0d6uZXHQmMEMbMapMBtoGrQdbjqmKIYQVLjWCqq5V9Mj6B4W0Po0jzEp4Il2RFtmnp/Ht9CGUcv4hMmK4njOETf+nLv5XxVAoyp7ND7k2+rOvXsi2/IkI5UirngsaMwsUSqQMXgCqN4jFl+AoqpLLQGiMUkUnOx5SL4pKQCT6ePcPPvICluefW3yfDEA+QDNqVwiuSP5LS91YBD93RPa85CZjQfH/1UPlEWgFeBT1JlzADR4lDb21GYK8gB9nbxqcnTf3NuIhshMaYwZiWcBwCXvjb2U9rkYgLJC9N769JHYhTL3dJbqjWjwhiVLeWN6JFtX1ovyuubU3omeBSdWhBmPlYK9tWOjJHkpMHcLIF+iMtqY5S0gYCJ6MSa99G1E3GPzHBqDPnfP7mrHF9jpGfyefZMq7XTfM/uAcenrzi/heV0cQKNmLItjZHyEzyCw2lTAm2Y6nT+yuE9pCNckyrq7p+Seohbv4fpjugCfgwfwZZrQ943sxXmUC3O+NdLiNsA3BaDWi0LmGoO05M3Fvh0MgIqrM2LIQDkzNBH3iJckzcMAYuKyQRFgIqGHk7XElyb3lhtn69u1my3P0CoFOWYB524A5Ou3lzY6b8m7UXtbuwBITx20di0DWL18XUszzOXpFMMBSHFixMRs9h6O1k5q19A+FwXQaACs10Zfroap4Fp4VAwI5g6yrUJ8rdpocZyRHdTgPNpR3zXG3GbnnnPTay65V7zFqM1893u58ecok9ktgE7RQg4iOhzTAlFe4nF4FtsDkQoBaGaL28C1iBwzOICyFVvxMtK5/F6P/HuA0UtQfHVH1jjntd5aePF3pmavfjqlMYs55whhlncDCAFF9nom95IyDZVpGC9kx3VveY+KygNQfhM1DhpNmzrQAO8IiZ7LJ94UgBjEU7VQb9UpJkIvrD2qQwb4WFwYGTVb9kZlBtnJufpACVnP+KNxRmNRc6UtNwcgZK7M41yNQUIjECSkownq9YDlL5lTQBNwAHqP82S7wMekr3JumEG9IjPeG+ZORB2txXGjwJnTdjcNIOTY5SynNgZIMSMILGaFGc9AKiqdeUiKNLfyWKpViteKwIFnUcjm7z3DLC5JVSyJc90sgLJ3iW2loWGytfU0AYIB1xY1o0E+NIw0FyYLDXTsuzsu/WK5zQEourR7b76hA54dJpPnQ7vJe8N84l0dE5WP17q26doEgM4RG9pCw+RlK020YRb8CTO1JC1xjgUJdwJAa7j21wSSNBF/T321VNZabzW80wBipvZKV6v9/zYvBaAg2PTRF6ncxeavvSoAdfJLBZY8tXGJAvndAygLyN31RrXApeqbbwJAzLRsM++72GIhWwFoAalubVVyFxreHInUa2XYdw8gyegKh1szWVuK8+waQMoVnRq53ZOntWW+s0sAyaSR9FwjMLeFRk6QtMceTNYuASQh+7yk3GEPDe16jrccFoAWaCPKS+NLd/dIlKlP2mJw8KYB5MLaK0oi9ka0Af/euM5NAkii7eaIm2yZJwGc3n6NBaCN5NRIiVCXvBUwwXNuDTg3CyAXyGl8dfglmt4XRl30klW1BaCNCnwDDYCrTKXgGrU6lLhS10S9zt6JcQFoUKhPhojDn6gYZL1YqxaaBsfCNFKXQyUl6QYK7U9ZRlQAKrnTUgAqKQCVFIBKCkAlBaCSkgJQSQGopABUUgAqKSkAlRSASgpAJQWgkpICUEkBqKQAVFIAKikpAJUUgEoKQCUFoJICUElJAaikAFRSACopAJWUFIBKCkAlW5f/AAVioy7yB9aOAAAAAElFTkSuQmCC'
p32
sS'version'
p33
VV6.0\u02b2
p34
sS'uni'
p35
V\U0001f372
p36
sS'desc'
p37
V\U0001f372 A pot containing a variety of food. 
p38
sS'browser'
p39
V\U0001f372
p40
sS'annotations'
p41
(lp42
Vfood
p43
aVnature
p44
aVobject
p45
aVpot
p46
aVrestaurant
p47
aVstew
p48
asS'wind'
p49
S'data:image/png;base64,iVBORw0KGgoAAAANSUhEUgAAAEgAAABICAYAAABV7bNHAAAAAXNSR0IArs4c6QAAAARnQU1BAACxjwv8YQUAAAnkSURBVHhe7Zp7TFvXHcfvsY2xQ2zMm5CQQBLyItAsXUKTQCutabc/prXZ9ke2dNKkbdr2z6ZJ7ao9+s9eWre16yJ1kZZN+6ONuklb123RHmql0AZoIMnS4gQIBIfAEiBgIBgH8Ovs9zv3d8218esa4xjtfiR8fufcm9zj7/09zrnXko6Ojo6Ojo6Ojo6Ojs7/J6+1N3/2TEfLV6mbUzBqHxhnOpofg2m0ig7nb5440vYZYecIBmpXndc7Wl4jMxLOniILdGKfRm+iXk6QFYHwS4OrPnOmveVlGlqCSevJEhgYKyEzJ8iKQIxJjbIhfev1juYfCJvgkmQlk+B9ZOQE2RFIYpVkov2C4klnzjdvhbzTLA4AnPOhE4fb3qVuTpAVgbjEN5Mpg57U3nyTG9hFxlgNjaJ4t8mMIOQ8+FzI+ciXqZtVsuNBnEXkGQSEuUdmKmxiEj/NnU0cxPow1H3wDRSNjq0qqyYQ7z74tHLXwYM2ikEC+v8+cfj8PshNP6UhAZ4nwg7AVql8jAVfwhYBL2sEcY9D+zMQyh1yNr21mt6VcYFwsjDxdvhWf4FeA46pwwiBLzdM5iy1AnGekQ1CjmrDVlS+jpbn2N7Lw5CfOui0MHB+MZzzFHoXedaP6FDGyJhAoe4Dh1AYnCxM/LA8anDKbVzs1EbCpCNkIXVyw3rlNjbkWd8TQmXQozIiEEzqVzDFs0vCLKGETBQD1NKXTwCX9oiW8euiTYIQCj0K8hQNrYgVCcSvPrwZcwBM6hvo7jQciZE9QZYK3iU+o6tbDJT81dtWVD3cW9A7M2G+Pu813giFpIRJHuZzHL0J50hDaZG2QHhhzo1/xxxAQxEEg2zM0HDht9Rdgkvt4bUOZwdEmxAmwtAzY7aMDRbs7u907HSeK9l+6R/lhYNX7MPTY+areC1xahToTTxkvIIFg4Y0k5ZAS+IweYWswjtr7L/VU+C6/M+y8OJQAReCIYm/gjbu3qGKxfY6FRAu8kZW4p+Q2yXcty2bBy459uK18Jp4bToUBj2bM/Zyup6UnkDcdDJaHHT73g7H+LX3SnaMuwqW5x0u/fKZI221XzjS9ica+Tq1iWHSyc6ffPIVuF41jcQEr4nXxjngXGhYAF5eizeUuprQLBCWUnVYYS4YHbQOoNt7pswVNLwMzvgctvh4A/Zj/wLzIewn4fS21qIq2K99kfpJwTngXHBO6jyFNzTU3bQ85JOgSSBy0/CdD/jY8PULjoWRXlvcahTi3I2hBRN8AbcXMNVWsD9Oh+PD+Zt154tegur1IoRJIY1GYPEueuqujPZUDM24aCgMzgnnhnOkIYAfw+UIdVICnCF18A5A3vgS2pgYna1FBb55k00cjAFUoBFwnfMGxn4/8NiUHzzhccalemj3w5eOWDwqCDEZ+zWI87dQMPRnsOvp0DL2nxu8bQrIVa7vIxsmZksLysQBFWZrwLO3ZXraZJYrJvz/fzA0dn1OHEwBbSHGpI+RJQ1123yJxEEwb4Cgnweh3t7W6ni1rtVhr3uv+BTmIinIt8EpX4O/08ofnPdDPLbt3cL7IE5nInG2Osd6FHESgXMcuFSYrwq3J6lNiZQ9SJRKsX2QKxUmRHEgDdCzwJP+A9XlKvRGH/nO2Ve7XvzUTs5Dx3gIvIyxo3RqTDCsiia98gIS8OUbXR88WhtrQRpmR9PMdUeZb6focH6MNXa9JewkpCyQSM6wlEcb1x9YYsWBLLKl525f6Z3ZEiOXwqEE4TrnPFzNFwryE3ozhtq+x6fEOXCDThoaur4pDiRBg0BL+afrbLkYU4MTqNp+f9S8LgRzlqTRgXUOdVWr3u0ZsNqDIbTvTeTlxVwKEPZJ74R1zu8R9vT8gmXel2fx+jfAZCMemwRM7PbwzvLQZJUt4RJAYf+TE8OYiziXfmdo7Expv5YxgZSLU1eAizcUov5Rd3+BPRgRkndvWfqHnPbwWOkdz0jttfGiaBHi4bXn9w3uLd+oeA5WtPr3RxbQuyYr1/e4GirDIaiw7+iEy2zhW7UIlHqSZtxL1jIqtnpd0eIghWV+P7bR4iCOikUTmYKi8TlPMnEwnFAYrFjXmqp3qcOqun9qRAk98DqLGIzCmCetIzNlNFSxpUcXGC5kCtBLItcb4HFQNTCU0I61BZgZzw+QKZiuWG9DAagrwBDCBDxdWtBzq67UdfGJ7etRmOhyjhVNnbS9NssCmWFsxb5xo5HL2x/GLog2BVIOMQQStRsSdbFvgbk+eKdsWQ5R8kwowKTxm9aIHIRepniU+78WayaSPOaqLf2TM1avP7xQRVF7Dm6yRydtdZizhs6Uv7c2gcSjDXmbEZ1DsgXmKrvb68EwMi8GI25SPHHw5mzZ4xXngpf+1dDQmfLuXqMHHTjEmEE8+sQQuvmh/V4iTyjZuDAMXhXAxIh9XH3fHbJ4Em1NFFCITTcmhcchRl/Qpi7v0WAo9j1cVRYtDs6h9qHZQoNBEtsVLrGvxHwMEwdNAiHisSo9OUSRJkcs4/E8Saka1A0TqwpGc+DtG3MwuaQVLcikickqu/vWnvJdNBQGPad6l7dkSRzeDeufVDbJYTTv5tXghcu3LOzA+MZ1EA2H8fsMEYkYifdwK5qgKf5rIQyl2SJrj6u+YuTy0e1l0eLgXHYfmurHsFLEEfDIIpAKK/IgNehNUJnGblwulJfzAE60pnHuzjqbX1QzFGz4qq0w0WMRBVzXVLmmR4wBjmJhZRKle7zGscwj1dQ0zPaXbFq0hyuWCsg/NyH/JPz30WRMIAUUatZtHoteSa8mWMI31N2fsRX7C2MJo5ATAqnBtRGINT89lp+Rsq4Gk29R5eK8vcRnjbVIjQW+WzM0dqlfKSVlVQVSg54Fgrnve/L8uE7yTJvyAotGUzLhUAhTfjBgLQgGcJ+H4QqChBOvFiBJvwNJOsZblvikI9AbINBx6q4ptOzBFNKpYoPUrjmYxM+SmTKaBWKG4G/IXFNggk71IZka7QLhDwkglqm7duC8kyxNpLlQNPyRjDUEP0mGJjQnaYV0q9mDQOubDDUr2GrwZ+HCU9TJWXCOkDefp65m0hbI0HjxfWhOyb0chhmex7xJPc2kHWIKubwuAu/5MYTW96mbFisWCFE/SMsVtD4Yi8cKctASOBFcpVL3gSO/91q5OEhGBEJwCQ8T+/aDTNx4bZxDqi8FUyEjIaZG/vUE+0W2lwAgTgd8PkvFI2NkXCAF+Zem/LtwgVoaWhVwCwGfp8Brfk5DGWXVBFIQv4jn0tOZ9ijZY6RzK61SyVh1gRRE6OFygEsfTVcsIQqTLoEBK+PMhlI8siZQNCIEeagGplAJsyiFLx35SoexCRBzEmQZg8XekJZXNTo6Ojo6Ojo6OitFkv4HSONs1G69lmwAAAAASUVORK5CYII='
p50
sS'andr'
p51
S'data:image/png;base64,iVBORw0KGgoAAAANSUhEUgAAAEgAAABECAMAAAAV8YMOAAAABGdBTUEAALGPC/xhBQAAAAFzUkdCAK7OHOkAAAMAUExURUxpcbeRd7iSeLiSeL6WcriSeLiSeLiSeLiSeLiSeLiSeLiSeLiSeLiSeLaQdriSeLiSeLiSeLiSeLiSeLiSeLKLdLiSeLiSeLiSeLiSeLiSeLiSeL+XcLiSeI1kWJFoWriSeLiSeLiSeLiSeLiSeLiSeLiSeLiSeKN7aZZuXayFb7iSeLiSeLiSeLiSeLiSeIyFUpuJX7iSeLiSeLyVbrSNdeayNYxjWLiRZKeNabiSeNCjT6Z/bJ93ZriSeNGHVqyObbiSeLadOICBR/vBHbiSeLmNVZ93YPG5INuYR953Q8eJY996QcmeYMCcUZaLSrWHRf/JDvzCG/zCG/zCG/zCG/zCG/zCG/zCG7iSeM6hWvzCG/O8J/3CGtKgQLGFUs+iVqeFariSeHV/P+1sMP7DGu1rMP///3R/P/3CGoRbUv3CGP/EGYVcUrmTefvBG/zDG3N+P4NZULiSefrBHPe+HLeRefzBG/GBKneAP/y+HPnAHPO6H3qARPegI+5vL3qBPbafLciVM55yRvWWJfq1Hn2DPIaHOoddUruKObuUdN2rQ6+PcfSTJ/u7HPB4LfO+HdavJe+8Hv/+/YlgVv3GJ/3EIIlgUNWhLfzJNb6WcPG5KvenIZGNN76jK4KFO5SON+S2Ial6Qc2ZMJdsSdymKv3HLP3PSfW8HrORcvB8LPmxH7qScvKIKfWaJNKtJsOaaMSmKYyLOeG0I6KVMq2bMO62IY9lTYxiT9zRzv3LPe91LvmuIO5zLvr4+PONKOGxN8yfXee3IOy3L7SblaiXNOrj4Zt5cf3ega5/P92yI/3bduy0IuixJv3gi/701ZJsYv/99/7kl/7yzbSEPbGBPaR2RP3TWYWFQvq3HpqRNfOPJ9emTvjAILujnv/88oVbUdHBvuy6H5RxaMGsp4xmXv/66cSRNP7rsv7vw//45M2qKOXc2se0sKyPib2Xaf/12p6UNJmRNZltSXJ+P/7op+StJf3Xav3WZvTx8KCAeLmfM/Hs67mQVZNoTN6pNdwdz8kAAADedFJOUwD40y0HBBoB/AmgIOLx/sQ7dK5MjvjuJrXAlvUO5/j6E0bJhWRqfjf++/p4XUEybv39VNj8/P7++f3a/vv5qP7+vP398er7/v/+/f79bf3+/BTTmzQz0S6py6ToXkr8+/r6/////////////////////////////////////////////////////////////////////////////////////////////////////////////////////////////////////////////////////////////////////lgk6TMAAAcWSURBVFjD7Zd3VFNXHMeFQIjsJQiIgAMq7r21tNXSvfc8N3kk74UkL2RcSFhJABkyZFOBIDICiGwB956492zrqLPVLu0+vW8EbRsQ2z/r9+Rw8h7nfd5v318GDXqsx3qsx/q/yc7WxsbO7j8hbLghU0YHj/S1t/cc6TbKI4Q72PZfUIa5urlb+/uBXvn5Tw3zHBUy7NHc8Z4YtghIpQDwrIZQsrICQK1WK4C/S7Dr4IFibEM85wAp4A0JnT8mIGA4pYCAQ8/O+nTLNIQCi9ynDMwsjqc/kDojyExJ6omrVyu7CEpV+nConLE4dDp6hd9QD5uHx2b0VCCdPm9MvoQgOq/G4riqek8RUXRsPxSLIb7mWMD8UGcF8PL17hfyzkcfvj8NTJ8XkEpIJERnsaxg95G1uGqlQa/CxSX7TpJ4bJrhxCez0oH6PY++U/jmux88c/78trljJAgjkRTplYUHDgsP7iuAsUocnjyad+MkjmtjTabwGeeagf/ovoL+1tsQajQQVxVXVnUhVJqqcPfnQqHw8LVaEq858JXwBrIOk6lMJmUkXD433SnYMsnmDfL0puz6xgaSNK2prpR83yP+ieIgHVwLdx8WXq8lxeHFaSe+NxxfGY4pMz7zC7bo3Wuvw9URSNmlEOJYbJpeBnfn0ZzD19fCknvXasWmlYYiKoNXZhqKZXBzupMF72w4Lz0Dz0YIBIKIDY2Zq5NJmRLiBfvuIM7RezW4GIoLyPA9qVGEJOrQ5e5dUZ16pfIccHJ38/D+Sx9y7B0/W44nUSABZVZ0FomE42uPfPVjiVhcWFKI4/Bq6pVLl/IvdQu7r0iIrmJ8ebMalf4cT4f7nAnWAKRvw0oTBIwiGjWwIb40ixQX1haIC09eO4hwPVXE9p07u3cKhReiUHEYevAMHt2FPhwzJ3AodZ1BZtVT1lCkeHJ9tiChcT1E8aISJvy8VqxPJXZ9uRH5mrcdgSSpemz/LAVNCuOyoFEUWb3lPBlf3xi9DnE2NMBNFHBdZhaE+6iQ3ymR7SEkRP7X1MXO7fnoe6U2fLEzDeKNZeI0LIy+REHSZGk0yUkbItYla6LpwAsyIay9gZ69XhBuQLUV9Q0yaWPexq9nfkFU9cheHcKMGGsmTOO96Kv0GTgkIfqU1tezIEFEdjIJDxw8evRIIQoRisyFPOGtby7c+nk7QfyxHzs2T8rMqik0aCLoBSUnJaEns5I1MIkN/GpUBSU1NTV47B7UgPlfCn/7JYo4tGtXKmEIV1U+wYDASMo3W19gdu10NMp8A6RSr9lEW5SwGpK4LEclQzWq7yQQ6DIKNIHqiTgOe6rMIHdqrNi4sxZtw+NpbzadPRuvIZOzUQKz0ZeLLe0VFe3lK0i4sou43H0oip5PkqLiyOoiM2goVeKDh7JTOYOpSKoEEuJJmBSdGd+Ay5oq+HIk/pIWpTLti2d/T9Pr9WknuohKk+xYfuiDIBsWhPLPlDYFi9ZANAgwLKfcKOfTkqc0YfvT7mrRTQw3VR+vjrzbOXw6eMA1W3tgDlI8yxEkJKHs5WxdVn4mUcRn9UO7VqbFctqabjZt1WJaaDpOzDcfMXSwmXqkfVu/gQVlotCUlxlTYpA5IholT2wt10Jy75mUxMRE444VJF5cNDOUfdApiE4/14X1rXk5Wz2oZ5eV8eWMMSlG9Cem4uZFJaZc1krfFMlb92I9hl6D7Nlx4urC2nQuk3GsFFvRyoaG/21bS6IoUZeL4blNHUazo/KKi/jHTIMAnntv/3PdRtCo9OfWRdAGKTtYjqg9N7KcH6PTYlt1ZYl0+ljptjXTLes3Yiz3gYHEdfNHNxXpC1F/RWSSW5fIzS/GLpbJd+TgTa0iOV8Uc2ZHCmvUK7cpjnXweO7fTulxTMe98Dzl2c0Yxp6UZZhSJ1qyAttLkUUpuhxVGfUKUdzkOprDsTD8mSpQr1r44npcxxgk6tBie41yHcz9jua0aLE2o1wkips0m4mOm6XpH+TExE6xakvGjjgRyrpoSRum7ZAb27AWysIYnZJUtcv5COPMVLQjxxIo0MWcTTWomz150tNx/A5ZZJvxh+9Uqm+RQfKyXEx589SkyU+yGAB8LZ5HdmN597chqdS57snJL2dsfurpuF/Pt52Ki4s79dTmjLmzljpLzRjgGGL5qPWeA/4iqVQBVtUtXTqt+fZSpLppq6gN6b54I/s4/u0mWgELkirUCimSQvG3f7hw+9oiAheAR5Dj+L73Gu8RA+d4jetv1Z0wYJLXxP6Xtgk+A/Rr3MOWPwd7vwFwRgTZDWiJfIic+t8ge6uA4+nYH8bKZ8pAN23bCZ7WvL6sCRsV+Cirv8O4BVP/GSw/a9+gwEf9MWLrEDTW3sfa0cuJB3heXo7WPvZu47n/8meS3WAHjqurh4eHqyvHYZjdoP+p/gS+jPrhui/LdQAAAABJRU5ErkJggg=='
p52
sb.