ccopy_reg
_reconstructor
p0
(cemoji
Emoji
p1
c__builtin__
object
p2
Ntp3
Rp4
(dp5
S'emojipedia_url'
p6
Vhttp://emojipedia.org/bento-box/
p7
sS'index'
p8
V349
p9
sS'code'
p10
VU+1F371
p11
sS'apple'
p12
S'data:image/png;base64,iVBORw0KGgoAAAANSUhEUgAAAEAAAABACAMAAACdt4HsAAAC91BMVEUAAAAkJCQkIyNLKxUcHBwhISEiIiIAAAAbGxwcHBwpKSkhICAgICAqKioSEhIBAQECAgIQEBAgICAfHx8hISEqKiojIyOSXy8JCQkTExMPDw8rKyuUYiaNWSOPWCKUYS+FUiR9Th/j4+MICAgbGxsBAQEDAwMQEBDU1dXf39/c3Nzl5eXs7Ozq6uro6Ojh4eHR0dH09vY6OjpQUFDZ2NhoaGjz8/NXV1fm7Ozw8PDMzMxhYWFeXl5ubm7Hx8dUVFTe3t73+fnOz887Ozs1NTVKSkrY19dycnJbW1vW1tY8PDzb29t4eHhHRERlZWXo7/DS3N1BQUHBwcHe5eZ/f3/6/v7x7u7dxsa6Ni4UFBTy5eW2V1KxqqrKRkAXFxfgkoru2dnlvLnbf3a9npyoNjDBQDm4uLiMjIzt0M+lpaXbaGDSqKbUWVSXl5fqoZno29vKjokmJiYjKClVJB8iIiIuLi8sNDbEkVSmGgWAMhMpKivNgjCcaC03KynTHgLPLhDQpGTXsXwwJSO6iEeuVh+WRBvPt33asW1gPis/MyvInGPNZydbHBZoCwTguGTWsF50Mg29Xy/YgzODXxN+UCu2lFm4lkhQOyfgjzmXYBfTxYraHQHRpm95Kx97TQtGIiDCGQLIq2vnMRfjIAFnJh2fEwIfLTHIGQA9LS0nNjfmvW7MmFCHIhXnOR5ILyqYcBbTrnKjcC++lDOdKA3Gp1m1Shi+Tyuqhi5SLieHWyThr12piUHBn1HAdiSJUBLnGwDrJAPnRCnpxnwdHyDcKw6SEwXKGgBnGwDiwYHQnlrLp0RnTRyGDgKpi1U4IyKtdzzs0o4yMjLdOyMnMDPEdkLDPxldLCV8DQB1DgDSdDZYLASvhR2rJQxyRivYkEVjPQyffj2IckCvbSq8oV3VvYDtpkvm4afd1pzmKQ2xGAVlOzlrPz6cTTLqIQBqUzmzJRPQRhq5GgPEMReieyY6GAW6omiwm2X7mzHDTBmfjmhuQUDuNBnPWkLbnhb6AAAAInRSTlMA4pADHw1xsrI2rMn1w3518WOerFXzUf6l0eZSIDHdoG/bXKgLhwAAB7hJREFUeF7sksVv5FYcgLPZbNTRRDk0u8ql+CeaYZiZmZkZw8zMzEzLXDh0PNmo4/aSYw/9ZFvv+af3SZa/pv8O//P0h6YmRnvHd4+io53x7/M//9LcNkYHVsgP4Ic1TBu1ff+MLvjxp062WTgGcOIPKGw9SyKW+eEF0DDiADUF85+GXwvrSwdpfP/NPYYd4+GhkVX5ti2RYPrNN/ZLaQiAx9qb6DDlpyxjZd8fi03GNsQVldFu31G95U3G3lcNVZ6fE01zJyliMf+7G1wNw0y64NmTsWxFZRB/5bq4qtmiWPzytZzrcrm4627peR7b8EXTIVedmsd/MyGEn9C/oaUNXIzgpcKZ6q27PFvsk6ijkMvF41UDstHlpHa9O+oJcTcMBrFh58+NajWyCLS10AQMGPRFIkTXJ6s00F/c885D0fD4Ol83k+odnRbkMVttqzIOiM6dAcsn50LJB8L0X/kcBiEc3/J+sEp1s3uDmkh3NLwuS47K+Cm+IO/G5FHoK4uVXO61ny5d2B0SCISf0wStMKiO4INzuWK/VlfUz99kowd8WXJ5Wqa0KJUYW73mE1uczjOr/csXo8MxqAbhVpqgGSDVE2LriamrGDjXFnE8TprdAsF0UpvC+G6lRINyJPkzUf+FfXoh1XfMhkCgmSboAEiNpKzrPzHt9Tt1swP4CmmeyQsE7lRvcnlUi6URDsE+DvSmPl9KpYHPC2EA6KClzARIfZ80X/5tzvTBWg50lVYQQqR0uy2YtiZI9r5EEKKnMHp5dXnltBR6OvUAwHxKywAU6nN9XV3Hc7sOa9GSI9D4vESEYUsYPy+Q6WbYHIQwi6R9CwF24CpQYBNCkBZCSxu5OOXN5XKmo4+7plxuUI9m380ThYJ5SenOu/mYJI56OgsDrAvWAOuwzHYQiyQtBAZA+ram9D3eKc22ZsprIsKJ7lfcia1tDSFKzcykTvHuRLgy0DN3Yvt45Bg82t32kQCjMQOAjEM+Cii86cvaoCyq8Hg8YQjyyV/X6A4r0OzmolBhsyk4HI5Q6IuTQGMIrQCylkigKJqgQNH68p41ivqMutfQexJrCNAYQjOJZDdvb+/ufn8Ed3e3t/IsQjaG0EEiaT9vPBj84xEEg+M8fxohG0NgIisTfq4rFHr1CEIhF9c/sYIwGzNA4hFKMEQJhuuPOo3rYWpShxJE4khDCC0v6oLV8czI9UimdgWDQxTXmevMSDAzPBSidsH6JJO5Xl3lvcfjyIu/Q2CQf7VfZrttG1EYTpMuaFA3dooGWe5GijULOUNaFOWhJGok05TpMaVqsRbLseMt+ybAc6PXyxPwPfoIvehQgUK7vXGuetMPBDjkf87BAfHzYEbFnz6dHIwOyMj8+ModPT84Pn3z4fjk4NUQjYYnpyfHpx+Onz9fKOHogI0OzmI1z4zwYD6v9aFNNm3W39/cZLjT/6Oz3+k37L4Rdki/s7nf6KcKYR0GOw1BWLMynz/IbKDmA4GpNG0gkEDIFAantuQN4BAJBOeQIeYwjBBDWnExH6K9ucqMcFuplw52uc1sE0UEukNpOtJgIqLMoAjbSEJCTUiASYQZIgML+l6pzAh3lXpNoGFIHRSGlErhQUx1Zt8OP3I7NA1MCHAgdw1qshA3iIVeK3X36zRYSYJDCQCELg9NEzeYFVHXFGJ/dDq9mL7dJDByG4iawMVin3AWhgy+2FArdzIbxD3IGgQxRiijrmCm60S48XZ88e7Ns/FbzrQiUwVLxGQkObVedLURMhts+5ZjAMel3KVRhBrSpFKE0/G7N+/+Gk871HENSSkUkeWbDGEEcG87M8LPSpV7UjoYMowkdghLvzNhcDp+phlPCbcQcwTClAwRFENBBENlpZZGeKJUiaKmxyRgTUYc4FqexMDunJ2PLy7G52c+hIAxzgFoUEOYGHMgo7ZST5Y2SNQehA5E2KAuYJBRz9fdmlyc/Xl+Pj1seqE0KCdIK5aFASGQmbCWJEsj3E6SgUT6vUOBgZuOyzGlVg8Syz88PLSgBJkiKZAugUPqDZJkaYS7SfASWIw2PWo7DdfUBuQONKBu1hFNYKFrSmgZjuN5zvsgWRpB22DgWaYBTcwgpQJhEvqcI+JSxjGMtEKvK5x5/ssgWckKlH1kSIiQjvOg71G3aQnoWbppE7GhhIxdUyxq9MpBsCxwP9nYqr7ueZI4zGpaqNnzoRXJyO/pldfz/CZjFtBKaPlaCWXo916UtjaC+8u/WW10d7d3KqVaqVSqtVqtWq3WGuwNBnuaxW2w19prpVet1F5E7cTd7kay9tXKQbcbb6cUi8V6vVzeqVarlUql3S5p2u22XlerO+VyuV4vFtO4OI67QbZJ+e0y6V7J1ZlpK5rWgnSVFlpU0WXqRU2cXD6683Wg5D9327VKMaWuq+gymqqmoqmm6OfyooNFdqVW2crn72cz8Sif1Cv13ZStL2z8my/CIkgHq6OjtWwqP57M4vp2kNyQYLsYX04m2VC986iQD+Ld+eyGzHe7Qb7w+MoG4WGuMAvU5/wN+aySWSH38FbGWi6Xn11OCjdkcjnL53JrV3coq+uFo0nuxkyOCuur17aq955qYf3G6OCn925d497q+tNvYH31H/npgeenb+Dqoee/53/+BnQcggxEfi8tAAAAAElFTkSuQmCC'
p13
sS'twit'
p14
S'data:image/png;base64,iVBORw0KGgoAAAANSUhEUgAAAEgAAABICAMAAABiM0N1AAAB+FBMVEUAAAApLzMpLzMpLzMpLzMpLzMpLzPnchXJWmzdztbh6O3bMj7ueBrrayHV3+XK1d3S3OPhQDrwfhfmUy/b4+mywszP2uHX3+XM1t3jRzbzihDY4efwjQzVODjDbgboiAu1xM7SOzSyYwTLdAe+awbH09rbfwnkhQq2ZgW1YAi6WRDE0Ni+zNTNQizCTxy9VhTaMUDK0dZjaW3dLkT/rDP/2YN3slVckTvIIDfZK0LVNEO+GTEpLzPHLkL7nDX9zn/jRkHymWt0fj1shTytU0HfOUj3rnNYKDL/sj30kAzfNkOUZj+SeUj5lDbhQ0xhLzjmWVSrHDGlWUDFQUK9R0J7qFP9pDTmTkD/ukzCIjHMNyjaWTLqehOfXEHjTlBkizy1TUH0hTj/y2rwjmfndTL7xHvQP0b/xWDhPkL/03ljmUKdYED7zX6sPzrwdTr/rzjubTz/1n58eD3/yGXILyoyLjPxiQ7OSUZmnUXSRiPBIC/gYxq1LDabZkOqcE2dgU/zkDO6IzP5uXeElU7ORkGwaEttpkvsZT3/tEL9zHqjUj+KmVL0pG/wiV3/w1t+ej9vqE1on0akeE7NOkNhl0DGKzFekz2MbD7uhGT3wXn5qFnWYVD/0XT/vVH3jzyRkVF1sFPqblz/wFbqXT5flT7GMTvseWDoW0lqO5aEAAAAB3RSTlMAYL8AIM/vi50ITwAAA5RJREFUeF7k1sWW4zAQhtFOJukX+mU7zMzNzAzDzMzMzPSa0ypbjuVYSZ/Ocr6FF64617DSgJnPHztgft8haoBfAsFYHwUDAgoMxvpqMGBBwVifBU3Ix4HiUNTVUJEA18R7y0eQnzteSyRJE9WWnyBO2k+9/qB2U9f1OXqaYzI1M/M6Gv19VkbsLRuymEs13ewyqe3J1DXG2OqtXe39xw7JA5ob060OyxA57OhxTdN29wHVdNFYVIZWGe+kxusBhcK4ottdBRAORcUES9wpkbOGdrQlQyFgXW+3Dl7ImgB3ObRB0CO4CklQGHjhfCEqbE2ATQ5tEfShArmwBAH4ajvfflUjJNGEOsLYpEaV6qbUmBeSGjpnGAuLMlRJsGVylhlbwvzKjT0y2fKGbgvnjsGrShBSJY2aZPc27mtmaW8ID22HykScEB6b0JMtzS6pgJ4+4//nuSHKvnRCa1pHK97QomG82t5+Y9i9jTigVqfzDt7QjiG1kJP+UdrNpBvYD5TNReCE8rLy6fMXMhSfJsoMjwCQoO9O5UeJMfZTCSEroB3ADaWdCpVQQ6NdoAIphT9/x5loUwlh2IJGFVAaQMqGJtQQql2hZJ6TE9Y7jVe6QMgRFOmEWgUtOQ8qVScnBU8oDrORzB4knLhz0shDdCzB6hWI4hLUhCiXOSGgpjRR1WxDJMXhKk6Oe6LYElA//S+Q+syhPp2IuzJUVAG9TyckSaeRng05N6enT6lOI73bc05bzJlyuTxrUv1A58vU7IWDQ7R58V879raTMBCEAVjxVFalorQUS3F3QE7KqXuDUR+gV77/27iTArOHhhKLd/wP8GV2sslMJtvkxoW8OitJ3cuh9e1dtsu9vY14FtDwH1zKQ2jdfMy0PFnbiFVPKwiCUDfaUdRmdYQ+0NHSMbcRZsYPVPSaIhXGEGpmZp7lPihGyC+EOpmVzj6IhQpqWE/7E8RafmzjOSS7FtQ0oZIQlPRM56WoRyHnYRkkoG84A+FC2BjuAK8Bjw0IhuSMxmBD6CBEzaUvxWOC5ARgtHWGAJA4EEcopH9DkJIIEgDjl9zpK2cqXYgcDWJvKL0TJGcAA5S6PXQSC6JW09NIMiA5B0X1kIHFUjoQpbjdBMkFbDJ3Zv+KHZDVdhdYTnNn5s7+9BAo3e0CCUoTUTT709KaVqm+CyRC/MvsP0EnqFbdqdHZp1rOj3WIOtpp7MjHOkz18+Ev+gXw0e50CmYAAAAASUVORK5CYII='
p15
sS'gmail'
p16
S'data:image/png;base64,R0lGODlhDwAPALMPANelPCVfnvb18w1xB55qGT2J1OcfCe+0fvHsovPPzN7d3aMlFr5/U2BwE9J6NAAAACH5BAEAAA8ALAAAAAAPAA8AAARh8MlJ6ysYh81DuYIiKs5CHADAAF4ovAnDIA5AEO2rK/e95rpQKkVYAHcABAJwIGBeh0Ui1BgMGgeGRyGIhRRWK+34Alsb40KwTGg0HChyyEA3IA650bzOMF4yGh0bFoQTEQA7'
p17
sS'related_to'
p18
(lp19
V\U0001f363 Sushi
p20
aV\U0001f365 Fish Cake With Swirl Design
p21
aV\U0001f364 Fried Shrimp
p22
aV\U0001f1ef\U0001f1f5 Japan Flag
p23
asS'name'
p24
Vbento box
p25
sS'known_as'
p26
(lp27
V\U0001f371 Bento Emoji
p28
aV\U0001f371 Lunch Box Emoji
p29
asS'default'
p30
Vemoji
p31
sS'bw'
p32
S'data:image/png;base64,iVBORw0KGgoAAAANSUhEUgAAAJAAAACQCAYAAADnRuK4AAAPG0lEQVR42u2dL7QN3xvGbxAEQRAEQRAEQRAEQRAEQRAEQRAEQRAEawmCIAiCIAiCIAiCIAiCIAiCIAiCIAiCIJzv73OWx++9r71n5tw7c5yZeZ619nKdP3Nm7/3s9//es7UwjF1gy0NgmECGCWSYQIYJZBgmkGECGSaQYQIZhglkmECGCWSYQIZhAhkmkGECGSaQYZhAhglkmECGCWSYQIZhAhmTJtDPnz8Xb9++XTx9+nTx+PFjt57akydPluPK+E6SQF+/fl1cv359sX///sXW1pbbQI3xvXnz5nK8J0MgpM2+ffs8wWsm0uvXr8dPoLt373pC/1Hbu3fv4sWLF+MlECtgz5491RVy+PBht55aTcIfOHBg8enTp/ER6NevX4sjR4781aHTp08vicX7Rr/jjbSBTHnMz5w5Mz4C4Rnkjly6dMnEGRjfv39fnDhx4q+xf/ny5bgIdP78+W0dOHTo0OLHjx/VTuOCIpn6aO/fv1+JqHgsb9686e3319G+fftW7c+HDx/+Mh2uXLkyLgJBmNiB27dvFzsK0Wp20m4av3/r1q1GIjERJ0+eHKWBzJgxdjX75uzZs9s+Tz9HRaA2EcqKx8AbeqAZ5BKJnj17NonQAs4ICzGDxRM/h200agLFmAQq4+DBg9s6d+PGjaWU6qNdvHhxm1QjlBDx8ePHbQFNbAYGvK/f79qwCXEqaKiYrt/jXqODcvTo0b/MAz43WQIRKY0SYojwOzaVJAxkib8BwfT79+7d6/23sU+QcNeuXVtcvnx5SQ6CqfEerl69uo3k/M0i+vLlS2evK/YjL5JJE4gVo0FrMgazvYRnd+HCheXqY/DypKEmYwificu/z8CLWAxqn14hBIGQtXQNKhti5cnNthtOQBd8/vz5DwmRYrMhkDp97NixxsGBMJAgqjvIx/eYDAYaWyob4uTcciiBvwErPIYVupCCe0dtYIgyERD4zp07S+9RiDEY7hGJII+JRGcksxpE5l757PHjx/+8Tn9Ldk0J+s1MkEkTKAYVS3jw4MEyDC/1g7RBBUAqgL6HRHy/ttrfvXtXJBDX0Guolzb3vhRTUTt16tRSgt2/f39JYEgAkWpSLU8q0iiGMgj4Ra+JfnLtpnSECZRW+7lz5/7ELTB2s30EMVjhEIzvK9LK66gxEYrf2w2B+H4ORSAZIE18XcYsUqRNHULIeD0tiNh/rh9jN1J9SKSSfWQChRXIqoMYiPxaYpb3mUiux2Cz8omF0CQtmFRW704JhC0lCSiVhASM9lacaJyCLuAacUxKagoSldIRsSF9FRYxgX7bJUw6ndTnZJACbJ1oI8h2UbCMCY42EGK/ZgO1EejVq1fbyEMrGbVIE/0m91YKlLapsEjKCPrdFiTF9jOB/kcgJA8TgOqKHhneFqs82kMxboObDvHie6gvxD3v74RASK24+rmvmjTM6ZouZRN5UnHba+ozq07bQBUCQRRWcgyEPXr06E89S4yTEFeRK8//UXn8i2p7/vz58hpcU4O1KoGip1Sb3AjIpc93KZnIk4okKX2PvuTxM4EqBMJQzu58VFdqkKe0+vNEo852QiBsCqmkUmS3TVJIpdSAGox2U5zYaAshkVHR+XM1A332BGJCIUNUI0wk6ghJgwvP3zngqAEiPpMHdCcEiqqrjQwlApXKR1kc2DPEekq1UVG6lgrDiFbXPDYTKBAIHa8Vpgmmw4h4bBpUWk0dZMnEtVYlENIhejhdEQkEWSRBuN8+svwx2VxTkbMnkGIjGiAmQoYjtkAtT8ZE8zmM7Ait5lUIhBrMHlwXxOsjIbl2lDQKLu6ETHyX+1M/a1LRbvzvQZBLy0AhumOaIIP3ZGTH3JdeX5VAMdq8yk4GqRhsJu47BhghDaRCukmSqA5csaOYoomN62pBKVhauy8T6LfLTpMxG6UONhGxGb2Gu8xnNdARDLrc/K4Eks21EwKJMEiwaENxXVRyJI+kiDw3VK/iPfSH+6Lv2d4RgWLawwRKBFIuiRVLSqJk72hFYpDWIrlcJxrWXQgU/78KgSB1jEvpb5KsJfLIjqOPIpDuT5JQwcnoAYpANdVqAi3+X8NbMpYzVAqSM+lxF4iItRMC6XNt0MSWqh8fPny4LcnL/3OMiwlWXVT0BpGwSFsIyuvRKyt5YibQb5CWoDUB6SQDMw+mJiPW/u6EQF22wKBOStIHOy7GevLGPsilz0MkkQO1hvThuoQtcuS9STqaQCGQx2u1Pd14ZxqsLH2YONkxpDhWIRDqIke8m6LKGOqSdNxPqc5H78V7UTJYEWjZT5CINE7eWMDr2EbcN2pR10SaRdVtAiX1xGsqBUWqMBBMklYrnotiLiKW1AUDXXOzm7ywvAWJCS2FD3gt1uzUGhOfI9mEJGqSJRNHFZfcB39nctFfXd8ESqqB15TbUgwk1t7EzDhk0AAy4Dnc35VApX1U/BZqBhXEvSPlusRzuH9ULfepakQkZl9bl+gv3qf6OmsCYS+02TySPIqrRFUigxqpVIobrZLKaKpTzk1Fb5AMovPdLtJF/eiynYi+IckIEejsn1J+bpYE0gDi5jaBKHMcUG2BUcZd4rzk+oNYV6NApdxoESEauKVkZzawZdfo2tyHtgTVymshOGoYz4rfie49f2tbD/1F4nU92ydei/GZDYHirskmt5nJZmCZWCabtEBUBQx8bRsM9kpMK0TDOO4KiQYp3yHOFCPKkAKVUSIpqrYWTabRz5LnxG/IgN8NMKhrGwQmTaBYR4PoZyBW2RvGCmXiayUOGNbR2IV48bPyajSwTYXwXaQAxj4TyL8sCKRUUypmt+A3+Z2oNnOketIEAqWal6EOWcqJSCagFAgcaysVv02eQEwi7voQBytE2yPHYmKOTTm1sTbtZi1Jz8kTKCZAMR6xdbAL+mjYGBjNXWwMCIYt0+fvr6Nxz00Bz9kQyBgGJpBhArURCM8LDwx3V/vCxtC4X6LUTSqSvuFtkiZRoX+fjesSxOy6jXpyBMIV7+t0MIxl7Ki+D6xqM/BJtZRKLPrsW5cDtEpEnjSBWDW7HWAGTiWlXDvms4h0l9IFuPRq8TUClZCQ7yuIiIcIOYgZlbYZRRLFCeyjb6u20vmHkyZQDOTVstl4GipbVckE0WgCZgTRqNBjsrRHXIHDGPeJuyaow2GikQ46v5oErCLZ/C2VkAOLioZDypKUi4dUxfQLxNOZRUTVuW4+7UO7TvCoCD6ShI1VlzHqTr/4DNfjWjHSzr3PhkBKJcR0gaSC9pgzWLzGgEEiBjBOqtIBiukoMJhLOkS+HKmNJ7kyIUxGaX87v8M1RT6+A+kiUWJSWPcBeUqqJRaVQchYmlLL47FwSrYOY1OrkZosgWIyM57gykqNpRoq69S5xznmQRwkH9xJ7CfXSTOJuznYnJUOgSCSCAGR4vFyED0nipvOZVbxXNP2ae5X6rTpsCnlw2aTTM0lpLUjgDcVSMaSfRX7zftNhNUiqp3OISB52q6lMt/ZlHNEAjE4lELUtu1uIlBN+eCpVQmk/WttBMJRaLuWdtXOjkCIXGyJf/GAtN1AKZJsTAvyBJv21/NeaV9/hozkppSFKhtmRyAMZ0jU9ZTWTQPkj4+yEmQgZ6M/QvVQkLBWPBZLXmonqbH4FGLIO1pmocKG7NQ6EPfUC/EMbGyYKD3wuFQOGystVako9UaIIpfIQqJINq4VKyjzxsNZEEjbmccGVJjiVJlASNR8xmEtsJmj3kiktug3kjtfC2mXTYFZECifrj4WEMhkguJkRyAdms4D6rPlzQaz88JWOU5l0xBjQRl6yHCu4+6rofogSc0JmTyBWDm8to5neg4FBQSbzjD8V5g8gViVQz5Fbx2IuTYT6B+osLY4yKYjelxNgT5iR9hNfba2B7LMgkBDPoZxHQHFpmN4eX9oQxr7qrZpYPIEynU0Y0LMgpcIRKZ+yN0mucapVO05eQKNWX3Rl1wbJCAR2sjDpFOuscpDdktPwY6xoZxPnDyBSEgSyc2FUGMAcRekEGUWmUBdNkzqDMdVQwY6+rjL5sJZ2EAMZK2gatOh54RlAmXVhpTSETFqNbulC1D7pUMc8lOZJ08g8jhdni+xqcgqpdTv0rbqJmJ0JW7pcVCzy8aPqYisZETnstxSv7GTKM5vKlkhFqaHxnQJqqoUZPYEEonG6ImRpsDTKsWBSpNLtr0GarVVAqLTPWonezTt+JhtRWLXJxRvKmSPNBGIeFfbEcZRouXnf0Tvr+nou9kRaMyJ1DzxpX7rWSCSHk2gPAQPi/hY3lkCIFVTScgsCVSqYxmbKtMJZaV+EynG1e+ipqW2cCxKZOP12pHCsyUQsYsxEyge1dekwppCFYyHDllvGwvtwDCB0iodI4niM8aaCJSPMo6AWJCCvBkT3DYO0WifLYEQ1XEP+zoDiUz6qkY7n88qSE+Zjs6AENMb9LNrHKjLxsdYaF/aoz8LAgHtJNBTeJp2XnYBK7h2Wmu0Vwjs1SQCE817eEuSBHyHuu0oGfSU6ZqUiWpNhfXaHx/JgmuPy146+o/3CBPogSwY2Oz9bzqLOu/cmDSBlALAg9HZOZAI9UZj1TMAOvlUE4fNpCI0PhefIcYKJEaSn2Coz5C8xeCFaHxeUXBJE74vaQiJdIYjEXMdJ1c7RzoeVVxLejL5peeiimS7PZomE3Hy5wPFeuIuB0nKXWYi8iMQ8kCxGpEKBOj4PIczMEHkoGgxfCC7QocTqM5H0eEuz8XI6qdr3/pqpXDI6AmUBz9n3bXC1zXIrHqIBZHYMpxPiOV9iNrlMQQxQFgyfNfVN+6/FkuLe9ZGSaBcjZcfTymM8ZRUAn1djGNUMRM8RN/aTmnNdlrbc0k2jkB5411+rIAxHEremmzJ0RAoPlM0ilGTaFjgIGRvbejFO9ielJLXouehk4VepaTTrblh/GPQlwz/2uEMG08gdPQqRqnbMDs3hi6ZGXRXHKrMJPo3DZNhHVWfg2+rJOjX5Vmjbv011FlbdH40BIrSCHeeoOC69k3NpTGejCshg675t9ERyJgmTCDDBDJMIMMEMkwgwzCBDBPIMIEME8gwTCDDBDJMIMMEMgwTyDCBDBPIMIEMwwQyTCDDBDJMIMMEMgwTyDCBDBPIMIEMwwQyTCDDBDJMIMMwgQwTyDCBDBPIMEwgoyf8B9aVmMWkcEDLAAAAAElFTkSuQmCC'
p33
sS'version'
p34
VV6.0\u02b2
p35
sS'uni'
p36
V\U0001f371
p37
sS'desc'
p38
V\U0001f371 Bento \u2013 a Japanese combination of rice, vegetables and meat packed into a box for lunch. 
p39
sS'browser'
p40
V\U0001f371
p41
sS'annotations'
p42
(lp43
Vbento
p44
aVbox
p45
aVfood
p46
aVnature
p47
aVobject
p48
aVrestaurant
p49
asS'wind'
p50
S'data:image/png;base64,iVBORw0KGgoAAAANSUhEUgAAAEgAAABICAYAAABV7bNHAAAAAXNSR0IArs4c6QAAAARnQU1BAACxjwv8YQUAAAUWSURBVHhe7ZpfTFt1FMcv5U8Ho7SApWthxdktM7ghgxnHw8yiI+hAfVD2N8aH6dzT3IPRRKcPmBnRJWbZ5t8Hs+imjhFdmIlmM1EwiqEDMgxaocsGBdaVAS3Y0tIW76GHWtbb3nt7bwJ3OZ/k5HfO73d+hfvl9/cWhiAIgiAIgiAIgiCWG2lYCqGGtdURV/EMsXYp4srHN6zN3SUGzyIIFZZEAkggHsSsQTAsd4KzWZ3JHNFpwJWFk57p9su+wNbvDAVYIy9dM7MXGt1TT2MInGNtV8RNDo0gHkggHkggHkggHmRfpNNU6e6ShoZxY+0T0QR3X9/MwIcn0kNerxGrFhG7SAdrCxj/Qc60KGmeYF/O87Yy7+n1fXN5GWVYzUnWmVt9vV+O9C+LRTp/80P27dZudeXxU2uMO+rvWbD7X3m1pP7akPG+F1+6gamKQTaBDDW19kcu/mDJMRWvwKo4Nr79TumGxqMjGPKi12x0PFnx1cze6jam6t5DE+yv68amO1C5oR3yIB/6YYNkZBEod906+5YvzlowTIrlwEETiIlhQtSZOkfNhlMlmuyI4OuNz+azFphvvAOoh3bwIR/6Qf/5RonIIlDViY+K0BVEedP7xbBWYciJIa8iA90ouepVcXUAVz1X/1SQLBCMBl3FJlHHapiGa/a/MIkhJ05PTxDdKIHgVBjdRUz7b8bl3p62cY42sUgWyFRXl4uuKFY/05D0XuGfnSz5Y6DJiSFz3XXZ3es4zTkqbKPns6AdQwb6/esfNWMoCckCmXfvM6ArChh1ar0+6a5md31vOPv7NneL9SnHbwONWoYJs8ZFWAvtkAf50A8bJCNJIL4H5ENXURk3NeIJa2E0YbAY16wPzkQLFrg95knzBIZj65jxgBqzU0LSQRF2r8faOwTtXlz0vvn6jWuffVJKt3kFQwLxsKRTrOO5vXbnpR8tsVMs/MBKxr+n6AqmcKJy+dPUx0cq/S+busJ6NbxjTkjmeZfxasdE55JMsen+/pTFASZ7uuK27XCJmhUppyqZhSo186drKLnaY21ubXbS8xYfkqfYrbaf2TuSeLwjwzN+l6sUQ050OZZBuGM9WvbBtEVfFz0TcQHtkAf50A+rJSNZIEdLc0p/odGLrePocpKuUjt3PPi5Ge5Yq7RVuQ+vfc2QSCRz4bab0A55kA/9oD82S0K6QM3NBTAaMBTMX+8eTbr+FeVVhNCNoltpyUJ3EXpNedxZpzi/OunaJBTJAs2FQ1rrgf3DGAri72PvORK9PFvAFxgTfBfjqvf4hpbHXQyYsHZa7J9+LOg9D6xZtmNN3CfjGCa9dvOV6yddGDJTvuGZf5zf+jBcBNRDO4YM9IP+GEpCFoGAP996wwQjA0NOBr8+4+zYvVPwz7SNntPD/epC167B1p59/kRXDqhv7dmzAvIgH/phk2RkEwiAkfHT1i12ECJ2XYK4rf5xe/fhQwaYklgtCHj4yM080UX1fyAv4b0tReibVR5kHUF3IyQQDyQQDyQQDykt0oXpKmZTVkY7+HLQEwiWjYXChduzs2T7zFiGZkMmWzAUe7EWvEiLAQSK/Tc2JRs8iyBoivFAAhEEsZSI2earWTsccRXPEdb6I658lLPGtWUq0QTf+MWMIAA+XOnASzjB/64jdpv/BUsl04KlIMQK9CuWSqYTS0GIFagbSyVjxVIQYgWSfeVfAkR9qSh2kQZgN1MyV7EkCIIgCIIgiFRhmP8AJ12zgG4HzRQAAAAASUVORK5CYII='
p51
sS'andr'
p52
S'data:image/png;base64,iVBORw0KGgoAAAANSUhEUgAAAEgAAABECAMAAAAV8YMOAAAABGdBTUEAALGPC/xhBQAAAAFzUkdCAK7OHOkAAAMAUExURUxpcS8vLy8vLy8vLy8vLy8vLy8vLy8vLy8vLy8vLy8vLy8vLy8vLy8vLy8vLy8vLy8vLy8vLy8vLy8vLy8vLy8vLy8vLy8vLy8vLy8vLy8vLy8vLy8vLy8vLy8vLy8vLy8vLy8vLy8vLy8vLy8vLy8vLy8vLy8vLy8vLy8vLy8vLy8vLy8vLy8vLy8vLy8vLy8vLy8vLy8vLy8vLy8vLy8vLy8vLy8vLy8vLy8vLy8vLy8vLy8vLy8vL////+1sMC4uLi4uLy4vL/3CGy0tLXV/PywuL/BtMDAwL/FtMP/EG/7DGystL+5sMDk7MXR+P3aAPy0tLzMzMysrKzEwL3J7PkNFM71dMDo3LlZLK15eXvr6+lZWVjExMTIzMDYxLzY0Lum0He1qLoKCgmdwPKeFI/rBG6urq//+/v/9/O7u7jk5OUxMTMvLyzs7O8HBwVo9LzY4MTIwL004L2BnOolLL/O7HOBoMP/FGnh4eOPj4+VpMLZaMFJWNzsyLz05LehqMGhBLz9CMzkyL0ZKNEpNNZxSL9tmMPW8HEQ1L0dALFU7L6Ojo9fX16ysrPn5+eDg4DY2Npubm05SNtNjMIJrJ3RFL/C6HJNPL0A0L8lgMHhjKOprML+WIZt9JN6tHntHL+zs7NHR0ejo6P3t5khISEBAQENDQ/nPu/718fHx8aCgoL6+vvPz82RkZK+vr1hYWGpzPGRrO11kOXBEL19RKrJZMMqeIGZXKfe+G0c2L8OZIEI8LaCAJNZkMGE/L9ioHrKysmdnZ9XV1fjHsO95Q1FRUfrTwO5yOcXFxf759va4m46OjvX19fOedfKTZ4iIiN3d3ZSUlG5cKVpgOcBeMD4+Pvz8/NCjH253PbmSIXWAP2lYKaJUMOlrMG1DL4hvJsFeMI5zJmJTKs5iMEtDLLOOIqRUMPvh1Pvf0vCGVfa0lkJCQnt7e+1vNO1uM/fBqM2gIGZAL21tbYFJL2tra1hdOHeBP5J2JUM+LVBHLJB0JdSlHzs1LuayHT0+MkRTSL4AAAA9dFJOUwBItBb87vMH//YOcAQDAVvHIQrXE+Y03tppJbW9XsAQmkSlT6qgVmSVAhnEiDmNes4p+ro9srEcdIAohC0eWI4kAAAG50lEQVRYw9WYZ1gTWRSGUYFcREVFEOuKAoJddK37JDPDZIYlHZKYCITQVUQhgICgdBCxC6JY197W3nt3XXvvvW3vfffZZ+9MMskkmSjl134/QiDJy3fPPefcc+Pk9D8Xr7Ovr3f7JmOGe/j5uLh69WzXJEr7/qMHBQNaPVs2mtKmXe9hLoCRa0AjMR8MHeAZDFjq26IRlFbtOg0xm8GMP4Ld2zTYTLNAH7MZzFCiND7z7NwwM4Pdu1oiA7BD5WNWGYzPB7RqiJkeHZ1NCHpJhnKSPJZB0H/x6l9PSuvB7t1dzV40BRRtSR0pKEwjMIKA3J7t62vGsiL9sx/v1egAVvlKIsmuIkrSjlfCFOj1fjOj3LsyZlCFQiG+WZuTE6tVYNPHkGRd5ZK3ecvq0gjQtUMDzKAFB2qWahNDoGrEGLaYJPeVlAskgo8fG0Bwp3dQgmDOWCID0JkPZiQdrJ0COaLlr/XiqmPLVh3PlggE5L4YDAxyWHLtWQmMIPBB/GhGCKOklW+Wao6vWvKWhJzCX+CrziNbc2JaBPh5MVbw8EkplKMj+0WQERZGo3JmPMPEVRWkRFKdVULlQ0dvjqLs7N7XzbKmscmnL2yDnoilB0UhsYeXr0yiSGEnZoqfLhNUlGeYSiWQZ9doBnoaUw/Bo0MjIrbN4/P513dEA1zzIPaoVqN/vYJeY+0B8aGsrCoDYfp/Lr42bS+grSk0yIb45C25ubP5lKZOvnEHn6kNJY5oX/5dSwX8hJbKRjFKrRqlHodZNSbeSFdTePGo1Lt8liIXAFSsTfwnlvITFpuoDQVAqS5NR0GoVC2Fn3HzYIOaudJrmnQHCT/Jt1bqJIRIzKFiHVb7Zq8BekGLVcJdxag0QbYL8kDbPqwSD6Q4KdcupCYnf2oD2jofUSydIhKJag/f1Ct0UqlOoRYK5TsX3pIJZWUQFDzC0ph4zSEo+sZcPoe2h+OofsW/JxIPaAhUmnn/fmbZQpVQKJTJIO43ujENtgLh6+Zxcfib50RFo5rXBQYFBtBpkCCXURyjFto0Jhp0bgKfW1PjQ40bBNCFQrlQplKpZEK5HCITpKh1Y6JAyDerHYD48yYipsKTZu6aVqpWq8um7U6QyRKKFUq9kt2Y6BghW8Y5AF3+NYLpSzqdkhbA0kvL0tG/Eu8dLUAtjYkG4ds2OwDN/dkEIqYXLc4fA5VfvqgSJdCCwzlhSX/AzGIak9FRylYHoAljI4xrS8vPk5BGLavLqiT0Rw+GhMS+VIDg3iwQwE85sDR3QdR8SMJ+qiZhIzKJFDwvAvoVB0NE+/8kwKDhLBAy/yQ7SuM2fc48vTvhUjRs/LdJAVtkxSqgSUwKSVphAM4D6azkfWhsQWM/sXDWXrx65YdNrI0j0rIlViCBJHsRemQ5XNwjBfAcRZdID2Mww5MtnKuCuLjvrzCkyPgIIq3CBiQgq6vE2pUi0XINCoyF4g5sLW2k3hj32Xnm9y04dYIIbEmPDeiLpJApe8XAj+5wQ02ncvgc5oNn4mjSRcbRNRwQiwrtQMcyxK9X5tRCUBc6KVt2tbX05dk4ytFGJgN2RACjJXrzzaQnewhlzf4XegwMM/bc3sE2lsaf+eo7wdmvmY2L3A7LhNiTR+a9uj3mefUTJg/ILAwoNaGwTPoZz5MWbe2itPb8xi/GW3Zx9lgci9mTVXQoRhmTsSi/kCJJyOwi2LypynVjJjg7S3bamoLAkYTQpStRQjx9cSEpIfPyi0wjDvBhpqU+9pZsdHoDDl8vzkwo0xWr02MWV1Tse1rCHCbAz9yTzJaSHTQB2LwBCL31uzBzt0qVUBqTkRFDYOZj0DIFmC1FreEGTaZAAPZI2cOHctU0QGAWDPBinbidTJaiZ3Fbujw5CoetLUEul6sy1TpgpSGs061Fd8bSVP47PKl37txdqkOtOdbzjQdz8i+466jlUuGWSpU2GBDc02ri6sCk98Tr3GtbEE43bluMs+dAm+GdsYRc4rAUmZo7HwH2cuvrbjdtMZaQdXYHSuTq+PU4B8dlWADXVaKbyRIeb33ozl0dvwHhwHj5+3JfksyW1qeyz9rJues5MM6e/bx5jkZIi6VIBrNm+6mUCHuMW9sRnYMcj7QdujNROm3CzNoRzoFx7eLR590jtnnjvr1MY6KiOULs5d/svffHll1MoJSt4+ZRGPsI+7wjNCz1Mg3ryLnciQDnDE39LnyMJYBE2GNcunTrU+8rWi9X4ED1CQ3bUnNOCsya/ryGXWGbuXAXVFCDvyXwsy8oj8bczW0tdezh28hvHXj+rJY1aOBHrZwaK28fy3YPb8p3KW0CqJuoc8dA35ZOTVOQ92j/wN6DWzk1XUG8RlD+A9O/y8msrr89AAAAAElFTkSuQmCC'
p53
sb.