ccopy_reg
_reconstructor
p0
(cemoji
Emoji
p1
c__builtin__
object
p2
Ntp3
Rp4
(dp5
S'emojipedia_url'
p6
Vhttp://emojipedia.org/white-frowning-face/
p7
sS'index'
p8
V40
p9
sS'code'
p10
VU+2639
p11
sS'apple'
p12
S''
p13
sS'twit'
p14
g13
sS'gmail'
p15
g13
sS'related_to'
p16
(lp17
sS'name'
p18
Vwhite frowning face
p19
sS'known_as'
p20
(lp21
sS'default'
p22
Vtext
p23
sS'bw'
p24
S'data:image/png;base64,iVBORw0KGgoAAAANSUhEUgAAAJAAAACQCAYAAADnRuK4AAAMuklEQVR42u2dL/QNWxTHJwiCIAiCIAiCIAiCIAiCIAiCIAiCIAiCtQRBEARBEARBEARBEARB+AVBEARBEARBEIR563PXmvfu+62Zfc7MfM+fmbu/a015ePfeM9+zz97f/ec0rcMxA40vgcMJ5HACOZxADieQw+EEcjiBHE4ghxPI4XACOZxADieQwwnkcDiBHE4ghxPI4QRyOJxADifQXPz8+bP98uVL++HDh/bly5ft8+fP20ePHrX379//3/P06dPNn71586b9+PFj++3bt/bv379OoF35ob9+/WrfvXu3Ice1a9faU6dOtUePHm2bppn8HDhwoD1+/Hh77ty59tatW+2zZ8/avb09J9BagKXAepw/f749ePDgLLKMeSDm5cuXN1br+/fvTqAlgaPoxo0bs62L8jl9+vTG8nFUOoEqBLv8wYMH7YkTJ6ohzdCDNcSX+vPnjxOohiPq6tWrWY8n5THH8YoT7wQqQJyLFy9unNilEWf/c/jw4Y31/P37txMox1F16dIlKXGOHTu2OVawZHfu3PlfyL79PHnyZPNnt2/fbq9cubKJvHj5yu/B5ziBEgC9hZd36NChWS/p5MmT7fXr1/8NtxU6DpYDxx0nGWLNdd5xuJckBVRPoE+fPm0WdcrLwDfCskCYnL4G0dbDhw83VmqKteTf3L17dxGOdtUEwupMeQG8uMePH1fhV3z9+nVDBo6oKdbo8+fPTqApqjFq8Vhrg/6D2lwjsCavX7/ekHvs7yJ94gQasWPH6jn4NUtSfN+/f79x3Mf8RiK1GnNvVRGI8PzIkSPRi0pEtuTcE8nbMZsFq1xbuF8NgTh6YgVB/AmOgzWA4/rmzZvRvh6WqybxsQoCoX/EkgcdZqmimwWkADL7sc51LSRqaiBPzO5DA3r16lW7ZrAx0JKWRKKiBHrx4kUUefATcK53Bffu3Ytal7NnzxbXiooR6O3bt1HH1oULFzZ+wq4BBztGeScnWJJERQiEUhtDHsLzXS4bRUSMiUpxwneGQFgTclJOnjiQyokhEQng1RMIQsQosegdTp5xJMJnIpJbNYEolwiRh+Snk2facUYlwI8fP9ZJIJzCEHkoRF9LqWcqSxRyrAk6VkcgdkUoG33mzBknTwRQ4EMbkeK3VRGInFXI9NKo54gDidWQP5RrPZMTiBxXaMesXWEusSlRtBdPIJzhULaZjk7HNDkktLaItYsmEHXCoRrlXVSZVYAg1vrSvp06ok1GIBKDIceZwirljqT2GRkAYpLZJuGIpkTOLaeDjv9BTTSlF1gJvgt5K3Jc1Dwpwe+11pjfvkgCsYAhpVkFoo4YjSR1uSvZccpqQ4lQ/BdVJp0ks/V5bKaUVqhJZX2sF0o/lUrwwocaUxqaakdSUhtbz9O9WFWkRNG+9Vkp+82SEIi8jPWD6LbIsXBDj7pInQ0zpS+ff6MojuP4tpocOcpTWaEkBLKSpexSheMcMt2h40zpvLMhpjYSqqLQ0HdQ+ptJCURCL4c5pYRhTgcoYpwCOOdzWpxVoh/fw+qKJZhYBIFwjq0eJ4XJxhyP6d4Y8kEUiEkthB4CjtRHOmufogRWSiBerLULVOaapKJioIFiQWMqDGLakxQgMLGSrSlqhqQEwjm1FooXrwDnuYJAiqPDsrhjhk7l0IWodqiaQJZfgiqqAmKcgkCKbta5vpi6BMM6UrFOauVfSiBLB1E5rZ1gN3dGED6BIrRliMNcAiE+Kt0Iy6lXSxgyAlExZy2Sui2H+qEa/I7Q74551NUIEDJXAb6MQOShrFZkNebufGVr9NT5RZ0mpe60RSqxdLgqCWR1VKZw3tA98KumvDS+q1KZJcc29UhNMbqFtinrM5V10zICWZl3yjpSgIUaO1IO0qXQQ6ZYRLLzqWDpZErSSgiEZ2/twJTtJvhWsUlMwuWUgxnYKDGWiL8D4VLCqlhUCZcyAlllqyxW6locCMxuHrKCJC15YTnahSA0Tmxf5y3/jVbkHP1bVm5MWe4qIRAlEjn0n9ioqLt1B0e51FAGNg0bqxsTTPVgzupLq1pR+U4kBLK6BFIl8Rw2EEmtyK8qAlm6Awk+R35wXFt+mOo4lxCIc72GJjdHfCSmGkoqIZClCnvPVzlYAqdq/rSEQFYYnaoSzhGGNUpY1WAgIZAl5qlKOFI6m91VmIS++HOEuSx+95AtJxignqm7jIWNUftVTVZ2QFUZKiGQJZ7V1vOOkMixClFiBl2FBEGObzQowubahkNYtUpVESh10ZYCWBl2ZMrL6XBayXbXcr+FE0gArM2cbPnUhwRy6ePbCTQDVC3STlzyNkKOOAajl+r/XwyBrELu3KmE7nK6mq7DJMgoMb9wMQSqJYzH2s11jFM+yix4DIgeUxfUSQhkvbQcM2oA/kZNd8XnKmabqgOpLGKTmumUuuaIsObep7o/msKqbj/K6C3XMFEreFC5FhICWb1IqkEKluWZ0lqMjwTxSfZCco5ajkDrxeIMs/D8Xf4NwiKO+hR/K8cVBZZFVn22hEDWiBXlHKA+n2fMXaRYEb4PJZ3KyIjvAaHGkomNlzKYsPrDVJAQyBrnwmT6FGAHxYbpVCTmurkZCwVJY4mUqrTVajdSdmZICIRYZw2TSuE0xgyW4rNzlbL2EQlfJ+YoTRHiW23mHJ9VESjURqLWglic0A7H8tWQ7KS8NjRJBIugJrlVE81AiKoIFBITlSPWOLpCXRg4xjXdt8EGC00wUwcbVpEfpK6OQNYtPMp22tCU9lLXHoWA024V3uHgK9M+ltVTJntlBLLm5Ki6ADiShkJ2XkDtNzlTSmL1a6k2muVScFIorbOMQKHeMEVDH4nJHGY5JXh5Q9Ej66TwFy0rrb4CoVHuLkvQm/uCrUmkJa98nAJ604d+i2KKmyVvqI946XwgyzzPHacydG1CDTcXKyNJiDXHWlv9YCnKa6QEsgTFuUMe+2R5XsDe3l67VAyVW8xphaK8NmeXsJRAEMRKOk5NrA6NDk6ZJskBrEWf/DFVvQ/djpQiLykf82uVEPDjpkQAfaqz8rqEkhgS/Kb8NmtGQaoOGTmBrOlYU+tQ+o4vIrI1YMhqTznGLB8UXzEF5AQKRWNjnekhp7DU1I0U6JstMDZfhXWx0jup6rKS3JURGn07RvDrM8uqAZm1oG9w+tgktBW68/9KVdifhEAoodZuGHN7TN/4/jX22/elOWJTDqEB7yknpCS7cC40wT02wbo/x5bqzofS6PMdY8RXNmIox8aGXhyBQvOTSfbFRBr7w1zltQA1gbXYb7VjhrOHboZUlm5kJRBgIMGcay9Z1NKtMSWPsdB0NwIJq4wG3ye1tW5S76pQt4Q1cpYFSlmKUBv2q8hW6M3RZXXDpByvnI1AIFS/A8GG8jNIAnRAbD81FYql2HDbv9W64Tl0zRS9ejlyhMkJxAsPDTfAr1kzMdSAXKGS3hQT8IsQCJDwDDXmrUVZTg2E1VArk7rmpziBQMzFtD6Q0wZiYOh+EMiVU+bIRqCQXrG0ysLcYP2suvOuvEU1+7A6AgEErVCLC0ddroEMSwHOsNVlUdKCN7k/0Kqd3t5JTqL/yGNl2UuX9TYlPjTGH8IS5YokagUyRozlIYotVdbblFoc63qEbRKRjd9FoAlZxXnbXa0lc4NNyUWK6R3v8jm7pBOhtoc6WbtURWllviiBIEXM+d7VAK0xC78fZOVjhmVBnhoaCprSX2AMiYjgau8+neMsxxzrNZGnCgJ1JArVD+3P4q+hoL4DEWfstZ3Uh9fUytTUtJBW63KfNSo1+0cFlGWsTuwwKlTm2mrBm9oWFVKMGRNHopYS1yURieMKKWPMbEdU/BqtblPjAkOIkGLdt8DoRjUTCV0HJzkmwqp53lH1BALUCIUSh6XnIcaCFA5SxNhRxFgo5XCunSJQZ+pZ+CljdBEhie5Izqa8K34ItOpQERiTQB5Sl2u7KmtxBOpAZd4Ua7SdW+Pfky9iR6sdUY4XCMNwCeqYxx5R+ys0SYouxadbBIE6sLBThooPHQ/kmSAVDi3HHuE01X4QjN2//aD48mfoUHwP6pcp3MLCqKbkMzd6CVZnsQTqQl+cypQXx+V+IOFSqw+adqGgtBMrsGQiLSFyXC2BOhBt0Ss2x+/IfQkdSWQszhoSxIsn0DYoViPNofKTlA/lqERlS/NxdopA24IdRwNpghL3pXZOOjICkRnH7VrRtDsAdj3qNs43L1V9MR3HEo18RFFYmbU3QO4cgYZ8J6alQSy6Z0nkcvzhnyDi9T0QBGETn4uwHyuH/lNCqHQCOZxADocTyOEEcjiBHE4ghxPI4XACOZxADieQwwnkcDiBHE4ghxPI4QRyOHrwD10f7eo5SBvSAAAAAElFTkSuQmCC'
p25
sS'version'
p26
VV1.1\u02b7
p27
sS'uni'
p28
g13
sS'desc'
p29
g13
sS'browser'
p30
V\u2639
p31
sS'annotations'
p32
(lp33
Vface
p34
aVfrown
p35
aVperson
p36
asS'wind'
p37
S'data:image/png;base64,iVBORw0KGgoAAAANSUhEUgAAAEgAAABICAYAAABV7bNHAAAAAXNSR0IArs4c6QAAAARnQU1BAACxjwv8YQUAAAXeSURBVHhe7ZtdbFRFFMfPXKxYpIIlpaiExgYaoeySYGktGo0J2AfwAw0lEkOMhYY+tAmJKEmNH4gPfgT1RQm2+uJDaWxWoz5gMUKM0K6g6bYoKqUBeZFisbQpRrt3nHP3bPd7uzP3oy3OL9mdObPJvXf/e+bMzJlZ0Gg0Go1Go9FoNBqNRqO5vmBUegoPVT7GGTwoqiuAwxzG2NrIJzE450OiOCNeF8SrX7R8afi/P4GfeYlnApmhNdXidk3AWJW46Z3ULAUX0oq3z5kRPshWnkLhXMd1gSxhmPG8uNGj1GSbiHexADPG97otlGsC8b67l3DzhhcZgzpqchwOMCDe3zd8wTepyXFcEYhizCsMmJ+aXEUI9Rlj401ueJPjApmhyn2iaBCBtzDS4g2R+MR3Oh3IHRUIxRHCNJPpORibxBeqY/7gp9RkG8cEmmpxokQCON/olCc5IpDZe892BvwDMqcc7G6MhR92IiYZVCqDoxVw83UypwU4OHA+q5VMW9gXSDyI1wE5F4RI62jAsIUtgczeyt34IGS6ym/n/4aLf/xDVs40WB5uA1sxyOytOicukHHZgF8q9OsYHOkahm9/GIHTZ6/RJwDHPy6H6lVzycrOlmfPQvvhP8kCeKDiFrhvdYEoC2B5aT4sLr6RPklFBO02wx98kkxplAXKNmp1dA7BS+9dTBAknvKl+RB4pwyWldxELdn5MDAIe97+HQav/EstidTWLIDm+tvBXzaHWpJg4yWqAVtdoDTegx6z4+UBOHbyKrXEKLo1D+o3L4QN98/P2XPi+WskDF8LT2w/PJTgTfE0198B+xoXkxWDc2g1/N3byZRCSSBcSohVeYDMCRpeHYAD7ZfISgR/5UNvLSVLHRSqbENPRm/q6fCleBKu2QxfdymZUigFaXHDLVRNYNsjRdC6txS+OngXtcTAXx09zC7oRcniYJf9ZP8y695LbptNrTHQ060fVQG1UYzBCqolgF3nmU1FULwgj1oSwYBtlx/PpF4DY90T6wute88vmEWtiXBgG6kqhbRAOGyqrtKHR8NUU0fdC/lyqkghLxDPe4iqM43Ufp8DCl3M9FElI/mzI5fF+QrGBSwRnLPYpebeeVa5s3Yh7N9dYsUfHCEnQ3W2Lz2KmaGqllyyhNgV4uc5ybYqOIqNjoUTJoe5XlvEoR2Gr6uFzJxQC9I5kPzAToiDYBBOnjk7de10uCbQ9YIWaBL+VwIxbl6mas7IC8T4L1SbcajkqhU8yLhClRlFZA9NHmmBZIfJ6QPvp4oUSjGIc36cqjOJn6iUQindYfZWvivWY01kKoHp05/PXYNjJ0esid7p/rGJBBumRhCcNVeU35w5ESYB5+Zala0gNYFCa6oZM5S8qPPEMLR0DGZMeqUjmmyrrSlUEgu3gQxfcBWZUigJhAgv6pRJ2KMwu944nzENG/Ua5Jvg1azpVcwaysyeRUh4zfAHXyBTChsC5bZZiF3pqT39KWlYXMA2bi2GKv/ctEl3XHNhF+zqGYXWwKUUYXGhumvbIrIygzutQpyY+pIoC4SYocrvxCo55XRYFBRn9ea+BG/AvDGuxLPtRKQjnQeiyEc/yp7mseM9iK2ZtFA367mcoeHxCXEwLYH5YuwesuIg66vnQV/Ab6VPoukN9Mpse2VW7LEhDmLLg5DJ0h+4BYSZxMfXFWZMh8qCox7us2F+KesOCeeb7J70sC0QIgJ2j2oa1i3sbPXEY6uLRcGTFBgMyZxy8MSZE+Igzgi08tQF4Yp100GkyJynW2mLJx2OCIRgX59qkYQ4R9CbyXQER2JQPJFjv+yA1zHJ6lYOek4UxzwoCq53KCa1UZOroMcKz3nODXEQxz0oHpxti/dGt7wJvcat479RXBUoinXSi7Gt4mZKf0FIBoURj/6FF7kpTwSKEjlgzp4WVb+sWDg6ieKo6FNtXv6pxVOB4rHEAqgQj7AIGC8RCiTmMRgbFG2XMQcuYtohN7uRRqPRaDQajUajcRaA/wBWBj/l2duwMgAAAABJRU5ErkJggg=='
p38
sS'andr'
p39
g13
sb.