ccopy_reg
_reconstructor
p0
(cemoji
Emoji
p1
c__builtin__
object
p2
Ntp3
Rp4
(dp5
S'emojipedia_url'
p6
Vhttp://emojipedia.org/department-store/
p7
sS'index'
p8
V424
p9
sS'code'
p10
VU+1F3EC
p11
sS'apple'
p12
S'data:image/png;base64,iVBORw0KGgoAAAANSUhEUgAAAEAAAABACAMAAACdt4HsAAAC8VBMVEUAAAAaHiBFRURlZWVhYWFoaGgKDQ4bHiIATW9qamosLS1SU1NRV1d1dXVDQUBoaGh/f3+TMCAAAACQk5NYNDcAZJAALUI+Pj48PDw8HyMAO1cKCgoAO1htbW0ARmZZDQVJSUlYWFg6Ojo6OjpNTU0AIDFLS0uWFAEAOVIyMjJGRkZdXV1WCgFra2uQkJBeBwCIiIjPz8/T0M6Xl5fT09LX1dRlcHne2NV7iJPY1dIlKy9vfIaIiIgdHh/M0dSJiYo/SE6urq6np6cAYK8RcLTW1NKAjpiGq8ZCS1BDS1BaZW1bZm5mcXo7Q0lGT1YZGRolKi8PExZOV19RXGNiY2R9h5I1PUOKjI2/wMETXZoRY6eGpb4kUnc2cqGLlJyGqcQRa7CKpryGqsVOaH+Gp8La2trZ2NjMzMzX2Nfb3Nvh4N/d3d3W1tYAUJXd29rn5eLi4eHV1NTj393e3dzf39+Gk599lanGycvj5OQAM2S0tLXm4+HS0tGqs7oPO1/m4dxWbYAAXqyqr7MASI6SVl3r6ehOd5fo5uPT09MAKlsAXaiDg4P/HwCksbwkX4wAJFEAXaf5HwBbbn/pJQawsLAAZLEAoehKSkoAQ4ABMVwDT4gkTGwALWHhSjKHh4fJycmprbIPNViCnbKzGAK9HAQAfLJubm4mW4Vqeom5u70AR4S4uLgxgLng3Nr4KAXxJgWYoKcAUp5ejLJ9ipZjiKTq7/DwTzXxHgAFTYMCQHnN0NOzs7PnHQAAWKR6j6CLi4uYq7nu7OtObYgAg7qxusIAM2tWZnlWaHwAhcCCj5kAp/EsTWrZ19YPLlGAgYLe29hTU1POzs6yOifx9vf3UjbDxMQxcqeFT1UAldgAeKvNFwBvQUcAYYpvlLBcj7oqaJa2ur4AWp+8w8menp6iq7Orq6vQ0NCdnZ3x8fFclsCzxNJXV1dGeJ8xebLGxsaVlZXeIQMAOnKFh4csR2Kjo6NCWnCOorJeXl5nZ2cPOl8QWY4g2waJAAAAMXRSTlMAyRDJye7JycnJyckR9yDJ9Mm9ycnJycb8ycnCn8nRycnvEw3Jn/bJ0Z/RyfHJyfHx2Q53ewAABtlJREFUeF7cjlVzW0cUgDWayYyT2EFwA3WbpEnTNm36p3Yv8xUyg5mZmSHIzMwMZWaGp55dgyTbmslzv6fvnKP9riz/D7bkrV/3NmH12g+AtavpsG593haLZXvh8vdy8dY7M4GiJ48f/Uxo41iAa6PDo8dPiiyWbTsLSnJws//dmUDe5avRqvHx8ar7974G7t2nQ/Tq5TyLxfra7b9y0bAsI1A6P1A6HVixs+DX9sUp6S98lcCqDt5cHGHk9dnAufpo6cTExKGDB84ABw4egqE0Wn+OBhie583EGUKM59UYNafJ88LQIoEYMC/QAR9zfnzFZrNd+VzlhUkbMYcz6x/01Uerampqjrc5VcDZdhyGqmh933RAEIRYsMLlcqVaPE5vUytYhS0mCNzI+zOBXc/7nj3t7e3puRv+Agjf7enp7X36rO/5rrlAXCquLJ4q19WjzScqK4sj3VmBHRs2bdyz+w1gOYXY7j0bN23YQQI/QkDpfjg6OvrDft0Uvx8FHpZ5MgKUNWtAFsyzAU5VPAROEDwUnnvVwLZVHRxgmBSwaRHA0MjSmcB2a75182Zrfn6+lQCSnld8yEBAYO8QNHjnpYaEzEDh1iUFwJI06XnrT14IJAZv+P3+rj940/tbl9//z43JBMfhdKC/pP3UqfaSNHPzzb8/00gg3ihJUmRAN+8ckYAj9qzAsobvcnG7oRZBQNk/VVdXd+Ij3fzy3xCY9KcCAfds4M2Sr3LyO4MA7ui3BAfHoU+pJTmE2LnA0hHM5UJAFEMnGGA6hUNZATeLEDYSiqIkPGAqNR5jTqFwGPNUVIyRh5qBMRYzAiLGpvtiMBi8NKghY98lsIuTvOCoDgLVDoGfpMd9BtIG6dFtLggoJ1O/AC7GMFougLSeVXgfXaV8vHK2FeRCi2EwLro6qWQGVh7TMA7YI6FQqLiZkW+VT4FJ8YDuGw4Bwz49EJdApspvyUxzMVjEHsBYO7YyHWBZ+fzeb4AXSYy7X4LsPS0jB6zAHEg+TexlN8bJF3R1XmbZrIAoinKAoLOiqFMbE0UcoGBRHKOiiyI7fZThwfwANgjkgqgh+LVBYTNWokwNLwxgpjMcDne64dkQtQeY9YbBOsNeFj+gqyFIuakxeEFAtVU0NTWluhgkXyNWUa0aPhAwn6FW09U1GTFdKWI2NStQm9Q03T78CXDYga8PSCCRuD5W1khWjWVjejwCIg1cx47DZDVs1zUtWTsb+K/bsvlp44qieBGRI+UfSJYs2ACr587EQFpMbAYDCR9JTGK+8h2/jWtpNkaN3s4SmmKZVBESKa00bLFqycgsgMrIimARMfJoFu42CJvJwnQsA8k6972Hggc3drPtWVyfc67nJ400i9u8SGQ5+Wmir6/v8XusaUeT4CbXk8EdWvVN7AST66w60jT8/jGtPiVlmSw2fwGYiqLIWz0gAo70UH2ptmSwPbYlq0wbACQyURQzcv2qFhDSmICtcQHpq1XIDriJCHmROtnb2zv5iGXtNXOd4dA+GHD7oXAnq15rMv7IXOoFIejmOcAgJLm9m0gk3lTyoji9Ca7yVg8WaZXYLQb1txUwm9OimK+8odV2khDDDtAjUa/XO79sSV0LGXBrc7oWp5U3Gtf0uTUwmYUuyVqep1VErwEIB1M+n+9RFhEh/hzc1I4kzD556vM9fTIrSDt0+TwuEJR9RJcHgh2ATRMJLibTNDVmRGQSXhETicxosOSVgEwTXwAo4bCuh4MACILRwxTAqjAF0IovWaXYAYcAUFbH0+n0+EODCCnmVhRi9adB/RZRVliVEojxkLlVBQCHVQCE9DQ9Af74LS9Iv/8C7tUzXSxCBa4o6s/4fSAJeX4fpHWEbADDcG1H4QTIbASIc2EN3E9zLqmY+BWUKEqus/vASQIbGXDRbZdhVANUjKUsOwGOLORc/wfc3xGJ7M/8CZrZJ1KE3wdOZB2xZVbCWLUDsLOLSjKAxZyAMepiQhgLfImxwZdOXAtAXKZp2lxNxVULsF7+9fK/Cv5qVQMuUYDnQ+Eb9MFDAZeqAGq5/P03qFxWqwEeFVvumPsHkJvP41jsuF6OuS2ses4BFrYKS6M/gkb5vFYqXauXlwrwSDVAtQL+O91jY913+CyVy6V62R+wVDtANWK9t69fv93LZ86ycvVyzFAvAoQH997197+7x+cDRamfhRoAcd/tBN3l000a5VrA8cgN0Aifx6RB/jfA8Pk7DgOgbrYDOk7z+byRu39raOjW8DCd93NGowyPnHacAdpz8BUW/N2DAwOD3Xz6C40yfI259jNA29WWlpbWK46mpqbLDsdl+HFcaW2U4ZGrbd/9L/QZ+SMspgwTkwwAAAAASUVORK5CYII='
p13
sS'twit'
p14
S'data:image/png;base64,iVBORw0KGgoAAAANSUhEUgAAAEgAAABICAMAAABiM0N1AAAARVBMVEUAAAC8vsC8vsC8vsC8vsD/6Lb/6LbdLkTdLkTdLkTdLkRVrO70q7r///9YWVtYWVv/zE07iMP/6Lb/zE3/6Lb/zE3/zE0pxW30AAAAF3RSTlMAUN//AP8AUN//AP////8A///f31BQAGRT1AwAAACxSURBVHja7dXLCsIwFIThXNQkxluv7/+ohqIo1ToneKBQ5t9kU75Fm6HGWOdhzu5QxnpRFkJOBjkIeWEQ2gs7gFaCQkxfi+FYBYW0WJigDHpCcRmKVVD6UTV0Kp1L7ych1ZeNP7/ahVxjIq8upWtpOh/pQhlESAah/54KVLJakNOCvPhC3kBbhzIIPUOIELfGrRHi1rg1QluFmlmfUDOLUBXU6kCd6XWgwYx9+z/UDeMdYH/DOWWokyUAAAAASUVORK5CYII='
p15
sS'gmail'
p16
S'data:image/png;base64,R0lGODlhDwAOALMPAPMiIjA0Lf7p5WKh+h92/f+IiJ6dmRUgjwGbASlSkmF4lp/M8hE2w3JwZ9HTzgAAACH5BAEAAA8ALAAAAAAPAA4AAARWEMhHq6US3P1kQNyGjOE1gmV1PoGjDI4RmEjQLAyxOPMV/I1EQtGwGRwCh3K5lA0H0MVgIShYlYFDjsAlDAQAa4F3SHgH52p1nN12vwDH1Sio28FrXgQAOw=='
p17
sS'related_to'
p18
(lp19
V\U0001f45e Mans Shoe
p20
aV\U0001f460 High-Heeled Shoe
p21
aV\U0001f455 T-Shirt
p22
aV\U0001f454 Necktie
p23
aV\U0001f45a Womans Clothes
p24
aV\U0001f457 Dress
p25
aV\U0001f3ea Convenience Store
p26
asS'name'
p27
Vdepartment store
p28
sS'known_as'
p29
(lp30
V\U0001f3ec Shops Emoji
p31
aV\U0001f3ec Shopping Center Emoji
p32
asS'default'
p33
Vemoji
p34
sS'bw'
p35
S'data:image/png;base64,iVBORw0KGgoAAAANSUhEUgAAAJAAAACQCAYAAADnRuK4AAADSUlEQVR42u3dIXLqQAAGYA7QQ3AEJALRYyA5QgU+Etkj9ACISmRERSVHqEBEIBAIREU7m5nOdB5ZZrfd8oB8/8xvaFhC+KaTbEgYfIj8IgObQAASgAQgAUgEIAFIAJI2s9nsYzAYnK3h9QDqGaD7+/ukjkYjgAA6bmrqugYIIIAEIIAAAggggAACSAASgAACCCCAAJIfAKqqKqkpYwHUQ0BOpko0z8/Pyf9hSjS8HkByNQFIAJIbBfT+/v7x9vam/7H7/f56AYU3cM4jED3u09MTQAqQAgQQQAABBJACpACVAPTy8mKupkDH43E/AYW/y+8TrloFSAACCCCAALpuQK+vr+13f3/S8NyuPD4+Jn8hK5b1ep08Rlg2lhLrAtAJQMPh8MeHrOG5XckZM5bwQZQ4dC6xLgABBBBAAAEEUD8A3d3dtZerfC9AACUD6oIBEEAAAQQQQAABBBBAAP0hoJzTI7E0TZM8Rlg2lhLrAtCZAd16AAIIIIAAAggggAACCCCALgvQZrNJvkQmlnCblBK3VCmxLgCZSDSRCBBAAAEEEEAAAQQQQAABBBBAAAEEEEAAAXRTgObz+dF1ZbHGEu6mljpGWDaWEusCkJOpRQMQQAABBNBFAJpMJi2E7w2PdUFLWQ6gngESgAACCCCAAAKo74CWy2XnznJXw7KxdO2Yx3oN6wJQIqBLOn3gVAZAAAEEEEAAAQQQQAABBBBAAAEEEEAAmYk2E+1cmHNhAAlAAAEEEEAAAQSQAAQQQAABBBBAAAlA/zbcxSL1ptsa73g87icg/fsCpAApQAABBBBAAClACpB5IPNAZqLNRAMkAAlAAAF0WYC2223WTuRut+scJzyeu0MaG+vr/eQ0/EJzLE3TZI93OBwASgEUfici51C1qqrOccLjuYe9sbHajZU51qmLA0996LHWdQ0QQAABBBBAAAEEEEAAAQQQQAABBBBAAAEEEEAAAQTQlQNaLBbtRkltbCOFx3PGOTXW1weV0+l0Gh3r4eEhe7z1eg2Qr3OUD0ACEEAAAQQQQAD1CFA4EgmHzfq7nvr9DVemqitTFSCAAAIIIIAUIAUoMeHqy9wThlq2q9XqegHJ7QcgAUgAEoAEIJHMfAKSseuGu67VpwAAAABJRU5ErkJggg=='
p36
sS'version'
p37
VV6.0\u02b2
p38
sS'uni'
p39
V\U0001f3ec
p40
sS'desc'
p41
V\U0001f3ec A large department store, selling a range of products to the general public. Shown as a large building with a billboard on most platforms, or as a shopping bag on Windows. 
p42
sS'browser'
p43
V\U0001f3ec
p44
sS'annotations'
p45
(lp46
Vbuilding
p47
aVdepartment
p48
aVplace
p49
aVstore
p50
asS'wind'
p51
S'data:image/png;base64,iVBORw0KGgoAAAANSUhEUgAAAEgAAABICAYAAABV7bNHAAAAAXNSR0IArs4c6QAAAARnQU1BAACxjwv8YQUAAANtSURBVHhe7Zu9TxRBFMDf7NnZYa+B1gNjJaCNRkvUUkqjRhsrE0mwMBaSaEtjAtpC50dp4lch3FVGxMJGo3+AHR03z/dmH3cHHrybY4ac5/sldzs7s7d799t5b2bJAIZhGIZhGIZhGOlxsj0Q8OvEZfT+HF31MCBsuKJ4646vvpDmvuRABPn1Uw/pUtN0sWGpaoIAP+jtSTFaeyxVfUVWQbh++iji5lPn3Hmp2hVEeEWSLslu35BVkF8f/0wXGOMyIv4G515Tb3kTGgGGqPZCu7x+lJRNEMlZopNf4TKF0Rr44lYxtrIaGtvwX8bv0hEzJGqIjyuqtRPSxG3XaTNF33KUzjVcSoZvVPeuqNbvhYMyk0UQJ2PqDs9DmX6Uc4dOuurHX6GxAyF5Iz5wUJni40JowuayAzchh/yF5K456nGLUpWFLILozr90Di5ymcLmRsyPkJGO8xaFYEnogYAbXN4pDQHncvam5IL47gM0fobyjpDRKHtO4z2HU9gHXAVfudMemnLMIzomhC8TexNiKGSbDAqNm1Lkb/5BSl2B2JhvyuGEXa1P7sxbHIIkfZp7jlTxbZ4tb0x6kguibzsiBeCJoBRVOLSaYUk9z7nK7dCwCxxWdNwyl1kq3Zj7oSExGQThMSlAzCwZPV6VIhua3yupb0FJfSaMbOXe2XKblgyCegXPhHcanbrNJ0Eiz624zL2IR8/ERAnieQmPUDI/6QjnDVetOX5JlQqfr23Uqsu2O1oTT8pbfkqKyYjuQZwn6LVAz1cre4mKA8NsO4DwSUpdsa23ISRP1D2HGM9Hkonip/sWklN6YPt5krDvHNQSNf69fGrvAV9Z5LkMv2j0CjklhtZni+R/Eeg6TzBlroAF2e0IJ1l6XzqoZ6XcJB/FeDShXjXLPUqq/mmS96B2eCQrH0Q9PbH3BxyGMfOz7IJiP5MbzlUxz23JQ2zQMEEKJkjBBCmYIAUTpGCCFEyQgglSMEEKJkjBBCmYIAUTpGCCFEyQgglSMEEKJkjBBCmYIAUTpGCCFEyQgglSMEEKUYJ4aQoCPmutCxx84gSFJbj1a7xy/n8R1VOIbYkqRutHeL1yuSZoMNl3DuKFUkW1NjKoopIl6UEVFbU+KAZer8jS/NrkBBSNRKthE+Ari53+LcswDMMwDMMwIgD4A74uWXkh7Q5CAAAAAElFTkSuQmCC'
p52
sS'andr'
p53
S'data:image/png;base64,iVBORw0KGgoAAAANSUhEUgAAAEgAAABECAMAAAAV8YMOAAAABGdBTUEAALGPC/xhBQAAAAFzUkdCAK7OHOkAAALBUExURUxpcfzCG+1rMPqxH/zCG+1sMPzCG/zCG/zCG+1sMO5sMPzCG+1sMO1sMO1sMPzCG/zCG+1sMPzCG+1sMO1rMO1rMPzJGf3GGv23F+xrMf+0AP3CGu1sMPzCG/zCG/zCG+1sMPzCG+1sMO1sMPzCG+1sMPzCG/zCG/zCG+1sMO1sMO1sMPzCG+1sMPzCG/zCG+1sMPzCG/vCHeK8N9mtQu1sMMl8V4elnPzCG+1sMO1sMPzCG/zCG+1rMOVvOc56UfuxHffBId1zQYqlmea9M7Gpb/zCG4KkooOkoe1sMPHAJ8CBYL2CY5unh9u6QO1rMPzCG+1sMEDA5/3CGv7CGT/A6P/CGP/CFz3A6j7A6fDCKDzA6/PCJevCLrbBZ0TA4+jCMePCNpjBh7jBZbvBYuXCNG3Btj7A6tDCS57BgVTA0UDA6KfBd1vAynTBr5rBhkHA5WDAxFDA1pPBjEXA4a/Bb2TBwM/CS/jCH/LCJUzA27XBaIfBmvzCGv7CGPvCHO5rL5jBiDrA7p3Bg/XCIv3CGT3A6+TCNe3CK3PBsMHBW67BcDzA7KfBeEHA5rDBbfrCHa7Bb/fCIOfCMWvBuTvA7bfBZrrBY/TCJN3CPOrCLljAzfbCIWPAwnHBsti6Q3fBq2zBt0XA4q3BccrCUfPCJJLBjvHCJ2HAw03A2b2CZIKkotXCRZfBipvBhXnBqfnCHkPA5FLA1KHBflHA1X/Bo1LA03PBr9LCSXDBs9jCQsPCWe/CKYXBnETA4mPBwczBT9/COovBll7AxmfBvcrBUZ/BgNTCR5PBjcjCU8LCWmrBuaPBe0LA5NfCQ+DCObvCYabBeNrCQJnBhlbA0NzCPpTBjILBn6nBdbPBalnAzFzBydDCSsTCV0nA3V/BxYjBmbzBYD/A6cDCXHbBrMXBV0/A16PBfL7BXkbA4LnBY9XtdNAAAABQdFJOUwC5lhTmizYBiwGVEPpk/uAtLwr0RSoFDhGYELhzZe4CE7NueyaM3U81rGPPbh3CaHb4u+UaSNmpjhbbVvORocwUwK6N3S2h+ea6yfT8SveG2aMlFAAABA1JREFUWMPtlvl3E1UUx4PiAmjZdxUQXBBXUMSdVVEWX+dNtk5KIaUEocQAacg0bUJp2pKSNm2hFGrB1i4ssi+CCBQQXHAXq4JsyqL+F977Ju1MSJNJNIdz5PT70+fMy/tkzrx733saTUc6cgun14hH74w1PbpF1PR7ZNjDnWNO9yef6t++Z8j9D5C48sy4Xu2KenQncebllzRdej7dVcp9fVtFj5O483q/Pi8mJUtJGtVT8tx1d/yiwQNeSZYzvMu/Fk2Y8qpC9FCIqEDPQgGphPiUlzC3DXXstzOnTlsui+5QiujxQHlW1ipXNSUF363KAly7DqTbyhGrREro5wyLK9D5/odbI4l0LpvBYBC2LOOJfq0fcc9qmJ1fiHhuDk94M5Chck0KRdEb0yOKZqUt5DjtkvkgSjdygAtmg+gdLeIiFL0LxBnmoYi8NWNickJEgwd1TYyo0+233QwRzPlDFhllkVESIRrq1EX2UpuN23ceRZwN8CcUfVaK+FsRiHaUAmtV34i2/JqZmVlSDrP59SWIARNMOZiJeHYTOOcj/vB9DYkuIlTHQtvQTUKxgCFP1ERxJaqIssSG0UROE6axDHCXiLjOA1hhCkXR61ER8Q1XfVarb38LT9wNQFbfLyvh39MZ5kArU9eBA1brxp9NasvvKi0MaVq/omnfu6Fpb1Zl37Ii2CEtluDHFiyAH7GPbUBs3SEtFvWP7f7kZLPD0fzxIVj+axscDscGaypMCcBDR/PO2QWEr0fcfFlUERFvKmalE7BGQqzNRhlNSNWHPf+5RXJjbJGENW3YNqKT9w6GfGzbCC36fS7kCjQYLapCPO2F87UFae4FOCvpj0hVDU4VkS794gd2+9EFB2H5q9LsdnvaOayjvfDQfvQSbrX5iLs3xrL5a7XG61JBIgYLEpEV5BnEwrqOpk1E03J+QfBnY9POqhQEoXIfa1p4KPjZDpmHuOIrNRH/7Q6z2Zy3NwMOyEN5iF/DqUhOmRFLDoPzS8TtAXZAjn52YOTKlm528tVPR0LvewqkY54fuzwRvRbt6pdAEW1Nu3NDRunkSa9FEvHbtn+xFNMUqAlX8S1LpTTVe1nTjo+y/Luxw6CbfCmSKFfxevpirRShLrYbG8RihZ9Snd5TYRJF0buL6nkKIk5KW0EOjF7ZeM8DkSfjrz+bcnbW1tbuP5FXf2xTuGjA27In6UFNBJH7+Mm/jYV4EFnguLdl55eFifr3fbP3PVJ6j3wiROT6xsgi+FL0y7KNnBzhiFNfLA0a/cFzrZvmhefuZXmsz1CNUuQ+7VjM8ukJEURahciQ49QfWxwcPSIGReEJ1lFjhpSiVI8uTES9raPVZURFRPlgKAkXKUfVRIqEi3JvPNf+B6J/AA2Bvr5szWCpAAAAAElFTkSuQmCC'
p54
sb.