ccopy_reg
_reconstructor
p0
(cemoji
Emoji
p1
c__builtin__
object
p2
Ntp3
Rp4
(dp5
S'emojipedia_url'
p6
Vhttp://emojipedia.org/factory/
p7
sS'index'
p8
V425
p9
sS'code'
p10
VU+1F3ED
p11
sS'apple'
p12
S'data:image/png;base64,iVBORw0KGgoAAAANSUhEUgAAAEAAAABACAMAAACdt4HsAAAC9FBMVEUAAAAAAAAAAAAAAAAAAAAAAAAAAAAAAAAAAAAAAAAAAAAAAAAAAAAAAAAAAAAAAAA5FweWYkSMWjxhPydtRy+XZUd/UzaRX0GRXD2TYUJeOyJ4V0J4TzSFVztySS6SY0VeMheecFiGVjiIX0ihdl5yTzmZa1B4TDC6saqiiHdGIQxVLBJ/WkOQZlCsnJGskYCkgWsaBQE0FQZoQylOJg+qqqjExcaWlpabm5ulpqaioqHT09OtrKy3uLjP0NG/wMCz1d1+fXx+h4uQiIfn5+eppqGFk5fBwsOFlqGOnabIRkDv7+96cneDRD3q6uq2tbXb29vX2NiUkpCys7O+vr2uy9LIysuPj4/+h4Ph4+O5u7uwsLDNy8uIjI2FNi/RXVmyzdOfn5+FhYWZvtCOvdj39/ftdnPtbmpdIheMts3f39/4//94jaD29fV/orp5l7F8sdKGuNVqV1x7YWCOIhrNUk6qFwtvnMBtbW3o8PCCnK/6aWNkY2apwcifucOLU0yQfHqVvtTmkY2cDwOoLCPRg4Clqqroo6CeT0u10Nb09fX+//97pMH5+flonsm7X1ubsrvIa2Xlzs14hZhvkrFhFA+eqa6QLSeFJR7TcW66RUGrydOOSkLFyMr6+/vx8fHz8/OFgIKTprGGXFnt7e2ewdGkydiuztjnsa+FamllkrzGPDbr6+voQDefxNWQuM/7x8Xd3d2IPjW+Myp7LiJ5Ixi/UEv9/f39lZFbW1zg6Oj8/PxXjsRelcj9fnprAwCns7arxsyNsMXqYlxtosm2FQemaGTCn539tbLo4ODt5OTYZ2NfDQf8oJ3kxcT55OPX3d1yd4VvUFSXrbaIEQj////oTEWDsM2yfXiTmp5xpcqiw9G2qKGmxtKTcGKnkozJztD/2djJHhB+rcyPuM60oJjFwsK63+f7YFp1qMu+ubhPfa+dOzdOOTjrgX2+s7P8r6vq9vbXRD2Hss2afG5RZHeUus95qsssXY78b2vaNixISEieldLpAAAAEHRSTlMArgwlVV2DK3geFTxvSGagLPts/gAACBJJREFUeF7MlFOzLFkahie690T33qfj/Js0yratbdu2bdvHtm2rbXuIm/kyq3ZETvXdvpr37l1fPs9alSuy/vR/kbeSEneVpLdifOKehD/vIgl7EqOGpD0vdpk9SbwgMaFnl0lI5AVv792tYO/bvOCd96BUukjaZjIxJhtNRKzJEn1lbe0ZSKWLtvkQAoelykpYqbUiEdyVrK/9D0DvvRMVvAuCZB9KWcxms4Xyq0wI7gpgJEEijN+cbaZYp4hbSpYsBYg5FhUxdMQlOQPQuzuCU6dOuewWuXH/fqP8CIUyiFqN2P1mj3FVt8ovzXkRHBGxFo/cY6bm7D7SKvkbQEKBVXXEuLqg2y83syKfZpswoRaPUbfQ3b2ok2dTqI1kgAaZx8xyJ5Q9+WecwKUyy7kDmCmVjTw/inj90HWLi4s6o8fiZAgfa/bIjUY4AGpSYDLpD38Q2LnzZVtYlU1RcL4AsbMgWNXBkYD3IqSKOuKRR/cn1Lmj53+I/wkBL8u9QafIRmDbF3gBABwCL4DGaRQEnmwzi5rAD8mVCAXnzp1LNjlZdk7F0CQWAAFt91uyPdlHzJQf1nDMhrIW2MCvshHW7QsXLoxiEoD+R+BTwf34CLitZP4ETspigQtUebk13KfyUxTl5N5/LvDbb/ClOIEEYTjcGpDmjvb3FygY1M/6UTu/JsvV0PY5vx/10hFrbj+kAseThYL5+XkJSdMRTD1a0c+lV2ESoajdRJOgDBT0VyOMSCUy0birgJ9XwAkAEgr0OBGprui/Hk0v6WO8sLumurqg4vr771crbAxjQ3B1BTcFAY5J4gSVGJ5/HR6NppdEbPBR5H8XSz5J++DHVPNDUORjVn28wPUGwB2gN0LQCNn7j53kRwiCwHd8cCKrq1Io6OvrA0Fh4Q7wRdF4O408K/wilsKrJNFOXN2Zf1eYbw1UAiQU/FRcfGYkRrzqrS3Z2iopLngVS0Ex12t7X8V8I8VPi3+KE4wZgmPFRVGgKPf+8dnO4P0nqX/hk/rkfrCz8/hY7s68+H7QkCkUpKWlTQycLH1aFANGTkyHpk5O6lOz+KTqn0/fG5o+MRITFj0tnR6YAEgouNnc1lmSFQNGZqc6Oto69amH+KTqO9ugz47EhEUlnW3NN+ME3rMemzTrS8ihQ01q/HHavKdd2fR3Pk3Kds982mNc3fTlIe6JLKnNc9b7RwEjzYoBavJx37zHp2xKiUbp88z3PSbVMWGWlIkT5OXlfTg8fEt/NQZIP3n46NHwV0spa3xSlr4afvTo4SfS2Piq/tbw8IcACQXT6RnayeWDKRxzcLb12kV3xr6jKQfXuJoSPHbN7b7W2gAV+IPLk/uupZ8UCrq7u7UgKNUAwBEAcIKJ+vUPIOv1pbzg2NHYWPOcEwAkFJz8Ob2sFAMAshY8luE+nV42Mbj+EWR9sFSbcfp0xnRwjR+vu6D/XBYn+P7OXb9M89EHHFG/9MudvL67X8sGZ7g6Myj7+m5f3p1fkuuhwSMamf/une/jBCq5jsI0UaA+gK729Cyy2LONGcjGM4xd7OlZRQP10bkGo3RyNF5gXLDg6igwGHDqel4sUtjyhgOysYxR3T09C3OBwehciVsWjCqhAP7+Q83ue60rYgcIxHhp2cUHD6A3ijmBuLE15IYemsDFM44Zh3gFLql5CCChQJv+r5flhg0ekLX8+9uLbugfi8MQ8cctB2rc7prfW2S8cMNQfqAmvUwoWFhY0KbXvLwRnAnzO+4IGqKChvKY4K9imIcdwRsHvk0vA0gouPXw8ObrrSs8ILvZcfizz6A3doW7wuGuxtebXO+4KeOFV7agP7wVJ3BW5VSJpHWcoEvZfjbnxYucs4wy3AUJBxi+w9fVxc3rpCp42Bkn+LQq57c5aX0XL7jMASBUOjiBIyCq4oWXlby/Xjr3W07Vp3GCts3bD4ZmxzmBY2Wg+dfDh293DDXUQe+qaxhqvg29eWDFwQnGDUOnf91sEwp0Op02o+bl58+tYgCuTMJLgluAfpkTXH7+OfSLNQduTF6BLsa4nqEFSCj4cSCkbb209I1YLK4bazlWdm8qpC2/NA79m/FL5ftCU1OhfS1jdWLoS9DLBn6ME2QaDEePZ5YgJKmwZp4IHp1tmIXeiCgUSGPm8eAs9OCJTKuCJJES6AZDZpzgv52Xu3LiMBSGd8MC2QsTLNuSvDYStgHbCbdcRiWqMip2ZtMwejt1lDySx1FDCmoeYOUQPMRU66849jk65+v/IQQIUQwM2KUGj1LXRdiAXNe0pqfu8Z0iBODwXLDZbIaDctnzPISQZfA8yz3D9J6ZmkfzU0oHQ3P0WUDDMLQ8KxyNJpY1GY3CM8P51KyEIb0UwImUby7GqdZLjBerVY6p9QHF+Wq1wHipdYqx+yblBF4KZkxxCkAq9RKAhdY7gCrATusFAEstUwAoV2x2IbgLZoKt4yhKlTxEUSblLgIV0U7KLIoOUqXRIF4zMQvu6gISc7GPIcyZKiDMlJrDQQWcK5VBWCiWQxjvBY9JXfDklIJpEOSCFUmSKTZPYEUyZypLkoKJPAime85j5+lcsN1ubx+na/7iE/LMRUHIgYlXElSQV8EOhBSCPxPiv/D19PHWHH0S2I7v+45T1rHjjMtacerH1Ypj1wX93yW2bZe1+hypT99X+zXB/UP/v3i4rwmaUAl+NRV8RJ5W+29D2q1jbux1br424KbTO+bGq277utOA63b36hR9e98a0DtFX2NodRvQer//B/aPtEfBKAlyAAAAAElFTkSuQmCC'
p13
sS'twit'
p14
S'data:image/png;base64,iVBORw0KGgoAAAANSUhEUgAAAEgAAABICAMAAABiM0N1AAAATlBMVEUAAACgBB6gBB6+GTHm5+jm5+i+GTHm5+i+GTHR09TR09S+GTHR09S+GTHm5+i+GTHm5+jm5+jR09Tm5+inqazBaU+gBB7R09Tm5+i+GTHwAVz1AAAAFHRSTlMA31BAQL9wgIBQ37+An8/PEJ+fr0sIehgAAADxSURBVHja7ZbLCsMgEEVr8zbvptXk/3+0YDUDGRe9RBdpPcvD5UACA94ONFJr2eCOdbShAR1HaoMEHUdbABcmFP/THvQTYcc/TTao84dA56fTukMdJ9ssGeCuESrdoIQcp1otFeCihmY3mD1uIbeQ81O4QQE5TrtZWshxRjcYIcfZdgAXNbTu+Nzk1HRwjJwGOeCuECq3nRJwnJoGNeAihnoa9JjjN+soABcxNNBggBy/EAJy/GYJwMUI3YU6hbjbjjrNpyTOh4QJqQCY0CsAvx5SAfif0NOi1HcuhVLIkG4t3VoKXezWgj1rgj20Aj793k7MJ2U4JONQAAAAAElFTkSuQmCC'
p15
sS'gmail'
p16
S'data:image/png;base64,R0lGODlhDgAPALMPAKupoqWYa/TeIpxmTNecFUpAmQEo9GxTS8S0SWpmfjFexc3GakJAbVdHVX1hbAAAACH5BAEAAA8ALAAAAAAOAA8AAARp8MmU5KxWApB3lsOQDcf3hJkjSo0WSEwRvJKzJMBizfQpIJ6HQBBgWAYLRKAgIRAWRVZB8cMwFFCjYzq8NRTUH+NACSRmg4IjoEo0DIoE/DctwEMBgBIxPO9JToGCgQdjBw2IDQeLioURADs='
p17
sS'related_to'
p18
(lp19
V\U0001f301 Foggy
p20
aV\U0001f5fc Tokyo Tower
p21
aV\U0001f468 Man
p22
aV\U0001f477 Construction Worker
p23
asS'name'
p24
Vfactory
p25
sS'known_as'
p26
(lp27
V\U0001f3ed Pollution Emoji
p28
aV\U0001f3ed Industry Emoji
p29
aV\U0001f3ed Industrial Emoji
p30
aV\U0001f3ed Smog Emoji
p31
asS'default'
p32
Vemoji
p33
sS'bw'
p34
S'data:image/png;base64,iVBORw0KGgoAAAANSUhEUgAAAJAAAACQCAYAAADnRuK4AAAGoUlEQVR42u3dLzg0QQDH8QuCIAiCIAiCIFwQBEG4IAiCIAiCIAiCIHgeQRAEQRAEQRAEQRAEQRAEQRAEQRAEQRCEfZ/fve+6vXtv/8zszN7d3vf3PFN43nfdzudmZ2dmZysBITlS4RQQABEAEQARABECIAIgAiACIEIARABEAEQARAiACIAIgAiACAEQARABEAEQARAhACIAIgAiACIEQARABEAEQB7y+fkZvL6+NhX9jACoKaenp0GlUslUdnZ2qBEA2QNaW1ujRgDUnP39/cyAVldXqREANWd3dzczoMXFRWoEQPaA5ubmqBEAAQhADrO5uZkZ0NTUFDUCoOaoY5wV0Pj4ODUCIHtAo6Oj1AiA7AGpEAA1ZWVlBUAAsk+tVjMC9P7+Tq0AqBHdmpsA0qQqARCAANQZQPf399QKgBqZmZkxAnR7e0utAKgRDQ6aALq6uqJWAGQPSOuHCICsAZ2cnFArALIHtLe3R60AqJHBwUEjQFr+QQDUOIABHhbWAyg3INZFAwhAAHITPShoCmhhYYFaAdDfaF7LFBDrogGUC5CmPgiArAGxLhpAv3l5eQEQgOxzd3dnDIiF9QD6jZZmmAJiXTSAAASgzgJioykA1XN+fm4FiHXRAKrHZHOpaNHdGwGQNaAi10XrObStra1CT3rRl+iPjw8Auc7393ewvb0dDA0NFTb2pJZV2/jpYcuivhwbGxvB5ORkbwIy2d4uWm5ubrz9TT8/P8HBwUEwNjZW2ODl4+NjsLS0FAwMDBQy3xfCGR4e9v75vAIy2VyqiIX1Z2dnwcTERGGj33rGLQrH94SxWjgth2ldBQogBxWZ9ICj6xOsS3DS8VwDUouty2Ir1L4FdHh46OT4b29vwfLycuyJdX2CNXUzOztb2JIVQc1yvJ4FtL6+bgUo78J63eWEHeQiJnCvr68zVaQrQGpxTB4Z71lApptL5QX09fVV/7dh59HnCVZn/PLy0vjZf1tAOp6ematWq121wqErAWljTpshg+idla8TrIq8uLho2xn3ASiEk+d4fQfIZGF9WofV1QlWRQqp6YOStoA0TqXhhjxweh7Q/Py8N0AaW9EC/LwnN+0EqyLVqddgnItjpQEKjzcyMuLseD0LyLZl0NhJUgdZUw9pd1btFqrFPSXb7gS7bAGyAAqP56KF63tAcSdYI9umHWRBU59KHey4yomeYM0bqSOetwXQl0Abp6d9Pg01aNQ4z/Gmp6frg6QA+ld0SxztexwdHRl3kAVHY0BPT0+//1cSoPDWP09F6pjalTY8Ztzn189DOKZ7B7QeK7qjW+kA2fYbwg+sgTl9u2xasCicNECqRNOWLVo03iQMreuY4gDpWFnHqNpdirV/gAD+V5llA2R7PVcr0G4OKcu7NpImYl33L1SZ2o4mbnlG3rvDaNENicaddCmOrUwA2RV9o9UBVT+piL9HHWuNzSRVpgtAaqU0mv/8/JytMgFkXnRHlnWBVt6/R0/NahBR/TKffUBd+tXvM114VjpAth3ErJswPDw8FAJalw+bRW6mgHQczatlBVp6QD7g6Ntpu2LRBJAui7r9N0VqCsj0MgWgHB1WNeu2386sgHQcjTe5WLecBEj9KJvLFIAsxjs0teFiYXgSIN3BqWOc1hHPAygcu1ELmueL0BeAtC7XRT/HRdOeBEiDliYdYxtASWM3AIqJzdYu0ebdx8L6KCDh1EClz+gOUVMMLls1ACUUTVdoyYSP1iAcGdfl0GWr1k3pW0DRCU+fKfsz96UCpEm+LHg04cmjzAD6L2k7c+iuhzfzAMgaEG/lARCAAOQPUNreQPo9AVBs0nbm4NWWAAIQgAAEoC4FdHx8DCAA2SdtZw4AASgXoLLORwGoIEBs5QsgAAHIH6C0zaUABKDEpG3tAiAA5QJU1Co9AJUUEAEQgADkD1Da7mQEQIlJeyqTAMgakJ6ZLyK60+tE8fVUCYAKfjNzEVvLdNMQRakAaSsUAAHIOknPoQMIQAACEIAA1KOA1D8CEIASk7S9ne9XPgKoBICKeOEagAAEIAABCECOo7U+aVu6AAhAsUnbXMrkhXIAAhCAAAQgAAEIQGUBZPNWZgD1ESC9X8LHe+GToh1YWxd2dQqQ9p+2WYimjcjzLEYrDaC07e2q1Wr9Mqairf9rtVp9bChaNF+mD95aXL7NuF9K6QBRAAQgAAEIQF0KSC9KoeIAZB29oYaKA5B10jbYpAAoMXrZnPpBlO4oevFNTwEi/RMAEQARABEAEQARYpg/aWmFZ/WNZMcAAAAASUVORK5CYII='
p35
sS'version'
p36
VV6.0\u02b2\u02b7
p37
sS'uni'
p38
V\U0001f3ed
p39
sS'desc'
p40
V\U0001f3ed An industrial factory, with flue-gas stacks releasing exhaust into the air. 
p41
sS'browser'
p42
V\U0001f3ed
p43
sS'annotations'
p44
(lp45
Vbuilding
p46
aVfactory
p47
aVplace
p48
asS'wind'
p49
S'data:image/png;base64,iVBORw0KGgoAAAANSUhEUgAAAEgAAABICAYAAABV7bNHAAAAAXNSR0IArs4c6QAAAARnQU1BAACxjwv8YQUAAAGKSURBVHhe7drPTcMwGIfhhF0QEqce2IADB7aAIyob5JRkAeAKC3AFCWZgA4ZJ+EwspLahP+dPRbDfR0KOQTHpixLVFRkAAAAAAEBccj9GrSzLtQ2rbrbhuSiKN3/c68iPsVvleX61/WXfP+5+/LtUAo1GIIFAAoEEAgkyUF3Xp/4wSTJQ0zTn9j7ixU8Hm3LuEgTdYvae4XLsC51y7hIEP4NSjTToIZ1ipEGBnNQiDQ7kpBRpVCAnlUijAzkpRJoUyIk90uRATsyRZgnkxBpptkBOjJHkZ9J20Wu7+Ds/DdK27asN7+54yrkzunB/AH/8w37XbVEU937a6yCB/ouQQLPeYjEikEAggUACgQQCCQQSCCQQSCCQQCCBQMLozarade/b4I7csW/syG2NBxs+u1kYO//GhpNuduDdvC3+ZItf++mOqqpaf7hDndvHruPRrsP9V9i3kBe3zdb4sDXO/DRoDW4xgUACgYS/egbxkN4XaClCAnGLCQQSCCQQSCCQQCAAAAAAs8uyL/6zxAgh0ixoAAAAAElFTkSuQmCC'
p50
sS'andr'
p51
S'data:image/png;base64,iVBORw0KGgoAAAANSUhEUgAAAEgAAABECAMAAAAV8YMOAAAABGdBTUEAALGPC/xhBQAAAAFzUkdCAK7OHOkAAAMAUExURUxpcUDA53SlsXijrXijrXijrUDA50DA55OZl0DA50DA53ijrXijre5sL0DA53ijrXijrXijre1sMHijrXijrXijre1sMHijrXijre1sMHijrXijrXijrUDA50DA53ijrXijrXijre1sMO1sMHijrXijrXijre1sMO1sMHijrXijrXijrUDA50DA50DA50DA53ijru1sMEDA5+1sMHijrUDA53ijre1sMD/A6O1sMPJoKe1sMHijre5sL3ijrXijrXijrXijre1sMHijrXijrXijrXijrXijrXijrXijrUDA53ijrXijrXijrXijrXijrXijrXijre1sMEDA53ijrUDA53ijrUDA50DA50DA53ijrUDA53ijrUDA53ijrXijre1sMEDA50DA5+1sMHijrUDA50DA5z/B6EDA50DA50DA50DA53ekrnijrXijrXijrXijrXijrXijre1sMO1sMO1sMO1sMHijre1sMO1sMHijrUDA5+1sMO1sMEDA53ijrXijrUDA53ijrXijrUDA50DA53ijrXijrUDA50DA53ijrUDA50DA50DA50DA50DA53ijrUDA50DA50DA50DA50DA50DA50DA53ijrXijrXijrXijrUDA50DA5+1sMO1sMEDA50DA50DA53WksEDA50DA5+1sMEDA50DA53ijre1sMKeNe+1sMMp9VkDA53ijrUDA5+1sMHijrXijraaNfGqsu+1sMO5sL0DA57OHbu1sMO1sMIaene1sMEDA5+9rLuVwODrD7Wqsu9J5TUDA53ijre1sMP///0PB50LA5z/A56vj9EHA56/l9ULB5z7B6T2/57Dl9e9rLuxsMaOPf3ekrkbC6GXN7K7k9U3E6UnD6P7//1/K64HW76Lg8/D6/cvu+Kvj9ev4/dPx+rCKcEe94H3U70O+5GisvORwOt10Qct8U3amroaeneluNFW20E262r6DYYDV76GRgFHG6VXH6l2yyFLG6Y3Z8Z/f85Hb8ani9FbH6qbh9JDa8ZXc8gCeaR0AAADEdFJOUwBdAgj9/OuVAfkk/uIG/pPqO+sFwUKg38i6TCerQPwHDQ8QapVjtFP3zREs8RkEloQaDdPVB+0H/qQNv/EjCkeduIeM+Yt4T/dYC/QiYB0zIJkCxqT0qXrbg+QluUrXdQyqLzwaye3jFljTa/tygq+9h12E+YvKkHCxMqcXWhQqIz3uUodRFdB+1hQ1uzFo565GH3Gw4ZrNNmvoVBwiRe8sZpKB9sH+Xux5MO3fYBE1tPvbZuMv4XdINokg3Jqd7jY0sfZtfPLRAAADdUlEQVRYw2NgIATsFBUV5KFsBSl+iVksrFExK7WZGEgCCvZ5+QUFjg65gswMDByCYWZHIYA1Ll6LFHPW59tAdQqECTLNFj+KAC4hKcSbI2qCpFPclecoMuB2UCBsAodWgJ8dQ4DmUXzAQ5WQMVqeDiIm7Y55gax4DToq0YbfnCo1D4hCFvzmHPWWwmuOtMRRYoEBvjQgz0+0OUdl5PEYVM9DvEEidngMUnUh3iBNfAnAmXhzjsYw44x4UV8REgwKFMaRDEXVbLhJMIcVV4oUFT9KEohrwOEvR9LMcYnHkYxmzMKnjQUjv8h04fCZvQ2qQgGUhCCyEtXj3GoNuKJMUABFpXizgRlSBvXnEJzgjeA3qfjhTEEp0NLHbBPQFyyaUhzC9mGzwB5i5eGXBhWX7iHiLsBo5WaNCpNixp0UmRbnXAWCHAPpzfz8M33A5bW/qrOKSmGRNjTBCEu757qWu3lq48sbDLxrV18Bgi07GSgEq9YsuwwEG7dTalCy0DEw2EUtg/YGUWjQvPkQg8R4KTRIXWOwGlRpRaFBtSUQgySVKDRI+dhgNaishkKDKqAGGRtSZg5HMbUMcqK2Qdt2U2ZQUCnUICFbMF83NokDVYWRrKwpqoheb6wuZrkmhmzQuuXBcqkZKJpkE3XYZFG0RLeky4VjGGRuiTDIdMeGJUeOrOBC8niSPtuRI5yMSBp0J3ceOXJEH7dB+w8c3JcGVHKEDWHQpI4IkAiSQUaMwXIgIXZcBl06dvhQ+pEjKAbV9U3nO4JikOnEKaEQRZgGJUiCzXn1+duZIygGebX2cEJFoAbpdU9Lg4pgMcjKGmjMyycvnp8/gmyQXmO1DkwAalB05FS4CFaDLr37+ObpeYQakEELFvUjBMAGZWRn8R3Bb9Drtx/OWyCpYZs7JzziCDLgzDTKXMqJIoRp0NY978+fR1GjE5nKdwTVIP3EUFQRDIOMsrMszqOp4UMzBpsIhkELOY+QB9ANYj8y7A06dwIEzp2BKzwDFjhxEqEVqgS/Qdf+XTx79uzFv39OQdWdun4DLPIJbs61/2CBe99P4THo1K0Hx0Hg/vULUG0X7t4Gi9yAm3zzMVjg0Z0L9DDoyLUfD08Dwb2vCK/9Bgmcfobw2i+wkp9fTuEN7DPnTgIBIqyPnAHxT55DFkFRMgIT5KhBI8ogAH35FFDAj1BVAAAAAElFTkSuQmCC'
p52
sb.