ccopy_reg
_reconstructor
p0
(cemoji
Emoji
p1
c__builtin__
object
p2
Ntp3
Rp4
(dp5
S'emojipedia_url'
p6
Vhttp://emojipedia.org/european-castle/
p7
sS'index'
p8
V427
p9
sS'code'
p10
VU+1F3F0
p11
sS'apple'
p12
S'data:image/png;base64,iVBORw0KGgoAAAANSUhEUgAAAEAAAABACAMAAACdt4HsAAADAFBMVEUAAAAAAAAAAAAAAAAAAAAAAAAAAAAAAAAAAAAAAAAAAAAAAAAAAAAAAAAAAAAAAADt7e3r6+vv7+/z8/NlTUDx8fGDZ1jKu7LQwbd+ZFd9YFHBrqJ3XU+8qJtuVUhxWk2VdWW1oJJfRzuNc2abeGjWxbpTPDC2wsOoj4B4YVSQpapMNil1WEuTi4e4zdKsvcKUemyih3gmIyFELSCci4KnmZCwo5yKnqMrKSfe2dQiEAkuGQ+Mg3ykf3ain5t8iYsGBQU6IxY5IBM9KR+iyN3/MBhyqM/rIgOKttP+Jwb/Kw2Ht9fHGwKUEAFhCAKEdnR6rNGTu9OXv9h3DAJ0o8mOudabzOXCbG2pFQL/MyDwJASOVEyCsdL4JASJscy7GgKeu87/IQGwFAHmIQRolrhUhbZcjLfOHQP/NyeBDAGsf4htrdrwMBp+vOJqoMvZHgKjEABimclso84AAADhHwNZkcbcIANsCACbEQL1IwSNw+J3s9q4FwKHbF68oY8wZZj8/Pzbz8dQf7Pj1s7jzsCaYFNbU09CbpVKeK8hUYLVy8W+pJMuYZOignDy5+GKrcDUHgOt1eimhXLg1M319fVYjcLAGAFYCwjMuKv67+lqIR6KDQFUiMB4or3KV1Gew9isydyVschjptmkUEu0FwBydJF+bWO6nox3TVb0NiGDTEDBp5bt4twnWo/QvLD6+vr4+PhelcfZ1M43ZpNPeZl+naleg5yfqLDUwbSMmbnm2tKZgXKkem+efmz37OXNtKW2mohgXFnp08ZmncuoinjZzMQwLy4KOWpCbJ7FJBFve5uaqsGwNCpqjJ9zlKS8YVuqboTNPCvIr5/dRTmxoq9zZX2NeG1vb4NuRDmhGAl1e5vGtaqCcmmtx9CehXWTcWHSxb2sjnuMbV1ZQjawk4C5pZjEq5uVh3+znIyJaFn///+Nf3arn5dLSEWek4veyLvWyMDaxLXe0cr+/v6vl4jMwLiMcGKpk4XFsqazloRqZWK5rabo3dVoUUTlLBV7RzxC7YjIAAAAEHRSTlMAgwwmXVWuK3geFTxsSH6gczhkzgAACG5JREFUeF7M1FOXJEkUB/A9M9tnprvnY6XLtm27mrZtG2PbtrW2bdzMqj7TVb1P9bT3MSL+v7yR59x4639RO0qKC6qSHdl8cWnR2wVUUWlxRigp/bzAKi1hgOKiHwqsomIG2LmnUGDPzjfAlaa1bLVmqqKiYjhts9l0Rnl8uAIqs7x5qunKG2DXbgCarjZCVdNlYcoaWezH3W48amPrjIsRa2aVOUCfvNoEwO5dWaCysnKt0TI6OtoHFYnsgwpMPzJGKYWCxMOd7Fn/o+kAvRqJ0CfgoKVxDUI5QPVoJBsNXICanpOzE6gdJROmqC0t58xN06uBLBMZrc4HWqv7IptpbzDoev5s1kcq7BSZwMM2nZzjuO4KBr2bRqSvujUfsPRBmo4Hg0HM9TxuZCcoBUqSGqWpsx8A0XUXBlt0H0D0WfKBA5Z9kPbCx8ViDEvNxRxyn0mZSCSUOFwh7ohx51IYJhZDG16asBzIB6wBJo657h5L8fmeJwPcmGgk7vfL/fERUYw78MTD56eO3XVhDBGw5gMNVrg6hmH81ANnSq1msf56uqyqY0q1/M/TD+pZLLU65XyQ4mM0ccHakA+YvRCnP0KOe1gsCfHy1Kcvmvfvb27+6cVHv5womyckLJZnnKTbg4Necw6wsbHRYBZDXK32yMilqaREKHjcvXK0ZrW9ffX4N2fKL74zLxBKklNLBplHrQZCbG6A0FbgoFkMcTVLu6QwyJJCoTALDA0BsHDx53lYSsoo1K1lqYEQmw/mA2OQJ4ikjLQb3HopMpEFeLw/AYAOJhCp3q1AQScIEMa2A1qCkCRvuFGFJiGTIggDnP4jFPqylukAQaQyg51K/H0jKSEIbS6wd+/ew2NaiUCYHDfY0QRuetg1+bit5WjP0O+h0Lnz92lgsuuhErWTSnw8KRRItGOHIZQLEAKh1IlTdkppCt+b7AJgvWfoXChUf/7+2e7357sm7xnsMFsmn1MqFPwH0AH5I9c0CvgIjM8dAMrXvz+9BbhjouyoBobz2hEQOvKBWx16RH8zTNkVDJB2fnFqE6j9+Gxb2UsnW4PCLwCg/6YeEXTc2gZMIDP9cEsUAB87LVe9XhisygK/tZUtp30UDCfdgU4+g0xsB6aQGWMnDDCa6cDPqSsfrGpngJUPT6jk/TjdHQD0bKqQqXzgtr7Or4NbMi9AlH4BRk6uX2qvD4W+ql35se7ZbAbXKBnAodLf3gr09vYeUnGgAQrd+gIsVK1+ffnyJ9+tnOTI2UrYo0haZ8/CdC8eglAOwOOK/OzOMI6bwlEb5EXc4ZZLPTAMNYMtbcMxjs4WNdGbPrYR8gO8bcAr3gCXK3Jw4n54ABzwAgx3//puT83xmm/PLLz3GbwOMccIbMY59N4A79U24N/Oy2YpjSyK4zPRmSQzY6Km7aah6YZGUYIGjIDxK5mPB/Bhet1WdZEVlixgFuQFdGHKRaqmYoEgmYI8gAs3KDTfUiI2FF8O3VVzbtuTYjozG/7A6nB+de6553+q7qVLWaxZtra2Tk5mczXjIsaUKmIr7A/PnR6EbAzETiCoxVjXV4DVS1chdWj4sLa29kGKmNtZHk+ZDUI43Jo7gzHA9w4iaRRLG0xXyzaH63J1GPDs2bPVy/lCvjIXRRvA3zw7WO4iQLoVFo7P7uI1PASDDbGg/Daym7eQAICkYcBzAKQQIPEu4T8+SwIgVCYCQks4rpTiOI4GG7ZD4j1aLxao4Lke8OIeEBRutuWmCtizEpIgpI8O87PkPSCxfSO+VQHzL/4H4AcD/5y5RQASlqIYEKQjKNlIIkBQ/BnM/V+AmZkZAPApWCHBzxxXVe1jnEWAgBTZTeUoIzSxlWhw3Gd1vSAAJOkANXWJveK4TdU+RkvJ1BElMZPcKywa48haSxz3CgChLvU14I1rHjqtAW4PS3Ge4mMN30DsWLM2UjHGk5F0EAFu0XZg5l1vdID66kfUqDACXCMAThcHctTrbXhk2fcbHU+efgHs8czH1boO4HvdINEKUQHN3bybdGx3ZHngqw9kuXNBWu76kga4i/N047VvGDA9PV0nrtRzyioAGk110/5wOCrL0XDYn3YXSmfSewRoVkqzON0m6pA0DPD2e9RsEgAvOW67eQCN348ILU1CpIvG9P0mx71sorFQFjJeHaAxWF603GXS0aWbT6bTZKjLkH0prUnq87V8xeDvfLrZPEZjgS0PGnpAOcbkSn2pFXwXRH0q0A6zKEmSKErwMeM4OE2QE4loZAeqw2LlfwEmJyc9Vjedy5uQgVvHFdQnxmr4IisJbjIIYG5JHQP23OqBpGFA1dul4ZwiGFg4OoQ+KXQ7QmiKtGEUd4h0C8x9CtUxbNdb1QGue7xSUw3curePoiz0M5r6Cwy6Igm6OofMTRfx3rUOcO4hsVqo3AkIggTHhD5hWbNJkzlLwxVlwJuCQb3FosNzrgNcxCgM39slpAAADkI5imXdZXMZvujnxuCK+mIAzF1B1RWZ7IUOsO+mWWPcSohSYK6P7MMWbVdWTVc2ls6VTAYpIMHxLEbFTrv3dQDSpgAADCxJhj4ckykW+V5bU48HQB55UzW3EbMrNnIYMDU15eCxIgUboCOKBpN6TDuZWtCUIotKIWUmRFHM7IQKFObEeAckDQMYki0u5noDotMhzGqVTiqW1RSj7NAga4boEKYkVMc6WZLRATDG7lRq2fpgMDC3Y+g/K0rXpqmrOIuUpeeDoDWVA/iKncF0AKd9Y2OFdZxXq56qjWKdv6yvr2BftLL+q53ev64uVc9xSN9Y37A7dYCRpAHGfhoVoD15Ho+PChh/rAJ+mHjy9PsR9PTJxP278cHD8UffjqBH4w8f/PP0nfhuBE2gp69GGHs4gsbU/L8BUnsyndngiWUAAAAASUVORK5CYII='
p13
sS'twit'
p14
S'data:image/png;base64,iVBORw0KGgoAAAANSUhEUgAAAEgAAABICAMAAABiM0N1AAAAXVBMVEUAAAAiZpkiZpmnqazR09QiZpkiZpkiZpkiZpkiZpkiZpkiZpnR09QiZpkiZpmnqaynqax6nbdYWVvGzNAtbZ2Eo7pOgaj////x8vLBwsNrbG6TlZinqazR09QiZplVuS+EAAAAEXRSTlMAEM8AgO9gvyBwr0AAgADfUFAEwO4AAAFASURBVHja7dPbcoJAFERRIIJXgo6XBCLn/z/TYTiVZtAonZGHGPYLgtWrigKiqaHFSRK//yLsovaQi+S0gh2gVCRlEewAZWLLSAQ7QHOxzTkEO0ALcS1YBzuFluJashB2CiUi9L15O4Vi0WLOwU6hTLSMg7BTaCXaioOwUygVLeUg7FpoLd+tCcbbOSgXjfze/F2kryf9Avg7B0knwvF2Djp3eiPydxEuBEKz2msnA9v5u1lU9xoK9XdPg553a5vNuZMQXT21F4eMjYWwGxOqiUaEkAftD4f9vXOsHkBHkWP/nIKMrTme5KoT/icgudFDyNhYCLtxIfRxoxqNCSEOQiNDxnYPMrb/DqHPprIypirdzxrxUGlcZTBUtVAVDBltgiZogjzo64f+FFSEQ4WDtuHQtoGsVIRBhXUcFN5rQxeRvKWEmfLPxwAAAABJRU5ErkJggg=='
p15
sS'gmail'
p16
S'data:image/png;base64,R0lGODlhDwAPALMPAKanpRyl/VphZAAi9Qlf8AwTG3R2gPz9/tLSwAAvab++tI2p45iXh+Pj1zE3lAAAACH5BAEAAA8ALAAAAAAPAA8AAARk8MlJq33jyiwDl8QUhN3niebAnWU2qu0TeC7h3G+tOs2BAAICAbYoCgQKgEJgKDIEDkWDwTAoGEtDA8EAKgyFaq8B0ArCSEZYCyw3zk+Fr6ooFJiIOfIwtRYSeHpyfQB/gVwPEQA7'
p17
sS'related_to'
p18
(lp19
V\U0001f3ef Japanese Castle
p20
aV\U0001f1eb\U0001f1f7 France Flag
p21
aV\U0001f451 Crown
p22
asS'name'
p23
Veuropean castle
p24
sS'known_as'
p25
(lp26
V\U0001f3f0 Turrets Emoji
p27
aV\U0001f3f0 Castle Emoji
p28
aV\U0001f3f0 Western Castle Emoji
p29
asS'default'
p30
Vemoji
p31
sS'bw'
p32
S'data:image/png;base64,iVBORw0KGgoAAAANSUhEUgAAAJAAAACQCAYAAADnRuK4AAAHa0lEQVR42u2dHVQ0XxzHg+CBIAiCIAiCIAiCIAiCYCEIgiAIgiAIOicIgiAIgiAIgiAIgiAIgiAIgiAIgiAIgmCe893/2efsf8/u3N/cmTs7L5/vOdf2ZfbuZ+b+Xu8diBBKoQGmAAEQAiAEQAiAEAIgBEAIgBAAIQRACIAQACEAQgiAEADlo6mpqWhnZye6v79nMgDIY2IGBv6N4eHhaG1tLTo/P48+Pz+ZHABKBlDnmJmZiXZ3d6OnpyfmCVSSA9Q+xsbGovX19ejk5CR6fn4GIJQMoG5AbW5uRre3t9HPzw8AAZDfGBwcjJaWlir/VAKgDAESNLOzs9HR0VH09fXFEgZAdhvo4uKilh4aAHkANDIy0nTr5YX9/v7ihSE3QAos7u/vRw8PD7WHBoAMkj2zsLAQHR8fR29vb0wIACXT9/c3kwBACIAQACEAqqXkbZ2enjIRAOSn7e3tpgt/eXnJZABQMt3d3TVdeQH058+f6PHxkUkBIJs+Pj6aKYr2QOL4+DiuPQDZ7J75+fmuKQyVaSAAitXW1lZsHgx7CIB6Shn1lt3TawwNDdWy8hCAHHp5eWkWz1tKOJRYxR4CoH9S6amgSFI8trKywsQB0H9aXV31qkBUph6Aai51U6Spfb6+vgagukpdpwoSpgGo7kZ1bQHqFizsBoeqEF0QTUxM1NaoriVAChbOzc05wWglUvf29pyvXV5eBqC6SJsmuIDY2Nj433vU4+V6j9p5AKjiurq6cgYL1dvVWTivJUpLlasvrG67edQKoNfX12ZLjqtlp1cRvdp4ZBe5+sTq1B9WG4AULJycnHQuQ+ppj5O2eHF9huyrOvTF1wogV5JUQ1u2WKROVNdnqRgNgCoieVMuu0dPDWvDoF4nO4kgYw0Akt3iChaOjo4240JJZEm+6nurvglVpQHSDhkhPSeLRzc9PV3pIGOlAbLEbg4PD1N9R6vwPm4oWVvVfvrKAmRJkjYajdR/rLwt9dC7vuvs7AyAspRsjrR3fy/JFXfZPYrXJLV7eklxH1d8SfGjEJ0dssX62bvWF4DavRjFVbIG0/Vnym7RNi1Z6ubmxmkPyVjPMsiop5/mUd+rNqTaANSenJQnk9WTwJokVYY9hJQ/syybIb6vX21HuQOkrobOOzUrT8WSNQ9pj1i/X68LMY9yGvI21nMFSIVXvWInaXuuLC51UQDSdaYJMiq21GseVWlQSYD0hHHlouQ5ZQ1mEQFqLd0+O59ZqgJ0M1UKID1WLTEZnx50GZI6eiBJGWoRAGot3UmTrrKhLGW2eUXAcwFI7rp1UpOmFdRek7SOuSgAJQ0yWoz0vMtsgwPUvsuFdcg1tdyZqu/Rn9ZtxC1p/QBIXlKva31/f3d+tmI9SeHUVsSlBkgToyeKT7dD2h+vP6xIAGnDBl+l6R4J3bsWDCBryUPcUK963QFSQtjVPdLPMttgAFmKrlxLW5pyiCoA1Io0p51HrQKh9roOApC6Eyxln4qFuH68etZ9wv9VAEixMUs7kSVxLE81RJlt5gBZc0ItT+vg4MD54xcXFxNHWMsOkK7RNY/tUFg8tBC9a5kCZOn27JbItGxukDRSXWaAFAtzwSMvU5n4dvXaWS1k71qmAOlJ4eMVyFBUUM313iQR1rICpJsw7tpbtmG37Lu8Xtd7BWaWvfyZAWTpepBhHRfTsdQYd951VQLIWk0Q553q6Z5nLVQmAHXLDPsYcVaj2hJhLSNAFqPZksnXUz6EXRkEIK3XFuKtbqTFg7PU1JQNIIsnpdJZ659uWRH0mr4CJPfaYjS7uj07ZUm8uu7EMgFkiTQrt5XkHFZrkjntXKQCSG5hCMq1RKWNsJYFIN2ElpZrnxINGcuWeUyTufcGyJph962+s3y2ap9lfJcZIMvTVsOn5llmgzVz73vKtBdA+jHW5F5IgOJakssAkGX3szwAal2fj1GdGCBL10OeAPXayKDoAFki9nkC5LshRGKAtIOFJqN9xMVvQgCkoGPnNXTGh4oMkAxcFcJ1/oa4p3oIgDq/v9s85hIHiguhhwDIMplljAPFXXMIgAoTSAQgAAIgAAIgAAIgAAIgAAKgggOUdhSpL6yfcSAAAiAAAiAAAiAAAiAAAiAAAiAAAqCMANKEhRpZdSR0+8NCXbNPwVetAULZAA1ACIAQAAEQAAEQAAEQAiAEQAAEQAAEQACEAAgBUCUB0g4hykHpQDwlX7UTSIhdTgGoYgBpuxXtFNat/1+HmKi1uywgAVDO0j45lo0j1Juf5dGVAFQBgLRkJTlSIM3ZFwBUQYAsewpmeZYHAFUIIBVr+ZyGo6UMgACouQmob6lpP05KBqCCSa66L0ChTsEBoBIBpDgPAAEQAAEQAAEQAAEQAAEQAAEQAAEQAAEQAAEQAAEQAAEQAAEQAAEQAAEQAAEQAAEQAAEQAAEQAAEQABUZoEaj0fyDijzW19e9AdLx50X9Xa6j2UsBEKO4A4AYAMQAIAACIAACIABilBWglZWV5oGxjHKNwgCE6isAQgCEAAgBEAIghBLqL5V8YckPTN5jAAAAAElFTkSuQmCC'
p33
sS'version'
p34
VV6.0\u02b2
p35
sS'uni'
p36
V\U0001f3f0
p37
sS'desc'
p38
V\U0001f3f0 A castle, looking similar to the style that can be found in France. 
p39
sS'browser'
p40
V\U0001f3f0
p41
sS'annotations'
p42
(lp43
Vbuilding
p44
aVcastle
p45
aVeuropean
p46
aVplace
p47
asS'wind'
p48
S'data:image/png;base64,iVBORw0KGgoAAAANSUhEUgAAAEgAAABICAYAAABV7bNHAAAAAXNSR0IArs4c6QAAAARnQU1BAACxjwv8YQUAAAKQSURBVHhe7Zkxb9NAFMftrMyIoWPF0okBZioxFMRWqV+gndsRISWZkgxdS2GDqVvnSmVj6AYDQoBUIXXrB+ALJPxf/Fq5Uc/v2bk4wf7/pNO75/P5zv/cu9ydE0IIIYQQQgghhJBmkaoNMhgMvqZp+lTdpNfr3dZB2UeU7aqbTCaTT/1+f0/dZDgcTjQ7JV93HmL1CWXfUPZM3XvpqCUBKJBB6RDDsDzQrLCFsteal7IzmM+Zh4en6ZFmpywqxKr2aSEhJg3k0m1HBPHz5Xp54eTbRIraJ4aYAQUyoEAGFMiAAhl4BLqSv0PNlwZ1/0r9eZ5xD9M+ybPVL4325yrzwrjXJbPbBi/SEWutUZXZ9VAZvGsyhpgBBTJwDbPRaLSBUPmlbilmQwxh8RJmJ/PucIr7zjU/3ZVrNs933PNO83OFGPr1Kt9eCNcIGo/HLzQbg8d4qd3ZJNez4ozAPU+y0ijcaS8EQ8yAAhm45iDE+j6GeG278zrAHHSQn89CtHkEraktxCuQ62H/GQ/VFuIVyPWwJsJJ2oACGbRZoHW1hayEQLIdQTqWv15Nh0hnSJWPMxw8UFuIdx30Beug5+rG5BIivA+tR2QPiG3Oh0W0jXZdxzDeEeRSuySXePHtosVat9v9jfJNvMyxXqqdpYQYXvhaxBEB9FIhEGkfdeQDYO0saw468YpzQ6fTeQORos1J+IFcxyS1CyQviRHxVl03KuhF5tXHMkbQH7VV+Km2NlwCeYejkx9qq3CttjaWNQetBLKM0GyQVgvkOUputUAeKJCBKZAnTpuMKVDkTz6rhnlS2vYQM09KOQcZUCADCmTgEaiJn3xueKQ2iEegJn/yiSJQq6FAhBBCCCGEkOgkyT9BpwQiexSNYgAAAABJRU5ErkJggg=='
p49
sS'andr'
p50
S'data:image/png;base64,iVBORw0KGgoAAAANSUhEUgAAAEgAAABECAMAAAAV8YMOAAAABGdBTUEAALGPC/xhBQAAAAFzUkdCAK7OHOkAAAMAUExURUxpcXijrXijrXijrXijrXijrf3CGnairHijrZWpkv3CGHijrf3CGkDA53ahrPzCG3airPzCG3ijrXijrfzCG/zCG3ijrXijrfzCG0DA53ijrXijrXijrXijrXijrXenrnijrfzCG3ijrfzCG0DA50DA5/zCG/zCG0HA53ijrUDA53ijrXijrXijrXijrXijrfzCG/zCG3ijrXijrUDA5/zCG0DA50DA6HijrUu73EHA5nejrf3CGnijrUDA53ijrT/B6UDA53ijrXakr3ijrUDA6HijrfzCG0DA50DA53ijrfzCG/zCGz/A6D/A6EDA50DA5/zCG3ijrXijrfzCG/zCG3ijrUDA50DA53ijrUDA53ijrT/A6EDA50W+43ijrXijrXijrfzCG/zCG/zCG/zCG/zCG/zCG/zCG0DA50HA5vzCG/zCG/zCG0DA5/zCG/zCG/zCG0DA5/zCG3ijrXijrUDA53ijrUDA5/zCG3ijrT7B6XijrXijrXijrUDA5z/A6Ei83/zCG/zCG4PAnnbArfrCHXTAr0DA5/zCG/zCG0DA5/zCG/zCG/zCG/zCG/zCG/zCG/zCG/zCG3ijrXijrZLBjkDA53ijrcfBVaTBer7BXvzCG//CF0DA54XBnXnBqYDBovzCG3ijrXijrUS+40DA53ijrXmirFG31ke94HekrkDA51C31nCntm+mtDfE70+411G31fzCG3ijrUDA5/////zCG9Xi5aXCyHeirD6/5z7A6HXP6vj6+/7+/pK1vYattv/+/uXt73ejrT7A6fb5+nairP39/oSrtfT4+Pr9/qPBx+7z9VjG59/y99rm6ZG0vLDKz+rx8+Ls7s3e4fz9/fv+/528xHulr3ymsJi6wcfZ3X+ossXY3I6zu77T2PL39569xJW3v8/f4omvuHKfqrbN063IzlDB42zJ5fH29tXj5sna3lK31NHh5Z28w1m72XGmtL3a4tbj5lfG55bAynLN6LzR1u71993w9V6/3MDU2YStt1a51+fu8JRzkwAAAAC0dFJOUwD+/G0GUCPdKAEFA6EBx46eB5336wxr3gT4G8EP64sSZHqa8xAE+LNk7kZf9BbEWlEZfL6zPiD9fwIloEA9/ngV6AowuPRogQaOOd4q1OrQLnV1UvvvH+Sp2QvRiPxByE7hzjPlAh1NEGzu2aTauZHF7TywvCJa5IP2JTauJF3Ic/yGZPyc83iZnKrbiFmJFJnTXzxwlAu+M/IxsGzvovtivhWKNAdt1G2vsYxU3HPhDb7wLkQSo2YAAARuSURBVFjDzdVpVBNXFAfwIcREhBTZwpKkgJhCIGgFpSASkEUFbFVAEBCV1oqtWqtV67511y7afd/3vT1vZiAikRoTA6FlVYQSwN3Sfd9PZyZD1peZJMyH/j9wzuRdfuedd+fdQRD2BEUgnGT1+sDHwriABBvw0PhHV/mNHQrFcbzs8IMCTiAigRGcQKHxMzjYUdm69TPCODjsNc8LuHgDBIvXcvMiCRYHTPifQS9wBD37zHNPcuHIC2tuTeQCSrwBRW/LGbszeTqKopG3iMYMJUQSEHr9TI//MWhakO1j2gLSQVWF8xiKoLlrzYGHpllmj3ypioLQ2ctsaiJi1wXUPcICBeL4thvn3kS/ORsrUDrTJ1trwuJxPO72RfNvZoGIrHxgFXXSS0YdNDJBZAcRKX54NSuEb6Cmz8KKRvQIFbRxidwRwovns0Er19ZRp1n17r4rn5P55co+px0VH5oVwQiRRzTalA9//OkLMn/++lGezRndwX5EyNxr9lubhviCnzFM8xmmaRCOt9ZMCChb9Cpb+2Pj6myefEE91t35u84R2sY+wGPjrnWAesDgiBM0yxuor8Mr6F5HqMvU0+Q5NO+eu+8T2UNkTtpB0a+89DL79Dlhe9Ph0JaCE0/lsE8fVaGcGUrbg6I1ezPYp4/NTYdB8q01RNHBhUwOPX2sN11shbaP/raDmgiq+99gmPP09IlMQJC8kuynkaKdBNQ+ZGrTnFWkJ+fGZO/ORapeNI8Dpi/Cxtn0zFiQRuwFPO6fDkC95vLFvvZT5/Sy16MqwfJk5P0Cusj1F6HKMn1UWzOyfXwkTywH4GznoPqMsdOgVu7MVIDqqJw9lgnl6osg2lJgGWMVO97mASpqtZb8Y34gdrS3xlLk6osgevM6eoodaSxIjKEh+0xJXtpoKapw1biZH/zw21EyX/37ycdz4FD0sk//Omou+vYdV33jX3Xsj9bTp1tbu/+ZiLiCxguNTVTRd9r3/FxDw1hLmw473swENWg0I0RRPbiaAWo5dXlgiILgZyShoOF+g4kVMl68REHl+RBHlpRBQiOD+iFWqNPwNwn5IbucJVmMP0Lt6PsLX7JAw9hIV4sZQrbn85wdCtK0EUVsEBkzhOyqtnN4JYRDQiepIjch8jk31Q4KKUXMkIaGXnPhbBYLj7VgTT2m9u7miXlicZ4zlCWOyRI2tH1j6sawr8GmOZuhUKlS39GlO27QGtubM1N4vPTkKfbQbukknlIsNJ4f0F7S6c4DnrIUCiXxwEB/b/8ZteFc352VAFRuUtifUXV+LeC9pTR0APWF3t4O4pckVxBQ64l7rlUDppDLWj1ZCIf8SoDHyYb1jR/sORTMh0BSieeQRAqBosI9h8KjIFCWzHNIlgWBpoZ4DoVMhUApwIukuN+02uBJRDJr3W6bNBVe6sv3J8L3ha+mSt1u2grz8gq321akgJeOMy+Pg68qitxuGjMEaVuKjzeQT7rbN40ZApmObYuWeAdJoh2g8nDvoPByGvgPenQHvbiiTvQAAAAASUVORK5CYII='
p51
sb.