ccopy_reg
_reconstructor
p0
(cemoji
Emoji
p1
c__builtin__
object
p2
Ntp3
Rp4
(dp5
S'emojipedia_url'
p6
Vhttp://emojipedia.org/cityscape-at-dusk/
p7
sS'index'
p8
V438
p9
sS'code'
p10
VU+1F306
p11
sS'apple'
p12
S'data:image/png;base64,iVBORw0KGgoAAAANSUhEUgAAAEAAAABACAMAAACdt4HsAAAC91BMVEUAAAAAAAAAAAAAAAAAAAAAAAAAAAAAAAAAAAAAAAAAAAAAAAAAAAAAAAAAAAAAAAAAAADr6+sAAAAFAQADAADq6uoGAgAMBADv7+/z8/Px8fH19fUMAQA4CABVDwCqKQQVAwAhAwBeEgB1GAGIIAKjJwMcCwArCgBMDQBuFwF6HAPt7e0bAwAwBwBpFQGaJAMmBgBJHAU/FgNYIQRiFAA3EwIlHwM/CgBFDAARDgW9RQg6MwZFPwhTTwt/Py96Kw6sPgY5My8iHRprKQ+1QwehOAX/+y6FgBOWj4unpJ+DLgOPMgTRTgqTRAnhUgtXU0+ysK5NKh4rKCWViRaZNQqVWw1jXg6hRRRcWA3mWg1hKgVqZQ+DaV6gaFunenCZW0zQtiD/eS+9XEKtjIV0dm/QuSGvc2b/sonCJwHJMgb/zCT/2Sf/0iUfFwK7KgP/rR7ZMQT/sB7/aRHBNw6+LgTthBT/xiP/tyAUDAD/3yjGMAT/YQ/JKwP/hBb/ixf/oBv/lxr+wSJkRgj/lBnaNQazKwPtYhP/fBT/viFlVA5mTgz/phzCLwX+5Sn/eRT2mxvicBK4LQT/bBH3Vw3/gRbufBXNLwT/cxTLYQ7/nRv+WQ3oUAvOMwWBHgL8/PzWSQj/Vw3pvSASCgBhHwXgeV8WDgAfEgL9/f3/cBP/ZRD/uiD5zSMwEQHtVg3vbRH9qhzMUTTudRPdNQf2YA77+/v5+fnNQAvsjRj39/frlBn/jhi5NwbfWA5vaRApJAXWYEdeQAnHnhrLbBHERg/29vavKQMbEwGbZhH1qR7yviOymRzKSQn/Xw7NUgv+ahHvWw3ysiBMRgnqrh7KjRb+6yvLchPaUQqkGgPvTgvuTgtDPzncVS/roRtnWQ+Fgn7///8OBgCzWA7KfhXdl4fQTyL2bxJpZl4yLgXVMwX+/v4QCAD/qB3jOgYYEAEUEgGRIgKlbxPieA/XkoHrlhbKdRPmoXt3chH/8Sz2Yx3Rrx4JAwALCADPz8yEYsB5AAAAEXRSTlMAgwwmXVWuK3geFTxvSGagfkyF7H0AAAdjSURBVHhezNFVb+NMFIDhVbtRN0nV32l2mJmZqczMzMxMy8zMH8PFnkwcN032prnaRx5LmZnzylKu/RIqRMKyiCq4eaFYcL0MArEwVxCJn5RJLEIBoeBdmQRCFKisKTdQU5kLVEPgDmNIXYGBuQOB6lyg6gYEmOb6e8Xu8kqO6psZCNyo4gLd3d14fbzuCuL1OAwVBhoGDxC9Hr1/6kCPTtC9wYaiwNSxvreYjNdb4niqOOCSxWIyGTzw4h3l8Tuy3JK5igP7rlhPTpoXOvqYNx5COz15Mdd+YaCpqelwKB3iuXMSr8Y4kvGEG4R46aFDGLoUGHUnEOMFU9rhGHNkl2TIZOQkEPdocSCTNJry5jh2twNIJLBe2dEOf8WYzBQGJiYmMso5O2K5UGt8CzoewGu01oLYLXZkTpmBIT4wOTm5Nm2pRczmWv8HxOw35QOpJPxCm34AtyzTazBUGLg1a4YjNMpur9hstpVtKRtuACl4DEopm7y9gNxegJvm2VtFgecPh1mWlWb12f7t1Jy+WfGowzAMUssjyr6+CGbIwpen/FJ2+OHzkoBUzbH6NPTW4qlN5QnjiKFjWWm1RjAdjut0eMfL4T61tCRwfqb2cAjf0090l8ZHqHZ0HGyaICIYpgtggQCGq60e9dl5ScCq4lC++69pWuOjiB1FIAebpaiIfEQhHwkoGLlHpbJeDszMzKy29lMURWSRtsf/01saH0mdKBD4gnAw+G3kO7P+Qs4wcitBqFpXYagw8Ptv8A+wBAW0XnoJvsCrJU+iyJfGxq97e8+YKOKcV1FUf0kAd9W1tBwQJAh632/RdJs3qN11ZkUHlpY0bf+1K5zI5nw/SVIlgfU//q6r01NacPNRWxfd1eb96+buJnA6B/5c7Oz63B7dzIIAGQxq+/8pDGxsbCgWBuPxcTIIgR+d10toG0ccBvA2cZukrUmys53NQ5L11krR6v20/LYcv533s3n2eWh96WlNzym04EsvPQQRGLGCgnLKtRUUt3sxxTUYHwIJ04sFC2tBDzadzaH/keIiy+lFn4Q0+2e+HyPdZveFoeu6wf+DvmbSmYyub5cf8bXP653957MHD369AqV24NGTx0+frn25sby83AQy27d/+HHN1wK2dQ787vP5+rywNhd1jQjtwNmzZ/tWNxcWbi1tbGzsnn9BdW3yZvLhF9/6IH9/XG0BffypZJqmPrlOVAFK7YBvZW7zyebS7u7y0sZ3VDfrmdtfP3wajUYbN65ywMwno41GNNoEChmTdAKN4srq6h/Lu7t/RSfieV3XrNs/PXsM/aq/opv8Vano8Wg0pIGgaqaO24HTp097R4r9/SvL58/f8DYSeVPbGUx+82yh0fBWtk0IubmjavlEtOFZnKyrpmZOb0GpHQhNjBRHihsAlBoJomkD9eSztU0vACaPWhjQzHyi0Qjq6xkAtAujHYAjVPKWvPPz8/DJAYMl127Neb2ligZ11TSoCSfweoOqRKCvIaEDkCOe0OdDHo8nFCopn06bqpW89fNqqRSqaBq5PiitXycaSZdKkcWdGlFVMlhvB86cOSMHPaG7wwAAoWxNaQAsbK6EQh4/370uDQwSlaRDoZR+vQkM1KDUDjgD6WAkyN9BT9qiqmrFN+f6PZ6gH7ZTQ7MxVTXSnqCbSEQFgQkdgID9Ecj9ocj8vGIRQqz43GoRRD/hoVsvVWJVh++XDdIaHACYPwW5O+S+di3QAlb7RyKRlNZs2F5Oq4YVGL6XpMTgL+kNgBvicKfcqYBlGITF+4sTKbebAxIFxSBWIOWWoWzYaAdw6tQp+AkOyNC4w+HmgMESxZGr7qGy0zBooU4pNeAEbrcM30YhIzEBSvsA1gTuDTUB2M8SIxOz5U/GYSn9cpNRg1Ir5nDkYGHsDLCDgOCUZdnejB9jSnF64uqM7JANJlE4BA8HspRJHBM7Aet5JZfL0cw2g4w+lyScnp2dkeWcUdMlSQJAoswly1mjpkqQ0bF24Ny5c5dfjdqzWTq5jiRJnHpFGK7OzAznclmDj1phrlzObl6pYQAvbkGpHcCX/XB4aqoMYTZ2GU5QHR4ez2btVCdsDwhns4pkUgbWWL4DEARqT9glzNjYGKMGYzgwPl7mJowk1gwO2+0K0/iTJAqdALKlpy5hhvHFaWFwBzEUK5eTiqJAeS/YaVdi2pWaCAI6CEjKpSr08fNRpGcwRv5kMq4oAYZhNwKYA4oSs2oE4zcDMZeLA4KAEeJAPJ6IxWLczOdBAdMZi7mQiLj1BsDmagFArH8kYjF86U68OUL44lRzhKjLFQaH7RSE/cDJkycFkYXDYYY4IGbqCInO+J0EjKCALlwQa3WEkS0cdmJIYVFEApT2A9jpdMJm2IdFAQCjGgi8HgkC4iNkg2e+QRCReBBANpsNif9FsMF594/4Fra3PgAcDFf+Px1AdwGgdeXpFnh95TnW82GX6TnWujf2njj+bhc5fqK3dW88dKTn6Ntd5GjPkUN7V9/ed7pI797VF4TDR7rI4Wb/X3Rp9LJ9cfMyAAAAAElFTkSuQmCC'
p13
sS'twit'
p14
S'data:image/png;base64,iVBORw0KGgoAAAANSUhEUgAAAEgAAABICAMAAABiM0N1AAAASFBMVEUAAAD0kAz0kAz0kAz0kAz0kAz0kAz0kAyJajxIU1n/zE2TbjfpjBEpLzOCWSI1PUE3P0RGUVcpLzMpLzMpLzMpLzMpLzMpLzOXyPtrAAAAGHRSTlMAYL//ACDP7/////////////+/YADPIO/Z3xfxAAAA/klEQVR42u3S2Q6CMBCF4YGySLUuUPD939RDjJkYKHHokpL43/e7OFOaK0rlUVlUiKqqbpRnTT1Ddau8a2tAjQpQU1GhglRQGQYqSbk7dej0o0SbjkCiLUci0YYjksjtyCRyOkKJXI5Uom2HpV1Qt9IfckMa5Qk5v8Z5H3TpFgnGDg+hCJBGMSDDXV1jyyCUHOLSQlx+0M0suovHRg+zkgjSKByEokAavaG5iNDyKpwHhCJCXFpIo+NAGqWFuPwhLi2kkQy6m0+ekMkf4o4DaZQe4gfZQ1xSiPtD31AfBuppCAMNZMcQ0GjJTk9/6DkBstPoC42TBYSG3gfqB4teItWtfC6TdZoAAAAASUVORK5CYII='
p15
sS'gmail'
p16
S'data:image/png;base64,R0lGODlhDwAPALMAAPhoZllZAA4NAP2UZzIxBKCiAPkAAP43Bs0AAGspHe7xAPrKZZ9fRv8gAH1/ANgrASH5BAAAAAAALAAAAAAPAA8AAARTEMlJq73S6M27/1ojjmR5nGh6PqyaPkgizEBt24lDCPrtJwqdIjAADIrHY4Kw2yWfDAYhOCUeGUVpgaDjEhYLbyBA2Op43/Cw4JgJqEPwzu2e7yIAOw=='
p17
sS'related_to'
p18
(lp19
V\U0001f307 Sunset Over Buildings
p20
aV\U0001f304 Sunrise Over Mountains
p21
aV\U0001f305 Sunrise
p22
aV\U0001f303 Night With Stars
p23
asS'name'
p24
Vcityscape at dusk
p25
sS'known_as'
p26
(lp27
V\U0001f306 Dusk City
p28
aV\U0001f306 Orange Sky City
p29
asS'default'
p30
Vemoji
p31
sS'bw'
p32
S'data:image/png;base64,iVBORw0KGgoAAAANSUhEUgAAAJAAAACQCAYAAADnRuK4AAAOfklEQVR42u2dIbRNXxDGBeEFQRAEQRAEQRAEQRAEQRAEQRAEQRAEawmCIAiCIAiCIAiCIAiCIAiCIAiCIAiCILz/+t21vrvG/GfOOdd7F8f7Zq293rvnzj17zuxvz/727H3O2bVpsWxBdtkFFgPIYgBZDCCLAWSxGEAWA8hiAFkMIIvFALIYQBYDyGIAWSwGkMUAshhAFgPIYlkbgA4ePLgoJ0+eXB67d+/e8ngur1+/Xui8efOm1bl79+5C5/Pnz63OtWvXlvVRd6Vz4sSJpc7169fbc3369Gmh8/Tp01bnyZMn/7vmXM6fPz9qU6xvyCb5aapNhw4d+t81zwJAu3btWpQrV65sfvz4cfPVq1eLi9bxWHbv3r354cOHhQ5O3NjYKPX4PQ7kfDil0gFkb9++3Xz37t3mhQsXSp2zZ88u6uNc9+/fL3X279+/sOXly5cLUGNjpcc5KOju3bu31AHU2ES5ePFiqXP48OHN9+/fD9pEQQc/DdnEd/IlwOEY/polgCIY9uzZ0zpG3/G3c4waiO+7c8XjQzqqo2t07JbtQzapjiGbYh1dfRwfs4nv9V3Un+Kn2QGISHDkyJHyAm/durV58+bNRTlz5kypc/ny5aXO1atXSx2Gg9u3by90qK/S2bdv32LoRAfdrnFUF+X48eNt5JLOjRs3tmQT343ZxHWP2UREG/PTuXPnFj6YHYnueggAkpw+fbrUAVgShsGu90sI/V10E7eAO3U6jx49Wp6L4aTSOXXq1FKHhq904BwSuMhWbIp+6my6dOnSqE3R7lkBiJ5WXdDDhw+XOh0n4LiE3lXpxLAM5+nC/pcvXxY63759a3v7ixcvfiK6YzbRoyudo0ePLnXgT93w+PXr11GbHjx4sDzXsWPHSh0i4ZhNRM7ZAYgI0vUaZiU0Pr2Vi+sikGYQ3TAHQWSYRIdeVjUE3xH++UvjdsMqkVA2dcNFtIn6xmwCiJ1NDCucC5u6CQF1yKYOQJrVUSd+7WyKEX1WJBoHASScQCSpHIoOoRhHMFxVwCOa0dvQAXQd8NDBmYAAHtWFfTV0x2U4P408xSaujQbqgM51y6aOpzBTAwzoMXRVM1FskE1M9StQoUMd8pNsmu0sLIZ9ppdjXGaIO4k3IF0EiDmQjjtxXAL3mcIbpthERxizqQMQx8e4U/ZTNeuLQ3b002wBFEkeuYmOME5pLPI/YwCK/Iq6x7hMB6CYAJ1qE5FoO2x6/vz5tvtptgCiN5H8glBCHA8cOFAOF/QadJiVVGM5vRvCCQhJAlbJNsI+vyfSUbqGICEJ6aY+IkjVkxlSpINtnU38XjYxrFQ2KWlJefbs2ahN1Ecis/IT1zdmE/UpAXrnzp15AgiuAz+gB6in0FD0NBFZjuMUMsYa8zmGDqRWv1NuJfIn/U6NDzDRiY6nHoYrHYOz0MhxqOGcRAVFD+zgcyTS2AGfitfCOeAqMQrAN+Aosgk+gk1xNko9U2yCN8HTOD82UT92RT8BIOrTMc7BsWgTNnMsphdmM42nF1c9kkgi6XokaX8Jva6KElobG5rq5iksDq+WLb5//77UUa+tooSEa6iIbrapmvVNsUnRdGyojekHIk81rK0zibhWAHX5lDhGdzmeyBu6fErkDXHY7HJFWvAcs6nLTWGrBP1128R1j5HvKX6Kds8KQBUnIJLECNTxFPiAhPG+ikDwoChV/iauhCMVb2D4ixGoW8zEVsmPHz9KPrddNnG9cTbVzcwiyNCvomIE2WwARJiGxGk1WGGZUAwvYGyG5/CZoS6GXrgFx+EURDF6EJ8jiDg/pBTnowNHIJxHvgEHYSiEO6DDUIHD47DCORlGsQGbqJPPuVGxOdtEw0S7O5tihOH/qTbhB3yEXWSliUKxPj5jk3QYPhl+ow7fAfwcGWcxC4O40bNxIs5mxlINWVwgEQcdnMvfrEM0gxPgMM6Hfu5t9Hai2+PHjxc9lh6Zp9Y0IDo0kGzKQy0NwPkBAzqyrbKJoWzMJnyAPdjFTHSKTdUwSnSTfzRjy5wHHbgQOtjEDBhAznYaH7lFl7/JY3SVK8l5mY5URqEhxvhOl0/JYf9321TllHIUIUKN6Qj4swVQnEloaMsXTdiNUhHGvJZTbU7LmVoiUAWOyC2UchjKHv8Jm6qsdsyga8vMmI5mubMEkHqDdiRCPAmr0YFwFnoloZ2QTMilxHwO+jiC33MezsewkAmqVqbhXiLhueHJHSHa2Vc1BNyJIUU28XerNimZik5nE+dQfQA4+gmQM3wp4Yp9OeEIWNGhDmyi8/I/ZH92AKI34ty4MMhF4CTxBnEC/kqHv3AinMNxQjBjOo6JzuK8nJ960IGvcK5I2gGwGhgdGhyHxmQbPZ26xC1oOBqH/1e1iaG4sikmICG1amDZxG8AVUwIUhd14CcKYIh+AlDRJnToiNEm6sQmfhtzWLOZxlebvHBglkw8+ZylWg2PC5lItfqOc6Pwudr9GAWH52Fmqk3a9D5kEzO6VW3aTj/NBkDV6nu1Oy47hsbLUmV0s2Oq1fe407BrrLjg2xHdqTZpWBwi33GnYZfjyTZN9VNFvjNBnw2AkDikVA1aOblyHnmQPAMi9EchfMdcEWN/JvGZN9AIMRnXkdgpNgGomCQVic1cJiZJEYa02PCdTVP8lPkV15H9NAsAaRoMByBJBx/ROKzxnJ7H9ziQsK4N4lwwx9AHcHABRQ+cxvk4h0i58iLaMkL4p6jnEQmVqxGhxdHUp4YSL6NO6gZo2IIOs8Rsk4CZbUJkk9bzqAN7OBe2VDZFPynjjU2dn8j3RJvQk0+wFx3ORzRVjml2s7BqEY/Gi9NmiHVcRtAyQRwelNjLkjfkV0QxbzSPG7fiGlKMXMyksmSb0K+4ReQ8XST5FZs6P8UsN/o54qKjLb2zA1BOtHXJtjxGVxykWs/JRLdaNMyJy8qmKiGXpbKpAkfmINtp0xQ/ZZu06DtLAFXOI5LEhs9bKbqFyri9o1uorPhVXtCteENe0I13VgzZVEWgvIaWZ2W/alPnpxjN8xaQGDlnByB6mW5dycKYzvBDJjfPWiLQ+F4LiZVozUgbziqyyDEajPMwvOSMb1yBR4fFzQqs2aaOU3DNsqnbhzPVJq57zE9wKb5Hr7MJ2lCBdBazMN2fTQ+I9zBFgeQxBSf804NzT4szDN0uk3tanKZzHvIhVe+X02VTFbU0W9OtPkM2MdToliGR/arDiId0jcxvZVO3/QIbAIvuFKlsApyAcsxPswFQnnpWvCGP95UD84b8bntCHB67sJ15yhS7f7dN1fCY+WNFEbLOOrdx/BYA5W2t1fCQ76isZlP5ztNq5oLE/UAVl0Hi1lc4xBS7121TzJflW3Pywmi3ea3S6WyaDYAiJ8j7hWNopjehQ2juEl/iKQwpHW8gwokTKOdSNTwLmJwrr7pHu3E+NsFXtmITkQpuxbngIx0vkp+6YRWBBqDT8UKlCdDhGjub/noAdQQ6NuJYip3v0RvKpFIPQOk4igCKzpBN1IHOGGfQzoKh+rbLJvlpbC0LUFZ5sszpZgUgpo6dA2OyrSOVkGFxByJA15hKtlXJP4kWGJmGd2DUw6i6pKUyzHFVfd026bbrIZvickrnJwBPfbPLA3U9J64z5c1k1ZpO92CAuIErb9yK0WBo41ZlUzesxX1DHRkes4kIl3cp6KlrucSttvDESifmndCvdOBzs8sDDeUdmNFALOl9Xc+CbDMzgeR2nIDpP+SThso78XLEI8k29IQKgMx56KkdyBgqNFvq9teM2dTd6rTuMjsAWWoxgH5BCNGE4CGCSqhliOhmTurdzHqqXFIkw0S4oZmM+AznytsvMoHF7i5BKHKKTrxnrEsmYlfe3mIATRDtv+n4DqKxfGiY0Q1/EPRO4hpSNxQBGpHhju8gWmsbGh61rtVxMA19sSENoBVFD4kcii5wCohslRyL6X6SgEO36gIa8jLc/TE0/YcXYdNQdMEWbBraS0N0RWcIZNhBHgi74gIwPJGopNI90c0cyFJyoLw8sk5+ZAAZQDsLQGPZUzhPvjuhygXlBxFUKYFqQ1ZOCaDTbdNQfgadsQcRrGJTVZ8BNFG6NR8Js5H4XosOZGPveGDmNuYceEp8z0QH+Pg+ju2wqarPALJ4CJsDgMj1/G1lbOHTAPqL5E/kSsbKUALTmWgDyAAygAwgA8gAMoAMoK0BKJPrMf08+TCAktOqGVG8rZm1qEqnetr7UCF/k88Rn1VoAM0UQJXEhu0y0auufFcAiQ8FNYAMIAPIADKADCADyAAygNYHoPh26O5dIt0bp7v3fBhAOwhAzgMZQAaQE4nORBtAMwUQm+vRU4kJUx2Lm/OjbvfiXwPISxk/1R9feOdZmAFkAK0TQBDmXLpXbBtABtDKszAD6B8EEAZvpRhAOxxA29lwBpABZACtACCenVRFY/Y36Vh86HnU7fZAGUA7CEBOJP6jAKp2LK5aukSfAbQDADTnsqMB9Lfkgba78MCt+DDM/PKYqSWeo3oj444H0L9atuvWZs/CDCADyAAygAwgA+jfBFD19HUeWhnfcVrp5DcMGkCexpfT+O3a0upZmAE0KwA5D2QAGUAGkAFkAM0UQKuSaG/nMIAMIE/jDSAnEg0gA8gAMoAMIAPIANpKWfV9YbzcTrpksSMQVfQCPANoxRxHfEaOCi/s7Z65Uz1Lh89Z50/tYXYe6Dc6Z8o0vnqNUw73Y493MYAMIAPIAPp3AMR7x+I+b93TlY9Ln2dj61jMgxlAOxRA3Sxs1TtTDSADyAAygAwgA8gA2pkAIt8TnxOosrGx0T53sHqeYHwGoco6V/QNIGeiDSAD6M+V/BgXRcxVH+9iALk4kWjZuWIAWQwgiwFkMYAsBpDFYgBZDCCLAWQxgCwWA8hiAFkMIIsBZLEYQBYDyGIAWQwgi8UAshhAFgPIYgBZDCCLxQCyGECWecl/Nny3jdI95hkAAAAASUVORK5CYII='
p33
sS'version'
p34
VV6.0\u02b2
p35
sS'uni'
p36
V\U0001f306
p37
sS'desc'
p38
V\U0001f306 A view of city buildings as the last light disappears from the sky. An orange (or blue) glow lingers, before the stars of the night sky become visible. 
p39
sS'browser'
p40
V\U0001f306
p41
sS'annotations'
p42
(lp43
Vbuilding
p44
aVcity
p45
aVdusk
p46
aVevening
p47
aVlandscape
p48
aVnature
p49
aVplace
p50
aVsun
p51
aVsunset
p52
aVtime
p53
aVweather
p54
asS'wind'
p55
S'data:image/png;base64,iVBORw0KGgoAAAANSUhEUgAAAEgAAABICAYAAABV7bNHAAAAAXNSR0IArs4c6QAAAARnQU1BAACxjwv8YQUAAAEUSURBVHhe7dcxDgFBGIbhoVERragdQDSidAPVnkHlAlvuBRzDJZSi1lJpBI2gIYRI/myFb5MlO9b7JJOdmfLNJjPjAAAAAAAA8FcK9n1tNB7YLJ+C7tBmTyUJdLNZPgXdtw2K9sULBBIIJBBIIJBAIIFAAoEEAgkEEuRTI4qirzw1wkbHZhnjqZEOgQQCCQQSCCR4cYo1D1tXul5sldy0WrNZCuIU8yJQfzlz9dPRVsl95KrAMZ8OgQQCCQQSchWovVu5aD6Jx2P98GwvKf4ggUBCZoF660U8ytez7fons0Ct/SYelYu/gTK7SfsiDENu0mkQSCCQQCCBQAKBBAIJBBIIJBBIIJBAIIFAAAAAAAD8FufudBVD01PpoCsAAAAASUVORK5CYII='
p56
sS'andr'
p57
S'data:image/png;base64,iVBORw0KGgoAAAANSUhEUgAAAEgAAABECAMAAAAV8YMOAAAABGdBTUEAALGPC/xhBQAAAAFzUkdCAK7OHOkAAAMAUExURUxpcfODLPibJvmnI/qvIO90LvF4LfWJKvF4LfibJ/mhJfqwIPSHK/F8LfJ/LPeTKfu2Hu1sMO5wL/WXJvWMKvaPKv2/HPy8HfaRKfu6HveXKPqrIu1tMO1tMO1sMO1sMO5uMO5uMO5uL+5vL+5wL+5xL/WKK/SJK/3EG/y/HPu9Hfu7Hfu9Hf7BHKKBJDc1Lv/FG2tZKe62HfK4HfSRKC8vL+90LywtL+5wL+5xL+9zL/B5LvSGK/OFLPF6LfF7LfSHK/F8LfOELPB4LvF9LfJ+LfODLPOBLPKALPB3LvJ/Le92LvSIK/SJK+5vL+5uMO1tMPWKK+1sMC4vL/aLKveOKveTKfaMKviTKS4uL/aPKvaQKvmZJywuL/eRKfeUKfeWKPeYKDIxL/mfJviZJywtL/icJ/qiJfqlJPucJzo1L/idJrx7KfmgJSssL//FGv7DG/mjJPmUKfqUKf3DGzAvL5BcLXpcK/WkI/y3Hvy5Hv7EG/uvIfqoI/uyIFtNKzg1Ljs2LkA7LWBHLU9GLPy8HfqqIkc7Lum1HWdSK+2OKfG5HPeMKnBSLDQyLpJ1JfusIjgzL/y1H+uNKf/EG2dKLWdMLWdPLPmbJ/ukJJZ5Je2VJ19RKvyVKUE4LmhYKXBPLad7JuSIKfi/G11GLf2/HJ5+JElBLFJIK/CpIfKaJnhZK5t8JJFvJ6Z3KPmcJrdxKz43LlBALtioHrGNIsR7KryUIdF+KndSLd2sHvWSKZZiLM2gIKxtK5tkLEM9LUY/LcidIOmqH/GVJ7h7KPCOKfOfJPGRKKKBJJByJpl8JX5oJ2xMLWJTKks9LayII86hINaBKmVWKqeFI9qEKu+gJPCdJcl8KuiwHu+jI+6ZJo9cLZNdLeiFKm9VK4dgK3BULPalI6Z0KVdMK21bKahoLPmQKnZiKPiYKPiWKFJBLuKvHoBXLLx1K4ZaLFRBLuCGKl9JLcuDKeCOKPebJ3FVK1RELfWPKvacJptqKntcKr+AKOCTJtKkH51mK++1HtFm+p4AAAA1dFJOUwDR0dEN0dENDQ3R0dHR0dHR+AsG0dGZC9HN0dGaGGXGl/3yTaHN0dEPGE2h8fPP/mTXZvMO4tMyMQAABQVJREFUWMOt2HdcE1cAwHEUB06c4B64R/fnet177/YwzYGHmvghKZQEQtKWPZKQFDBh71HZisoQZK+WKiJiWWqr1rbu1tVpd/vevctSKCevvz/ySXKX7+e9Gy+fz9nZgRwWLZ7+1gibvniRgx3XwgUub2DksmAhcmYsWfo6VkuXzGChZS6vYeayDDozlz+A3fKZcGYrHsRuBZybw9iHsBvrwEL3Y/d/Qy9jh6BxL2I3DkFPY8dBD2PHQY9hh6Apj2M3BUFPYsdBz2CHoKnPYjcVQS9hx0EvYMdC40c9j92o8Sz0HHYc9BR2HPQodgia/Ah2kxH0BHYc9Ap2CFr1KnarWGjlm7xzjXW1/YL7vJKFZrnyLfZU+ckT71k6cbL8VCzcMAtBb/Otp8tA2WboqoEbEDTbjV8b8pIZ4qYoRn19g5vb7NuCzp8TEbcmOnfeDLnz60YtCX5IMwyFCPCOJgiy9oa7O4LmePDr048AJCou0YQjKLKkpAVAydEeHnNYyJGfI4QQ01unP15kgONp2afXt2loJjla6OEIoQmOAl6xEH1Q7ivfC4dEZsUkJcXkkhASOE5goU28Eh6AUzP6KpNMkFIJIDA14SYEzdvMq0sQooxypXlEQXBEZEr0pc3zELSFVxc/2QaOUW6dXt/BHqPWNr2+UcOQKZkXtyBo9FZebYQQIdKEnYlAZ601LKxYRQBo49bRVpBn2js3leZpA6WxEMGQpuuIIUlwpQMozQR5wsoyf3jXpuoffyrztKpsJwtZ7o74nJx4Firz5CBv0K/t31d42RRR+Vum2NuS2BaiKpquXy/X0WTqF2JvBE0Ug9pzSNr2xqYZ0emdYqtsIaYg0d8/OpmBkHgignx8JH/+wtx6P9Jef0h8LB39ygZSJwqFiSzk48NBEkl6u2GQG5tgTqdLLO0fAjoqkXCQn1/6N4OtEARZmu5nTrr/Zxuou0ag6LkGIakfguylUulQkNQqW4ggKrfVXgPXUeqAVGoPoTH2ISEhewBEy2QkDa8OkiJI8B68ln79gaWBL00QI5PJaNN1lDoQEmI/xgqiSzKKjMVMQUPz1Qqit7PoUARFd//+vqVSHc2dhKzOXUYN94H88HMzFBUVt0dEGY7I5UHG+CvZ2fWXW/6Sy2POglWDtM7khO+Ty30zGDMUFYWg+SxER7QFKX2Lco4pBMIGzXe+yvxDJDFodGRjkFK5yxqaj6C4uODtGNCOuDgETQoOhhAYcFBSRkV1tkJwtXWvPCn/wlAQ3FNpmdqO4OBJJih0Ozhrh49U9ZUQXU1Nf+tUF6qqMiJpYggJ7NlhOdgWKDSUhWiKoGiCBoE3KhUBXtk/nEEksNW0AUChoWYoAUIGnS5HRYW3FreouJ28dLoKivjvrKBpCQkJuwlCdbmnvyZFZKyr+yyLnT8V0dTfX66jh4HCPk5ImGaCAnaDdepKttC/ObJR7qvMYA8zU5nnr0gsYPhDAQEQ8qpWCBTNVqeW+TZPIUxUDw8FBJihQDiian8WSlIqO28PCkSQ89zAQO1B8P/QcKA+utbQl5+vP8v+mM45Vl9f0z0sdFwbONcZPtJYp9VCiPIqUBfE05FZh89wq5yqW62uVBHDQ9p18JGG3dr12kIjPEvsAkKTMvMVjRaKYaDefwrXr2Wf1jg7aQs7RMQII3NjCp2c0QOkNU539GFA9zmtMT3SWn33nXeNFBLdc+9qaPwLy5G5A9e8jCAAAAAASUVORK5CYII='
p58
sb.