ccopy_reg
_reconstructor
p0
(cemoji
Emoji
p1
c__builtin__
object
p2
Ntp3
Rp4
(dp5
S'emojipedia_url'
p6
Vhttp://emojipedia.org/sunset-over-buildings/
p7
sS'index'
p8
V439
p9
sS'code'
p10
VU+1F307
p11
sS'apple'
p12
S'data:image/png;base64,iVBORw0KGgoAAAANSUhEUgAAAEAAAABACAMAAACdt4HsAAAC8VBMVEUAAAAAAAAAAAAAAAAAAAAAAAAAAAAAAAAAAAAAAAAAAAAAAAAAAAAAAAAAAAAAAAAAAAAAAADy8vLKiRaDZRE3LwVGPwg7NgbWSwncUQv/9yxjSwoPCQAbEwAVDQBmYQ9bVQzcclzjdxTJMwbRTh7JlRllVQ0fFwLUaU3CJgHw8PDHvyDn4Cf48SoNBQAbDwDzziXBLgNdWVWKiIATCwDddxHCPh2+Nwm7LATn6Chwbmm0s63Wh3P+7Sq0KgN0JgRgGwKDTwuGfxWfRwvrZjP7WQ0wEgAHAwCvKQO0Pwr0XxRzaxEXEAEREAKqKQTVsh7u7u70VwykJgOdJQJvGQGmlhuVhxbnUgsxKgQjHQJcJgP/dDSEHgIKBAAAAAB8dhP/ezP/rYC7WUB8HQK+RQiVIgKCKAxPHwTs7OyLHgI/FAN1GgEnIhupPAabNQU5EwFUJwVoFgFBOjFaEACEJwRJEQi6hnt/OScqCQCTWUx5KBFHRUBnY1rr6+ttJhQzAwBdOjXq6ur/XQ7/XA7/Xw7/Yg//Vg3/WQ3/TQv/ZRD/UQz/axH/aBD/bhL/chP/dhP/ehT/fRX/gRX/ixf/1Cb+/zH/pRz/nRv/qB3/rx7/sx//wSP/vCH/tyD/jhj+/VjuWQ3/Uwz/2Sf/ziX/3Sf/xSP/4Sn/kxn/yST+Rwr/mBn/9C3tYw//SgrNOAb/hhbuTQv/7yv//k3uVgz+/WzLbxH//mP4+Pj+/nz//4X+/o7//5jKfxX9oRztihbLSQnMQAf+/TLquiD8wyLsmBnshRb52Uv/7Crp1iX55yj+qx7//jf//j3+/ULMYw/+UgzoQQjNMwX//C68JALMLgT19fXvQwnNKAP53ijJqRzVNATaXT/rohv//6LJoBvsxiLcOAb52mP52m352nT61CX52TX9/f31vCLrqxz/5inGMATHtB/6+vqkGAL//3XJJwPItx/ZMAT992LYSyHQMgT+/v7woh3hNgTeLATolXT////zB+keAAAAEnRSTlMADBUePFVdJWYrb3hFfqCug0wXsjZvAAAIaklEQVR4XsyRVZfcRhCF44WY/nULmRmGmWmZmZnMzOwgPKWksXPG2rd9yj1nWt11637TKv30v9C1oeEraejat/zwyOjPV9DoyHCfMDTyzxU1MhQBhkd/v6JGhyPA9RtXBdy4HgFu3gLj48nni9NGo3F0ATqCR7jC0oiW/rHvQdPpxeeTjxC6dbMPuA37kyeH5+etbirVOgd1u7C0Ut93UIx2UTHVhdPhkxMI3f4OePXq1bvDcr1epjEcPyjXywcEWS7Xwy1FwQmvl8skERk4jtFh5+E7CA0CFrt0HUQjhmHhiTFwRFQdAPBDdZplMLBZhkH9vu5iHFBjKJqmgcDxLE2zPKJpiqBpBE8CHNSvcnAEUUwtDliocQLD0pBFIgdPikuzaYZlEWJZBrYcxbIsJ0IeTEbgagsxQKMmSpKAsSAkcWwaLgtJKo1QmgIAw0OJkyIfEyRRrDVigNMWEmRF5kmWTGMylyYpgSJxnMSwNKzhIc3JWBpsTlFkAbVOY4Cj1gFJiGpThm4SkwWSJHgSthQFC8kTJCnIGEmSuNxURZw8aB1dAkAvRUhaQsQoDMkchghK3tZzOX1bpgiEcTICQ0xoEhEyfwR8+PBhIUVBDsMYuajxEBZ5SiodG5GOSxLFizhCvFaUGQwDEpVagNAgYGy+KTII4QTOq0WFIRimUjWMpUiGUa0wUFKKKg8NCDGiOj8WB6yapgUMSBKc2hRw7RjiO7t7e7s7gDjWcKGpckzIEZuWaa7GAfvzlu24rqlJHM/zoqy0DYh3OslkpwMIo63IIhicpJmO69jW/P4gYGJiYrHGSYpWMYGRkAWB9yC/10mO93rjyc4eEDxeEORE6Fc0ReJqixAaBCzUhFCipCYqVkVVq8bSbme8Nzk1Ndkb7+wuGVVVBSOhSmLUWFu4DBBFUYokK4ptGDt7yd7k9MzM9GQvubdjGLaiyH0fGi8DZlfnrEpRazZVBST50QU+Tc88fDgz/Sm6gi+FjtpsasWKNbc6GwM8evwiA9KzJS9wzIQXASanH4KmJyOAlzCdwCtl9bDvxeNHccDySt7zYb6mVYGb5C8D8vDPFcuEb+V7+ZXlOGBsTUtooRKRwo/QSX6aCl9hCl4h/Ax9p9+krY0NAs7OzvbXEsW+LDsItp3jcIi/PH32/Pmzp+vrL6vGsbMdBDbMKVJibR9CPwJgNLbrZzM53bctqxBeYf3Pb/rrtVGwLNvXc5ms74aYS4DZNyt67m17I1dyzLk50/aWYAovn3wTADw7rDul3MbG25y+8mY2Bni/udVuF7KBbZq2HZR8W4cr/Af4+rpg+6XADt0gW2i3tzbfxwBfNrcynmtvO9uOn8n4juMWDOPO1++AP6AS1aHBdr3M1uaXGODusgsh13G93IYeuG4+7+pLd+6B/r4Py3zWc91AbxfyLgjwy3fjM3jgBIEblArVjXzg+3rG9/3s6xBw/9d7936b92B6flDaqL6FKQaB82BgBv92XjYxbRxRHG/6AaIkaUNig5fdwcGNF0iyxmEKLl/ho9g4jF0w29ima9N27RjjJEChDTQlSSOlUu7mhKhS27hW9mShHoMPQXJpTzWRSpVKviCV9SWXXnrrW5tUsOnJv9O8kf4/vVnNjvSqqmtqak7vr62txmVJSqyun9FotbWaM7HVJ38f8PvmemqrTkGnq9PBZV3bPw2ho4KnsaxEZeOrq/F6mkENWn0s9ctvRZ6dfb4Vjze+eAa8MJx9T07Hnr4iOJffpiRJTq2n1mNGxLJ6bX00/pehSKHp+X4y3thsKBQMBRBs56jt/LnDgpaWlvMXLlJSIpWKp6K5Bs7EMrQxFm0tlDA3/5lLNO6YYWE2Nxv2KOrihfMQUgmy0TiQkFaMl9pYFhtjyVbzATtbFPV+e5O5vanDbOmAw/6P4INt5W+OyhQl1Xd2sQw2JtKtliKFQvMT6dfN9m5Le3eHxdKRikZ3XxH8tPn94x8fR3tyuZ6kEbMMdCDn8r1FweW+vv6BgcGd3hIdcXg28mqB4cOh7364L+dyUkI20ozSQXolX0pYazU0beuz9A4Xse8l4EH5QyVo/+fK0NCDnhyVTGRBwMBHXFnJlxLWkQbCOPp6ncAwdEBRWXnvo8OC0dFRi25jbOxKT05OJtOKgND1qfUtl1PBCg2BYNjlcjnHef7yx8DVEQgdFvTWud3uRz3ppJyUFIHHO/Hwkw0XYHdaCaMInEolOBwOzstwPr9K4MzALdXJWTmbXmngGDSpn/j0s0fj4+Ou7s//E0ApEoYwA1qM1ILxQAZuOrwW+fzPes5EvGTiwUN3MBgUr12zEpOJOEKCKARBgAjxsoQ7IpiamgraA5lMZjedHgwHpx2EsI6J+0MgCJsgALBeQhzTwWCEeBmCELnugNBhgXDDHggEkhQ1KCgCPKkPDY3pwmHBRBRo/SRWBGHee1WDoYuuTpUgcvMG0Lq7PSiGZ2iMPN7ZsY06QRCVDhBCXg8ijplweI54WAQbX1xXCeZ5EVhYWBBFYYawCPtmN9wZUYiYIA0KjBGiZwRhDsEC8PlVgi95XvzqFh8BxMW2LoLpkFuXiYi8CSO6Qe/Tj9AgEMU+dsBDI0zra9WCOZ5f+ppXiFhvf4MwF9LVBfgICDCu1XCeWoxpayQyT7Qshn40jErgQ4tzB/BWmw9jXyiTsUOlCDga05wi4OfmaSiAo0dYXl722/A8sHRrvr9/0cZxnG3abr8JOzSnYOts4zjf4p2lkI8r4vND6IjAb7sL3AvdnZ3l/AqLYYGHHX+J25dgwU3fg7qESlAGhwRvlys4GHkqK74tk4rK0tx4/MTJd8rg5InjpbnxWFVF9btlUF1Rdezl6HvqrTI49XL0BUNlVRlUFvP/Aiyk3pEov9PYAAAAAElFTkSuQmCC'
p13
sS'twit'
p14
S'data:image/png;base64,iVBORw0KGgoAAAANSUhEUgAAAEgAAABICAMAAABiM0N1AAAAllBMVEUAAAApLzMpLzMpLzMpLzMpLzMpLzP/zE3/zE3/zE3/zE3/zE3/zE0pLzOCWSI1PUE3P0RGUVf0kAz3oyD1lBD+yEn6ri36sjH2mxj1mBT1lhf+xUX/6Lb9wUH4pyT3rEH8vT3+3aH5qij7tjX3nxz8uTn3pjf5t1b/zE37x3b6vGH+46v8zYFIU1n92JaNi3z037CYiFSB1PSgAAAADXRSTlMAYL8AIM/vv2AAzyDvkJpDGAAAAsZJREFUeF6s1Ndy2zAUBFC9WbL8tOhgr6q2k///uUjENZKhUOSJ90kzAg7JvSA392xfjv+Rl+3uls1ut3/NAH2foV73d2j/lnEGYMhIb/sbFL4fIYsviAHsCyikCN/TbrMNF6DAJ4IAgJyJQ4XXbzeRniXAK7cZABxacUBGGt8coxC0WKoGgKVuoRGFjjFoAqgaAwCGygKmb0It4C5fYEnhbhJovwkVoG3KQYpoiOcgjprG7iBeMAexgjuIrlNDJyEAqIWvBtCg0A9DDIAktKzg8kaNBNh5Phzm2ZI33oa3MKiTEFVjBjei5tSVlO7UuO2SU/3psmu4aAZ7JsVbZ4vRAHBiGhIclOZSPuTSgMJFbvySqrmWwVwt6ITlIGEW56OM5GORjMhCx4GcpDRED6RQUk7tMglNTkLSy5Z2kFKJFSThYkbGcC2TuYLVfnpyBRUcPk2ZSQMfXqw7mrxkLwR8vt/yGYAu1jvVY9mVJuj814lJZ3JGEZqaYA7qvBOVOueo2PglNUROTKKW+BQ/Ry0HTt5JSCfAVMm3X6MjJyl1dLYjUKEYLDkZycL0kUebegMAMzkZaQYAzgaxggY3MYLeA3mAKFr9C/XwOTwHHeBT/xSkfuTRxr4KlB2C7osikOnb1Pifg6yW2QMZh4JH7Hf0FUlCvx7bS7y066VpKP4ZSUGB/+Iftgy0bi/xqf1Tfd20IBACARhWR/c2ZfYBUVmHDh3a///3YhIJdsxapxb2vQrPYRAcmyB8tQipMxv2SAifz1G8BjF0SStWHWIVoHwHxFDea3pWAxRDFbp/Cx1CAVoiyyfgPRQL0AoLfYBOgRoMugVak7MZQH0DlBb2GkQ4QdVh5y+EAGL5jEkh/DtETQuRPh+IzqaHqMmgmdwjwwY9BvLZNUqLIMxpBe4XkAMFtpNDnQUFYB2yxkHOAkEA2kggo8l4AKgzeWRPQYLOAAAAAElFTkSuQmCC'
p15
sS'gmail'
p16
S'data:image/png;base64,R0lGODlhDwAPAKIAAP9mAEQAAMwzAP//Zv/MAP+ZAAAAAAAAACH5BAAAAAAALAAAAAAPAA8AAAM+KLrcIC/CKSu5FYINhvdcuBGfR4jcQK4DOqrw6QJXLQY4V+x3UAQzDg7XGAYEwx+S6GMajUtn8/fDVZ/YbAIAOw=='
p17
sS'related_to'
p18
(lp19
V\U0001f306 Cityscape At Dusk
p20
aV\U0001f304 Sunrise Over Mountains
p21
aV\U0001f305 Sunrise
p22
aV\U0001f303 Night With Stars
p23
asS'name'
p24
Vsunset over buildings
p25
sS'known_as'
p26
(lp27
V\U0001f307 Sunset Emoji
p28
aV\U0001f307 City Sunset Emoji
p29
asS'default'
p30
Vemoji
p31
sS'bw'
p32
S'data:image/png;base64,iVBORw0KGgoAAAANSUhEUgAAAJAAAACQCAYAAADnRuK4AAAQ+ElEQVR42u2dL9RNURPG3yAIgiAIgiAIgiAIgiAIgiAIgiAIgiAI1hIEQRAEQRAEQRAEQRAEQRAEQRAEQRAEQbjf+t1vPXfNN9/MPude732dfe/MWntd7t3vOXvPefbMM7P/nJ1ZSclfyE6poKQAVFIAKikAlRSASkoKQCUFoJICUEkBqKSkAFRSACopAJUUgEpKCkAlBaCSAlBJAaikZG0AOnr06Lxcvnx58d2LFy8W3/vy7du3eR0+szrv37//v+v7cuvWrUUd7h3VGdsmSatNY9pt23TmzJnBNj18+HCwTehiGT1x364AtLOzMy9XrlyZff78efbu3bu5YvS9L/z+9u3b+WdWh4fN71xv//79YR3u9/Hjx9mHDx9mZ8+eDeucPn16fg0UnbWJ61OHNlGyNnENtT2rA4CoQ7uOHTsW1uEB8zvXo35UZ9++fQtdoovsfs+fP5+358uXL/O/4TsLvq4ApA5sc8nAvpelOwBdunRpdvjw4XS0YR0o2Yg8fvz47Ny5c/M6WIyozpEjR2bnz5+f1+EzUx5WaaiO7sUn180egtrdapPqXLhwIb0f+qHOxYsX0zr8va514MCBQV2eOHEirIOOrYvshkRnncZtSLKHimIlT58+DescOnTofzhB9iDEU37+/JnWefTo0eJagHeoTbdv304fluT169fp/SStNuHSLJfJ3KPlV9ng6DIKy0z3vXv3FnXo3FCnMwDhHiUt7vT169fBh3X37t3FtTKrCNglGU+xruLVq1d/BSB4zBCArl+/vqhz6tSpsA7WqTsA0bGTJ0+GHWL03rhxY/6JKc9GOw9J9TI3d//+/dm1a9dmDx48CC0eIHvy5Mns6tWr8zqZW+U+tBkgZVaRtlLv5s2bTQvEdWhTRtAPHjy4aBNkOLPU9I1rMeAycNy5c2d+L3TF9bLBSN+7JNGZcqoUiR4dxivMhWdEncMq8PuzZ8/mIWgUueEO+Y1CvYzoYkFwHbi9jKDCFbAAXIfRHdXBeto2ZdEVPEdtyh7e48ePZy9fvpy3KeMpWLc3b97M62DhMotLHe7FNTPrxr2kK/7fNYCs/824jCW68JUxnCCrgzkf4ldj2mT5VatN4letOri9IS5j28QgGGpTK+/EgPV66hZAjCxJa5T++PFjkdHN6pAcHCLo9mERumbh8VCbuL7NRA8Bv1XHtinjMjbCy6widGBM0GD11H0iEReG0iiQU5lUrxisBXkMHm5EdFEEf6/8UJbz4D78Rsky0RBd1cvcHCkC/l7TAFG7aZPaorZlLpPfcItZm/iNQrvQQTRA1CbqZXX4Tjkh2qSIsjsA0dkoCqODGoUAJ+ME1OEBUbI6KEkPlsRexJ34XQ+W+0XgtHWydtt70IfMPdJu8bOsDr/LlXHfCAi0SYOEf2epBSU0rV6jNtGn7vJA2YiEAEqy0NPmNyCFGakcw1N+/fo1r/P79+/U9RFODyXkILcSwufsYUkgvBmAJLQtazdzWUO6tEnZzLpZGtEVgMYk7cYQ3RZ3WiaR2OIpYxKJtk2Q9aFweUy7W22yQUPWJgbgMu3uBkCMLPhP1CFG5vfv3+dZ2IwwMsL5nXqk9DNugVXhIVA3cmG4LeoAoj9//qTuiYfFvWh3ltwkDcG1qJeF0RB3rsH9aFfUJqwJbaEO14v4FYX7UKfVJiwn9QhCsuw4JF5BSjcAQimMUu8yUCjK4JOHm004UkdJyIzoWr4BF4C/RFxCoBGRjXgZYOcaZH+JYrBouBAeIIXveOhYFdqWRXhcQ4AA4JHLxFKoHXxGloO+KyNOvzJ+QzvEFbMMuiatu4zCmOTEmmBqyblED1Bpf31GgOHvSIxRh+tlUwnUgT8x6rIcD3WU+mcEk3jEgi0rrM0BcFyHz6xNtIN206YsmYoFpE20HQsdDQb6jcXmfugpCggYkNxPbZKr7TaMt8Qzc0WMWG+9MpM+NIsP4ZagwCGCvpuSWVO7QjDLMls9ZUGDjaTQRZZstO5K5LtbANnMcIvoWskWoYkMt8g3o68FINyPTbTttmA9vGWwAMrItyXDGfn2y2yHgoaNABDughGF6cYCRXNYuCwtL8WdRPyC0ffp06f5dbhmNNMN3+AegAjw2PU4WDULrnUK7hArJy5DuyHdzL9l82p8T/voHwCPJqGxUvSJvlMnWtSGnqRL9C6L1x2AsCI03uYm+A5w2JwG4PHuSKsDLQnkWtYyoTw4h9wdo57/W+4AWBnxKA++stcizmbBQN/5Tu2k/XAbm1mnPv0VuabfWCgPGBF/q0u+s3pS5ro7AOGHI39P5xTd4Mczosv3/I6ptovDfe5GITOfUTRjucW/EKyB53Q8VKUWaHcUNNAXhfpDukRH6CqbYJUuu0skZjkX60qyTLTlBBnIbIIsykRj2XhQ/1rgfj6qGhM0WC4zRpfZLL7VZVcAypJfEM2hTmPWh5YuYK5t4tJaKVzFKqH5uoQ+qH24WytRjgc+Z9s/RpfZQLO67AZAInyeDGIVUKaWYUJ6fdQCd2HUcg3q4Qb8PA8Pg+soLwLfkJnnN7sgfSqiqBCiTKFvfAfZ9S4aPof+IOPoKdKlFsYpx0Sf/ZyZFph1uaQVYki0wINV8guFWWXRQR4+log6KIv/W2VRnyhGyUaUxcjznIffiOIIg6cocBra7ckw7onvAQs6ABT0MQKCEqDo0fMirBaJUQ0q6qIPvu82jLcz75jkKDxFoVai2XBv9rPZ8H8RbS0j2fyYXQ1AH6I6fm9XlK32ulRKpFsA2VnuLPnlO5fNKlvJEnJ2OedUJQocLBnOEq5+Vj0CmdelEq7dAsiSPJsZbUUJETi88qJsLSMSNzF1idISNltNQBBFZnYwZpba61KrHboEED4asggXogPMFfHgrenF5EKGGSnUISJhNNrEGu4LEsnfY50AIaTQZ6ytu5y62NyP9qTRL3TAAEIH1t2jJ7gR+tEWa/prdaldG9IlOkTfum5XAAIUUVjJqIEL0THNgntfjuJIfEEaqUciLXJrXB9zz+cUo66WwHNoN5YnsrhYEvotPdk0gHVX6I+gAw4FRfC6VES6Tte+tjxQxlN8km1oNV7GndadINsriQaHtxjZwjubbMx0ue45wLUBSBOK2d4mpfqHyHC2dMHO9PcsES/0C8CypSnaVtTS5brTGmsDELzFm13tfyI/xCw1Uw1+BJJIhEjqMCWIcUQYMe2Aa53LM9Yp9BE3FaUkyOHQb0CBHtCVX90IH6KODtSKdAkdsCDrBkB0FtMJj9E5N1gkFGI7CTBQENaEOqTsqQMRFPiUmYZs6pwffD5K5j4+R9SL4H7oIxYCC6NVCERbkGEbiaEX3LrOFcJ9Axw7R6bErXSJ3tEb/+92Sasnb9HWE5RnJZofs0eriIRGW2l6EiyG0g9+0jda6+O5TJRP8qsttfi/2zyQ7/QYMhyBzCvARnh2W3BvoqjJkuGxeor22ft8mUDWLYBsggyJZp79bHG0PcWfMmpXG/YcjfFgcWPa/CiJFszbTYRINENvVyh0n0jE90IS6ThuCf/sF1jhmyF58AAdzUJuw/IkiCD+n99QCHUx+VrE3juA4Hb0WXpCR/TRr8AkYCAxSx1tO7JA49+4dukS/qkcWncAioCgXRMoQufXMPJ8uE/nAYjO1EFRPoyFcKpOD/NfmTCo/GpKgIP+BAYCBoDgrTe6USKReujV65LBxfXtbpVuwvjoLGNPeFFMlCvyi8GiWXyUvAkS7RXzQUOkS3vIaKZLCimALvNA0YSnN6VZltmTymjmea92WaxboizzmMljn9XPdGmz+l0BiBHhk1+e5EXEGpD5WXUfsurU9k2QaMmuDyyiOcPo9QVel1jude6LXxuA4Czyz+o4SS9GCf4Ygo2/JhmGibUb4LQ3XSv0MN/4ccw6wOF6WB+slLYD9wgm7fGCyykpqi089Jc+6uRYQADQFLqTNKT/WvrL36M39KBzjEjAKlvvc21dRGHR6eh+Yx1Ks+fgIEQh3mX5+RwUbEfkuheOr0OU74rm9LzFjQ4L9zP0RLeeO6KnLpdzRD4aiWboPZeJOIEP1f3MM6Oth8Vk2SFQdcxvACB/aALiF4trW68VFosNpegx13sdbRSA9hhAkVvhwVuzS/LLZ2HhST5sj2bcPWHsIR9UAFoikahtLFqGifuCMEKccVMQO8BCYT5LSzUhghBEfldmlr/DCumEVcAC8MihUG/doWoB6B+E8Txgb0n8wvBIqdGZfn6GPlIIwJzqnrCorwwa+qWSHUK+tQCK9qtH81ZecVFno6ULXiDjuMQpbWluAcgHD+u0Tl0CCLfjZ5WjLbb+dAp7krzEnwdEHiTjV1OdXMUi28FSABqZZfUcyAuJLs+BvMCnPAeKBE5E3mOKroxBYA/YKgA1hIdIpjUSgKC3CWcPGuWqTsSbZHGUJEP5U3Zd5cJWCOMjVxJtPYnEZ6L95Cril4pEk6tTSy4WgP4SQNHEYSuT7V9lbYvnVxyJ4utgvXhQ/vtVyioWzrvsAtASAGIrbhSZ2Tms7CUgU3zr3zK5JiwfA8jzucoDjRRLcnWOoc00M/q0os5+rxHbO4CYVrHrwZlNp68FoBWApGQi0ZOftkAYpQpvsU6tM5B7AZAVnTCLHrLzEAtAifjZ9+gh+Nn31qsxpwggrCv8K4sWs4PTC0AjxG/bjWbM4Up+rXMPAMIlkfQUQFjUFUn2guCskGzVS15a70GzEapKdpB5twAiSahXR2YKxq1BOHWGkHZs2gfniz2cXG9YHorShgqJPn8NO4USWSAmcsmKswow24POikrqKKE61I4xmzGzKDY70bY7AEV5GxuhQDBbZ/oMhfn2wWYvVFt2cjICiJ3E5Xf6Rdtb+SW94yzKuo8h0QWg2X8Pz44Is1dithR1igCyJ4REmwMUNMil+QMvC0BL5oEy0unf5dALgMY8EL8BsgC0orBYPttOYvlLTxbInts4xgJFp4YUgEZK61AjXJteA5VxialyIIq2ZGeive3RC07GAEiHbKqMAZxK9tbEbqMwJQoJzVtKR9lEKyLfUwWQF0J52u23JvmggZUJgCp7pXjlgRrAkElvvWpS7kHvgu8FQFrY33pA9ria7L31BaCG9WmtNJQoZ0O63wNI64JssWut9S4IX5bNANMGfw079RAByLc7kuwNzwWgkUKmmfmg1r4tvWxE74zoZSoDvsNeN7+3zfNBuAlWM3vvl3+vPFZVxSZM9Z09As/Wza7fNYBWTQNsymTqbkVh9v52imMjozB/tJ0nlVil1qFHUwUQFnJovTXWlMMtV43CCkCzWXgYgESTpS3e4LcC+ZK90Wedxb4YLstxEZWpTrQDpQA0UloRF5yADvlTuFbNA+2lBSLqgme05sLoF+Q6cnkFoCV8/d+UqQKoONAezoXtVikAFYA2GkAQ66GTQfidemMAVGH8FgFIidKh7dRKUtai+i0GEMlCu3xUhWhLi82yQujP30fvwCgAbQmAei5bDSB7ho7KmCmBqRe/k3bVPtlr+FNMCkAbXHZra3NFYQWgAlABqABUACoAbSaAorDYvmyN0Diqs+yO0ALQlobxu7Wkda+L38K8ao5oI7c2F4AqD1QAKgAVgAo8BaDiQMFcnD2stDjQlgJo2Sis1gMVgApAlUgsABWACkAFoAJQAWjriz/GRW+ubq0fUl37WtCNPN6lAFJ5oAJQAejfAahke6QAVFIAKikAlRSASgpAJSUFoJICUEkBqKQAVFJSACopAJUUgEoKQCUlBaCSAlBJAaikAFRSUgAqKQCVFIBKCkAlBaCSkgJQSQGopC/5D8an63YR3y62AAAAAElFTkSuQmCC'
p33
sS'version'
p34
VV6.0\u02b2
p35
sS'uni'
p36
V\U0001f307
p37
sS'desc'
p38
V\U0001f307 A beautiful view, featuring an orange sky, with the sun setting over the buildings of a city skyline. 
p39
sS'browser'
p40
V\U0001f307
p41
sS'annotations'
p42
(lp43
Vbuilding
p44
aVdusk
p45
aVnature
p46
aVplace
p47
aVsun
p48
aVsunset
p49
aVtime
p50
aVweather
p51
asS'wind'
p52
S'data:image/png;base64,iVBORw0KGgoAAAANSUhEUgAAAEgAAABICAYAAABV7bNHAAAAAXNSR0IArs4c6QAAAARnQU1BAACxjwv8YQUAAAM1SURBVHhe7ZjPjwtxFMC/b/ZIIuEuIVmJROvAdhcXbg7E3tgrdZN1ECG2jUMbCTccSKiThBuCA1extCWidV7Jxtk/wM7Xe995U21N+9350c603if5Zt77TjvMp9953zerBEEQBEEQBEEQBEEQBEEQhKQAPk4EbrtwWWm1iOE6OBtXYN/nde/M6JgYQbpVWFQAzzhVWquak68XOR0ZDh8zjwZ1jENG7+VgpEyMIDS0haOxMjmCIqC/HdjptheKbmvuEE+FJlVB3g0UbrutQpWnEoOkaHfmCyj9AEvtKxLFp0KRriA98xIULAPACor6SsL4VCzMdQDu43W3U+4d9QlzMiSp7mK6Pa85NGjcqwA2TsbZvkkOi8/zlAGvfcfJNS5yumlSXkF6lUMD3RTdnNnSIzBYjnoRRQ6RqiBs9pZo1XBqMJKUOs1pD17NwqI7oPDyynuM4n96M76ceiThhPURq1QqTQ6TYq1cLvcIcNvzz/E/cori/gaQV8UlDI/+szJIBMA7pd2bTr75gadNU4lianh3P+I+slZB1Wq1p07EBW/qEwqa47QDSaJj96/NrxZX/WI7DLzuUyffWOIUv7tQBPj1Nu7rSGb6IBID8HuZU9ymC1VcMbc2I4fAz53xJRNO7uPDJN7VMiOI8G/I+/VhxUyGgB5TFPuE00TIlKC/6GschMZbSdGawiAyJ8g0eQpuaAXnbYO/EoAbuAtGITNFOgr9jWY3kKt37g1r0xomuzg1mKZUq+uQb3TqVhCpC6I2Ah+Lg5xuCrzGI7zGuWGCaIVRoaYY69J7/DcOmxNd4Je/4+awm9NAMlqDxoTW2zgayP8hCNRWjjrgKqRu+56XDWZqBVGTyCH2RI39VJO6BzaVO3CU+CMDmQpBuBpWewa+fyXRJBJTIQhXwpGeEePltJ+pecRwNzyOo+aPQXNhmaYaNItb+Vl/DJkLRRqCZvHXbPqDcm86PPaOOj5jbxSTAAvxazy88bIOe3CVXOCYPkN/GQia6wEbzrscBjKRgpKkVCoNdTBNNWgkiCALIsiCCLIggiyIIAsiyIIIsiCCLIggCyLIgggSBEEQBEEQBEEQhMlCqT/NVmSqRh5M5QAAAABJRU5ErkJggg=='
p53
sS'andr'
p54
S'data:image/png;base64,iVBORw0KGgoAAAANSUhEUgAAAEgAAABECAMAAAAV8YMOAAAABGdBTUEAALGPC/xhBQAAAAFzUkdCAK7OHOkAAAMAUExURUxpcfqqIu90L/SIK/y4HvWLKveTKfJ8LfeSKfqoI/F7LfOELPB4LvJ+LfaQKfiYJ/u5HfidJvmgJfmlI/qwIPu1Hu5tMO5uL+5wL/WYJfOBLPy9HP3AHO1sMO1sMO1tMO1sMO5vL+5wL+5xL+92Lve+HPy+HPu9Hfu7Hfu9Hf7BHKKBJGtaKfK4HS8vL/zCG+90LywtL+5wL+5vL+5uMO1tMO5xL+9zL+1sMC4vLy0tLy0uL/B3Lu92LvmZJ/F6LfB5LvF8LfB4LvSGK/F7LfF9LfKALPJ+LfOBLPOELPSIK/ODLPJ/LfSJK/iYJ/OFLPWKK/SHK/iXKPzDG/eTKfaLKvmcJveUKfeSKfiaJ/eOKvmfJvaRKfaMKvaPKviQKvulJDIxL/3AHDo1L/mgJfqjJPqiJfucJ/idJrx7Kfy8HCssL/usIfqUKf/FGvuvIXpcK/WkI/qoI0E8LfuyH/y1HpBcLf3DG2dLLfaaJfy9HDAwL/7DG/7EG15GLf/EG1tNK2dOLPu3Hvy7HfqqITQyLv24HpJ2JVJBLU9GLEdALGdSK/adJfvAG3BSLPqxH/GbJTk2Ls2gIGhYKfiTKeyNKfC6HPWOKPzBG3BUK/3CG/WSKZ1+JD02LkA4LjgzL19RKu+VJ+mrH5t8JTc0Luq1Hei0HUU6LtiDKlJIK/mUKe6PKPB7LXhZK/W8HPaUKKZ1KHJfKG5bKZBwJ5NzJruUIaZ7JpV4JZd6JXtmJ0s9LayJI7GNIuWIKWJILd6tHvGfJNF+KrhyK/CYJpZiLO+iI/yVKZtkLMidIPaYJfeWKPelIvSRKKKBJKd4J9eoH2JTKkc7LmVVKsR5KvC3HWtMLaeFI+CGKndSLcl8KuqMKfCmIvCqIfKJKfKEK/KHKvaWJ+uVJ8KAKIdgK7d6KVdMKzIwL51oKve/G/i/G9uqHuKvHoBXLEM5LqttK4ZaLMuDKeGPKF9KLZBiK7h9KOCSJpBvJ4FpJ08/LqVoLNKkH65uK6xtK7+WIb53K4xeLMiB/L4AAAAudFJOUwDR0dEN0dENDQ3R0dHR0dHQ0dHR0dGZ8gsG0QuZGMZl+E2hzdFlGE2h8fPP1/M2zyH0AAAGIUlEQVRYw6XYd1wTVwDAcRQVt6gIKrh3x4XrsuFQa6lUa0ttgwiilISE0hCSNiENhhHMMJCCYZMqswIColbrwIWCihKxLbi17lmrtbt2fnx377Iul0Pl9wcEeO/7eY93d3+cmxvIY9zY8a8+ZePHjvNwIxvj7fNyN/LxHgOdkd4vdTPvkQQ0wefFbuYzAXdGTXyh200che9s0iuMwaHMYybhe/PoOZMh/4bgyxcvXg5u8Gca1dODgPxdNNN/bvuxRGE2SJh4rH0u+IWLmKBZ/v7z2uQmDodFxOGY5G3ziF+7hCbPoi2w2GgiFdIyGYsD6cdOJqCBgXTNWSF0YAhKuGIO7eCBEHrducCGLJ6TAyReVkMgzXASeo2mLB6LNl4W3WgI9Z/jXLuS3mFxlO00w/tD6A2nLiVyWK4k4yXn8SQ016ksFkNZzuMhNGgetSA1x7XDUV9ymjAIQm9SazMxrcjU5jSBhN6mFKzlMEEcbTB1BoRGB1Ni3Bm+tyDqjNEQmk+pWMhiTFhMnQGhAQsdm3+FxwzxrsynTBkAoQWOLWzrCmpbSJlCQu86tqBraAFlCoTcgyh1DVFnuEPoPceCNiuZIeXmIMoUAurr/hal4q6Ov5g6w70vAb1DaZGEGZIsos6AUO9F1PiuDIVqDfjKt41cvJj41htCi6lt1tAvKeXk9ka9ftuvn1pr2bccn0BCy53S0q9n/1Ydhse2pjvVvBSMh9DgKGrLzXRLUlTnY2zEMTbWdGZpVNRgF1BUlIDmUlLt0VEd0K2/PmCClomcoexdKJiI7wwS+CbB17NRVmgZTWYj1VmzaQuAuIa6zCoIyerqZAiCJm0IXwahPuF0mSUmGgjrvFtTU6LD1yP7r6bmaCaGJRUWhPeBUChd4WapkAbSi1PE3+QCCK0oUqmK8lEcCiWhJS6KMypZ1tPjKDZtBVvTp7BUFkihKMoPAFsrWAKhIWaXRYrUSmKHJqValLMaRdh6scK6olR8RQB63zwEQiEuM5sj+AKpVisV8CNCKgGE5e+vqTlO/I8MR6ur8zIxNKkyJKRLyL7ZOIRwM9Nv5sJTM6SnG/BTq5xtgSKIwj6kFBbhUNjB1cR1FGC9jlAUXEfoysqwCAgNjcMLu/rTRw5d+zkiLM4uErLdHeVlZeUQihtqg7Ju/FIW41Bpxu2rkXZQZI4DxC798cyZlg4MXXkwEkL9hkWCbpShdjc1Hobdup4TaVfO5/YQlnY+IaEwiYAih/UjID4/9vcMzPl+xGKuxfJtOUEFBQSUw+eTUGys4DcdQhN2XRBr6wAFKrRAsbEQGi4QRH/JpYPQjdECWxRod3NofW0GgA4IBMMhFB3tGrLLEUKQjNVnM5LBqR2IjiYhqVSKQ1h8PLgwwNWBspEA8JkNoGOf2DpshcDIeMx6HR2WSiHUA0JY3c4SvQFLO3TkQRnSua7kz1w2tvtjuzZ2kAeCVawr0WeSP6CfAagHhLRa0ddctm6PWJyqL29pbW2/J/tbLC4CNzu+PFsWp2q7WJyy0wZptfYQlns0lZVSUnauPrTgUOYPKazvd6EIbZgsL5W1Zp0VumCFRCLJE0MsO0gkgpCXRCLZwcUXnKpqLD3RWh/6wHBXrLqzxRWUC0YqbFu7IJF4WaDEHeDUvt2z93Qdcurff253JO/au7dRhiEuJDDyuO2f/R0J9fIyGgkIPB7Y4FDhh+RkBP8Ro8Uw8FfLHwCUaPTqRUJyHNKt77ifzK4yGGTJ5KCYjo5SNsKcHTRCLpdvQ5Dke7W1zae4+rv78yow8kFRW9uyHmOGAtK/kMtHWKBVf4Dn1P+tBQlHZHniFMXOAGIDGfsS6gvTngBSq1d9hbBjTtSH1h+xu0YAVF9w/jEgtRpCnmq1BkDlJxIISMVSNNqgx1nRKrUnDvl6ajQAQriHNqwtPKs7fSe7eiuE7p9bu7b5YdeQRuPpi7/SmK7RCAHEjklrSivHZBWdNy1Pud1NTQ+7ODQITcdfabhNm6HkbcNPiXiAYGi89YrGrDcqw/F3nlTOmEa8rfH1y+Yd5yJPGZp/kufnC18gTfV75nQ3oOf9plpeafWa8mzV00Lc56bgR+b2CFVSSojVKfkwAAAAAElFTkSuQmCC'
p55
sb.