ccopy_reg
_reconstructor
p0
(cemoji
Emoji
p1
c__builtin__
object
p2
Ntp3
Rp4
(dp5
S'emojipedia_url'
p6
Vhttp://emojipedia.org/ferris-wheel/
p7
sS'index'
p8
V446
p9
sS'code'
p10
VU+1F3A1
p11
sS'apple'
p12
S'data:image/png;base64,iVBORw0KGgoAAAANSUhEUgAAAEAAAABACAMAAACdt4HsAAAC/VBMVEUAAAAAAAAAAAAAAAAAAAAAAAAAAAAAAAAAAAAAAAAAAAAAAAAAAAAAAAAAAAAAAADr6+vq6uqUyuuh0/GQyeqe0O6bz+2KxumYzOyVzu+ZyueHwOGW0vOZwtzsLSVSiayNutbt7e2k0Oqo1/PdHQWc1vSezOm0EgD2YWKm3/74gIL6l5vSFgRNhaqrho+cLSSXQ0Sf2/vzUlLAFAOfkaXdKCNXhKFQEhGKFQj5jZC7LCaegpKYcn3oPz1AbYlXXGqLzfFlCADLJiLZoJ3YsK7jpqP///9xt+NKktJfpNZEltx4ttzg395TnNf//foqccuatscydL/ydXaSssbLeYIgbc3o5eWhV2hPoOBmjr9lpM1dkcR5wep/pcTTyM9/GJt0uuZBi9VOj8VXlcdssuJGh8TEwL9gnMlrq9dkruJhqt41ftCmu8mPLaA3g9UhaL9sps1qn8zmfH6Bw+mTxOHByM7z6+g0h9uGPZurMb0fY58COJx1o8v29vb7+PT09PS2tbQKWcHPysWxur3jNzW2wspdp938/Pz///4HU7eBwOWArc21cIDS1Nb6Q0I+gMK/QNOmbHbCb3uksLUkd9r6+vqKp76Jmq0CMZEodtZ7iJKDMZ2jUVqIMqbxzs1jjrD4+PhmfphunLhyqst+mK1bhbF0ZKF1jL5YpN11LZLQaXYqbKIYataXOqicT6nb2dlptud7vOXTgIf28e6FtdQSYs/9/f29e4guf9msqKeNxuiPYWzxOzn/cnA0c6UVZtJFgKjDg41/vN8ictfv7++ap7uXn6yVkJYse9bRe4KiJLSEyvE+e6aHw+d9oLcLUZ7Hz9MOVZ4GS54VYL8TW54DQp6Sx+bsfX08cLSSH7lVDnxTDVB+MXv/PTXmkY3vwMCDuNxolrSkN3uIvN0BOaIbb9nJgopZja+NwOF7sdL/dnR1rtDx8fF0obzbYma7QD7KVFfpeHvQOzurydcLXcSkIMObvNQCN6EEGnoEG3qjN3uTvtkebta/XFlCa6OHIT0HAAAAEHRSTlMArhkmXVWDK3gfEghsPEiganaGjgAAB6lJREFUeF7MlFVvHEkURlfJWomd+G9VwzAzM5uZmZmZmTHMzMy8zMygvVXu2APZffDTHmlUU/fe73RNj1Tv/S84kLAnfhfsSTjA5eMT497fBXGJ8VuGhES0SxITiCA+rmqXxMUTwd6DuxUc3Lsj+K0r9xeOD/8Lbia369cdwb79IOiqri5+y4//yvZIdXUXhPbv4wQbGxu51euEkxHMrYdC63ORtXVCcS6EIgTFkJ3b4SPCowtFRZ2Sre9zYZyMFdy/S+J/cpzFtCl6WktLW4cVbWT7tkcMd+/HCBRhSY6zItHfj0Si7f2ORxErCClwtxtzCTjU1u3TTU739/b2T0/qGrvbDuEqaWOLIhQhqKysvBMS4SjJYnw68eJqwcKV7Owr8xkFi36Nj5QvcRpR6A6EogQ4iz+ZmZlBXXlGFUJVxqxAIMspRAitpmuC0AADscQKbkp8vmDQNz7WOejIdMgyEBIq02V5urqZwVFZOR8cGX5ovO4cG8dzPsnNcEF7e/ttCdSDw0UlJc6e8XQhEi7KXDTLsnKplWVpW0c9lG6N9zhLSg4PB8EguQ2hcME9SdBisTisnwzSr434cTZWjZFLdXhhbWIlQotj1kGb1QGDQcm9aEGjxcLSR1V9faq/BhDfIFBPEeRSF1nVgq/q0cC3qj6V6ijNWiyN0YKcRppm6e+fNzQ0lA3wR9QVgNfrrZBLkz2wAOqR+oEyaD//BgbpxpxwwdDQUI6DFgjUE2XHjpWl8FNaXJDyAN7LIABgx9Sl1Kfg/oRaIKAdORCKFoBB0/zi5bmOuuPy5CWPHfCsSPOW8OphNo+33FC+fNGsmRK8SzBrhTL81h8Q8lcwm5/LkyAHcIIlN5S0FWKEbjEwJRBYZ2MEEK+YystA/CQPjGMDRVFYYKYoruDR1qNVA4xNvVMAL4rxVwn9Xu6BX5jNZmpFWguLmzuSR1aAyhkYjBLk5+fP2hh46/AE5ajdTlFmO0Q+0y+bQaDX84gOzmMf5cMJ4V9hbLMQChecsDHw2g3nULqbgrwZQsSABbzTWGYGA+UuRwUy+FMY24lYgYfRdqwiv91sXgZw7PKavuXrtTMkj2vgEAu/PO+C0ViByzsC91dRiZjC8ZqamlQIbk4EAhNwlLVUKBBFrROGLox4XRGCwsLCay4t3F/OoosG/bI+FXP96pnTv2c3NWW/kb+6eh1XaqA1etHpLG3t0bquQShS4E5OGj6sNBp4r4APMEcMpibAdOMI2eI6r9aoPDyYnOyOFWg1cH8F5ntbvtvm4YzpJ8A083CnNpM1H+jvn9ZoowWntO4sfH9lfUyyKVs8Mz1+bHrGbUhjhUz1JmlPxQioSbi/FoxifPxPgbS0B380P33y5Knq5wdpabiCf4bMuAC33CQVK0jiLfPyzhcif+o/nddNTBtHGAbgNlAItCXg9XrXa7wx4J/17uJ/80+SknYujpAVV+6l4uiTD1GBnioaiVqNbIxEIpILaqq691WpL6wXqUW2oxwWccq5lSX+qV2QuKBI/WaNk+JADn5PXs+8z4xGu4ehKD1Ep+ue2f7H7fG4K6tn3TqdDv6jqOn45HLhu9DXoQf1QD8AyelIHm2VZBnaOhr6+5VxfthX3n8JgkbIpsSjufB08rfQg/7/A4eHh1UgK6GoRf+m/2XZJwhc+TEWaE2wSOhetgpA6QKQCSWT6kbi0Y9xGeq0YWZ7fbV4zAnC/vGLP9fPBTk+h2b/UpPJUKYeuJnZAECNdCLJYqTx+usvmdEfeEHgx5eM25pA0xb4nMMqABuXAdCnTLMIJeRq32xbGR8WBDgEmqkK+vgkSpcoVQXg5uVAqhiTonGj1veeln3D9+8L3ETBWxVOpXSsmL0EyOfzAKiq+utaLPZwLR3W1vcGguu8ovD7wVEvgYXI7NrDWGxtEwQAoHQBOMDAZiQceTLfJX0DfdK7xPKconC8smIjbcz2v1PR+flCOLKpAnBwGUDtBgKjY6673yLpiZEgmLLCKxB+ccRMEMbwFPr9C9fYaCCwS10FlI5xIXgXoa7Eqa0w4eNYCMdNFL3mRBShz4MYPLa8A/T09OwcmFTqzoKyuKhUwlvLaFI6GbNyCgYULvjViTSHJtPhCh5fuEOppoMdKNUBlKzXuyqVx6c2bbnlctDHiiMjIutjy4cI9STObOaFSsX1Si9Tpr13gD0M6LqNxm4bSTDx2Xx0hGXF15L0WlQU/0/fb8UZgrThcd1VAGxAe4kNJAkneOLys9byz3gnVlZcOoFzJEmDgaa1j+pqAPcxQDhXRKvDlYa4HFbR48V9LLwXgH4N6LO7oUb0QgiPaHWb+2o7AOEKAPoA1DZQcFgdL5x9EGcAfhadhCacb6EO6Ozs3NnbfXsCGMj5Rbe9T0uvW/TnMPD2FHb3dqB0AUiV5FcQBmK320nS43fknL1anDmH320g7RAYxbPkUqoeGDhKZbNZC+QMZ+bpkGPoGWPWwjyDh6cz2gCeARNTRwN1wK2B53/j/FJN5vbgZ4NHbwIPtzPnQ9q05wO36oBGUgOaPmkUOL/ytDV3NZjmNg241tFy48MGcqOl45oGtLc2X29pINebW9trV9+OjxpIR+3q+3F7W1NrA2lqawfgP2pM6xyA+7cMAAAAAElFTkSuQmCC'
p13
sS'twit'
p14
S'data:image/png;base64,iVBORw0KGgoAAAANSUhEUgAAAEgAAABICAMAAABiM0N1AAAA1VBMVEUAAACIyfmIyfmIyfmIyfmIyfmIyfmPy/X/6LaIyfn45rqt0+S11eC819yXzfGm0ei5kbRcc4d/uOLh4MfL2tPp4sPw5L74/P/S3M+ez+z/9Nva3sv//vpFSU1BQELE2diEwO7fV2v////kYHfE5PzrYnP/+/HYboh7r9ftn5budHxgfJJlhZ5tlrRKUVlOWmR2p8tTYnBXa3vS6PT48t+sxMmIf271oZJNS0liZmeWTVjQvplMQkVlYFi4qYtWQ0jp9f6YZXidxuiOwvD+37LqWW7R08uqEwgeAAAAB3RSTlMAYL8AIM/vi50ITwAAAy1JREFUeF6tmOeS6yAMRp22gLvTe9vee++3vf8jXUhgFWu0xp719ycziXIio8kB21GpVMUPUq3UZJxard4QP0yjrkD1LfHjbNUlqCFKSKPmVEQpqTjVckBVJwvAvHbL5au4rbbHskjfg5g/4igjnxUGsZluZTheyoyHurEZKwYKNObP3lJnj2tUUAAUdrjOcPmVIdfphHlBnm6nG4Q9APXCoKub8vKBfI3xJfPvRtRHGuXnAfVhKTAIFq9vA+301jMy67ANnO11xaCznmNvJwP0+2Op86HBMYBisoYG7cCMzO/tG84+XUODNmdk4PHq6rZjsoYG4RlB7DXlg6gZQWw1GMQO0YxQ8BwP2Tcgnx/BjIigOR5x/xuQ9M/9LsyICsxx9176iQYxLhOInJmpakaCPAUK84JCBfJIUFuZQ+A0k8l0OkmaAkeJoE2CWtS/+kBiVCYHlCVaJMgllqgpOZqEewqUbEgQl4kQKJl+JUGgSNXnBk0ANMkBgjEM0pz5dCN2ELgRe69Jgeh6h/Ce5dLoeofwnmWx6XqH8J5l/HS9Y1HasQEdW/RmAc2ho7kFlO29E8U4PVWkk2xPOtT+BTmThDPzAiHqHWL/gqxaOYVXHarewd7ziYaIlnxwKSF/FxnJrI1ZK2QjF8kfMkOyPdfT0tM7TzuEzwQBgpbc0HAuTEOmpQvDGbjQEAbBD3VMwaVpyLR0qTmsA63TILGq6G80lKQUdwGW5R2RBQpdIF0pUDNllCvguGGeE9s1k99Efk00l10XOrENzBdNDPhXwRPbza25FBW41Nubgie28d3mvGHx78YFT2yLB8l5DFODeJSgh0XBE9uTauiZd/tBFEWDKAr6Xf6s3nsqdmJbvEjOK0d5laCXhf3EJuJ0Q28Y9JZuKUYgyjLvShsjfL82UjZ5BxMRIHSq/lxbg3n/4H6t7bG1Vz7h5E2DsNDw/oUFZweB0PD+BYKzg0BoeNsBwdlBWGgYBIKzg0BoeP9CgrODQGh4/wLB2UEgNLx/IcHZQXNoCN+vQUsEqEqAoCEiTRJUJR77nKADQ67PK9SDqLkonEZpj8bKfFgnU8bjw/87nXVV5H5zyQAAAABJRU5ErkJggg=='
p15
sS'gmail'
p16
S'data:image/png;base64,R0lGODlhDwAPALMPAPi8BTgtPyn2Ha+z3vcqzuAUBVqZqQUEh+tdAg9p9bgQCfFlaZuGIkU5s4VRRAAAACH/C05FVFNDQVBFMi4wAwEAAAAh+QQJMgAPACwAAAAADwAPAAAEWfDJSci8+JFh83VNE3gT8BzHg5gZUFwFcgm0FCPvYyTJIwwGxqMAcEkSwBNqtAIoJKjUafRQIBTPB0NaykmerAtANpSEMQzXgijMjByLgYNEVUoD9bryQo0AACH5BAkyAA8ALAAAAAAPAA8AAARV8MknxLy4WszNMAwASASBHehTkCXGBFfRDE0zjSqCrOhx4QXR6uHA7B4IkUKCiBVWCoRi+cCpFoMFVQKzPnrNiSGROB1CSc+gjIFNAr02h+t+1OfuCAAh+QQJMgAPACwAAAAADwAPAAAEWPDJSassxQpR18pACGycFDSNIykPk6DUcQSUIh8UcyFI9gAV4KMQ8iGCGUSI9ThShAWEgimcJF6UAoFASQwGCcqCMOBKDqgAgNdC4SYyS5xCszzqJvukHgEAIfkECTIADwAsAAAAAA8ADwAABFrwySlLoXiWNW6WAOA0zYEliQFIynEwVDIMiUIpCHWQZoEgntXEFXgUQp4cBXBBhGwKgWDJQihsD+l0wvQYAw1DY0koTxiuDGFAyIk+gZ1JUsTU05NA/bGHSyIAIfkECTIADwAsAAAAAA8ADwAABFrwSZnSvDiZYTFuYAB4F3McwQOMHlBcCoIUr7RIhVwjy038uFUN1HgQBgTFA7FSPgKnx+mAQyicLMnBAXBKlNkJACERSMIlgGAtcJBSj40BjqFPJQE6XUvFSyIAIfkEBTIADwAsAAAAAA8ADwAABFbwyUmrJMSmVHEGoGEMnNQ0RiMpD9Mk6nQcAaXMB8VIBYIUkh0FwAMBH4gKAIgAsZBKHkLxTFIEAiGvcJwIDAJKYTHoPk4BgK+Fo8wsb0rN8phL7PR5BAA7'
p17
sS'related_to'
p18
(lp19
V\U0001f3a2 Roller Coaster
p20
aV\U0001f3a0 Carousel Horse
p21
asS'name'
p22
Vferris wheel
p23
sS'known_as'
p24
(lp25
V\U0001f3a1 Observation Wheel Emoji
p26
aV\U0001f3a1 Big Wheel Emoji
p27
aV\U0001f3a1 Fairground Emoji
p28
asS'default'
p29
Vemoji
p30
sS'bw'
p31
S'data:image/png;base64,iVBORw0KGgoAAAANSUhEUgAAAJAAAACQCAYAAADnRuK4AAASIUlEQVR42u2dL5DkVBCHT5xAnEAgEAgEAoFAIBAIxIkTCAQCgUAgEAgEAkHVCQQCgUCcQCAQCAQCgUAgEAgEAoFAIBAIBAKBQAz1TfFtNX0vmbxMdpKd6a56dbtzmST73i/dv/7zOrd2JSVHyK2agpICUEkBqKQAVFIAKikpAJUUgEoKQCUFoJKSAlBJAaikAFRSACopKQCVFIBKCkAlBaCSkgLQiHz99de7u3fv7n755ZeajAJQv9y7d29369at3QcffFCTUQDql88++2wPoB9//LEmowDUL7/++useQCUFoFkC9wFAf//9d01GAWhYfv/9991XX3215zpvvfXW7tVXX929+OKLu8cff3wPoMcee2z3wgsv7D9/++2398d9+eWXu99++63Qc4kA+umnn3Yff/zx7qWXXto98cQTe5DMHYALsv3JJ5/sfv755wLQucpff/21B83TTz/9EAiefPLJvXbh3ymgee6553Yvv/zyHjz5/55//vk9+b4ks3djAfTNN9/s3nnnnd0PP/wweAxaAbP06KOPXi0yP7/yyit7QKk14Du3b9+erHX+/PPP/ffw0D788MO9NnvkkUf+d8y77747auaIM2ES0YgFoBVEDcDitTyoN99882pRAQdaA67zzz//PHT8/fv3u0zXgwcPHjoHWufTTz/d8yWPu3Pnzh7kLSCN3X8B6ARioA+QGKthESG5LJyL+Prrr+8BlYVFBQhvvPHGFWGeOjie7wGYP/7446FzoxWJYkcgofE0bXzP/7vpgcobC6Bvv/12vwA88ZgluMczzzxztTD8jJnLWuKLL77Yf2eqyZoyAHNLu3GtCM5nn312Dx5Ar6YqDrQygPg3AofF4amORBZX/b333nvI62JxX3vttT2J7gGM7n7WXBBxrh21EgQecxqPg4OphQpAK8RtIKiCJoKH8f777/+PCwGQSHCfeuqpPZi+//77K43BgkeiPTYAiSSa72Ou4DnRK+N6gMzjosl16BHi1cHB4rEFoGsSPJ7Ib1qD/wc4ACkei8ngqW+RaM89BUDZLEbzyDkioAEl18TjOmQyPbYAdE1CsG6qiYmLxZPOAk4RgOcQUJ9//vnVZ1Ojz9xr1Eg9fGvqvRaAOgT1PtXExIFpmBvUk6PAsebecy+30sQOackC0EyxtGIOgObKsQBCoivfM465ZgGoIURsexYAHoKHhOmYG+k9FkAfffTR1b200h5jA/NZAFpQ8Gh6FoBs+nfffbcHELGXOSbhGACRIoHAc32CnJilU2nOAtARHpID1x3B3Z+7IMcACADzXbQQEtMbUwbEvQC0kKA9Wln0sUHawO+SIUcToJFOASDzasR91Hy9Jpi8XQFoIQEMPZOP6YjuNoFH+BBcpMcjmwMg+BZghfNw3fx5z98xFG8qAHUIi6D7jlpnUYmx+JkpgTiIMGchJ8XxRIyvC0BoG6LKfIeKxSzEd/K9ws84nhQLv/M3EiU3b3YT3PlNA8g4CpnvbCIwaz3hf7LyfG+sfugYAJED43jyXj0ay2i5oAM0AksOVQCaIap9tI3JSUyT3k1L04wJ5gvQkcsiwbkkgAAl+S/iPlPO3TLRmFk1joliTGHv+QpASWPgSWV3nn/niO61XtoSAJLkY4ZatUE9XpvkP3puW3fpVwcQTy+1NJn78EQzJMQsfv7smABhvuZcAMGrjo0eEytCq6KF1Djcn1ookn8AC6fbyobHVQFEglLvhCfNqLFR3Mgn1EhztU8UXGwWZgyIUwBksBLiu8Q95XIUuRAE3NIR54HrbsG8rQ4gOY1lEDyFhv4xNSwSpkGgLfHk6dqzGHMBxOJhuvC8ltiFocaBo8mDNGOYR+aEOTAmFov7L9qEYf9dSBa2FffRUyEouJRIVAkLzAEQmpD7Wmo/GBrG8ESr5omEsrElQDYG/osFEGLagieNOE+cTJ5AVD2TuYT6xmzmoN8UAGFS+L8lCsC4NsX9eHCxchIwEZG2bDZytgLQf/yBED8TxICM8jTLBYyBABRBFCeYnwEY8ZNjTAhmorW1hkVtkW3uhwXk2kuDxp+jWYyeJ+ZbzcecMX9r9y86OYCYvFwfHIeTaMDPKDIZbSYVwMCNcg0ymgxz1OtKcz+cC20iSc27VPkdQg9nYwF7g5gCj3snOBq1KpqGawJUHiC5ngRfk87f2EqH8BmB1rUI9UkBJPGckgvSrPgEtlQ2WoyFjXXImjnSAlMXGfCwqFEbDNUt99QYAQLuA1MUz839onExjzldYekHZtq/cWoCdo3Ux0kBZMxkytA11pVt7QaNQmQaToNJiouFOeApbvEcySvkvHdbz5AAWgAZzROg4xq46IdIdw5X+PtWC9FOCqCeumZsfPxOT6COJx/Q8FRGc4GZy2BiUeeUncZsOWYTzgZYNTOSYEzwEHjHvD++G/nflIF2P1sAofZ7FwkgZJPWKywuZgTuETWTYOrd1uxAwwA+NIvnJV7DdeAzc4k9mtRs/Jw5O3Vs6GQAMu7SM3SXl9rByaJyH3P2w4/tosDcopGWCCjaWo/7mzNnrT4AZwEgJ6ZnGJ3VnC0t1t7MHdexhwsQen7b7PXshzu1N3ZSDtRTmooK9wk0vL+0oImOAdB17SSNWrdnRwdm9axJtMG5qYtTAOrrXbTGfrKTBxJxNXFNW0NeAhHFvTYGgkeztEA2e1zk1sDzWrqdHfcVAYRJMsyAVh6aO+NGF5PKaAnpASYK11d33MlcYqGIweB54YEt1R/IwCUPxhLt6uQ9eHSKwdQtlrhuCkBuf4ldu1zoOVlvtBhEl2h1bvTENTjn1OaaeQB2Uh9UTBrsjFFmrjsH9LFxlmJt+Ba7d2wKQGbiYxG9TaHUSoeEeBE5MRY4ElAIPIud64nw9Hq1EcdnQKN9OH90FIgPkahFc0zN0TkHgCY7H1vs3LEpABHwM/2gWC8cK/WyoAkgmxwbg4VMvFn+MendOXooE29/oux1wmXUfEMC4GItNBzIv2mLvag3BSBjRTzhPrFxp6fCpPI0Ao68SHb8mlq5aFlqrwaaWkYBj0OrYOZy3yI0FtePSVC1ph6VkWm+u8X+05vblZFNlhNoBy9KOXJ+CN7BEz91z1cEYgQg5z6keSJQexcU0AGmnLy166ulG/ytntvPolYuAI1I3ExoV9VWQpEUAqA5xvOJbjyLJunOfRcxK2gKXOyoRXp2umbhvrn/SMBzVzX+fpKqfIaDUQCaIDaTcgtPflIxT0u86CT3LYxViTl4FwN0bl/WrPQ2bRjTTDnqzPmdg63ulV8dQHhNaB3Mg4nOXA3I08dk8vMSRVPwK916QRRracYAZE2T35u603WKOUULAhi4UW5JzBwAVoBOWGIrfGh1AMXeP0wgE6QJiYvqZ1Pd+TGxpBZtYiezmMUeAxCekLzLe1qiwF2uE50FzRc5ruxh9m7tPlsAMRFwHDiNtSwtd95Cq2O39rhpEbACDMCTCWruiJZBi3bwFQtqomOAjVa1lFWwoiXlfjoHgBczB+jn1kedJQfK21SY0OzOxklutU+ZIm6PtubY5G4mw7lWKMd99NYIQqpBAeTcRVX7oGUy0NFy0WxzTDzu4gHE5LhNJk6U7emiSlcLuUOj9zqaHAmzXljcumMNkkBz52yMJNuz2sYPdmOd0rQhC1o3Pyz8bX6Wa8EBD1p4K72DVgMQngcLmN+zZdv/+PoB7X0sgB+LTLfE4jHMD5pCLQc4YhmoYQRjPmqb2DnDhKc1yHiFLnivdvT8MX2jRrJnNPyM/49eGsDG1K796s1VAIT5GIv+MlGAxoL3yFEi75ha/4ILnL/DefK5AS2A5vpqGQBht9dWwNP0gvvXhna6tkSuh8kUxHhjnpt74Jixwnr+71CnkbMCEAt4aP+Vkxqf7LiHXS+JiT70BMYFidtx5BiR//jk4zLHrc16QxGwao6YIfe42GBzLJDo3xaTpP5taFoeoilz5ftBLgJAPT2TmUyf0jhJLI68A80wlul2oVmQyJs0hT69cjFNZgQQGix3T43bbyJY/fvG9rHxd3hcBDVxnhg47Ol0v9Ze+ZMCyBhKT8d5RD4SySNmwkUYai2n6cpdNExJxIZOmKrY3DICiN/RYnxHjQcYWWxTIIrt7hithCvfj/ftd2NeDlDxe0+SN9/HWQJIbdKT9c6R45gT4knWDLAYUcOwUH4nawPBEp9aQWrVX+7OoVcYqwItNclBPV377C1xT2q5rBEl735uErl3H91ZA2jOS1Mid5JMRt4RuQSTrzlT/VPrk59M3yDoeSTPUcNkAEm61YqRr+Q+hrHTqq4+96nm4RzR7EZOp5meuid+zT1hJwdQ707LuFjRe2Oxo+cRF8dOGpGIZzEe5IS30git/kCaGGuNLD+N34va0RgS3qQgR2tF8HBtjsmdZ3Pmv0zYfxKz2YdGq1zCfswZRAAlk86We2vRWixaV1vEGE4LQAJN4isPYrS2FHuvDktUMniG4kc9lZIXQaIjyTw0ITyxQ96VGobJjzkoFicXz+cyUOM7NvDUVORuqC0AaerQLAJGHpTrlTlvzKjn9ANmS/AMtdmbOldon7UaTa0SSGQh4uslW+NQETpmwQWAZ6C+TU1gxuLE48pryiTLPvHuBMkFW0Mt7vy+xNx8mpUDADZWLrK4ghqNhHclYeb+h8Cz5FyddS7sWFIuUOQn/M6Ty8Qa2HOx0DosqBok5pxyZeMQgGz4IO+R12GaAY6g9noAF24jz5GrrR1BLgCFWE/MEcXtMJoSzUyM3MKvLA7LaYoxABkTUgvld8J7D9GkoHVimSwaqbd+uwB0jeaQRGn0WCDTmROgKTKQYtUjYCJOBeBab23mc/gW5nJoMyIaL18XoMS6Z83WTX1P/FkBiAXVNMA90AbRhLDYMbEp90BzjDX67N0jZtI3piUs1Y3AIQhpdHypeuoC0BESzYdCjCZu1YHzACQ0gZWP0RvDVQYAEG00BdqlFX/B7MBzOA4yrNkExDYJJ5DJdWzF63cBq5op9km6Se9GPUsAGe6Pb/SRp8BhWolbC9f0lIa6WhzqVG9qg9hOTO7ml/+2vs+x8TVWBaCVxKd5qOkACwtA0DJRq+iJ8RkL3KpuHAMQpFj3nXPlntUAZKxWyV7UxYFWFEiouTVMxqE8EGWsLC7mLZsowIT5QitxLkyLIQAWm98xl3yGN5WDe74ExbTFmEDmARigGwJvAegahacfs9HiKZiM1k5VOYrNuC2VheTm/Vc9LXU1WxbdW6/cEmI+LZPKvcCpbsL7UW88gADPoVwaC5IbK5j0JPdkIDDGfvCY8Ihw2dEgaBxBxnH8ziJDmOFdenZuBnRfGbyIn3NJK+c9lBjdystTzhpAraBda6BVYpzFgCGLrGt9qKu7KY5DTZ1iUyzBGSPMZuW32mn+YgBESqCnvCF2OUNrsYi+uC5v02mJWusQt/IFKZgne/nEvNpU0OeuHAWghaW3GM3st6CBRBvwm2IupgIIMShJkBAO5HYcpKcGfK1OqxcBoN53WugmW0ZLFNh81FhLGEyW71RVK/C7AcOWWCJrkNEm4Uhv86ot9kE8CwC1XoU5pZpRztPabx8F0xFTD0NEtwUid3QAFjWl5R49jcKXah5RAGqINcm9FXosLIsoFwFILZnadHwo/aCGhAjDt9w+3bM1Z6265ovxwlrdvMa4hNuIiP9Y2NUiqXG366Ex9N56X2HOPdqKhWsZ0Z4yWrXVBaCFPTFME1plbJgVtyTDvFfOmSm9L12J++SjxJ2p8X3vaKFD9xx3lBSANiICB09orLNqb2lHbIQQJQYpzyXbfrEAijtH+TdXKl4HgLLbnrclFYBukNjnxzHWdmUpE4bYtOGmkuIC0H9iisHE51iysufNgEMkWnHrj8cPeX0FoI1LLGJHwxzaGjP1zc2+P35sxN0gY6azALRhb22p1zkdO4hB3dRSjYsFkPXOWxlLvEesALSC+76VscUXxRWARmTuS+Sua2ypLW8B6ID0tpA5xVjjddwFoJnS85bjU45z2Ad/EQBaasfp0mOrr2sqAAXpbUx5yhGrFAtAGxWbfW91rNUEqgA0UXpzWqce55jWOCsAbS2AmD2xrbzjqwBUUgAqKQCVlBSASgpAJQWgkgJQSQGopKQAVFIAKikAlRSASkoKQCUFoJICUEkBqKSkAFRSACopAJUUgEpKCkAlBaCSAlBJAaikAFRSMkv+BZtaDHLTTjOFAAAAAElFTkSuQmCC'
p32
sS'version'
p33
VV6.0\u02b2
p34
sS'uni'
p35
V\U0001f3a1
p36
sS'desc'
p37
V\U0001f3a1 A large rotating wheel, often found at a carnival or fair. 
p38
sS'browser'
p39
V\U0001f3a1
p40
sS'annotations'
p41
(lp42
Vactivity
p43
aVamusement park
p44
aVentertainment
p45
aVferris
p46
aVplace
p47
aVwheel
p48
asS'wind'
p49
S'data:image/png;base64,iVBORw0KGgoAAAANSUhEUgAAAEgAAABICAYAAABV7bNHAAAAAXNSR0IArs4c6QAAAARnQU1BAACxjwv8YQUAAAiWSURBVHhe7Zt7iFRVHMfvnWmJfLS6imsqQlltPnqJgpSgtmGCSquWGkFB9UeESmWp6G6LuYqGmo+KylRMI1PUhZLykQ8oCNxKTQIzrUjL3WJUfKRsO7fv98zvjvO4j5m5xxmJ+4Gz555zzz1zzvf+zvOeNUJCQkJCQkJCQkJCCsAUv2Rs6VnRK/pv/F4JZlHTfHa7XJaEkgvUWNlptGFEPpNgFjXNsZKWMSJ+iAuhQD6UXKC4aVyQy2wsIyZXJaPkAo0/fXY/vMWJUAoQxzKsmRIKIdu6dT7QWFlhwX9OokpOwSMEK2GaxuMSzKKm+cwjcpkzjZWdd6BII9HwxuQ7vHuXxzyM0fBVCeRFwQI1dqt4DU/PlWAWfsPzvHnzauHdDXebaZqDVGQGlmU1wTsB90NdXV2DinTBuzzWzkJeGCmqQBBlFLwpcEMhSrmKvMpRCHKeF7jXEV4Vr21w7xy8r+DeglhfqMgUrj+BKjtPxuMfSzAddLA1LbEuEjLmz5/fLx6Pv4GKY1KYABVm5/wN3D6nChMRdDjcEDw7TEUCPLs9EonMmDNnzo8S5SmQZRmbx7XEJkowLwoWSC0RWo1DyKFCopKwaYxrOTOY19KUXqHFiBVsQeWWpFYuF0Tk6bickJLXYrvp+VjQE7CgjRLIi4IFIo1dy+83ItGxElRgaB6LCgyyDGPVkSkv9bCtBhXaBGHm5itMJiJUPfJVFsF8B6xcugvhVTJvWs74JGb82yDruUACOUHLirRa245PerLb5cruvTPftC5gmVPp0ZrKzp05XLVuba94JD5e5lXa0C4QWVBfvzteVlZNcVCBabW1tR/KLa00NDQ8hd9YQZEira1fzp4792G5pY2o+NrAm11tRKMTrrU4ZM+ePYeqq6v/wG89hN/sO2LEiJv27t27W25rQasF0ewhygoJPp2PODJi3ZEIGcfcRjYnaEnw1l2Ll6JboJMoYE8UdA0q+KxEuyL9COcnWfMiVhYe5z07kNdKFekBLRd5PIPnmpBejaA60CYQCrgQBZyJAp5CAXtJtCMyEq1D+kGsEKI4H/rJFkKEuxOO8x+m2Y8R8AW/ETDlBSErPYOCToFyKpzdseKS2xyLbFHcELG4qu+A/D2bD9LWIs08XB5FursSscHQIpBdMFTc03qQjv3MRqQ9DTc+1zkRLQ55b4XrjuBk/IZr/2S/KFzm1Qe6oWs/aIj428R3BAVflq84hGn5jDy7TKLdUGWAmMllTRB0CTRUfNcZK97sQnhVKPiLhcym5ZkFcFWSlxt2GR4UPxC+TcxvlXxk6vSPcMEh1q95nYR3EGnGJGIKA/nwC8h9fr8FS+sJ17//8iWPeZXfb5Uf2IIgTG+5/FP8LNgxS4E3SVTBMA/mJXMfN37mH4yU1SoUAB1N7FbxD4ufBUQcDHdOR6fJPJgX85QoJ46Lz846EAEFMvu0a2nhfMWPdnDHEpdaYF7M05Mbz8YGGqYVqC/yFaitzFgDz34jmfS54eJ524KuO6KX/umClzhSgk6sFd8VX4EmnIqdrGmO3c6NdCd3paLrIUl63dFafvPvTmVWrq1tYC6baDk3MW46Obkr5eWnJYkXl+DshagrnBBiBFotQVfQSXOT/69EyJ3W9h2bnMqs3N/nvpdknujopA+Kf4/4TmxHpcp9Rh6OOpwMevYZEJBbuGSf+E7YZeGCNxA6BLI7X1cLkaUBv1r4bZxzRs6JIJckbjyKfLhi99oOuYV/kMZ3F8CPwAKxoCjwKT8LQZoNSDPax4rsGbnjMgHCcb+Jzct1umDPuXB5NBETDB0WRL7mH4jguv6BkA24vx9uAfsaiU7CpkORJcgPimnIM1wQ7/eyDLsM8HepiIBoEQgVy2n9wz0dpL2Awm91aEb2gpf5DUsVkVaB/mkn4k8zD4l2wy5DwV8yUtG5H3QAFeDmFvd4Zkl0FhlbF+uRlvs9fP4snk/uKuJ+HcTYCmHsb2G+uwDIw960o5Xxg2NgdAqk9qNRuFOo2Ei/FTvSczifkAgZB/Fs8sspYT7wOiRCxhZU2HMLl8KLlXHTbppXM8wHXX2QGjFQsCYWEAWtl2hXWGEI+QAu18NhIpoO84G3nmn8xCH8TRFnuy5xiDaBhDoUkF8WJtLcJc4VWhkqo5qYC8257B1J05rI34agMyRaC1oFQmU5N3k3ETKe95sYkpRh2Ylkx+2GPG+fRKvLRdB80G1BFGmWefnyJyg0DxisYN8ktxxBGq+tUXte5AjyruVv8Dp68eI7OpuWjXaB+G2+3/tv9+nw64kYRYKjSF4Fd50a8Hk3K0Se/A6mvs23/+2XPX1Xvzd5a/dOaR29DrSNYsQ+uIBC26c7KJIyf7xpfv/CS766REAlR+H+5xJ0BM9twjOTJMhnaJFsVpxSqIMRA1Yu5RRAne7QfYChYIH4tiKWOVuCgtkHf+iMuBkfzoKKBTCdOjGGSnHhuok7g7QsXPPEmStIr/a6RRjOh5SVZAqePN/IIzCmupckcYDqzAcSzIuCBfL7FwLuuXBbQQKqScBTh58YZsXh8WNg5lG8LJgW6VRHLs9tgDBpk9GrB0AdsIz6mpbY6xLKC+19kBuokJr3oIKLEDzKCuciDmFaPMd1HC2mV6Y415LCLYiny6LR7ySYDXfsPDalcmleKfh+SvaxoJdhQW9KKC8KtqBE5a2dEkwDb7ophx27rBW7B1VOOwBpWKbaUciCfVK8zWtzzZNAo5gc5OThbR7btTnfVmZs5l62hB2BBaUtTv1g0/RrWuowuWH2kGCCeNunuW6vOqF1mM8ViGOfwsgZ9kEQSMsKPR+K1klnkE/zUkDQtD2iYlEqgQr6mIcV+3i5LBpFF8hnceqH7+JVN0UXCH1JkPWS5+L1WlB0gWA9BTUvwlGPHbwEi0LRRzFZcgSBZ4y0b2uEhISEhIT83zCM/wAnBy8iIakFdQAAAABJRU5ErkJggg=='
p50
sS'andr'
p51
S'data:image/png;base64,iVBORw0KGgoAAAANSUhEUgAAAEgAAABECAMAAAAV8YMOAAAABGdBTUEAALGPC/xhBQAAAAFzUkdCAK7OHOkAAAMAUExURUxpcS4vLy4vLi4vLi8vLy8vLy4vLi8vLzItLy8vLy8vL9pbjy8vL9xajtdZi6FLbS4vLi8vLy4vLzYwMysuLS4vLi8vLy8vLy8vLy8vLy4vL+FckS8vLy8vL9dZiy8vLy4vLy8vL9hZiy8vL9hZiywuLdRYiddZiy8vLy4vLi8vLy4vLi4vLtdZiy0uLi8vL9dZiy4vLtdZi9dZiy8vLy8vLzIvMC8vLy4vLy8vLy8vL9dZi9dZiy8vLy4vLy4uLi4vLi8vL9lZjNZZiy8vL9dZi9dZiy8vLy8vLy8vLy4uLi4vLy8vLy8vLy4vL81Whi8vL9dZi9hZi9dZi9dZi9hZi6RMby4vLy8vLy8vLy0uLi8vLy0uLtxajjEvMNdZi9dZi9dZi9hZjNhZiz0yNi8vL4tGYi0uLjsyNi8vLy0uLtdZi9dZi9dZi9hZi9dZi9dZi9dZiy8vLy8vL9RYiS8vL9dZi9dZi9ZZi9dZi9hZjNNYiZpKadhZjNdZi9dZi45HY9hZjFw6Ry8vL3A/U9BXh9pZjNZZii8vL9dZizQwMtdZi4xGYlY4RE43QE82QLRQdz8zN35DWmI8S6VMcLhRerpSe0AzOY5HYsRUgT4zN8FUfyUsKadNcb5TfaRMb3dBVpJIZc5Xhm8/Ukc1PJtKacRUgHtCWcFUf5pKakc1PM5XhnE/U81XhVs6R6VMb7NQd3RAVbVReLFQdpRIZ6tOc61PdFQ4Q69PdYNEXV07SDYxMy8vL9dZi9hYij7B6NlZi9lYii8vL9pYi9ZajDzD6tlZjC0vLtVbjdBekDUxMtRcjku44bB0o8dllkDA50IzOVOz3KZ7qdxYi8xhkkG/5luu14yMuXWcxzkxNZ9LbL1qm8FomcljlMRml89Xhqx3psxWhc5fkWE7SpVIZ0+237Zvn7NxoZOItUi74qB/rXCfybtsnYWRvWmkzkO+5WSo0nyXw6pNcrdReVSy21+r1YePvJyCr7hunrlunWyizVax2ZiEsrxSfIKSv8RUgOnRdZkAAADidFJOUwBc6t/4+gb+AvXuBaMC/gH46WsEFPFJvuIY8gTG2Jy4TC/8aPQI/uaSD4/CsPc0uoqAlPD02jsj5Q3OVsogEkqGKy8bVDMj1aELd8purUYOtd0SgUkM/j18YkApiheXxn8Kzqodm/5PoFmpcur7UaJ6QV4nx582d4+GK7TqWmrh/kP9c/35CL2m1/o7GmT8hOOM+Xab/WbspNK78jrTcOT97MCdlcm+s+O+nWvJnUjDqKerWNwwM1D5xqDm//////////////////////////////////////////////////6vZS1pAAAJwUlEQVRYw5xYB1QTyxoOJJulBHAJkBASAiYGCEiNdAhNkCpFaSJYKKIiNqzXrvdZrrf33ts5r/d3Zhc4hpDQQS5VQFRUbNgb6nuz2V2aqPD+w4HdmX++/ecv3z8Di/USCVoW4/PrLz8fOfLzL7/6lEYGsf4vmed5KJVt29KjqNJoqhU9Lbbs1EOe82YN4xaTHAgA6O6p0rc9u96mr+rphq+ByTFus7MmJlUFACJZ+5MC7xyprBx+plf8tFaCAKBKjYmfOY5zhQgALNkogOtL9N2rqaysGTlb7csNMErGIBTPeYYwXCMJAMZF/tAfDqtxfWfH6GjH1V5itQO01L/IGADJZu5McGzybGsRaYpB16EcxzXt/f199ThOAsGvpEiRWts8m1fjvPHd4a8Pfk8rWq3AoRAE+TvDiv7Q9wcPH/7ujVfAWG36dlChGNga8jr1vtAFp8VlITVivmHrgEIx+O0mq5cCLUkj6vv79YTfXgvDu8V2OYUj304P7PXD9Wea6om0JS/DiQ4lervutj5uxPfRBqxcl2aJ45Zp61bSJu7DL91oHe26RoRGvwToyzLdLRjtytaHhDdlActi1/v797+/i3nbiZ+7QWrcbJr75YtxAr4g2m9ArcqRtupPCplRozlzjJjnwk+qz4ySGg0Xq78IeGECuV7Qaq5dvn+9s61d+8EaphiMOBwGyG3NB1rdpU6o0VivveD6onTKxYq1VKyrcW3mcZ95U4Hm+RzP1MJJSqMYy31BgVXUnlcw0da+C0QyE2hlgF0FglTYBcCvm+TYgne1jIbifC1vejLIwsCnuxm1Ve9hINApXr1ogQqWKqJiL1LHq4XA+L1VjMbuT4Fx1nQ4fCUwLYkqoLSOHeAnmYK4ZDMAUBIIBcAsOQ6YJvEPHKM0CqJKTMG0XgqTAPdwVqz3Kj95mmMUixWvhAhA5JWgRBBlghfkA4AoIYVEOabJ/VZ5x7LC3YEkbBqgUg6aQGZKdFRUrDk5oLaFJJDjRjnbLQeWva2ToUhio6KiybxKQE1Lp4s9MPaclFRiaAMngksBcX048FU8KXU8sen2Fp4IBG6TgFHUSwJUMisSyEqmAhIpik5a6CYAieHPAXlidcL8pJRIe1rVHwPisBIYOjsSyC4QYCVhYoD505GxX5ZinS+swzynwJif+Etm5v7zdXMCxWsjcvwDwrlK1NSIxU9SgWBXDsc1mAwYq1SFKrnhYf6bI46KA+ccP78/M/NPJ8wn4ixd4VJ1+vSpgQsttWRwRGwBTwjinINY3AgEqFBUBRDorHjnOMBe5LVARIaztuXCwKnTp6tcNq4cx3HYOF/z6MGDi/X4V2ukEjPSraSj4zyU1kaJ1EuikbXSI46ZMZOkrvkK1116cKVXM3+jwxjQQheirXVkZOi+Xh7iVuhZ6lPhjlFLUFsV9aAyQ6kHzL3Cp9Sz0C1ErnkyNDJy94qG4U4o23H945rm5krYdBwN8Hwba4TjkZyIIfRyMsGxxGQPDmJtwzdswpFo6iDXDPVWbx8jakf83K2h4d+GOxqJ0KXUWAyicuLaR8KKpXBg3cKAOqmQGJo5C4imqw0jIw03ewlHq3EgXN97qfFikwZngNQIIoMdI0nCWCRJgp1FhiBqOjyhON7+qLHxYR+OjwGxNpIEAwVSkSMdTWcM5IfHuCOw8A0ugg/uMW6uAKPbrDn8OEGv2Tjmo23rGW6YH8IkugAIU2GhSrLdSSD3bGiayIMNBEwqh8xn1qzfNp6OK+hRy/LFzJiSdLNxfqSzkAQSOkfmG5MuVzLzi8stqTVlKyak5OKM9bhWq5WXMy3GRkY6xx027kOGuKGHYLMmbZPImG4dXS6HS/D1O9MnlcimHW/ffu1D2tNctdSQeoJCVpAX5WuvIFahwJCMUjVdjUs/fO32276bzKdUm8k73WafU0H0LILEyM6TAsTLOYukIZKYspy9ECDNgxs1K3KmwvS5Wfc7/OcJyUmERhhaVzYbruV58iMhIUkEcGcCaAoqgHsVR/I9eRCVnW1oehGoyGkahrQPBsH2LLfNiShABCVkf9iSTGWjF7U9JHkL2WtKBAhAE42C6AXPi4kPiljnepgCEJdEO9QmQQjGRJjAjCbFAWCanGuNoD4m0x74hLUY9AiWN86nfB4ZMQ6HjBxv3B1blLCmjbFa4fSHQJP8lpZu27VZE/wXFgdQgOXkYPBP3ISOwc9aa9vd0pI/rUFL9/z49OntH/4xccyIg6IgMT4+EaDo2AHAIH//4fbTOz+GrHweJ91XXq3VnJobemBCAzgKTEVgEZ+/CIhMwdEJxH8gdO4pjbZa7ps+Fcc8o0x39v71B314aOzYYKQQBKoALzeXB1SBQBg5NhEbijc9edbZqJtUHwbZtY9oa6ip/O1xP5FhwdBLEoKIIWcbG0POFiNIEkMXFhmW+q5meEi6rNu3awrQ3rL6LvIkVnOZ2MqYGyQF7FQU+hn+oKlsIGVuNelbqy82kOf41jNz904B8sY1V2523O143Fj12Un+WGvjeYBA682brQOBB2+8qZ38rKrp1r3R0XvXz+HeU4AyICmca4LHVVx756OEIDpDOTIxkEIfc6VALOPQ+ReU8NEdLa7rO3OmXYNbZkwBMvAUQR7XtD11HB7pVxsxCLZjA1doH98VsO2CgZjM7Ugep65HSyuPMyEjywsYwpN/zCarxJ6lFtXmqTlARk7LAEedB0Rqlr0M1gf7YzmjXbB86pF/A33GL/Nd7C8lGfrkf95885/WQGVHTtupgCzXrG5NDsnigqzFjjQ9umx47gLgsKEA7q7MhSQ8+2x23eF/DQ4Obv13HXuLobrYtfl//aYns/hgHTsblvxybxcINb9gg8N0x/493r7rFhoSjO//twFtvb6+SlEcl7IsIGBZyoLub/xgqz81+NofDB4337bO13tP9CvvSHvkmrNd97ra6hVfY+wFC9jY8WJc9+hK2zXdXO/XZ3EVTf8dca0VpufwE+2dFpKMag8OVl0Zam5uvVzvt2kWQAtdqp80k3l+Q3/kzxFFRRHZf6xqv1lT2VwzfKmauaXMRE744f2dV69evXVWUxbCMjGBd1KivWuoYXjo3kNitcPMgWDrJXCdTqchcLnhXmYOT/LnrjWevdjH3ElnJstDmYTDjxlYxWIHTvV6+GfHLLZmta6MxrHcSS1b4scg+y2ZzX8Q0ssNSFp8N10C5r9nkHfMJvwQaUVaWZniv8VvqZ0oeevCAHkx8vP932JJHBzhdQtZvaaPncUEClhOPa5pbzcKaWMgHajqHN+DBI7r94SSN/DDxrMHBXSoMlDHIB62gTaIQ4gL2RwuIQ48igGQBqTv9am31wAAAABJRU5ErkJggg=='
p52
sb.