ccopy_reg
_reconstructor
p0
(cemoji
Emoji
p1
c__builtin__
object
p2
Ntp3
Rp4
(dp5
S'emojipedia_url'
p6
Vhttp://emojipedia.org/circus-tent/
p7
sS'index'
p8
V449
p9
sS'code'
p10
VU+1F3AA
p11
sS'apple'
p12
S'data:image/png;base64,iVBORw0KGgoAAAANSUhEUgAAAEAAAABACAMAAACdt4HsAAAC+lBMVEUAAAAgnt98Kx+ra2CRIBCVlpZla299VlN/ZWF/RUGFOCuNGQiiVkmFWVF5IRQNjs6JHw6RKxoAAACENyuzXlBmZ2diZGWio6OJPTGWXFR1dnaRWU41resys/USktSGGQqDFASYmJh/EwWIFgSCRDmXUEMGAwOWRDeJRDeZQjV6eXmPkZGSFQOampqtfXUur/ELjc8oquoXl9qXl5eEFQakoqJ9JxymVkegoKCkVkqWfXg3t/gzFxSYMyOuZFarWUsGiMpfX1+SQzeccm18T0k0cZKheXNze35mXFt2a2ibhX/OGgPLGgTDGQbIGAS1uLnNHgiyFgbMJRHNIQ3KIAzHHArNLBauGgoAAACYGAbEIxDIJxO/HA1wDAXFLhm+FgS6GwW1IQ2iGgalIg+5FAWqFAPQMxyJCQFnEAi7JRK5LRmCeHfCIQupLRm6PCh9CABqT0zAXVCrNySYCQC0OynHfXSUOSrHNR+XKhnZPCNhNTGjDQFTFQ6qs7R2ZGM6Ew5fHBYfCQZ1Ni0LBAN6UUpbJiJ1IhV+a2lzQz6GGw5xS0Xa2trj4+Px8vL/sabs7O3/r6Tp6ur/sqfm5ub9vbTS0tLu7u7Ozs7w8PD/s6jmpJvfnZPx9fb+ubDXmI/1l4f3uK/zqp/o6Ojr7Ovk6er+p5z9mojUfm/q6+uvsLDSysj8oZHozcmmpqbaYk/LnZX/rKL6sKTd3t7crKTV1da9vb3Av7/00MzDxMTaeGfGyMjxsqirq6vRi4GBgICztLT+lYPijn/MRC72opO7gHaTkZHwkH/zhnO2trbldmLn3dv2w73x2NVtbW2foaEHiMr+kHzlhnb4gWzCjYS8cWbUVkKRaGHabluNiYnEY1W6u7v9h3LsmYr9i3i1jIbogW7+tq2zNSKZmpqaRDe9NiDpvbby5ePNalnKr6q6YVHGbmKhf3opquyyQS8enuDBVUZ8X1y4ubmJhITwfWk0tPa5Szzy5+W4o6HRwb/FuLafNyanQjHgmIsSktQEDnyAAAAAS3RSTlMAGSXb6mVpDyEG+9eTOTZGyvHte/6MT9TALv5L5oCqmnWmXK2TYe3Ybu7sOPSM97OAS+d1hvRRxrX4sU7t7e3Z5LapW9frfs7v0eKq+GbxAAAGPElEQVR4XtzS5WtcaRQG8F1CZiaQ0C+RTSoQaGFJaLrbEppNIS1UaPuvXddxd3fXuLtr3XXdoe97k9uZSnYzd7714X59fpxz3vvVl5/WEycvfV0LIPsF5MQ56YrspRigfC9Bkb2uzPlTx6oG/j3I+VPfHZOyhmx+fv6KpK4IXAfdWtJy86vacuutoibg+E9r/bUA8ttzPS/qawD6/RPLI73dkoEbe/FMMP97m1wicHXvqTIW1QYn+hokAU09QQ+CZjXaP4tnpQDtPctPEZQymTXRjFuC0F63bPCgFM+GzRpPyn2hWkBRN2KIRiy8iqXD5kexRK6+6n5e67MRKhWrDofNCBcHQlX9lfw/WdTFqzCWVofNvogSCFX2NT6K4DGMVavV4SxaldBet+Ic3MkyVkKFwQlo2p60IUA44iWbBmB/2OciwAYqOAFNmqwMFI70mscHnsN+1gIAHhyRhkAoyR9VgP3FsWFv0lUG1DipJghB6Py/v/pMM+wbvWEwQAWAh5I6AkWUiVyf/D+Bxubnadj3zrioMkDjOEn+hlFMRJlwtykOBxoanz1J3xkzOrwmG0V9MAEemtbxFINwqWJb96HPfxH2x8ccDu8UdQDwLC4AJBmagUKES0301h/yfJeF/kLJ4Zi2MZUALgB6DINCLPOj/8Lnz7f5ZPLO+O5CqWRHmX0ABK6AC4I9qVPxLihs5To/OaW8sXlzffJn0AcT+GwQEJ5BnACOQD7W8TwBBGXc/fEh2sH6oL+0DQfIgv7nADsLluBdFvCcqeIHh5B/+4PYBxN4pxgRIASAPgBCcAlBiHCZCX9n+T1Pi/1tuIGPQQFg2QcIFod9AQB5DAXCIpxyruu98M2DFefi+JIA7D6yoQKwvwOhJyv69rs8xgOBoFCle2O2SQSu/fXrZnrQ6Cgt7G4Po+h7AAiVABSmMRWmw5hY3D9amG0VT9D14NWbwHp6ccfosE/ZGAiIglVPChH6JK7GZ6zwAO7c3GihQwQUHWv3hlZXA4GAM+rhOCSCCvsTPAx7V68Hn55lWVNWozX8kdkqunM5//2NQkfLAdA6W/j74dDQqjOYyKRSiXgilVEqOS6GwPg0IFqtwZDPv+u2TFrbZuI4bExoWps3ODWF0veQkKRNUnosPTWH9tKDJcuSN8mK5XWRvMfxkq3N3u0L9DPo4KONCSaCEINOPpni6lBI7VMgtAqYkPjSv+SGyqWl9z4gzUia38NohtGoUDgtXB5AA6He/NI4P7z37PoVbrz4GO8dX2CSJFWqVUmUZaiogOqycPqDT0uty1qlIsmyUIcOPLzzcx7/e7/XeImJgiAqYZHnoaZQrdVqB9XC0qcl4GuvJVZkEVoJmNBMZGd0P9F3DDtv3zR4DBOUqFBX4eUKIFWk457CWUtQHyvpvR1Dx6xdCfP9XCjG7mfPmzwmYyJfBuriNdLns3z+pIVhmCyUG6/WtjJUqt+Z035JZvv5OIevx7zsWvZV+0uZr5d5aC+KcMCpctE7OX7ZbCSya1vezHIkwHXPOvd1Gu7204wH9YXxyHIsw25sgSaRODxvt9vqkUh828nub7De2PI6HvahTgYE/2sFz0FA26xWcIAksg6ajFeBZdUik4lBNoJD2odaEYci0GsFMyAgbBYEFKgPJGEcx91AgGIDSokDYSWMWq0IYrGDYH50WJAvgcCCIOAACbqowtHvNmmOU+soYFXjFgvBdPuzQzuEuZ/v0iAYKJwqHo+HdrHbLhoqzgEIxAEbwaT7szotc51cl3ZYBiA2mwOgadoV3SDjLpomHAq2QRwENHPSvzskeFK8OuGS1oEfsNvtBOFyRaPb5Mqqy0UQdgDuD/ro9MRzxWGB3lBMpfw+dYi0+e4u+Xo1qhiIgQFeEEX9gdRVcUY3xJhpJeTG/eBAnU7oLqEKVldIcnM1OjDAXacTJsmPu0Mr4+Zfd9lRs5EKBiM4SBaTySQMIFMqHW2Q5G76qMQwMJDJ5KLfD+lIkBqZGPvdzjg1/YiighFl+gMBjot3071tkiQNR914nAsAbggHKcr4WK/7A/qpCZMiCYaAVO7MQAKbvVwqBdeQhfD05NhffhH0TyYnTMaRkZHxhfmnt4EHhoVxuDSaph9PjY3q/j2+A40uK3YjhYm4AAAAAElFTkSuQmCC'
p13
sS'twit'
p14
S'data:image/png;base64,iVBORw0KGgoAAAANSUhEUgAAAEgAAABICAMAAABiM0N1AAABSlBMVEUAAADM1t1VrO7M1t1VrO7M1t3M1t3M1t3M1t3M1t3M1t3M1t1VrO7M1t3M1t2+GTFVrO7BGzNVrO5VrO5VrO5VrO7M1t3M1t2+GTHdLkTdLkTBGzNVrO7dLkTdLkTdLkRVrO5VrO4mKClVrO5VrO5VrO7dLkTb4+jw9Pbt8vXe5ero7fHy9vj1+Prr8POzu8HU3OLZ4ebLytLFeIfu3OHKvsjW2dvJs73AGjLPX3DCVGdAQ0VNTk7P2N++GTHOJDvCHDO+vcTR2uHEHTXdLkTTJz6PEyXW3+SRFyngOU/qWW51LTfoVGnoUWbjQVZmJzDpVmvfM0k7FhzmTGHj6e3nTmQsERXiPlTkRFnNTmDeMUfh5+ywQ1PlSV6EMj5YISnhO1HfNky+SFlJHCLkRlwdCw7m6+8mKClma29VrO7M1t0FCw8AAABAgbMTBTt5AAAAJ3RSTlMAMK+/j3BAEADvn4Ag32AAEACfYDDvz1CA30C/cIAAvwC/AECA31DKSWYwAAADcklEQVR4XtzRuwqAMAxA0VAcHUq1m0Nj6rf1of7/ageluFgwwcE7hwNJ4LtGhdhNpN1z4FrZdIbGU8+A0i1rNA+qGSlICUHvV9svYkE/EOPYa5Hq/xnQVgKJ/gzFKAOFnMPcDloDB7v0spwqEIQBWOqUGUcqLEneQEBawVviZYxhMy/AbvYu/vL916fGZqZiYgKWdc4qveKn4atuGDEtMBWD1uq1PTBEqTC8H4pQ6QqI7oUCibqqSsjgPkhIqFprA0hxDyRi4FhqXY6AWLRALU6RQGukqlXq/ewgNTAZzBhtUu9np84VjIHKR066GQqsMyID1DVg8sJKwe3QkwRQ5LkCJhNAna8gn26FQpwdysAQMkqthLAz5NeCSiixHpFNSSPFQWdIhDg7KZG2HpEVNDUSQtENih7R7EU1rMAeai89Rh2ghxjeSZQFMqKs2ZTygrt/HlqgZhpglFMzCI5ERzSjUV6CK46+h0TfMTBERIZDQpT4uzwdL9gXVyERSseosXUmHCprVixNrDRWjpKh+Ar1PQOdWCdRnLIPYyjuFPBU/zM0BC7W8p8VrML/Al7a1/ASCj1TpHQu52QcMydxTAsvhReQ9BA19Snn3/UhP0ICX6CuGfgn0OA/Qr+QdM6sKzRzjrx+sucLdhZLztMV59WU89L159dP9iBm5+V1zdB6w9B2x3m35bxx/dcXduLBJfQ8nwGz+f7tsF4QLdaHw2YJvG9Pp92KaLU7nbbvwHJzcP23Pb/x/Lc0utlREIbCMMwdTGaJxmE31+AKTTwY/QRFjSKNgz/ojvtfT9N20faMNWTezWlKeNK0H6ZIj2GqmlGmF5ma885qbvZVGc30YvhpivRIJuM0HU+IKJum6TTTc2FDC7NvvpP+I/kyRXokxFoCKxtaATmxfIh4BYew5tJbaA1gY0MbAOW2N7QtAexsaAfZ/g00YNABsqMNHSFD5UODMHSCDJ2TgsptL2ipnNqFaiUVIgSN+AXJzi50hurHhUYBSBRQNS7UQHcKQ9zBxYUuMFWvoYQ9GPTrs/dXXS0oeQ3dSug6L5j2IgRx6e5Dd3bbDCJikrlrftsHcgtBdIWs9aEWslz0gegB4OlDT8hu1AsSOeqOVQMPCkIxkyo0HGpQCt+JHeibWHnLoRYn8vu2ISmxM1XdH7EDxdJxoP/3C+5h37inhUtzAAAAAElFTkSuQmCC'
p15
sS'gmail'
p16
S'data:image/png;base64,R0lGODlhDwAPALMPAA8NDexjYgDXnlxbX/giIv+zs5ijo//9/f2DgwJGNN3Hx1sqKWt4pQ65gwCIgQAAACH5BAEAAA8ALAAAAAAPAA8AAARZ8Mn5AKGYgsyB2px2JOEEGIoBdkZBFCrrIm+ste/hwuu5HwpdbePLFQKFA42XUAQMAQZjIH0GFIuB8hBweL2B7UCL4DYE6Ea4PN4izukyGzDILhJ4vH0AiAAAOw=='
p17
sS'related_to'
p18
(lp19
V\U0001f418 Elephant
p20
aV\U0001f405 Tiger
p21
aV\U0001f46f Woman With Bunny Ears
p22
aV\u26fa Tent
p23
asS'name'
p24
Vcircus tent
p25
sS'known_as'
p26
(lp27
V\U0001f3aa Circus Emoji
p28
aV\U0001f3aa Big Top Emoji
p29
asS'default'
p30
Vemoji
p31
sS'bw'
p32
S'data:image/png;base64,iVBORw0KGgoAAAANSUhEUgAAAJAAAACQCAYAAADnRuK4AAAKuUlEQVR42u2dL5RNXxTHXxAEQRAEQRAEQRAEQRAEQRAEQRAEQRAEawmCIAiCIAiCIAiCIAiCIAiCIAiCIAiCINzf+ty19vud2bPvPffNvHP/fr9rnWXmzbzx3r2fd84++99ZVZK0D610CSQBJAkgSQBJAkiSBJAkgCQBJAkgSRJAkgCSBJAkgCRJAEkCSBJAkgCSJAEU6OPHj9Xt27erEydOVMePH6+/lwRQVh8+fKjOnDlTrVarehw4cKD+9/3797o4Aqhd379/r44ePVqdPHmyevDgQfXp06fq6dOnAkgA5fXz588anrNnz1Z///5dP/78+XMBJIDyevToUXX48OHq27dvOx4XQAKok86fP1/dunVr1+MCSABl9evXr+rgwYPVq1evBJAA2lxAwm7r9+/f68c+f/5cXbx4sd7CCyAB1KqrV6/WsJjYfTEj2VZeAAmgRv379686duxYdf/+/fVjly5dqqG5fv16dffuXQEkgJr17t27GpAvX76s7SG+P3fuXA2XbCAB1CiWqiNHjtRLmAlPNMCYQS2ABNAOPXz4cO0wPHToUB3rYtYxmefZZiQBJIB26PLlyzU0hCqAJd15sWSdPn26BouvBZAA2iVmFrbswJPqz58/1c2bN2tYiMKnW3wBJIB2iNkHiPA+X7t2rbaBCGOkxrMHCGNbEkBrvXz5snYS2iACz8yT2kPoypUrNUA3btwQJQJoM339+nXtUGTG+vHjhy6KAOouZp3UG41TURJAncRs48MZfO+XOEkAhcIeSuGxQd6QJIBaRUYiHuoIIOJmbPklAdQovNUeHEvrYDx79kwXSQDFsuh8tHTZ16dOndKFEkCxmF2ipQtPNI5H+/7Fixe6WAJo9+xDnKwJoNevX6+/JxibeqwFkLRjmYoAQqktpFlIAK2F34cofA6gFDJ2amk0XwAtWJbGmgMIYCzwyohKgQTQwvTmzZtWeHw6R+pkVIxs4QDhFIy27W0AUUNvTRcYzF4CaKGyqotNAELkDaU/ZxYTQAsT2Yk+YNoVoNQnpBDHQgGimLALPF0AWrpBvTiALFU1zfXZL0DYRSShCaAFGM6pQ9B6Au0XIAaPL9FDvSiAWGrSWYMCw/oibAGgpUbrFwMQzTLTLfjjx4//vwhbAggPNR3PBNDMhBc5DZZiRKfLzbYAWuJStgiAfLjCG7zbBIhB/ZkAmomiSLufIbYNEEslzRoE0MSFw9BH2gmI7roIWwaIQSOHJdhDswWILTtVp1GOcymAUiM9srUE0IRkpcl+EMsqBRAFiamfaQnlQLME6MmTJ403mTYvJQGi33RaGsSsNOfzNmYHEF1W2wKl9D8sBZB1PPM+JwKuc61snRVAhCVoFNUGxL1794oBxGEtJmshnOYOpUcpCKCRiaUjB0+TTbItgPwOj+XS219z25nNAiBuclNJsh9RV/ptbuPTXRcOxWgXaH0YBdAIZF3HfEyqKxDbBijNk07ryfx2fy6B18kCRHwrqqhg+46d03SDfRiDGWMTgC5cuLBRDnXb77Jrm7qfaJIAAQF16k03xOctp8PvhpgxNgGInVbb76dFh7yW3NJKTtKUd2iTA4gbFBUCklnIDWNm8ktaOrywRzYByDq6Ng3fBTb3+7bNn2ozz8kAxBaYhDAPh7cnMJLb4lNeTXZKE0BtZdCMO3fu7Ph9O1KhSwAWB+jUlrRJAPT27dtdIQJrPefLatpslKg9Sw4ID5DPqe7i6e66Q7StPs5QAbQlQxmbo2lJ8vD4wj8/okJATuvZBKBcNWsUa+tag5bORjxnCo7HUQLENM503lY5Soahn+5zNyrqtkpoYxOA7FCWttflRe51Fzso8hkx+wqgDcTFTs9v75rAzqc1V6oc+V7admwRQLldG8Mf4Iua+g+lO0jytKMNArPwWD3YowGI5YrmBW1LUBoy8O1V2oxnG5EHOHdjN3U8NvUPys2O9p54jdEHiJ+zwxubkT04QHyy8CazQ+pqI0Q5x/hTcs+LLn5bb6AmgHJGMedweGEY514fy3a6hEfXBOAx/MfSn2g1JDh8KnM3MNqK72X2iXZgvIZNS5u7wApgkXLP4zWmkPM+MfLTvkTpjMSSNzRIgwDEVNxlqYoGh6V4g7tLFB6Hnhd5O3sBqEttfVTqjH2Xe9+0Go6Wd/xL0Yet6djyWQOU6wrWlm/jl6Gm7qo5D7H5l/YCUG7nxsBfFClnCwFYZITbjBk5U6MPx6wB6tLYKRo+NdTXum8Kgh1zuenzmo5D8LBHywuvOWfvpUeRR/Le8zSRbfYA5SLUbZ/M9JwvxiaGN9D650e2RWRz7eV5Zqf45zK69CaKXm/T++bvDdWjqHeAsGH2ApBG+xgq/NE7QFHogFmppNL4Ff9/CaVR99LnrPL3/TVMm0XMGqAoo69PgKyj2LbiTBi2PoA7BEBDHc3ZK0DctGj97wsg7ArbCuOQ22+9Fsux2UPYJfa3hwAoqridHUD4RqL1uy+AmP3YIluoAMMcr/amBigZhGzlbTttf9d2hEMAxBjCqdgrQE25NH0CZM7HtFuZhQdyjcOBJA27ABDPs+VwaIDY3s8aIHPAeY9q3wCl7gSfW010HoOUTEJuFAPvsPd207jBLxtDAWSxuahoclYAcdGBx8eEhgTIbJmufX+o+jCwxgKQFTBizM8WIDOggcffrCEBSu0GUilY2rynHDCIRaWvc0wAMbMzC0U537MByN40N2hMAEX/d5pByKwT/c7YALJ2Nn1XvfYGkDkQiRx7gHjzXIRSw7IOuwLkg6WRbUHSWBNAxLJKvh+fDcBj2G1tQdzJA2QFeXxCuraJ2/aIAPKRbxyDPtqNr8c7HrlRTQD1PQDIkv37PnahN4AsiMiNGBNAvhlmU7qFZQuOFSArqMTGnB1AdrMsTWFMAKX2Cg7CpgxJdpBpLtLYAEI4SO1DOiuALAJvVZtjBShXI5Y66sYIEPGwPoz43gGyG2M1TmMEiH9zeTps783oJhNybABZb8goLXbSABkwFioYE0DMKryurlmSeKRZ6ghpjA0gaxTR51GcxQEyByIX12yIMQHE9jdqFZP7OyzHYwMIYUg3VYVMEiCrfMDX42ekMQDUNT3VD4ztMQJkmQZ9pbgWB8i8wGlzyzEBtJ8xRoCYGfs0pIsDZF7dNHlLAJUDCA95nycGFQfILmo6pXqAcOZxQ0sN6wHUF0C4LUq+H1+YkAJkhnSuNGgSANl5pN47OqZgagmAhgimpsKIxrbroxHDqo836isnBVBZgCw/qI9Sn6IAmQPRl5wIoLIAWYPzPnpRFwXI0g7sdGQB1A9A9vPoYJlJAWQReL8WC6CyALFhaWppMxmA7AZFTScFUFmAkNWplTakV6Vvmu+bLID6AchSXL35MBmALDErSrEUQOUBMt+XT4SbDEAGSdRdVACVB8jaEUf9GicBEOtvU1R4TEn1JQAaIqk+cuISmY/6Vo8eIKuBb3KnKxZWLhaWyiLzJU8DKgKQ9S1sCugJoH4AshTXqG/1qAHK7QDSxgYCaP+jKYXVekCWbMJZBCDSQyMHookpda+JXAJod552U/KYVdiWbMI5u3PjpX4lgCQBJAkgSQBJAkiSBJAkgCQBJAkgSRJAkgCSBJAkgCRJAEkCSBJAkgCSJAEkCSBJAEkCSBJAkiSAJAEkTUv/AVv+cW59StcNAAAAAElFTkSuQmCC'
p33
sS'version'
p34
VV6.0\u02b2
p35
sS'uni'
p36
V\U0001f3aa
p37
sS'desc'
p38
V\U0001f3aa A circular \u2018big top\u2019 circus tent, with a triangle flag on top. 
p39
sS'browser'
p40
V\U0001f3aa
p41
sS'annotations'
p42
(lp43
Vactivity
p44
aVcircus
p45
aVentertainment
p46
aVplace
p47
aVtent
p48
asS'wind'
p49
S'data:image/png;base64,iVBORw0KGgoAAAANSUhEUgAAAEgAAABICAYAAABV7bNHAAAAAXNSR0IArs4c6QAAAARnQU1BAACxjwv8YQUAAAWWSURBVHhe7Zs9bBxFFMfn7V1Hh0CiAtHQxIlEFX+IipQEUgbREVJCASgUSKAggTgUUeAmiMRdFFMRMBWEDmMnQiAcRxE0QfTQ0dk7/P+z786+8+3u7NfsGu1Psndm1vsx/33z5s3btenp6enp6enp6enpKYHothPE9xZf06KJTm5f02KrdEogu7totTgBDTv49SeKG22I1nmBDmON3TLx4K3o1E9b2tQ4x0ogYq39B3d9S8zwsixs/qXNjXHsBBqTCCXfwax+MDa635RVRbo9dojIo3i65yHVyEj8nDbXTucEgp9Zk4VtsXG0bK25CEtZxc9t3T0BpvbQ/a0Mn4Xz/kSba6dzQ4ydjhbuXNCmKez9pXM2to81OaQ6DQWKd09f12onOLY+KBS9QDn0AuXQGYGwDrvkCtaci3eWl1y5A3RCIM5O+P0Oy4xvTBRftbsrT7qdLdO6QLQWG8fXnTAKYo9T1uyta7VVWhXIWQms5bA4Y8TIEobd11ptjdYCRYpjzf4GrUWb5oLI8RtEyi9pNTitCJRExNPDKguKJDJ4PcTqfZbgAhUVZwwTZ2IGZ0OLFNQHcSovIw5JHPf+RujZLZhAWGN9KGJGZcQZ40Sye78mYUEYggwxzkYQ50WtVsYly4yMmkxzjGlUoGSm2lvnlK1NtZKVGqmLxgRyztjaT3GBp7WpEZhMExleaMp5N+KD6G+cM25YHAKfdsY574b8Uq0W5IaU3V+t09/44vySmKsYcu9qUy3UJpAOqcs4YWZk3DR1B5W1CBTfO/0ZNq9UmcLrhAl93MubcmLrljaVppJAyZDaY+B3Rps6RR2zXGmBkg8NbKXALwQQqdLr6lICxbuLN3Hgea12AjrptIflHHjJwLLQNE9HDHF+yxMHPqBUsosONulMMVSAH7V6BArHZQ585fdF13LeArn3VdZ+BXFy8jd4kmbg0qcl2MzqaDo4RuyuVlKhr+RabpL/9iBXoAOrkVe1KY9fOMVCqCOvi/PA9Lzu09Ej4Bgxw8+1lsnEmuAmfKwpXyAbX8qzminE3NXSA916QWdKYX07ehge4x4KHbIndBNYJ76v1VR8hlihjk46aAc33dYXa37mpqj1uUTaOCjUc/giEm1oMZV8geLBNV/H6aJYvVlOq77O2vktGV7RKpAvtZCPNTe0hA4Pr3jfKy3WI5DMFcjFD1jjaDUV9yQR4mvVQWfNdq1mIKOJFQB+i4iOrmo1FU3oT6bu5Bwy0moqTkTERlrNxGeIGS4AcTPs7ENtmgIXvD0vX8w627lfm6bg+XDei/Pik+jknTfwlD9KswjsW8NxR9528Fw8Z+q90k/ZwQu+gSN8VTGYysDmiaSGE2Acz5oqZ755bXD4Z7WKBvl9njCz6HLmbdzpI0mD+Zf+bbaD867pc6/B4cJVv/PhzQWBKV1c92+KpE21UdiC0nAfHMj+BwzGtMkNPTzt98qsg3i+vOPcNflmVsMQNxxrzglVEsgNm9g+g+JKVpKMzhSbTYnkD5p4ImZ8Ald/HnufQoeWk788gFahxU0GkGP/pkk5LnVSr+n8j7Xfons7GMaVPj4vJRCXHQUi60zw1FfpkLU6gdkCCPCFVitBxzzvIfjgNYs1yXT8cwCffNpMFJJWBeLQmw0NpnDDpF3atqDMUL9IZNwUrQnk/EKOA3XWJabVuKU9C7KypqVM+E8rbVpRKwLR9/hOv21bUXCBnDXY6GOtesE3E5jRPBa99RPeghjploisEaHnJreaIKhAbmiVXAYwAmdQqdVgBBOIQwR+p9LHmC4FkixbghFEIBcQmsFBqqMCFBliB/uGulGB6JA5LNipzIi5INHC9ssQPTUpViflFqt8ryQ2PffCpJaYu+O3DdraCPqOawX383jSMpcHnAm13NPT09Pz/8CY/wD7zMk9LXJV+AAAAABJRU5ErkJggg=='
p50
sS'andr'
p51
S'data:image/png;base64,iVBORw0KGgoAAAANSUhEUgAAAEgAAABECAMAAAAV8YMOAAAABGdBTUEAALGPC/xhBQAAAAFzUkdCAK7OHOkAAAMAUExURUxpcfzCG/zCG/zCG/mvH/zCG/zCG+1sMPu8HPy/HPzCG+1sMPzCG/zCG/zCG/zCG+1sMO1sMPzCG/zCG/WVJu1tMP3GGu5yLvzCG/zCG+1sMPzCG/zCG/zCG/zCG/zCG/zCG/zCG/zCG/zCG/zCG/zCG/zDG/zDG/zCG/zCG/zCG+5vL/B7LO1sMO5uL/zCG/zCG/zCG/zCG+93LfKHKe1sMO1sMO1sMO1sMO1sMO1sMO91Le1sMPzCG/OJKfB5LO1sMO1sMP3EGu1sMPB7LPzCG/zDG/zCG/zCG/zCG+5wL+5zLvzDGu1sMO1sMO1sMO1sMPzCG/zCG/zCG/B8LPzCG/zCG/zCG+1sMO1sMPzCG/zCG+1sMO5vL+1sMO5wL+1sMO1sMO1sMO93LfKHKu1sMPzCG/zCG/zCG/B4LfzCG+5xL+90LvzDG/GBK/KIKfKGKvzCG/zCG+92LvzCG+90Lvy/HPB5LfzCG+5vL/zCG+1sMO1sMO1sMO5yL+1sMO50Lu96Le1sMPCBK+5xL+1sMO1sMO1sMO1sMPzCG/zCG+1sMPGDKu1sMO5yL/B8LO5zLu1sMPzCG+5vL+1sMPzCG/B+LO1sMO91Lu1sMO1sMO1sMO1sMO1sMO1sMO91LvzCG/zCG/B6LfzCG/zCG+5xL+95LfGDKu94LfB6Le1uL/zEG/WWJvzCG/B8LPSUJvzCG/enIvzCG/afI+95LfemIveoIe91LvzCG/CAK/itIO95LfzCG/KHKfakIu5xLu1sMPzCG+1rMPzDG+1tMO92Lu1uL+5wL/zBG/q0HvzAG+95LfB7LPu7Hfu+HPmzH/q5HfWXJu5vL/q2HvemIvF/K/B9LPekIvu9HPenIe93LfGCKvOPJ/y/HPSSJ/mxH/mvIO5zLvWYJfSUJvB6LPu5HfOMKPKKKPisIPaeJPGBK/zEG/GEKviuIO1qMO50LvKIKfu8HPejI/KHKfq3HviqIfWaJPafI/q4HfaiI/KGKvOQJ/WdJO91LvSWJvKJKc1EOSsAAADAdFJOUwD5Dh4D5jyVAQX+6RPjY6oDCPcXCPwMDwLqQbbHzF40f3CI7TgKkfzzytz4afj7StWTFrIZEnz6KuO8FtLpE246/Si5VHbYwuEr78xBXRzXb9DEg1rSJiEZ758t7PRncYpQmZMoC1wIG6it6cFNOyERsHnRJKOCH/GTVXNZp97xrZ7ELeU0ePSPbDnHNNvJXsWy0dhEJ06i8cHL4IXyq7b0fLY/nM+qQ9+AlRVQV/NJhKy8kev61sW6+umJo7q0buQyGjcAAAXdSURBVFjDrZhnWBNJGIABRWnSpKhUQUGKihU79t5772fv5U694vXez+u9997rMzO7JCGBgAGSECIBooDCUU5ihXg7O5tsYaMCmT/szHz77tdngofHLcddG994c+2k0WPe6nOHR6fGyEmADP93NnUK1R04x9uvjnIPCIBxm4LdAwL+C0PcAwKPbRzrHhDIfGFisFtAAIx+/NT8EZErR00cFdI5EAAnn3l9zDj/VaPXB3cS5Bib3QTK3ODjFlDm5hEe7gD5j4z0cAMoc8qp4HaHP9x/3JQxC9YKMAOfWj+iA3k0ZWJkSMjYPiMf9B+IIasW3DtvZYcS8jj3GPnIPQsfvXten/khHczs7h7uGG4DfaGk3QGK+Oqwjj78rW8nMb5zv/8GR/unHyd3ijMr6Y+ziAZAgTS/9P2yw5ie06ZbilFFnUJxQYdMP/+wd3uHMP1PzEhmOMhcSYPrNxDKNiR+FNe13Ziu/f46RtXkIqTJsSJ0sVyDUMVlder7XdrJ6fLdTIg5QNECzfXI1PyfEiBl5ZnklFivdmC8tqX4QWjTIICuGdWNCOhsajNgSKe1VOiuD283FXp1C3oPQliSzXBay2ubShEA9tpmPfNHUWak4PikWbfFWZHgDTkOoCshVZCLFdNStgomn+iqcxSEt+Mqr9gY6OSg4gKKKjQxD6ZCSmWncWpWX2FIfjGBAbeIVVAozwFKAwWpfCXzpCihqLw6vAbqChkSDI0afBNX7YjvwWJUV1vxO6haC5nY6fDrVgZZztJBqQWTYOIQV1XjO3hGMsepYDkN/zJvUAYFfi5lmLAFPwKkJyS4aLDsYeT7RG9IBuEAUKZiJtRl7BpkymFeNlazG+hsDRFcJOvznhkcx0YsQJp8/GGqkoXSBqydRcNtleBvwN7dZCudjTrj3FyiD32JzMvIu2VEWdZhjIKsdfKgNQSkNhMO0l8hnqiuB04nQW0195XzrkGT2YhRecWcaAsxVHuNaJRNDLUQu4Edz8bLgoamsqBzxDJk4hRqusCBi8icWFp/Hc9mviwHCpguAl3QEhcV6AkItLAgykAMt+LZrv5yoO1BItC1M/KgGiU7q6SgZ9Qa+YTcmygEVakloMsEZGlgi4cxdMYOV5m97UWBc80qDsRlAyiqZefNuEvRZsbwjBUuay0eS15V4rqvL+NAOSYOVFJL0sPaqjPZmxj1kvu6uq4NjWbjfV7f2tBaaoMciMtzZXktlw85lkLykeihLkCBnkT0nMWSbyQYmGf9bDcuNl32JSNXQhRFEgF6Bro4xhbzkpxozfViXda+z3d+8JpSobCqoWQs7inH8enrKRUsakVo9qdMvzswBxtnkO57ynppeYZUzob9/PEEZi9sGFvz5ZREImO5TPAT/KT6sPH6BB+uPhtI4RZKSH4JbfttN2+xjMrAtls6nd19JY1NgcY8Ccm7TdlGBIkEKG0LaZOz97Hb+18ilVslJQVFSECxA0ScvDIFycNnJxDDhwGOVCAmDYiVnPUxIk5OI83dpx8gcfHJcizUWcSkGFHf9l0i8rTNUahg0FRO4und3ArSFKmEKL8lQn/3E3iaMl5qcHDAfVs5ibBhjiWktIvM6xEnuDYkCTYsjQonB9zvvFk9N8i5SBfbhPon9eKbYzSvT76ex4DwdKfM8Dn8MsoVJlQ0fw3osowHFSkEP10efohXO4tXCembBaBlvLv7R/HLeVVKXqWdAkcOf96xqrhoEZoWJejcgaGCVCyqcyiVtlQY2qnryKrytFHo7FBhM/EaIqh8qslOzlOwZ4IQFLYlnHW1XS3keA4RXSq9pvUQkNR2Vqd1S8VZO/xdGjtaHPxpkstpr36rvQUVgo/bSVvCJHW0dQ8N6ktVgppd/WTbjuQbF5+S6JCwIhB+tO3/QPYfTWMu3pxGiSnxcfK3Np+AuYcOph7DPcSMZv95QEYkMn1O2g2L1u9Y6sFDcwNu9qM/4sjXCb95F/7+69QwF/8oSz/+9z93njgibR//Az0/goLzcaaCAAAAAElFTkSuQmCC'
p52
sb.