ccopy_reg
_reconstructor
p0
(cemoji
Emoji
p1
c__builtin__
object
p2
Ntp3
Rp4
(dp5
S'emojipedia_url'
p6
Vhttp://emojipedia.org/high-speed-train/
p7
sS'index'
p8
V456
p9
sS'code'
p10
VU+1F684
p11
sS'apple'
p12
S'data:image/png;base64,iVBORw0KGgoAAAANSUhEUgAAAEAAAABACAMAAACdt4HsAAAC/VBMVEUAAAAZNoEkN084TXkiPYEnJycoODsjIyNWYUwzMzMfOk8nPVYfS2sLCw0fLEErSXjV0AI9QEgaPVw0WIQdQF8uP2gYQWpVa4YqRHAJGB89PT0fHx1GRkUnOkZQZXghV3YdUXBCVW2wqwB6dQQwTn8YKEIDBQtCQkIAAAAAAABpbXAfVXONiQEhKCNJRQmalB1TUwg4RSOdnZ2EhISRkZFnZ2dbWVUjIyNZWFUoJycwdecuLi41NTQwMDArKyt/r/4mZNY4ODcXFhNnoPw8Ozs3RWZdmv4dGxkmKzMtW7h5qfpCeNc6c9lMjvtPlP8gICB0qf9vpPw3eOgnYtIqaNk5YrdbiNkybdlVhNheXl1BTWdBQUGKtfoiIB16enqPj49tbW1JfNhhitdqkNdEhO4hJi6YmJhmjtgkRYM+VIUyQFpriL4iVsZMZJdceK49fuhWVlZQb7PFxcW6urre3t7Ozs7Dw8PIyMjQ0NDBwcG+vr62trbT09OsrKzb29v39fLs6+v6+PPz8/P39vbLy8uUt/FJhedJeZVeiqNIes25ubm/v7/X19fU1NSvr6/S0tLZ2dlDb7m0tLTV1dW1tbXp6Oi8vLyxsbEAAADMzMxNhuVfle3x8fHj4+NAarAtX3y3zO9PhuLg4OA5bo1rj6hTgZs5XZizs7PQ3PDl5eWrxO1Ngdhjg7OJr+5gmffAz+h1mq/m6/JRje+Aqe3q6uqVs+NUjelNg9y3t7cEBQcLEhv584FLiOybvPKysrLY4fD19fX9+fRnjaKrvMjn5+dPhd80VpA6Y6UvT4WAf3+EqOEPDw7e5fFLftPt7e3v7+9CarZvn+wVJTpxltVFdcQqSHcTGSFfistTZ3M4UF9pmu16peuCpLiJpsHFvVRidIF/ntQlOWN0k8iNqtofNWCIiox9m82hoaExMjMtQWQjM0xVlPvn56YTHyhBRUaCkqMZNUYRFh51dXVXcqeoqKiqqWu3x7e3rzjW3bigmiTYzk05NgBVTwDa1n5eWRcKwQpCAAAAMnRSTlMAyRunycknyQbJD3i0xVbJJLxC8qPPy9eTPcR36GOp89omctnc8oPf6Jbn+7Td1/61pkPgKMwAAAW9SURBVHhe7NPVb1xXEMDhyg+VVTtOG6dxoqpJmrRVGf61y7DMzMxsZGaGIDOUmZlBnbmn3t043tR5rJSf8hT585njc+eR/28Pe1jTvpaDrc+2b2xUKpUHx20H97ZvVDY3M5kLF/x+/4PhQ8/vee4EWJBXMLvdvjvZ3HSo7akX97wQm7maQYvyLNTb27sL/ejT+48e+XY6FotNf5hRMMLJyXUon/9P3XLg5Wwx+1UMurSJB4NFmE8kLNj9+b7WI8Xy0J0bp4HPnLD3ngUM1GJJJJK3bveb53ty9+dZa2nozsqnyvRX1mFqxBPJ0flc15nzWq1Wr9c35o/tz1pXSiXbzWll+nx+HfFFc65rGKHWQGp8+QNF20rZCrfH6ScnEpa55GjPYgrtksGwpGQ0Ghs++VEr8CL+8affs49YLMn+wWHtsp64uhrNv7e8Ui5+NoPT+0fmJkZzw/plI1rw5OwlUgPfaiuVs5eAX6vMjdzqOWNEjRFnqLWjb261DVlx+tNXJ7+4nUvB5NtYqtqOA7TYhm7OKJcfMHctLQOtV+eVzpF0Oz5A+41ryssPmBf1ekVvSSQ63VgYWltb64Z2GuDN7+Dyn/sH5oEbqhIcQEDpdLqAMUr38sff+OPPv7/OJM2LWi1Ycmg4TBwojcbncykFIfc9/tjx337/a/Vifxdw0DgvHIoQHQiVVxBYpTi2ffGPvT47++t4/2BKCxpsmlhX0A0Ojclk4nmKp0gct238V36Z/XL1VM9YCseGg7csGwfGI+BEUXQ6nZJTkqQIdLc//jbw8UVyNsP4giqgaCkOGQgac0BT/3aXf+2nn989NajTweCMBjVYpEQSI8shORAIQYFQAKp//lff+fjyeAE4A3PD0YAJRRcKYJ11kf+o+Wee/OH65UEc3eXGK3OiM0IosgWSAkkhUs139F3/wNdd0LhUcDRgGFkOEEgkUSS5WnX/O/reX4UHc3njvIg4BDgajVZPrbmpuhyOrf3t6HuLhZuzJsoZmQrhyFEIMdGEOWgaXk5yihjHURTPE998uLTqdQtwuOSQO6MeD/zzoA+gpIFwFG+Ks6ygCgZdPg0DwTakITLA4W8kQYhTTlru9JCinbIjIlImVnC7fAz86Fo4PDYGm3huW4pv+8jBx3lJXvCo1WpPgAYoBDVMujuMBMNNxGCFsXQt9E0v/RihxCmP2hOKUKyLwdPI6uImkP3DNXKrVF7YCIElxavL1HJSTUtOig1qCmll82rfP0W+fUiKVKPrwwmeOKkW3UxBE/TCI3D4+eB3hw+xi5Rf8P0nNCfSC2r1P9XWyW7TQBwG8CAIZVGpkCiHUs7cMe4wzBLGNXFJ4rgboabNunQvhYfgKXiEohwi9QBqr1TFF6JKOZRL0pLUEFEphAdgxkkGVEVI6Y2fosjf4bP/sjwe/+qfj7trKyc8nNw/D+8pGFFrPCwuPjiH9jocVZVkMlmrKf3rrOR7dkJR9vcTiZ/96m4FI69SPKVSar/kbnZn1FZV2x572MPYP/ikm6svuCdd3zqq0tdeqnKCi621eqVykM0uLWUysdjc3NZWOh0OhyORyHNhVnj8lxlhfV32X1a2d3cXAoFAKBSamhofLxQKjYZpRs3c5ua08KiX2RnZr3t9YXJSnCAYDDaiUXNvNZ9vNstl7zch/PhQFrHpxfxEd/6jY94/W4+GvxtxajhGXNMMQ9MA0xnRtHgnQqZjIvvbbxZCcvpgwxt/z3EsCAykU8uCCEGImAsswmAnEoag199Yqx9/+lIqlQ4P33LFYnFnJ5czPzqOYQHITjEEkCKMCYKA6qcu+BOJ+B5cab07OshmYt17n/bu/fTyewcQps/P8wKgBFGX6TqPiEdEKMU8YsbfZ9WVjVbr9WfhmfC0bZlfH4jrQF6ABLsUUoIxEpG6mEDI/xHiE1wfHh4auiRdaLs9ODjg9w+0+a8KZ6N36Pv//Qb+uRMUuAviFgAAAABJRU5ErkJggg=='
p13
sS'twit'
p14
S'data:image/png;base64,iVBORw0KGgoAAAANSUhEUgAAAEgAAABICAYAAABV7bNHAAAER0lEQVR42u2YS08TURSA5yfwDySauDKGhW50w4rEhUmXGiJWjUhcEDTGRyAICaISAxo0UQmWaHwhUMqzpUA19QEqVkQREKmAQVc2cePyeM+kJ9ah3JmhPRQ69yTfXULO1/OYezUVKlSoUKFChQoVKlSoUKFChQoVKrIlHj5uy4/jFlTF8QpCCcQEsBL4RzYyOXEBZfHkKWmwQ7YIyhW4SITsl896Qfv2F6KMvHhleElGJsiYAIFLUCUICSICIA4UudkSftTaDm0dPp2unj4gevsHoD8QXIYmjrUApeQJGkiGjPqrjWmR0NnVC929/Xqi/oFBGBx+ahtNHJygGDdJsUJ5RaUtGa1tXujo7MIq0EUEh0KYWNrgFhMVgFVOnzlnKuRJe6deGT19AQgEhzEJVjjE5JOYVOVQu3h9PRIhvKRTTI7AKwC71NReNrYNVgm2DLMAc9JZNTEbUmhb0UCmSjEO040vKL6qwS7HSo5Ds+cubhtsnwxKkJNqS3lsiqFNta6q5Vn4BbwaeQ3v3n+A8YmPMDk1DbNf53Q0cdiF5ETsijl85Cg0NXtw2GZMxOibMV3C9MwszEXnYenHTymaOOywajm1l+pEK/nXTEboWZhk6JWw+H0JE7YNu5zSspPQ7vWtiRRsk4+fPlNlpAU2OUeLS6D5Tgt7lbwdi2C7UIWkxJf5JQhGojrX/JM6mjgsEb9UghlFBw9B3ZV6TjHYOihl1SLGvyyCb3RWF1D2IALFLW9h96VwUjRxmGJ1W6GYPv8A14DF9sFKsV0VJANFFNS/wMQtY0WO20xM5flq6PR1c80V29WCQmq7JqDw9mtMMiXM5ORJZgxWDKcY3D6WW+ZBeAbbxZggmyAayjGjlJoLF1mH7/OXIyTGrHVQimR+8AsKnTh5ioRgpXBvJJwxpmJww5S3jUuS4heEV4kGBgmyrWQ2fLFaaKasKcnkuI0JLE0NAPzs+4/f3/ww/X6QtWpIjOv6CKMEOUY5ecYkFiZJTlJSGsLzC4uyTURiMkqinBxBVADE2OiwTA7KW833DA5h2UaSDN7MCvIak/k1F1gm5c9ivy7meThkVww+I0jbqWloij7k1g0kx5UsqbmJIIKzBqsJpbBcC3Bly79hMi8oynCrps3EWDX8oJyqFIXQa5zVWzV9zzAMYR5BMZPkCXqAokco2RaSbSeGIcyHZkiAA5wx2EqJFaMEoRTJBdJRgozvLsYrgaME0ZMktgw9QlHrZCUaJiiBVrBj0fBQyAU1OF2CmSDE43QRUkHI5uJbZYKYABT/QDGJ5Ao8TpciE5QoqkEQVYJQiIQ9Fffy47IiSpAcnFVVThzSVskVgBK0MiElaGVcjv8OkpAjiHL88+17j8GWTbnrGk0cMtgG887S28zJ8QtiG8y7qgOwdduOrBAUcmprEVrjjZuQjLPX7oODW0suqP56ExTUDTupteSCFCuiBJnxF3NK1pKi7QGwAAAAAElFTkSuQmCC'
p15
sS'gmail'
p16
S'data:image/png;base64,R0lGODlhDwAPAKIHAP///4iIiN3d3QAAAABmzERERAAzzP///yH5BAEAAAcALAAAAAAPAA8AAAM1eLrc/nCFSaERIOdniNeA030AUUoTqB4TppYeEbivOgt4rufHMFDA4MJXKBqPDZ9yOYg4nwkAOw=='
p17
sS'related_to'
p18
(lp19
V\U0001f686 Train
p20
aV\U0001f685 High-Speed Train With Bullet Nose
p21
aV\U0001f688 Light Rail
p22
aV\U0001f687 Metro
p23
aV\U0001f69d Monorail
p24
asS'name'
p25
Vhigh-speed train
p26
sS'known_as'
p27
(lp28
sS'default'
p29
Vemoji
p30
sS'bw'
p31
S'data:image/png;base64,iVBORw0KGgoAAAANSUhEUgAAAJAAAACQCAYAAADnRuK4AAAJ70lEQVR42u2dIbRNTRiGbxAEQRAEQRAEQRAE4QZBEARBEARBEARBsJYgCIIgCIIgCIIgCIIgCIIgCIIgCIIgCML8/7OXuWvWvjN7z77nnnP2Pvt515q1/v/ce/Zx7jzn+97vm9lztoJSC2jLP4ESICVASoCUACklQEqAlAApAVJKgJQAKQFSAqSUACkBUgKkBEgpAVICpARICZASIKUESAmQEiAlQEoJkBIgJUBKgJQSICVASoCUACklQEqAlACp/dCvX7/Cu3fvwvPnz8O9e/fC9evXw4ULF8Lp06fDsWPHwokTJwRIhfDjx4/w+vXr8ODBg3Dz5s1w7ty5cOjQobC1tdU5jh8/LkBz1O/fvxtgIiwHDhzohUWATEfhyZMnTQo6ePBgFSBHjx4N29vb4caNG00K4/lv374Nnz9/DmfOnBGgOUQa/MvFixcHR5krV66Ev3//Fq999uxZAdpUESFu3boVjhw5UgQEj0P6IrK8ePGiMcvpz69du1a8/s+fP5soJkAbpo8fP4ZLly4Vow0TDhgAQ3RK9e3btyqAeI1Tp07pgTYRnBw0hw8fbmAgwnSlpBJAgMb1Hz16tMtwC9DE9f3796K/oVfz+PHjXZGmpK9fv+5KcX2+SYAmXFHhcXK9GoB6//59Z7TBwxBVMNh3795tDHFtZSZAExepiC5wDhzMcw4WQIk9H0rzvfR8BGjiAgRK63ZawdC+efNm5/c+ffoUnj592vRumOD9gkWAJiy6xm0YAOn27dsNPJTiNPz2koaGDNoCAHv58uXmtWksCtCI9efPnyb15Mws1VXNetWQQWrED129ejXcv39/pz/05cuX5t+ySgnQAqnq2bNnTboCkmVGEEpzIhgVWJfpXocEaIBYDWclfJGFzTS1EUnOnz+/A8mHDx+akn9skAjQAqJxh3chZSwCDXtySDn0fCjfa/s+AjTRxt/Dhw/DyZMn91z1kH7wJ6yK7xUW/Az/FnpBXIcyn0gF0Hgu0icRDGNOyuN1Ge2UahW2QmiGRhoqKiaQScWn4I1qRarC+L569ap57Tt37jRQAAPpbb+qNQEaGTRMMJMNMLXRBbAo8+koE524xrLLeQFaglheoIE3ZO8NE02qIH0AXY1vAi4gY2PYIl1lKjL8E5CzEMviKXueAZGoh6eiGoyDaEZJnw7MuQAtKP6I/PFrP/VMGj6DqNHVW+FneBQmksgyxDfhVdgxSNritbgGr4fJpuLTRK9ZeAw+lXx6a0M9n2qWGUoiZcWuMuV8H5BEECAhapAuAQTfAyBTKtdnBRCTQ2+lZo0Js8qKOdDkJpTHiDCkI9JYFzBELVIjoFA1TSWKCNA/ke9rNqPzc9IGv59LT/gcfBK/U1qGIP0Q2YhEL1++HFR9CdDIhGeglK6pnugkY6TbIgIBA1GmtKYVowsRaRPSz+wBwk/0+RsiCB1gTHR70vEiNPtyxheIiGYCs4EA4S8wpn2GmLK7HW0osXmcraTt5wASZndIf0eAJiTSDKVyV/+GVIYnSb0NZpY9MblFUB7DIHdVXmriALGNoa/xR4+HVJOK/8cIp6aaa9CQo+dCNFIbDBDph+hQAofHacDhZdLn5HwNkYbKaq7V0uwAogFYWgIgogAOkSmNUu07IHg+fmcO/RgB+ifuWCBadEWcdD0Kw4svimmK36Hq4vFVb+8UoDWKye5KV3iZGHEoqdkbE2/djVUXqUtfM0OAiBYsA+TAoRcTzTGQUU3FJYpoiKm6avo0pDJaAKRHNqLXrKyrEQMU72YorVHRKIwRBwMcwSFdcT9Vap5L1+ca9HaIVvR+8ERcK+4BAj41QYDwOqUOMGaYaiqCE6MTK9sskvaZ4uiLUhOOL0o9EdfvOx5FjRQgejC5RUpAiemKyBC7zUQj1rC6SnC8Dx6otAIPiKm4Fo9zXTURgIgopJNSI5DlAzxKXBgFHNaiuqopVtR5bt/uQiq7aLBZFwNWUlpuYVWNECAMa27hk4nH0DK5pJ3YvyEydIHD1s1Sud+1jQNwAJTru941EYD4xOeagkwmWzHYRkFKY/SBQ2ojcrC9AmMMDJT4RCHaAEQsqix8ENem9J9alCFS84HjQ5UO3gvvqb3nmfdKWyPdG52OZRYKSweIlJTb4EX04M3hWQAHc9xXVvNzzPe6Ige+KU4mXi1OINEwThb+jg8Em96pFAGbdTxAZwB/vH+r62xE78r4X3wqSqdysXGL/yZtraL5R+UGfEx4vEmPCY/3Y+HN0smOE72qW28EKFNpdS2C4oeYzKERgN4PYZywnH7aUwDi2ciY8EXvYd+EMTmASpEn9nLoJsfOccz3+KQUCsJ/CsMqQcBfxTRDr4p0G1MQnXF6SsAaB30r/s2M6MHag4Zm27sw2IfU9jqlMcaDF5YCUGlZgnRAymISMMB79QBEFiaX14mTS0qME5veeMegB5SbSKJZnBwrshEBhNcowRFvpksnHA8Sj+iPVQMTjFF1gmdaxlNypqvl6R4d+j5KgHpFP4fyPOdfSGO500qVAO0Sqah0+w1GmbLa22YEqFeY2dzZybE3hP9xbUqAetMahrl0MCWPU0UN7RGpmQAURaTpAik9LUOvJECdILGPJ1extVMc5b57ngWoKJp8Xd+jlR6SQPd36JmEasMBiqKHVDr0IDf4PbZ0xAOcNOIzBygVa2RDv5AEX0X/SQnQrsjEXRUsgZTaAekYk9hOwr4h1ujShdhVjGV+mCZ5vAtpqu8kMnzSWKDvO1HE7RwrUs0+aCYq3UC/LtFZx8e1IV9kg9peIZw9QJhiQnHXH5bqbSz3w9O3ah9gxbZddhuQyvYKEUAK0EARSUr7i+KBUukpHesWELe3smDq02Zo6Zub+86tJqrVnAWZO1dglgDR4+mCp+8OjlWb5NzOA8x+G3Aqy6HpKN5ZAYhDnsvrL/N4m1EDFDfel0r1uM103aP0bcpsnCtFRyrJWghYG0zVtWW4/Tda9tF9owUIvzDVTew197fxs3gjZdeg457b6kI7owsiIvcq1hCXAlBu8/iQwf6g/f4ayVWM+KUs8TtMa0bpfn5SDwvJXc9le0y7W8+OT048wYtN9stW5n4bjbf1CJAACZBDgBzzBGgs5bVje+f0EtfC1Ci1FIBK93bXdI3peZTuC68Rd7Dmnl/bjU2PcElH7Sa13Lk+i7732oXh0ntf5mm0K/VANXda8IYXyePcGlRaM6tRadGWnkyNShvfFnnvtXubSu99Y0y0AAmQAAmQAAnQRMv4mpVhzO4ipShrQLnnsyhZIxZBc89ncmrEv3O/33st/KX3bhmv5lXGKwFSSoCUACkBUgKklAApAVICpARIKQFSAqQESAmQEiClBEgJkBIgJUBKCZASICVASoCUEiAlQEqAlAApJUBqH/Ufj2tA1MjXADwAAAAASUVORK5CYII='
p32
sS'version'
p33
VV6.0\u02b2
p34
sS'uni'
p35
V\U0001f684
p36
sS'desc'
p37
V\U0001f684 A high speed train, designed to cover long distances at high speed. 
p38
sS'browser'
p39
V\U0001f684
p40
sS'annotations'
p41
(lp42
Vplace
p43
aVrailway
p44
aVshinkansen
p45
aVspeed
p46
aVtrain
p47
aVtravel
p48
aVvehicle
p49
asS'wind'
p50
S'data:image/png;base64,iVBORw0KGgoAAAANSUhEUgAAAEgAAABICAYAAABV7bNHAAAAAXNSR0IArs4c6QAAAARnQU1BAACxjwv8YQUAAAK8SURBVHhe7Zk9bBNBEIV3TRekKBZUIKWIBLEVkEhFfgSiIUIUpkgDBUVIDS0UdmWDoIACamihQ7JogD42FTQIB2rokIOE6HLLG3sknMj4fPbt2T6/T1rd7PjsOz/PzM6eDSGEEEIIIYQQQgghhBBCCCFTgNXjWJCvN7edM8edNefUJTc475yd0Wns7K7OLavZlZEK1BLE2HWIsmw7REmSxspcTw0SFyhf+3U1sMFNa+xFTE+0vaNjbATKf/i55NyRBzALbY8xiJxPanbHuqMQ8pTODhD63j4ZixTL1fdeGGc2cbVZTH9gvLV2//GX88c+t07owWJt72OX9Kvil7+mtlcyevSC1Bj5gjC32h73DF/sJMatfsT5H864P2p6x5tAEjVYfZ7or1+1mf21xkr2TvvVySF2gaTWLNab72BuIaV+o1jck3QYJmJGSawCiTiBy7xGYb2MRNhBndlorGYf6csTSWwCdYgjqw6KaHZ9UqOmk1hWsYPiSCGOr9agln3H4VC/5HZQqas6GYqwCB9aIF/i5GrNu8Za+SyvzaT3RvFfnxKPOLl68ylWvwtJbT28CoTV6iUi5zr6kve7K9kNdUdG92QFpM0l3JE0k4nhTSBNgYcQ5xvEOa3uvpD9mLPBFYePgcBLcI1sT+ZNIETP11bdkT7nUKFrCWCCszqdddYs4NwZ7J/mccGFpKOkF14EkjqBt97W6UQTJtCAfZDdVCP1RBYItec+DiN/jpMU0SPIYqVBo4bi/EpGq2lLMdEFcvaMdLFYuW7IiKujHVciCST9yjitQEkQSSD5x0HNqSF6ik0ZgwlkTUG2GTLEVm8qGTCC7JrswWSIrc5UwhQLIZJANhO8kc2pTgkhZFhCH3eUy+XnaqaSUqm0rWZXQgWqVCpOzVRSLBZ9PA+aHigQIYQQQgghhBAyWRjzFzgA6Q/jrN8zAAAAAElFTkSuQmCC'
p51
sS'andr'
p52
S'data:image/png;base64,iVBORw0KGgoAAAANSUhEUgAAAEgAAABECAMAAAAV8YMOAAAABGdBTUEAALGPC/xhBQAAAAFzUkdCAK7OHOkAAAMAUExURUxpcXijrXejrXijrXijrXijrXijrXijrXijrXijrXijrXijrXijrXijrXijrXijrXijrXijrXijrXijrXijrXijrXijrXijrXijrXijrXijrXijrXijrXijrXijrXijrXijrXijrXijrXijrXijrXijrXijrXijrXijrXijrXijrXijrXijrXijrXijrXijrXijrXijrXijrXijrXijrXijrXijrXijrXijrXijrXijrXijrXijrXijrXijrXijrXijrf///0DA53ijrXeirD6/5zy/53airP7///zCGz/A5/z9/nejrX+osUHA5/7+/gBqoXqkrneirfv8/YCpsgBsorfo99jl6EnE6HymsGzP7Y+zu+vx83jS7vf6+vP3+PT8/k3F6fL7/TeLtvzBF5q6wvf8/svu+d/p7Mna3q3HzYastYyxun/V79jy+hF1qPb8/nXS7rTM0vzBGZe4wIfX8LzS14SrtN/0+9zn6qrFzOjw8UPB6JK1vcPW25je8tLw+bDJz2bN7Pn7/EfD6KrO4Pn9/v/99q3k9dTi5fD19rbO09Ph5KjEyvzFI+3z9P3+/4Kqs7Hm9Yiut+Dt85S2vnLR7aLh9M7d4dHg4//++v3ac+P2+//88/3OR2PM7P/45PzGJ7rR1v7z0sPs9/7st+Ps7lrJ6s7u+P/78KPBx4qwuHvU7mKkxvb5+VbI6rDS4rrp96G/xtzr8qbi9OPv9cvc4ITX8HKuzOf2+wZvpIvT6myqyZXc8tXy+sbY3U/F6VDF6f/56f7tu7jO1P3giP7yzP3ege35/ZHb8V3K6/zJNP712/3UXv7jlf3UW6C+xYWtt7/T2CiDsZ/g9Nrz+nmjrYvZ8Nvr8S+Hs4W40pzf8wBooHDQ7Rx8rFCawNvz+/7prv701e75/f3WZ/zIMf7oqP/+/P7vwrbn9o+/1uTs7j+Qub7q99nw9v7moO36/eDp7Njq8qzP2HOjsmuyz6DI3EyjyZ3T50Ocw8HU2XbC3sng65PE25jX7N3q7eBqXdIAAABBdFJOUwDQ/k/hMzsBHvzKCNpEAsZqQdfygNVKPwWODO+lcTZ6+bcUWijd5bAKvOyXEJsw03VYIxf3buqEp1WGXypjwUamTbGWwAAABbZJREFUWMPt2GdUE0kAB/CAtEQIKEVAQJEm2BV7uZvsbJY0QmIUYpAiIBBApEhHSgRRigFU9OxYzgr23svZ66ln9/qd13u/e7ebgGY3m4J+unf+v+Qlb/f3/pnMzs6GwXid1/k/xta9OxF39isp/a39RnsFs1is4DEeTg52L4vZjfQNhBgGNcGgs6vX+OEvYY3wtrDEJGlLtlbU1tZm1yeliyDG7Olh071rDLtXMBOT7U79MkasBgCEiVWLIvOSGiEc9aZDVyj2MCso3xqpAqTEFGZvQ2DIIB+2+U4gbE6NAXoRF99SINDKxc5MyC0QKgrVgDbRZ5shk+XX3xxnggVM/x4YinhTkQg6e1nbmnQ8vSxldcBIVHW5Emjv3c/UXJ4YKmkVAKNZ2JqG9fXt4W4UGm4Bk2KBiYhTtsrhqNHGBp3twmyMVG+4uFL3PPXxYxcLKHMhNR1aOnYzXGpCgFSpaorn7NI5acbedpSbMbNTjdO+FuODHuJhZ7hQ2qav41E0a9ZHcdpcSN5ewueg7R2VZrZkld3RDvoyhdDS0Y2+lJ0FVBasQTmc8FOVWdOJZK2J4nM4HH5UshbaHMVFK3FUHYaXUhosNbGvLPI2hwgf7Qxf8/ZkuRZ6hr9BH4bFtTxcqSklZTr60MyhIOzGN5dQjn7QS4c6oHAOhztHXR7PLZuxN3n2YqVIGKw/pXxCJCdaOHRBt1frQmHJUdzHd6Km7729+Ud5aDc9yAVuuzeNrhAnvAZQoWmz5lVmPD5wRIEN1ZuMQzBleTyfrtDbBQagjCOlWB+K4+4BGwunltAV4pepaaED24/8/BNChcaGwApBTThdoTXPZ/oLaOn78Rm//Zpw9CakQDb2WGk0aKJpxI/fAEjQe2F32ktaDv35+5OEqv350pFkxwKmRQJAM0b8qJoXy9yGEj5a0gTCdv3z99PMzKP3lqVB+8FkRyrbL8YvgbJ5XBLFR9ubql9ceBemz2svi4v560HC4Yj7VbF/yKBVNzbZEc3VLEOzp2adDOdzO4KGnzpwnLTsflde8MMvT59MeZR5dE9bhQR3dBdLawvY4eCJm/XsWMbjaUSWzqk5Xk1aPwSLq3a8ezgiYkpClSp6910h2fGfpON0XOUziFRTl7Q9WiUi8+A+kLJEiJCdEUFS2VwBMCdVuDIFr7NzsnhZM6Q47qOZkrzJZjngAeFkHlwMVLcaqQ7DYZSwPgZsWTvftCPYgUMJO1UgtkIuRVzdSE7/IJheDNZfvXx+lUlI9dUjog4ovoEgiGsv8ozuFSKZG7blemLOundMQvvuE3XUhaVQ37EdB9MXgY0NPB7vc8ppn72l96N9gdcR7G8mnB7UfdkkWCQG13CH0mj+xhUff0ChBPjcj8mT4U5PqsPwD0BSAfiWx0u8uoXknFuXmPjJev3bbJFESucwHJxlKQBcWd2wmlzo04YcvOUZqrMpCR9mOofhB7cV4wdcObOWdMKq64k8Xs7lDyn36gUKaMBheGOldPf606uJQufJY6Q6kU84rnQOow89NH9FTmLDitOkz2KzRYRDdyMzDIG1185tJM/Q4t0SIe6wrOlv9+NherQ5V5mgTjM8Bh38V5PXmeEszJZpHFcfgzv8ITDXZCV8u4cQXwuxdzC8tfJAYG6h2Oi3SqkXYYgJB19mrRCY37rIcJsUZT7U1EFYPYzuz4f2RaR3FbUpbXS7xYXL6zsZxHew8Y3swEFMBIGILOlsXXSbzkopaIteXqGQdzKhg0zu+EcMCCWOxKA8Lbeo9cTySDwLUvOUSTflGEQ6Yu/kaXqz7zkyQHu0FH9Ck8hFRCT4s5q0U0Gcx5ix1ydWN+sBgc9PQoREEJ309h3rae4jkftgF8feCF1Chwx4Y2CXHvf62Xh7OdqHMJ8TzN4BrCAXNztbRpfDHuhv4+bn5DR0nLeT0zA3G/9+r/Z8jQ/af/6fhn8B5lUiaYdQQ40AAAAASUVORK5CYII='
p53
sb.