ccopy_reg
_reconstructor
p0
(cemoji
Emoji
p1
c__builtin__
object
p2
Ntp3
Rp4
(dp5
S'emojipedia_url'
p6
Vhttp://emojipedia.org/bus/
p7
sS'index'
p8
V466
p9
sS'code'
p10
VU+1F68C
p11
sS'apple'
p12
S'data:image/png;base64,iVBORw0KGgoAAAANSUhEUgAAAEAAAABACAMAAACdt4HsAAAC9FBMVEUAAAASCAEAAAAAAAAAAAAAAAAAAAAAAAAAAAAjDAAAAAAAAABoVUMAAAAAAAAAAABgKwxcJwoAAAAAAAAAAAAlDQEAAABvHAt3QhoAAAB9WhEAAAAlDQAAAAAFAQBOHAcAAABfTDWMZhFmBgAAAAA+LB8AAAAhCgA3FQM9GQNzWECNYRCEa1RcRjRDLyBvXEnogDPv48TpgTT88tDogDT57c347MzrmDDreTbqxyDifDLnfzPqvxfmfjPrxz7r49TlfjMAAAHjfTPgezHjfTLx5cXUdC1LrND/9dBnMxC6Zif25sPX177/9tBNsNZOs9lMrtNPttwoh67lejH/8csvLzD05sUykbb/9c0FBghQhJQVFRX/9M48PDxQuN4QDw//78ozMzNTj6IqKilJp8onhavCair97s337MxHo8XR0br/8c0kgKbidzAyjbE4ODj67Mrs4cNQipsgISJCQUEbGxvWy67U07vpiznqkTv06McXIy1HR0fv5cTvwhj4zj84mcD06srxqEb1sksLCwskKzDGbCo+osjV1b3Zdy+ou7A5n8Z7oqbkdi/nhjb6xFTkgTT7780mJSX/8M41hKH3t05FqM74izUKGCPxo0PtgzWmWiE7b4GktqwHX4bRxqoTcZkoi7NAfJ0deqD/+dHKbyoskLm+Zyf5vlLw48JtNhL3pUTu48P7kjlNgZC4khgzlbxBd4lrlJnZz7I0f5wcZ4bvoEJiLw7tmkD/7cdKMiLdgzT7x1XyhzQ9LCH9nT1UhJUJZY7c2sAjep49eY54nqLwgTLrlz60AABOTk62ZCiGRRX75StDo8pFrNMyfZlMd4RQJAr3rEieWikwFQLs5MYqHxivuaqcrqXk38OJoJrMvqPLy7UybpL479vh0rfwyUCsXTObYQv10CW2ahnOfxHWtBTCo4DZiF9Xm6lniI6OfGXxfDnBYSatfxDnsB/vzUHltjmsb15pAAC+ZUa+BADOeFL/4rXfmm+YAACWhW6KdFyJjVfSAAAAMHRSTlMAHQ4GIDREAQNhQDvtTSgV7OwuRyRXCOz93+zQYHLD8JHv7OyukaZ6+NLy7Pu4ZuxFhkkCAAAF7UlEQVR4XuzLqw0AQAjA0FvmDOGz/2pgQDEAuk2e7CMA60sd0zCfP5vTsXdNHI7DuH9A98JtHW65pUiJ/0GIcNf8khBMCCGEYEguBokOCkIhTpHoIilOavUUoRA8tTq4aW3hlr4spe+Um3q9W+91u69Jy8GNfpY8eZ4fH74H0RXJPNx+ex3ZuC1urYy+txFZyxWr2IpU9YPNyGauiMVWBCuCAC6Ib8eXwCemY2H0dN0LE6bHwj2l69Wwqup6KnwfCqzD/LuA/KFnYaUSJONC0y4MCKUSZnnBblx7WhEqSEXNuzaC91huKUgdtRgVYFpHcbYw6TCM2mx0u42myjCdSYGNw84w81FXNJomw5hNQ+yO5lC1jthAICtlGgF0WeG1xG6NphHjbm+7DKLp2m5C42Gn6V6lmyqZJE2TZinVrfSgKisvAkeiAclRWBCcShLdduNxt01L0ikIWNglaVDhvbyKJAmpeY+vDKByFDm3FlnbmyplRAIIjBZcgBDJuKLoMiRCcIHFwo5Qr8LLeZNCiDLzMl/pQVVWxIPNQGCTFEDaWRCMT0iSUl2ed1WKJE/GIMjaoA8FBEkSoQAqW/n1+GYpyNoUAVBLAT524MdsiGLDhMoZ4yCAnWof86yxqFFUbWGw/HEbKvvp95/1QDAgkgAxyMrW/plD/BMQztm+JcNOECCQjUWSIJILQwYBVPbTl0+hgEsGcAIIJirHcfMrUbyaQ1AnIBh2ILVGonzXTHNcunkni6MWVJ3ss0BIvw9IC9OCf94XBKF+KcuXdQj9c78w/TqcCbP6DWsZdRj7dcNib+ozQRiOfv4n6E/38cRbIIFHoy/JhxCkHR+HAOD+TlAVtr7/WI9sPGrDTjqgM5xGM3hANJOJhikD6aXyw8p/rorYZ7jg1ceH7P2HgPvZ39ro5bWNI44D+Mi21MamsuVIqVRZdmhDHuRihKHtqmp3doXBvoo5LMuyLAu6LXvYXdhFogU9DDpEEgKh19lISAjfYuH4cbOx3YuTkGNwkzSnpM9/oKOR5aRIhlrQz0XD8J3v/mb08odrefnX30vgi7db5z8NnH9/LX/8+eZz8OXPW29/HPjuun79qlew9frbMV0UvPl6bJsu8PD1b+/ffTOm6OYcePj7q2wtOCYaF3hf1WvBlfEE6Y05sHSarS2Pi8EFc7HCcogIR7Fw6ErDqX7BBhUKY9FH0ZxpruCf8FVISlkxzVy4nwpR/YIwTUeVXLKZ3803U11aoa/0iOqW8vl8s5Q0FYamw6QgxjKMQiV3d0tP2+1qMpWyFOYKitXcbaaetqvVVOkxQzEMGyMFdJRK5VPtg/JysFw2j5IWGxlJ6eZL7YNObnmvs2dVcQN9URBRqqnqQda7X5R3nh3u5Y5yCjWCYpaSB+VnO3Jx35stFywrEukVuGKsYiW7nV+0eCaTiVd22MOCyVDDWCb5uFPYqZCYVi8zZo5iYy7gWs+yR1bnpJJBqiBIKL5/GCoU2BHMrlXbjyNJEFSUqZzsUQU2u+4CS/WN1SdP2BdxNYF4Q9BRxRtcza4Ow6mat4J0weBRQoq/yOLQRn0JPGjVG7HNU05KGJzBp1VdExuN9REasVhDjOsqxxtpLSFxp5vrJ/XWA2C7f7a95n3OCSonJ3SNTxThdmttlFZrGxYTIi8kUFoVuOfete2z+zYAgOfGgmcRCnJaPT5Gol6E9zwLN4bh1D1Y1PFnjnUeCXARpzxgIACRxMmqqom6AQH4pOfTj5EdAA09bUgCEiUEA+BjdsgLPCeKnCxxvomJidnZWZvNNnUBL/EG3vZxkgxFPo3D0A4GSLkfaqqRFmVJhAG3c95un5mZnnY4bmIOx/T0zIzdPu90BqAoyWLaUDXoJyP1kGEn3RDyMkIaBxf7p/HZzy7hFlyCOxYhpyEk8xC6J8m9SAFpcPogcXcKDzCYgLicYN7pnroLCZ+zdx67uARp8dzx+W/bPzyA2+12Enjx4Rnst/2+O57+4WGD15/Ebv3LJHb5Z/wX5HKXemvwP/kHOwm59ACdJm8AAAAASUVORK5CYII='
p13
sS'twit'
p14
S'data:image/png;base64,iVBORw0KGgoAAAANSUhEUgAAAEgAAABICAMAAABiM0N1AAAAtFBMVEUAAAC8vsAAAAAAAAAAAACAgoUAAAC8vsCAgoXM1t2AgoUAAADM1t3M1t28vsDM1t3M1t2AgoXM1t3M1t3M1t28vsDM1t2AgoUpLzPM1t3M1t3M1t3M1t3M1t1Xg6UpLzOZqrVYWVuGlZ4MDAwwNTn0kAy1t7mmqKpVrO6PkZSlpqg/bpGipKY2PEAvNDhJTE9ydXh2d3iAgoWTlZf/rDMAAAAjJCSEhomTlZgvMDC8vsDM1t396hG6AAAAHnRSTlMAAM8gYAC/7+8AMO8Qz5+/QJ+f768gMCC/IIBg34+36Ea4AAABi0lEQVR42u2TyXaCQBBFy4FBxTEOmSUog3NQMQH+/79Coa2BUJxDmoWLvquG987tpgAQCAQCgaAMnnrPg247LEj7bdxAoBGjvQxew//S7THReBDyMdRQpA1DbtoaNMYPYQl0gXl4gcdpxHb3wQtMz+zKEm1LESHcIsdxVkz07hTkPSlymMgpjBAJUcTxeKcivl8kLeLkPkWrUkTTC99cmCYTbcoSfZYj2qCHU2Sa+zMH2woiLPuwp6G7TLSIEoa1IA1kl4nWQYI15aC6TGQHKWxCQnfhtofrexG+S5+J6jLRAq+WJ+/CaYnXxJzILooszGbelRmmVqaH7oK6P6AU97hywjtZXwHdVaEfT8/Fe3ND1405rlxi3nS3DxMVT+tjpsdg6lPPRnXVCUhNJVqh2jiHBq6DiCxRkN1VmhJI0qijxKF+gYm+KFG6q3RGlQpUYtIh5JDbTR8XaPK7cnKAMtDkd+vJV1qHJAW6Ve8XVUhRoFtr3bJWDWjoLkur1z3+ZAW7dRkjmZxPfvcHGJQpWRpdtZkAAAAASUVORK5CYII='
p15
sS'gmail'
p16
S'data:image/png;base64,R0lGODlhDwALALMPAPX29PKhbBIDAPFdAmBcSqex0Fqb0B9cr2stCpiehEJBO0J2lx07njZFXlFouwAAACH5BAEAAA8ALAAAAAAPAAsAAARS8KlJK32k6M23WgajGU5hnCjRLMx5HMXBOKyjNLIBaHvRAzdHCUAsGhWEgHLJXCKST8RgOo0OBFICICGtJgAEBEIgUCQI5DQhoSA/3oK3HC6PAAA7'
p17
sS'related_to'
p18
(lp19
V\U0001f68e Trolleybus
p20
aV\U0001f68d Oncoming Bus
p21
aV\U0001f697 Automobile
p22
aV\U0001f695 Taxi
p23
asS'name'
p24
Vbus
p25
sS'known_as'
p26
(lp27
V\U0001f68c School Bus Emoji
p28
asS'default'
p29
Vemoji
p30
sS'bw'
p31
S'data:image/png;base64,iVBORw0KGgoAAAANSUhEUgAAAJAAAACQCAYAAADnRuK4AAAGM0lEQVR42u2dLzQsYRiHJwiCIAiCIAiCIAiCIAiCIAiCIAiCIAiCcwRBEARBEARBEARBEARBEARBEARBEARBEObe394z93w7++/dmW927TfPc8577j3u3dnxzTPf/3knigFyEFEEgECAQIBAgEAACAQIBAgECASAQIBAgECAQAAIBAgECAQIBIBAgECAQIBAgEAACAQIBAgECASAQIBAgECAQAAIBAgECAQIBIBAgECAQIBAgEAACAQIBAgECJSdh4eH+PT0lAggzs/P47e3t84IdH9/H09OTsZRFBGBxcbGRvz9/V2cQI+Pj3F/fz+FHXDMz8/HPz8/xQi0uLhIIZcg1KR5F0htJLVPOWJlZcW/QEdHRxRuSWJ2dta/QBMTExQuAmUfslOwCJRZoNXVVQoWgbIJpCHd4OAgBYtA2QQ6Ozszfenh4WH2KfIGx3x9fc017aDPNzq2ZmDzMjo6WnNc/SwvOrd65+zj2Lu7u50VaHp62iTQx8cHAiFQNc/Pz3FfX1/LL1xYWMi3SIdAYQq0s7Njqn2urq4QCIFsBZQOdbAbrZ0gUIkFUq1iXcHNvc8EgcITyDr3o34SAiFQFe/v76aF00ZfhEAlF2h/f99U+2iBFYEQKNPC6cDAQPz5+YlACFQ792OpfdRH8gUCBSTQ1taWSaDr62sEQqBqtKHasnCqXyTv3A8CBSiQ9sJaap+9vb3YJwgUiEAzMzMdm/tBoMAEenl5ybVXBIFKLpDlwIrLy0sEQqBaxsfHTXM/PjvPCBSIQBqSW2qf9fX1uAgQqMcF4olTIrNAWo5g0zyRWaCDgwMKjcguEM98EQhEIBCBQAQCEQQCEQhEIBCBQAQCIRCBQAQCEQhEIFCBAmm3ohJUX1xcVDbdf319/d8uov3W2iSlf9f/4yJVx8jISLy2tlbJiKKySspOWd9UlnqEXK8gCFKgsbGx+OTkxJziToWjAhkeHuZO/3uhJI11m7B2WCrpV9FvDOiYQMoNlPX5eH1ueXm5lOJIgOPj48z7y1UrTU1N9a5AKgA1VfXuENUuS0tLlU362sOrP/UdasLqyaaHFMskj8rk6empphz0M23u0/bipOyU5EJNmzLlJs1aguQrqv9auEDpR3v0Ihb1b1ol5NTW2c3NzZp3Um1vb5dCHjXb6QcFJI6SlLYqO31WN1u61lK595RA2tXvcnt7W+kEtttv0ovrXFSIoQuUTkih3NrtDip0cd3+pm5G3y8ALEwgnahbe9zc3GTu0Kk2cqtyFUrIm/vTuSStSbwaXQdXIms65q4LpNrGrXrzDslVc7n9Io3mQpQnnYxLXYC8F1wX2W3OrCmZvQukO8NyUHXo3BO2ZrBvFcpH5HYMh4aGgq599Dta0idbQiM5twb3NbxvSyDri+Q0Qmj3SVbriE5JPRPUyQ5NIL0uK8GaPtnalLk3ta8HRNsSSBfP0hS5/RXf8zfui1o0PRDayMu9yL4HC3d3d96f8Wv70WbNMzRrk9WstHomPE+479qwppnpldCcmNt8+R4ouMm+NKjpikBJp1hzCvV+QfV/3LbWZ48/ffxmyRZ6vf+j16b7Pr578zVLJlG4QOmJQbXVqhIllWZDfZ9ks6wTIQnkzptpFFvkpJ+va+Ne70wCtZILgeyhWfYE9VeKFMhX898oA68XgYTvdly5Gd1OfUgCacDhLiD7bv7dJtJHDdeo9vEqkO+VYA3di7xLuxlaGC2y7NxFbY1m82zL0ex4sx0C3gTKc6L1Qp1Ld21HbXlIUdTuA7UE7gy3/p7l/Nx5uKaZ5HwJpBP1NWNcRNbX34zPGWO35u4Ekc+D+Vq3cmdpy4L1dRKtah8NaHpWIKGkm75moMuEmmlrUvdGyz+aNOw0UREHzSqRO7wtI+oGZFmQ1igu70uOf5VAyRqMdWuH1obqbYctIxrxqB9jHdrX24gXhEDJHaURhoap6QJRlavOsvZFp7ezwr+5L9XIWtJJl51uzLm5ucpN1+2yizr1RZJJ8zma2NIdgzTtjdKSstMA4zeVXcTlAQQCBAIEAgQCQCBAIEAgQCAABAIEAgQCBAJAIEAgQCBAIAAEAgQCBAIEAgQCQCBAIEAgQCAABAIEAgQCBAJAICiCP/balA945T+hAAAAAElFTkSuQmCC'
p32
sS'version'
p33
VV6.0\u02b2
p34
sS'uni'
p35
V\U0001f68c
p36
sS'desc'
p37
V\U0001f68c A bus used for public transport in cities and towns. Could also be used as a school bus. 
p38
sS'browser'
p39
V\U0001f68c
p40
sS'annotations'
p41
(lp42
Vbus
p43
aVplace
p44
aVtravel
p45
aVvehicle
p46
asS'wind'
p47
S'data:image/png;base64,iVBORw0KGgoAAAANSUhEUgAAAEgAAABICAYAAABV7bNHAAAAAXNSR0IArs4c6QAAAARnQU1BAACxjwv8YQUAAARmSURBVHhe7ZlPaBxVHMff760UetBmCQpWTBVpk/gHKhVMhGxpqx5SKJT2UMFLqeipoD203tqAoCKImIMgag8iFqFCW1GaEpZsoNkeSgsiSRAVtpqDUDf20IvtPr+/N79Z13Q2M5OZisv8PjD7+zMz+9783p/fmzdGURRFURRFURRFURRFURRFURRFURSFRKZieO7PcUduvzNuvbh6DnLm6sJo+V0xu5IqQMOXrj/hnP0Ytz0nrp4GDXxqcaT8kpiRpArQYL05RYZewD/fQA/6ln2wKxAbUdgFyOvsS4SjISKzlSspnjT0cz1SlymQo3FU/D6oSwsjfQ8F3owM15uHhurLjg/WxW0G55aveP9c85i4EoFgf8n3iZkKLmstZYbg3jP+/gTlW5GxtIx5niW32vxI+VPv7FHwDDdFjSVxgDAWBwJJv3pHQUgcIPTF+wPFLXpZEFL0INrspW194x0FIVGA2pMhstf8s/0/eL0gJOtBZHwqxDD72dsFIlGAwvkH65aGdxSIZD0IizrRUi/Kep1EAULPecArBctgTGyA+P0LYiPrRctgTOy7mM9gRO9wBlsY7dsg7jb8qsHvVFBPpulhjsyu4L3OvSmu5BAN4vcgjlRlhrTLBngXWzUG8QGqL38GcdA5c3VxtO/pwPsPHQHqSeIClGQO6uefImYwJjZA6Dn+HQwULoMxSYaY3xLotveCsez3gwKr98hjDordM+ll8piDCo0GKIa7EiDMVz/ysoCluO46vjwcvF4TVy7kFyDeyDfuFNHtJxdHylt4zcSSHO1mv1yVN0soeJLnEV8eDl7MknGvwH9RrslEPpM0gkPkjqy2V80b/c7R+yiRvyZkhrOqpdYbq+1PDdWbH+IRD4sZyX+SxbjFwuCM7Rx7zZLd508Y07At+1G1Wr3Mhg+SoU/8mQzw0OXeyfrYi2MP21v2dVTiKX/OufPuHvfV7NTsNbb56wmWIgdYjyKPAP0G0XWdw8Mn/Pi2fdf2KQj/jtNBs2Vah2enZ79go/1tLQNhg1R2VnYQ0Wm4ysGZANTpsiu5vWGQVnmG2O9isXMQCquJGol19nOWCM4JiKgHL1tjJ7ml2cD1H3jvGuHe0x7KZN7D77+Cw6ABttnb9riYXZ8h7tmY2ABx7+BKibmSpfnRDf4LK6552XuiKZtbZpwVf322TOOHq+89CIT3RHMobBT+Du89HfAzYQ57S8yuJMpiMt5P+jTaAezfReVWe0zUSDAvPSgqKpfD3rYz94rWFfqL7th9kOUHTwtbknyAiJ2DkoIh9gfEHd29g4mZ6RkehrlQ2VHZQ5bOiBkJEsQzYYJYK/mtg4z5WmQkqOw5UXOhVq2dhWgGViQXsgaHyS1ArVJrAl23W4Um8qjsSjg7irqSJtL926JnoiQyM42fGjcGNg98h5UzLwQfxbGeA4bjaG26NukvypnGL43vNz2y6QrUdUj3j7MPgTldcqVXZ6ozuaykFUVRFEVRFEVRFOV/hjF/A0DSsBipj9tkAAAAAElFTkSuQmCC'
p48
sS'andr'
p49
S'data:image/png;base64,iVBORw0KGgoAAAANSUhEUgAAAEgAAABECAMAAAAV8YMOAAAABGdBTUEAALGPC/xhBQAAAAFzUkdCAK7OHOkAAAMAUExURUxpcbCEJS8vLy8vL+1sMO5tL+5sMPzCG/zCG/zCGy4uLysuLy4uLycsLy8vLy8vLy4uLy8vLy8vLzs6LTAwLy8vL/zCG/zCGy8vLy8vLy0uL/zCG/WMKPzCG/q0HvzCGzUyLi8vLywuL/zCGy8vL+5vLy8vL/GDKvzCG/eiI/zCG/B/K+54LZxTL/zCG/BzLi8vL/zCG/zCGy8vLy8vLy8vL/zCG+92LvzCG/zCG+5yLvB8LPzCGy8vL/zCG/zCGzQxL+9zLu5xL81jMJNZLfJ4Lep6LMxkL4VPLqxeLrJZMC8vL9prL+93LU48LvzCG/zCG+2CKnBILvWcJPN8LPzCG/OPKO1sMEDA5/zCGy8vL//////CGD7A6e1rMPzEG/WcJP3CGj/A6EDC6jyfvf/EGlfAzu1rLtzCPr6dLC0wMWRkZPz8/DA1NXd2dvX19fvCHD3A6ystL+5sMC0uLvFtMOPCNo/BkVXA0N3CPVrAyv3DGzQxL+HCOOjCMS4vL5XBiv7CGWXAv07A1/BtMO1tMINKLy4yMy8vL/7DGisrK/y/HO1uMvrCHm/BtPbAH3duN+xsMDI3N/3w6v3t5qVUMPnOue93LaLBfD9EO9qvJTvB7fOMKPCDUO1pLPzk2f/+/fKYbe5wL/emIu5xN85kL/u6HfGAK2tFLvWZJT40L+ZpMPTCI0XA4tdlMPDCKPmyH/CBTfGOYPjGr/OddX9MLu9vL9bCRUg3L4tOLuNqL7hbMN6yJatXME86LnLBsWDAxTo8OEVHPe3CLF1dXXBwcLzBYfOgefrXyPCGVO51PP/7+PGNXve6nvayknbBrZRPL/749fWujcBdMELA5fraylrBzfK+IDqfv/mwH+rCLr2dLHhKLvnCHp7BgcXBVrXBaGjAvPr6+j8/P5jBiFDA1vGKW/Ohe/SVJu+ATLFZL41SLq7BcGBFLt/CO+BqL4vBlufCMuZtL4d2MaCJMIqtfFSkqeG9Mm1DL3NqN8mmLMzBT1tbW5bBiW1tbe/v71t9raQAAABXdFJOUwAC64pwDdGd0Q3OOCgUCvVsMN8FkRmMUE4f8QQJxAt2orxBFLL0XzL3ISVIiP3Ry1vyQ5l/xker3T/gWLvCWen51+mHc5tj8vP3pL/rwZ2WaBbG0Xih0cSsirgAAASASURBVFjD7Zh3eFNVFMAzBEMW3bvsPT7ce+LGPcO7muqtQhQHSd4TFdOGQIIfmBZSQqlUaIut1k67aEuldGgZAmXvMqS49x447r0vU95N2uTjDz/9/dOXnPN+Pee+19d7nkj0P/9aksfHD407NwTihl4w0sczIU42Ts+EhP781Phkl0Z8iYwJh2uvEfOiyy9jwkM2gXhGXoU/wBnBWERv7x4iih+Hjl/e/9vhpwKzUg/58yDM6kEw+CP6gXgQr1Ly3eho0bu/tufk5DxLBQU7fljCeyq+6M5G5FVAfdeG7OPoq9QhSDQkFcX2LzVzgOt4jspJDhjbD88gprxKA6ay65HOE/n52dWQkQ1CokEyXFAHB8Di95+hMfv0YgCM32fhgjLna6djtL1wzql07fxMX9HK14joYRofvodFS5egZbG89GI6L5oHMxacZdGfs2n8dbo/Iu7k01Taub6KXsHMokLCwUWWn3868ERQDvyI777Aojn7Hg9O/gtZwUVz+WBADGdVZPC7s0MXaaf34udIuKLMtlN/HIJhi3qZnmO/98CwK6rssjAWC/+IDEOUbtjQCT3P2tBF2sruRsiEJ8qYadDuOXG82uLxHHxoQAgiWPHNgra8by2eet58e8XAUEQM7GzM0Hs0r77xli0tNBEDvdUwB19fk6bRhCjygrpCmrBFpCuNnwgecv1nCIj2KPT18F35i5isvD0GbRAMcxstZ3b1DxGsPto2MzD7uo/pBbpiHQ7WR8RAfeaTgfmqAgp0xa5rPlLF+ojwRQ2Cb1eeptj1JuNCh5+or3i7wpT/YuRaq1yiR/sB8473WuGCqpo4YGqZkoJ3I/c/1g8+8XaFse4uMwPz5Afw3m/AwLR+4S9abzIDcN+9IiIiX+lsdrtOQ0Nnt9uEotblJgBAjMgrstXW7c2tL6aoiutz99bV2twLY7X6i6Reka7IiTYvO7fbBT32XTtR1Fmkc906LbsdFJFuyyayDXJuFipJt9lJopu24Chb3mAqW+4yPf8ZXqOLvKJVy0hqYdFqAdHqjR+Q6LJVOtf6ck0lpDvrumZc0RgiSrkzqKieFzlrsKi81IjO3YFFbEkpLkii4OeZSUhUnEtSCz4VbK2mgERzi3ERJU3oXGNpOasZfVsr2n4BcLGKnyAmjka5WwsKUe0bKVf/Y1RwYcFHpLMW3Iy5tcp6/c3DiAdEuGaalEtxbs2uum1bbRSRvXZb3XayQug64XPNZbfcNFakvBodJl2ocg9ZY6/A9WPoN6Qnyu4gVVx3I/7zSoyIkSaovePalVM1fYZtNmPR4BFC86N44hQby/bNY51MKkqKFB5Fx0+647u1Vjc059o1jq9LPiciiZIy1EbfVdqw0M20cwS54daGI1+WmYhIHksbjyNmGd0kKYRTVHKjkSMrBMCwaJooMgq4uV0lnCKWelIGn0cd2KNjPEljgv+y4Sr66J84nM9JilHTUsQREj5HPiLQS4REqVwiiRqVoKanRCeMipJI5FJl4NcR4liFQqkOnKNWKiJj/2Ovaf4G6Y9sLGuORxUAAAAASUVORK5CYII='
p50
sb.