ccopy_reg
_reconstructor
p0
(cemoji
Emoji
p1
c__builtin__
object
p2
Ntp3
Rp4
(dp5
S'emojipedia_url'
p6
Vhttp://emojipedia.org/ambulance/
p7
sS'index'
p8
V471
p9
sS'code'
p10
VU+1F691
p11
sS'apple'
p12
S'data:image/png;base64,iVBORw0KGgoAAAANSUhEUgAAAEAAAABACAMAAACdt4HsAAAC91BMVEUAAAAAAAAAAAASEA0FBQUAAAAKCgoAAAAAAAAdHR0EBAQOCgoAAAAODg4GBgZAQEAAAAAAAAAAAAAKCgppbGwAAABGIRxISEhGMC8mJiZAQEBGR0gAAAAAAAAAAAAAAAADAwNpaWlMSUEyHhxeFww9PT4AAAAjIyNISEhDQ0M/Ozs+QEAoV5RZWVknJycAAABUVFSnXFp0IRhEKBlRUVEALHFwEAGRFAB9fX2XGQteXl5uWhyObhZYDAVVEwy70tbBW03HHgLIIg3MEQC5ubkAAACysrKwsLBYWFgHBwcNDQ0vLy8qKio8PDyurq4XFxc4ODgaGhokJCRISEgdHR0TExO0tLQzMzOoCgBQUFBmZmZdXV3zKxGJSAiHWgfd3d3p6enT1NTa29vr6+vl5eXZ2dnR0dCHh4e8vLxmwOTt7Ozf399rye/58/Bow+Y2c4/MzMxWhZyNjY1Yj6uenp7W7fFWrtH27enBOCbw6OTr4t84jrTc8vYteJyrLB7N1NvX1tbtcmk8lLy4iRJpxutiut3R0tNkvuEASKufdgvMOiWWlpbv7+/P3uGbEwG/v79ht9nJ3eHPz8+VlZXj4+PIyMjeOyvo6Oh+fn7OHwhgttjM0dPdFADh4ODeBgB8lqVXuuNMp81RstnNzs63t7dzc3PQ5+ra1taSkpLZPSLhala+GwDm5ubS5Oe4vLve6u3alovbjoAAN4jn39ptzvQxfd/NeXYAX9+ZLyLt7e3p5+WYq7KmpqaxvsGYmZmjk4iLHQXS4uPaMRjhXkzkAAAAO5HGzM8vZH1Lank0gqjRPyv94SfNBwCXl5fLzMyzs7NDesPLHwOqSEMCX8zdIgPjDAC0CQDf+/+1tbWxsbHDw8Pz8vLaKBHlKw7THwLgIwPDHQGuGgXDIQzFCQC6uroAUb7Hnge2trbXVUApbcbfsapMepAgge+afJW0cY7J3eBJosfL5O5nWzLInhr90CWeoqarmGfXuhTx2SIQRVuqqqq3FwBsQUAl2ziUAAAAP3RSTlMAAyULIAQZAQJgMxBFBz/9OE1CLf5Hxuq8WknZquLQcsPhjH/+YdnBmnexnqDZ7JHBsF5Cr/Wn3fbcrL332sWFsbtUAAAF9UlEQVR4XuzVRW8bQRiA4UqpqkpVTo2qKjdbjZSkjZQ2RfgvC2ZmZnaYmZmZmRnKzMzMcOh4vU7itdtNfO5znE/7andmpN3xV/8d7uvre3MeOBTi800Wi+Xt697e3hchFY6o84CL/ZcAdyiBUw8LCy/cNfY/AUIKnPjV3Nx8/wEIuN2zoQSOp2Hcs11dXce2G4iknqacZLGkDdnZyaurq2MBwGJyg5RFiQkeiJZez0Ugej4Mw1wadzAoLo0G05nyuGABqhyCB7eEC2VHBQZixtAUAeYWDSbRUnM08PulSMrQXDEwV5xCGlijEAO7CsRclcSg0+msBpEAzv8nuMVcEEYIUNKHBOVWfg9QIVO1kEEbIv0D8TdKBcM6e48vQCfBG6ESDoAhGF2s4Ht4Ajkk6LzH8X4byGKqmIYqPt8O8CtkmhwyvNyITYE9tTfp3ZJKuxe/SqYpJcNzFuzcCMQ946nKrRy7EGPfHNBfC9CODcybrlK0HFENLzqEHC9hlUwL4dot000E0y/bIYAxcnBjA9Y06QYlh+PyEiol6wH9nZkrBDOdeghA2XF4IDyCXVoveu9yOXCuSokWxenzSu4RlHXoUYCRWxuO34CfDK1E58D5AgwMqmgMElBgs2rWXiwQJRVryg1FGUXrHJWSbjMOBC4TlHUqsJFzLAY7wQi2tk2kdGRs8AtMlZUQ4AFUPI7tYuwXM3Nep/RjfdWN4CafTzUS3O5oRYBW9aNYEAj7eA5a+CHyN78AIU4vZLKOqDUVG9SpVzyBhMSvptE2gpo2M9PHGci7Dt5gPwhQv9nYUD2ROYuUM9V41RM48/3puEkcgiyTN3B2GQSq17av2DSRBgK7E5dt8g+Z7zK9UjGZW6L4fQAEEmyfE41LST5q48DAgDppS5bUE/vAn9j2aWLlT61119q2GcUBXHFSvyiu5dnp0pBXSGhhg/YT7CWtj2Q9erFe7TjJljhtakNvSvAH8FVvGiZobIgvchUFdrEvYOblGywivRiSso10Eeg7pDd7ZFEvw14xgf1A8CDO+evo6EZP+9Z+w9auno5mDQcsf//dh/b5R+32e+zyz/ORrAYBX6+8bz/5R/uPzc3N35+M5q8g4KsfVv/lMrA6mssgYGXt6vZwwOTKu29v793nRHTql29u7+dZgpxyvJDp+77pfcJgmVmfJWZOnBxm2o5vuEataJm5TzCdYg2X+bQdlHk+Dlg+dEzTLIrG7vb+fmf76Nikzf/E+MfNzkXn2fOG4dhBGw74ssrYNm01LvZ/ernTqOw2j1qOPVxRbD272D7a2q00tpoVPIVv1aeJL/aYIkO/7Gzt7rQ8r/XKbTVcxhqGFs86z3e2XtdM49h1Ky+KjuXggPs/Mo5Yab5uiGWNRfyJYXgtj6GHEI1mo9I64RGrlbuu6boOHQTMHoj4/c/eHrKgazICXqzZhuUMEq3K21dFHpCs6cAeurSXY0QcMH1wLbbc1h7InCQIJZ5VcrZlM4NE48z1FJYvCYLEy1A1HN+5/nWaoKr1a9ti5EJJ5QqaQHGwketed4ew6VoeOErQCpxaKsgiLqpXKeLhevW03p0CTtVYucBKlIyCn9E3A07r9VMkUxKry0hTOZjqvjnYW39IRB+p+fw6D4LE8iql6aoC5Y38UBtlUFRUEFQOCQLw6/m8+ihKEEQqkZhZAoFHUrnMIUqB5ZnEUDPLoFD4MWVK5wRYwlUp4qNFtlRieUlSdEoDgojF4vH42NjYnRA+xeOxWIwAjUJySeAQrl4kbiJBFnRWRziEnR+fnJyMYhN9UQzfHJ9nJR6QzhYEGch+cyx43gIokoYQL+mwGMlmyXQ6lcpkksl795LJZCaVSqfJbDayCLrEI6RJCizgGWNEAB/wqBGAAsdxCoKlLEmmUxnc+lkfjsn0MpYAKbisABDBb4ZbewOECfMALAswNxGJZMn+BIFMOEEwwsRcWDUfuRPuheiJ9VIScw8WHpM3FhDpu7EG8vHCg7lE2Dwo3H6w/LuB8dDdnt7XiIeNI4gFV19wJv4nfwPR2bhwoiQaJQAAAABJRU5ErkJggg=='
p13
sS'twit'
p14
S'data:image/png;base64,iVBORw0KGgoAAAANSUhEUgAAAEgAAABICAMAAABiM0N1AAAArlBMVEUAAADM1t3M1t0pLzNVrO7M1t3M1t3dLkTM1t3M1t3M1t3M1t0pLzPM1t3M1t1VrO7M1t3M1t3M1t3M1t3M1t3M1t0pLzNVrO7dLkQpLzMpLzNVrO4pLzPM1t1zt+qnyeJksezT3OLZ4efe5uvh6O3R2+HY4Oaco6dXXWIpLzPK0dZMUlY1Oz9MVVyLm6WZqrWRwebN197F095cr+2CvOi2zuB3jcTdLkRVrO7VNk8tRq2jAAAAHXRSTlMAEL+/EAAgEIDvz2AAMN+/j59AUHCvIAC/YM8g79N+H+MAAAH7SURBVHja7ZddW9pAEEaHpaEkKRSh2kp9WyEg4Af0O+n//2PdiUuWieLUNY96wbkKy3nOJrO5ADpw4MDL8fZTbvn7pyh5/+bjf0D3LdqOxXZcKTiUlxQVn5sKvfyjNTHsVjfGo0jSqIQiQa+PR2Nad0O9GAEkXCK9ozOohVp94FtRgb3kFrHQk6EB8ONnUOhIhIYAfhVBoViEDPC7CAthNzQC8CU0NOSQn/TXIjSU+tAAwLkaygU+161CPfDRB4dMFTJ89OGh/jb0wR19aAgu1Ird0YcOG8Pb0LE7+vDQqAwN4Y4+PNQl9wrh/GmhIxsaxdDQQ4b4uRoIxRT10QiUohnouKlQ3FQIry6UN8Qh9JwhvO4XcjLNZpZsOoFAdWRozoYjm8OjOjJ0MRNcwKM4MjSd1ZjCozsk91osV5blQu6nOCI059XLq5Xj6pI/+xnoDhmUZOxcryqu2crg0B1DKZgJx91ebj9emcChOilFyXaKC/7uZr3ZrG/4aiFmqThJRFEndne9ZGdTwtZSPNvDTtyxoaiTADMLb7G+ldZ8zWvwPOAkHfdjNDVbaePYSt/h2eeYtPZfpC69u4f9DgnJ37aQVEeG2nKQbVFQHBE6lUd7KgqqQzvWeLXDWAQ0R4ZOzrxzdiIDqkPCGld71Tq6Q7UZtFlp35mP7vwD/LIgXDh0tJYAAAAASUVORK5CYII='
p15
sS'gmail'
p16
S'data:image/png;base64,R0lGODlhDwANALMPAPfx722Rlh0dHm5tXPoVDKKipOVzc/mjoqNhZU9BPP9BZPiVGktRWWnK2v9yAAAAACH5BAEAAA8ALAAAAAAPAA0AAARc8Mm3HJk4L3Kz350nBUFhFghyFsMTNA0gA4QxA8MLywfHzYMBLDAzEBQHIELBbCo4zgTicDBQr1TrIVEAMBKMm5cRHrAYBcEA0B2g1YOEQMCYJ+7zuiAxEYj8EhEAOw=='
p17
sS'related_to'
p18
(lp19
V\U0001f3e5 Hospital
p20
aV\U0001f6a8 Police Cars Revolving Light
p21
aV\U0001f637 Face With Medical Mask
p22
aV\U0001f692 Fire Engine
p23
asS'name'
p24
Vambulance
p25
sS'known_as'
p26
(lp27
sS'default'
p28
Vemoji
p29
sS'bw'
p30
S'data:image/png;base64,iVBORw0KGgoAAAANSUhEUgAAAJAAAACQCAYAAADnRuK4AAAGNElEQVR42u2dLzR0QRiHbxAEQRAEQRAEQRAEQRAEQRAEQRAEQRAE5wiCIAiCsEHYIAiCIAiCIAiCsEEQNgiCIAjCfue35+z38bF3Zu/O3J0Zz3PO29g/7zx779z5807WAOiCjBQAAgECAQIBAgEgECAQIBAgEAACAQIBAgECASAQIBAgECAQAAIBAgECAQIBAgEgECAQIJBLPj4+Gg8PD43r6+vG8/MzLYZA9uLs7Ow0BgcHG1mW/Y3p6enG/f09LYdA+fIsLCx8EedzSKq7uztaD4F+5ujoqK08rRgeHm68vb3Rggj0nfHxcaNAipOTE1oQgb7y8vJiJY9ifX2dFkSgrzw9PVkLtLq6SgsiEAIhEAIhEAIBAgECIRACdf0YLzFsolKp0IIIBAgECOQaTYiqP0PEEWqvIASq1+vNKQZNdtp2honeh1Y4qF/Z6ZorpwLJZMSJX6ROlso4FWhqaopGSCBGR0etl8o4E0jWkvx0olqtlivQxsYGiU8o1J6lCaQe/NDQEIlPKGxH+Z0IdHp6StIRqDizs7PGDzQzM9P8u25Cnbu8p4duX/83xeTkZBgCPT4+GuXRh3XB7u5u2/dQUsAe7bMLQqDt7W2jQMfHxwiEQD93nkdGRnI/SH9/v7MdpQiUmEBnZ2elrtlBoMQEyts92gqXO0gRKCGBdFvq6+szPnm5BIESEiivMX3tHEWgRARS53lsbMw4q/v+/o5ACPSd8/Nz49VHj/euKVsglZHRe9pEbCVneirQ0tKSUaBarRa9QLoF2w79x1booWcCadeExnby3lxFoHyAQAkIdHBwYEymJlcRCIF+xLTqUMs6fBV+QqDIBVKxS9PYz+bmprcvjUCRC7S2tmZMpGbnEQiBvqHb0v8VU32PPCNQQgLZTJyqOCYCIdCPzM3N5b7hwMCA96qpLgXSwJ8aPS9sbtmt0N+aXi+kQumlCqR+janzbLuKPxSBbObyXIca7VcKtL+/X+qyDQRKTCBT3WZfI88IlIBAV1dXwXQgEShCgVRpw9R5dr1sA4ESEej19dU49lNmtXgEikygw8NDY1I0dWF6fHUVi4uLCBSTQOocx7IVF4ECE8hm4hSBECgLKcEIlJBA8/PzUQmkPWpMZQQkkE3FjZBC56symYpAhULVP7RWG4EiEkhFFVSvp5chcXTr8CEPAnkWSCV9UweBEAiBEAiBEAiBEAiBEAiBOkQDf0q0TYQ0SIhAgECAQAiEQAgECAQIBAiEQAiEQIBA8LsF0lJSlQDWklmt6Wkt3Ndpz9oFoiINNzc3hc8xjw3lQ6sple/PJ15/zoePugPRCaQP3Mk2IRWriq32cifoR6LvaJsP/eBcXvWjEki/sCJbhPQ/2tyYGroCF8mHtpG7qoAbjUCd7GxoF9qCkwK6LS8vL3edj0qlEr9Ae3t7zSMPVHyqXX9Ff+Nq4bzqU8eOtoG7yodKDkYt0P+hw1d0n9blWbUSdcyly52teq2Y+0TVatVpPlT0ol6vhytQiBsLYz2RR1VOVIC9V0dz90QgdXxD3AOmp5fYsCkRWPSqXPTJzLtAujyq1x+aQLp093o/WqfhM4+6shX5TJ/HnLyVd3F93ybiCWcl7vSkZTram0Ag4/jF7e1tc1BvZWWluaWYK1PaYVv3u/ChuyqsqTkaPa5rsFDHQJkOoiPiCXVfvArU7kplc54qEXaok217bEXm+pFVlTJohHhDT7mdzP5nPsY9YirOSfwTRx3nTseVvAjks/6gOvL6kjGFiwnUvDkxF5+xaLF4LwJpm6+PwTMNmpVVFd8lNqcdFYmJiYmef7fM1wtrUtV1wmKekddjset8XFxcpCuQrhSaoXeVLK3ei3mZq/Kh8TNX+dBtMQQyny9eq9WczEJrJDy26hft5hdNc1C2ty7fp0MGIZDQGp5ukqZkpbQDRCcAdHNlDi0fWRlvorEhXXI76Ujqb7e2toL5pblE30mnHKWQj6zMN9PVSGMNeU9oGo9QonyePx/S05k613lHaoWej6wXb9qaR9O0R+sYgMvLy66WaMaObkvKQWz5yBoACAQIBAgECASAQIBAgECAQAAIBAgECAQIBIBAgECAQIBAAAgECAQIBAgECASAQFAyfwAabolq1PtKzgAAAABJRU5ErkJggg=='
p31
sS'version'
p32
VV6.0\u02b2\u02b7
p33
sS'uni'
p34
V\U0001f691
p35
sS'desc'
p36
V\U0001f691 An ambulance, used to transport patients between their home and the hospital. 
p37
sS'browser'
p38
V\U0001f691
p39
sS'annotations'
p40
(lp41
Vambulance
p42
aVplace
p43
aVtravel
p44
aVvehicle
p45
asS'wind'
p46
S'data:image/png;base64,iVBORw0KGgoAAAANSUhEUgAAAEgAAABICAYAAABV7bNHAAAAAXNSR0IArs4c6QAAAARnQU1BAACxjwv8YQUAAATLSURBVHhe7ZpdbBRVFMfvvcQXMbYVSPwIkJLUFniRYEJrspC22gc/aHgwITEmajUaEo3xRQwQEzUEXnwQY9SIHy/axPgAGk2odKX7QDGS8lK7SKSASTFRsojhsXM4Z+YMO7s7szO7vTu7LOeXlHvOmcnuzv+ee+7HoARBEARBEARBEARBEARBEARBEG4JNLdNZf2pKxsdMHvJ1qDO5Ae6DroXWoCWEKh3uvCHVrqHXaUA9qNIe9hrKobbptF3svBmiTgIKP04m02nqRlE4iite9F83ot4gIJzONQOs2sdbZwf5rasmGW3KqkLRKKAVsOYNY9xKH1AXcNi91W+v+s1jkSSqkB901ePYLPd85qPBv3E3EDHj+yGkloNwkJ8DJuWEYdwtPMsm5GkkkEkzs0hRemt4EO0sC2Cw26svFg3GsAlxdmBzk3shtJwgYLiUPHFlD04199VUYB7T16d0Vo9xG4qNF2gCnG0syNq9kgi0IHRdWwV2X3kPFu1k0SghtWgWsRpZRoiULuIQ1gXqJ3EIawK1G7iENaKdFAcZEHrxZFaxAkW6e7ZU2ro24/ceJCemRxbRc5tyrBVZPLpXWp+4xb2okltFisTx82es/1dD7KbiKBAfb9NqufefdGN18OX+z5T+YeH2IsmFYHKxbFB2wi0frow5ij1KLtWQLF32hIIM3mcQ6Hgw/8Tt2G1VoNsgRtasCVQvr9zyc+X+APoWBTAfAqg7+RQQ6A61HHlb3Xf/O8cKRImGolRzuXuDeq/Ffe6Q4hDoeB3XUIRR9kNJbFAgVrzBX7oC3zYdcC7mg6tvdUAvYpmJxKHXDpYj+uhdqC2hSLo62zdNtQmkIblbN02JK9B/kIOYDcNL5risWC/j59wN9/ScIbHP2CryPGdscfKkVhdBwVXulSLsGDHnf4t4H3XE9xnD1DXQKnz+FDrknSc3SIdIOqhSTj81v20/sC/B2i7QTbFGlbQXVFgnA7g8wOdHfTA1JKPV496N9VPXRkUwVEUo+qaom+6gGNEv8rukqEOMWBer/ZmolopsDLE3C9Q+h007/cileAPncBsGWFXZYYzzxhl3CxzwLmcm8x94l5AcKX8OTYlLwrrAjNHm8VH/BODwcHBzY5xnnKvIcYx32ez2dNkVxEptlNjBcIF4je0P2K3ksAPzYxkVptFQwfyJZtXFPA0LIMduWO5v8hPkI0JgEP+PiozlHnZaPOxGw6AnfOK3zmhz8ETDnuhxNYgDar6UlWrX/xeRHHexqZiZ48/bDML56I1VB7s1MaCL87Wwa3bw8QhKE7XPdt5zw0ylPVJ/hdJohrkpahayW4J/ntuzp5LHA4FAIamJqey7r7OMU9yuGYw+/71Xx1tG95Gm7ExsiM4fOL4CXcTRzUQZ7lVmBU/h716CiNxkY6DekobTa+WIwEHRqeyU0ueWYKgQPTGttp51AQKdLM+1kpd03woWv3PVlthTSAaOjiu/2Q3jALcATNsWwML8XdshhJ3PQ57GUSAegn/LXhOKfhD3/JnMZvQLEWzJLvlTASXGPWwjFsrXJy/eGFt99pf0bxLa73Bi6oJrD1v5LK5r9m3zpqeNT/hyplW1KtxxryHMhnbQ1h7qhVvQRAEQRAEQRAEQbgVUeoGWF8uX7+oKLgAAAAASUVORK5CYII='
p47
sS'andr'
p48
S'data:image/png;base64,iVBORw0KGgoAAAANSUhEUgAAAEgAAABECAMAAAAV8YMOAAAABGdBTUEAALGPC/xhBQAAAAFzUkdCAK7OHOkAAAMAUExURUxpcXijrXaksHijrXijrXijrXijrXijrXijrZOKgnijre9rLnijre1sMO1sMHijrXijrXijrXijrXijrXijrXijrS8vLykmJS8vL+1sMO1sMHijrXijre1sMO1sMO1sMHijrXijrXijrXijrXijrS4uLu1sMO1sMO1sMO1sMO1sMO1sMO1sMO5rL+1sMPJoJ+1sMHijrXijrXijrXijrXijrXijrXijrS8vL+1sMO1sMPJqK+1sMO1sMO1sMHijrXejrnijrXijrXijrXijrS8vLy8vLy8vLy8vLy8vLy8vLy8vLy8vL+1sMEhXWnWgqu1sMO1sMO1sMO1sMO1sMO9rLu1sMHijrXijrXijrS8vLy0sLDY6PDY6Oy8vL0hWWV14fu1sMEVSVFx3fe1sMHijrVRrcP///0DA5y8vL+1sMHijre1rLvSmgfOed+1qLf/7+T6/53airHeirP3+/13K6ywsLK7Izjy/5+n4/LvR1f/+/i4uLfn7+3ejraG/xnymsKXh9LvS1v39/v7////+/YKqs5S2vu1pK/n+/+1uMnmkroWttfP7/vX4+P/8+vn5+XzU77nQ1XHQ7ff5+sbY3Zm6wUfD6IqvuLXN0uTs7lLG6cju+Njy++j3/G5ubn9/fzk5OfKTZjU1Nuno6Prayi8wMPf8/mrO7ajj9HbS7sLV2vL2963k9e1wNdnl6NPh5e52PqrFzOz5/WPM7Mvc31jJ6vzl2vT09Ly8vPz8/KTCyP749Zjd8tz0+8Lr+M7e4pKzuuH2/O9qK5GRkdLS0vfBqPnNufCCT3h7e/e8oPGKW/jLtv7077CwsHWfqfKXbJinqlp0epe4wELB5/a0ld/p7O709fL7/UrE6PnTwdDw+fWlgNXe4PWfdvCFU8h8Vfray0VFRYODg6mpqUNDQ6KiosPCwltbW0lZXUZUV294elZWVkzE6YHV7+jv8YTX8Onw8oLW77jo9p3f85GnquqoiX2gp8Z9V95zQJSWj5yWjd+Vcs2lj82giL/T2LtIqqkAAABndFJOUwDzaLULBUcf6AH+aBn8JhUv49cqyvtMBuwJWdB48uoq8FtOruwuQMwZ5Q+q+E61BA0ipNv2wbuUnZF6Fd791H5iORA+g+MSPb4oyFzZn/XovDkzw5phHMaIbicnf4WlRe1vSO2HhxKH1iG9AAAFY0lEQVRYw+2WZ1hTVxiA2ckNGCDI3nsJyEalLHfddXfP5ya5lDY5jLSEEBMMMooUZctQEGUqW4aKe++qoFVrd2v33k/vzb03CeEGUujz9Ed5f53knPOe8Z3v3KOjM8000/z3+D3h5Ww7ua5BxnO8yK6Q12onx+gVTLJunt0KL61FPt5cJ/8AP3nZOYaL4Y//2mC8dhZ3HaStiOmLdnUMtJuHTmiu3MN1DEAnypzrPQMtB87WVrTGUd551to1On6rcRH3ZQhaH/OYvOjto63IbhbWfoajk52OTzQh8rcNmuMo/5/r66y1yMnX23/OCwFosJi+M3AC/dDw2c1dFxjjFM3UVmTrzPQhojZvvTFOQBD+x+wNzsygf34QoHg9grjgKR3GYBZCEmIwFdF8XYWIZWZqgGFqgmFqYKj9smhGm0MsFaIw+436GOEzMcL13SMd3CwStFnVAvswSxEAfA0AwAgz13cwm2Bmhm72DH6eLP9YSWZm5kAaTgdaziSLJWUyMSozjzQbL2MM4+iivJLmW7dbCjJQpDj9WLlfmo4izdjZUjFUni0GSOhmzWGAXD1EMkkLTMm+ql0oVVXV+7LggoOZYhAWaaoxWOYiWbcU7jzaemSMJ3lL5Uhp6UhlZU/XN63H4YzuMsAI0bDptHCRuFiac3R/qeBwlrpoeL+ALYcn4LF7Dh+HK7KB5QLKLTeMZCDl/TmNIwI2pYjHVsBjd93FTC5uVCI3D1DSktxaijYUbMF7D545ffrMIC7aoSJCVSl34QMyEE6xTSbhQHYA3lXJUxHtbc/Nbd+L7/Xbo0Rs3o5OaTli6To2Yg6W6MI68XFx0fZLF9u43LaLl7ZTiNjsH5K/LQPuY86AWSg/+3ZW4ztshSj9/IWz2IV29sL5dAoRr+eINI1vbqHmMQhBxN1wdRdPKdq6Z1siJkrctmcr1YzYjfBBsfraoDhdMJABt+ITUojw61aDSPBdztdlYBOktjBQVqGMDC66SoquYqImdRGv6a2MbL77qKNkEYGIi7Pgqi8FPDmCRnnMbiblcrm5STexuO1rErB5oxB8lSMd4M80GJXyCJKWAcNvNKXg7CBS5E5bYmLbHTxFvu+q7ElRZf9ROLkcsGgKj+kCD5DXIU/V4WqcYeI49z5ob3/QSyRbZ9XxalWG0dPfLDI3UyzL3RJN+QLKjE/vffiwNx3WzBDiMZ880BEIcuze4OuT4x6ia0TszysM5Pc/7idNjvt/KURm5qLffk18bZKceI8UQQ6Mn385kThZlCIDfdGPP706ad79kxQFs0DaeFGZiG6EHi8XxdOR4il4YAkg0t9IFzk4BY+0A9ib/huindl8fUNSNDQFUUU+iIWIYwSKRidFYWH/OD37CwtVY9OsOI8JG/k3dqqs+dTJmpravkMaNIf6PqipOXlKSv5uuQFmEp8RKJaBXUQEhR++L0wVptadq6f01NfWobXCjz4uJGbfnMdwUOQ+C+QPEYtJv7xbyEERCs9RzamgVohX776ML+9APrBXvgxdXUSytFvyW6T+01QOB2/aRyH6BB+Gw0n9AptxS3EZcFG5+g316CKRrKSjSCK5VschSH1UJHlzNJKiR0Kyuu6apCgNfdroOqh+1SAjdxeEz0eQvOsNZEvh51cQda58phA1XM9D+IDB0lP7OiYYbYpg0en055Wilavo6qxaqRS9RKeH6sdaULzZEkxoNNpzNmRLzjO0sTytGMfmRRrNZJwHqXUU2XK5J0X1U8vJ6metJ3jRLl1CjLiM6qEJLSNm/LjnhG/jJ6MWNnBsllhRj2httcSG07AwaqkWr2xrTyurxYs0Vi9abGXlaa3zP+JvinEUYI00P4QAAAAASUVORK5CYII='
p49
sb.