ccopy_reg
_reconstructor
p0
(cemoji
Emoji
p1
c__builtin__
object
p2
Ntp3
Rp4
(dp5
S'emojipedia_url'
p6
Vhttp://emojipedia.org/delivery-truck/
p7
sS'index'
p8
V480
p9
sS'code'
p10
VU+1F69A
p11
sS'apple'
p12
S'data:image/png;base64,iVBORw0KGgoAAAANSUhEUgAAAEAAAABACAMAAACdt4HsAAAC91BMVEUAAAAAAAAAAAAAAAAHAQAAAAAAAAAAAAAAAAAmBgEAAAAAAAAFAgBiGAsAAAAAAAAAAAAGAwBpV0RZKwFWOQRiRgd6IhI2DwlMLgMwCAI3IRc/KwC6NCIAAAAAAAAAAAAAAAAFAAA1JQBMGQVYGAiKbRdHKgMKAABcPwWLWQ+cKxtJKgFNEAdpTwwAAAAAAABEJQJdRzc4EgGNJBFxOwhfSSk8IAFeSzpNLAB7YUxbPwVQMgTdMh60mRjKrSrOsiu4nBndwkLDqCTqz1PIrCW+oRrjx0TkylHFqSm+pCPw1VXUuzvmyELQtzruRjD67s3rRjBsGw8AAADjQi3Uuj4JBwe9pCbBNyXfxk/v5MXbQi2fIhWHdhLy5sb268vxSDD98tENDQ3oRC7xSDLrRC7/9dExMTEpKSnzNiEVISP/88zMOyfwiG/s99b/Tzbj2bwYGBg9PT306MnyTzj5WkJKq89OtNkTExM3NzdCQkJIpsgyjbHWy64dHR1ISEgtLi71VT3GNyNOh5hTkKJNr9X/aVDW175Rt946Ojr7YUjuSzSciXdHosXc07YCFhlAeoz/78kjJCTdxU73STKxmCGdhhbgQSz1RTD+Vj2mkSKrMB766cUphq2hjXxlOwQ0MzNtRAUACAs1lbt3aAw5ncXLtUfRxarkSDNkGg3s4cMxDAe3oTCmJReOgB3+WkIkDgtfNASnlIHYwEyDchGZHBOXgnDZQSyVdgy/qDeqhhEYdZu3LR3dQy5lWgba3MLSukiymyxUSAL74idNTU2KJBbcPyv8787awEE8osvgxkOYUiYxbH9AdYZZgoq9sY9QUFDthm3Ze2bwNiCJNg3x/+TmtR+7Zkf70ye+mQ+/lQfZvQq0l0rIqh2IcVrozEatkRrDpRuZgRO4niTu0Ujy2Vm/pS9KNADStSjbvj7GrTaNdl3Tti3YvC55VArMszv94FvXvUD32lfVuC7gxUDHqR3t0UjavS7NsSdzTQjt0EeiiRWCYw/pzkERAV32AAAAPHRSTlMARTNBHwMlAgFhDzsX7QcJTSzt/uzt+/vsWYP8/uKq0HLD/Pzs7OxX2Oz71+/u2ZHru9717Oyt6Mno7Owktt3xAAAFf0lEQVR42u3TeVATVxzA8ddAAUFskUu5D+/76IlVvK8WEhYWBAXcFZOGtCEh0SRqLtEasKDckFYggoCAgKCIeNf77H2rMalQqYWittXS/tG3uxXTYZ15/3Smf/iZYSZ58943v7wl4Jln/reGTnv0J5qeLjfA4hXLnb/QPDBPBCzGdd/+Bc29vsmsgc6bv/2B4oebvZ6AxUTz3d9/RnLfGsYasNy6/iuK67fMswDwGX7jpwE3Xp/uA17rf/gjmvDZHsDn4Kb4J/amVW+fPs764C00F7s9wavVSattcbMP9nQvv4fm9onJYPimpHPcJ85x0/b3xC6+iWYxnAAGuLaS0vZXmMPv30USbvWgAmsHMIFmy6JbiPpHwAD3+Hv/OL6amwQDZYcXPkQzp4CaIHVHx4e0jh1ruUnpabseWc8/QDOvM4wKZFRtWw9tq8pgAj3dC5ajWbCHego7My5so13ISE1iJpi3GM3Fdk86ULWeVkUFEtN2lfXPCUcD74AJbKFRgXQYaD40dxEi+ins3Lx7yzpoy+7NqenpidlwgvkLEcEf0/BqGFhHowPx2dsrCmLuoOnrDGMCG2iPAz2dSxagWdLrSQc2bngf2rARBhLpCfrmoTlPT2AbSKQCZf1L56BZCu/g5Wurr3RspHVcSU2M35u93f3Q7LmICseAyebsq5d30C5f3RlPBZoty+ajWVY6Aoz+7vt07geM9EQqcLDCHPEmmoh6DzD6I3M1N5EG599LBR7V5y1Bs6LbEwa+vfbFuzaOU/8HfWhi6sNg4Juv3rHxyaeXmgtjl6KZXzoLjP/6sP5tG5+9cQA+BVSWaWD8l5fO5q95IrLtgLvFugxNLPwxvXTIWJxsAwbKSnsjnq6X8vj1SQ8w6vPo4kgbvLYDFfUtK1jl5bW0nNhDOdGSl5cHF9rDgKuIl/yvQMJKOEEMq97e9vrSfVDpyfbu3oiYmAg4AQzQB1NSIrNkWVkpZFGD+z5rLBtrQemqY13uUNepysICK1wpHAMDJH08S76VkqmLPhJ6zFLYP1ihZdUpXy+/6OJiUj8ztKsSbrJUzqACPF5KihyezWxslMszM6NrQypbVw3WWtnlKhKXyOVynSz/7EzfY62tlae86UAKmbk1s7FEHJksFstk8rbakC42IV7FJfLGkjWRcFcNOSHEt8s3dBJw1ZM8UpcpLymKasIJ7wn5+TxZ0ZGGlSyOyHQl4gneBN4UdVZcUxTX0GA0ulIBUibXiY14jlAozDF5k/m8LF40G52uhPQ2MduMYl4WGR2tdwWj4opInUzsZxJqlVJpuSCnrjgZFgZLkcGvXpcjKJdKlVqhyQ8WeKTIFUwyio7W1JBNwnKNVqKWqrQ5XsUJRxNY1NTke+VoVVK1hK8pFzaRRQlH2/xGgRlRxji96IyJr1HjEgmuVAlxvT6OjUikx4UqJa5QE2oN33RGFBfnZ5wE7L1Do6K86kwGAy7QqNQKTS5WG/UUtViuhpBINXzCYDDVeVErdQCAkUOGjAw2SQWE4fRpPqHKxXzgCpuRPliuCn7MxyqFVmoKpneNBYwgrJyPCwyGXIVKjQHg5OTo6Pi8LUdHJycngKlVhKTcoCX4fCwI2OJgEqkCVxC4QIn7Ozs7D4XsbVDv4bI/rhRghAKXSCUYBzzmRH1eIJarVBOEQKnAghzc3DgcFxc7O7vnGHZ2Li4cjpubQxCmUAoIQq3MxQId4VCAwgzrgGESLZ8vILBg5jQ89+IAKkI3gjFCwOdrJRjmQH8vR3oApuCPYTiOYQH2Dg4wYTuBHT0BPYJ9ALPLnzkPr4XmRFfGBkwJnMpxhpgLcLDBXIMzxJkaOCVgLHN4EJvbH0Z5gTGMxjwM9oNsKepvAPUa/Ef+Bi33xznPvJ4TAAAAAElFTkSuQmCC'
p13
sS'twit'
p14
S'data:image/png;base64,iVBORw0KGgoAAAANSUhEUgAAAEgAAABICAMAAABiM0N1AAAAh1BMVEUAAADM1t3/zE0pLzPM1t3dLkT/zE0pLzPM1t3dLkT/zE3/zE3/zE0pLzPM1t3dLkQpLzPM1t3dLkT/zE3/zE0pLzPM1t3dLkT/zE0pLzMzOT40LzRLLzZVrO5WLzdcY2hgruRqsNqVuLKaLj64wci/wInHLkLM1t3dLkTfxmvqyGH8zVb/zE36ZdmXAAAAGXRSTlMAEBAgICAwYGBggJ+vv7+/z8/Pz9/v7+/vAFGAWQAAAWBJREFUWMPtlttWgzAQRce2lKJy1bZiuVSLjVX+//tkhFIISYCBF5c5T7DYbA4DLAKgo6Ojo0PKxmG9cTa9mpXPBsVf9Xh2bGB2apPPBsdXzoeNiGpOzhiRoxCxUZF77qii9cNz3sw3TbR4zPmQROuXfB7RUz6P6B5P/Ho/xpgJogXe2KXUTBJhoUscTxb9FnqbQYSFPuLpIq4QXcQVIov4QmQRX4gq6hSiijqFqKJOIaool0aLtOgviz5nyv8RnZKwSHJSnSJmWqJzFFaJzjKNjAG3wRzCOgeJSca4YN12orCRSCySMRZAUN87HkszxrIUt4RzkjFB8X809tUOzjAtX1OkEpFIwuwN/PUbVSe8RFZCGW6LRGImMKr1muVeoeuXoxC98oxrcethXiRaM/MikECt2lQG7PYgbSoDZvvRmlQGwGu+bB6dgeX2xmyXdKag6ut5kxicAU4ztE0YzfwAQ6XaoaXkTiUAAAAASUVORK5CYII='
p15
sS'gmail'
p16
S'data:image/png;base64,R0lGODlhDwALALMPAO+kAA8PEqvY/x0fREDa/0lqhIRli0tMTzRl8HBw7TBlm9GBAC0JuSxQc0c52AAAACH5BAEAAA8ALAAAAAAPAAsAAARM8EkJqr0PIWfAqt/nPQQhdEuqqqSJqp5aCqcXr4uWJG8aewiGkFEoGhtGB2PAVDgVDebA6RgUDE3nwIBtKB7MA3MSOBwCEwk6rZ5EAAA7'
p17
sS'related_to'
p18
(lp19
V\U0001f69b Articulated Lorry
p20
aV\U0001f4e6 Package
p21
asS'name'
p22
Vdelivery truck
p23
sS'known_as'
p24
(lp25
sS'default'
p26
Vemoji
p27
sS'bw'
p28
S'data:image/png;base64,iVBORw0KGgoAAAANSUhEUgAAAJAAAACQCAYAAADnRuK4AAADbklEQVR42u3doTNsURzA8Q2CsEEQBEEQBFEQBFEQBEEQBEEQBcGMIAiC4A8QBEEUBEEQBFEUREEQBEE4b347Y2ftmzfv7j13F3c/35lfeuHNPT67e/d657xGkjJqWAIBJIAEkACSABJAAkgASQAJIAEkgCSABJAAEkASQAJIAAkgASQBJIAEkACSABJAAkgASQAJIAEkgCSABJAAEkACSAJIAAkgASQBJIAEkACSABJAAkgASQAJIAEkgCSABJAAEkACSAJIAFXcx8dHury8TFtbW2ljY8N0zc7OTnp4eADoX62traVGo2H+M/EiA6ireGXBUWxmZ2cB6u709BSOHgYggAACCCCAAAIIIIAAAggggAACaNC9vLykxcXF7JmZmQFjGAHFY3U/UIBKt7u76wcKUPni4+fzovb399PT01OpOTo6AmPYAL2/v6fR0dH2Rd3e3rqJBqh4d3d37QsaGRlJb29vAAFUvM6PnaWlJV/jAeqt5eXl9gXt7e0BBFDx4p+fdt7/nJ+fAwRQ8e7v779c0OPjI0AAFe/4+Lh9MWNjY613JIAAKtzq6mr7YmLHgN+FAdRTU1NT7Ys5OTkBqM6Arq6uWl+zq/ilZ8zCwsJfuwT8MrXGgMbHxy06QOWz4AABZAAyABmADEAAAQSQAcgAZAACCCCADEAGIAMQQAABZAAyABmAAAIIIPN1YkNnXwHFnq04auVzLHq9ZnNzs7+AOrfcmPpMnIAS+/FeX18BKjqTk5OtbdNlD66qcubn5yu9tl7//jJwSgGK/zaplz1ZVW77mZiYqGz/WUzOoVX93I2bO7Hmg6yvO1PjaJaqFib3mJefXJXrFO9mtQHUfdJGzsSpZXWt80S23Dk8PKwPoGh6ejp7Uebm5lLd697WXWaazWZ6fn6uF6C414i7/JyFubm5qT2geLfOXac4GnDQDeR0jpzP+IODgzQsxWkkZdcpbsRzz1L6sYCi7e1teAo+rO31nSjw5Jxk+ysARXEcTDx/KfKV/fr6Og1rsU5F7h3jnic+tr7jnedbAEVxiPjZ2VlaX19vPZj8fLUFmnglxZ/lPNiqS4Hi4uIiraysfFmneM4TX9Xj29agb5h/BCDVK4AEkAASQAJIAkgACSABJAEkgASQAJIAEkACSABJAAkgASSABJAEkADS7+oPIddgioplfj8AAAAASUVORK5CYII='
p29
sS'version'
p30
VV6.0\u02b2
p31
sS'uni'
p32
V\U0001f69a
p33
sS'desc'
p34
V\U0001f69a 
p35
sS'browser'
p36
V\U0001f69a
p37
sS'annotations'
p38
(lp39
Vdelivery
p40
aVplace
p41
aVtravel
p42
aVtruck
p43
aVvehicle
p44
asS'wind'
p45
S'data:image/png;base64,iVBORw0KGgoAAAANSUhEUgAAAEgAAABICAYAAABV7bNHAAAAAXNSR0IArs4c6QAAAARnQU1BAACxjwv8YQUAAANgSURBVHhe7ZlNaBNREMfnbbx6qEehEdSePOo1KWlIr4I9WKpgRfwADyrowVOrVy/F4helqNCKIlXQg9CSxCTirUdPtghR8GahnvueM7uzZdsmfbubbDHd+cHLzLxkafrf2dmZDQiCIAiCIAiCIAiCIAiCIAjdQrHdG95UbuDrlBf8BxhYhtGhUxy1xGErtEEEsiACWRCBLIhAFkQgCyKQBRHIgghkQQSyIAJZiDyL5Yq5cw44AxyGplauTfbiLBZZoHwxv6JAHeMwNCiQ2vfDam4od5XEMWCWjTan2y0N+jx9hg/raSJl0GBxcBFNSRt9rVFpPPN2W4OfnUQz4UUpyKBCoXASTQnXmk2c/URogbTSY+y+Y5sKwtcgBRfJGGPm3TglhBKIijOaPiy8q/VKvertpoNQAjnKGXEdA09cmyKsAgWKM2RM5jPZNGEVKFCcl6rVavjexsBB9noaax+E/cwfNH1eBLO4fnnuLpA4XlH3j+vZPiiMQIbdjkjFqJFGRCALIpCFjgXCznoB121/ksete3s6yRvzG1/fYj15gPYmW4zNX3q7Uzop0kuOdu62u/Xzg7VpdN07WSJF2piXMFoc52grr8on8PTfAaUu8M5OEizSs/gPD+/WFzXKjXkUsETjCW91m/G24hBjxW/u+15GxSZyBtHlUy/XN1WnTFGgbuGijtu95NA88me2/FC+oJSqdDeDzGM4W7xOXm441+9sOPTc6QwuytY1XA91Rs82Fhs/0Qd4XX7RMpMSySAN99lzh1i8jOZ8cQgUYwTXAglDMQtFDWZ3oJoTEEdtqPfoXsLlN6VkJ3jfQ2MWxaxJkQRyp/lq/QP5NKPhEPvUfWMnfZibM+wDFm/3mK6g1Bf2gDIneHKC0D4/1fQut8BxUYj0yDUI//HNR6qtoLuaL2gS4HcIjkE7cE9ouX6cw1gk2wcpiPzzUETaikNgFkX+9WU7yQpk4Dt7SUEFuS3duIPGFghv4R/ZbUmwXiWGgefstQQzaI7d2MQWiHog+vmHw+2s4Ze/zH5i6AN6itoODrdA+9haeEW6AzJsY9H80VzOHs2uoHsEz9Zh2qM+KGMyV2rV2leKk6S52lzPDmQ/KaPWUZB+/A6HKHPRTmNx9h/0CYIgCIIgCIIgCMJ+AuAfPuVf+FE3yH8AAAAASUVORK5CYII='
p46
sS'andr'
p47
S'data:image/png;base64,iVBORw0KGgoAAAANSUhEUgAAAEgAAABECAMAAAAV8YMOAAAABGdBTUEAALGPC/xhBQAAAAFzUkdCAK7OHOkAAALxUExURUxpcXijrXijrXijrXijrXV/P3V/P3V/P3V/P3ijrVFma3ijrXijrHijrXmlr3aAPy8vLy8vLy8vL3ijrXijrXmkrnijrXijrXijrXijrXijrS8vLy8vLy8vLy8vLy8vLy8vLy8vLyspKC8vL3ijrS8vLy8vLy8vLy8vL2uOly8vL3V/Py8vL3V/P3V/P3ijrXijrXijrXijrXijrXijrXijrS8vLy8vLy8vLy8vLy8vLy8vLy8vL3V/P3ijrXijrS8vL3ijrXijrXV/P3V/P3ijrS8vLy8vL3ijrXijrXmkr3ijrTg9PnV/PzY6O3ijrS8vL1ZucyYhIHijrTEyM1dvdC8vLzEyMnCXoDI0NBIBAD1FR2aGjjk/QHijrS8vL198ghwRDjI1NXijrS8vL3KZoy8vL3ijrXijrXV/P3ijrXijrXV/P3V/P3V/P3ijrXV/PnijrXWCSXiiqXaJX3aKYHV/PnijrXijrXijrXijrXijrXijrXijrXijrXeTe3ijrXijrXikr3ijrXV/P3ijrS8vL////3V/PnaAP2lyPDY3MXiiqnaKYHF7PnB5PneWhUBDMzk6MXikrneirHikry4uLnairnmkri4tLY+zu7/U2O/09cvb33ulr3OapC8wMDlAQXijrneKYHairEJOUHGYoS4uLURRVHWep3R+PXejrv7//3ijrUBKTENPUW2RmnSdpz1GSHKao4astd/p7Hijr3N9PWt0PTU2MGtzOz9BM2x0PDY4MXF6PnN9P2pyPF5lOvv8/HCWnllxd1Ztc3eakWqMlD9ISjxERVFlam6UnS8uLmaGjVRpbmiKkldvdW6TnEVTVnCXoFt1fHagqlpzeZW3v73S1+7z9VVscUFLTUBCM0hLNXJ7PpK1vTg5MXB6PkFEM8DU2bHJz2JpO7PL0cPW29Ph5IqvuF9mOpi5wX2nsLXM0oKqs/H19qjDyqbCyfb5+ePs7o2xuoOrtOrx8py7w8bY3bfO03R+P1AUB/gAAACEdFJOUwC0CBLsCLQb1EABvwkHQNQxMMnlAuz7/Y73puMaz+XM2SEXldcC0imN8P0Zv562tUc/JhBg4ImCFS/EJTwc8nZQVy7SBpRDBmop7CH+C/1uel8UM+th1efv4wb8T/zYtlQK2q4d7nKcUTcFqQVoCR960oS1Cbe0BIppJGXFqhbeGfi/vZ92bG0AAALzSURBVFjD7ZdVVNtQGIApdIMGCh3uDBsyGDKYu7u7u7s7s9siY5asS2dtoeg4uA2Hubu7u/vbRtsIJUmh7Tl7WL+32/v1S05zcs9fAwM9evTo0fNv6da0vbF6+qvtGAd2NcGxsDChWTSbrS40fytBWeXzcnxR/qayjLQXOE9NaBHhRlWU7tqOr3bsLq2IIjYbLqD8OtcIYwkpFB1TIxQTTQ41oMg0D3PcYqpgc0Sk5qGNjpsAxp6dmoe49nYAQQ9Vo11oTThAf/46WM3v7/lahIIdkG8/BHLSXuzVIrTaVva5ShESPNUmtArI3qcpQ/u1CK1cD9CXAh2ENqwD717pIhQaDj581UUoxAF5/VEXobW2yNsvugjZA9mnKh2EuCwge4Y9fcEtzUMLFwPkYd4BObfzbh7WLGTdN4zl8Pedz92nIFezl9YouLuXrfzwQJRo8vabdelo2gHUor4h6xBHKzsAtA5Bna0ANfUM9fYCOglBA0HdQkfukUKPaofmzKxbqLD4/gN89fhJcaFqyJDFEEqNxCkoKiFWqSVFBcRW5Ao1ofwTsSTi4+kWscuXMYcA2FY3lprVCsXFAXXEwbCqxDKsGYLhFLE4C8BMGRRk5YhTYJgpBCcey5BKE44fZSjBl+/clUqTbyTC9CH4ZIJEJBQm8dMvorSh89n8JKFQJEnORFVDZkHKztUEEV9O0qmzNCU0M1vpCJNzYJUQd6pydUnCx7hAcz/IGVyRXCNdLKj6qUG9FMdQSoYIk0TpYsqfCc45LcSdK9eJjblc+WRlb8Vms22mj8elc/38+rApsPEbgDvCsaNssM8nzIIUx9pQDodjPm40ftv8kYPNORSYDx9GOFMm4U6oNfnInhxASJZDqIdTjxGEM3EMzQTrPcgfl3whaqenJ674z6Cdhd0tMamJD53Da4w5AdPop+p2bspOD4hOgTopS214TPN52xZuTq4uvj5MDs/TxdXJsqU786QPeTTiOUPMjrczr3Wr/+qf3R9Utrus71IgDAAAAABJRU5ErkJggg=='
p48
sb.