ccopy_reg
_reconstructor
p0
(cemoji
Emoji
p1
c__builtin__
object
p2
Ntp3
Rp4
(dp5
S'emojipedia_url'
p6
Vhttp://emojipedia.org/trident-emblem/
p7
sS'index'
p8
V491
p9
sS'code'
p10
VU+1F531
p11
sS'apple'
p12
S'data:image/png;base64,iVBORw0KGgoAAAANSUhEUgAAAEAAAABACAMAAACdt4HsAAAC+lBMVEUAAAC0dxC7fhaxaxGqZg26gRWpZw67gBfOjgC0dhK9cQaychDGjiDDhxi6fxS1eBKnXwrMozbVtT6+ghS0dhHFkCWxdQC8gxazdBG4gRa2dxC8iBXUtEjEkSXCjxrHlyO5fxfBlRioYgysbhCqZQ7AihfJmRytbg/EiRrImSm9hxm5gRXYtEvLoC3AhRXQozTKpyG+ix+ycxCzdxG7gROtcBC9hBi5fxa/hBe+hxzDiRvCiBWwbxDDkyOoYg2qaw+rZA6pYg2sbg+weBLMpjmjWQzGmR28fRSpYw2/jh26gBS8hRvOrDvTrEGycxHPpTDEjR6wcBC+iRyzeBG0dhLDlyrDmBi6gRa0dxKoZA6qag+vcRCtbA+vcBDImivcyVf9+4vezVncykT694Li0l7Foh7x6WvQtinx6XDYulHLph3ZxULy63PCmRr49YDXwkLbyFXNsSXVvz/28Hjv5W28kBfaxVL9+4nSui/Wt03WwTv7+ITKriXZxTvz7G7+/YzYwjrPtS/8+of+/pz38nrgz1vUvjPMsCn07XfUvDzh0Vv7+Yb8+ojdy1bbyD/TrkS+lhnGph63hBXj1V/dyk/KrCPr3mHNsyfl1mLcx03QtivRuTDHqiHTuTXYvFPMri7j01zw52nVuEXOtCvZw0jVvS+5jRfQtzTYwz7Dnhz58X349Xzt4mPQsTjq32jfw2Po22Xav1Px53GxfBPbwlvhzkXXwTXv2mvduk7TskLiymHm2WPZwlfWvUf+/Zf69YflzXPQqzrt4mzUsizdu1P37n3avk/OtCjOqR3v3nyzgRT+/obZw03RuCrTvDjJqiX+/qDw3WeweRL9/ZL37XTq3GjXvkzcxC/ax0fax1KscRDcx165ihbgzlThwln073Pq1mnk0Ujp1nXkzGrSsyTu42nIoijeyTa/khjZuFjl1VTSsCG/iB78+ZHl12Ddvzvh0FLu2Gbv22/atUy2dxLu2lDVwDjz5nrcwz/iw13j00vexjDTuy3jxEVzv+fgAAAAX3RSTlMAERcLFIjIiwEzBiKZbGxzF/7+Mln+BJAdvELm/uS2qK3+Ocx15uswcuKx5/jzO9X+4EfOU/GZnm6mnECf0YHXK2/f+fTK+lmnjnvEu/bT/aVlzNWK8exFlra2uqC6009r09QAAAYuSURBVHhe7ZZlVBtZG8cDBIqUUmgphaJSAUrdt96Vqsvq+8bdXXB3d3d3d3epu7u7r56zd+A0TA5pC+nX/c2dzHzI/5fnjjy5iC/xH9+YmX3zNfkFC9vbFy5QOq5qUTbQ0zNQZqGqXH7R4jsDbV5ebR/aFy9SJr9mz51SZqvXyZPPem4rMQ2V/Y9u853c3M4ARWshmIbKJMv/f9lNOtoNjUa7tXopMY1pe+6c47mhRWi0SIQ+AwzPPtxeqDvh+Oy1Ye2dOBHIju5nWoGhZ+DR/tkTFKx4+ij9rJunp2ewpyhYJPIUoYGijV9muAIxQWZsSHngKvIMCgYKMMCG9n73z+IZiAmDtO//ixgMCBolmPjXE/NJPU6zjKgXiEFOTkFgw4H8BarRLMTkUAcGJyccDuxB5AtUdcSkMep/wAMCwI0H/UYTiphoy83C/O4tbxyOyWTeemIuV7/2J95wXcN1mnCDzryc4jYmE1ecM08HHtBcZ6ir8OV509g9Vc6ws6vGu6jIu6Zrp1x+an3jGwWGaWE3K+v+kDOoOv5OZBYRf3dUlctfP5VR1607Pt/YGVT4Wt5gnl3MZMZmm8Pzq+rrCtFnX9evGZeP9ec5FdZdnwq/ERWx3t6xvfBbsKrhmuvQ0NDZunpduXxHY7k/z5+H8waGsRqm9J7j8Up7p8B+vyE69kYRZHgFr0FPn11O9wfwcIV13evUZIKKc/7+5ypkArXVHQmxrq6jhpthY23KISyaDOJ0sDFP/WGoJRNQyoEgVSbQijSoIbq6kl29nYZwr7rnygRaZl1YMp1Mp5PJj1/s+wEBE9Dp5ZSxKcz8/m5NBpFIJPNw717Ywd5Orbn9WD69kkx/TPoe5GECMrkJCMYMVk/+zMggkvm3uuaBPNxAxfIrK/m0E/CmMUXSVFkZDxcgViypLc7IuBdKnQvycoY5VOy9ynsJpj/CBZR4Pj9eAhf8aHCxOKPYhToHXKhxBvfox+nVdqrwCuL5nXICVTvhyz9DfQkgP475DowlHhdREns5QWcnHi6wzExw51AZDvMRCtDaq340hsXu0IMJ8J2leNMxgV7HsDv1qPpeLYRC1MBF9studjSRdSUKvrQUT5F1IxPH8+4xD2eCL36SwwwPYa/Zx9d/bTW+vDyweu3HBmHWIuVYHf58MzUmpAgpB1VG5/TtlfSm8vQr345WrHLQgEUqMFbUXKfD2tCcJVyhqTFkMLFLZT9vanqOSrUzgfLGJVxfgoOOotj29ctUZM9agUf0sGTDND17fYowMCoqKj5dmKpvrzdtQ0lAPocxU/b3vWz99rE7+PbpUku9ZbNHmqpFScK15mqJaWq10CcKH5UeFYUXthiUlGQGhEr9LKCA9uxlepZLn76F3csDhmGmYfpHlu6yXL1jd7MQj2FfQaEwgYGBeIiXWPd8VjYLWyNt2b1jteWupUf0OxrCDA8gYPykn3m+uZkikUgoZc0hPj6BPhAY6OMa1sUlFIDFYmktFZkNDQ2Z5ytaMvf9hICjbXy/5BKbLQSwURgMxgcMaMdE02pdRgil0WhYWjZEQnS2x31jbYQcyOWMkkshGEwItKNCABgMKuSie+0o+fn5NMBFQEJ0dHaa1XLkuFXFIau0YRQbFcJms1EocHIpW+qbk5NT6+tbWyt9//69ND+fRaOxQAGsEw8PKVhr6Cx/mHYemgXIC4dZ0py/IcRisS8AEki5XBYLCLhLBMt1FC4KfhXczxQKQfi4+Ngx0sgQi0mJYnFS0nEILhdS5BGu/g+JUIj2+siCtLwkUh+HdIyU2EdKJJGykhITkyBSUlKOBwQEcAPSGJG/aSM+he3KyPAITl9cX1ZcHwA6ycryAOTl5UGClDSCYJst4jNYa5zOZUQ4czicOAhwzIqL88gaVXj4EQSRNtaIz6Jmu/V0pKCAkJyc7DyCn18WNJydTxAYgsittmpfXuRu0bhcNXg1N7wgOSYmBgj8oGx47tXB0zZbJrbg1bTe+POmldvA5UiOOQGIYORWrdz0y0ZrTcTEUUNutqkChmQwwgdtNiPVEJNmusZpASEighA+qDHSOpQxVAkKYHmlasjNrQJ5pUFqXL6sgUR8Bcjvvvti/j/+BbztzwVIyQLIAAAAAElFTkSuQmCC'
p13
sS'twit'
p14
S'data:image/png;base64,iVBORw0KGgoAAAANSUhEUgAAAEgAAABICAMAAABiM0N1AAAANlBMVEUAAAD/zE3/zE3/zE3/zE3/zE3/zE3/zE3/zE3/zE3/zE3/zE3/zE3/zE3/zE3/zE3/zE3/zE0bZtZtAAAAEXRSTlMAnwDPEIBwQDDvr7/fUCBgjxmK6NYAAAHqSURBVHhexdjbjoQgDADQlouCIMj//+xGElztLrZKMsNzPWmLJQEQLETFL+BDsBQUQbwjkUDgiCTgHZkErCOUgHOkEjCOWALGEUvAOGIJGEcsAeOIJWAcsQSMI5aAcVhpHBov7aPN5iX88A+JKB8RxD6EJPTWIenB1bmV8C4WiEOkvkNpIA6Vug6VgPlEzANXRIO4goFpK4H6scBsNIE6sa8g3YEel2aIhC+bTSUUbj+FqITCH5JCVMKbESmWhdREnAYRaeYg55tDICJ5I+sR3h1syy4FwYhoxNuj1sRdmg7HlT/1rjXrRD6E0CIuX7oG5UK3INUGrVdmDlBKpciOeHdKsDXu1KDtwiQsBfbIcPFDlXKNOI2DrqnnKmtzzqb2FbBGRZsOyPhSqbCQqdIYYmn5tmSmKhcN6xG2tRK3wqzQ+mmPjCdQ8RyRU62HWXGPyov/pb2Bui/Dy+4jEscdb3ZoHoeyUiBprqD5FTJ6tLA2a84PQU41aKxN+Tz9ecyp0KCU6XmU3zoUUqt/6VBIufiU8e7/o9aEZ45O3TPbPnHs3eHvtJSJM3OFmEQ995a/QpiNdzCJrhBpu83KYxLfRUzu9kpP5tmlJk3/WNq6Nw8IZl7OyjKbrz6yUAm//BBFJfzyYx2VBI76AfiapNY2HslyAAAAAElFTkSuQmCC'
p15
sS'gmail'
p16
S'data:image/png;base64,R0lGODlhDwAPAKIGAGYAAJkzAP+ZAMxmAP//AP/MAP///wAAACH5BAEAAAYALAAAAAAPAA8AAAM/aLoW/CwIAJVrggzalqRSsWFcQICCMJqoCK6CawDTwpH22DV6Tr03BmAjCPQgNEKtYswUVEcbTQUIIqOVWSUBADs='
p17
sS'related_to'
p18
(lp19
V\U0001f608 Smiling Face With Horns
p20
aV\U0001f374 Fork And Knife
p21
asS'name'
p22
Vtrident emblem
p23
sS'known_as'
p24
(lp25
V\U0001f531 Trident Emoji
p26
aV\U0001f531 Pitchfork Emoji
p27
asS'default'
p28
Vemoji
p29
sS'bw'
p30
S'data:image/png;base64,iVBORw0KGgoAAAANSUhEUgAAAJAAAACQCAYAAADnRuK4AAAOYklEQVR42u2dL9QNXRTGBUEQBEEQBEEQBEEQBEEQBEEQBEEQBEGwliAIgiAIgiAIgiAIgiAIgiAIgiAIgiAIwv3W765v37Xf7czMmblz5s+d51nrLN733vfemTPP2f/PPvtWgrAF9mkKBBFIEIEEEUgQgQRBBBJEIEEEEkQgQRCBBBFIEIEEEUgQRCBBBBJEIEEEEgQRqAZ///5d3b9/XxMhAnXDrVu3Vvv27Vu9fPlSkyECtcO7d+9W+/fvXxPo8OHDq+/fv2tSRKA8/P79e3XixIk1eWycOXNmrdIEEagR169fX5PmyJEja/Vlkujp06eaHBGoHm/fvt0Q5tWrV+vf3b59e/3zgQMHVp8+fdIkiUDNquvy5ct7fn/8+PH178+ePStVJgKlceXKlTVJjh07tvr169ee15A8SCBef/DggSZLBNoLbB3Igfp6//598j2PHj3aGNVV7xGBFogfP36sXXWIcePGjdr3njt3biOlUG2CCLS6ePHimhSnTp1qJMW3b9+yySYCLQDPnj1bk+HgwYOrz58/Z/3NixcvNp7amzdvRKCl3vjXr1/XxOkS4/Gxop8/f4pASwOqCDsGEmDXpFxzSIVbn8qF4aVBHlN9SybR4gjEw7e4zqFDh9aSyIO8l9lFJ0+eXP977dq1f0jy+vXrjSpbMokWRSDIYcHCKpcdciFdiEqDx48fr99LEDFlQy2dRIshEO66SZ66WM7Ro0fXEscDdcffpgDB7DMhUQxCikA7gj9//qxOnz69edipYjHeg0Tx0oQoNKoOYvF6VRiAcf78+eR7RKAdkkIQwR44KojYz/Pnz9dSB6LYa/z/6tWrmxSGeV14YCRaIQqxIHsN1bg06bNIIxqJYu470sYTpM2wz7Cisy9fvsiIXgos99XHgEgfP36UG780kFXvg0BLr5ledCoDu2cb8pChXzoWTSAi0FZxGAcGM3mvlI2E7STyiEAbECT0BIE0Hz58WL9mCVc/fMWiCCTsce0ZN2/e3PO61QH5XRrCRAg0dqE68ZwoYaJLHr02ItNjq96phA1GJRBqAnXx8OHD0a6BOiBPDiLLKfg0CDbQmMX1BDORmgRGF0sgVr5/KOSUxoA3oiEGMR0KxcjEI2mwjyA60ecpuO9Wi8S4dOnS6LtERiPQnTt3/lEdeD1DgnyXjyiTmvBlGn5ArAsXLmx+Jq82NLDN4nWNtfBGJZDfwGdqwyTAkCS6d+/entwXKsEMZvJgFJ6RIOVntv2g7vx1s4d+KJD8te/1RB57w+PgBGLVe6+HB4QYtgpBHhBSoDRIfPrk6ZMnTzYeF7+3xCjqyx5alJy8d2jyoFq5Nit2s9+NtUtkcAJFl9jIgt3hV1XpvVfe9qF8w2wJuz5iPUgYXrOqxBTxSqsQX2/E4jJpQ8mtn8dYw7STBPKb81Jbhf1Kq9vkty2inYNtgVrlIaTsHyO1vQ9y+ess5VJbNaR9ly/+xwmJXUTG2CUyGIGwH7zBah5PBJ5FaUnki+q3HUisEkVk1Ch58qS2VEdbEsk4dHxoEAIxwaYKbFTFftDlvnKQSSlRLuE3CXYd2B4l6qB9rTUD1z3Hrfc25U4RKGa9IUjdTVL87h8u/4+7J/qSil0lEeqjxDWhhjx5mspkscniQhiyAURxAvl2cW12gaK6fCYczw2pUUISxVxYDnlKSB7I49U8Cy1HPUZVVmUezI5AxFVsA16XYGFcjUiLEqveCudzyMP9lLgGS+t0XTAxMMt1DlGjXZRAsUwiZrm7GJOlckDxWqsGKqVvIG09gbuSNIZICH7OlkA+ysu4e/duZ+OO1eknBxXSd+fUOPlVo++HAnm8DUOIoKuEY379TpEhXPsiBPIdvaz0c1vPAO/MJgeJ1HcawSd2m9z2EoFC5quPxubMs49TlXJAihIopQ54QBAAD4FVgSHdRkdDGLOnUGt9w3tjkUyoF/vu1BbnbYF0Nhuvjd3D/DGPzCfzyvymHAJia7MiUDQIqwYPJsfL8J+HaiwBs7OsZQurGGnD5GNz2aIoVUxmCWU+P8fDgzw5c1x6z1oxGwjXMucGm1SRT75ihJcIkkGQpmpDUwsQrFSw1eywnMbmqVrtMfasFfXCfDevrltj/IMrlXFGbfj8XFPEtxS4DosD1UWfAeUmdfPKvA+RGyseSGzawFdXmGUHniDJSk6GlWzUeVlmpzBKNlDAvstpKRzja3GUsBNHIRDwWfbUSOlo746WLjJDjTaVRfh7KBERr/quVM4QtVQ3n0MeyzBYNj7GJ+pqWZigWG5REqxWH69qsjlyG3J2hVVBmhEcvdW6ubTCuJ0jEEahL8WMxp63b3w23vR5yVgGq9y+q8rL8wVv1r2stDSsInVV7o50xtAYtKAM28E3ZErtcvAn5AwVy/BR8yrxT8TY9xUqBTyw1AKz9A1B2iopPsYOjcFLWiFRapLM66gzDktVKHqVUGWsIwFLq4m6tjMmhbwxbwOPbKztPaPsyvCdUn1xFqphjAIuX69UFZci99ak5rZ14evKSgi6xg0JFnYYs63eaPvCmLC429Mbj1UD6dX3hPnvrbO1TLVSkN/3gor1zanhc1wlF9QsCGRqoUtZKcZ4nyTyW2Tqsvy2+vvcAQF5otOQM0oV2M2KQBbE69KnsE8S+URqnS1hErOv9i6x/jt3oM6mcnriJNq7+LwZq7uqtAL15V9rCvfnwtIHrOo6WK6qr5IOn45g00GVGuO+LQQytZ6Mk+kPRLQZQiABqnZMQDImz5OoKvDXahIy27aYrcTD3hY+t8bnxdpxr6qwc5gXQhlTOyFosg2mYpmnJwx2Sl8k8pn4plofe+jblnRE8lj5SKr+euoH/U66Q1kqqIgIh0D+3IttYjM+MGf735sCjlxDH0FLI08qt8V9l4x4L4JAwKcZYm4MI9SnR7rsU/eJyybvyr+3S1DTk4esv7ngKekzdtuWnSEQ8NudzRay0D6emCcRMZrcqGzMOzWpQp909R082qotn3aIieO5Hac5CwIx2XHXhH/YkUS5oX3vQmO0N8VV/NnyDOqVmoCU8YHKmLOKwVMk05zOpp9Nl9bYEwcp5NMOkUS4vnVlF34jXvysOlC75HeP1tXe4DF5Yz+SB7ttiEYNItD/QEL4ZGvcshKz/agGiEJlH3YTqxsSxhBB2+q9WKrLNUFYPp/vw36JJaeRPHE7Mp7dFJpmzp5ArHBWJgYntgATj5jnwacy9XErDCTiQeZGdbsWqzVVWfqBqvPkQTKm4lzcH/fJ/UJA7p95QMpNlVyTIRAqJJ7P1abZQbRfmPSmz9q2y2nKe4oph9jNlfBDl44g3AuLaWonA41KIB4e6qNLPigVsY2rlBhP1cPCNtk2k83fV6Vd+N4YBOTnpmL4nEHAcyqnBI1KIL+dpo+ROrMUUsVSWt9rsI97iOoodcpzV8lTN0QgRyAefts+PamBEZ1SS76pZt+7FrxBnCp3xS7L7f7RtFHQV3OKQI5ASAl+jq3wctWXlwKpgi8rWy0VpIOUkCgVQfaBUK41txdRVInYP76kVQRyBLISCTvDq84A5jVWNN4NHgvqCO+t6ugEy3Rj9JYM0qG6kBJ+n5uPQONhEXYgDYLDwPWzcHAC6nbw8hm2a2WIHbKzJFDcoYrNwAOJROJn1JS5uKYaeBDEYPyD4O8JCbDqIVfpjl1WIIYURZX5mBTEQnpAeO6Ba2VbN2EEJFQ0rrkP/j7aar5+WwRyBEqVSLCSOeQET43JbNpnX2c7lN4M6I32bTwtyAexqNRMGfreIVg8gTAubbJT52RYspNVC5GQSkxualvQFPaJV0WZc+JYSCcWDKRBukL6aOyj+iyNwt8okLj6t5W/r+uJRyyhihD9TCTqiNeZeAhVZTMN2fLWI+a54m4KSAJBWBRIR8pW4sLw24foru8dBe5dBPrfaI6eF+qKia3rgcNDYIKRUnwG9gf/h5DYFUitsXZrGrgOnAOuA8kJCSzYySKANLxeJa24P66fz4m2nSLRDkiT2HGd1YZKy2l+2aXhZl9bYrru2c/pgo+U8YsLEiFRp1TuMalkKuUPMUaCqxvJlToMrm0KAhti20adELfLUQx8f9394OKTrPVlIzgZQzkCsyWQeV5RpfGQfC1Q2zZ5UWWa679ty147fYiH2yZEUJfCIQwQUx7Er5SNb2kXof9zPZk2EsCnNNqWpUZ4UrcpBuM7c+7L1PiUMemCMqRRVU8hP3LtmVSBftesdqrNSptId1N/Q7y0ORSYzaIiMR5428WIxiBNSbSuRxdY/8aU59RVAhlxSjbTWiSB/KpPEQljkwdaRSQIWJfAbOvFIWXqKgeqpBrEgWDxWiAOjsIUmiXsNIEMeCOp4ykJJmIYI21MlRCs895MalQdflcnzZrUqsVwjPhIlkgcrhebbI7EmTWBvI3Eyk0RhIeVW4NDBLgNcmuu+dxUwwSujYj6nFTVThLIqwZSGk2Spm6QvMwBEe8uddtGHAKBQ5zjJQJ1AAE60h+ot5SNgjSoevi5Xceq0iu43KksPNdBKgJ3fJeIs5MESkkmDFqy42Yo++RtJECOC56qBICUJsGIBWG0YyfN2bYRgWpQ1ai7qRsGhEiFAkq2/RWBJoi4xz23F3Xq3I/SZbIi0IRDAXE7TuyYHxFJN0SZrAg0YcRToeuOn6KWJ3pUJQ9yE4FmAp9cNSkU4zNIpZghn8rOUBFoZOA1xfKReGJgPJN9Tg2gRKABkNpJYbXZsUCeso0lG80iUAWoUfZBRtsg6FUXJJtjDx8RaCDEnRQ+NYIUyk13iEALRtVhttQoCyJQI1JHUVV1/BBEoCQIMvodoEsPFopAgggkiECCCCQIIpAgAgkikCACCYIIJIhAgggkiECCCCQIIpAgAgkikCACCYIIJIhAgggkiECCIAIJIpAgAgkikCCs8R8TrR8zfwm31gAAAABJRU5ErkJggg=='
p31
sS'version'
p32
VV6.0\u02b2
p33
sS'uni'
p34
V\U0001f531
p35
sS'desc'
p36
V\U0001f531 A trident is a three-pronged spear, that appears similar to a pitchfork. Often held by Greek or Roman Gods in statues. 
p37
sS'browser'
p38
V\U0001f531
p39
sS'annotations'
p40
(lp41
Vanchor
p42
aVemblem
p43
aVobject
p44
aVship
p45
aVsymbol
p46
aVtool
p47
aVtrident
p48
asS'wind'
p49
S'data:image/png;base64,iVBORw0KGgoAAAANSUhEUgAAAEgAAABICAYAAABV7bNHAAAAAXNSR0IArs4c6QAAAARnQU1BAACxjwv8YQUAAASWSURBVHhe7Zo9aBRBGIaT08bCn9YfxEYCdoKKiIU5AiqxE8VKQRsVY6OomESRSyQRBTHxpxIUERUUFIUgkjNWgjY2oihaiVhaaJn4vrfvxtu7m9293bkbg/PA8s03O/sz734zs7M7HR6Px+PxeDwej8fj8Xg8+SiVStuU/CfolHXO0NDQ3pmZmSudnZ2LYW8ODg4e0C6nzJN1SrU49GHXdnd3LyiXyy8qBRziXKDh4eE1MOMQZXmQEwB/c7FY/Do5OflOWU4oyDpjenr6FkxX4EVhVLnuk5wKhMo/RaSsk1sHmxy2y4oyJzgTCOKMoPK9cuPoQpRdU7rtOOmD2ClDnItyE0HZVei0V6LTfqKstmF1mGdTwNM+xnShULjU39//vrKjBkXPSbmpQH/0FkP/erkR0l43C1abGCrxCBXfz41pU9+BStzG/p9M04bpapD3jZtc8lg2Aq+BcpHrapcVrAnEDhemejQy9h18whBpEypzFFGxBFmfgj0RvmPfCth9KLcd6aEgO4quEbmu7sUKVpoYbmgMT++I3AioXOJbMY5/g+MjoxmOMzapEBx3H8ftlhsBx4/j+D65mckdQbjJAZM4hGGPMiNyrcFzmsQhvCfem9zM5BKIoxHM8cCL5aDKWgEV74MAaTr543mvm1kgdcCncaOV+VMcLIOQv2LqtJsB4vDNuhR48ei65/NcN7NA6BwPwTScIjSCNxsOxTnZleahhKDsct1rJvI0sV+yzfBbNg9ZzpHlXitkFggjxCmOUBxtsI0i62Ow5y/hPmxT2Dia5R5VeA6eS+fkdetAfnhdWo5mp7Sraay9SaNvyDRUkzzHohOeUXKWtMemIdco9j/gBUrAC5SAFygBL1ACXqAEWipQ7dA9F7Ep0BfZCJo7tYSYiegP2dzYFOirbC27ZK2DF0LTR3/TvTSNTYFeytayM8VserXsLGieC5VsiM65NfDqeCabG2sC4dV+gq/4cmdBRTmLvyC3DjZBlpFbTVecsDxno+M0zZiQmxvbnfRt2QioSC+EMH1VNDZB02cKnovnlFtLw4/7WbG+uqPRxDMET/dBoVA4F/6WQVnO7kuGCGJ5/u1AQAyO0WdEQbSzKG/6Dm1tkhrSCoE4at0zVZqoKS5FmciCBRMoz98/303CE4m5x2bzItb/rJbL5c/FYnE+KlNUVh3YtwzbIrmJsCyPkWtiGOLcVNoaLfn1DJFecX0PKrVZWS0F0TMKcc7ItUrL/s1z8RPX9+DmNzQTLc3Apodz90GcS8qyTksXL3DxU09PD4d/RtNaZedG/c1ddPiHBwYGWroKzXonbUIjEIftjRAr0xwNwrBzfw1hrttcoBBH2wSqRmI9h1CpRzE0I/6nbzu2XxRToad/J/BScUO27TiJoBDMxj/AxP58ZLNC9Fh9+WsGJxEUgspfVTKOhtOXduE0gkjC1GQK0bNFrhOcRhCBOJV5lgHry2aaxXkEEUQRlwNHZueInmeInh1yneE8gsQ4BJldp8g03nVOyHXKPyEQIoUz8IeBV+Fhu14E5xRoamPc5Ho8Ho/H4/F4PJ45SkfHH5/8DNOczYhbAAAAAElFTkSuQmCC'
p50
sS'andr'
p51
S'data:image/png;base64,iVBORw0KGgoAAAANSUhEUgAAAEgAAABECAMAAAAV8YMOAAAABGdBTUEAALGPC/xhBQAAAAFzUkdCAK7OHOkAAALTUExURUxpcfzCG/zCG/zCG/zCG/zCG/zCG/zCG/zCG/zCG/zCG/zCG/zCG/zCG/zCG/zCG/zCG/zCG/zCG/zCG/zCG/zCG/zCG/zCG/zCG/zCG/zCG/zCG/zCG/zCG/zCG/zCG/zCG/zCG/zCG/zCG/zCG/zCG/zCG/zCG/zCG/zCG/zCG/zCG/zCG/zCG/zCG/zCG/zCG/zCG/zCG/zCG/zCG/zCG/zCG/zCG/zCG/zCG/zCG/zCG/zCG/zCG/zCG/zCG/zCG/zCG/zCG/zCG/zCG/zCG/zCG/zCG/zCG/zCG/zCG/zCG/zCG/zCG/zCG/zCG/zCG/zCG/zCG/zCG/zCG/zCG/zCG/zCG/zCG/zCG/zCG/zCG/zCG/zCG/zCG/zCG/zCG/zCG/zCG/zCG/zCG/zCG/zCG/zCG/zCG/zCG/zCG/zCG/zCG/zCG/zCG/zCG/zCG/zCG/zCG/zCG/zCG/zCG/zCG/zCG/zCG/zCG/zCG/zCG/zCG/zCG/zCG/zCG/zCG/zCG/zCG/zCG/zCG/zCG/zCG/zCG/zCG/zCG/zCG/zCG/zCG/zCG/zCG/zCG/zCG/zCG/zCG/zCG/zCG/zCG/zCG/zCG/zCG/zCG/zCG/zCG/zCG/zCG/zCG/zCG/zCG/zCG/zCG/zCG/zCG/zCG/zCG/zCG/zCG/zCG/zCG/zCG/zCG/zCG/zCG/zCG/zCG/zCG/zCG/zCG/zCG/zCG/zCG/zCG/zCG/zCG/zCG/zCG/zCG/zCG/zCG/zCG/zCG/zCG/zCG/zCG/zCG/zCG/zCG/zCG/zCG/zCG/zCG/zCG/zCG/zCG/zCG/zCG/eTKfeSKfigJfmmJPy+HPzBG/mjJPicJvzDG/eYKPu8HfmkJPibJ/zAHPqzH/y/HPu9HPqwIfq0H/eUKfifJfeXKPmmI/qpIvqyIPu+HPqwIPu3HviYJ/qsIvidJvu1H/eVKDqyiRQAAADPdFJOUwAE+v4PAvsB9QMQ3Qa329UOzOJd/RY4HE389CYqG1/Yu9foCiK2qg0Lx/P48rPvxffeLXYXSpIgNOcdiAUpykivQVWGrODtQju8FfHkRDmunhL5qfaEsuWMMGjC645PWBQvGidqCPDBnB9xMxmj2clwdNp4Xknucny/LpVcYUcyGOFgZUvRJM7Nk1koa4+JU+w6dQfPsBNA6j95g9BuDBFUwOmR1He6gWyQ05qAHoXcveYsMdZafiFkp2mNq1F/yz5FTsRXPTyHbWcJY7W5vovfIMAAAAUCSURBVFjDpZj1Q9taFMdLKW2xrrS0eHEYWmTYYLjLxsbYgOEypm/u7i5v8rY9d3d3d7srMpg/d/sTXuQmuScNK23OD5B+b/JJcu+xG4XCkXl9kXLWOFUh205/FoxQ6ik32aAPFyLKos7J5YR9hBiLvUMex63MnwUpMz1kgYraETbD7bJe7AHEW8ps1zkFzUECKGmVp8ug7Q8iwipmusqZ9jwCVuzlGsfzETUEaV/XOAXwCu1lLtjsjUR25jVa1/SGTubRavsH0xP66Jk+5C4GBT1GR0pfQvpgf60DzNQTNUqE1Beow9z5yM5u208NnKOWUllz4lZx7FPVlEifv5ByPo98f3tQ0CnqpT+tow8Tm6p8JsBoMrZEsef7UnOQMwVJmNWkUKh82eOoLRmSkx+wZjW3Oh9TP41zpEDaLGqoS4t/rV4TYIeJ32rlF7tYT619oxQHubdQ56rmcT/V1q3x8K3McVr+5LpASrnXVxKEmug4CawTHjHOTLxf9NEK4txYFS1Rd03OU5KMpBeoXBl3mn6kWDJyjkZzHNUxLTEwdy3zjA1PPF2yuT9P0J+zZGx/tsXMXLF2Ljlvx1QsZ+A4uPE+YgI1r/JOqX6TXJh95BXK4wOMWt0OprOMzBbVlZy+60UyDMuA17dXM+phIK4vIVchNJ3TD+wk9ZL14OaHGTHEjxQLu8kLZvCB62ci9e5C8hq/EHYiWjtSClM5MdttMiC3bE5Pfi+lo5XzAM94U2ckntNtCmnQwWlgYBt238hOUzxMwS04gMwK6TliAl8wMw7Lt8Qh4nGIHQgPA3Iu70h5ubC+hLPyQ+Jy51XDDiyIBnID76raBjAQvYCVHxUnyxCcxpbDJGMUlsYIU9dyVp0fIgLtDWYH8uGj3imAMuFU5LNq8F4RKBPnwzZ4erYAyoa3aGNV/0xR6VnE6mmBsIeYJYBmFYChwDRWXgQXX4/TT/1SIKsIB14BU9jSepyW9bCoJmD/WgzkI0Rp8+4DQ4uxBydAR83BbjFlOpCzggVQcBYYmo6LQ3gOkGN0kqCVZGiulATpYqRBoCz4xJGgOOBiAdKgZTiVGHqAl4Lq7w18r8eAs8IyGCEROGvuJlULqG1zLOTYbpyfI2CMuDWSJYRrBMphKSonyj1fSBpFHfgS3OQl7hEcuDQVglJLBZffk4i7gSWiEJnJZXlDEVdBinTi6qgr4lJhFp4hVCnuB/V8ZX25S0WfPvseg32dNTx+H30LVVckp4gcm04YfM1L3tRsLN0QkSRVsdMiNpQamzcl81nqFbsuQlWMXLA39PZtzbqTznPqzVLtWoe/sxz1Rsnd1zM1zoKKJ2hJdzzpHCdhxkTNaNXdznBW5E7c1u7wnfQ8KctDb9Vn79xYMTmObpWDXZemNf/hJEcUrd9doY73EJqczrKzB5h4vf798KWhoavD9N9Lv/x2ndZOHnz73XW9k94YmT6IoNqvP3600XbxIvPvvxvjyL38k1on93903fqVYghm+5uKw2qnd2sZ1H7/h59tPMpm++vPcZQe4/y++AxCozeu/jQ2du3y5Wtj/wwN/zuK0GC30yCPz+kcOHpzZOS7K1d+Hxm5OTpObQq+cmH3/2WbtTKJ2Iyq085/axlwaVNr6qmy4H4K+X9juZAh57PGESsL+jpM7leWd5jm7/z7sj/76JkW6Skf+V+iSnZRLcdL8jmKgvvnpQQ6/nLwP395oZeNbtbqAAAAAElFTkSuQmCC'
p52
sb.