ccopy_reg
_reconstructor
p0
(cemoji
Emoji
p1
c__builtin__
object
p2
Ntp3
Rp4
(dp5
S'emojipedia_url'
p6
Vhttp://emojipedia.org/rocket/
p7
sS'index'
p8
V508
p9
sS'code'
p10
VU+1F680
p11
sS'apple'
p12
S'data:image/png;base64,iVBORw0KGgoAAAANSUhEUgAAAEAAAABACAMAAACdt4HsAAAC8VBMVEUAAACJFQKFEwCZlB6CeC9mXSuYlBpzcxaYliCGFQKvcxSAEgOLFQI+Oj4yMDNAPkCZdBVHR0s0MzZLSk4xJidrDgGYkB2ZfBejlRqDHQN5EQE8Oj5LSU1BQENCP0RRCACeaBKUFgOebxSgVQ2idhY2NTg6ODw+PUGZXxGZcBSAEgMtKy4tLS5AQEJVVVlAQENXVVo0MTRVVFiCDQCYcxaGDQGkUw1WVVmoXw+sRwuZhBh3DAGYgxmqcxVmCQFRFQfCPQSYWR99EwFUVFenGQPQ0NvAvse5uMHU1d+dFwJSUVWwr7jFxM7Cwcve3uhubXC2tL09PD90cnfb3ObNzNe8HANOTFBZWFtfXmOJiI+sGQJycHVgYmeGhIt6d36QFALZ2uNranBbXGGcmqKYlp+TkZlnZ21RT1J/fYKEgYempK17eoFAQEFEREhhYWArKyvIx9G4GwN3dHvLydO8u8XNztk3ODnGyNKGEQHg4eqgnqZYEAqzGgOjFgKZFwN7DADj4uuuq7RlY2ijoaqVFAGqqLHR0t3V2OKIDgBuCwDBHQOQjpWwGQLJytV1CwCopq9eBwBJSUyBjZvn6PJVAgDizyfOryHfyifv4SuGhoaRkJhQQkbMnR1RJiWxghjl5e2Ll6doBQD/KwVqamuVnqw0MzOzsbooJSa/ixnZuCNRMjPp3Sqcoa329C97e3uQkp65ZRFJKyzHhxncsCB4gIqanafViRjFZBGzPQm2fRbZeRX9MhKPjpBud4NrbnfuxCS5xdE/NTNOHBpjanPtU0HjYA/x6i5eOjOmcRR8Oh3VmiDGusPZwyXSQRDG0+DPwcr+JAH7nx79HQOOnrCYDAChpK9HCQUgICC1bRPkqh/tvSPmnBuaXhDGnB3JVA2+lBxKPD/LpyCKTj6XPSS5NAfDpyDTxMxmJiKCm7DWlpfzlhzdf3n3QirQrLJufo1sGBDkZ1rsMRX0cxXaIQPblRzUBwA9IBWEYGX4zyhcSUxyWEqLTgkDAAAAQ3RSTlMA/jYZBg0JAxBY+v78OIgph3Jqq6KZIjgwMpnYz4BOmc76u6hzxPH4lqlQmV+z5NT6W9hMZufe9+f+TOdO5Oji57OgjoepfgAABxZJREFUeF7l1lV4U9kWB/CGFhIIpaWlVNBhGGzc3e6Ju7u7a93d3V1wd3d3GXfX6+5Pd51D2o8PykmZ17se8vZbe+3/3tlJzP9vxSUsnps85xfi6fFzk595kSVrS/4FmJgwN/kJhU2tc7g1srkPrOMXLXxKY9RpLS1sdj8fWfxgPGHRQkRhDCnzN9ICORxBQ+jFhAcJbfHjMnm52mFhc7Ko1QyGhG0NPRM39diSnpSZ1om0+TQqg2EQ83hiTplVlDx1vkBmgtldHIYBdF5paSmD1qI0TjXDpxe0yWF1V9ggxvTIyAgvTK9wKuKnxOMf8SKw9/wADA4c86VUDtuie2L6VKafs1Km4OusmYYIRzuUMsK0qgb+VCJIQJcXOasYt3VeHvZpkHAE+U7NFCJ4bEWbCZbn8ngjHQZqTUcHdABPDdPKLLqnot+COUKZQu2oqObxOgQ2zwaPwjUykscTUyUcuktpXEiMwomPCu0wvkAM6zs3+YVeb7bfKC41UCUBGtvsUCyK5ucJWeUiJZcnFncoP/Ygcp/PJ9/Az6uWhLn0lgYREu0QH0V9Q4BnEOdx/R7Et44P5fObGWEODOAsXxgXbf/grVliuDwjbj940U4onx/JCtAELf0heZQdJMH+wRtqDAYDD8mG74Gjr69vnV2Yncmhl5m1RtmkZ7AmIyMjJSVlyZJ5K+3l6gZJDVbiNo+Pv7NPeVwkZ3n8AtpGV7/O9PhkfiaZQCDkltS1fnSGVa5W5tQwgDNqxCYP3OW+4zt9cnt2Np1eZVYaZYsn87Mri5nFenJd5x7wWm5NNQMrnnaDT+1QgkdkfjmNXWF1m56Mm8wzKRQKU08eO8vSqB10BrUaK4Yh4LHzHWq5HLF7NlnoLgsMkDSJf4ipKixUFembCwY0andVNRUtrAPPnC0vRxCWTPixkV6Vv2u/fMH0SXxRYzBYqGLmju2B+2/OAj3egiHO9/izhdl+v4heVmFpt7UlTeIpjVKptJCiLylg2UJKLlWSBTU+RA3NgXhl/PzMMteB0RMIDHCvL5TW10sbYYCtEAA7q0kCFelAlYTDkgCXRqOXtWwfbVd4n76Prw9SKksKEKPO0gSFNoDlqdQsSZiDasHGsqrt60dPyh4h3pu/KogNUFQLA4ic9KYctEOW5NZPP1ElkgD4TMx/uP79/cjK+Hu8Hg4gCBGiA7CMOnMOJwc63Lx1/tixG7eyAtyIb/lw+/uwgTn3eMLs4iKKSqWiMAl1QxqRVsDhBHKabv7h9++s/RvlWhNw8Owq1P/6XNvdCc5Ery9BD5cQbmFJ64BNZ+ZyOZycm785Br6o+BoHW55dhvkTshV3byB9WqSefb6WXFcgVzvZ0CCn6XdrUf/BFToX81Uu1P/RLnws5r6V/mpd65AmZM3M5OYE/vzOWtSTFfTb8bm2rwfPEuL+p0h9o/Mbm7siM/P0tfOYryT/RySgC2D8ioifh+eJMalvyoxaduZpiA/zuZfOOTeCd034OBweRyKlvY2o+wWnIT7M117S6PrZsH3Mn7AL5xFxfezyt743hQ7Q0fgw/7NJpLRUtVTkHwB/Ugb7x/XzH/7hxnea/S40Psz/SX7SaTW78s3g2232FUl4+aH+8FcX/nvOeX7C223uBqvFbLGsH92vYZ3Bz48Uu+rwoaNHff/6y7hvHtCEtA1W665do+1qBWvPR0vw/AzScy8fOvj51e/GfW7zVhPfoVQeb9jV7raZBs52ti7B3UDaC7sPfvrZX4FH/BBi0zmdWqXWbdSw9hSM1dWl4DSYQVq1e+++U3f4s20mY0jnduuMGmRrwVgzmVySgpdA6kt793124b0JX+BhKWxGPt+mYQEvydXr9bkpeAMkfjLY9ds7/AYvS25SKOQDQxhnFjGLCRk4A8xfunnLNmgQ8a2bsoVer/eboYLWupLaSiYFeyoycCJ8ZdZgz8V33xv3/zxz6cr3b7/ZCZxQWURpLAw2UooJv8LbwZHurh3Q4La/fPXohRtvpaW+0UzWMymNQakUfezIa+7fIHYZ7AAaYL7zi1OfH/3qh+WkmNRXCcXwWkvrpUEVc/ZMnAjSXv/yeu+Od//xQW3JWOeVU58ePHT44VgSMSb9eXit67HX+qGZeIf42qxve3p3/PvvVwe/3jy8ZR/q55PiADxbjDaQFuJ6yHA5RNB7cQfUxW1d+/bufnkVeCKAdGiA/t5hHi/D4e6ebb29vdu6erYM7t39wnOxqIeaVkkpDEbzkOHq4R+v93T1XN/SPbj5k5cS00jo/FgDfZFKhesjh3D56x+7u7/9cvORWUsTU0mkGcQImEaAXwvw0Ros/eLy8PCRWa8vS3xlPvC4CTANvgSR88MNcfXSZasTl7+WFksaX31iAkJUj70msbFg0bWJwO9sENVHHtQZUBF8VwNcH73Sp+D/B6N5Teaz4xPsAAAAAElFTkSuQmCC'
p13
sS'twit'
p14
S'data:image/png;base64,iVBORw0KGgoAAAANSUhEUgAAAEgAAABICAMAAABiM0N1AAABGlBMVEUAAABVrO6XGTj/rDNVrO7/rDP/rDOWrKb/rDP/rDP/rDP/rDP/rDNVrO7/rDP/rDP/rDOgBB5VrO5VrO5VrO5VrO5VrO5VrO7/rDNVrO5VrO5VrO6gBB6gBB5VrO6gBB7/rDOgBB6gBB7/rDOgBB6gBB6gBB6gBB6XGTj/rDOOrLB/T3qgBB6gBB7/rDNVrO6gBB6gBB5VrO5VrO7/uD3/xEf/zE3KXDP/sDb/xkj5wEr/ykvhjj64NiqyKif/rjV2Y5NVrO6gBB4QIC2bDytaouFAgbNjjceNLlIgQVkFCw8VKzwlS2iSJEUAAABKl9A1bJVQod97WIY6dqRel9SEQ2x/Tnn/rDNxbaBogrpseK2qrJGXGTiJOV8grl0UAAAANHRSTlMAEAAgUICvz2Cf3zCPcO+/QBDPv4AgMO9QYI+fQHDfjxBQv3DPIJ8AgAC/jzDfzwBg769AjnA6bQAAA4ZJREFUeNqt1WlX2kAUBmBS0FYsIhiwCAoCEqlLECGKWzuRxQ2Rzajo//8bDRMyN2RmMlh8v8g5Hh/mLjP6viaS6lPnSywgl6MIobmgWCK5hXDmgeIbUSzMB8VC+CiQ6H9BgTJyp/x5SILDOCJ/FpLkdcRKQAAJGEgMoHkYtKV+AkpAb7pdF5ScHYqvoUme7h/N3D85ocSskLSBJulcP05y3QEoNiN0vEWcu0eSuw6s40yQlEQk+DzkTLBFAAmPg9N86Deb/Qf7WHaf4rNAMqLTvbWgezJ8ISStIWaeLAnhhMTQMXcFbx1QTAiFEDfdOwKVVYCE06LzQKAAE4rkdTNZM7tR5JW+3ewtlQXtmI6Vegt5pmmPP8SC9o/EDkB4IdclBrRNHP0NCdKfXBFZpaGSTtJDotxed6wD0VAanDZipfHacJQG18wFFXQIq0GDoa6/IlfWJQLB2CHPDKdXN3/RoP97AARjJxNrUEyrrZsZUm+1BBCM3aPTPesLBsiVhAoQGTtk4O5Om/MFa+o0VAKDVcBLnTfKuBOCsbN3sTHkjnJDnYIKLqdOdxkKozsNUCq1mXbO7AM58lbn7+gxKDD+SIkc7AVBnuGcA25hANnWgasVDVIW8HRhAEFSWfNPoD119iShMBoC6uCGTF2HtDl3g4Yge8jK0DnIFr2KQki22nPD3yy49GKo9e50ntkNEkN4eyA3lBNShVDm129oM+9RSaoCKJM7NIwRtJlzxaKqN+RfMsYZgcPexNbuN1Z89oeFsVKpaiecNwXWNKuw4rN+ZMImc1rTtDMw6EZbc/CEDsfOuaZpF1POe4N+cz2hn4aZmungyuiNhsfJG1rG/dHGufR4K+1HhQ+Fx1AVQ1e8gQ16dV0E+fHcNRzOwN5gKXiQ3aE/ALmc1t8PfBgxFGRBJ6PRd1mW99q6O3ketGy4Sru6PLk40wwjVzRzQDkRHmTuNGk2pGoY/jGUcjlHOwobwjMj44dUjGARJzvt7CtcyJik5nRquDL6SNsKD7JbhK8IyfmpVZm7SyWFD/0wiFQj5zGdpeIkJXDSige0YEAqVdznivlxxW9DEeIUFC9o0WAmVyQpwAJ5QWEWA4VBbfmINxTkO1AbLBAfYjAruC5InrlAYmjJ6jMkDQvEhzIu5TCXKbqzCQvEh1YdSHAx5y8ykoIFEkAr4fBCbpUchYIKihhSvij/APunQ6Y7NvwsAAAAAElFTkSuQmCC'
p15
sS'gmail'
p16
S'data:image/png;base64,R0lGODlhDwAPALMPAFm9/yswOuqfArK3tjJo/ZXc//8QAS489RAxrflECChirGJzk5OapEKM+qFaXwAAACH/C05FVFNDQVBFMi4wAwEAAAAh+QQJMgAPACwAAAAADwAPAAAEUfDJSautrV3aQCPIRhTFd4QWAZQEcVQB0wGti0rLMHRKYE+B2A7QQ5xuAYmjUTxeEkUEQvEUBKcMhsUg6CYcumSFK0gYHgzHxcA+P8QbIJwSAQAh+QQJMgAPACwAAAAADwAPAAAEVPDJSV+7pNYGGjmaRBSFdyAhAZQEgaBTwHBA+8FSMMyAEtwx3YDjQ5xwsoejUTyGEsUXjpIQBAIIBWOhMQi+CcdgEOiCDQ9yyJAwoB/lCrtyDdk1EQAh+QQJMgAPACwAAAAADwAPAAAEU/DJSV+7pFICQCOHJhFF8R2IyHkEmE4Bs3TK4VLBMNABgr6P2IDRUPR+IocRwQRSEo4ecyEyCAQBx0KnMSSuiYQu0A0nDA8GuWtAS9YVt2hOl0QAACH5BAUyAA8ALAAAAAAPAA8AAARU8MlJX7uk1gYaOZpEFIV3ICEBlB+CTgHDAUR9UsEgA0rQwrkBp4c4vR4xhoxoDCUQAZfLKQhEFYyFxiDoJhyDQWDrNTDEIUPCYHgwxpVEomIN2TURADs='
p17
sS'related_to'
p18
(lp19
V\U0001f320 Shooting Star
p20
aV\U0001f315 Full Moon Symbol
p21
aV\u2b50 White Medium Star
p22
aV\U0001f30c Milky Way
p23
aV\U0001f30e Earth Globe Americas
p24
aV\U0001f596 Raised Hand With Part Between Middle And Ring Fingers
p25
asS'name'
p26
Vrocket
p27
sS'known_as'
p28
(lp29
V\U0001f680 Space Shuttle Emoji
p30
aV\U0001f680 Rocket Ship Emoji
p31
asS'default'
p32
Vemoji
p33
sS'bw'
p34
S'data:image/png;base64,iVBORw0KGgoAAAANSUhEUgAAAJAAAACQCAYAAADnRuK4AAAMmElEQVR42u2dHdAWXxTAXwiCIAiCIAiCIAiCIAiCIAiCIAiCF4LghWaCIAiCIAiCIAiCF4IgCIIgCIIXgiAIgiAItvk9M/uf/W/37t5zz937sc85M3ea6f16dve35/ueu9OZmChkx26BiQFkYgCZGEAmBpCJiQFkYgCZGEAmBpCJiQFkYgCZGEAmBpCJiQFkYgCZGEAmBpCJiQFkYgCZGEAmBpCJAWRiYgCZGEAm6wXo9+/f3adPn7pXr151z5496+7fv79Zt27d6m7evPnP2tvb23z94cOH3fPnz7v9/f3u3bt33ZcvXza/y2TlAL1586a7cuVKd+HChe748ePdzs5OsnXo0KHu5MmT3eXLlzegASRwmqwIoLt37yaFJmSdOnWqu3HjRvfy5cvux48f9oRaBgjNkxug4Tp8+PBGQz19+rT7+fOnPa3WADp69GhRgIbryJEj3e7u7sZ/MmkAoG/fvlUDz3ihlfDPTCoG6O3bt9UC1K8zZ850Hz58sKdYI0D4HbUD1C9SBuYjVQbQvXv3mgGIdeLECdNGNQHEW90SQH1uiZzSnz9/7MmWBghHtTWA+nXt2jWDqDRAFy9eDH5g79+/775+/frf+vz586Zk0a8XL15sShkPHjzYlD0uXbqUPLM9XlevXrVySUmAzp8/H/ywYt/2X79+baI96mUAS64nJUSAatnsQgBRpwp9UKkEjUGh9vr168mSmGfPnjWIagYIrbGEEJY/fvx4UxsziFYMEN+3pGAe8Z+0IGEizSfaQoDGIB07dkxVAjGIthSgXjBFRFgGkQGkErocSRzGRmcG0ZYDhJBfMogqBSjUaaUGVVI0RV+DaEGAJN2IpYVw3zRRZQBJShk1tFIQocVCFOtY8zMfP37cNLdhTvHL+p0qrCdPnmx6uyntrLU25wVIEukcHBxUcTHs7NCYs6mHzEvCtiTaatHO0rIL/d2Uh4Cslvu1KECSdg6KqbUIBVtNFX+oiei/5vcBV6x2m9J6Nd235ADRVxN6M1DTNQmmI/aBA9GjR4+SlFBC1u3bt5vupkzS0spbWptgzlJrjaUWJrHVWp0XINRr6A1g92qNgr/RShNcqwXfJNt62B1Rq2h8IoNIARAi6Rqs2Y4bRIUAwqEMvXB8jpqFvIxBlBkgyZtL2F+7GESZASLDGnrB9Om0UBIwc5YRIPwaMqihF8wOjBYkBURkogkeMPPkzPohWsOFxkMzU3BeK0SzlVDJ/jCSYq2IBiLyNuwokQjJVsnL2EqeaBYgSUKRnRQtZVU1EKFZpAXS169fRyc3a9VEswB9//5ddKG1R2MpHesYiKjax2qiGiEKauaRbDKkhtRa60JuTcRmyrVAFAQQ9ltykTR4tSa5NRH3NNac0asl9cGKAsTNkWynIUJhj3xrklsTaXu6a4BoZ6k3FFXbYhdebk2kaYKrwZwFA0RxVfq25Ajr+VyMI+53kfAvEGiiwdwQaboGSkMk6ohnNIv0Apl0tpSQuPSZVv6ffuWWNFGLGwN2pG97zEUuARFv3dwED77eEkR0Qra241a8J0fS6jpcPIwSvkpJiJi4L32oGkceiHI71mKAeKti+4VTQiTZdqSFCF8u5+ZFDUT4RDmrAVG7AnkYsYmwVOZMMgArBUQx/t8wbyN9qBrNl9Mnit5Wys6H2AtMAZFEA9UAUYxmaAEi1b5kjWrXQhR7c0tCRFU9FCL2pNESomkFyeFYqze2S9peU0LEg4id9FrSsXZpIvxKdsGg1XnoKQ+5WVoTqQHiw2lmSmsg4oC62IllWog0ji4PFWCoGTJQVDN1rbQmSjJagzeIvWEGUb1rqdpZstksBlH9awlNlHS4DxBtoznTBBMlNFFKiJJPh+LDbaMm0kRnOQ+joTmQYe7VAtSL5rQfTcbaIPp/Xxb5MroVaGCjllmtD+QyZ0QY2wZRyWOy+Oy4EGhx9vRVn0g0x/rf3FRMhjx2Uc4BWHbOkBZoohpvPtEy+bDQJCTAkHCspWU4y4jVtUOkvT6f/4LDi1+F/9LsxsKUEGne0Fp9IpJzmqMXxg4veSU6LVsZPZx1yPPaNBHwnDt3Ljqkpo6IOeKw4FZnVWefEo5jTaeeZihl7G6PlBDhMJOUi70O2lfXIEXGzAOApop/586dopoIeGI1D4tdGGuRYucUaBrIY5vWU0HEWJdt1zzFASIk1TqepSCKXfg7a5MiAHF2RKqH0gpErU0tqRogoqmUD6d2iMgUr1WKAKSJXlqDaE0OcxUAkTtJ2fM7XGRtS0RnaxpzUz1ADFda0lyUSjauPdqqBiBt+F5z2WPtDnMVAEl6hE6fPp1dE5Ek1KQYqGlp+okMoBkJTcKxdZqHmbPHWpthllbxSWcYQEIHOnQ8DNoHydWUlgqeUIj6UwC4NsymARQgNEFJTg7sRdsKMleATQ3PECIq7XOpDF4q+pZbPLkwK0CSQ+y4oUPRQuTLEy0Fz9AUo23Gf9M1OhngCABWc9xTamE7ieYYzdQQLQ3PFER8DvJErpwY38/11zLKtxqAmDahDYVTQaTt54lpIBtDhKBtfJEpcJH2qNm0ZQWINy70hgObT7QQ0dCm0TzSM+OHmsXnWGPefScCMIWESn6NXYtZAZKMRZkCqIcodSN7qGbUJBvpe/YJmpHamQ9QtvHw92sCKStAkkEEIdnc3BANP5MGojknmWh1qu2XoVNU+GsAKStAkqOjQvM3uSByAR0LUejBfJi1qaw4w045LsGiMMfCsQyVpSGaKozi00h9Il9uyGfW0NxTHQwkXQGpxNESWQE6ODgQOaqS6GMpiEKawSTHN/F9MaYHs8dmgqlMPiCxCTEnSNlrYZK3dXd3V/S7U0MkqaoToodc21TPEi/Y3MPHbM5FkJg9TkdcJUDSXZzS1oxUe9RjWjKAaEoTEUX5RqwADl9nkmvIGBZM1twEV9ICrtxT0wBJkomxVXXtpDRNPw8VdhKUQ1MDVGieKTCGc7fxd0KGQJGpRkuHTCXb399fB0CcwRpzYEuMJooxZ6l6mPHfiKJCti3zvS7zR9Y8xA/ErIUcS0oOis/UNEBIrHaQaiJJ8RYtEaN5gCNFPgYN4TJ/mDWc9NAoN2R2Ni+WJBKsDiA+fOzZWBJNJCmdjKv/IdI7tGiKFEJKwHcGSKhmBGauJeT+xlxzFQAhhKRLN6xL2melzibabWh25kovknAdR9rny3AEQojwfXMBS4phm8UAwgHUjIML2TIjOZYK30zqqA+zxLzxEv9iKlzna2gHX36MXE+okPV29ZajOVPki4oB1EOkqYpPQSRJWvbtszER17CUgf8RMnoO7cDfnDNLRGY+U4R2DYUes4bpH2rMpn2gcQSigcjnE0lOQ9b4MOO0BOZn6s3GVA7LEnOaFD/L5xeRB5Jovb5Im8pnqwKgFBC53mTJ9HiJSXDJuDFt6rRql38zFxhM+UW9MywxRylLHVUAlAKicQguOWdLO/EUUzKuyvtGufj2nc2lKHjoUzOo+Z2hDnbzeaClIeKNDf0Z/JYUghYb+yu+tg2Ac+2PI1s9px0weT6/iDxS7kkgVQGUCiJJ2wjmJ5WMjzoATpx5l1DWcPk2bGeaS0ySL5rqQyJ8X+JYgyYASgGRZEu0a/eH5nOPoeCz+LTKOIqTHMuEFpu6R0RcqXJTzQHUP4wcxwak3scOFOO61tTsIl9XI9c+1/oaMqOary+5PahagFLkiULWEs1XrtbdqZwPELk6DnGMQzYZTvWa8zuqPjO1dnM213i1lIxD+7lMta+rMRQifn6syUITm6sGaEmIUhQTfYITO66M84B9TjWC8++CCD9q6ueGicJhdLd0M1kzAPUQpT4NZ6kmqyEQLhimTAqdhq4wHfhCpnhg9mnX2Nvb294obCqZlrLnWVpAjRFXRwDlhCnfC39JewRVrsb6pgDqb0xI913IYW25NKerK2CufOFzjInwcpim1QKUyidKWVCcE0oMrpbVORPq65nCT1ra/K4aoN7Wa3yi3Ds6XcNFQ+Yp+pri8JNqgKhZgBDNFp4SgzBdnxWneirRN3WyERDlyDavFqBYiHBGS2wDdlXt+9LF1OfhGn2zjJZOFK4eoP4GS0bzEsmVEkxnzGYBVxtIaJLRAAr0iUJD/NJT5H19PXONbWiwHiIazGqYpbgagHpNFAJRaecT2F0NbzjVc7OjgYi2kVrG3q0KoBCfCMezhptPLseVccapbmnc7+oA6iMXH0Tkj2qR4X74cVNZCSffAArQRJoDe5cQX3TVyjljqwXIp4lqO0mHCrpvVnQLh7asGiCXY710f0yM+Hq4a9OWLvkLlFA2fljqhuYAAAAASUVORK5CYII='
p35
sS'version'
p36
VV6.0\u02b2
p37
sS'uni'
p38
V\U0001f680
p39
sS'desc'
p40
V\U0001f680 A rocket being propelled into space. 
p41
sS'browser'
p42
V\U0001f680
p43
sS'annotations'
p44
(lp45
Vplace
p46
aVrocket
p47
aVspace
p48
aVtravel
p49
aVvehicle
p50
asS'wind'
p51
S'data:image/png;base64,iVBORw0KGgoAAAANSUhEUgAAAEgAAABICAYAAABV7bNHAAAAAXNSR0IArs4c6QAAAARnQU1BAACxjwv8YQUAAAVtSURBVHhe7ZpNiBxFFMffm70qgnjwkoAXg2RNbhuTgKgEA4IfaERBPJh4dPFjJho/IBGMH2wPfiSggkkOXjyYVdSTiEogG81BIR+IIoh68RQYFE9uP9+rervTM9M93VXdNTu71A96+lX1zuz0n1dV/1fTEIlEIpFIJBKJRCKRSCSysUA9bwy63duB6AZtWRB70G6f1pYz61ugJHmSX7cDwRwLsdV2FkDwJyAdgU7npPZUYv0JlCQ38us8f/VH+XyN6asMHWeB+L3Vael5+hFhkuQYC3Oejye4x1Ecg4jrxPoQqNt9AAi/qiGMhfAqjSoz/QIlyYs8f3zMk8Em7Zko0y2QiAP4irbWhOkVqFycHmfWkj3osvY1znQKJHPOWHHoFB9zcLC92x6dWW4f4As9e705pk8gWa1SeFNbObA4nc5+Pn7RDov4G4TxIiH9o1FlpjGDjo2ZkHtGnCKMY6YPtZXHoKgVCG8Uk6T4hoSsszXOGN/S1ihEp3k47dNWPsYS8KqXCz3F/+9tbVQijEC2JjrEH3+n9hSgw0Uw74FPOBrjcyo64aRLGg1BW/j9TlnU/BCzvoVvtEQcqY0AXrcNJgWZlMtMYLkTLsxY+tJVHKFZgfpLc7nbtYWj/cIL3dc4l3eZeCwsumTaOAju0miYM3p2orkh5mTqXIdWBvE8CPfnZkPRd5BsPdjerC0nmskgF3H8hlYf2dYgWOT/KVsdFhHZFrL53wHpfY2cqZ9BTpkjZFaSslWrCSTjjJH0o14GuYsjE+WKODzh4ssmDkkLD2vkhb9AzuIYh5tdonlIOAwtH4iHco3tVsFPoNJaKQeCd1cnVju0SjxSTYypbD+vLW/85qCsW7Wryjcc/crH36YP4Go+tgPhHr62if92yRSVggwt2fwKub9TxXFXxH+SNlkEVziFRZxixLhlf1lIEi4t8DETB4Fe4kw9qo3ahCk1ijAuF09oq1nEPrTg6bpzzjDNOukyCJ7RqGHYeCLtaVocYXIZZI2cbLo3Ca+MdHjVOgRgMgLZcuJrbTUEeyqxDR4FqAuTGWK2nGgKyRpx43tDiyOEF0gMZaVKvQqSNTQ3MKSyNVkAwg4xW06c56ieY877Xd18trhxNpyddrD7CJtBBK/ya81yQleo0a1Z+Qk6rBtnwmVQXc9TljVZ1mkGPaRnD+i42eDKiiO7jhPKmiwhBZo3dZoLUrMh7GNh+lW/WISF7lnuP8StsNV/Do2kJl3avZlo+WEeElsQW5/j1nOfmgumMIXF0oebZOmWan+4+rbmsvw5oGkeYumlHUeJ/vsREd5AwP2Upifo8s77zEXxKbJ/PDaTdOkeFkeypsrjLnYLNxi1BEov7niHRXkBEa/VLr4n7FFK12mrWCRzY3SAr+cbPqQfNBoP0k8aBcFbIMkSFmbgRzwiuoIwc1vr5u8+0C7LiEg5k/AwiIsajYewmpCe+AuU0uieDsJ7OHv2D20NsiISwh0cl/86KvtM5ZN8jzPolMZB8BaI55x7NOxD+JtGq6QXb3l8YE4q22AbAEseZ6EF85kB8RJIblrDYfpzESOrG2fM/MDE3RSyId/gzmERfhmEQw9rr4DwCIv3bHph106zusHyt7z+bpNJnCi9W/+qPg1tyFfBd4hdr+cBrBi83LfSJbO6AWSF/EvPDtDoEt/ghnwVvOcgZ9KZLzSqhpjMYYM5YXEEX4Fu0nMlCOhka9vSOW1W5UE9W9ZAHCF4BhHBZ63Z7+XZQVdu1fOaiSN4CoS5c1AWArjA4jzHpvFe7XLljLptNpVrI47gXOSZpRuWfzcxUGbYIPfRv+yFfkac+ajQMG50zBLOhzYjkUgkEolEIhsSgP8BjgsURwEwimIAAAAASUVORK5CYII='
p52
sS'andr'
p53
S'data:image/png;base64,iVBORw0KGgoAAAANSUhEUgAAAEgAAABECAMAAAAV8YMOAAAABGdBTUEAALGPC/xhBQAAAAFzUkdCAK7OHOkAAAMAUExURUxpce1sMOxtMXyhqaaRh+5sMO5sL+1sMHijre1sMHijrXijre1sMO1sMO1sMHijrXijrXijrXijrnijrXijre1sMO1sMO1sMO1sMHijrXijrXijrXijrXijrXijre5sL3ijrXijru1sMO1sMO1sMO1sMO1sMO1sMO1sMO1sMO1sMHijrXijrXijrXijrXijrXijrXijrXekrnakr+1sMO1sMLGIcPFqLO1sMO1sMO1sMO1sMO1sMO1sMO1sMO1sMO1sMO1sMO1sMO1sMO1sMHijrXijrXijre1sMHijre1sMHijrXijre1sMMV/W3ijrXijrXijrexsMbKIb3ekrnejrnqiq+JxPO1sMO1sMO1sMO1sMHijrXijre1sMO1sMO1sMO1sMO1sMO1sMO1sMO1sMM57UuRwOu1sMOdvN+VwOe1sMOttM3ijrXijrXijrXijre1sMHaksO1sMO1sMO1sMO1sMOJxPMd+We1sMISeoXijrc96UO5sL7CJcnuiquFyPX6gpuxtMuhuNdB6T6KPgN9zP+VwOeJxPNR4S9t1RO1sMIicnOZvONR4S95zQNZ3SaSOfu1sMH2hqOptM8l9V+1sMO9rLtF5TqaNfI+YlOVwON1zQZySh3qiq3ijrd9zP+ByPu1sMO1sMO1sMNV4SupuNNB5T+ByPu1sMHeirXijre1sMP///3ejru5sL3eirHairHejrXekru1sMO9rLnqiq/7+/pKXkXeirYiut5e4wK/Jz9J4TIyxunqkrpK1vYSstX2msIKqs9/p7Obu8O709aTCyMja3vf5+n+osvj6+9V3SX2gqIyamImbm8d+WISdoNt1Q/BqLIGeo+luNIettpu7wqLAx/P3+Pz9/c/f4qrFy36nsMCCYY+zu+vx87vR1rTL0Z++xedvN5WWj+NxO56RhbyDZM95T6GQgrSHbdl1RuVwOdzn6r/T2KzGzJCYk9Xj5tfk59rm6d5zQPn7+76CY8OAXaeNevL2946ZlpiUi4acnriFaMt8VLd2ICQAAADudFJOUwD8GwIBB88CBQkL5+TuJskw/o35l/XjejD9F/Tqp05p4C30LH11OQX91hMmvxV5z+6RCCA8wv4fVPmVSsiN36KzhxmspK9JRFZvDzyiAyQOczfyDBHWfbHpFj6pI2KQYcwOXmwVEFrutzXwWZqqXseeQypOgGbn3xdSdoXL2g7789D/73CULLjcRISv+edhlShjvfCu0MMEMPYl9fX437huPdPlnjH0L0sE/f////////////////////////////////////////////////////////////////////////////////////////2s8/SlAAAEcklEQVRYw62Yd3wTVRzAkzRNG2Iipm1IoYvSYYHW7pLu2gKy956yh1r3VjQqToYTlOUen3u5yyUf0pG01A47LHRYkLIRKMu9Fde79Gb1pO9yvz8uuc/n3vfz2+/3nkIhnwT4fyQPZ31h0XBZQIOAskAlB0lVDMAasyykEiXQfPjBe9snP+ojafgtyoPrVq9b/czTWzZvneEb6SsAhQBWy6Y5L6b5SSetfR/QsrfzhVnGCalSQassDMia6cKwsPCxA6SB3oqmOUR7F45BSQ6fECgFtPEJ2rCLbV4OFJ1xhATQ5PsIL6f1ihNj5YZF6PbNmOO1q/U7HOPJkNvRlXrOCoiDv7YJOJRSEaip8Ox0ovO3/U6sr4RNRTTv/ocvHOCW20kH8zcoeDASyO/BDZxZx92ff8y+hI5eiES6M4pZ6ahr6m6ud3P6jRyIAgoMZu36tsxms/1wnCOVIpGm6Zh130CO7ZPKCokkViW7h9KovoUfPCTSQNpLFYe+P2I7dViYBqVDEQKXFMp4+/CxGuqXJEnO42n9Jw0eycSNJO3w2dL4xZlaBnTdrYn9J40J41vT0vRzWfPpfWw+pfQ/xwNnh3Ic8synVPBO2tkSHifoUOr1RXFqMVLiaB7IcwSCmt2cm3QR/G9vzgX5y+JFIzeLqzf37xDUUGnn9QJ+6PxLANDHasVIEZyb9nlOdTc0CpIgfCbvU3MCACExYiS/cUO4ddXuSiqGdih0K5itUqmyhpnjcpbE5pWYAEXyFyGlPhTE6yZUFtR5jp6upuvl5Vc1mgTTXItFyew60aKkKSmhAnNqm6DT62lX4X/0EEAo4qTEiXwSWd0NfV52jPH5ZdBXoiMniWU4n0SebKZAHhqEd1T1VQnce5dorQRzfqqo+5HKyxpGI+f5s//SSWMQI00xcrFz1Bxt+LqRrRTMdUKgkjIEPu4OECMNSErmYld7qM7B2eq88hNL0udmL7ujIATkTRIvu9uieJuKQxDHTJqSETN/HlUrD8Qa/qeA1WOvxf5b8D9bCTA3IyZ9fD97wYjwoD4IJ+bdsvDXX1keNx6h985M0gk4rvMXLu2nULvfQNzH/caU8jIK77r42dm/uuC2rhuKPFukGZN5Gl22Etb2NicWtRAZpAiMeBxj9nK8428CEFXl+B5Jc+GTmR04jcIPVO0FROeuRWopoEhL1SVm3sHLv4SkHW9ukwIaBCew9nMuJ0OC1ukj4yWAiqiZsOdEeS8KP7cTFoh+SQA6aLF3uiR6fil3UTtJ8CoNfDfloIMK6AGceOwpY8rUaakK82vwNWMeKif+eabUH8lS906mhmIlCElHBa18iQEtYHvzihhNYRbyYW4p08Hu4Z06VeiHV0M+DTINk3740i7Pi1urp0GFWukg8zsg/136AHZ9pA8Hy5XFXJP3xbLeOYGWNVpfQOocEwOK9fF2YdQ1vZzp6Qp5SEtv9PnG4yYvaUGAQh6SxiDDLcwoKrmz430nKebnAvC2LBc6huyExVo5QAr/FVfj/APdnZ0dY8OoawAAAABJRU5ErkJggg=='
p54
sb.