ccopy_reg
_reconstructor
p0
(cemoji
Emoji
p1
c__builtin__
object
p2
Ntp3
Rp4
(dp5
S'emojipedia_url'
p6
Vhttp://emojipedia.org/children-crossing/
p7
sS'index'
p8
V521
p9
sS'code'
p10
VU+1F6B8
p11
sS'apple'
p12
S'data:image/png;base64,iVBORw0KGgoAAAANSUhEUgAAAEAAAABACAMAAACdt4HsAAAC91BMVEUAAAC9lgC6lwBuXgBuXwNpVgAAAAAAAAAAAAAAAACPdQBsWQCPdwJnUwBsXgJtYAVpVgCPdwiOeASPdgC8kgC9mQChhQAAAAAAAAAAAAB6YQC9mgBsXgUAAABYTwKKcwlpWQC6lABsWwSGawB3YgCFawBwXwpsXQh+aQq6kwBgUABBMwCVcgCxhgC6kAC6kgCIbQCAZwBHQACniQC4jgAAAAD/3gD/3AD/2wD/4AD/4gD/3wD/5RL/2gD/6DD/4QD/5AD/60b/3QAGBADTuwATEQBLRQEDAQAJCAAQDwIyLQArJQD/6TT/2QDozAD/5gEdGgAMCwATEgUWFQn/6j1QSQBORgBJQgCumQNGPwD/5yP/6CvZtQDZuADYxAD+4gD/5RbUwQDozgBwZwDSuwDUvwD/6Q53bwH96lCcjwCFfSj95Bz96Dp+dACEeQCShQB2awA7NgDVqwDrygD95jHlzgBQTCRKRgrawAD74AD86lj/7F3ItyLJtQH762FTTyf/5Rv/4wXoywD/4w2tmAq5mwDPwiqKfQD/6kLIswBaVADUwwL/7jv/5Qj85iPMvh1MSBAXFQC4pwBOShz85ivZuQCvlgD/7ErIthX750LItx2vmAD/6Tn/6yn/7E/YsAD/6Bb+6x4sKQSGfhDy3ADVyCz75Av65TXOwTqbiw63pRKyoADVxh/83gDVyUD76UrItxjVykzZsgDQxVbQxl9NSRe1lgDYugBlXgA1MQI6Nw6nnifm1z62rDmVjTfJtgn+5Bf/5yz85Bj84xPItg/fzACskgCTfgvArhLOvgXCqgD56m0+PBmlkQ3Dshj76VWAfEf13ADOsABSSwDKngDlwADoyQD14ADo1ADAsgDy2QDLtwD/7FTVy1zVylb/5yfVyDXPxE3VzGrpzwDPw0McGACvmQr/1wCKhSQlIwBvaBji1DVhXCBTThGflzvw4EydkyH151Xi0Rvj0iXSyGjfyAD55gbAtA722wDWzGL86ABhWQDhzQAEXPTnAAAANXRSTlMA/fxvansLJgwl/IL7eGdkf/v9/f39+wQUHKX9Xg4v+3v7HvWv1sab9vtxRsv4/PvY1Ef7+zVeSEEAAAUsSURBVHhe3ZRVYBVHFEADBEIo3pYktIUWihSr3ll77hJ3d3fD3d3d3d3d3d2r7u7y0ZmdfftCgJdkP3u+bjJ7ztzdj+f1f6ddl86du3RQ7jfvenb9+rNdX1Tqe7e/vOHcuQ2X2ysseLcadSX/0qX8K6NatVDmfz5oqP3aNfvQQbig0I/4+OLFXyP6kIJCf8jAgUMUFbxbE/8v7OPCLlpQ4g94FzOgjgXqL+gT8Z6oi4ld4X0W4EJd/dwlErkDdpJC0xa19WOx//5V6tPC1Z3hMxfE4kLt/dy5j5CLC9timzavlb9tZsT2rXq9Hnt6mdyPaKEW/jzij9PP/enwkR/042S24sK8GgsNWi+cNzN8+/zIyCVHbADfz410M/9Tc42FBs8uPLU7fMv8wkXj8gETui5ykUwhLuw+tZAWPPqFgYGBkbsB860+sCqFngvUN29ZW6nRaAIPrQCAA5GaqlSuXRc2jRSe6h+dZv6w8riI5pAVID9Q+kNznFKJC0efUmjQZA7xZ31ASZh0AKZNSiCj5pvDB9fiiTBrDC7MaeL9pPuJv3pWPCVh9XcAXwaK40EA+DpBOpALj/uD+5pXTykYJhI/xgqYH+PxvDgMT30XD6MUTBkT1ncwLTzmbyo4lkqZYgaRX4alpi4mw/74VIljBbgwXi64fYt90wmVxLKpQFm5TKX6mQxfLVfJnJgaZqEF9/cT/ZMjJVQbjEApW64aqZpqJKWRbk7Sgvxr367jmfHR9olrhrvIng4uVmZPnrx8BaxfNnl4Fdact1nGn+nYQQq82uZCsW3i5hStVqvjCdngJic7OwZgwhp8QtHhx1I2nzcWX2jTVgp02mNyFPVHAidwHI7wfIhrg4wVAH9MEDshRNZixMdQ/wxH5pw3pcAbo/s5ilMQ4jiDwcAYGAbNsNNA0e85IJHGcwxDDvEzHEIpOY5+ozu5XmF0vxJjshYhQcAFllWzqP9+IBgf8LFACdvIG9Qsy2JfEJA2zVqyd4/rFd56+0bwzbBkjhQYhsUFtVAivQPiwUXcb4hl8RbY57JsN3vfaNNOCgS0rJ+UHmVL5gwIIUZMoLFUMm7mPqMT/of5EwaDkIFLs0WlJ+7pFiAF/H2eeWE2KQhSAW/gAEomX0aHGauKYaNB9IUsY1T63voNffylgJ+vXMB9xFbZwP7nDKCYH3C8eIxEf3b9l318/bwkGvu4C+JnZJlVAKWnnQAh/4BEkUH8gozs+zTyknnJVUhDuIBBeQC90XmALNcGodfFEwbJfmPqugvPz06PNmYh8Z6U6ZAhsLwV8rTauxYoi4EJPPFZlGWNxn5D6lcvJAXTAiNsBGcKG8SFQhEK4u2Qtw8HGIYV/eAk6lejsVwwqNVcKZwWGIbLgX1aQ2+Auxl4UKvVhqq+hwKbji9kWRa7Dh49hBjdfcjgiA/RwYmS76FgEkrAeZ3BN+qmQ7IuD+J09yD0X4RMku+L/acV6iUFW6xpf5eB7SHPcSFOgKj7AM57AFCSBhbZ91BIDLaANfQJWMHh2aeFlvUSR+AddFw1dPj+EYmvUL/GQow1k/3iEdhMiKnme94BTOwjvqna/TXvACa121ebyP2vNaN+bQo75ILs76ilTwvPkUJmEPWDMuviy4U7tED9O0slv06FOFIgflzdfFpoSAsMI/qvU19BobRUgS8XllaMdTrHViztRf26F3qV366ouF3+DvUVFJr1vFVefqtnN+orKXRv26NH2+7UV1SgEF9hwVf0G3kpxs8/IMDfz6PwH+706sZpwH5xAAAAAElFTkSuQmCC'
p13
sS'twit'
p14
S'data:image/png;base64,iVBORw0KGgoAAAANSUhEUgAAAEgAAABICAMAAABiM0N1AAAARVBMVEUAAAD/zE3/zE3/zE3/zE3/zE2PcysQDQVwWSIAAAD/zE3vv0jPpj+vjDVgTR0wJg4gGgqfgDCAZidAMxPfs0NQQBi/mTokdv/GAAAABnRSTlMAUICfAN9bz07pAAACMklEQVR4XsXY247iMAwGYLdMc+wJmNn3f9SduFYV5pdlS0jUFxQV8Sm2E0JDZgzj7TYOX1aQ8fkwFY5peA8ayxnjO9CtdHEzINuZZ4dEphNizjGYElnOmjlWSyLb8UlkOk6JLMcrke2EUoItkencG3k3JXI4LolsxyeR6TglshyvRIbjlshw3BJ5HZQAcju1goSQ7Sx7zvuiSuR2MocqkTev/YB2LTtyOiVLaBUnw0FIkUhxpEuYWlEk0hzpEhS7KBKhg1/keDbnqc5MQgdT6XcTTSJwsLino0sMjeAgxI4ujQ0awMHUxNGl4ReawOmLnerhGNL0RTygAE6ZZUh5Sz8MqFLgIRFXKPKN3rnH/Bpbf0nsyAAiV4lay2aWO6auMIhwQOH45KUlc2scQg3essR+JrOebxSoTw3TWuuSftXUdzHl/MDUCIuduozimWyWqCxgsbH99RAkqaWfDecNbD9MSIG27/ja6UdLa8+SFU5IXCL8nXSOIEoqz4ausv7BGZVFK27sbnAxuJT6okVJ+phaKj/szNzm4xUd9YdNajsnaZO0VcaFjkAgibmX+YS5OlIpdARCSTIrZWsNbBD3S3qHjr4d/ePMJKMqtV4k4wqOvkGusvF891CVORbA0bZsjniXefj4c92NLduzSWK/ANIlw0EIJdP5xF8/lHTnI3+PUVKdTz5CoITORx+zUALngkfR9x+OUQLnogMElMS59pAFj32uPYjCo7GLDuswnMeH/wGySZXRp7zobgAAAABJRU5ErkJggg=='
p15
sS'gmail'
p16
S''
p17
sS'related_to'
p18
(lp19
V\U0001f3eb School
p20
aV\U0001f697 Automobile
p21
aV\U0001f6a6 Vertical Traffic Light
p22
aV\u26a0 Warning Sign
p23
aV\U0001f46a Family
p24
asS'name'
p25
Vchildren crossing
p26
sS'known_as'
p27
(lp28
V\U0001f6b8 School Crossing Emoji
p29
aV\U0001f6b8 Kids Crossing Emoji
p30
asS'default'
p31
Vemoji
p32
sS'bw'
p33
S'data:image/png;base64,iVBORw0KGgoAAAANSUhEUgAAAJAAAACQCAYAAADnRuK4AAAMy0lEQVR42u2dL9RNXRDGbxAEQRAEQRAEQRAEQRAEQRAEQRAEQRAEawmCIAiCIAiCIAiCIAiCIAiCIAiCIAiCINxv/d61jnW+4+x99p+Z/efcmbX28i2f97rOfs7M7Geemb3Zmpll2MYegZkByMwAZGYAMjMAmZkZgMwMQGYGIDMDkJmZAcjMAGRmANoZ+/Hjx/bt27fbp0+f7i3++/v37wYgM7+9evVqe/78+e2+ffu2m83mn3X69Ok9QP3588cAZPZ/j3Px4sVZ0MytU6dObT9+/GgAMttuv379uj127FgweIa1f//+PY9lANpxz5MCnjGI3r17ZwDaVYsJW6519OjR7a9fvwxAu5gw54JnWI8fPzYA7Zpx2pIC0IkTJ7o+mRmAEnIf11E9dX3+/NkAtCsGMSgJHlbPJzIDUKRBBkoDiM80ABmADEBmdUIYn2kAsiQ6afFZfKYBaIfs7NmzYgDis4wH2jF7+fKlGIBevHhhANpFkyhlQEj2Lu8wAGXkQjnF1CNHjqxCaNYdgJBQcGphweDWfINT5RyAh59dg3UBoG/fvm1v3ry5PXz48D+bcfDgwe2NGzeqbUisoIw/+/Pnz9V44uYB9OTJkz3tTMhx+NGjR9W+J9qeq1evzn5Xfo//twb9T1cAun79enR4uHLlStWw9vv3773QOg6z/N5arVkA3blzJzlBJdy1ap8+fdrzRojJbt26tReeDUDC9uHDh2y2t3a4eP369d/WHtbDhw/3OjPmwtvly5e7Fdo3CaBLly51zfAiz0h5Ac6dO9ddXaw5AKERDkmaW60xkfNwMsz57pzUetFKNwcgyWo3YaQ03ZBDLk77x3oAUXMAevbsWZc6G05aczlOziLJNgBFmqRgqySASISldUKE8tbLHc0BiLDTWwi7e/euOHiGdfv2bQNQjPHGSQm2SnEstOZoAah1L9TkMZ7jbO6DP3nyZDFiULrNp6dcqEkAvXnzppv85969e6rgGQrGrRZgmy1lQPenPnA8WKl6GJ5OG0Atl2eaBRAcCFxICn9S6m2FNCwBniEXarFu1nQ1HhBRXQ99yJRASrLPJcLXeOGVDUAJ9vz5873qtW9MCgRkaRlHqfA1Ls98+fLFAJRz4kFgBu/CYjTK+/fv/wIHF18KRGyk9unL5WUNQBlGSw0E4SDY4sR2//79vTICG8qvgErb+DtLg2dYyF0MQMqMLzppzWJkSoIvtajWG4AiDb1zSveDxmhdQmUt8LSWC3UBIECQk2+cOXNG9IFrTOiIXRRvDUAFwDN+a0nAJUxyxF3vuVDTAEqVhroWYq9cg2eSUEyGtD0fOHDA+2cuXLhgAPId2TU2KldzjBfTBs8AdIT4rc8WWmVbz1KdLMckhiqErKGXbClckt/V7INrFkBS2uK5ldoGDS1Qijwc8hu0QHMt3a2MiGm2L0xzc+CIUkxSrx0jR4E49QEXTqqWF2oSQMg4tSvbKSo/ktZSAJrKN65du9bkiWyza+FrWA8ePIj6TkhElk5FkmvaGEn49D2XWoMlmgMQLb4lNogKfqjbh4SU6JaNVSHOhXZXKEOxYAAqEL5iJsSzYYStGlV3V1PA8ePHZ/9siQJyFwAqEb6W+uep8HM8Ds2ntIjFaVuSr2Ollma6KQBpn77mFoQlRjjj5ON6w13lEUKulteESBwbYWruzx06dMiO8ZrkoW8xxIqNYhNSfhbTmF4/J2F1DdzCWxqACocviXLDoDeCNc6dyBHS2+YacF5TK73ZhfBFjoI2SPKSuCnvItEMOV3QBkNJg19duRbifjpE8KSUPkp2bzQDIM3TF0lxLj1AmIA7cl0Op9UfP/x9vmbLaWJd8ki/WXv4GvM9MXdc8LajrwY0Iay1RDft3KJ8EvuCpZZqugWQJnk4fphLd1wAGjwN3R6xpQ7yIY08iHDpa2ly/cxOAUgzfI0r1eQRc+UIQgBuP1eEL3mLT+4q1WC5aTl8EUJy6k94lDHBxuRWzTeWcNcKgIbQt3oA+cIKJF/O5K9p+4tLnDXwObmmxQelLKr3qwcQVL3raDpoXHI2ZVyh9iW55Ek0CuZOA+P7lqzYLx0eVg0gNtRXQxqGKuVsyiA65zNCtDx8n9xrCVrKg0rcR7+pBZ4lUIwnt8eeQsaL2lYMAHPnKpZUE7SQBxUHEIns0nF32q6iOYNQepxcKT1TK3lQUQDxcJfAw5F66npjKuQSA74tD2oQQHRCLHUXsHlzwqiln5Oum+VyKCU95tLSnvC6KeV5lkBAQXBOYlojJJCjpVqtuUGuBU3SNYAIR75KOCSi72qmGklpznG+ROdqzKLI2y2AkBX4PA8J61L5oIZGKCcPqn2Mx/vx/XkJ4NC0b0tUAxA5j+v4TY4QclyueaJJyYP4N9cIX3h4TlwS9bxmADQ355mHi2w19K2AIa4FoBQ+qOTcINSKhCe8zCp74ylijsMPXif2WseSpy+JPEhz7B3enLogXqbGRXpVciASaDgRipWxrtVVOdfMG/CaeJGUaWYUfjW/Y+pAiO55oNR+Jc3whWejUo/8AqBK9FSFzPJpmc/pshpfMnwx8R73j3fRyBm0h463ak1+M43wNW3Skw7V2mHWAFQ5fGnqhLXDV83O0+4ARHjROn1p6WO0i72lxGGrAJBmKUCD1i/Rz28AijCNDs+UmUChVuLOjJq9710BCIJMuxQgfZNzCa2SawyNAWhiNPSVmMYhZaW6MFoYKN4FgDTD1/hEIxXGSo2jafGmwuYAVCJ8SYuscsT+BqAOw5fkfVslmwhz+9V2AkAlhVipc6LHpjXOpYaqsHsAoVwsLcQaT4JPMcmBVUsLvbgByGM1hhLkHI1Twtdwe2KKZkjqnrPVAogpHDVEY6kaG9ewy5CrC1KaBHK95aoBNPStawxnWlqwyKXC11CHY15Ra605q0iiAZJ2VZvkmdBFtR9GOkWATvKdEy7xeqUvydsZIlGrrgSPQrOgRItLSqfIFACxagMDkNBRnroThCPtz0yeIDdAZbjkuSTLF0tzFud0SFPmO/baqFau+G4aQL45yEs5Cxvky0t446X6pWJbd+aUkLElkFYF9U0BaGlMLjyRb4D2ErG3dDOPRpidzmgcjO8SA6DSzYJdAmjprWS+oc+WukIR1UtYDAPtKpnwIqxBD90UgJZuJw6Zvu67FG58bUCOxXBAPv4mNJGeu3jOADRjvttyeIghm++70U/qduO5lm1XyPXV20ITaYBvIWzBlro6Y05RPk0RrcHanjJUhhrDeaUSnjsDoKVaWMx1jq5L2XxJrSTVEDprMWaSBx641o2EXQDI587hfmIZbd+RPrcwGaqBDik/kGRr3TK9MwBauqwtxX0jf3B9HiFOK1ebu0pTipTkpdAeFtUlgHzSiCXux2U+fVHqZ/59YILkH4CIKWtotmd3CyAfr7LE/fjMd8cG8tkU4zQkTf6RK/XcYFgdQD7uJufmPRJv1+eiP0qx0Eo6yXqoUeeKuTa8NXFZdQC5Et5Q7ic14U2Z8hU6RIp/U4zFDJPgs2uOtGsKQL4Nkaigc1uPZHIeKmWNbUUmJ4uZbi9BiK4CQL4NjuF+fDmLa2OmV2qHWOipKaVtKEYXTghuxQtVBZCLB4nlfnyGFllq3EuolCPFewL2UIqgJS9UDUC8QS7+R5K6BySuI31sw15o+QFlgbRHlr4UpnsAuU5JuTzNnLm6PmKnloVKOVJPSrFeSErj1CWAXMKsHO7HZb5OiJhci2nw2hsbo3hMpSNWASCXLCKH+/GFS9ebHdM2HCrlyD0AxFwXJXHY6BJAc/yPBPcTG35ieJXQ8TO5GuaYGpmGx24eQLCv2t0TU4M4dDG+oW8x/E7IpkocsWM6N3zXZa0SQK7ThrY7dtEGMMEhFnL1lNRIXl8pZrooB+0UgObqX5Lcj8tcE1VDQ2dIS7Pkv4NGgFD5bK3Wn+IAciW0pWSbrvpYSPdniIJQciCmj8OqcUNzEwCa8wIa3I/LXCWDpTFy5FChd3JImo9Jnz7DGh2sxQE0x3OUPEm4FJB4RZ+GJ1TKkXvv/NTQQofKPWp4oeIAmuNSNLifFELQV18KnUivEYpjvFDpXKg4gKaTTTW5n9jcwneaCZVyaAyDwguFzk+S9oBNAWiO/9Hkfnw2rY8BbJ8n9LULSd057zNfo8D0hSx5JWZxAJHvjN/+WlQ842GGyR3wUkt9V6E1qpBujNTTa+hc6pJeqAoPxEPG89QsBg4T0UIb9kKncmheTRl6kxEiulKNiG2PfmjIQqQcMWL6VNCHsOElvZABKNBChkKVaLsJycXIg0r1kBmAAi2kc6JUSHb155NbQpOUvOHZABRhEI3kbwjGyIngk5B4EFbYPInpHyE2RylQva/BRP8HtCymexfgSeEAAAAASUVORK5CYII='
p34
sS'version'
p35
VV6.0\u02e3
p36
sS'uni'
p37
V\U0001f6b8
p38
sS'desc'
p39
V\U0001f6b8 A crossing sign for children, usually positioned near schools or other areas that drivers should be cautious of young children in the area. 
p40
sS'browser'
p41
V\U0001f6b8
p42
sS'annotations'
p43
(lp44
Vchild
p45
aVcrossing
p46
aVpedestrian
p47
aVplace
p48
aVsign
p49
aVsymbol
p50
aVtraffic
p51
aVtravel
p52
asS'wind'
p53
S'data:image/png;base64,iVBORw0KGgoAAAANSUhEUgAAAEgAAABICAYAAABV7bNHAAAAAXNSR0IArs4c6QAAAARnQU1BAACxjwv8YQUAAAcISURBVHhe7ZtNaB5FHMaTeAl4qLeC9VAFjVgqHhREhfomkSY0HlqpJ2lABRU0F4sVkhcPSaAteLFFTxb8OKilImKwFUxaUSkmB7UqvKgnacGLtIcePJj4PPs+u+zH7O7M7qy+yv5g+t+Z7MfMs//5z8e+HWppaWlpaWlpaWlpaWlpGTSGZRthcXHxBZi9SNuDgqGhiyMjI2/Mz8//pPzA05hAEOeT4eHhfcpGbG1tXUP53MLCwtsqGmhukPUKxHkfIuxXNgHKRyHS+MTExJXV1dXvVDywjMh6A+JMQYTHlTWCv2+DSE8qO9B4FwgclC0EIu3R4UDThEDWLC0tHdLhwPKvCvRfCNRNCPStbBk92dpwOqE0pSJvNDLMo6LriDH3KmsEQXqu2+2eULYSeM4CzGEG/X5JcN8NGNy6e7ZfUo9Guhgmg7MwuR6CRhzzIQ6EWYyLQ/Ri3lteXr6rX1KPRgTiTBkVPQAhTiFdVjGFuYBEz3lZRXV4VjYDRdvc3DyubC0aXWo0BeMNRHhNWSN8MXgRtyhbmX9EIMWKSTQqmPug8owT15EuoWzddTSzEYjgvrXb17hAaAyXHYUza3XDc0inbYKr5k9v9XO59CDQnTquTKMCQRzjgrUIximYM2VBHPcuHClxHw4EtWNdI4tVggacQAOeUNYaXLMTabrT6cyMj4//tra29ov+lACL3T8hwjjOHVVRBMpXII6XtV5Tq3nGiFeUrQSuvxnm0bxVP8smJyc/hhg7kd0uoXrIv+lLHOK9i3H+gSH2M1R4h4oKQYO6MNxQ22+6Bn8/hQY/pWwpjE8+lzDeBYL3nEdDrVfq6g4zPKbnwRzC9VFssRFIL+U4roviHa67BvMz0kUkPqPSzNrrRBEN5OzWdRvjIVmuDxiYnd4+xYEYH8bFIchvo9BIzyN9irqtIx3Vn63xJpCm9of7OXvYkCoVJ6E4OBzrl+QjsY7gWVeRrJc5Vl1MLjyhbB57UQGnIT0EjbwA73mYx6h8YhJY1MVwrvM0IkYP1x4o+4BQ6kGoxBTE+ZqVLkmJiioGWIFr9/A5ylqB89mdS8VBPU4irSgbZwztelHHudh0sYOoSGLFXAY9wvUaYO0Jjt35OjxwBvXZhXp9oDJrbASy3QALQCW4zuLI4YrxK4gJvPnXHV7ArfxHXelLHrtQKhBHFjS6i8Sti9KkvaD7+1fbgwbvsNmjVteKRko8s6wr3yZbiUYmiqj0j8o6gesYK85BgNKVOpE43aLzeQ5e8k08hrjWA0CIt2E+BO5f50tFNCey5B15eK4XQRBOIyrvVXsXCDh3rxA2BuaOogaH4JwNiMOZN+GMuYjC/fEivArE7oVG1v0guBtx7AEIwOHZGOeYcB7XcCHfy+YRBOoqeI1BcOWjEOiIspXBPXa5/AJEgXtR2QwQlN523yDEoMrdKw7i2HM6tAIex+VGEbfLJroixOLmXCFeBcID63avANznER1aQW+DN0RfT9LgfkGghrecxXmcsqzQ2myLeOtiZW5egVmXfR08v3CbBYJU2oL16UFeulcIGuS6CP1VNo9K9fMpkOscpgz+dM8KeA+3Sx7r53K5R9YJL3vS6l7TynoB9xvtdDp/ra2tfaEiI3g2Pys9w/NVFAAP5E/9ojLd7w/c7xsVWeHLgzZQoTmlTLBEGYNi+Pd4OqZTIlB2Ofw7slz4GuGcC+Lw04/pm1tPc6n0hNPZy73Og/I+6KGi0xxBlE2ARl5FIxMr86LziTbwjB8GcG18jzu9oeb8MdHrMI/KZd6mKly0YW7aggh2F/PgPClHHI5UgTjiB9mQMYjmtC7zJpCWGaaRh5+Ui0g3gpSNOIm9IwjDrjQLcRLDOLqZaZpQKH4abwLhrZq2L3uodOEGuakREDp3PgMP4HIh7T3GSZ8mkOk45jTc++ximWEZlftIh7lozZX5sRWE4C9CTCSeg2fwZy5FLyG9u+k03HsRCI3hIjXxVlVxq5krzv1Kh3F2y0awG8OkR6KyLpzYsEc9uewIt0lK8eVBpk9CZRWPQKVNi8YHZSO4GccGKhtyWtYIXhLXX+mph/VwX1sgxYTMhhRiy6s6LIXxA41IzFnokbh3esRJvAhcw20Mm0/KaQ/NiJ+HDw8yxZ4Vl/0cYfp6Eo2KFMvwIj6XLeOSbECO+EZqCaRKZ4Z2lDl/fwKmT0XxOJT5Lw45w3gGeNlS2kOB1WK4rgeFG1ERdHuXbYoY52UjIHR8uL9bNqCCl6Y9NDMImKglEIdXVDQdAKuIEwRTmMRwn3rrv8uGWA8CIu2hN8oW4iMGPY2G8PfPXLCindV/II7r39VhyBlZdqeX8Hcuevmck67PYXfEdXHByzb6A7x/OKyLguc+dC/nnweXoUUuF9Rlk8uWlpaWlpaW/ztDQ38DbwZ2FciWJBUAAAAASUVORK5CYII='
p54
sS'andr'
p55
S'data:image/png;base64,iVBORw0KGgoAAAANSUhEUgAAAEgAAABECAMAAAAV8YMOAAAABGdBTUEAALGPC/xhBQAAAAFzUkdCAK7OHOkAAAKRUExURUxpcfzCG/zCG/zCG/zCG/zCG/zCG/zCG/zCG/zCG/zCG/zCG/zCG/zCG/zCG/zCG/zCG/zCG/zCG/zCG/zCG/zCG/zCG/zCG/zCG/zCG/zCG/zCG/zCG/zCG/zCG/zCG/zCG/zCG/zCG/zCG/zCG/zCG/zCG/zCG/zCG/zCG/zCG/zCG/zCG/zCG/zCG/zCG/zCG/zCG/zCG/zCG/zCG/zCG/zCG/zCG/zCG/zCG/zCG/zCG/zCG/zCG/zCG/zCG/zCG/zCG/zCG/zCG/zCG/zCG/zCG/zCG/zCG/zCG/zCG/zCG/zCG/zCG/zCG/zCG/zCG/zCG/zCG/zCG/zCG/zCG/zCG/zCG/zCG/zCG/zCG/zCG/zCG/zCG/zCG/zCG/zCG/zCG/zCG/zCG/zCG/zCG/zCG/zCG/zCG/zCG/zCG/zCG/zCG/zCG/zCG/zCG/zCG/zCG/zCG/zCG/zCG/zCG/zCG/zCG/zCG/zCG/zCG/zCG/zCG/zCG/zCG/zCG/zCG/zCG/zCG/zCG/zCG/zCG/zCG/zCG/zCG/zCG/zCG/zCG/zCG/zCG/zCG/zCG/zCG/zCG/zCG/zCG/zCG/zCG/zCG/zCG/zCG/zCG/zCG/zCG/zCG/zCG/zCG/zCG/zCG/zCG/zCG/zCG/zCG/zCG/zCG/zCG/zCG/zCG/zCG/zCG/zCG/zCG/zCG/zCG/zCG/zCG/zCG/zCG/zCG/zCG/zCG/zCG/zCG/zCG/zCG/zCG/zCG/zCG/zCG/zCG/zCG/zCG/zCG/zCG/zCG/zCG/zCG/zCG/zCG/zCG/zCG/zCG/zCG/zCG/zCG/zCG/zCG/zCG/zCG/zCG/zCG/zCG/zCG/zCG/zCG/zCG/zCG2Z6j7cAAADadFJOUwD8ByD6A/sB/f4aCgkLBA4NwvHy3dMGDALSERj06ecF+YH1FsfME674T9oPFRTe1siitusIr5ouOqQiKxtJbRkx9sQosu9oPayOp+gz180nln7JkvNQv/AS2+RTl7Upu2uIHnwfQlGrKlyKb3ljWD63HM5shWA2gu66ueJHdYnlg3PfJdjLcoRaZ11DhoBqSyzRenR993vcmMVx7M8hOUjqTj8dN9Rii7gXQI2x1XhZnJulJLRMQUbGypFhI6mZ4CbQRJXmOzCfs16hjHZWRTU4aXCtpr6wo+3hDWnVpQAABFBJREFUWMNjYBgFo2AUjAI4WGmxLLndLs2anzJjmKepCLNw3mLUkIt14yLfGIn5Khy3YIDFyZaVTHPYQ6tvIQO5XDJNcvC9hQrqt5NlDrflLXRQoE2OQdtcMQzyLiPHoNUY5twKskJ2sQ1zBDsR5giEYRpkIA6T5U1dvqJoqaDh7kKCBqVIYhqklQSV9LGsgCYKv1xuAgZZ6WMapNcMSRf9SPGpFKyD3yB7VUyDRCBhlC+CLMgWLI7XIHl1TIPmgKPfHi30lPrwh3kjB4ZBHkygjLOOET3ozPEalKGHbg5nNshqZlEMCzzx5h3WQHSbI51B4qUsmLG5Ga+TpI1QlSvUghwkvxEz7NjS8EecuSAnkmpGM3BQ86pgGnQrmUBa2rNLBq5Wtg6SXpSxpK9bZoTyivREmFINOz6IEFcLFoM2EDBIqgTuIg4XaFEr4IfFIEX85kQcVkCK+30CYEExzGKKJUQTv3sC2FAScB5EuFSBE7VIKLDr0MVbQnqiJZgdEM8pNzSqe7bADGOrctaWwF+FFCuhpxZFWALmYXeHxh2HoQ2h8ig/CiMsZG3hFUwHrBxWdSZgjtQWLJHT6g+VbUaUeoYC+A3KnArOFWglgCmX/LyEtm6mRIS4TBfeNMRfBS4RA4TgGjhAwcu4d8oRNo4oN+QCYGcKPoNWgcpkllnTEDb7gYtXTnBMViOnC8YePjy19SSQkqh5l5F8lSB8CzuQc8dtkJgXSIUK81WkOo25hwWHSUa4i3+eWHARvdgUKe4n8J8OAdKOM2ZiFEd1OFtPfGbgEpH5GlKG6mfg6aoUVc0RZ85qYkM1ydHFFlc4hYICxGguUpXEMQtcTasBI5s1OhwjrWriSAQ8CWGi6ksWCiGpPYVQWoucvDiMQTwvMVzxJhDBzYtStRXB237cKIU55wknYBpQxFeRoPrAEV7oxKFWVILd5ccn4ytIFqNFTzovVOKYHGoOVGaQx9uumQEJCcmshrVghlAoVEbHAzlF1Qfy4M21TFPA2ZYjPY6BwWI6WEs8zP3SfXA3Cbf7MOE3pw2SI8BlPns2uPDW6IRF3AVjYDKMSQQWfSoEWvKsxZCYF50AKV4rIb48AJUNBhYF8WpLbty6FctLoGm8H6wzHFrgM9QsAMe0R1mSCZDnD/TqgvkM5jdv3bqO32PsOZAkEgALRzFIUcZprN8LFLrEeIvTjIkhDtjgMsRvEF8MxCv+cJFCJ2johpxlUBO8dWv2IgaGJGD5pm6CvwopAWtagxQAmrDiPpDhHLD+NVADhhwwK4qcx19bu8uC24xzESImMdBG+yKGMyApYCuNF+gyzok1eA0S69UAqp7tgCRkrQVON5PlGRRB6QtY3bNfARed+Nui4uXetxg3SSFHwPpIDpmgk8AwARcKk4BCF0EVgqAa/gTAZ+GWKY0alRlbU+3BibXToCneB5TCvYyFDkaT240DAV1riFv5jx5iHgodagCvvmj6kIFeGQAAAABJRU5ErkJggg=='
p56
sb.