ccopy_reg
_reconstructor
p0
(cemoji
Emoji
p1
c__builtin__
object
p2
Ntp3
Rp4
(dp5
S'emojipedia_url'
p6
Vhttp://emojipedia.org/passport-control/
p7
sS'index'
p8
V528
p9
sS'code'
p10
VU+1F6C2
p11
sS'apple'
p12
S'data:image/png;base64,iVBORw0KGgoAAAANSUhEUgAAAEAAAABACAMAAACdt4HsAAAC8VBMVEUAAAAANJYAOGcAOZYAQ4kDLagAPpcAAAAAAAAAQpkAAAAAITsAQIQABxcAAAACKZQAT6QAQIQAL5MCJ34BIWEBJG8DG04DLqUAQIoATYcARYEAQ3wENb0BK4gBNrIADisCK5kASpgDK6QCIWkAAAAAQocARJUARH0AQY0APXcCWeQDV+QEVeMDVuQEVOMAY+YFUuMAXOQAZOYGTuAAXuUAXeUGQtIAZ+cAXeQAVsYAWNcDUt4AUsYAYOEATsUAbuMAAJEAR+EAauIAZNgASsQAXdgAYNgAUuMDStEGTN4FStgAGdoAZ9kAXeAAZ+IAR8QAadkBQsABUtYCOroFRtYFP88EPMkDQMXl5fSSuPN9rfIVc+gyguuwzfcEN8EDT9ji6PsGQNIDQMq/v+CYmN9mn/BLlO1ISMpZme9Ym+9QiOvv7/oLC4xCQp2YmMSGhr0ueekXZ+axseP///8AaMMwku0AWK1Cne4BdOgYhOsNfekliusojuwDeukAcNoah+u/3flgrPAgiOsfi+wAdtyiy/UAAL4If+jO5Pldq/A4l+4+mu4AdNs0lO0tj+xIoe8AdOQ7me6UxfNUp/B3uPIYht4AK9txtvEAYcgAbs03me4Sher09/5aqvBPpe9Lou8AbtI5meXp8v1irvAAYLgAVagOes5vtfMBAcbd7PsUgeoAYbwAYsHU1PM6lu1FoO9RpvDj7/0AALcAV7QAAdJkr/BGnu9KousAbecAcedjrvDV6PlrsvG52PjU5/jB3PTZ6PsAbNkbhueAgMpBnesAY+UAYOUAW8cvk+oGBs0AXcefr/GIwPMAa82mz/UAbNrI4fopj+gCWOQ3mOosj9sAY8hzs+f5+/4AZeIAXsgAAK0AbOcrK7zY2PSGwPRISMBfX7gAON4AaOYAAJgAYeUPD8kAZ+YzM8cAb+cAaecAV65UYeQnJ9UCWuTJyeoAAKRfX9JubstWqPAAWuAVFb7q6vcVftBkrvAAT+I9degAMd3/qWsIAAAAKnRSTlMA0gXS0NLSJh3SIQnNKxDF/r3Rn12ASuLZJ01u+8D8I9j702oXlc4/4pGnuoWhAAAFpElEQVR4XtzRRW8bTRzA4SqqIkX1wb65ycmH0OebZTIzMzOHmTllZmZmevk9depZe9dN5STXPre/Zuc3o50jv5Wu3mGVQnF0HwqFari361fb+xQaZZkg3u2DIMpKjaJvT+K4SkOUxrB4pfJ3R5VKHBsrERrV8fbAoLo8isVv3DJv2jZWO9iwbZpv3Yhjo2X1YNv5QwQWDwcKtwtbtisd2bbgR4FwHCOGZHfoUhBYLr+aWr8QXZv/p6P5teiF9dRqPocRCuk/9Cnh/rotZLfriyvzHa0U9XZ7yFaHBWVfM3BMXYqHdTp7urhyIMW0XacLx0vqY2KgV4kJUbhff2CwEBUwZa8Y6J+9GL4UCtoPIRi6FL442y8GVKO5fCCYPpRgIJ8bVYmBgTFhsTr17VCmqovC2IAY6Im5FvWZqb0yzjuWey0WKylb0i+6Yj2tgOlEOoM4uaTVmjQmvI0pGwIyPJmRpE+YpMBN0/VgFuHhkTOWs9c4Es0BIEl4s5LgddNNKeA6k/EiFPih/j7p9yJmKeCVy5xxtQWyk4gWnP+YmKwWjInJzrLyQMx11UsiLADjH5YcAPc3RkcyUptBLHO0n5R4r7pi8gDpRIwAgNQXCgackN/NnAdND5dwp4T8OeBHYACyAtyB5rVHoClFu/2StsBdgXU6EC16MBhomgaiaYeckxXuygI7DjfCNQL/TbtbWs9gdss5dqRA9znBijelAFSo4i0T4hXqE3gbq3CuWwr4tLgHWbgCAx45UgcgHemRw7W+9gBv9HCiUApwIgOzfJ/nuIVodAFOWoZmOcRj5OWB05d9FA8XWWRinUVGTs59fg7NWGq1CL8UqT2lDCzEsTRP+S6fbgtQFEMbDAYtc/L/f2lDA3Pq7JNPQGR+G3k8/vraiAGiGYpqD2zDwPKbZYoZYV683N39M/KMoWnm1NxX0GRjXz34C4z/wdAjTONTyrfdCnyvvM5h04bCAI6TRpURCJDCteRSkik4EAhpHBxCyEE4QkjClfM+ep9Wx6pT271Dp0ydunSoxOAOlSpVIHWrsoDqSGldZOEhPUQrpZn6bPyMjUiD/+v3vp+e0GNw8/Cc7y2oRJIk698liJ2jDPboWTbzMw+Blw8ff3wNnBOyRFJkiTvtmxtulgOlEhiyxU2wsPjlaeQsc3wT7uf3VzIPOOjUwVIkOFgLzPhKoIqwl+c27t4au70IqPc8sGfLfCB4YIgiAcDlm5EBJL9OAoC+zr+cnTvc/uZfDliyR46JCsBQgkDKgIlxUoiiaGb1k/j/uYEC4F2v/+igAkwzFDw5PlEFRiBAgViaWYHvf7n3ENzivu33IiEAQxRIAEakAAVj2SGGYZbz/NUxp5M4uOd89Z2oAjAZEJhlxXjBdQ38EGsMhmHEPpbZJaoAC5sNiEATAGhxm4/Jrj5fWsm53e5ld+QXIXbqggINgCYIjAYKtBjD5XK5stkiKFd8cZyXAjSsEBitAlMFRpqLAxwOBzCmI+AFS4AsAytMSQFv1lWTg2/QD16wFCjCedZbAzjOaY2QATk4kAGTHm/xnHIgYcA9Sj8mTryeyQYA29nnb2OVflz9HxDN1W86QkgDgDiKSoCYJ4q562b7WgM44QSLemIQaIl5ythg/frkQJ84wMqeWAsE5hfKzvOSA5JBeWEeAm0AOFEcANoEwBgP4r2Kw4NxowCY2oM4eqgwFA+2mwSgozO9gdoUhm6kOzsEQG+OgyugfQpCwQXiZr0AaHWGdBi3owqy4+G0QadVCWks1u0w3m9vuH48vG21aFQwPWKyphKhgf4GGwglUlYToleJqRGLYT2ZCIdCoYELAkfCieS6wYKopd98GkRn7mpNJbeuXNhWMtXaZdYhmksquYDouo2Gyw1kMHbrELhfFdSIotRwv5pW0zig0arqpdX3qBuoRy9d/wfg7H9FA1SNnQAAAABJRU5ErkJggg=='
p13
sS'twit'
p14
S'data:image/png;base64,iVBORw0KGgoAAAANSUhEUgAAAEgAAABICAMAAABiM0N1AAAASFBMVEUAAAAiZpkiZpkiZpkiZpkiZpkiZpn1+PoiZpmmwdZklLdXi7Ho7/Qvb5/b5u6ZuNBxnb08eKWMr8rN3ehKgauzytx+psPA1OIjXXgBAAAAB3RSTlMAYL8AIM/vi50ITwAAAb9JREFUeF7t2FuO6yAMgOEkbcc299za/e/0dAZVNHGC6YDO0/wL+AS8GLn7rh+woqG/POsul+sNK7tdv6HrF1b3dX1CN2zQ7dL12KS+O3vn8TNo6I4QPT0MzJ9Je8iq6QGx30NW+TkalZB3APVQOhOHJjht2kPj9qm3EGTaQTMYCjZhwfwSivo8LS/pXgU9ex1sfEHLCrkeHEqWinSEDGTzGQjMB9CSgSJRdrUZC6Hy/iA46b9C5h1yx44rgIx6h+gYogLI4nvqGFISxHPCzYohfQRpGeJ57njkkBEhpMxLJ0gZEULPz8MhtGE1AoTaJcbpzDjSfhYmmqIfy5GSRvYY1sKpzyGWxkYQNoKsPQas/QhSDsApzigHm0iAFPzEpADMyUMuQmbZOos5dqZT6H3apsKJQyBCAOv4YsYVzhyQrhapu160vieGORlIgVhychD6cicPIZU6EoS+zJEhVKbIkSG0JDoyFBt3FDFHgFI20ByRmYJF7nCoqI1TByWnDkpOHZScSog5dRBBG4igDUTQBiJoAxG0gQjaQASNIKiGyj/sg0AU/rOH0rWPcpxxycG+1SKq2Wqs5bLuWYv14T/OPJ8YJvpByAAAAABJRU5ErkJggg=='
p15
sS'gmail'
p16
S''
p17
sS'related_to'
p18
(lp19
V\u2708 Airplane
p20
aV\U0001f6c4 Baggage Claim
p21
aV\U0001f6c5 Left Luggage
p22
aV\U0001f6c3 Customs
p23
asS'name'
p24
Vpassport control
p25
sS'known_as'
p26
(lp27
V\U0001f6c2 Border Control Emoji
p28
asS'default'
p29
Vemoji
p30
sS'bw'
p31
S'data:image/png;base64,iVBORw0KGgoAAAANSUhEUgAAAJAAAACQCAYAAADnRuK4AAAG/UlEQVR42u2dLzB0XxjHBUEQBEEQBEEQBEEQBEHYIAiCIAiCIAiCGUEQBEEQBEEQBEEQBEEQBEEQBEEQBEEQhPvOd2f2N35md8+fe8695979fGdOfL3r7sd5/j+3L0Moh/p4BAiAIujz8zNbW1vLVldXCz9bW1sAVAdtbm5mfX19hZ+xsTEAqoO+vr6y0dFRAEoJoOvr6+z09DToubu7i/Z5Ly8vASglgObm5oI/cPkNMTU7OwtAqQE0MTGR7e7u5j5DQ0PRAbq/vwegFG+gmZmZ7Pb2NtfP08OODZC0vr4OQKmasEajkT0/PycNkML6kZERAErVB+rv72+GzW9vb0kCJOm2DGF2Tefw8BCAfJ3owcHBbH9/P/v+/k4OIFShKExgKEQHIADKFcZPTU11zfMAEABZncXFxbaOdpEA/fz8ZK+vr9GPqx8IQJZH/7ZMgIoK5YnCagiQShqKFAEIgJz1+PjYzHiTSAQgZ318fBSWQASgGgK0sLBANR6AwkZdSisAEAB5SxABEAABEACVA5Aq8zFD+unpaQCqM0DS+Ph4NIBWVlYAqO4ALS8vRwNIfeMAVHOAYjXbawpE0R8A1RwgfckxzJhNCwsA1QAg6eLiolLTJQCUGEDSzs5OEHjm5+etuzABqEYASXt7e7nC+o2NjUrCUzmABgYGmsD8PvriUrj6r66umrNuLr+PirTn5+dZlcVkagSQZI40HNDp82rSVc6yZu+rrsIBylPdbmfCUpZacHXDtGb4ld+pUrtqkgC19u74+AxVA6gXVNp6F3X5abQZgAAol3S127aLAhAAdTRrNtvAYgOk9tUixna6naqF80ltKHt4eGi2MpQBkCAeHh4uZaWdSzJRkCkDrjn9FBzyJFfcdTJrMQFSMq9MeJQTMgHRrnQyOTlZai4p2R2JuhG2t7f/F63FAkg9zkXNfHU6Nzc3xpRAJ19Rn11LsACojZ6env6L1mIAFKuq7nK00qWblHA0Zbll/noKoJeXl2YhUr+4bhqF9abre2lpKfjnKGuV7++Zf1P/j/Jmpp+jW+j9/b03ABIs7RxWpfi7rbwL3Wil/6tM06VansnvOTs7s/6MKqPUHiCbSc+jo6Pon0NmoUzTpVqZzLPpD00FZNufeXBwUH+AZO9tHobMW8zWzrKjruPj4+CA65nVHiCXncuqssdIrJVtumymLnya9svoSigcIDnNLg9FwMnshTRd8j3Kgkd5G6UouklLNqvS1lI4QLq6XR+MQljfNcA+EU2sozyOMskmv6dbL1HPAyS/RnsPfZzOvFGG65Ko0GtdlIowBRh5Xu7SEwBJypr6+iBaAewj5Uhcal1qfAvVMK9j8w4w5YSq1plZWiJR9S5fiLSr0KUdVLeei/Peys/YRoymo0y6KRhQ6qKKrb2lljJ0pftCJGfUlEdpyWU5pj6PugJcUg6mSVOT36NW1xBRYc8BJMmv8XUa5ZSa5shPTk688zN5AbIpcsq0hvK1ehKglk+Upxenk0mT0+wCp3Ivv5OXeQGyyaiHXKHXswBJMkd58jMyFaobtaQeGRez0C4/kwcgFX5NmXQVkas+3pRUO4fC2LxvB5Q5cE0TdKpL+QKkEoQpWaj+n9DZ8J4HSFK0or/eIhN8nfJLvgCZ/B451TFe5gtAJRQ7ZUbyFn5diqSuKQUAypkrcmln8Gli7+anuAJk8wWG9nsAyCBVzmNMS8iEmDr4XABSvc7k97g0hwFQQKmQGrL5S1+izbvmbQHSLWlqyVVm2zffBUABpL/uUDkT23eS2gJkWksnM+k6xg1AEaQv4u+oT4z8jAtA3ZzwIvweAPKQyhc+YbDyQyY/xQUgjRmZYCzyPWMA5CCVLlyawwSPa2djN4CUsDQ54d2GAWMclXQAyCNKMznYCtd92mI7AaQbxTRJKsBVHklpQBGAuvhGcmT/gqQvUAVN38b8TgDZNLXF3GQPQJFDft1KIXqo2wFkSj628j0pjkgDUMH6C5D8HpMpVFG2SL8HgCoEkKmpvwy/B4AqApBN8rHRaCS95QOASgJIYKTq9wBQ4gDJ7zElH9WEH7vOBUAVlN6BYdMUH6M5DIBqINPNI7NWxnvlAagmKqpICkA1lPqJYnZLAlDNpbl5Vb+LOACE8n1JAIQACAEQANUbIN/dSQAEQKW9cx6AAAiAYinUhrKiDgABEAABEAAhAAIgAAIgAAIgAAIgAAIgAAIgAAIgAAIgAAIgAAIgW2lJgyCqyjHtaQQglJwACAEQAiAEQAiAEAIgBEAIgBAAIQRACIAQACEAQgiAEAAhAEIAhBAAIQBCAIQACAEQQgCEAAgBEAIghAAIARACIARACAEQAiAEQAiAEAIgBEAIgBAAIQBCCIAQACEAQgCEEAAhAEKV0D89OdWDBoHFnwAAAABJRU5ErkJggg=='
p32
sS'version'
p33
VV6.0\u02e3
p34
sS'uni'
p35
V\U0001f6c2
p36
sS'desc'
p37
V\U0001f6c2 A person checking passports at an international border. 
p38
sS'browser'
p39
V\U0001f6c2
p40
sS'annotations'
p41
(lp42
Vcontrol
p43
aVpassport
p44
aVplace
p45
aVsign
p46
aVsymbol
p47
aVtravel
p48
asS'wind'
p49
S'data:image/png;base64,iVBORw0KGgoAAAANSUhEUgAAAEgAAABICAYAAABV7bNHAAAAAXNSR0IArs4c6QAAAARnQU1BAACxjwv8YQUAAAUOSURBVHhe7ZtBaFxFGMc38Sz1KIhHSfHgqQHx0kIOKu3JQ5NLG9SbmCBY2tLsIpKkWPEgtlovBtKbFW8N5lIwFy/tQSqIMVBP1YqnIL1u/P33fW99u9ndN2/evN3XMD+Yznzz5k1m/m/mezPzto1IJBKJRCKRSCQSeQpYX19/2ZJHgimLS7O6uvrG1NTU5wcHB89jLrRare3kijtra2vnuX+W5O/Utd9sNm8lVyZHEIEQp0l0gU49lk0nv0Sg60oXgXquU8f7Znagrn2ivcRqPLD4Z/3j8zeKUlogOvUtnTpLR27T4Hnse2Tf8hRIo/AHM53hb98nesK9G6FH3bTFhZGvMTFep4Ho0ZpPrvhDHdvUtWOmMwhzgnCSe9+xrGB4CYQwS+12+yca9Sym/M1aciUI32tE+ATu/TupIhyFp5gcKdGm0taofl5CuMdc+5f0wxAja5IUFkijBwG+MNOFxSJ+gfq/oX6vqaIHxgPRWzAY3j7IFRp9zJK5IM4dX3GqonKBCvIHgm4QHpk9cWolENNjifAuyb+SnMlTtxGU8sTiiVNXgX6xuCjpSjsYdRVoy+KifGdxMGopEH5IK+rbZjqh8rrPzGDUdQQ1pqenPybaTaxcdq18cGor0MrKyq+sid7KG0lc31E5lbesoNRWIKFOM220VVmUUITs3kvCLXL9VFXiiMq3GnTkzSp8w7h4xmJn5ubmjtPpF0n+6RBuIs4G8VNL6QOzMuhMqd1uf0jylSSnFHd5GJctrZGuA7tXCQ/I1+rci4kJZOfPV5muL1hWGXabzeZxS/ccyRg914swESetkRNKHOrZJ3xgZrduM1NmdIxi6UJ4jSCbGpt08IRsGnSfdcii69uExv7IvSfNLAV/mxn0/4nmsLolJOWeM9MZrxGUFUcorSNYG9ojkW8IKM5GnzhD6yb/mEv7+iksEI3Ql4euOClqANEm1z9Jcg6jBlKu57OOLxq1WedrnT+XWIPhHufDu5TgPggBLiHSHTO7DPENXmi6aEqb2amb6IrSEk7XlQ5BYYF4armfZhDpNE/0N2t4B6bgV+QPdcrUecOSLrSy/o66PyKaIezRPp1Jpx8aS+M1gnh67+WJBDOpX8rzO9S1RceWzBwJZeV3uh8lqbtJ3WfNDI6XQLZHOpX31Gl4xy8Rj/I72olftPRI+Hs9fkf+kOhCYlVDKR+kp06jlwlec97uu+qyPFDZrN8xVu0hVEZpJ23DfYHgenaT5TPXb2YIsZwVktGj72eH3qahKS2QQKRtGquzG+ejUsr2rGFGQdkbWSERRycKY/l+FkQgYX7pjDpjWUOhzA5lnTaQVrbrwO3NeCmxqieYQCnWGR1wDfRL5D/SW9DMkQwqm7dcCE1wgYSmAx17jQ72/LhBotG5Ky5OWfSXzVsuVEElAgmbcrOIco2wRdAR6YKrU6Z8j98JuU0pQmUCpSDSZcIZwjzB6egVcQb5nc5WYtxULlBREGeQ3/mUSFuJsVMrgRDnkI+yrcRpM8dO3UbQ133rncq3EnnUSiD5K0umvE3YY2Rlv4cNDZR92LkrIBP9qlEVjLx7TMtD2xBEXOYhFPp5cu2cdN2IAuVQqynGYvDAkl7IDzGFZuMUGyNRoByiQDkcVYEG/p8NtjB3LenMkRQIIS7ikHvOo7CvuR6zZDmSAkkIO4/SUYt+n6RfovWv0p2o1Wue17PXLzAy/OMrRCQSiUQikUgkS6PxH0UL6Ze2JBqwAAAAAElFTkSuQmCC'
p50
sS'andr'
p51
S'data:image/png;base64,iVBORw0KGgoAAAANSUhEUgAAAEgAAABECAMAAAAV8YMOAAAABGdBTUEAALGPC/xhBQAAAAFzUkdCAK7OHOkAAAMAUExURUxpcQBsogBsogBrohRzpABsogBsogBsogBsogBsoiB3pABsogBsogBsogBsogBsogBsogJtowBsogBqoQBsogBsogBsogBsogBsogBsogBsogBsonijrQBsogBsogBsogBsogBrogBsogBsogBsogBsogBsogBsogBsogBsogBsogBsogBsogBsogBsogBsogBsonijrQBsonijrXijrQBsonijrXijrQBrogBsogBsogBsogBsogBsogBsogBsooCpsgBsogBsogBsogBsogBsonijrXijrQBsonmjrXijrQBsogBsogBsogBsogBsoqG/xQBsogBsogBsogBsoneirQBsogBsonijrXijrXijrXijrXijrQBsonijrXijrQBsonijrQBsogBsogBsouz1+QBsogBrogBsogBsogBsonijravK1XymsHmkrpy8xABsoouwuXymsABsokWMqHijrQBsogBsonijrXijrXijrXijrXijrXijrQBqoXijrYu81XijrafM3zqNt3ijrW6ryu30+OPv9eTv9bzZ5p3G24ettliewr/a6HCfrJnE2ujy91eUqiyApn610PP4+7nW5f///xd5q5e4wAhxpXijrUKSuj2PuKXByHymr4OqtH+osX6nsZW3v6nEygBsov///3ijrQBroQBqoQBrov7+//v9/gxzpvn7/crh7Pf7/PD2+gNtoxl6qzWKtRB1qAZvpLrY5sbe6iaCsB9+rqPL3nGuy4y91f3+/nmyzuPv9WWmx7XU5JnF2s/k7gtypimEsXqkrhx8rA9yo9bn8DiNt+v0+FGbwNPm73awzQhwpODt9Bp7rKvP4czi7fT5+/P4+xZ5qkeVvHairY++1nCtyxV4qsHb6Xumr67IzlaUqk+QqbzY5zSEpzKItK7Q4oC20Xqzz+bw9l6ixIG20XGgrD2IqCyFsj2PuJ7H3IC20N3r87DR4qHJ3ZjE2UOSumupyajN3zOJtTSKtYmvuJS2vqrFy5G0vM/e4sTd6cng63kqrEEAAACkdFJOUwDtCQUBELT++/wC8p8X9gNqBgwKILosMrL4g/oIt0PRpJAaYFmHDekYFZQvz4tnx73yHvcEdf635UXeSxPD02/0J+dUjSMPe68X7E2Ae5rVR+HZV3IlNaIu3G5fjMvK+8lCUda/FHh8PmU36BrxTgbaZOLiwcU/q6iDIZZVE/xx/HYbyg3037efOWVBKRLqENRN+OTXydynTNln+rA57bDU6GctBqXhBgAABNpJREFUWMPtmGdYWlcYxzWGoaCCiHswFMRZjduqcSRBo6bapFnNsjbDNLN777333ndRQEQTFSuOqm120uyY0b137V4pXC5wuffcPhz7pR/6foLn3OfHOe/7P+/7vwQE/B//kZguk8mm/ztEeGhGa0G6gs/nK2ola1UhU9uHrr1SvDIwTIC4QihKzsqAR01Lqs0JFCKMKG0MheTolIEIKIL5UVAcaWowwhGJKhhQXgsXBwmeD5OnC0ScICRGBgFqDeMG6WFAlZwpQsLUMEdbI+DiCGthNhSQxJmjc+CEVMIJKoDTYyrn0RQ8KD3qOXMdGyeFAGnk3NUPvAICFJrDyRHJqyBAvDYwRXBlSlIaTI5kiRwiSoFtjAs5Ml0C29ayhUBQdRQsKDIZLGseLChEEgtqRQXwnV/HB4AyI6cwQ6I3s6V4PnC4hSxaumrTPxyuidWIGoNAD+YvXVxY/0zIplde3AL6nYikTCYnDtiIEm6sxzBs/cYtG9586RL2FcmOYU2jNmDFEubkYs7Y+sIfv219lSnHsvJ4VoIMt94C4My+cAbmitN/nnn5ecZFawDOxpvuYu/8Ng8Hw34/M/M8n8U0cTwAg799yHjn3axzeTnY6V99QWkLgQOEGDaj9jvu8cl3ws25GC2O+4B4YiAH7+pFUdR4u5LW+vOX+HAwbOZT3sWghljwvd9ndoA6d92g94p743pfDrbhXi+oBuxBiF1DDg7as82AyKPdBSticLCi672XPhPIwd/qcXIsnxKOLxU1LoHXLWdwLl/kFRDYzBhMk3YnaMSxIeeVS80jUzRnBR1TWLTAe7D2aiBn+0cWJ+fAVzjVuXNSnCqvKyr0clZcdQ0t0+lgzuudTs7hH63ee8dXV8mCHn7Aw5lxbR29c1QDORMkx3hizEDv3qV88bJHPqc4uVfPprvYOFCexz4mOehPJ3HWovWL4ySnfkkCXagqT8kEnsmPbxsg84P22IoVWhZp/7tOzuLr8n1uTpnbpQUnu4tH2PqNJOdUH67XlJQzrYVhxztY4fJVDH/uOVmFhLq2xAekflD0UDeOKMMD8pQst7Pj/csWMB2Ie7oKGpLIHeHWPTtdnLMODmmMpDXLWH5HyZob7lEWtnaugEzP4G4X571xZ54l5FOzspp9UbGsKV5VSi0lq9SOZ/G+fjOJsX/YR9ZLQoktI66C1rDim1gdOLqYWuNL1wkM1mMdru1YJrsIhAZyJDNynV7rYgnnzWd3cg8oUdaImyaGXJzdgyZKPxL6jMlQp8fIE8XZswB9PONSCqQtW2N7w6UedO8eq1vPq5nF0USAXwbzLvKU/7lT1LEOfkltx4DjteH+miuPSyOePUJyvp0wEa7Ybjra9eQ0f18Ys7x9bNTJeW104JuJ4eHBzwa+PjjS2/H4g/7ahrlhntEzilJhNJvt1MeH7oe2ssSxTpQdj13sv9+jtjT2vR0AesJ/kCadJGmf/mHf5Hd/7f3ksMViOTJ0YOfZjt6R/hOP3gdh+FPE8jZxazlO4PtP2sZ/6e7u/nm8z9bVddSEEMVwRlTGC08jBYXjVOkJ3BEOVYqgrbFMAXw1ClZD20fV6pVapiMRNfOjpuBEz21PqUwV88vntWxuLm2pkDdVlkVFTPX/lRCphqfTpUVF6nQa/1/R/gYThuXIQVnJUAAAAABJRU5ErkJggg=='
p52
sb.