ccopy_reg
_reconstructor
p0
(cemoji
Emoji
p1
c__builtin__
object
p2
Ntp3
Rp4
(dp5
S'emojipedia_url'
p6
Vhttp://emojipedia.org/baggage-claim/
p7
sS'index'
p8
V530
p9
sS'code'
p10
VU+1F6C4
p11
sS'apple'
p12
S'data:image/png;base64,iVBORw0KGgoAAAANSUhEUgAAAEAAAABACAMAAACdt4HsAAAC91BMVEUAAAAAMJYAAwsANpYAQIMAOpYDLqgAAAAAAAAANJYAAAAAPJcAP5cDK6QAAAAAG1MARJoAZKYAT6QAQ4kENr8ACBkAQpkCKZMDG04DLqUAQIoARYEAPYEBLpIBK4gBKHoAJGkBNrICK5kCIWkBJW0CJHIDJoIABhIEKZcCH1gAAAAAQocARJUAQ5AARYAARH0ATYYATYgAQY0AQngASJQAPXcAQYABWuQBWeQCWOQEV+QEVeMFVOMAYuYEVuQGUuMAaOcAbOcAaecGTuAGQtIAXOUAAHgAY+YAcOcAXeUAZObw8PwAYeUAbucAb+csj+3w8v0AaOIAbtomjOwAVOMAXuUwkuwpju0AcucAVsYAX9gAYOEKfOgAdOQAXcgDUt4Vg+oOfeoAUsYAU+QATsUASsQAaNkAWuAeh+sOgOoAVuMhiusDPcgAUOIZhesAZNgAbuMAWtcAW8cBRMQGTN4FRtUAXeQFeenY5fsAQeAAVtcBUtYCdukvkewljOgCOroDTNUFP88GStlwqvEGYeYSaOdsoO88guu0zvcAO98AXNgAceMBQb55qfEDSc4DT9gAAJHw8/1ale6QtvOoxfYASuENZOVSkO2ZvvQfb+cwe+rL3foodeiBq/EAbeb///8AZsAAWa6l0PU9mu5jrvAAbtHA3fhPpe8fjOwAALZaqvDV6Pkrk+1Ioe8aiOoDfOlBne5Up/AAbM1xtvE5meVcqvBLou8AddtgrPDN5PoAAL0qkOhdq/BRpvBKousAcdcMgepgrfCTxvJ3uPIAYLgAZsU3l+4AasQAV6wAVahpsPByctHb2/MAYsgAAKZNpO8sj9sAYMMICMMATJsAV7QAXb0VhuAAItkALtwAENbd6/sTg95vb+P6/P/x9/4AZbsgiNqIwPPn8fy52Pjq8v1zs+cAbsk7me7i5vsUfc8LeM3Q5PgzlO0vk+oAdOgAaOZFoO8ActtEne4VftBkrvDI4foAZeQAEdcAZ+ZWqPAAV64AAKxkr/BJjKJoAAAAN3RSTlMA0iHS0NLSJh3SDtLS0gcD0gf+0P0s0shK4tlNxM/AnmH82GqCfaApvloVlc69cT8kK+Js95G3uYIfowAABT1JREFUeF7c0EVvHDEYgOEe5p5kKuWwu/8gjH/Xw8y0zMxhZmYo06FS42bHUTXJXvucLNt69el7918ZCs/NY9j7V2DY/Fx46B+BgRlsFq/XyB+vIGt1fBabGXgZmIwskyWifHZ1+THQ5dVZmSiRy5FJNDARqu9X2YVTiruWA11z1OkCW92vhyb8galpkrAOCke7J3L8c6C4fLJ7VDiwCHJ6yre+SK3KOvLe8aHdaHwK1GjYh8d7ssNWa5HeKsdxgnW24kXXzTPMr0AMk3fdYnzLYQl8/HmAUMna5riUxLyRlOK4basU+jtCGC9nbc6V8rE3yksuZ2fLeBgGRlasNapopvpgFqk1a2UEBsZWWadgSn0xCw67OgYDo4vZjJ3+3pe0nckujsLAYDuaifFpBG9o6+JPSFzXjJfvsUy0PdgLGFKXR6jCRrMFoFZzQ1B5RFcykEDF9FC0vgN8dnTaQ5mVXmC4Hb3lVRSduwCU93TuUuAiR6so/jbaHvYFvAfoXNEERdH0OwDUB8gD4E7XFEUQlPPnOzSQVI0nN/qmmPh2n+iIACQ60BIAYkf8cr8kbuo38KOa9Acekx/oPyq5r83Wb0bpnTdtKIACcKMoQ5TM3fo7SIZKGInGUMAFHHCCQTgJAYxMXpIdUoeFvFGlNI++0uYOWTKR7F06sbSdg6K2SysVqZWjdGnG3ofNBdttc8Zzjz9dXRmooYfAEdR+eP/7XZMsf7297gaq599xOBa9Xbb8yAXIZiH7ieXI8rzaBWSuqydNHE5vQyDJPXUCpG3rHFmeVK8zFIg1mj9xuCKaxuP2G9C2yJFlsxHrAMOZmLiaWE3AEKBUsgOkJQDawbkYywxTIN1IcChJCQGFgh2grZTEw0Qj3QucnXJJmLiIgLLjEWkrxtGOOz3rAoYWY2lDK8dhShp5bztAW62EdmXNSMcWh7oBwxCzhVJBR0CxaAdoq8NRVjQMG1A3DIFldUkSECBKdoC2giTpLCsYRp0CAxOzdUGAAMMwfgRooiugof/T72OYCAvn9dmJAQrMsyiRsI9HwPiY268cGkct74Xfo8w7gUgk4pMRwCtugMJjwBeGOyeA2kjYvIEsuwG8bAJk2wPMRY/DKAy5wagrIHsIwDBoehydo8AUBBgcAoyMuAGjFoADgSkL6KeAFz+ix/MPwEuB/g4wGfWReKcxoLoBI7id9prT6GQPcGXWAQT4/W6AB7d+c3jVDcxAwErb/QZW27Z2EJixgEEI3FipQSB44wCsttYZQmCQAqlgJ7VLEAx+cQKovazRXaob2EmN9ea+S2yT1A4FcgupEI6y3WpVlMNKRVFDtqhKpXKoVFqtbfMstZBzAhe7D/6b3Qv+70AL3CIt2Q705Vby6jjObQCyVPMruT4LWIJAgGQdgM9rmwAsBzYAOAjsA/AmsAXAXuAbAK/woTmEwJIF3Ft6nFetPFneUNde/Hiurm8dbaqvv269VDePDp6pe8v75NBK/k/l9a7aMAyFcVycoUcYpCw2toc695teoBeZdHDf44yBoM3S5MGXOSSv3EUtJhRi/R7gz7d+Tf3qA8W1Ob8FOzfXwgfmbUfvwahr5z6wWN7o8hHoQrflwgdgVd/1ZyB9r1fgA2rTOtL6FEBrcu1G+YBMUtNRqQOU1Jk0kcyDLDcDlQFoMHkG7FeEx9w4W31NVFln8iNG7A/HLI17N1hrqyestYPr4zRDPv58gPutiE3/PUFvYrHdI8zYiATEZL07iJenxGG3ThBBPvxOjkH4jD2KACeDiP1HKsUnUGq8/gcjOIwFQA1DgAAAAABJRU5ErkJggg=='
p13
sS'twit'
p14
S'data:image/png;base64,iVBORw0KGgoAAAANSUhEUgAAAEgAAABIBAMAAACnw650AAAAKlBMVEUAAAAiZpkiZpkiZpkiZpkiZpkiZpkiZplklLfb5u71+Povb5/N3eiMr8otXGazAAAACHRSTlMAYL//ACDP71kzCuAAAADWSURBVHgB7dbRCcJADIfxzKATiBNoHiz09XQCcQKdwBH6VpzgJuj9wT2cwWmUEmoL5hJBfbrvIU8/VCIcIaIZZ1uEQOHARqdA27OFNnvasdmR5jZa0dJGa+JxVURfanjcFLWQugyKkJKOagxl0Y2fXXKIgf4XVwaST3Qg/iWSTTNjEvOweZJNv0foRihqKL1QDQ3hQ8QFFVRQQd6nx/eI2c+h3f/RHdmuPYKRH7m+Tv4kdQqKQNKnoBbo9CmoiqnR5zc37jpoXKeR68hynWu+wy8E+4R8ANkv76d1xTDhAAAAAElFTkSuQmCC'
p15
sS'gmail'
p16
S''
p17
sS'related_to'
p18
(lp19
V\u2708 Airplane
p20
aV\U0001f6c2 Passport Control
p21
aV\U0001f6c5 Left Luggage
p22
aV\U0001f6c3 Customs
p23
asS'name'
p24
Vbaggage claim
p25
sS'known_as'
p26
(lp27
sS'default'
p28
Vemoji
p29
sS'bw'
p30
S'data:image/png;base64,iVBORw0KGgoAAAANSUhEUgAAAJAAAACQCAYAAADnRuK4AAAGv0lEQVR42u2dLzQlYRiHBUEQBGGDIAiCIAiCIAiCIAiCIAjCBkEQnCMIgiCIgiAIgiAIgiAIgiAIgrBBEARBEGbPM87s3juYf3cuY+7zO+c9zu7M/Wbm/Z7v/8z3dgUdqpeXl2B6ejro6urKZHt7e4F6ry5d8KbJycl30GxsbOgYARIgARIgARIgARIgJUACJEACJEDV09bWVrC4uNhkx8fHOkaAlACVoNfX1+Dy8jI4Pz8vza6urgSoEx7y5OQk+PXrV+Zlizw2PDwcXF9fC1BdReb29PS0BZ7IBgYGgqenJwGqo1ZWVtoKT2QHBwcCVEfRxDRmNE3Z6elp2CdqpVYbHR1tSpdRmwDVUPHm6+joqJR0//z5E/T29v5Ld2xsTIDqJjK5EZ7u7u7wPaCyNDU11VSzCVDNdH9//66zW6aWlpaa0hegmuni4qIpgycmJkpNn6WOxvQfHx8FqM4Asd7VToCo8QTom/ssZELcmPFl5jeeQfRnkmaKDw8PmzKYkVOZM9Gzs7NN6Z+dnSWeH9ft7W34/8yQf/Tc+KOV0WLtAXp+fg52dnaC8fHxsIObNtcSXx2P93E+Mvop+/v7odGEfcWc0GcWF0P/LL8DfPxURZi+DaC7u7uwU5snA4oABDh5M6xqAEU2ODhYuX7WtwBE0zM0NJQ7AzodIIxPkToeIKrjIhkgQG9WpbcAvgWgkZERAWrhfn7//t25AN3c3BTOAAH6/wpJxwK0u7srQCXcT1VeH/lygOKTbwJULK2qTFoKkAAJUJHliizwCZAABQ8PD8Hq6mr42U7jTK4ACVAmgNbX1/8d4+V6ARKgXABtbm42LXYKkADlAogFW6YOeOndJkyA7EQLkAAJkAAJkAAJkAAJkAAJkAAJkAAJkAAJkAAJkAAJkAAJkAAJUMcCxAvn0ZeoSba9vS1AAvT1tYgACZAACZAACZAACZAACZAACZAACZAACZAACZAACZAACZAACZAACZAACZAACVD1AGKbFQFqHSB2se9IgNjaX4BaA6jsqEM/CiA2GS8aAFeA3mxubq5zAWqlHyRAb0bIzo4GiC1qi9RCAvQWWrNKQVe+LdgKgWu/IthKnQDCXwSpqZK+NdwTNRFQUKraFe6pDgAR7omt+qoYEfFHBJyLLL47O1V50vlVs7gAIul8A86p2qs0gNjMkm102VZ3ZWUl3NiSOZ+iJYhwkISFotnibytpUdK5N74F45swQkwWTYvnZBQUpUVc1qKhxLkHQjft7e2F/iLdVpop0uPZ8BX7Y/8YgHj4vr6+sJM3Pz8ftu184BeNGvLEt+JcQmD29vaGMUlJKwpVmTctmoDl5eWwf0V6/J5QU/yb6H/EVM0DIYWDdPg96UT3yYgSyPMIaKJBBPfCM/b39wc9PT1hmE5AzSogJoY990Ia3BdpYoCeJ60vB4iHxYFsoxsviezLTGRCnELJSBNp4AR2lo/3d6iRiNaXNS1KIfcFyMfHx033BlgLCwth5gFFmghRRWZwb/HOLKUeeLgvYE+r2Tg+MzMTQshzxkdV+IDCSMc5S23EtUmLwhb3C4WNQoO1C6KWAKIKx6lkbtJIi0zEkpzLsB5HUDKTRA2XlhawULpxapLj1tbWQojSgCQzgTFpCA2w3H9arcZaID5Luib+5Bxqz7Sah2sm1X74gv0CgLtyAEF2lhJMqSKjPgp9HQlnUcrTSjCjE5yWlBaZyDlpC47ARWlPyigymnvP0tzRjKTFNAVEIMpSswNRkj+4VpYYqoDWrhX8wgBRs5BJWfokZBQPQHv8mWi7s4ZyBNyktFgryhqclnPpz3wmmpm0jGzsC3JuUlOIH7J0cOn0J8VHjfyftR+Hf/P200oDiKq7cWcLHMVIiwfkLyOlNIu2Xil6vNGoqZLO5TjNTpa0OI9aqOjxRqPJjCY8P7Jo4jBLWtG5/P3oeOT/z47HjWfAZ/ThGvOy1XW1TABxoZ8046tlt6z7KQmQJkCaAGkCpAmQAGkCpAmQJkCaAAmQALUXINZuWLxs1aLV7zzGmlYZ166ysUaV1y8ssZRxbd6CqMQbie2qydr1GkKVVORr3VZrjsq90ipAAiRAAiRAAiRAAiRAAiRAAiRAAiRAAiRAAiRAAiRAAiRAAiRAAiRAAiRAAiRAAiRAAiRAAiRAAiRAAvQ1YqMjgMhjaTuW1UHsSJbXL1k2qaodQKp+EiAlQEqAlAApAVJKgJQAKQFSAqSUACkBUgKkBEgpAVICpARICZBSAqQESAmQEiAlQEoJkBIgJUBKgJQSICVASoCUACklQEqAlAApAVLqv/4CWWKbIksdByUAAAAASUVORK5CYII='
p31
sS'version'
p32
VV6.0\u02e3
p33
sS'uni'
p34
V\U0001f6c4
p35
sS'desc'
p36
V\U0001f6c4 
p37
sS'browser'
p38
V\U0001f6c4
p39
sS'annotations'
p40
(lp41
Vbaggage
p42
aVclaim
p43
aVplace
p44
aVsign
p45
aVsymbol
p46
aVtravel
p47
asS'wind'
p48
S'data:image/png;base64,iVBORw0KGgoAAAANSUhEUgAAAEgAAABICAYAAABV7bNHAAAAAXNSR0IArs4c6QAAAARnQU1BAACxjwv8YQUAAAICSURBVHhe7dqvTsNQFAbwti+AIggUgpCgQWNJcDwAAszMsBPrVLtlAjU0CHAQcCQYngAEigSFRvICK99pT5MhtrP1lraD75cs9w+kvf16b7vkziMiIiIiIiIiIiKisvhaViqO46MkSQa+769rl+Udn0EYhldZszqBlpVCOKMFwhFbEqjWK1XXDEqkxEU/oPiU+gxrCPNAKphBlY+37oBOe73eedo5RRRFbQQ0knodAdWyxJYJAzKUNmX7/f72eDw+RHUj6/Fe8+WDZXKR9igsmWMpF30G4f8v0x6F459IieMPUaxKHT6CILjvdrtv2nZSSkA6wBYuZCXryS4mv4D8mVO2/JmE8z/j3DtpJ+DcXyjOcP446ynOeYlhcCEG15kMp24yFnwwtKitXYWV8QxqadlEHS0LcwpI7hDu1CJf+ColY8MY97VZyH94i21qWQhf8wYGZGBABgZkYEAGBmRgQAYGZGBABgZkYEAGBmRgQAYGZGBABgZkYEAGBmT48wH5vi9bQIU5BRQEwZPuQTWSjM31JzNOAenu5V3WaqRrLQtzXmKye4o7JVvIjYIx3WBszhuHpe3N66/G9rQppu7NlyXf2sbxJ/fmxS3+9qh1+k1zzyCdIY3Zf3chb7Z5H95zB4Rp/OMXFMsMN/oFS3BXmzPxi6KBAREREREREREtF8/7BlmPmxtdaaodAAAAAElFTkSuQmCC'
p49
sS'andr'
p50
S'data:image/png;base64,iVBORw0KGgoAAAANSUhEUgAAAEgAAABECAMAAAAV8YMOAAAABGdBTUEAALGPC/xhBQAAAAFzUkdCAK7OHOkAAAIQUExURUxpce1sMO1sMO1sMO1sMO1sMO1sMO1sMO1sMO1sMO1sMO1sMO1sMO1sMO1sMO1sMO1sMO1sMPzq4e1sMO1sMO1sMP3t5u1sMO1sMO1sMO1sMO1sMO1sMO1sMO1sMO1sMO1sMO1sMO1sMO1sMO1sMO1sMO1sMO1sMO1sMO1sMO1sMO1sMPa8oO1sMO1sMO1sMO1sMO1sMO1sMO1sMO1sMO1sMO1sMO1sMO1sMO1sMO1sMO1sMO1sMO1sMO1sMO1sMO1sMO1sMO1sMO1sMO1sMO1sMO1sMO1sMO1sMO1sMO1sMO1sMO1sMO1rLu1rLu1sMO1sMO1sMO1sMO1sMO1sMPWzk/zo3u1sMO1sMPa0le1qLu1sMO1rLu1qLvSkf+1sMPzr4+1sMPSlgO1qLu1sMO1sMO1qLu1sMPKYbu1sMO1sMO1sMO1sMO1sMO1sMO1sMO1sMO1sMO1sMPKheu1sMO1sMO1sMO1rLu1sMPa8ofa7n+1sMO1sMO1sMO1sMO1sMO1sMO1sMO1sMO1sMO1sMO1sMO1sMO1sMO1sMO1sMO1sMO1sMO1sMO1sMO1sMO1sMO1sMO1sMO1sMO1sMO1sMO1sMO1sMO1sMO1sMO1sMO1sMO1sMO1sMO1sMO1sMO1sMO1sMO1sMO1sMO1sMP///+1rLu1qLvSohfe5nf/9/P/8+//+/ve4nPSohPe5nP76+OpSZ3IAAACjdFJOUwDYHnqh/gH3SwIVyvIuJ+UG8Y8DQGa3Dwrk9e4LBA0IsfZNNrY51mcT/LwfAykbIiAa/TPZQypxbxKrhXtuFqlRw1CnRCXo4udVX5e6ev7wLEVjgviFjyuSrXqjof6DwLdJqgJBk6E1Az2DDNV23UcYBxQDaKAJAp0DA677F8zO0/Tauz9cgGDgEB3qXgV13DQos7KGcDKE28fGQoi1fMsR5sE1k7ShAAAC/UlEQVRYw+2Y9VMbURDHXwk5CBADQrwJkCAJBEhwd3d3d3d3d+ruDw32L3aPdtI5SGm5zrQd5r4/7GT39n3mdi+X2Q1CjO6VHtrobSjS2zykw/GM9HpwTV6Rnnfn+GRjK8r2uTMoP88aKC//ziCukzWQE/dfg+SOFsn/CKRxsEhDE1R2BZr6EZi6ApX9xtGIkDBWTomzs3NpbSWLVV5MHvRiWeRF+sXlLFZlbSkkleSwwkIirGBcPHRCX3bumdlsvjyvYbPZ37rLtsji15xfQtJZLttXqPNwucHJTCfzDo739/dPjg7xLTo8OoGk4wPyc3rmdZIrH9MBYb4rlSNJwvRAOElCAaWk0QWlpVArk9EFyai12dvRBdnZMyAGxIAYEANiQAzor4GS3emC3JMpoNBUuqDUUApIrKEL0oipk1aGkB5ImHFt9FMVudMBuUcN3NjOwoNhcD24OD09Nf8KZIakCwCxg8OtbXA8UZZtdYWbm1t9Y6vtLWptrIekimrbLBHvJyM7wRkbmvDzm2xv4tyipvZJP7+JoTEO8f9vwYM8smUS3gzcq1IfIAAn1r8LrIIXC6GdwMAdKDuWp4BQF28QrCBAr4TQDI8cssX+3/dTbR3/qT/qH5fOxROC8MX1VQV6+5ofF4AMI9JZe6Ta3dvbVSH7WemIAQXE8d+EIMXq+mLYAEqck473o8dP+HVakiOogkf6DA1PY5wQ4Q+bhHzZRQ2hHhQD3wedxLSF8ZZJooOn/ZzogQvvXZZhCfwcuvEF4+lhVAShKrIKFXmqBUWDnQ8yLcD7nKhMAKeTeAn24wY5y8tcxY7gRBGdYBOUifBbsWAKmgcnGrWAVasAxCmUY2kDauvGdu+Un+J8jUsGIkaIe5tRRzCWfeA4qI1GtQMRLcOvOlBzLxbGEIYlo2+kjzLKDne3oQYplhdyrmor8NZyEMEVxcP7F7SyFojQaJ+3J4GIFyIPaPDm9vYmNN5D9AiyPL37RhEKXFsJgi7Hi7gE4mi9CwT3+i+Zr0i7OQpV8zUyAAAAAElFTkSuQmCC'
p51
sb.