ccopy_reg
_reconstructor
p0
(cemoji
Emoji
p1
c__builtin__
object
p2
Ntp3
Rp4
(dp5
S'emojipedia_url'
p6
Vhttp://emojipedia.org/waxing-gibbous-moon-symbol/
p7
sS'index'
p8
V590
p9
sS'code'
p10
VU+1F314
p11
sS'apple'
p12
S'data:image/png;base64,iVBORw0KGgoAAAANSUhEUgAAAEAAAABACAMAAACdt4HsAAAC9FBMVEUAAADEdg8kJSvVpkAnJilgRxnBfhIkIifJlCvEgxhmXkeHhXQjJCsmJSkkJCvDiCLbukfPoTnEgRjKly4jJCsoKTEnKC8vLS4uMDQ3LikiIic0NDq+iiY6PEfAfRbDexO4ola+dRDHixzMmDMeICUdHyTQozFPTEhIPzhsXD58aEDCgxzPpzffxVDl0WCjfzBZSDGUhFLjyFNRU1rAhR5yZkb/+ZL69LXx4YP/+Y/x3HH8+NH043Xpxlv15Xr48Jzy4Xj27aT475Xv12nz4HDz43326Hvht1TnxFn67oT054X05oD69cHy33b/+ZXw2mv37Ijqy2Lv3Hbv3X3oyF/s1Gn26oDsz2X+9Ybu2XT88Hzes0735HX+9oz//LX56nb06pv48K/szV/34Grpx1bpwlP67X/663o1N0D/+Yrrylv58bn686XjulH45XD798b79bv/+pkvMTnx4or24XDu02T/+p779Kz12WD474/98n/t0GD48LT685/++9f//Kz9+cvy5pH03Grnv1j59c3nvVPu2W/27qr9+rvxzljgvFb88Hj+9oDlwFXlxGPx0V3kvlzs1XDy1mPjt0nlymnp0Wz99ZLj3pjt55nx6af9+cL06Yv78or37JD++aP9+bArLTX/+6X//brZrkX66W45O0b01V03OUQ+QEtHSU5WU0k8PkinlFb9+9xLTlvav1/23GZdYGr//c7b2KYnKTBkYlWDhINmaGvvyVUyMzyysqJGSVX02WbBv5P//cdYW2RqbHOsrJfl36vGxKz078z28cP69Jj//cBNSkP/+IXY04/QzJbPx4OBeFX//tPOwXDi1XrUz6bw7MJxcm9yc3nq5qqZmpI9PUCLjIZCRE+bmHm5tISopolFRETr443azHWko5jAtnPh3sBwaVBWV1bBwKDEq1nr58Z0cl2zqm7Z1bbx7LSDgGGUjmWciVCmnmvMtF3PsVLn3YR6e32bm4vRzrV7bkm5o1iOgE6Sk468u6lRVGCUrM5/AAAANnRSTlMACsr9OAMiDMZH/f2Ua0WVye9qzrfy5IfRHSfJsOtwELo2OuNwSWrIaoq4g4zj+cZIr/Dcj2mNAhqlAAAI8UlEQVR4Xt2XVZhe5RWF26RJM2iEkJBAUohABCi0/d3d3XXc3d3d3S3u7u7uwd3dqcpN13fGOkQIt+znmee/2u+31tr7fHPOb37N9dgf/7LkhRf+gFq+OGDyLwX8bsnS+998+60jly92vNtjkEmem7r8qXsH/P6Zp1/a+7cTRy5d7OjoDOSf1emimEylfuri+ffY/qd9f32d6qfa25OSaEwaIA7Os4t/+/OAh57e8TLp/+TSro5O/tm8JF16v45Gi6Ixo5gOztSAn1M/a+uO4y8T/Td2vdIVm9G/oj89vZ9Go+lozAsol3j5XUXMmbv1GAT8+8QnN06+UkGv9A0UrFixIj2JCQ9JF2prL0Q54qdOvkv2T2z97459L7/+/sFTu175KrGycqWvoKAAgKSkdBogUbXe2tqIZ5+6o330Q8DeVw+e+vLDm5rubkIY8BFAepIOPry1jlqHI/zFgDueDwAm8P5//v7hZ6c13RpN5cqVPl/BCqhAhiRFrzfblR3x4m01zHni0CE4OL731ROnvvzs5ulCVPc5n8+3kuSQpIuK8jJpzHZHtqtm9bOTb5P/3DfQfwwJUALOlF4tPHr06LmVAPggoV+nY0Zd8Hq9juwaV3j81Ftn8cAmCnAcIyAJnGHns3fu3Hn0nA8uCgBIopYB/S6XMlxmf/iWACPXEwAVIRFwhs3Ov3qVEAAYQAiYBFOn8/b2umrC/RJ9dcBPDMxes/4NZDjs4PTphML8/HwAQKj0FSDIfmwDHLT3Ztf4/cVi+4zxJh6M3AQA5eDgKYygVJO/hSIkJGgqEeQKHYrpdXjbHTU1fp623Fo3fZyAR9dsegMAMoODlAAAtoDB7u7GJCoHYmP57UzsYTsJIUJmKrfap80fJ2DNSASUg9JS9hYUm11IBjGQEZuXJ+RnMQFwuFyu1auLxWk51f8nYdLsdcMARIAloAD5V9mlbCpFnJ/H54tEWdgjl0vmkUiK03KCQ2dMGtvBA+s2DQEQAQXIxxDy2QmFhZAAQB5flGUwGHq9jl6lp9wJB1ajcdWTo4BZkWuGAPsAwBChoDShkK3RwEPC0XOJGXlZWVkGpajXUatU8UxN5WKrPdpSvWzUwdx160iIhwB4FRHcPFPKRvoJifRCACrPVWbAQJ+hl+ZQZtfwpKY2a5vdaLEopox4eGxmJCxgjMeOkwxPApCgSUyMoQflxmgAWOnLE4kM7TRar81V4+eYypvaWu1GRei0kSdiUfKQBawB1ujGya9iSnF6Ym5uUBA9UZOIPSjoT6fpzmapeLaaGg6L1dTWZjRyFatGtnHhgUhYIICXXj9BAWI0MfQYAOiaM7lBsQUD5FIRZfUxnGa1yy8wlaflRFss9e55I88RBVh/iJoiLrOu3NwYqvCroQcJ+Rm41nS9BhXDxOLwwnnlegC4CkXLyBP1CAGQDAB4mwCCgqA+lwASE+m5wqK+vP70syKbTKbmSQQcP6vJHhytUCjiHh8DIEVIOPYSALtOdlVUCINiYgiFThdWBKpSVCKRqM8m48lUUoGWU97a2GixADBlGDDhAJGwZtOGUYBQGKRJoKM/gy8UFvUwtAJGikrNUKvVUq3W1FRPARrHAMmjgPvfPoL7GICKBHoGnU4PCgwMLApkmBkMM8+mUvOkAgmG0FpfjyGUjAIeIQBswoaPKUBXEB0WEgFAgF2BRUVFDEZKillq6FHz0K/Xt9VjDSyKspYxQDJCwCZ8vI9SAAFCekZsBkpI+lNSGFCg7SEALUssbq03EkDdaIgPDELCGKAzsKhLWAFAbCwFSMH5EGBTqdQcidmkF7fVW+wWBSyMjHEhAAcikQEAb751sbOzqytQGIvKiyX9ADBgQCXjSbUsrUnfZI2ODrZAwegiLRpMpiRAwddvvnWpI5DPD8RfBS4Bfl8Ppd8kxRDVALDKxbgLgo1cbkkZVnnkYRoGbN3z+RAgjw/lRYDgIQLBZDKb1Soeh4zA2ZSWYzdGhwIw+jBNmjDkAWP4/JsvLnd0is5mFXXiZBVfhOqRSp1OE0eKFWCZnOVWooCrqMcUR6+kWbsBgAQC+O7yxXcNWVkpZjOm39dn6OtR26RNTomEI4ABp1iclpZjJE9CmHvZ2JW2m8whEoA9X3/3weV3VQZlitnkdJr7DDabymx2mkwcCUsL/+i3WoMBCA2Lm4grbdTD7kHi4R0Avvng8o8qpUvJkDqbnD0qtQy/VpbAw2Ox9ADY06x2RBiqKHHDwWg9SElYt37DHoRw7bpAFu5S2gQCHk+t5nAETqueExEh0evFyM+OJ5HL5ZbJJ04f949lkEggIcDDez+qbeEuV3gPusN5AlxBLIHfL2ER+znBRmMolxsmly8Y99K3EBKIh40khGvXpeqIcKVSaVD5I8JlPI5WIIn3xKeCAPkYYWhoXfWqeePfDiYMrfP5IQ9mqcxvi4hQRqxGRcji4+M9Hk9IanNOsD0Y/WFhYXL8cx1XD1ESXntn40fEw3Wz2uOXkcbVq9EbEh+Smpq6PXMt9HPRXxZWNzHglhcMap/h4QokvOfUcjw8ci4YISGe1JCQ7dszMzNzAODWyePi3NRz9FMTg8mQgF2ChDanhMNDn4fnCdkeEhKC4w8fPtzcnMONa2x0y90wcEvNeXQwGQRI2PzFtda25mKJFo3kbFRxZubatWsbGqLD5NVyuXvB5Nu+5s1EDK+d3/jRvzZ/uu05q7hYW4yCdHI4+gHgNobFyd3uaXd41Vw0k+R4/r4r3/7z+22tVrG+GJ0ocnpz89qG/dwSdMvd0wLu+Kr7KCRgEFc2E4I9TdycOWSdqK/i1pWUAeBe8ORdXrYnIAXKBAiW4LS0hgYc3oCqig6rbqyWw8CUyXd93X8g+bV3zt/3D4pQbzQ25IBRVVW1P1Qhl5fIy+ImPvxz3xwPzYaJYcI2hcUYHFy1f39VSV21vKWsbNWMgHv45Hlw9jDh0x+ACA3dj8LyxrWsWjCPHH8viLnExbdAfL+tui6MQrRMnDJ9/i/47Jv19DDiB3dcXAu6lz35yz88n1mydOnzzz/++J+n48PzV1z/AxIlD1sfqWfeAAAAAElFTkSuQmCC'
p13
sS'twit'
p14
S'data:image/png;base64,iVBORw0KGgoAAAANSUhEUgAAAEgAAABICAMAAABiM0N1AAAAt1BMVEUAAABmdX9mdX9mdX/M1t1mdX/M1t3M1t3M1t3M1t3M1t3M1t1mdX9mdX9mdX/M1t3M1t3M1t1mdX9mdX/M1t1mdX9mdX9mdX/M1t3M1t1mdX9mdX/M1t1mdX+4xc1baHa5xs7Ay9OsuMDH0tm+ytK/ytGZpq5se4XK1Nu7x8+Gk5xjcXxcanfBzNSTn6jL1dzI09rG0dhhb3uAjZfCztWzvsZldH6msrqfrLTG0Nd5h5FzgYuMmaKn44jAAAAAHHRSTlMAIFCAr7/fv49gIAAwj9+fUO+fr0AQcO+Az89gKIOLSwAAAqxJREFUeNq9mNly4jAQRWVW4wSMGRJgRpJtIOwh++z//11jGw0t0Wkauyo5r6465W5tVxJn8Gr1L031907mtNp+J7iiEdSH625PZWwyDdAK++VEXr2wqOVUnhL5wcUib6AObH7J92gMLxLdDJRhLynCgBfdjpThh6SJxozIayrOY5gE50S1EecBoj4tulXK7s/TWuv1E60aU6IBeF5yjy44YwpPRNizzMd9rQvW0mY21xnzGTIJywPk8/BBG2xPqg33pyYB/QE2khDd6yMp9MkR1ZRb2LulzbSFqa7viryRAhayADd7bovmZhYEjuirAv6YFYaHXwNQ8sQW1XPBcxw/q4yfEkGKoE0CCoszoEO8aCXt4oQZeRDtZck/kuF/0bVSVml3WEA22zA0ooGy+C0R9PAbGgeRBxa61TCxYWoDQSHqgoWqDE/tVNr4hWjEVEYuWiDKRTVls5eV6GeigSOaVhOFmajniJzZuEoTrZN0xYtaV8Ids6W0eEx0QfLImwLxzRG92P+TaEPC/1NHdMlep/YuxuGLpiNaSCABUcKK2qJHDdqDtuC7LZTDGyViQSKmNEa03cXxbguiEs1+1fr1KNrGBVsjKjX8OuMo2h1EOxARE5IRfY8NIEJLhCsNi6qBS6su6jnNnlb1tETTGf5FVVEbLVoGKsf5aBthoHJcB29sNDjsAAHeamlQ/AJaePOvJgrxcVSttD5xQKKjkGl2RBzZKL9yw+8TIQLlV46AiDUowDA0IGg5teFIxTCE6GexJ0IeTeiGUYjrJUVR4MZjaDeRXynGdGAv9UeTM1cI1GymMPpSc9Hw40sNatMG5VeSMXvxg/xqHTuIkL2KokWrMwgPczkGSFF40XUdoEobf8wDQvUnjQ95ZKn+7POZD1H809hnP9YBpZ4P/wGubf56/Cs3FQAAAABJRU5ErkJggg=='
p15
sS'gmail'
p16
S'data:image/png;base64,R0lGODlhDwAPALMPAP//AFFRaAAAmSMjhDIye6enNOfnDpycOwAAngAAoLu7KeTkEAUFmNraFvHxCAAAACH5BAEAAA8ALAAAAAAPAA8AAART8EkpqhgzPyvQaAWWcUISAMBCTGR5oIAhkgnhwECxcQij4LEBJ8F4AQGBTqL2OyIZg8Dh5kR+qjDZo4BF6R4DA1YrISycKs2gcEYtQppJNBAQTSIAOw=='
p17
sS'related_to'
p18
(lp19
V\U0001f31d Full Moon With Face
p20
aV\U0001f31a New Moon With Face
p21
aV\U0001f311 New Moon Symbol
p22
aV\U0001f312 Waxing Crescent Moon Symbol
p23
aV\U0001f313 First Quarter Moon Symbol
p24
aV\U0001f315 Full Moon Symbol
p25
aV\U0001f316 Waning Gibbous Moon Symbol
p26
aV\U0001f317 Last Quarter Moon Symbol
p27
aV\U0001f318 Waning Crescent Moon Symbol
p28
aV\U0001f31c Last Quarter Moon With Face
p29
aV\U0001f31b First Quarter Moon With Face
p30
aV\U0001f319 Crescent Moon
p31
asS'name'
p32
Vwaxing gibbous moon symbol
p33
sS'known_as'
p34
(lp35
sS'default'
p36
Vemoji
p37
sS'bw'
p38
S'data:image/png;base64,iVBORw0KGgoAAAANSUhEUgAAAJAAAACQCAYAAADnRuK4AAALQ0lEQVR42u2dH5RWTxjHF4IgCIKFIAiCIAgWgiAIFoKFhSAIFoIgWOicIAiCIFgIgoUgCIIgCIIgCBaCIAiCIAiCYH7n8/7Oe852mzt3Zu48z8y99/meM7Kd3n33zvc+//9sOINhBDbsERiMQAYjkMEIZDACGQxGIIMRyGAEMhiBDAYjUCR+//7tvn375r5+/eo+fPjg3r1799d5//69+/Lly+rff/36ZQ9siQT6+fOn+/jxozs8PHT37993Ozs77uLFi+7s2bPuxIkTbmNjI+mcO3fOXb161d24ccPt7++758+fu6OjIyPQHPDnz58VWR4/frwiSi5Jcs6ZM2dWxLpz54579erVirhGoAkAFfTs2TO3u7vrTp06pUKWmANxIdSDBw9mJ6EmT6AfP364J0+euK2tLTUJM/ZcuHBhRSbsKSNQJXz69Mndvn27qKThsy5fvuxu3rzp9vb2VnYSF83Bxrl169bqXLt2zV26dGllA40hLf8X9fr27VsjkBbwhrjAUtIG2whbhUvEE8vx3iDzixcvViTb3t5eESv1e0BI7CUjkBC4YNRUKWnDhXHpGNsSQD3h7WGPbW5uRn+v8+fPT4pIzROIt/v69evFiMMFvX79Wow4fcB4RiXy+2O+55UrV1bS1giUCYJ12CElDeN79+41EQREmmJnxdhv2FwthwGaJBCqBdukFHFOnz69kjotBjaRSkMqjrgSQUoj0AC+f/++iuqWdJlRGa3HXjDECXhClNDfQiyJZ2QE8gCDM8XYjE01EFycCiASEunkyZNBafr06VMj0BoYs8RzSgfrUIEkP6cIPLghxwEbqgV7riqBEMclXfPjb+lUyXMcuPOhmFIL6rkagXBRS6usdXSX8ou5YK3W+rxRPLmXL18ui0C8WSE9P+aQF5sjqFEKSaNadpE6gciWSyU9iZnMGah8Aox9fz+plFkTiLdEijy8nWTmlwCI0vccyOvNkkCPHj0SLbd48+aNWxJCkhxJrJWqUSEQ5RCS9TWkPJYIUiJ4nL5nQmhEg0TiBHr48KEoefDk5lwyOgSSzX3eLOpMmkSiBMIjkq7uOzg4cEvH58+fe0kkbViLEYiEqHSJKaWh2mUZrYLodR+JJF8yEQIhVjWK2lvMsLdKIqkiteIEwpXOKelMPZS1mvSJf3n5GaqueQJRE6zR2TCndEVpENLwmQ+U8ebUfasRiFiPBnmQPoY8Bwb3vkkCIRG0+rKWFjTMBSW8vudHELIpAiEWEY8a5MG+MtsnDjwn371Q+ViqsrEIgQida3V1oiYN8aAi01dfTulwEwTSVF2UgCwlYVoShDt8d1SijmgUgVBdGi778TJOQx58ZcNIprFlsaMIpJGqMNe9DMgX+poax5Z/bIz5Qn2ZYKmZO2Y8j48P+UqAxwQYswnU5yJKnbt37xoDCsDXd0fwV5VA5Fw0pQ+HmmDDeHB3vlRHrhTKIpCm276u+TH1VQ6+Gq1cByWZQCTrtCeBzb1YXht4z742amZKihMIq117JBxtz4ay8JUZ5+TJkghE+Fuqnyt0LHhYHjzTrh2LZklNcSQRiLYcbfIwx9kgA197UGqDYhKBKCHVJpB2n9OSQJ6sa88SbExxWKIJRC97jZG4Zv/ox4VSpsZGE4hAXg0CzWGWcsug+WFMn100gUqOnEuZLmaQBeqq69KnpI2iCFRLfY0JsRvigcTJVWNRBNLOe60Pc3EM8qAuKNd5iSIQ4/9rEKjm4KQlgch0NyYUGz4ZJBBlG7WWmEj0MRn88M1kjAngDhKIcshaW20sAq0HxgznaIBBAtWyf/AEDHrwFZvF2EGDBKpl/zDKzaDrznfrhGLsoEEC1dr8V6rtxBCPrrAgcT4UDwoSiFxJLfsH1WnQBUVl3XsYmre9kaoXrYFwWYb00AidIIG023aOn1a30yzNkB56kYMEkh6OaQMU2gLqKrVKMUggiSUosSenPtcwDsTdUr3hIIGYw1OLQFbGUQfdzDyt69kE0hrZYgRqB92qU3Jk2QTSHJxgaYw2wFbE7l1kE6hGEVnMlzbIwWe2hOYqBm+qVhbeCNRWMDFkTgRvqhZ5jED14GtbNwIZjEAGI5ARaGkEqtEHbwSqi52dnX/ugqqMycWBbB5QO3Gg0F0ECeQbyqh1Qqw3yMG31Dc7kLi1tWWpjIWhKzSGatODBPK1elg2ft7oljAPtZcHCVRjGpnNhK4HbJ3uPSBEsgkkvTA3dKQ27Bn6QSNn6njlIIFYC1SLQCVXEhni4OuRpyo1m0DMZq5FoKEvbigPhlmk1qYHCeQrcbTRdssKIh4dHeUTCNCdWINAQ8aboTy6dx3TXj5IoFqF9XRJGvTA2qdu/VdMe/kggXzNZhqHeISlM/QgNlyh1ng7i0brwjeFpch4F+pha2XlLRqtB98UliIDpoBvlrDFguYD1ht07Z9iI+5AjRUH5srrwTcrOnbAaRSBfCFujUOLiUEePg3DWq9iBAI1ulRtzF0d9UV3aiyiCVQrsRr7Jhjy4BvhkzKfO5pAqLEajYap64cM472vlJc2qXq9xrQOW3cpB8Ik3edNTXQKkgjkS/ebHTQv4xmPTIxAfctaLSI9PWCSdAPEjHIhJyZGoFrGNPk4Q1n4hijkLLdJJhBun/bsaIsHlQWzELsOEdIop5UqqwVUe/gmhGXpi6Et6ZNNIPSk9vCpoXnFhjhQXeGTPrkT4bKb0A8ODlQJtLu7a7c/EtRX+TIKQ50XIgTiy2iuAeetSfUQDH/DF3XG8xpjHowag6G9S8w2GI5z233Oz9hI/+g5Kr5pDlInNUpqCN8Tsw/Glg2PJhCun6Zbb2sw0+GL3WESlEhUF5nkpLmUxYrM0sD6bl8SvNQ6rWKjwHxNaRYTqgtc883NzX+eIZ5YaPZzFQIRodbKk1mJxzAgiG++UynVVZxAIXFZ+hA+sJ6xMIib+Z4d8buSKD7NkgVlGlKo9IOYE/o2bQ/t/mqCQCH2lzwMALXAYrxDgzorZfeIE4iL1SjCt72qf4NRLD4TgpdNamip2EBmvrD0mGDC8Bjvhv9zkz7y8IwkY2eiE72ZLSPtmUno9amhr/GTLDtDwiQhPhIel1GaRNIPqWUQZfZJHuJllG5IQ2WngDSJ6ONeolvfV9iH5NGqn1JbSoE6k7SJ9vf3FxUk9FUVriWPZvGd6lYTjDlfaL1UvdASuljpUOnzcCEPwVxNbNR4AFKFaKiyOceG6NnqMwX4eY15SlX2KpEMldrDQVJ3bsC+owqhL02EaUCnRQ1UW8wV0uNjD9HYuYCVDyGJTaFYzc1G1Te70TQokYCd+qoEVDE5rdCzwXGQSE9MikDrt6y0ca3pykrYOqG2KaLLTFVtAc3slqT4qbRKg0RT2vqDETxUY46N19KsgOaWkxKW5w0rSaLDw8PmiTM0yJRnwrNpLWDa5HZbEqTb29tFpRGtu609fGI2SJwhG5DZAK2uAG16PTLqp2RZCNO4and1oH5IQcTso8X7asXWmSSB1sAtL7UAGJWG96JZBgJpKbeIkTYcHAqSpLU9rNkQaB1MK2kfQaS9vT2RABzqBruLz08ZQkEqAuk0pWj6ZAi0BlFsiFQyMYua5OIwZmPfer4H6gg7hu9DpJjtNjlNlrwU/P4prjqfHIG6NhL116UDkUgN7A9UzvqQekGNQtxSv4/PJVY1BVU1SwId99qwMfBWaowiTpV21HLXyl0ZgSLIxBQPSl01x8+E1BMxHgre50KaWROoCyLc5MWIA3GRkEpKSvG5qDmMZyQipbZzr5ScPYH6PDpca4iFOkFaYUut7Z21rXP88DPsIP6ddAID0DF8IQqfQ8XlEstqF0kggxHIYAQyzAH/AbblA+mpRScaAAAAAElFTkSuQmCC'
p39
sS'version'
p40
VV6.0\u02b2
p41
sS'uni'
p42
V\U0001f314
p43
sS'desc'
p44
V\U0001f314 
p45
sS'browser'
p46
V\U0001f314
p47
sS'annotations'
p48
(lp49
Vgibbous
p50
aVmoon
p51
aVnature
p52
aVplace
p53
aVspace
p54
aVtime
p55
aVwaxing
p56
aVweather
p57
asS'wind'
p58
S'data:image/png;base64,iVBORw0KGgoAAAANSUhEUgAAAEgAAABICAYAAABV7bNHAAAAAXNSR0IArs4c6QAAAARnQU1BAACxjwv8YQUAAAVfSURBVHhe7ZtrbJNVGIC/bnTturZbV9rNdWOx4ggzU8wmxEGQdWAAL4gKCWjwMqPRxMTEaEzm9Ee7RH8YY0zQP/wgMUJGYFGELARdskTREAiBSIabjsvu69qtXW+baz0ve0tgdvSc77qF8yTL+76nv/b03L7vnAocDofD4XA4HA6Hw+EsNnQYVaXtwNv73A7/W2ZjoqLAkCjM0aWMZbbJPPz4JhNR42x8Ji8Wn9YHotP6gfGw5cjGXd99iR+rhmqCvF7vVhJeI3/r3/R0uZzW0M12FkCaP2z5eyhY9K1ashQXRMS8S8I+nU5XB7XLFhBe3fgrpJIYCBQGR0JFHbXPtO3FJkVQTBD2mI+ImCfmWubYWXdeqHYNYCUdEPXPqNOrVI/KwSgrRM7XJByeLwcoswUxkwdX8aStzn31iz87dvyGTbIiaw9qbW2tTiaT+zOJAVbdNyy8uPYsVvJzfbx45MqQ86Un9xz8GZskI1sPAjmpVOrYQnKAlSUjmCnDCnug5NHKGydOHXqlEZskI4ugtBySrpprycxySxgz5VhuiRjklCRZEK0coLxY3vlnIeSUJFkQmXMOkpBVzprK65ipA0iqLhs6gqVoJAkiq9WB9P4mGy6ZVy8aYIXrOf30FSxFIVqQz+eDzd/rWGZFjfknEytLxqp+b9/zFZbMiBZE5h3YIVNjN09hpj6VDj/1FzkfUYLI0PqMdmgB1vyokJ83g5X6lBaGzBdPvtCBJRNie9DLGKlwO/2YaUeF3b8ZUyaYBZHe8zHpPS4sqRDz5C43RaZ47rnju7/HkhoxPYj5m9DnzmKmLWSh8GBKDZMg2BTe7VFiIbRaweYDjyKYUsMkiGwKn8d0ycI6WbMOsRqMTJiNCcy0x2KMrcaUClZBboxMFJmimGmPMW+mGFMqmASx7H0WK7AnwpQKakEwQWN6T0EtiEzQsr2E0hqW/RDrHHTPwQVlgQvKAougHoxLnkg8j/pohenYx+fzpTBlonnHccwWB7qaP6j/b6Yhlkql5DsS1Qg438eUCtY5qBfjkiUSNzC9e2EVdAkjE/0BG2baE502Mh2vMAkijxrKnRurxPCEFY6pqGE+m/d6vf2sbxR3rTsrVJUOY6Ud/nBBwlH/ixFLKliHGNCOkZpo4o7LY5oRjJi7MaWGWVBOTs43mFIzPlWAmXbEpvWpq37b+1hSwyyoubn5MlnuT2BJRXxG+x40ECzqEXMtRswQg170IZE0iWVWLlxbgZk2QO/pG7O/gyUTogRBLyLh6FxFx2jIipn69AeKL4q9VCVKENDS0tJEAvXFgImoCTN1GZ60TlVt+XENlsyIFgSQYfYe7VAbC1kwUw8YWj1DJZ9gKYpcjKLo7Ozs9Xg8y8i+KOuBnEH/r1DtGsRKHS7dqDj8+M5DH2ApCkmCACKpq6GhIZ9I2oBNGRmfMguPufsEfW4SW5Tl8kDpmUeeOrYdS9FIFgQQSadpJJXbg6pcgwE5D239oR5LScgiCEhLImkNEZVxO++0huH4Fyv5gTmne7DsVM229gZskoxsggCQ1NjYOEgm7rVE0v/W9UDEJKx7oA8reYHnLCJnf+2zbUxXc7KhyE8R4AwtmUx+SiTtxqZb7K0/I9zvkPe+UO+I468HN/+U9SKpGBQRlIY8+cPvNbxE1K0T2U2ru4X1VfK83oab9dfG7J8r+csfRQWlgQufZNhBb9pQaIoVvrGpS/SVPJhnxsKWUaXFpFFF0O3ADbXnas83ldsDFXDrC5vvCrxHDsVM/smo6cLD249Cr1QN1QXdDtyEt5tjTQZ9wmRYNnvHtRQi5BxEpX8PxuFwOBwOh8PJhCD8B4WStBTYZ6cmAAAAAElFTkSuQmCC'
p59
sS'andr'
p60
S'data:image/png;base64,iVBORw0KGgoAAAANSUhEUgAAAEgAAABECAMAAAAV8YMOAAAABGdBTUEAALGPC/xhBQAAAAFzUkdCAK7OHOkAAAL3UExURUxpcS8vLy8vL/a+HC8vLy8vLy8vLy8vLy8vLy8vLy8vLy8vLy8vLy8vLy8vLy8vLy8vLy8vLy8vLy8vLy8vLy8vLy8vLy8vLy8vL6eFJC8vL8+iHy8vL9yrHtOlHy8vLy8vL+WyHfnAG8yfIC8vL8mdIPG6HPC5HC8vLy8vLy8vL++5HLOOIuizHS8vL/S8HOCuHi8vLy8vL+CuHi8vLy8vL2ZWKt6tHuSxHS8vLy8vL9ioHi8vLy8vL/W9HC8vLy8vL/O8HJ1+JPK7HOKvHXxlKC8vL++4HC8vLy8vL59/JdCiH7uTIqiFJC8vL8WaIfK7HC8vL6WEI+q1HfS8HLmSIvnAGy8vLy8vLy8vLy8vL9CjHy8vL9KkHy8vLy8vL/C6HEdBLOi0HbyUItOkHy8vLy8vL/G6HDMzLvS8HNSlH+GvHvK7HL2VIaGBI+GvHuCuHrSPIqGBI7KNIva+HOGvHvO7HNioHy8vL9OkH+u2HS8vLy8vLy8vLy8vLy8vLy8vLwAMNduqHuSwHV5RKy8vL96sHuayHYtxJvK6HJ9/JcKYIeizHfa+HMabIO23HC8vLy8vLy8vLy8vLy8vLy8vLy8vL8CXIfa+HNuqHuGvHsabIfa+HPa9HPC5HNqqHtWmH4twJsufIC8vL3pkJy8vLzEwLy8vLy8vL0U/LSwtLy4uL/zCGy8vLy4uL/vBG/3DG/7DG/7EG/3CGy0uLywtLy0tLzIxL25cKVpOK0M9LfS8HGZWKj46Lv/EG/rAG31nJ450Jve+HHlkKPa+HD87LdenHzQyL7iRInJfKPvCG5R4JWFSKs6hIKeFI7aQIs2gIKSDJMyfIMufIDAvLy4vL/C5HO+5HNOlH5B1JklCLFNJK0tDLOGuHtioHkQ+LdeoHph6JbCMIuSxHVJIK01ELOKvHVhNK+23HJZ5JfnAGzw4LpF2Jeu2HTEwL8SaIPi/G/W9HOm0HYNrJ9CjH9SlH4VtJ/G6HD05LkZALZx9JMqeIGhYKZ7w428AAACsdFJOUwDy8fkt/ugHAQIFCNMTOmjg9/ASt31B28QRajoslFiYeav+Rac76+axkjXRG7nu+YcQ+Iw0JAN8swrYTp/i96lH8gntqALXxHX7BEocDEYK5lQOwvMY+gN05WQ5c0JtTt8CuzVi6YXjAvxohPEKBX14CwQL+IXyVZ5KbTuzDLbKCQGfngWLuckF3wkMy9AMDRyRU8gE9uYo/WOmUP7u1X0XCY+NsLDg48nJ4/eYYUl+AAACqUlEQVRYw63Y83scQRgH8EuRKqxt27Zt27ad2rbdJm3fxe1eL0mj2rZt2z90T9nZy21u5p73+wd8nsHO7PuOwaCbVb5+/jt3hwQEB+7ft2fvrh1bN27bbmBOsmUrlq9cE8gp4flf//58+/J50+YtG9avncfEpJg022c1x9mY3z/+/pQkESxZN3/mhJbUTIXquftw9pijvn6PibYptrQukjUDFZO0YOWiDob/EPnxkwROqVo+V1n3jm/9AAfDmd6+ex+HUSLkLd7YnVM6fwPVuXfxjQguk7NVl/7x7lWLurEMx7+8agS9nOk3cKS+k6SrN+GcO6HvKBk7bJSu095LdUzhj+J1ABKOGaHjdE5AOM+vuHEUadAQV047f8Lho065dQBGDx/qAurWQXW40McxQJHBvXvEcRL5EI457JVIA0H3Ts5OiWqEwz88L1E5IPRs4/QBZSxJQNfOCkCZtuUaaqDMFQnHdPe+kRaCfHk0O18gMbnSl0VqB4TaTQjIz5sc0LMX9AMCuUYj1UmejSPzWgaGCDlqqltfhdyyg7ckFkiulSkWyk6O58DpCBGYhlTK4aRKT0KhF5gGpKRQYTuUNqVmZg+MbI5crJL9kk5DDsgceUNkHJGQpY7tI0qtWaLbwJx6zaxQmXSEc/3kk2hWR27eywo19SKX6PgliRkaMM4KdSSPh+nOU5F5asLE6Za17qtZ6/Cb7BDMmGU5H+M1UFiEzA7NWWApGCZrNu3oMXYH5i5UoGlTNdChIx5Ai5Yo0JQgDXRY8ABavBQTQpsa2mKjbT/aB4l2RPAOLdo1gnaxoV21aJc/3u8I7QeJ98tGKyLQyhq8Qgut9MMrRtHKY7yCHa+FwGtq0NosvMYPrxXFa47x2nXEBwS8Jw28RxbEZx/EhygPnsb+A/MMlnSNedKmAAAAAElFTkSuQmCC'
p61
sb.