ccopy_reg
_reconstructor
p0
(cemoji
Emoji
p1
c__builtin__
object
p2
Ntp3
Rp4
(dp5
S'emojipedia_url'
p6
Vhttp://emojipedia.org/full-moon-symbol/
p7
sS'index'
p8
V591
p9
sS'code'
p10
VU+1F315
p11
sS'apple'
p12
S'data:image/png;base64,iVBORw0KGgoAAAANSUhEUgAAAEAAAABACAMAAACdt4HsAAADAFBMVEUAAACdcRCpfRe7nyibbxCYdRSacBCbcxCuhhu1mSyecRGabhCdchGqhxumeRSYbAqbdRKrgRuceRa3iyGigRaieRPDpi2wghynhxylhBqzlSW8oTWtjyGrfBeyiR6lhBmpiRuughetjR3BpzGzkCDy3HD58bX/+ZH69cz687nqx1vpxlb/+ZT68qXx33n79bLs0F7v1mXy33P05H38+M779b3464H38LH26n3154Lz5Hj884bw4YT79tL243Xz4nP48bz17Kn376v04W779sby0l369MLv3Hb48J347o7v4Yr79rb066P588b27pb153f58JP//Lz45Hb9+tL798H/+Y3szWH153v8737264r78Ir68o703Gnv0GL//bbv1GH//sj79s//+6z48Jr9+8v/+6Xw2Gv//LPmwVb897j47Yf67HvlwEr69Kn25XL01mD69Mn122Dry1z9+cP89J/78pf/+p3z6I/054b8+Mnr0Gby5YLt2HLu0mX232v//Ln996f58a799Y3686z56nXy5Y377nbw22zy4nv89Jr98nzy5ZTx1mjvzlr8+NX//r/qy2L9+bz++Yjht1D67oT/+pjw4H/u3H7QqDLsylfGmyv9+bHw22X996P453z55G3+94Tkw2PmzG3ivFr264Tt2Xfrzlvt1Gzt2G7nw1v37qLz5Ifp0mjt4YTas0K/lCb06Zz79q399pLcsk704Hfdv0v+9orSukv265TSqTvpw1H66XD9+bb34HHMozH//cP9+K7//Nj9+9701Vr883jox2DnyFDctTv58aLaukD13mTivEPfuEnYrjj//s/jvFHt45D++8byz1ffuFTz2WvkxVL442by6m7273zdw1zFqj3x5Zro1Xbly1jSuTzq0W7u5WfWrEX28YPayl7Yw1P8+drq32v073Tr4HTk1mHcylfgzl/lzF/02WXh1GzvyVH+9n3k13Lq3VvarUfj0FHhwVPn11PezkjYwkHZulXKtEPWpjq5kSHp22jo237IrC0n4YikAAAAJXRSTlMAZdbWbQw5KNnXmUGEZLYXL88W/TuW/fqVbMX6tN/xP4PBme3chLTOJAAACltJREFUeF7dV2O4XdcWvTe8UfHSpGmapnrHtm2fS9u2bdu2bYS2bRu1+d46bXOTJmna/O043/k5xpxzzLHW3tvo34yF769Ys27t/Plr161Z8f7CV2Uv/mDJj9MP7t//5Zc7d+58+fX3V+Z/sPgV6CuWTD+8F3/uxg17A27cOHf37LVvv5+/4h/S3/n4wb34aK1Wq5fL0ZVoGBqdxmLdOHf22ncfv/MP6G/NvzmYqe3rS8cERkZGAcCiPNEwWFka69zda9/Nf+vv+B9N39P2YdJHA3GjuBRPN/CLivKEwdCVMMvP8+6e/fLKRy+l/2fJzUH3wHRcqS9Ohdvmberk5ubpCSQsLWHoqJbPd+06B5r4z0u8f/dTpXrUzbS4lKJS+RYnm5p6/95DJZgEZoku+5x19+y3qxf/5fgXvrgowBUXu2y1kGrEFlvDS0uTvb29PaMqK6MMZoIppnadO/vl//7CiDcuXDomUPkeDxfHkl3h8PBwioWpabJTMmjCzRNmaWlZBiubSrPJAApvvHD+d784psZRjsfCNRpXMhzu4RFLttjq5AQUgA+VlWVlwIixMZZNxrVvV7/IhyWfHhMgVGKxFK6Bu2o0nCOxx12OF5t6O5k6GVoAeyhrSZtKY+VlZfC+/u/z/DU3B0egvqrYkJAQoBAiNd9u7nHkiMtW72SwCyBQiUbDytCAn2dToWu4supZ/qIffz0mrLcID9FI4RwxR6wpIptvP3LEw6UY2OBtEKistKxETwETsio2Nny9etHzAwgpUN9wTQgcHgLnwMWxRdu3A4Ujx003ebuBbRrSAOi5QCAro+HypMkz+b81qA2U8i0sQH0Nh8NxlRbt+E0gXCwt9U72BhYAE6Za0sZYWVlZOuzA5ZoFfxIAGxCk41ThGg1wsKgILrYo2rHj9u3t5PDjFsVOpvUYjPuYZctUyxg4V/5Zus6eR5Pr/3R+b1VfFCBwuPAQaQjHFX6bA+fcBgJF5h4uLluTt6Vj9u3rc9fDylhjrDwbm40bHQhdp2uMn3YANEBT+VJAACmurq5gBPMdt82L4GQPsAfTesB3d5+ZUbDS0nbl0XUiUQMBf3r/Uy4s/vHXfPW+QAQ/BG6IkKE+h7y9iCP2IIMWgIBcrlf4+XXYTbHsWEEDndie7oHdk8NPzsQHN+O1mMBUKJ+vgXPMd5Bdya6uFrEcKaWIDNK0FZEO+ArbDr1dS4tdDAl7KZtAiEN9M7v8yQR3cvJH9gkFND4/xNw8VioGURBLQyg4sjk5Nrm4dFQu1yo6WLCWirxduhzZQNxAYgnym6F5c/fvhXvskYsjQoEAqoklixFSqauYoqIgoKlQhFRcCuKcq9d32MNgdh02eVlMWc+ltra4R9/sX/n4rn5/mnkxPz9VxYfy4R5kKRRBgWsoOAoUmkoDChRDEhujYOhcRYeOvisrCEJMuHq1pMTnUN2yxym6yTzWPxOIQ6gQFi5kBJSPQEgRUAQQwFlIoTSMIYhRle62CnZCFcMmAytLcMYjd/ee3PI4S2seDirZcncMgkIxDbeA0lKhUAQAn0+j8aUqmlo+6gkE7P36q2TZTJ1NU3Y2EOj1maxZ+ofAuvvKQaUgMB0KLd3kS+HThKmphu75fCiNUqqCqvNnIhqjciOpOh1DJ8LyMmTdcfiwXp+js6/9IbD2/uDgYL5amD5aX+9LQaQKhcI+IR+RSqPRfHFqwUx8f7xeq52hW+voMaQJLLentb29ZDcQeHPuJMYPRkfnCwLdNpVuoiDANvr6hJpYXDpNNSpXC6Iz2URsVWaMdZU1I55EJMr+EDg5O++xwMOc6nxttDYypX7bpnpVOlTYpxbEqkbB1U4bGRnJHOnHstlYJp3BYJKYxGxIQmtrawmyt3xOYO2De4PRtgr33JSUxpRt9W7eyQK1kKIaVeFS1YJ8ADZbmVmdY2vLIDFFxIbsq61tcSW7ew/NjbDuQbZyZsZ+LDelMaIR9OCGUQsQ6YGBgemjfSOZ0ZmZ/Ww2u5NoG81g5hCJDQVtrSVAwOfQnImrbv3SybC1j4zMjYhI2batMSJfDRzFpGMwqX0j0ZnKKqVSWZ1D74gh8YhYWbbX1dbdcWEon0Nza1wwPTCAZfjZReoxERG5uY3uasFIHwZALrwI6gMBtizer8OaSSJCsDKvnu7asC4k6GAuSMsuPIqr7u+wU+gj9ZFgjtxc+ciIXE7bJ5e7K6KVoP8qGYluzYzPIUIgCV4EfJcV8PDo0FyUF7778NKv7P4OP72dXW5kREpEVKM8P1+Z6Q6uIa1fv7JK1tlZzYhh8gwCnT2J+LgSJAoIzB0mozdvtV2SMal0Pz+Fws4+IjcSrci8eIxd1e8+o9VqbUk5CZ0yLgk4QMQm9HQn4vFhSFRr+eG542y0/Mr5toQcOoPeQfWn6vX2rDF7ZXU1u7pqRmE7Y0vvqOpO4Il4WCwEIvMiOCfircKQvcCCJxfK4tXnz1+VcXU6WzrdT2EHJqlQdnYmdFYb2P3V1Z2yTiYPgoVkFxAIid1xYSW1SFTA4ZVPPeZNbp1v64GIgmIYDDoVSFTkVbBzeq4m2MYwrEkJlwaIzCASqO5V4JWY2G0FLET5GHL4BMYXfmhv6+HxRFxrOpVKzfD3z7OjM7FMZjyDy2UmDGTz/P0hgE+wcoyLAwPsRpV/NWxs9BTWT//QGndAJAoiWTOoVD+qf4VNnk10PI9rY43lAe+xGRk8SDcB+Afq1yKRG8Zn3zZ6Ggsu/HC+rYFI5DGZDOsgKp3q719RUWEbk+VPbbLmTeQQm4OCuJDuRCvAD0OhUOXX60CKnobJ9Pk2CMThgIjHCwpqolPpGUDDz38jALWpeWOzmRk3aXMw3ioObBC1IeDQ7HvPPt7rJh95ZTdkOxBFPBKX2cQwM2tqAuzmMxvNzJqbz2zevPlA6M4uK6vf+EeHhhcZPYOlVy7jCQQvGQRCzJmY4DK5XFIQqBvUzD1zhrs5KemAQ2hoqGNJSS/Sp7x8aMtSo+dgsn9PlzPBCwIwMZHES+KSuKIzXJJZ0oGkpKTNDqGfGODYW97b/tX1GjDAc3j95+8vGxS8IA3ADEiog2giKUn0e22HU6HBO4ODJZKwDSdPjn81+/brL3zNG57c05XoTChwLvA6Ferg4DAB/pADoHNQGvB3BktQ7RvKx3+aXfmG0Qux6Of9l8O68IkSiTOBADkFAJgGMuB+UiAprEX6gPLXt7y96C9fdVfuD0CFFRbinZ1BIwXBpwD3k1OnCoJ3SiSSE8h2H59yA/8lnx6vm9RMnt5Ta4XHO0qcnSUEZwmY21lioBduaG8/OT5+vW4emP8lWFq3P+A0MqzWyrHQMTHRUSIpAOQTJ2pRveXlR8eHfhoG+3s5FplsARJ7QBtWjkAE/E8UflbocxRMP3647r1lRn+PBeu3DB08GLABhaoNsyqs/QxgQ0DAoaGf6taD/P8jGJsM1+w9GBAARPbsAeSAgwf31gzPM36Vz77lb/5cV3N479BegMM1dcMmyxe/8ofnMuNVr31oYvLha6uMly00+hfj/3Q8k/ThhgLNAAAAAElFTkSuQmCC'
p13
sS'twit'
p14
S'data:image/png;base64,iVBORw0KGgoAAAANSUhEUgAAAEgAAABICAMAAABiM0N1AAAAUVBMVEUAAADM1t3M1t3M1t3M1t3M1t3M1t3M1t3M1t3M1t3M1t3M1t3M1t3M1t3M1t24xc3Ay9O5xs6+ytK7x8/H0tnBzNTK1NvCztXG0djI09rL1dyA141DAAAADnRSTlMAIGCPv98AUJ/vQK+Az32XzooAAAIZSURBVHherZjrkqQgDEaJaAO2Jtq3mdn3f9DtdZmJU6kQpTh/rTpFguIXXAHofD9gZuh9Bxcdpz0IcUDBEMM5EfiECsnDYdF4xSLX8ZAIIppEsEVTwgOkyRDBjBqfd6L7J34zQ0kUku6hDTaloIsm1LnTxh2ZSRMVu0wZ3BH3IuF53OjN7WGL2MQi9jwps1ilsYlF3J+FfniqzZZ9YlHIddGOh779TPgtgrzvN9pxwwMk+CWauaU78AhzFnGDpOiFJT6IPrhNjgs7uaI/9IaLc7zztSKM36IRM6LZdmkbYxZdMaNsv8n1vwhwx5M9Cx4GNpHHPYt8sW38JkrIKB+tRfonCtiA8BZFbEB8iwZswHBxgE0A16HNa1mJ1uWFOp3zaPK10sb6hSre9fZ6Vsqs+pp6Z/d6OfKyDw5NVhatqHJARDsMER8IlkjPA46PqLOlcR4wRFazOQ8YpdnbT5ksqn8hbZH9icjSBqxANntwPVYgt793Xnl4Eu86bbnn6BxoDTwHiKOWMqeP2kusE8nDP7QoLYgfZF2zk/hlV26/5xBhYPzOgWONQTmDXzloGRgZfOToV8AOYVGEUQUjFiYQ8VjBCKqTCOwKRgafxQhRt6IEYqipEwUxZtU1e1IGPxnJy9sftVFUDgnFDB7N4ZhFpQwe7XGdSytk8KnmAkGSQs2VhmSGRpcsra992l9Etb8aa39Zx5y6PvwLJc78T5/NAh0AAAAASUVORK5CYII='
p15
sS'gmail'
p16
S'data:image/png;base64,R0lGODlhDAAMAIABAAAAAP///yH5BAEAAAEALAAAAAAMAAwAAAIajAMJd8luFmtxUmkjzjCjbS0ghXhY94UKUwAAOw=='
p17
sS'related_to'
p18
(lp19
V\U0001f31d Full Moon With Face
p20
aV\U0001f31a New Moon With Face
p21
aV\U0001f311 New Moon Symbol
p22
aV\U0001f312 Waxing Crescent Moon Symbol
p23
aV\U0001f313 First Quarter Moon Symbol
p24
aV\U0001f314 Waxing Gibbous Moon Symbol
p25
aV\U0001f316 Waning Gibbous Moon Symbol
p26
aV\U0001f317 Last Quarter Moon Symbol
p27
aV\U0001f318 Waning Crescent Moon Symbol
p28
aV\U0001f31c Last Quarter Moon With Face
p29
aV\U0001f31b First Quarter Moon With Face
p30
aV\U0001f319 Crescent Moon
p31
asS'name'
p32
Vfull moon symbol
p33
sS'known_as'
p34
(lp35
sS'default'
p36
Vemoji
p37
sS'bw'
p38
S'data:image/png;base64,iVBORw0KGgoAAAANSUhEUgAAAJAAAACQCAYAAADnRuK4AAALRUlEQVR42u2dH5QXXRjHB4IgCIIgCIIgCIIgCIIgWAgWgiBYCIJgoXOCIAiCYGEhCBaCIAiCIAiCIFgIgiAIgiAI5j2fOed3zr53nztz7/zuzNx7f9/vORfed2ubufc7z//nuU0rCGug0RYIIpAgAgkikCACCYIIJIhAgggkiECCIAIF4s+fP+3379+79enTp/bDhw//Wx8/fmy/ffvW/Zw/K2wggX79+tV+/vy53d/fb3d3d9tbt261ly5das+dO9eeOHGibZomal24cKG9fv16e/v27fbRo0ftq1evOoKJQBXg79+/ndR4+vRpR5SzZ89GE2Ts4t+CWJD07du3VUusqgh0eHjYvnjxot3a2mpPnjw5G2GGFs9y8+bNjsyoQREoI6Aynjx50l6+fDkbwgytK1eudGT6+fOnCLQUUE/YHmNsl9U6c+ZMe/HixU7F3b17t7NjHj9+3Emxly9f/m/t7e11P2Pdu3evk3L83XVUI5Lpzp07ndEuAs0EPKKrV69GHxbGMgcPOd69e9cZ1CmNc56L333//v1OwsQ+HzbT+/fvRaCpgDEao6bOnz/f7uzsdNJjCVXx+/fv9uDgoHsGJFXoc/OOvKsIlAiId77OUJX04MGD9suXL9m9x9evXzuvjJBBqETK8T2KIRCuL1/vkI2DHbG9vd19tbjuJQBVhe1z6tSpQSJhmyHNRKAIIPqHvlR+/vz586I9GT4S3gF1OyRZUcUi0AAgA95N32ZiT2CsliJtQvDv37/OyxsiEmottw8mGwKxgadPn+6VOLURxwXvRnwIiePbB/YoJ2nU5PD14V77Ngwb6OHDh1nbAVN4cEP2HzZUDimSRQlE6qHPNSfeg/eyqcAL6wsBsHdLJ28XI9CbN2+8KgvPClFes7qKUWtEyH3SCHVHEHOjCIS949sQDElKLoTj8TCfkc0Hxwe5EQQi8dkX80iZYqgN7A15O9/+8WFWTSCMYd/LQywhDES0fftIXKlKAuFV+NzSJXV4qSDy7rMhqRioikA+8mAA4okJ4700X8xoLhJNTiCf2sIgFHnSkMhXk4T3VjSBfAYzUeVNKz6fEnyIPhI9e/asTALRoWC56pCntrrgHPDjx4+uS8Qi0ZSpj0kIRBzHKlWQ5JkW7K0VK+JDnqpsNjmBEKeWYYeILaFAqnSQ+vHt/xSZ/KQEIjFq5bZwN0We+UBYxGprorWIM8qWQD6j+fXr1zrVmUFRnmWDpg7YNilZbz3wHK6kEPdB05WSFYHIGFuqi7xNapEpxMFqSKBEJFUtURICkQSdy2gT4kAC1vLMKEjLgkCW6uK/6RwV8gAuvGVUp8hBrkUgVJfFbnqzhLxgZfCJy62rytYiEKUDU+pXIR18diqVn4sQiMJvq5xApRl5qzLX3OAM1yniG00gK8ueyjATpoPVAUNn76wEIufiSh9yXyT0hPy9MvfskEpjc5SjCGS57XNWwQnrwQowjtUe0QQip2Xp0U1q/KvBoLbqh8Z0w0QTiAFKqS15YX5QaOaeI/bRpAQisuwGpCR9ygShFlcKoVliswdRBGK4gctavDGhTJDods+TM56MQG6fNoxVI2DZHpmrUSiLjUmABxOI3JbLVqakCmWDGJB7rjHDPoMJRH7L/YeW6scW0oEGRfdc6eNLTiB35Bx1t5qeUT5QV24NNf8dqsaCCGSprxiWCnnDCs2EqrEgAll5LyVN61ZjkCoZgdzJ6+S9FPupB5girhpjsn8SAkEUN3WxTvZWyBO0/LhSKCREM0ggS7wpdVEfrCBxSDvWIIEs+0cj6OoDNu0YO2iQQK79Q+RSrTp1uvPuPIMQO2iQQO4vhVBCnXCv0QoRFr0EosJQZaubA6vcdWgUTy+BaIGVAb3ZhvTQ3WW9BLLadkq6DE2IA9HnWIHRSyDqnGNFmlAuKKyPrVJsYnWiItD1wgoaX7t2bTyBbty4cSxLK9QNt8yV1vXRBHJbYalIFOoGsR+35n00gdzBCUPiTCgf1jyh0QRyi8j45ULdcM0WVl/hYC+BXINKQcT6YXUd97U99xLIuo5JEIFEIEEEEkQgoXYCuV2LW1tb2uHKwRm7BOqb+xQVB5IbXz+sOFBfTVAvgdzrg1RMVj/corK1AonuLyOwKNQNV2gM5T97CeS2emATCXXDLWGGUKMJZLW8agZ0vSBlYV0RNZpA1jBGtfTUCy6ri711oJdA+/v7x34hd6EKdYJGwtjpu70EYrK5RtptDqyRd0MX9vYSiN5o6w4woU4wcc49b9TaaAIBt0JNrrxc+CgCWYX18sTqA2caW1AfRCBrILV6w+qD1USaZLiCNd4udHqVUA6sKSxJxrsQXHKz8qHTq4Ry4E5hSTZgClgp/rHXAwn5gesNXPsn2Yg7YDXdD8UHhHJwcHBw7HyJCSUj0OHhYXSORCgHlobhWq9kBALWha26F75O9RXTgRxMICuxiosvlA1rhE+o+ooiEGrMZSpSSajP+wpVX1EEAlbbKwlXoUxQmuOeZ2zdexSBrHS/kqt1Gc94ZJMRyBqJH5KxFfIDJol1fWlsnjP60l3LmFa/WHlgUMY6xvNoAuH2uYXXkkJlgTmXrkOENOprIExGIGAN31TTYdm2zxjpM5pA6El3+NQYA0yYH1xT6p7bOle3N2MfZG9v79iDQCoVm+ULnCC3XT2kcH4SAtEv7V4DrqL7vGGZHrHXfCcjELDuEtN1mHmCgK9rOIcWjU1GIGBNc0Ay6UbnfICEsZLhzD5Y9+qutQmE62e59Sp7zQdWuSpue4qiwCbFA1oZXXlleYAzsFRXqluXmlQPajWl4R7qcpblgIThDKz8ZapbJ5MRiAi1lSejtjakOFtIC+I6lt2DuTEm4jw5gfq8MqST7lmdF9Y13lP09DWpH3xnZ8d88LGhciHdGZAIT43kBELSoGOtF1gn4imEwaqWWFVMTKEFmilegnSGpX9VRz0taL+yPC7iclNdFNhM9TJ4AJZRzSKPJsxDHvKTU3rCzZQvRXG2FWRkMf1MSEcea49x4WMK5LMjECAHY8UidIV4OpvHkjzs+RzzLJs5XpLrpN3626MpD7n445wVa3bTnOSZjUCADL1PEuEhqI4oHBjEVhKbxaW5c07SbeZ8cWYN+UiE16aJH8Ogm8Ln4c5NntkJtDKs3aulj4bZNf3MD0Ys+0wBKg2X+ACbJTaCXIw70PHo2t3dlV3k2DvYipaxvJLeS+Ubm6U2BT1utUofTcKi8jYdzC60SodXa3t7e1H7sVl6g0hv+L4sFp7GVFHU3A1lyOHbl1Vua2lJ3eSwWXhoPrto5ZZStLYJao13JD7mczZW85uRTDmgyWXjsIuGvjjUGhtXK5EocO9TV6vSmJwGezW5bSJh+b6vb2U05vIFpgCBVuumQFcKsze5fTxNjhvKF+YrCXF7mkjMlhiE5JkZVNrnja4WzkbKKsLqCXTUNnLv6rAWsRHUHzGk3NUb0oartX1J5tIkbZP7l7oyKvuMbDcayyVpkC+H3jQkDcTmmULfgRIM3rkEWy97Aq0AGXBbh+wjN7JNbTBFbETA5zgQAnqQl2dF9fgixz47B+KUpJKLIdDRA2KTfcVqQ4RiqCTDlQgLYIOgUiAXaYBQgmGP8HcgCnVNRIkhaqiEsaQmz1NivKs4Ah1VbaiGvmj2mIUUIK/kLg65L+A5ZuEoQOCS28CLJdBRID1QU0OucA6LZ0Ta1DKkvQoCuWQia42nY83CmXuhavEQeaYaJ/tXRyDLXqE/nAEDqAwivalV0dFwAmEHbCJso02YG1k9gXweHYdL6gCDnIQtKQKq/FgE91wbiP+H+uHn/FkkHJ4WRMEWo/NhE0fabCSBBBFIEIGEGvAfESVTnQY743EAAAAASUVORK5CYII='
p39
sS'version'
p40
VV6.0\u02b2\u02b7
p41
sS'uni'
p42
V\U0001f315
p43
sS'desc'
p44
V\U0001f315 A full moon, unobstructed by any shadow cast from the earth. Also said to be the time that werewolves move amongst us. 
p45
sS'browser'
p46
V\U0001f315
p47
sS'annotations'
p48
(lp49
Vfull
p50
aVmoon
p51
aVnature
p52
aVplace
p53
aVspace
p54
aVtime
p55
aVweather
p56
asS'wind'
p57
S'data:image/png;base64,iVBORw0KGgoAAAANSUhEUgAAAEgAAABICAYAAABV7bNHAAAAAXNSR0IArs4c6QAAAARnQU1BAACxjwv8YQUAAAOZSURBVHhe7Zu/axRBFMfnbfQfECxsIvbJCop3UbELVgpaGcRCwcI0qRQLRSEoGPwBVjZJJ0SrGIKdqCBqcpLCO7WLYho7/4K7fb6ZeyfnYci+2Zm9HTIfCPPeHElmvvvm7cztWxWJRCKRSCQSiUQikUjVAG5LJWseOaoApujf71eIe8neRwM5wB8bUKkf9NkvMjfpZ4N6Xibpp4/mwxIpTSAjioIZEqM+KEZeuqKp1/TXFsoSy7tAWWvissLsEgAc4y4noMJXSiXPk/HVee7ygjeBeBnNgoJJ7vKCEQrxlq+I8iJQ1qo9ppFfoKjZw11eQcTf1DxJ0sbNbo87nAqEXw6PIo4s+I6araActQzQnoGxdZ3YneBMIBZnhcRJuWso0JJrAnROuxLJiUBVEaeHS5EKC1Q1cXq4Einh1hrMRharJo5Gj0nnQ3atKSRQ1qzPu97fuIREmtRjZNcK6yWGzdoZ2ucssVttEM9C2njBngjrCKJb6jU2K0+RsVoJlDVrd6q8tAbRY6XNq5VIdhEEcJ6tgIBpNkSIBdJXghKX1Wl8mOgxm4OzEJsIOsltgOApNnIjuovpTaHCXT/ZDRIYXxPNWRRBtPE6x2awSJO1bImhOsRWuAjnIM1Bo9yGjGgOIoFC2vtshXQOuQUyCXoHkl8g3B3w7f1fJPshaQ7acUSBtiEKtA35BcLOV7bCRzAX2VGjVUc2g0Zy3BAtMfNsPHCkcxDmINxgI2Bkc5Am6W/choxoDiKBANUbNsMF8RlbuRAlaU3Wqn+nXwruG0WNfpiYjDcOspsL6RIjcIWNEHnLbW7EAgF0HrIZFLpExmbscoHG1jfpVrnMbkDAks1zeoslpqOoPcNFS0Fgoidpz7Irwk4gcyUCeeysAfXUtspDfBfrJ2vVPlexsqMfip4PSdo4zq4Yqwj6C+KVKi+17tjwKrtWFBLIVJaCusdu9YDketHq12IRRNDG6z5dqbvsVgY9Jhc11IVyUD9c8XGD3aFixHFUEuxMII0WiZppEqqU+uhBTM6hJa+jmrsK41Qgja48Q4BHZZ/XTNEmqtu2lWRb4Vwgjal8zUbmKJKmuMsriGohSdfEpS158CJQD37D54GvJ7LmyIPZnM83f7wK1IOX3UW61CeK5qdunoF3voXpUYpA/XTLT0DvbNO8eYq/R26S9d5lAs5D6QL1063S50faiBOm7QGwqhvf74NFIpFIJBKJRP6HUn8AA4dGVeWk9m8AAAAASUVORK5CYII='
p58
sS'andr'
p59
S'data:image/png;base64,iVBORw0KGgoAAAANSUhEUgAAAEgAAABECAMAAAAV8YMOAAAABGdBTUEAALGPC/xhBQAAAAFzUkdCAK7OHOkAAAD2UExURUxpcfzCG/zCG/zCG/zCG/zCG/zCG/zCG/zCG/zCG/zCG/zCG/zCG/zCG/zCG/zCG/zCG/zCG/zCG/zCG/zCG/zCG/zCG/zCG/zCG/zCG/zCG/zCG/zCG/zCG/zCG/zCG/zCG/zCG/zCG/zCG/zCG/zCG/zCG/zCG/zCG/zCG/zCG/zCG/zCG/zCG/zCG/zCG/zCG/zCG/zCG/zCG/zCG/zCG/zCG/zCG/zCG/zCG/zCG/zCG/zCG/zCG/zCG/zCG/zCG/zCG/zCG/zCG/zCG/zCG/zCG/zCG/zCG/zCG/zCG/zCG/zCG/zCG/zCG/zCG/zCG/zCGyn2p3QAAABRdFJOUwDx4AUt/vIHAQII0/c6E+hofUHwEsS323njsZI17hD4NCQK2J/iqUd1+2osmKfXRulzbQN0ZIU7nrOLDLbKCcmw9hyNkVPIBOZUTuXkZ+dRS8GXIU8AAAGwSURBVFjDvZgFcsNADACDdhLbscPMzMzMVNL/P9NQJ9A4sX1q9wE7cyedTpJKJcrKzAmz8UjjYVmPZjSeCZx5pZKNcbqYL9csXMGul/PF1ChLY2p1mQk8YMJ0WybJmmiqUAZRyoVUVJLG4I8H4CmBuN/w2mNOa+AlmrT5lSfszYAEMt7w81htiiCR4uZJ/OgqD5Lhq7Sop06BDKi6iImuqEEW6spDU02Q6dmbhNoD0XYHstltf3t0DCiA0d17gklQRDJ4l0DZkDJRKHubTrkYKCSWu4m8T69UpPdd5wDHg2J47uLR5oGAvPYS+gSJKHFJATcQ4f7x2B1kIof9LLLayEQ267lIW4AQy6mE005SkfOUShEXqcgVOYpKFKmIKh1FDT2pSN843nUTiGkeblvbJhe1D6/E1CEXdQ6NxbBPLuoP96LegFw06GGK0I6Gdtlo4UdLSLQngvdo0coIWmFDK7VoxR/vO0L7IPG+bLQmAq2twWu00Fo/vGYUrT3Ga9iVjRBvX0hDzXvtL8csvMFP5ij6IT6KyhuOP43/Ma4jLhDwVhp4SxbEtQ/iIkrBauwbGRhsqvzpPAoAAAAASUVORK5CYII='
p60
sb.