ccopy_reg
_reconstructor
p0
(cemoji
Emoji
p1
c__builtin__
object
p2
Ntp3
Rp4
(dp5
S'emojipedia_url'
p6
Vhttp://emojipedia.org/waning-crescent-moon-symbol/
p7
sS'index'
p8
V594
p9
sS'code'
p10
VU+1F318
p11
sS'apple'
p12
S'data:image/png;base64,iVBORw0KGgoAAAANSUhEUgAAAEAAAABACAMAAACdt4HsAAAC+lBMVEUAAAAcHBIbGg89PC0fHxRVRRSXdBMXFw2WchQbGxS+oTK0mS0WFg2thhsVFQyYcRAXFw0cHBBlVBqceBYXFg0WFgqcdRSWdhYeHBAkJRoyLx2nhCSkiSi0jyKgeBSniB+ykyYaGhEbGhJJPBaUcBhuVxVZUSVCPSF4YBahfhyqiiAkJBQzMRoqKhkoKBe2oDVJTFtNUF9PUmJJS1lRVGRUWGk5O0ZXWmxqboBGSVdISlhdYXNGSFVTVmZERlNfY3VkaHtAQ09MT152eYpscINZXG5LTl1vc4R9gZB5fIx6fo4xMjtobH5xdYZ/g5L17qj077by5ZctLi8yND1man0vMTmChZQtLzc9P0pWWWtiZnhzdog3OURcX3Ht4IUnKCGJjJns45AiIh327pkpKio1N0E0NS+GiZjy6ag7PUhCRVFgYmzlzm3t227ex1f686fx43lBQkZERk5PUFLcv0jewVzmz2Pq3H/16pC2rGjUtkTu2GbdzF/y5n/z5Yb065Xq13WalmxtbnLs56JZW2KSk5IzNT7OuE7FqT9na3jUwliUlpq+vanOzKvf1YHLr0GAgYT18LDr57Ly7bz6868rLTUpKzIsLSdJSkxWV1ofHxl6fH6Ji5G9qVednp2kpZ7a1pmFiJTp0F3574vh37vk2HTi1Gv38rxwcns4OTxGRj6cij9hYV9xbVaUiFCbnJSGhGx9fXCUk3lRUEnmy1XJyLHZu1Xc2KeqqqPv3HQ+QUz59LclJipLSkS1nEJmaHKIgFGFf1+JiYSzsqqurpe9lyc9Pjy1tKDJyJ7w4HBrbWnLv2rBuXLdzGvSyXrq45nl4aL26oPo1WpQUlsjJCZoZlqQjGbZ1rfRzrNrZExbV0t9c0vTwGaromjd2q+xrH13ZTBgXU8iIyGfklmimWOsqolZUjfEtGXDwq+5uKrGwY3TyHAoKS6VlYbp5r15dmCJbSOmpH+8uI9wb2bGxJvu6r7m4LTJwn/c1I5zdG2tmlVoXTaOfUHax3JD4jVcAAAAMHRSTlMA3Jj91QwqaTz9/Nko3EEXMzy5aIQXbYS2+M750/mZmM7L59TUktO4ZWO3Y5Flg+09MiOaAAAIdElEQVR4Xt2XZXRc1xWFa0uWHNlOmsR14hiaJmnSpvSGmZlBzMzMzCwzMzMzMzOHmZmpvFb3eZORbMvYn7mj0Zo/55t99oH75le/5DNo8B9+/8gjzz773HN//svDg+4XEPTY6HXrNh4+/PqGV999bduBtQFP/HXofQD+OPrgguo3m1/avOWfZ8+ub5szp7R0Gxh/ukfAo3/rPHf+7W+3Iryl5VBurkEk4POvlc5eGxAQfA+AwUN6Jl787Ltvvzw6r+XQoUMqVXx8vCiaEHIgAh++G+C3nSuSF5/+7kPEr+7u7o6JUclkMhEICi4jLyk+mTHwjoCHhtRVJl9e/MOpTUcnrxaL9fYwNSHiowUChULLYwmBv7mD9yErEy61Xp4wflH75Hkmh8lEBHWMLN5APnA5PLkShJFDb5t+14pLWVlT39pxatN8i86hM4n1erHdHsPagBw4jFyuiTqZkXgbI4K6ViRnTZm6fMKnu8fNt1hiHXq9A299GGVBCrRankSpyV6TkfjrW+YfQvHur17+ZPem9iWWWKtFZ4nVmUBQA2CIhgItI5Vr9grXZIy8lQ9DViZnuaf8CAGLxlG802IBIxYEMZxEDnyOEYCcvdkgDLhF/eoSWt37pkDAsYXznTqHM8JsNjutOngphpFkAl9r5AEQlR1nmzWwn4GTKpNd01dNW/7K+N0L50fodGbnkswIp9lKGuwxMcgBzcQhE6Ki4mxe2NAvAdcqt/vH5TsogwirzhqRlLQEBEssKhGGSoiiUUiGgQlRwo7IWTcl8WhPQmrhqmnTvnp5x7GF45ZAOuJBcLIuQEK8QUQ2Gn2A9HBv4o1zgQq4pk/fx2YAgNmiy0xKyszMNFusVAk1CaBW4jDIAQBIGHnD/PZUerJWTZ8yzdcEmU6rmQARMBI52BFPJoLAZQHZ6R03SRhCLbBvnxsZnFo0LgmpR1C81eyMgBixivoA4ayLqCMU2Lxp17kQNKnS4yosdJMFny5sX4I4Z0QmEoEA1EGMaWBnAQBGqhEKhXEdoZFpKX0z8VhdfWNh4XT31J9e+eQYimC2Ws2ooy42wmy1WHV6FJHmWUFlQCMI49IB8CYO7wU8mV/vSS10YY4mjEcbWSyI1+ksDr0VAJioJgv4img+mlmZE4X4jtBwb1pg7/7tOtPg8aS6si7vQhHaJ+tirToHOlBvF+tjdXjpVQaRQoRGYIyMxKeATJg7yN+FnUUejwdF/OktAObPM5lQfLFJLA6z600OWgvUSGBwpDyelHo5PT3UNiMt5cGfASMKipIbqgqnuKfuwi456tCLxSa9GEctduixk+xiFFImUvAZpUQq9fWBLXzGF+8F981RQkJqqssND05tmrzabg+jcD0UQIdaJlOroQAOYCPJlZIcKmN4JAD+iXq+AgBXIQFOHwcAq1StVtvF+GK9ya6WiQwyNIKIb2SMUmWOJic7Lj2UBTzuL8JKADxZrqzWXaePtwOAxoFuNY7eLlMZsFAxCQKukWHgoUYj7LBF2gjwu95JrE+oqvK4XD5AN9awTGVCB6vFYVjqmCIOh0s9QAuFZgkJsAoC/YC6osrG1KrGxtZdPxz/EgrQ+ioHORCGTwYBxpCLhcjVGqXsJMSF2hA/sw/wZMEZKKhKbWxd/NmHANjDAIAB2OnoYZFAwMcxavlcVgAstNlsAOzvTeH5gvyExqply/yAbpkoXh1DR61COABc6OfhDQF7hX0Av4lje2qbGqqWpTZeIsC8llxFdLRMpYrBXzwACkwh18jhcLTYiFAQl24LD4+c+cX+FH8ZR3RerSiqh4JkALZuacmFbJEMCJmK4gHgMBwweGgiHyCSLHghJbj3RqqoqGy4sqwq+R9/f3srFBgMAoHBgGKgfwU0g1qplmPksRnQKLGA/S/M9bfyoJC6psqEhisNyRMBgAI4z1fwFSIDLkUAkD+P0SIBWEiA0FASsP+9B3offEYX5DXtKbpSnwBA8xZSANlYgHwRDoqoxQgwDBpZgzmIwxz4MgjsWyg15XlNRfX1lRMvVjdvOZvbJlBojYzWyIUD5KFRLuFJJBLsEnKABmkmZTD8umu9oDxvT1HRnomfVzdv/j63TcE3SnGMFM1lGHzkSeQSKoGQAD9ncN01P6ysPC//zJn8iRfPf7D5+/VtKDxWh5zHJwMlEqWUhxtFiXgIwCD5Mhhw/b3StZMI+Ss/P//mS1+vn3ONQ6WDcYinAZLzjAzi0cXXCbjhZhlTs7O8ojb/6gUCvNh2TYvxofZjuFqGJ5XIpQwGmU0A23AGK+CBvmjqJZJQu6fpwrnq5iME0AKARKj/0EBSiUQqV7IO+gXMvUEAXKiBjflX696o/uDIBuRgZDhgcGgFcBgCSFBDYTqVgAWkPHXz9R5StrQ2vzbvjY8pBwB4PARDPvxDBZSshUIIoHhyoN9Tztia7Utra/P+e676/SMAIJJBLPKXKuUAUAkBQAIYI/RA/8dFlHL70qUVF3w5lPLkEujGP+SuVObkUAnoSoODiEcJ+5+HxrAE5LDx6xdfKy1RyhFKwRocCveVEPpRgVs+bAadKNu+vaL84wXvH97wbunsEg1so6/GiUI8AWzsFPY3wG/kibKCgoKeBf/a+PqrkFCiQbCGoqOEOJhCWsUUf9sn7qAxNWXlOztZCdtml7CxeJN6amHaAqR/6B0etodNKgOAlbBtdjFiYb0vHPXD99MIIP87nLEnamom+QklxWx8OsJxmcL/tETU7y5n8LCQSV0H1/2HCAeKi6n9/f2blpYyAFvsrmfEqBMH/YQDxSfXrAnFFvd60xJTngq+119Nz4waBcI7//7oo7UnT2ZkeL3eWYkpgcH39bPvmW++eYcIAQEZsyh6+ND/74fn008/8fjA4Aexf3+5538cZSlXOPgGMQAAAABJRU5ErkJggg=='
p13
sS'twit'
p14
S'data:image/png;base64,iVBORw0KGgoAAAANSUhEUgAAAEgAAABICAMAAABiM0N1AAAArlBMVEUAAADM1t3M1t1mdX9mdX9mdX/M1t3M1t3M1t1mdX9mdX9mdX9mdX9mdX/M1t3M1t1mdX/M1t1mdX9mdX/M1t3M1t1mdX/M1t1mdX/M1t1mdX/M1t1baHZfbXm4xc1caXdebHmAjZemsrpcandlc355h5HG0di7x8+5xMtldH6/ytFgbnpjcXzCztVjcn2zvsafrLRkc31se4XG0Ndhb3tzgYuZpq6Tn6iGk5zL1dzxW4F5AAAAGnRSTlMAIGCPv9/fv49gIABQn59Q7+9Ar69AgIDPzyJm0o4AAAKiSURBVHhevZjpcuowDEYdwpomEKCl1HYS1qX7fpf3f7FLgkE2qhDJzOX8ZeYMkmzns8UJvFq71XydyoJG3e8EVzSC+qHXbSqlHnIN0IjCciKv3Vc5bx/ymNgPzhbdXKuCz6IqzHBwlsjrqh2bpaSIAl502997PiRNPGJE3p3iPIZxcErU63MeIA5p0a3a85n352mu9fyJVo0oUVcd+JN7dMEJU3Qkwp43uWWuC+aO4GWSyycvyCR+8jzkDbrXBtuTaMPjsUlAf4CpJESP+kACfXJENQXMZAEu7UVbmOpCV+T1FfAtC3CzJ7ZoYlZB4IjuFPBLGtD4NQAlj40IGvScps/whwBGZNokoLB0C3SIFy2kXZwwkwfR8lwRrMu96EYpKG2DBXSzDQMjulYWv7GAHr9huBN5YKFbDQsbljYQFKI2WKjK8NJOpI1fiPoKLSIE3rQOcS7qKZuprES4FXUdkaxGtBU1bc+rI1gkmdZZsuBFjSvhzMxd1u+ZLsjeeVMgaorq9SLThoz/Tx3RJnud2KcYhy9apCgDUcaK6qJJDe1eW/DdFqqSCINETGmMaLVO0/UKRCWa/aX110G0Sgu2Jll6/HrLQbTeidYgIhYkI/qbGkCEtghTGhZVBJdWGdFEza5EQ7Sc8U+riupo0zJQOc5HxwgDleM6+GCjwWEHCPBRS4PiF9BAh39FUYQ/R9VKC4kPJMqvTLNj4pON8is3fp8IESi/cgRErEEBhmEIQQvYkJGKZgDRz2JJhDyayA6jwKysKA6ceAx8E/mVYkQG9nKljU9cIc5uNr5COBtlVmb8IXPNQvmVYMRe/CC/Wp8dRMRdRfGmzZ2Eh7kcA6QoOuu6DlCljf7PA0L1J40LPLKUefa55EMU/zR26cc6oNTz4T+PMN2qcIvbmAAAAABJRU5ErkJggg=='
p15
sS'gmail'
p16
S''
p17
sS'related_to'
p18
(lp19
V\U0001f31d Full Moon With Face
p20
aV\U0001f31a New Moon With Face
p21
aV\U0001f311 New Moon Symbol
p22
aV\U0001f312 Waxing Crescent Moon Symbol
p23
aV\U0001f313 First Quarter Moon Symbol
p24
aV\U0001f314 Waxing Gibbous Moon Symbol
p25
aV\U0001f315 Full Moon Symbol
p26
aV\U0001f316 Waning Gibbous Moon Symbol
p27
aV\U0001f317 Last Quarter Moon Symbol
p28
aV\U0001f31c Last Quarter Moon With Face
p29
aV\U0001f31b First Quarter Moon With Face
p30
aV\U0001f319 Crescent Moon
p31
asS'name'
p32
Vwaning crescent moon symbol
p33
sS'known_as'
p34
(lp35
sS'default'
p36
Vemoji
p37
sS'bw'
p38
S'data:image/png;base64,iVBORw0KGgoAAAANSUhEUgAAAJAAAACQCAYAAADnRuK4AAALDElEQVR42u2dHZRXWxiHDwRBEAQDQRAEQRAEQRAEQRAEAwPBQBAEwawVBEEQBANBEAwEA0EQBEEQBEEwEARBEARBcFrPuevc+2/ffT7259nnnN+71rvWXVN3Zpr9zLvf713VEkmAVPoRSASQRABJBJBEAEkkAkgigCQCSCKAJBIBNFJ+/fpVf/36tf7y5Uv9/v37+u3bt3/pu3fv6qOjo+bPf/78qR/YGgH68eNH/eHDh/rFixf13t5effPmzfr8+fP16dOn62PHjtVVVTnpmTNn6itXrtQ3btyo79+/Xz9//rz+9OmTAFqC/P79u4Hl8ePHDSi+kPjoqVOnGrDu3LlTHx4eNuAKoBkIV9CzZ8/qW7du1SdOnMgCyxgFXIB68ODB4izU7AH6/v17/eTJk/rSpUvZLEyonjt3roEJf0oATSQfP36sb9++HWxptra2Gj8IC3H9+vXmv/kYmhpIPj/X65s3bwRQLiEaunr1qvPhAgbAPX36tH79+nUTURFNce3xMT7n8ePHJ7NKFy5caPwlAZRI+C3lmnKJkHZ3d5vI6Nu3b1YLhq9U2rV39uzZWYFUPEAc9LVr10ZHP3fv3m3+ny7B8nBVle4vXb58ubG2AshTuF6wIEMHzbWDJXn16lWTDOwTQvqSorMxurOzU3QaoEiADg4OmrzNkLW5d++e9XqyJRCxOnMCx/y3chULoAEBBrK6Qz/Mhw8fNuH7GOHKwoGeKzybSqQ45hdmlQBRXiB07gt5sTgu5pw8y5Alm5uePHmyiRoF0EbJgfB66DfPNYNLeE5EsyR4NnV7e7uIom419ZXVF5pjPfCHgMxFsFJLhmcz5J+6NDIZQISofVcW4bhP9AFsWKylw9MqUeXLly/XBRCJsq6sL1YnJLUPeGuBZ1On8ouyA0S1vCu3w3VG1OQrhLprhKdVepIWDRC/JV3w8I939XXMiIsQf80AofQgLRKgR48eWeHhYzHM79hyxxqU7HXIL2NxANH70uUAUhkPlf39fYFjKKmRHBAlB4iscVcfDs3rMVIBJNcEjf06Sw1RUoDoFOwqR3z+/DnK16DgKlimc6yTAUQC0ObzYC1iwcPnmUsb65TKFT8rgOjHsbVNxIQHmXOFPbemalKLDhBVcroBbX07MXyeVkg2yvq4Zaxj/vImA6jLKtDwFVPWVK6I2Xc91HQ3KUDkemzfOJ2AMQXrIyD8w/siAWJ+3HalUJuKLUoahinlpKIAwixiHm0DdLFNJiUL+T7hLbKxOhujAETq3PZNhhRGu4S8hiAIV1qHiwCo6+pKETZizVQwjacx+oiq0AO1hey0W6YQ+qZ18PGU3qvQttgggGylCr6pVJMDCt3La//wBoh2U1sRM1XGkwSlnOc0Cx5CEozeADFiY34zhNe5C7PScCX5mxUgQmnT+oSSPCQuixWk7up7dl4A2cJ2PpZK8Kl0faWfM8sCEJV28zAplDLIl0rW3iyfS9kpmRwgvPbU9RVT+O3QAZdZJ6tcrxJzngtrlHrXn5KH+SIy1xSME0BMT+S2Pozu6nDLHVB0AojiqPkFKWWkFBu00rTz9i6N+KMBYpbdVm1P3fUv/ye/uoyWjwbINnPOvFdqsdXapGmVSZfoANkWNaUM3RHaQXSg0/QLjb1ZKt/ri8JmaqGPWgda9jU2CiBb3SvH0seuqVZpOVX6UQBdvHjxf19g7JLLEOEZAB3mNMpi0igA0bZhli4AKofY0gbSfDrGSFQ+fghXWg5RBrr8ltfKx/+JPSTY1UCmQyzfD6pc/R9qYbFHdcZGftLy/KBBgMwlCWOdq1ChNVaHOK1iLIbyQb0AkSg0PymRUQ5hHFqHOL0Ozfb1AsT6OfMTkpvJIRogLEOH/N3KtZE9hwPd1TYrza8szPAGyLYcM2Xj/KZogcI8uhR7AbI9gpIjA92V/ZbmV15O9AaIh2jNKm0uURtHGco5eANkrmyhW00ArUuZ//MGyDzEIXOmMsYy1Rsgs4ksRw/Qv9+YDq4Y7as89AJkVuF5HVkArU/7xrYql0NMOb4sgASQABJAAkgqgKSlAGTOwcfa7CmA5qV941tOeaCcYbz2AZWjfT1BvQCZb6+zJSyX2AYZpTNLJJpr5YbqIiplLHNK1Rsgs6WC9tZcj7mqGl/Otg5vgGzbyFLPw7eindBl6NDm3cp1tNhnj56PEPHpAKfXodeWegHiWSDzE/LcQA6xNbNJ8+vQCp9egHiicqqp1K635qV5dWiJRuU6HRqy1dxFtNquDGVHZdBgIYOEU3Ql2kaKpGWF8KMAsvkiqV7j2RScdR1i2Q31owCyTYgeHBwkB4h3rFTOWMByBduSg1ydicpGL2C9C/2wZlWeg82RkVY2egELprqSejkmVJULWsCKu66QOseOaIXy0+ne3l48gLA25hfIsaWeVbM6zGmUZ72iAWSbUkXJVKcUrbmbRjEOoztHx/5FW2E19MVfX3ClZVxfTgBxjZl5GTKVqfcl2lpKpGVcX04AIea2jrG5ghDRc5d51bXv3QkgYPFJd8sPmo+6VhmcAOK6sm3NSO1MKyOdb5ULJaRkAHU501xtKcW27Fw6rfPsDRCVeHN3NErNTPmgee+E9ul3r3wO1NYtmNIKYVYxrzrosqyPN0AcqG3wL+UDvHRC6qDTWR/f5amV74Hu7+9bM5ip8kJEBzrsaSYvkgBEHcz2ntfQYuqQr2fzvaThkRdvwmUHCLG9JYY5dMlkuoheMIyvdDyESBV6qLYJUmbqU1Tq8bF06PE0xjkFA0ToZ7taUvUL6RnMOEpdM8ZNUcU4VNujLGiKh1nUZBZHYw2IVin9EyxT7BEg5YTClRaZWNFyNIAAxVYn45t1ra+oxaP8qys6QG3JwTbLxRhQTKfa1pskHafk72JKFdtHIQ8UO1llk93dXQHhqENvfxUBEILFsf0DmHKNJayeVWLRLWRPUSVIAhA+T1cvMzuHYoneVR2n9FOl2iyXBKA2P9TVCBaa/WyFFPzW1pYgGShVpBwCTQYQwm6Zrne/yB3FENsWNel/ZaXU3aJJAUIIGbsgipWtNtcRS//JwaVs8ssG0BBEvo1MpqVTWP+35cn1PHsWgNpD7vKJiNpCk41d6YM1Wp5c8GQFqE0Adjm9FElDnD0SlWufYgUekrk5JStAbf6mq6LODyBkjTBWbq25IVyEXDu8JwWoDb/7HF8ypr5Xmm34cQ15nqOjoymOchqAELKi29vbvT8UNrX6CGWTNY0i53p+oiiAWqG80RdBUfPy6dldw1MJZOJTL7coHiCEVtW+jDL3u2sJhB/sUkeByC77WudFAoQwl9R3pbUFQZfMKhAt7dUfGvf63jBdLUCtUCcb6jhkCnZslnXI15qT1eFnk+u9ttkChNDdOOb6wSKNNeUshZhrtppfmCkd5dkBtOkbjUkOMmaNQzn0MAh5kjlNdfC9luLrzBKgVqjcmw8AdynLyYGpK6nGlUbZo+Q2EL43LObUEdZiAGpLFWP8IzN6w/8BQAq6m/4Dh0N/8Fgwc5Ui6FCIPYQggIwsNiD5bC3jgLBQQEX+iaIjzjj1Iw6OPzOfdcjlIPP1S/VzFgWQ6SNRyY/lHONLASZXSI4rjhQDEM/hqlokQJtRG9cR0UrpkRZBAT7YVLUrATQCJgqqFGRLiLi4niirsK54KdAsGiBbhvvw8LDpfOQggSqVleLz4pRTv8MikjUvLfEngCJFdDSvARbXCdYKXwqfBAUCfKFN5WMkLvlzygk7OzuN4wsofB5yUEuHRQBJBJBEAEkWJH8AfCCBFaW/f3MAAAAASUVORK5CYII='
p39
sS'version'
p40
VV6.0\u02e3
p41
sS'uni'
p42
V\U0001f318
p43
sS'desc'
p44
V\U0001f318 
p45
sS'browser'
p46
V\U0001f318
p47
sS'annotations'
p48
(lp49
Vcrescent
p50
aVmoon
p51
aVnature
p52
aVplace
p53
aVspace
p54
aVtime
p55
aVwaning
p56
aVweather
p57
asS'wind'
p58
S'data:image/png;base64,iVBORw0KGgoAAAANSUhEUgAAAEgAAABICAYAAABV7bNHAAAAAXNSR0IArs4c6QAAAARnQU1BAACxjwv8YQUAAAUeSURBVHhe7ZtfaFtVGMBvUm2X9E+apHNJ22XsT7y6uTqYiOIfBKcrgo5VFCbDgb4IMsE3oe1T2wcffJC96qCKUzamHVPXbQpV69hDhbB1XdMVy+yabFmaJm221pY1fp98GV3ae3vO/e88P7ic77t5CPz4zndO7j2RBAKBQCAQCAQCgUAgcBouGi2jq6tr6+LiYguE2+HaBFfU5XL58LNSCoXCBAxJuC7AFWtvbz+E963EMkGXevecgy/b+NOlbaHpWS/d5QOE5WDoh+u0VbJMFVQY3BkZS4VP+Stn5IoH7pR91ve8pFXOCsRBWA+I+ohyUzBN0IUfX+9dH0zvqvXOlWH++0hU6rv8yL+fGQlIGoApeqitre0LumUohgs68/WBF7fWJ481BHJ+uiVdy/il7t+epcwcQNRhqKZ3KTUMQwWd/27fp3J94v1i1RT5Ifa4FLsaocw8sJrcbveB1tbWIbqlGzeNukE5TZHxg6VysHqskIPAVHsCJH2LKyXd0o0hgopyPOULyyoyngxRZBmykZJ0C1KTk73tlc6PbqHMUgyTpEsQNmQlOUhi6m6ftgMZNqTdFGtGl6Dt6xM9SnKQoYl6iuwBe1JHR8fnlGpCs6CRs6/FQr7pKkqXgdPLhv6zDJD0Tmdn59uUcqNJEE6txkCmidIVsXl63QP0o4MUcqNJkBxOfaU2tZBktoYi+6Gp1kYpF9yCfj22/8NIMLOOUkVsWr0UAUn7KeSCW1DYn32PQkVS086pniXIUEXcU41bUF31zGYKFUnPVFPkOHbTyAyXoD9Ovnmk9KfEStz6u5wix8H9i5lLUKAy/wyFqjh0imEf8vE2ay5BVWvmVm3OyJ+pOoocCT7qZYZLUF31rQoKVTHwqaEZ4HNwZpgFYf+hUBXcQTucKI1McFUQC/k5piKzDexDFDLBLKh6zZxhD6HsBhp1M4WrwizI5Vr0UHg/wDzNDJ9i9xtC0CowC5qdrxij8D8Pz1tZZkELd8oyFP6vYBY0mfcwPboMVuUpcixxGplgFvTyvu6fZ+cfLFCqiKd8gSJnUigURilkgqtJZ/LeLIWqyOHrFDmSQRqZ4BKUm/UMU6iKp3yeIkfSRyMTXIImpmrbKVSlwT9FkeOIwwrWSzETXIKwD12dDKYpVcTnvU2Rs4D+00MhM1yCkMmZqrMUKuKvdJ4gkJNzu93cZ4i4Be189ehb13M1qmt5LVRQg99x26bjWo7FcAtCElP+kxQqEg2lKLIfqp5PKOVCkyCsoomMT7UT1zurUX+p9VCVJkHIUCL8htrGMeTDA6n2A9UzACuXta+eEVzRBq81nqB0GbijfmoL16bVcHBqwcC0NVFCsyDkyT3f7B1OhBRLd9NDNymyDSgevn1PKboEIY/uPrHtr8nADUrvYePatG2rGVTPxzyPNZTQLQjZ8MKpkJKkHRvGKbIOkmPIAXNDBCEoafTG2hFK7yKHk1KNx5qNI/YcuHBaGXb63jBBSHTX9/LF8cbTS1c3bNbPyVcoM5W4y+X6AOR0Um4IhgpCml453tw/svmlpfskrCIzexFUzWGQ02LG3xFUT4npBd/GRoLpFnxlPXazTjpy7mn6xBhAzAAMOKV0rVRqmCqoCIpaV5NtTmQD/jMXH6O72sA+A0M/VMxRs/7AshRLBBXB43u/DMt4eABPWOxgfQ0MUvCPdTG4BvEXuZH/xVgNSwWVQq+A8S3nw3CVnnrAXSaKuWLmFBIIBAKBQCAQrIQk/QPNwLv8urJSWgAAAABJRU5ErkJggg=='
p59
sS'andr'
p60
S'data:image/png;base64,iVBORw0KGgoAAAANSUhEUgAAAEgAAABECAMAAAAV8YMOAAAABGdBTUEAALGPC/xhBQAAAAFzUkdCAK7OHOkAAAKIUExURUxpcZR3JfzCG/zCG/zCG/zCG/zCG/zCG/e+G3FeKPzCG/zCG/zCG1tOK4txJjg1LvzCG/zCG0tDLFlOK/zCGzUzLvzCG/zCG/zCG/zCG5Z5JfzCG/zCG/zCG/zCG/zCG+CvHWdXKfzCG/zCG/zCG/zCG/zCG/zCG/zCG/zCG/zCG/zCG/zCG/zCG/zCG8WbIPzCGzw5LkdALUlCLTc1Ljk2LktDLFhMK4NsJkM+LfzCG/zCG1NJLE9GLGJUKq+MIvzCGzY0Ljs4LoRsJvzCGzw4LvzCG3BeKDo3LvzCG/zCG/zCG/zCG19SKnhjKEtDLPzCG/zCG0Y/LXJfKDIxLzc1LoZtJzk2LkE8LfzCG/zCG/zCGzs3LvzCG0M9LTk2LvzCG1dMK1lNK/zCGzo3Lm9dKEtDLDc1LvzCG0pCLDUzLkpCLFNJK/zCG0A7LfzCG//lFUdBLVBHLPzCG01FLDk3LkU/LUM+LT46LjUzLmtaKTUzLvzCG/zCG/zCG1BHLEpCLDU0LlZLKzs4LmVWKVFHLGBSKvzCG7GNI+ayHfrBG/3DG//EG1hNK1pOKy8vL/zCG/3DGzAwLy4uLy0uLy0tLy4vL/7DG//EG/7EG/rBG1NJLNGjH15RKjc1LklCLL2VITs4Lui0HTIxL5t7JPvCG8WbIDUzLu23HFdMKywtLzExL2BSKtmpH5d5JXVhKLmSIl1QKve/G+ezHTAvL5N3JYduJnNgKOCuHsqfIJ19JLKNIuy2HeKvHkdALT46LjQzLt6tHv3CG9OkH1RKK4RsJ9ioH5V4Ja6KI3tlKO+5HEA7LWdXKjMyLzY0LkI9LaiGI1tOKzo3Lo90JsOZIaaEI+WxHe64HDTiHssAAACPdFJOUwAJ9y0B6ToHAgo0/vI5BPJz8XxKn/kFtwkIBdOSE+ZoBAyx4OPKQX3wEsTbLKfuA2rEs6j57YdYDLn4mE6UOwIk9+YR2NEQHOvXeft0RRuMR6mrGPrzDubCVEYD32S78U5oQm3jNXj8hYX4hFWzbQwBnp+Lud/Jyw3QKP4cU8hjpu4X1VB9j42wyeD342JfjWNp1gAAAqRJREFUWMO12AVbFEEYB/ATvONEFAkDSQm7uzsRu7u7O1CxW9+N2z3vQARBJM7u7u7+Ou5euDPHLbdzz+v/A/ye2Yl33xmTSTdpyZbUI+lZGZlhJ04eP3b08KGD+2uZmGPdtTtpT0oYp4Tn//z88e3L59x9B/bm7WzKxCRYNiW6EZX5/cv1XZJEUJO7ZUPcVMNMk/HtzJw3jvKvFVWVHsWTKb16DDHE1I6Mb+9jeGfZx08S+GVQ5zEdgjvJORk+hrO/L/1QjVEijOw+IpgTmT5ac+5eKREhYEqmL7TWuFYzRv1jOP6FywZ6ubl4QX19J2KRmXDuvdR3lETH1tF1cqI0x16QX6MD0HCFjhTRIIZwnrmCOIq0KqA0K5Vw+PI7QR2AlUsD7fP5KZrDOW9VgYHMO1197cITCcdR9EQ0AsHsev7O8AmEw9+4JhlyQJg7yW8DdexNQBcuC2Awk2Pp7dR2KOHYX5+zGYVgcH9q5ZPqkjN9WzTsgNClJwFZzOSALjEMCOToOM1p1Icj80YGhggTtQIcnkku2fkKiQWSu2lbIJscz5mrhSIwDWmcz2nVmoScr5gGpGTYWC/UvCX1Zfk2Nkfu2tdbpFuQA3KUFYuMIxL6DfBsosbUFJUCczp5ysnANoTz/Pq7SlZHnrbEDc2MIqfo4VmJGVq22g3NIY+H/dFjkfnThLXr1bleTs11QTE7BBvT1PMRT0FFhTI7tFk9JQlrqEV7cJHdga3N1JaBXv23T0OAtqnQuiwKui+EAO3YjgmhfRraZKMtP9qGRDsieIcWrYygFTa0UotW/PF+R2g/SLxfNloTgdbW4DVaaK0fXjOK1h7jNewhXiFOWf/jpQbtmoV38cO7iuJdjvGu64gPCHhPGniPLIjPPogPUSE8jf0Fdg7xCVbbi8oAAAAASUVORK5CYII='
p61
sb.