ccopy_reg
_reconstructor
p0
(cemoji
Emoji
p1
c__builtin__
object
p2
Ntp3
Rp4
(dp5
S'emojipedia_url'
p6
Vhttp://emojipedia.org/crescent-moon/
p7
sS'index'
p8
V595
p9
sS'code'
p10
VU+1F319
p11
sS'apple'
p12
S'data:image/png;base64,iVBORw0KGgoAAAANSUhEUgAAAEAAAABACAMAAACdt4HsAAAC+lBMVEUAAADvgiDuoibsjyLyeyfsjSH/dBvqgx/qfB7rfx7vnSb/twDriiDriCDtiB/ukiPqiSDtlyTrjyLriyHrjCDnfx7skyPskSPqgB/skSLsgB7smyXuoyjsiSLtiyHunCbuoSfsiyDsjiHtmyXsiiDtiyDshiDsjyHqfB/rex7thR/slSXvqSvkax3ulyTsix/mcB3riiDrjiLtjyHqiyLrhR/pfx/ogR/shx/rhh/voSftlyTtkyPtiCDkYxvhbB3uqiruqirtnCbvqivtmCXqjSHjZRzlaxzuqyzldR7mex7lbBzpdB3phyDpdx3mfB/pch7sgR7tjCDqfB/rfR70zDnzwDP21kDxtC723kX22ED220TxsSz9+Nb45k334EX0yTj672r340r0wzT0vjDyty7xriv22UL0zzz99sLzvjL9+NL0wzL0xTP0xzf0xTbvnyfxqSn998f10T3998r33kfxuTDyvDL9+M/56lb24Uj78qD20z3voyj68Xz551X47lz57Fj68Yb56lH56E/89rv45En561XvnCb23ED44EL20Tr45Uf58HH998z0vC/58HT68pP340vvpSj57GX8867685HvrSz22zzzuS/20Dj22D358Gf33kL21EHwqyv21TXztS368nr45Uv46FL572b673n57GHvqCrvmiT89bLwoif0yDb44kP9+Nr77ZvvlCP2zzP57F345E757G/77pD5507skiLshR/vlyTzsiv68ZD1yzL89tT89r789rj68pb68In572P33j32zDX684z68nf1yzf21T320TL79Jz785b79J/1zjn34kf89az89bb79KL998T89an68YH79Jn9+d344WD68oj1yjD57Vr66nvtjiH66nb78qv552r58G720zfxpSj88rv79aX572D56FzodR722Tj21zb66X721zj44Vb66of9+OD32mD321P89a/89r/1xi/68oT67YL552T66oHqiCL887778LT76qL33lz89NGD0LORAAAAVXRSTlMAD/qDBlwDE0Vb4gE0RB/1SNmdP28Yl8qDtJq27Cxh9uBS3e53y7fk/T7Ix/Jo/Cjun9aUJJ/YOZyo8uK52FVX+vzN9sxV6vz+6PLm1/mzkY/iu3F0W4CQswAABUBJREFUeF7t12V0FFcUB/ASJxCIkASCS3GKFilQd7eRdXd3j7u7u7u7B3d3d7e6n9O3oQeSQtjsfOb/fX979+59d968Yjkv8+aHH634/MvJTo5YAbtln91c2N7e/o2P0ziMhOfXC9vbKio6zi0ea4eRWLT2XPgVmayqY7ETRsFxQ/0VIovVeaXeB2svfCrYcUIhs1O6eRFGYb2UJdrZLYqTTRyLDXD4VgZ3P8zthtn132ETJmws+Onh1Ufdos6O77EJY03Mhr/+Oblb1FmP8VdMIZ5+1NMDBPZEbJ1cZ8NvqHsQe2+3MG8ztsneVHD6754TfxAamFU+2LogE+36k/Sg7u62gnpMM+k4l7n7fi2p9mK+KG+xHaY2srpPCki1VyMa4sIxzdM8dreKRyKdOJ9fzX7VAQMwWybKukASmEvIqMDShfEmYX4dSSAggS7IXscArHlDePm+QCuorbu1rWDBGAznAQB3BFptD0+VGRfuhA04q43VagUn84VJk60HltsI88/GKmO1pDu3q9nzrQc8ykW3f1MqlbGkFtCEOdYDM9jVd1vkcqVSYEjPzJhoPbAa3ZleJz8il2tTcjLjXrN+rb3PzKRc4PGOyGNTKJeZFVYD020Yl+/18UCUAOCHPwHeGuXJsiVSbzX39v7I48kvDANWLBsVMMaZHxXREhICBLkhcihw8xPP0QCT2OKsppRDfYCQt2yNYj5t4qcLvxrNOgEFpJ8/VNkHhCNnh/2Na3//Yp1lwAulZiUaKisrQQ29v6bvHzJI88+1rXK0uAvKGcat51MO/gCEkJSmdCrx6ShPbqvo2OBgYRVMAx30Mxw9aBZCEiKzJOVPD5NLW1WSdPWLR8A5DsLX/HLt2qBwqHmrER5ynMcsMLHZJi+7F3y/sxrCR140GAaFysNNEfszhi6UlVJUo87bNGEk4INpGgifc6N/j+EwEI5WlkZmifOGrjSXcJQhYaCz7J8LeHrlwfvxkX5dx4/v2WcW9rXmRPGHLSQH7zQGBFHhtKkez87fpFmoREGg+A0k9A8Kh4821+CpxOFr3b5KAylyFVTNx1PtPYfK421nEWEIyTlwI7ArNWGvWbg2EJ1jhKXDHyx23kSqkcNBjFQ+Om2q7ezxyyesme4xw+vdd1gMyMihhCYHDmxPTTXXsK/fryYLFPC/lrtI+VyOSoXj5HLFsJqY9t7SpW+zUTVM5SIEygG/5sDAU9uBkLr3+N6ymogozbMr2T1NjKj0iXRgIAouRAWBuEaEg9OHFieXHjv282MhISE5GmdklK9/9qi4oRBHTwYBiApHAMHhVHo62S853tfXFwingNDVBT6PVBPnPGfyPWZquAQ6uVinKy4OJpOLANVarCujxcTHlxYCYbCGwLJoCh5iPf+KY2/iKwiJwWEBZ0D8Gxsby5JLaJdiYmLid+woLBysoVQXTeFAGSM92uclwUAghwX4+/tfv76lpKSERnsigBp8k4NDcXgoQzpvxJVj0nBBH4LCzjwWsrOzaZcuASI+vtC3lKYrOoDbRWWFTxr5zNjPZFFzcYmtgPivhmxQg7kIWpmuNVTPUUjQmS+8mni4pcFgHhJBLwOAsQUYIFsaA4LIdD0BgeC8VR4WFp+7SS1WIDh6Ezk4KCjMHF1QMLmIriIgXAYqXWn5gui6pFwt4eZyzEOQWFRURKfT9TgCYoQYLJO366jekuyXJKF8MThcCMccPGLkQhI+0eQ9Y7RXu3Eu7s5JRDUfloirxWIJrGGlmTa6u1j10uXoajvFba5NEojNXLcptq4j//aX+RejsnEUAzH2kAAAAABJRU5ErkJggg=='
p13
sS'twit'
p14
S'data:image/png;base64,iVBORw0KGgoAAAANSUhEUgAAAEgAAABICAMAAABiM0N1AAAAZlBMVEUAAADM1t3M1t3M1t3M1t3M1t3M1t3M1t3M1t3M1t3M1t3M1t3M1t3M1t3M1t3M1t3M1t3M1t3CztXF0NfI09q4xc3Dz9a5xs7K1Nu9ydHAy9PL1dzH0tm7x8/G0di8yNDBzNS+ytIjMhpLAAAAEXRSTlMAQBAAgK9Qn2DvMM8gv3CP338PSWYAAAH3SURBVHjardYJsqsgEIXhoIiIEjmaOXfc/ybvi0XSPsGK2vwL+IqpLXeMRJZTu3x7skgEKZRpIAHoVFBlEkGoU0GQqSA0qSCbCoJIBdlUEAQX2nuo4EISvoYJtfBJJmThc0yoxjPDg/BKsiBDkGVBGhQLakEJDlSD2jOgDKNaBqQwyjKgEqMcA3IYtx0ySAS1qaAqEaTxf82O8wk5nc8/zBUJADgc/9VzIP+IugfUsaAGrxV9sCCLof7z3LFGRGBasQ1yASQ3QRJBagtkENZsgWoEuXwD1CKs3ABpRFLrIVMhUkYQyynztVBWI5YiaIVz6a7X29fkztZBph5Gfuj7TpBcCZmKnLFUZesg/XAux1cdLYigxe+wI+hMC1oBGX9d1yPl96bzFZAEQujiP2nLIeHw7DaCMGQWQ40F9UXOr/8xWgiJEkPh3g7+p38RpC0m3b+90wOAy5ZApq0Qdu8+H/sa1lOZ/B2UqdLhbeREIaHb55D3XXfAbDofQ0Iq8UzK0rrpyfbvHA9lBeY60cMLovOhrZWgYld9QiRHDp2RrlZDRZaHkB/JsG52a3sCCKKpjD++H0yzJo9BNFGhdPq9fQSnrAPEQz5hsaBKZvkcRFSBNzliYhDVSIf5CjWnEEQZaRHJlYoW8waixL4djYotpGpmAYIS9Qd2OY1RgjfFmwAAAABJRU5ErkJggg=='
p15
sS'gmail'
p16
S'data:image/png;base64,R0lGODlhDwAPAKIFAN7r81uw7ABGdP///wCJ493t+gAAAAAAACH5BAEAAAUALAAAAAAPAA8AAAM9WKrSvbC0QUN4UFBKiL2LRgFdaQnMVq6gOJBrd7pBLF+07eFbbc8bWOwkUf1QxdEQlFLekCHXCxOROKCKBAA7'
p17
sS'related_to'
p18
(lp19
V\U0001f31d Full Moon With Face
p20
aV\U0001f31a New Moon With Face
p21
aV\U0001f311 New Moon Symbol
p22
aV\U0001f312 Waxing Crescent Moon Symbol
p23
aV\U0001f313 First Quarter Moon Symbol
p24
aV\U0001f314 Waxing Gibbous Moon Symbol
p25
aV\U0001f315 Full Moon Symbol
p26
aV\U0001f316 Waning Gibbous Moon Symbol
p27
aV\U0001f317 Last Quarter Moon Symbol
p28
aV\U0001f318 Waning Crescent Moon Symbol
p29
aV\U0001f31c Last Quarter Moon With Face
p30
aV\U0001f31b First Quarter Moon With Face
p31
asS'name'
p32
Vcrescent moon
p33
sS'known_as'
p34
(lp35
sS'default'
p36
Vemoji
p37
sS'bw'
p38
S'data:image/png;base64,iVBORw0KGgoAAAANSUhEUgAAAJAAAACQCAYAAADnRuK4AAALnElEQVR42u2dH7QWXRTGLwRBEARBEARBEARBEARBEARBEARBEARBawVBEARBEARBEARBEFwIgiAILgRBEARBEATzrd9d63xr7n7PmXdmzjkz58w8z1oD3ft23/nzzD77z7P32WkEIQI7ugWCCCSIQIIIJIhAgiACCSKQIAIJIpAgiECCCCSIQIIIJAgikCACLQu/f/9ubt261Vy6dKn5/PmzCCT0x+7ubnPq1KlmZ2fn/+PmzZv7pBKBhE68fv26OXTo0AHyuOPYsWPNmzdvmn///olAgh/379/3kqd9XL16tfn586cIJGziwoULWwnkrNG7d+9EIOEgIEYfArnj7t27zd+/f0Ugof8SZo+zZ8823759E4GEpvnz509z8uRJL1FOnDixH9b7fnf06NHm/fv3IpDQNJ8+fQpGYs+fP2+ePXvWHDlyZON3/J8nT56IQEKzn0T0Eejw4cPN9+/f95esc+fOBf2iuUN9EWhm/Pr1K+hQX79+ff8zkIQEo+8zN27cmJVEIlABIGkYcpzJVjuwbPmWPPyluUgkAhWCy5cvewl0/vz5A+TAgfb5RXNZIhGogqXs5cuXBz67t7e3UUNzdTQRaMUg8vIRCLJY6wLhfM41+SURaMUgWdjHCgGq9j4SUagVgeRQb/hCPkCiM2fObOSJyDGJQCsE9S4y0T4ShUhBvuj48eMHPkuWm2VOBFohnj59GpR3hPDly5eN6IzITgRaaUTmC9XJTnfpgwjx7f+BjCLQChEqcRCpdYFko/WHvn79KgKtDfg7PgIhRNsGm5TEAaf6LwKtDCHVIk5zFyCLdapzVe9FoILx6tUrL4GQeWzD27dvD9TN8J9yiNFEoIJB9tlXsqB42gd37tzZqJeJQCvD48ePvdFYH300SUa7lJGoFIFWBEgAYfomFS1evHixoatOWbUXgSoAS48l0MOHD3svg7bUkdIKiUAV4NGjRxsEunLlSu///+HDh63VfRFowaASbwmEbzMEtmrvq+6LQCsiUJ98UBtIPHJYIRGoAoTyQUP7w6zWKIUVEoEqgK9IOia7bC1ZSGMkAi0MoboYicIh8GmNYodaiUAVAF9nbGHVgmZE25woAi0cJBNDYvuhQNpho7mYqR8iUCXwNRSSoR6DixcvRjnjIlCFCOmkx8CKzmKKrCJQJQiNghkzkNP6VIyMGZsTEoEqQahfbEgysQ0rVhu7jIlAlSA0cGosgaxMZGw0JgJVAl9FPoZAtAHZPjIRaMG4fft2UgLh81id0Y8fP0SgpQL9j49AMXOkbTg/pqdeBKoEVt/sjpiKuvWDhpZGRKAFONExYIB5bHFVBKoEvkQiP4sBy98Ysb4IVBnolQ8NHo+F7doY2jsmAlUAG3K749q1a9F/27ZB05AoAi0MtjXHHYjtY2HlHUOneYhAFSCUA0rRnkObdPtvMhVEBFoYGCzlI1CKsS1WbD90KJUIVAGso+siphRdFR8/foxSOYpAhQOS+KwP3aYpYKUdQ2tiIlDhsBLUmKyxDzYXJAItDKHh40PD7U4StP4usxlFoAXhwYMHG+ThIafc/jKmPCICVRiBuW2gRCBhVAS2bVKrCCTsg2XKt91l6gn0ItBCQdtxzFygPmCiqyWoCLQQ+KZyMCwqJWweaKhERAQqGFbGevr06eS7EtrBDcoDLQh2tmGOfS/s6JihGiMRqFBYvTLdozm2K7DLJEJ7EahyUL6wLTe5trKM7ZMXgQqEFdATGY3p2eoDuyvQUJGaCFQYrMAr927Mtkd+qEhNBCoIWBmbeWYpG9t92gd2q/GhIjURqCCQJLTWh2JqTl/LLpVq66kUvt2asQ5j5v/0hRXrjxmZJwIVAGpbdilJOU2+rwM9pkwiAhUA3/6oOLeps84WZLbb30nuSQSqDBRM7QBN/k0zYU74Rgfv7u6KQDWBzLJvR8KcjrODzUCP6YsXgWaGr2GQWlRKuWoItEXHDi0XgWYE/Vi+pWtvby/7d+Nb2XzTGP9HBJrR7/FFXYTVU8C3ecvYHZ1FoIlBvoeuCvsAh/akx8AO7GQzurEQgSYEFsa3ZQF+Tw6phg80EtpzGLt8iUATgofkIw8S0py1Lgsr3+CcYr5fBJoA9+7d83aXIhLLne+xsFsmxA6pEoEyRzuh2T74QbGbvQ2FHaqZYsaQCJQJ+DS+6rpL2vEwp4adC51i410RKAOooNtttucmj907ngPxWixEoMSgsh4iDz7PmHpTCjAD2p5LCqnITiyrCU2nCkFLB1lkW+Fua3um9nkcfPvO03OWAqMJRDjowlLYzAml7tmuCVgWX3bZhepjM70pHHnbX0YZI9VLP5hAJKJCY/dZ38moTh2azu3v8DLZNpy2SGvKPI+Fb5OWofvNJyWQreKGDkiWuo+7JGBRCNGxvqF7wAzm3KKwLkBcS2ysYUqXYxCBMNO+bGrXgflEezKFRCE3uAauBYe06z5AqjkiLQvfcKrUMtlBBAo5iH0O1l3Macz+VnOBdhs6Q0M+jp2zPJe/04Zvsgcvc2qLOIhAdiy+83uo7va1THwe0z+F7iXW+SRLy1vc59rILI/ZsC1XKsEurVwDGqTU2Bl6U30STDKcjAkJ5T9CBw9nrrxIl1NM4dN3naGDmYVzOsp9li7qcTkw2ImGKL430kkCyAt1OZahbYt4e+d0OCEyN37IubMklPYC2KkebuZPrv6yUXkgX3W53UnAybJMDXW4iRB4m/GVWMMha47cEkQlqcd3MLB7qG8H4ZnTPCfhfSDq9d1z7mMu7Ix9ADY55d7I9gPHmWQwwFAi+aIalkdSCBCTGg4WC8L2eYicE1ERxMfJ7eMMhywOUUxpxHGOvm+ia66lK4pAgL5qn7nnAdkbzMWRvPJt25ji4DzoKmAJIlriuzgg3Fiy2GQgb3eJxHEWH6tozxvLmrvMFFULYwnwWResRCiPguXggcRapdwHxOPtLT3twD21hVL3Uk0R6UZX432j+PtIBVhW+AyWI1QGmPogFMcHY7mrIfHJOdotK3OG7FkIhFkPCaf6tqk4y0QdDbM7lXWCuPg15LeIpmrKlnPfIbvvulJPss9KIEcAO+kqpteJNZ03iBvBckhdjVA0hljOEYek+Ef0RtVaXuG8Qy9trlmKWQnkHrpvLU75RvAdOO88fKIhDmb6Efa3D5ZGfkeozefxY0p1gMfcAytNbY/Cm/o6kyoSibZCGdwU8sm1g4gqZOkpJ83xkiSXtEIi2zrS3mVvKZZgalAqCb2cc97XLJroLkuE+V2zcnEMQr30JbyU2UT1XT4RFirFltVrAA6/r5c+5b6pRRLIkciXp3A5F/lF3f4OTnEoqmTfjBLcgextPVxkKNnopK+5prDXCsomIT+SF48KQCmYrC+MUD5kivn5VLNxSga+YVfxGVKV1rAwaWMhfo+vit+eU7NW3wir0qVFInFYYvAxeWcqa7sdcOQrxuYcsF0SyLj7Kult6zxlaaJ4AjlQsOySd/A2oq5batcrofk2rRRJw9K147P2xjtr1HUTEUkRcSyFSKgDtxEHq8M111CrK2K4ArWtbSJ2biqFwpLE633R7ifbVvRFBFdCW1BVBHLhPnmhPqpFQn8KpaW/oURMkL7PNbnOltpQ3HgXlioq6n26I9DzsBzQv1XKEkcUie/W5RhbP6e0zo6qCeTg+rP66qjxKVgiIB+RzVTWiSQoOSzEXUPOFf12yTrr6gnU9h9QK27rRw91UeCkU08i6sM6jLVUbZEbNSgsx1DBPgEBWfklZd6rmlAGAfr6FNsE80hn8Tuo1bEM2oOf83tIyIOPUUOSBKzBZ1s8gdoONw7nmKbAqbTWWChC8aXX+RYxI5GkHMsUb/rQtupUB5aKDDp+zRItzaIJ5FvqWDJY7sirYKVStQ6xfJJGwPqRdiCHtWaB3KqmtCKux1oRNpPYQ3hPpGdF+W1hPg48VoWcjoaJrpxAgggkiECCCCQIIpCQAv8BMM/T1WWJgDgAAAAASUVORK5CYII='
p39
sS'version'
p40
VV6.0\u02b2
p41
sS'uni'
p42
V\U0001f319
p43
sS'desc'
p44
V\U0001f319 
p45
sS'browser'
p46
V\U0001f319
p47
sS'annotations'
p48
(lp49
Vcrescent
p50
aVmoon
p51
aVnature
p52
aVplace
p53
aVspace
p54
aVtime
p55
aVweather
p56
asS'wind'
p57
S'data:image/png;base64,iVBORw0KGgoAAAANSUhEUgAAAEgAAABICAYAAABV7bNHAAAAAXNSR0IArs4c6QAAAARnQU1BAACxjwv8YQUAAAOvSURBVHhe7Zu/axRREMff7GllpX+AIhb+zBX+uERFsBArRTsVbCRiFwtRAyoWooJECyvBH9gIxioRraJgQPxBxOaSwi7GShBT2ujtOLM7F0LMee/tvrd5j7xPsW9mOS6bLzPzfuycikQikUgkEolEIpFIxDdARm9Im43rAHCZbUR8rwB+kDUDqN5AfWI0+1CFeCcQk0427oKCs+LOQYLNkmBv6bFfJj0fH8ptp3gpEJNO9o7Swx0R9x/y6EoeuxbKW4FwasdaxBXj9IDr5daisFD0mSFX6ZfI6B2w7fM3ut4UtyNUr/bQZSRt9jqJJG8jqA3Vo1dUjw6I+1+yaEpaJ3Jx7eBtBM2BeFWsrnA0IdZecHrKrdJ4L1BS//QBFb4WtysUbXWbIvkfQTljMmphUyTva1AbWkD+pBRaI64WXJOS+sRecQsRSgRxgaEFohlck8rObuEIpPCdGEYAqH5sNo6Ka0wwAgG0nolpDCp1QUxjwhGI1jbZXqwAWapN9p0W14iAUizji4zmYHpKLCPCEgjUL7GMKRpFYQmEMCNWQfCQGNqElmLlQNwnljbLSiBeaJqm2fKKIAaxTywtAhMIN4tRArPvWH4RpNQmGbUISiCeqsUsDNchMbUIRqAy+6mFpM1du8XsSjgCKbVTzPJAbatYXQknxUD1ilUpQQjEJ4O6B/e2CUOgtHZGTCuYvGwMI8VAHRarcrwXiLcGfAgvbmmQ5kMxtQgggtIBMSwB02Jo4bVA0uVhLXpy0OjIxFuBssUcqpPi2gNxWCwtPI4guG26LegG1x9+UyuuFl4KlDYbT23suxZhXEZtvBNIWvCOi2sNfiMC0LojrjZeCTS/P9E+MFKkLcYbgfgVsStxsuhJ/lwT14glF4j3WVk/Iqh+uWUfUE+KNlUtaXdHfoCOl7r1IZahbIfHkkQQr3HyLlZ84FicWbqeF7cQlUZQtviDZJD+aMf2XpvQuudi0jMxJG4hnAuUi5JN2/vtbxs6Q9Fzg1LririFsSYQF1vElQdJktUKYaMCXEdfv8FlCnXCljiM1Qhyu47pTl5z1D1b4jDWUyybmTC9RUJZ3Ud1A5WaBsRztjvundSgPN1qj6o6R6bIGYakNWizgbyNE4Ha5OucdMBVcSZhnP5Og3EqUBsR6pitiKJ0ek6PXslPoioRqM28KX8L/ZfbdesU1xcamhQyU5RK912kUicqFWghuWD8ljPtoaXBKrkt4HdaVH4F+D1WpSCRSCQSiUQiEUapv8H5Q09kOFQIAAAAAElFTkSuQmCC'
p58
sS'andr'
p59
S'data:image/png;base64,iVBORw0KGgoAAAANSUhEUgAAAEgAAABECAMAAAAV8YMOAAAABGdBTUEAALGPC/xhBQAAAAFzUkdCAK7OHOkAAAIlUExURUxpcfzCG/zCG/zCG/zCG/zCG/zCG/zCG/zCG/zCG/zCG/zCG/zCG/zCG/zCG/zCG/zCG/zCG/zCG/zCG/zCG/zCG/zCG/zCG/zCG/zCG/zCG/zCG/zCG/zCG/zCG/zCG/zCG/zCG/zCG/zCG/zCG/zCG/zCG/zCG/zCG/zCG/zCG/zCG/zCG/zCG/zCG/zCG/zCG/zCG/zCG/zCG/zCG/zCG/zCG/zCG/zCG/zCG/zCG/zCG/zCG/zCG/zCG/zCG/zCG/zCG/zCG/zCG/zCG/zCG/zCG/zCG/zCG/zCG/zCG/zCG/zCG/zCG/zCG/zCG/zCG/zCG/zCG/zCG/zCG/zCG/zCG/zCG/zCG/zCG/zCG/zCG/zCG/zCG/zCG/zCG/zCG/zCG/zCG/zCG/zCG/zCG/zCG/zCG/zCG/zCG/zCG/zCG/zCG/zCG/zCG/zCG/zCG/zCG/zCG/zCG/zCG/zCG/zCG/zCG/zCG/zCG/zCG/zCG/zCG/zCG/zCG/zCG/zCG/zCG/zCG/zCG/zCG/zCG/zCG/zCG/zCG/zCG/zCG/zCG/zCG/zCG/zCG/zCG/zCG/zCG/zCG/zCG/zCG/zCG/zCG/zCG/zCG/zCG/zCG/zCG/zCG/zCG/zCG/zCG/zCG/zCG/zCG/zCG/zCG/zCG/zCG/zCG/zCG/zCG/zCG/zCG/zCG/zCG/zCG/zCG/zCG/zCG/zCG/zCG/zCG/zCG/zCGxEg+TMAAAC2dFJOUwAOEgP71AYBBP784eXr9x0FF/bV0xZhCvXbE/qpG/j9GrnIHAIwOd4oIsxf7dq4JfkP36Y7YxCUXj/Fh8/D7AhvDcERwG0LtXHYVic2g+qsSrAvm0MU59J/MVV+ISTNKXKSu+O+8QcrDLFUl5x95OnKSSoVul0fhmxSlZ8JcFE33J5go0Got1rgiCZZq9k+xGeLry60V4AeZkePLbMydRi95omtS46yvHjykJl0kaoz3deYXGuEa+aTYgAAArpJREFUWMPd2GVfIlEUB2CBIYZSEBAEA1GRNkDsWrtde11jze3ucru7u7vzfL5FkWUGhph7ebN73vLj4cydezn/maSk/6BEKYlx1F6npigRkOsbaL98TQCU9gMAdJ40fGnyu096/0GBDQmn9D5JfMmCLSVPwFLdWovd0idiCSIfYUsFxcstkX0mTEjQvwxBVj8HU1qj9UvyJyI86K7OD8HQfcxN+XIFgsYMvPs2Rq5AxEgulnRbGWjJvBoLcssCEPkaa70tkgAEEqyW0nV/IejCgtqCkDUbA1pVFYTkB3A6cgQhOChEhxTHKJBVjQ7t3EqBavLRoVN2CkSeQIc8BAWCSuRFyq2kOnAaeXNzjDSoeh4VeiilQVVcVKiJtkSQmozoNN+AxED53YmBeA9IOsRHPLZ5ZroDOWiJQuANceCMAAkakIVCm5AGgPpZqANHkBLkCBHqKHcgTWt7WEO6CyhbqC3MgQ0Ia72QE+5kNSEEo91kOCTNY+10XgWGMtSyPRm9KiZHuZGlU9QqZXLgLcs/o5slckZHe5EypBZiooopBzBXX/C5hOedmf6ZHpXRVBMRnKErlE1f4lux2V/jEZ6eBAWtFZkRGNCPUb/lXorNhOPjWVd92LjoKDtULIaI9WaQlgg9c/5YIWnp2uO2cDnraw/Xc7jj5bZ9zplMiFLDo/Tfnf9dGPiosPucqnG6xDDbwJfUFEL0kr4KvYLSdXpgXzJb+KhGkWQaHsO9Kf2sZOlIbTzmcf7OzsoZ7o0UQVLaU+NniJbRaPOqRx6n8/zO0+hZ9RqfjIPJNA7EDEQdLySxGLH13mA80+bx9ctRjgRoK+riTQxC136njPkKxeaTR1lFYc5iXY9qLmRWbNu+uWyS/eAR7S3XnDc0TPB9pcoxHt/S3rkLObsKRQKuKSPDlN2cwvsHX0/9AQWqV6MEC5SWAAAAAElFTkSuQmCC'
p60
sb.