ccopy_reg
_reconstructor
p0
(cemoji
Emoji
p1
c__builtin__
object
p2
Ntp3
Rp4
(dp5
S'emojipedia_url'
p6
Vhttp://emojipedia.org/first-quarter-moon-with-face/
p7
sS'index'
p8
V597
p9
sS'code'
p10
VU+1F31B
p11
sS'apple'
p12
S'data:image/png;base64,iVBORw0KGgoAAAANSUhEUgAAAEAAAABACAMAAACdt4HsAAADAFBMVEUAAACugCDQrjywfx+1iCGxhiqxiCKtgSCzgh+qjA/FoTG+lCu2iSO3iibYt0rkyGKvgB+ufCDBmSy9kibKpze6iCG9lCnAjyeufR+2gh22gx+5iSW4hR+/lSixgyDElza8kS+8jSndvETEmCirdxnDkyewfR2vgCDZtju8iim2iimveh7AlS3FnC7FnCvIpDjLqj7KozHEnDHLpDjKpTK7jC6/libHnT3Ss0XGpDrexV3SsELav1rBmyzNrUjUszj863P87HD76Wj65mP24WP25Hj973ny3XP04X/13Fr56n/z2lj442D652zetT/15IHx3Xvy3G/7623kwVLw2Wnz3nj36IX25YP15Yf97Hf55WL35HD04YTw3IHLmjD652bfuUrt02D143zv2G3szU/x2Vvy3WLnyVbr0WTr0mr04XT36IL44V7231zNnjD97nbw2XXet0Xv01X+8o765WDjv0zv0lL35Wr24Wf98Yn86mvrzlzy33/y4Hvnwkbt0E/97nPv13LhuUDoxkn97WznxVD98H7y3Wr76GTsz1Tz4G/67YbpzGP45Gf353r+85L35X7143TTpTP77Yroy2rx34ry1lbGljDbrjnqyUvdsjz88pfqzFTkwEbivETYsUn46HDWsT/mxVn354zhwFfv23r67X/t03fZslDiwGDs13zSpTrXqjr13F356WvlyFzx2GL14Wvt1mbRp0L77Hz56YX66nbjxWXlvULasULBjSbjxVf564jgwETgxU/evF7kw2f78Z7p0nTevFToy1zs03D67pH+8YXs0lvbslb77Gj87oTfvU746HXoyVDTrUb02WD26ZLXt1jx3oXIlyneuVnWvWPaxHHQuGf06+GfkYvnzFDt1ln26GfXqU3Ns125kDzIo0bFrnuxm26diFDg0q6SdmhpSkKHb1S5q5z69e/o3MDJuH0rHBh4Zl87JxyrkXzGrnHm2sXVxJjk2cOnjmvy5Jj36qNzYlgeExGYgXenl16Gdm5kUTPLtHFSQT3hKBD1AAAAQHRSTlMAaMxHEwYPCjUDm2WFK/z+G3E4JLPMSO+Fv6/bm4Ja8L7F/lNj+aV48/mnTtHAk72f+ajppa5w/O2Q9sPheJ/YBpGU8gAABc1JREFUeF7dl/N7H1kUxtM0adokTdokxdbedrfGdr3ztW3bsW3btm3btW1ba2vy7B+Qmf2x55lf3889c8+97znX7H0Oy61fWTuZm5vvs15vs/R/EdZX3NZ2JMaxFdNDo5862SyCT/hkiz+AFdR2d8d2izrb7A46wCbYbNGmUMpFGZjUdCUxUX9632K4BNuRdoofJdGYgTFxuTRcm521BTzAkj268/5+5XEMDCadxxdzGEOHVsIjLDuk6xCJzhhxDKOSW8U3cdq6bJfAInxc0ZmYkZGB4+BCaCZeDy+i7dwRK1iEzSw2DpfBUbrT6cr0Hi7e3b5sEyzCwnPJETgOBx8cTKeL8VyxuAYkWMIhbKpWcUJodDpIqBHzqi6IZ9rKPoK1C+cMdHwPTRkSDEJofD4t2DDUtRwGwGpjMh0v5vPFYjEeT6PReHxJ8tRROEfqyBi96kKOpE4i4Vfx+XwejefeVrYbxjYsH8vJmbxypS97sq4muKqKy8Nz9KyuD2HU4eKl8bt3T/RNNkokkkYxHwTgguQboR/qpRfrTnTV15fVT/U1/nypLpibnmrUV3ethgWoP9EgyWmstuvLkcyEpGMYhkq7jZANYmVf3djYlauP/3j9S87UVGNNhFKJUU1XNy2A7AqTdQ3j9Y/fvHv317Uc+waQgMewk6vLNkMFfF2TPT5+9Plv/7z99cnfk1P2M+4hRoY+Rp63DKInfInPzm64//zN25s3b7x6fdVOz1Yx4pIrPaD+g4OBAwIe/PTs2e9/vrzx48MH1XqVsXN6SN4M8Ubsp7vPzGQ3PHr67dMXL298//B+fbIBx9axTg+shaS3+NwU4U5zN9x79O2LV09++O6eIVnFMBoVOpZHHiRf+KwGFxHSo4zgXbt+/frVa7M0HAaMVHYMS54HxaQd7bkqHMfUk26anZiYyOJilMRTw8NJGHYxS+66EEIJvqARMaoIU1ZWVi2RSExNTUoKSCuaHTayg1hy6Yb59ftVRKKRrcKlJ4ExnJU1m+blVTRRNMyIU7A8pPPW0fKwgXhGFNdZmaxSpnaDS6d5gQAwA1NGXJB8fsASp5oioLe3l8iorNQzUmsDjgUEeIGfV1JtR/txsArz/YLFgUsXygG32LQAxelKPVvUKzh26thcdAP+IICaN+8mOlib242O6oKC5LpEhaLdX4AVxMZ2x2LdKCntxfLCQWjG6Li1woeVWCtqjxMBgBtWgAXcwin+Ch01f5cVRD8Y1Zb3dos6tH5+FAQQjggPb/XTHvcpzFwL0Q+civ0oFKC8A33en8lkIhAIij9aUXyaKt0B7TbvvXW+VZjCRLSiNVo0MjA6OjCFrD2ukzfnbYMEWFyhLS9PQaf4oYtLYzQyFCUaiUK3JMR4NA1CNJSDFSVRCQkJMSXU5kg1yVmGlHm7aIpZHk0roJqya2FpaWnMWS3ldlQCSRgfjyITPM/6DEih9sfdCafOoLV3WmXRZFKL8GS8kEzIPetDbV4F1dZtK6aDPD01BFQ06iRS6E0WupB8YzzyXSE3FotBaX5JQa5zIHJu9XhvoTNJ7TPQtAtya7ORUtW+JBmKCW4/WUgmgwkUlA5IoTfXPSW5LUIZMpAZiBKC+buQwgpCS5vWQm7vjltckEhQjkDIUODyhFzfgtB+6nboA8beMCGSCZ5/gMmMJzsTSL7qgn6qK/QRZ9FOgowZ7obFIgJlZGcXgq86KjTSdQeMmf+WjIkQYMMBEODt/J8+8wNL6KPuTgKTKcBi3RBIJMqZoAkLiwL1MAZNa00rAMwBAoVg/XI91VFU1zUw9A4j6FZAACAoMiEKrL9a3Z8vhTNsW32jlQEAQEGi0S6evmD9qZmrFprBiMNhoBdRUtAtc7mHhkY2X15nAevNFHUHVKM14NEp6Y/Mz7z8Abwnz9YRNLpF46kuiCopBNXb18CTm608MFIyEkktLMx0vTy4as0C2M8+xw226zavAGPd6m1Lzd7n+BerZWvysEWnuwAAAABJRU5ErkJggg=='
p13
sS'twit'
p14
S'data:image/png;base64,iVBORw0KGgoAAAANSUhEUgAAAEgAAABICAMAAABiM0N1AAAAolBMVEUAAADM1t3M1t3M1t3M1t3M1t3M1t3M1t3M1t3M1t3M1t3M1t3M1t3M1t3M1t3M1t3M1t2mtb+ZqrWZqrWZqrWZqrWZqrWZqrWZqrXF0NjM1t24xc2ZqrWcrbizwMmmtb+/y9O2w8yjsr3J09vG0djBzNS7x8/Ay9PH0tm+ytLCztWvvcehsbu8yNHL1dyltL6puMGwvsefsLqsu8S5xs7K1Nt8mthUAAAAGnRSTlMAIL+AYABA359Q748Qz3CvMEAQ359gQDDv72MB/18AAAItSURBVHhetdiHmpwgEMDxxQainqaWAd3erqW//6vFbHF00YSZS/4P8Psoeycw80wEQRiJeLpZ7FkCbVKlXAiL4JTOBA/CFFxS4mVQLgEpBoQl0KVDBoQpwArxAijXgOmUD8Uh9AtZEA4JUzwIh4QSG8rBlRAib9y9Mfe4TjwohTbTBpdSJhTrG0gLJqRwaucKJhTBbSEPEg6kBQuKpSMpHhSAU8KCQhdSLOgO3AQHSsAt+1eQZkNNbW3doJQyoZU9tcLl5kGNvdSNSTIgBVBfoRr3jfO3trZdHRQRobyEcSijQXcaAEanFlCgRMI5d7FBziizuobbj3lDeYEO/iAZUABuLAj+M7TZGbPbUKBy3DGnNgRI6DFod4Z2BCiuCtd5NpcQ8inS05CkndjU5NQC4kFrcrEzGhRObn/EO4y6CRKUOQDvX+2rxXoKUhTo9Rtrv80fmubH4qlpWwDzc/TWDlsyP5Dvbpz5mvfJfj9k6iXzEPHhY59Zfd/2nTL2hqpPy4f5vLb28fHzl6+mbc86aFUafncwvQ6Mo19yduDYh47kwyieiM0g6vE4VzAOEQ/siYQJ6CflCoHDcSHCpSYPNSrOYntfs8SAcbff8+KXluC2R2frcxWtohIHM7hUba/OHp0xqErSMAs6BJcYZ3dap+PhL9f1FI1xyPsBQRSAuVOjPGngVrnRHlmEmgQ8nn1IVJl4P0SJTLsA82ksVdJBuI91IsqCTpNB9sfnw18OO/Vta1F3OwAAAABJRU5ErkJggg=='
p15
sS'gmail'
p16
S'data:image/png;base64,R0lGODlhDwAPALMPAB4YDZZoAGed0zBObfq1AP7RAGFPB0VtlVmRtlMyAGy97yQ5ReZ+AMOdAIfg6QAAACH5BAEAAA8ALAAAAAAPAA8AAARw8EkJkgUzP4COIQQTYNniKMLSFEVIbqcgeCzLkIIzDykRrD6YbLBQDAiGgA1gGhYHjSSLkBigdqnGb5ooChCzhZLQaiUAqEXHsCpEC7cHQnFYHAa/AFtEUSgQAwBJY3ESXio1LhpMASAhIxoTFRcaEQA7'
p17
sS'related_to'
p18
(lp19
V\U0001f31c Last Quarter Moon With Face
p20
aV\U0001f31d Full Moon With Face
p21
aV\U0001f31a New Moon With Face
p22
aV\U0001f311 New Moon Symbol
p23
aV\U0001f312 Waxing Crescent Moon Symbol
p24
aV\U0001f313 First Quarter Moon Symbol
p25
aV\U0001f314 Waxing Gibbous Moon Symbol
p26
aV\U0001f315 Full Moon Symbol
p27
aV\U0001f316 Waning Gibbous Moon Symbol
p28
aV\U0001f317 Last Quarter Moon Symbol
p29
aV\U0001f318 Waning Crescent Moon Symbol
p30
aV\U0001f319 Crescent Moon
p31
asS'name'
p32
Vfirst quarter moon with face
p33
sS'known_as'
p34
(lp35
sS'default'
p36
Vemoji
p37
sS'bw'
p38
S'data:image/png;base64,iVBORw0KGgoAAAANSUhEUgAAAJAAAACQCAYAAADnRuK4AAAMZElEQVR42u2dH7QXWxTHfxAEQRAEQRAEQRAEQXAhCIIgCIIgCIIguGsFQRAEQXAhCIIgCC4EQRBcCIIgCIIgCIIgmLc+s9a8NW+/fWbmd2fmnH3O2Xuts969r/tn7pzv2fu7/55N4+IyQzb+ClwcQC4OIBcHkIsDyMXFAeTiAHJxALk4gFxcHEAuDiAXB9Di8vv37+bz58/N+/fvm1evXjUvXrxonj592jx8+PB/68mTJ+2/v3z5sv36T58+Nb9+/fLdrwFAf//+bQ4ODlpw3Llzp7lw4UJz/PjxZrPZzF7Hjh1rzp4921y5cqW5f/9+8/z58/Z3ObgyBlAHGLTG1atXFwPLtgtg3b59u9Va379/d6RYBhCgef36dathDguYI0eONKdOnWo11OXLl/+zzp0715w+fXrWz+bnPHr0qPny5Uv7vC4GAPThw4fm3r17zYkTJyZt5JkzZ1qthLlBQ719+7b5+PFj8/Pnz61+LxqF74M7PX78uLl582YLvKNHj056DgDJ97lmSgAgXjonGTAMbRLahI2Fl7DZkOZYxHxvb6/93TzDmGa6ePFi+/V//vxxAK0peD63bt1qiau2ETs7O61mefPmTRSwTJWvX7+2ALlx40b7nCEwYR4fPHjQfr0DaEFuAyAwD6EXf/Lkyeb69eutVuJrLW8A3hnPiNemHYTuMFy7dq09MA6gGYL3MmamhtxrTAMnen9/f2uOE0N4JngQ5DwEJDTut2/fHECHkWfPng2q/G0W5BYTRzDwx48f5l7ikJbl2XEUSo0trWrCcHl3d3fbk9gtgIBLjHaa6n3Jk43Jw4OzJu/evWsuXbqkPjd/KwfAAbQS0EgxQFbv3r3bAmxKzAYzhytuLS6D2cXV154Z/oSn5wCKILjvpDCGSCsLHsLptgYkwI2ToJk1whMOoIiCaw9IMIEhIPFvaDNrz41WDWkji5yuSABJk0faQ9NKnG68I2uCWdMCk/w/cn8OoESuNEDSvD0Iu7XoMNqI59UcA/ifAyghV9JIKyTbYgyJxLGmPYnE55aoLaYikRdPyEBqI4BlMbqNGdYCrfCinPJqxZW0EgGXWXVqe6xGs7W4Ec6ApXxgVQBCCOhJEBFbsniyeSZyZxJE58+fNwn6KgDUgUhuCikFq0L1o1Z3ZB1ERXdlwInkpkC4cwKRdU1UNIAg1pKosiGWPR3qjiSIrJrf4gHUkWq5IbjRVgWgaJl9vDOLwK+isRCtk5MWIr2hRa0tcrgqAERhmtwMi+UgfaGiUQs2olEdQJGF7g25ESQ4rQumVgZGAZWlwGgVAMKLkRtBmUUOouXOcO+tmOBqhitonCIXT1JyOBY9/w6giEJiNUcAIZgsWaGJRrUQ06oGQJR35AoghMpMLciY2pRVAyDNEytBi6b2yqoBEG1GuQMIkyWdAbhdysx9NQCinjp3ACFaviwloa4GQDT/lQAgQhKSUBMbSjUppBoA0WJTAoAQUhryb0EzOYDchE3WQrJgDm6UQgs5gArSQimSrdUAiPExQwAinkLLMW4xX9vv4+8WQ6cgrLRhp67PYeqH9MjQSrGHOFQDIC2nRLKSqkWAMtQ6HZqgRmggZSAPQMvnYvSfA2gFQYOsMc2VSSGpQERcKHWitRoAaUMOllq05qSaEqINuIqZI6sGQFqB/RQzBTjQMrTekEoYAmKKUlmN22GuHUALC+RymznRJCrRKppAoDnl8I1+fipFkRrEX5JphlnFSm9UddmKllAdW2TBx6SbQMvPTyFavRBVmA6gBYVGw9BAzLH5jNab+7RSD9qDHEALCEMM5npgxH0sC2ZMG58cg9QXDSAI5hKTYq0DCNEGlsYovi8WQBq57EwSXhWpDYCh1Qml2Ii5wt8knzvGVNhiAcSYOy1eI8HA52MXvOQw9Ek7CBB7B9AhROtkgFRqQMAlH7qlZ4oXZkFolNTuPHMAHZL7yIKrIU8qNEWVGE8uI+doh9ZM9toeZHEAIsAnNcrY1FaCbgwv6H8P95LlMOCpL1qYgvCFA2iLUygbCHmpU0oc0DSYAYhnrjftyEPAWnugeTEAgstobS85uOBLiVaysnZ0vBgAabUxMZOKVj1P3osDaEvS3HkgtV3frTUOELpwAI3EP6T3wee13BjYF8y1dhGNA2gL8KQo67QiHBotJ+YACoBHi92QOK31XncK7bV34gASQvuKpnlQ17nFbpYU/nYNQGtywawARMBPG4PblZ/WduW2uqHKu1nz4t9sAARBDN0CDXhKvx3ZATRDLWulCn031cHjANrKNe3qeugSzelqJAdQAoHXaIS5pJuPHUAri1ZucZgsM+Yw1RydWE6GBqA1/+YsAESWXdb8cp/ElN4nXh5XSfavxOTjEjVYKA60ZlwsGy9MmzYPEOgGxczx8voLgBAvCg1NyKlYbKrQgeKBxAHRss1z1trFVhYcDk9lCNEy71MWKQ5qY/o1Q1QdliRaNp7YmQNohiYihnRwcPDv9/JxzJrh1O/FyzkCwtRVrZmOxRAFYkRaakMSTctXYG4rWu+/F5SNuOV4WBBlwESeDGANBRdlH3lJ3piWJ/SS1hVPKFWLJXliWk24F9UvqK2kycPtLUm0Bsn9/X0H0BLChLGSxvyOcbtYff1VAEibEU3rc0mCptGcibVNdPEAIlgoVTufQ7ZLErxO7arwtaV4AEnew+elRaAR4j0SQARdHUAzROaGqJkuMRtPUlkj0DG6cosGkBzEHWNeTiozrRXcxSi2KxpAvMC+CSu15Ue7eGXtFEY1HEje8MeL5UKVUkwZB0JL6YyNtHEAbREfCdUEUSoLL5Ir1uldQmRyOHaKpoo4EBqnD5Cxm3nW7idf23zFvHClqlwYQgXj0EzEnAAESORArRgJ1CoBBKFmXtDQ3GhOLkQ7xZ0XhxEt+hw7x1cFgCjK1wJtHammxCNHUk1FpVbrHVOKBxDA0FqiyYXlXEwW6pdbu3yjOgBpWXiK0GJdhxSTPPudqSuIHH0bIz+0toTuPksxE7JoAMF9ZDNiCZHoUGdKv3nAAbQQ/wnlwjBhcCASjjkRaJ5bi2OlyvNVZcIgzvAf/tsnoHycy1xFre4nZXdJ8QCicGxqD5l1EGGSNe2TskGyijgQkdmpF8+tXYQ+R7RJ9KlHGlcTiYbr0KWK+4sZoOFOAxUn3CIn4h4P7XlT1zhVlwuTm6KZBABmSbT7z6yAvWoAIbJeqCs8y8FttxDTqh5Ae3t7prPx8ButeoAcnoWYVvUASnG/xFQh4hy66z5F0NABpIjlpsPQeGNL6ZjqAaQlW9m41BK6CwTTZWm0cdUACpVExLhvfUiomtSeiwSqtXE0VQNIm6fDTMGUJxxuo2XaWQwatSbVAkib+pqaX+BxhaauEQC1KFUCiOCbVoyOx5Oq0Iz2I7SfBh5yXVbLUDY1gid060+qG54pgg89EzXOlu8DqQpAnPLQRlFYn4rzhMwWz2p9imw1AGIAQWijdnd3kzwTc51DTY6Y0xyusSoeQKh/iHGonCMVOaV3PfRMOV2gVzSAhm457DRPbHKKSdKCl/3JsTld3VkkgNiAoS5U4iwpYioECEOeVlcFELstxwEkSDJtyUPDE1JckYnWCV0W3C20Uo63L2YPIEwQZahswNDQBE4+pDW2yRrTOl2jY67tRlkCiJMKaCjn1AKCkpDiosc+3XRJ7OzsjD5b7gM/NzmAhc1gxg/F8ZigsfEsXRMhxWKxOQXEHW04VsTP15RwU1BUAHUchTJS6o5ZbDLZb8oX+By3Gr4AoRzTLlrshO8HcLFNAhqRZx4DDvyMv7mUWY1RAaRdBjJ34aYDSgrkY28KfVrEc3C9pzwrg79Lu6s1KoCG7viautgsWnIwaSk2A5OKxqTobGqvGc9ssRQjSw6EGeMkDr1wOA7aClOGWWPDMEup3FyAChEnKz6Ff/VNKt9X4mjh5CQal3qI46Cp8GJwceEMaC8ChGsSTzaazDjPBnAB+rY8rPOuaJPOMa6TlRfGC4Y8b2vWiKtwuil+h7iyMCm49XKRrugIe3/Bm/h3tAqeHT9vqkkKLbQm2rJkjWPSjeeFw2nYyLmbGHvhVeFVpuxP9ziQ4Bt4NkxMtQomcmlor7H7WR1ABsAEl8DMhArNYyyIM2YS00egsHbQZAMgaeYwE3AmgoUQ7FDX5lyw4HajYdCEDphCADQkeGaAi1gLJJaN78gy/EQj192YFzQcCU+AggfmYKkQQC4OIBcHkEuN8g/CtXHTAdK+yAAAAABJRU5ErkJggg=='
p39
sS'version'
p40
VV6.0\u02b2
p41
sS'uni'
p42
V\U0001f31b
p43
sS'desc'
p44
V\U0001f31b 
p45
sS'browser'
p46
V\U0001f31b
p47
sS'annotations'
p48
(lp49
Vface
p50
aVmoon
p51
aVnature
p52
aVplace
p53
aVquarter
p54
aVspace
p55
aVweather
p56
asS'wind'
p57
S'data:image/png;base64,iVBORw0KGgoAAAANSUhEUgAAAEgAAABICAYAAABV7bNHAAAAAXNSR0IArs4c6QAAAARnQU1BAACxjwv8YQUAAASqSURBVHhe7ZvPj1RFEMe73uKF4MVoIheCXAjIjlHD8ktuhBthPQHGCxFNuGBilAvEgwECcoKLCT9uBrytBE9qgolxZRYNySyGI2pi5ORfwL6yqt+Xzc7Mm7f9fsyb2qQ/h3lVPZtsv+9WV1f/WBeJRCKRSCQSiUQikYg1CM/W4Edvb2KeOuKYtoq3TXqwgRx18PUyzDyfWfTYEd1Ppu/fyPx2aU2gdHHmM3kcFDEOZC3lYcc/ykc36SycRdPYaTWC0t7MOYmG9+SXvoamSkh0/Sddn6Pk2Re04/e/0TwWWh9iSqNCkfs6mV74GE2NMxGBFJ+L0nWfE7kP0FSZLF/xp0nnwa9oaoyJCfScdHH3CcfpJSJ6CU2VQDRdlGi6jKZGmLhACma2u3mzWVlEqPNNJnETAilWRTIjkGJRJFMCKZlI636Sjo2c4bKk7O5J71+Uuuj9UfmLHX1Yt8A0J5DCvZlZKQPm4PbBzt1JpruzcDEbTj3ME0kTNyVLb9aplRI8TUGdhW+Z3U24fRA9OwXTg5f/KvP6UdFEvNtwK2FSIEWrZImWJ3A9OrTyokGi5BrMIUSkvVjmVMKuQCoE8y24hejPDorZD52EURqzAik6C2kegVsM87+whtCE75c3FTAtEPgeTx0vG2Eto5U4kvrQd33I2g9WKUzOYitRAcjxdbgSKOleStJ/pBS4Kp0/jOYwmN/VCQBeEPYjiJf+gAXolJ/Wy4ojSJ46AjMY+wIRHYXlkVnp6KjCcFWIdsEKxrRAPrdIpQy3Nlmy3rkHbhBmBZLa5Yr8xecqR8soiN6BFYQ5gfQvLFPyL7Jg7auYG8MfFoRjSqCs4qXvtPpFU/OQexlWEGYE0kJOoubLxofUIMyvwArChEA6rESYM3BNYSSCktob9+PCiED8FEYuxQvR8WJCIL8olaoH7jIqjG6dEvMnaGodM0maaOmQHi3r6h3P88l0d4sXj5JSM08x9BhGEOYXq0ra23WjiQNGRcS/WuYk1kwEFbJK7ZJFnbsjL39aow/NI0gWYQSxNgRynHvC4XOURIRuzOtGvj9VZfoLX+dS9pTDvEB6ajF4TiYRM7+co2S49O9T8zYYQ6weXcPYF4hfOOifSNy6YSaJe1/eoaDfXCtaprDrwgrGfJL2EZRzkjFI0fmYonmqyhmZ+QgKEqc3M+tPY4vWcUQ/lxVHWSNJejS6byTJ+qZuhqEpH04vwSrFmqiDBsFw+kiiIuiWmgyvbyRnHYNbijUj0ApRdsgb7w/dFqmae55jWiAZPj/IzLNeRNkYEil5aPFY59aZWYE0t9TddtXqeuVNkCqYFMjPSpp4a+wuSuT0JHLegFsZc7NYU+Lo7gDcWpgSSPelmxKnalIexMQQwwylV4H7TlHLIjPWvMxYx5oSR5m4QA3euq9c6xQxMYFwgfy4RE2tMzAZkk/kNS6M67+BWhcoixh3qO5VXy0ApftzSad7Ak1joTWBvDDOnayTgBVNwvJxV+8lNplrRtFqBPmbFVki3i4v+VaoWJp8pae/Ebt7ZS9A1WViOUjJBJt6XXLRZunKq2gW+Kmj5E+9PDWO/+CJRCKRSCQSiayGc/8DUxX34iRxH/cAAAAASUVORK5CYII='
p58
sS'andr'
p59
S'data:image/png;base64,iVBORw0KGgoAAAANSUhEUgAAAEgAAABECAMAAAAV8YMOAAAABGdBTUEAALGPC/xhBQAAAAFzUkdCAK7OHOkAAALWUExURUxpcfzCG/zCG/zCG/zCG/zCG/zCG/zCG/zCG/zCG/zCG/zCG/zCG/zCG/zCG/zCG/zCG/zCG/zCG/zCG/zCG/zCG/zCG/zCG/zCG/zCG/zCG/zCG/zCG/zCG/zCG/zCG/zCG/zCG/zCG/zCG/zCG/zCG/zCG/zCG/zCG/zCG/zCG/zCG/zCG/zCG/zCG/zCG/zCG/zCG/zCG/zCG/zCG/zCG/zCG/zCG/zCG/zCG/zCG/zCG/zCG/zCG/zCG/zCG/zCG/zCG/zCG/zCG/zCG/zCG/zCG/zCG/zCG/zCG/zCG/zCG/zCG/zCG/zCG/zCG/zCG/zCG/zCG/zCG/zCG/zCG/zCG/zCG/zCG/zCG/zCG/zCG/zCG/zCG/zCG/zCG/zCG/zCG/zCG/zCG/zCG/zCG/zCG/zCG/zCG/zCG/zCG/zCG/zCG/zCG/zCG/zCG/zCG/zCG/zCG/zCG/zCG/zCG/zCG/zCG/zCG/zCG/zCG/zCG/zCG/zCG/zCG/zCG/zCG/zCG/zCG/zCG/zCG/zCG/zCG/zCG/zCG/zCG/zCG/zCG/zCG/zCG/zCG/zCG/zCG/zCG/zCG/zCG/zCG/zCG/zCG/zCG/zCG/zCG/zCG/zCG/zCG/zCG/zCG/zCG/zCG/zCG/zCG/zCG/zCG/zCG/zCG/zCG/zCG/zCG/zCG/zCG/zCG/zCG/zCG/zCG/zCG/zCG/zCG/zCG/zCG/zCG/zCG/zCG/zCG/zCG/3DG/7EG/3CGyssL//EGywtL/7DG6KBJIduJi0tL4lvJu64HNqpHr2VIfG6HDMyL2RVKoRsJ+GvHoVsJ0tDLOy3HU1ELKOCJOazHT46Ls6hIEpCLDs4Li8vL/O7HO23HHRgKMKZIbOOIvvCG7+WIXZiKN+uHn5oJ8+hHzo3Lva+HPe+G2taKfW9HO+5HElCLDk2LrWPIkdALS4vLzc1LsmeINanH0Q+LShWizoAAAC5dFJOUwAW+vkD/Pv+AQLz8PUJ/QTbzOkYTgYI1g/x4nmVolScb8koElZbB430bgoeBVUnggwQTMBzsOWvnpA2FXbcxxzPoOFfg4ruzfiblMEl2Xf3Kpp6GqrDWTDSfSTa7JdEfIF7a/Y3LLfGK9W7OhumjG1yut4fpUOGKS60UtgUV1yAyHBRMhMdwiKo62pLkzGYnSFF6mlK5D5i7c51F+94C5Fn8nHmiNDEYEDUOV2jvOC1yjNN0+eFJpI/t+gBtwAAAy5JREFUWMOt2FVbG0EUBuB4iCDBQgLF3bVIoTgUKO5Sd3d3d3d3d+8kBK+7u7u3/6CUlhLZzZnNci73yb6ZfDOzczYMBl4xC0JCT3MY9OvYScQ+EZAjoA0xj6LGMkuaQ1vKM/kjodREb5pQx8wmCHlGONODBGnoX61bSS/0SaxmacdWdzpQr7bNEJLZGtOZtz7/IbSNjuQe3gIh4SZrw6U2ahDauEbQOhBatayVINR+qYEOp0AT4i80MCaXEE0IicYbuEditCA028IgaAFbG2I5GhngGA3ma0MozscAKF+i4yCelwFDmszWhVDhTOpzNozAQUJLytB8ogEhtNiKorMok9BB/QZScyzGETtUf1u7JVwSiJ9EZd6YDjxEVmGB+I7zXHIHTZiFyxi7SpCeSpmBx5j2dBD9vUNRpSCCxNNxthezc6fmo6Py6tOXRBCvO3QeOrsGDHKStdzRUP/iLdG0ddPvTAwYrpVwnerXTyWB5KH/sTpae+Eon3//1vCOICY7vZBNe+3PKz6+V72p/VClUCgqKUCmI3W+Wfnja/XnV09uP7pxUeN6pP6MRpnrSM++fKquv3/v5vXL52vUwu4CrB8vmW4crx/feVCtUl26UNVyjesITL/VEN0xKR/evVV37UrtObXMe9iD52Fwqo6kUNY0Jq2RtigKXtj+aZ4ILDOcg8TbKwWEetvgbFnfZD4EJeN1N3u4gCO2x1Cs/Q/sAiMaATs+Bw9ngxHFY/S3wR3gOfP0w3nkH4KhqUyQscrZ77cPcrih4JwZl8qzpVITAJKWgQPaK4J/F+JGw4toPYaDnGLh8yMXwxG6YTQNEtjhO8CvgBxbNgzF+cPNR/Q82DGHGprAvisyMNa0cLspyQJcnWjv5jita0T/BBOMoFk7yV7YXM15LJYJjtHkbCF9nkUiCiX2CCKNpkiM76zN2kyecVA8F9cpd/PVN1sbPERYDDs8Cug/rf2c+LATM9QF3hixU8wAZrndWLx2eEyeRE/o8vQBvvg9vmV6iZBIqcjIKqb2nwgn//ipELlMLS9eRXmY7VkbBvUSBBUXleYe2S2VJ5QUhp0JDS6D+/vfWNhGfHJVrzwAAAAASUVORK5CYII='
p60
sb.