ccopy_reg
_reconstructor
p0
(cemoji
Emoji
p1
c__builtin__
object
p2
Ntp3
Rp4
(dp5
S'emojipedia_url'
p6
Vhttp://emojipedia.org/last-quarter-moon-with-face/
p7
sS'index'
p8
V598
p9
sS'code'
p10
VU+1F31C
p11
sS'apple'
p12
S'data:image/png;base64,iVBORw0KGgoAAAANSUhEUgAAAEAAAABACAMAAACdt4HsAAAC/VBMVEUAAACsfReoghObbA6edRCXaw2ZbhCZbw6Zaw2WaQ2gcA+idBKwhRy7kibBoCSyjxqneBOXaAybbRCgfwCabQyrhhWphBmxjhynfBSmexO5lh66mCDOszW3lRzKrTKWZwyXZwysfhSkgROxgRixhxundxWdcRCdbw2idhCqVQCkfBGnfRGieA+uhhWpghW/nCq8nivCqDGugBagcQ2lfRLBpSm3iyHFpif863D87XT76WXz4YD973nz32/15ID55F/04nPy3XX77Yb25Wv663345Gb04nzy3nvu13Hpy1bw2Grv23f04YT652TXrzz552rv01Px22715IXw23376W3z3F/q12T033b14GHjw1P65WH2313862v46oToyV3duDz76WnctkXox0ngvkrLnCn44V3862flwkT985Dw1FX24mDt0l7231r87WzUqy/YtUT24Gb354Lmw0zszlPy2FbivEHSrjn36Hr243f25ob45nXmzGHq0GTgwF7kxGLu13XClCL02lj13Frz3Wfv1mPduknx2Vz45m7nxFH985Xu1Wj87ov46Yr25Hr775Tr03DevFLQqDa8jx/DmCbbszbMozHXrDf97n787Xj97XDbvzv25X3z4Wz25W/o0kjfzVPq1U/v3l3s1lXy4mf15ovkxFnbtFbz5ZXnzGnTpjP973bOoivJny3gx1rlwEjnyVfkzk7s0mzRpEbcuVzYrk3atk7rzE3bs0Py3n7fxE7q1Hbp4Na3hhnr1nzZvTP+8YTs2GrkyU3RpiyIdGv985z+8orgvT7x2GPu327guUPgxUTv21Lk0VPVtzzbwUHw32Pn0mXtz07dw1fTuC/VqEzw3YLv2oT16JzazJjEpGF4YFm/mSXJqDHLriT45n/hzEDSry3m1FzgwmrAsKO1nlzOuZGMeEqbem4yJCPo2pguGQ/z7OM9MS+soJn//ff89u5iSEK/mxrCmT6vnY/Osm706K5SPSzt4KuhkmLd0b3k170dCgvczLPLsWenm5YDslkGAAAAOHRSTlMA826XDEISGiFftsXw/e+12m+jBCiIlaW2quTX/sjzSnvoS/7U7W6JYAN7zjerLqrG6MKoU9v+/hlrx7gAAAXBSURBVHhe3ZdTmB5ZEIYHO/8go2SCySCaeHeTZdK/bdtj27Zt27YV2rZtLI1ne5K9n+69zHdfb391TnVVHZ2PWkYb9FZaWNjbW6xaoWcEF7DNYKXtbbvakweGTw/f23vnU0N4AMPttnZnT7e01dc3kNtami99Di8cscL87LDsOJZAwNaTydLWWuttsABbbc40yYg0XAEIIFPbWms3fgLLvfXtGRkDjauLLsCyGrKCW0+awzpAA9PIoePomBgcTSgkxjY0nDvQbwwn3nhX5AA7BBSNSCQSYglpD86shhO/2SwojoHLv1tAo7PptGi5UDZjBicB41tBcWx0DI6DptPRaLqcyBiK1IcRv9YsaIDRni8STYunp+l0Go2YC8uAkSlPWYTmtIvA709P02haHDs+yBqGgSUlbkUcEQ6Ho6HRHI5IJEKz4ypgXMHSsqA4NA4nahe1t3Ou7hFzurrEF80MoReQaaSSQcdpY9o54qSi7sSxzodXrwxshG5gWX+GTC4PiRGxxVeuiPd0J1we7Sy6CL0Ilu/idbAKaDGcpKRrXbOJxRMT46OjCcUrIQP0+10cc+UFNEZS19WE4iIOhzF++fLYRcgAhGlkcTyxro6d1D5bPHvt+m9PH3d3diYMrIJcg2ZBHbmEEHaSeE+HeM/Tly///GWscyzh/BdQASYVGUNCLI3NSErs/vvJoZvfPX99Yzwh4fwaBNQMejIc07Gs/fvjJm789e6fN4deP78xnph4fmYDxC5QWpnh6EcQxjuOPv791ds3oIWbP00kdjs+gHgI68qm3LL9sKz4jh+ezL16O3fo2bMfHyaOMOJkEHNY1h+kZBKiscKRuNnrf8y9m3v06PpIEY0+ImvSg/YfVWSE+kWDbTCaEJ3f9eLFrz9fiyEStThGvOxLSB3VssQl24+g1eaTqqKiKaRCUKS7Wi3YEPY3rYACWA/eYjo2pLAwx5tEosRSQJHy8khyFhZ73O4zCADdChfmMWFd4eHD3qDywFhQWjkrV0iol32LgAKYyj6GjcrPyfE+AhIKc/IoUQXE+A5HFrat7bT94k1hU7/LUHpaFOnIB+07so9CyHVUxstjG8gt55psFs3Csm+KmZ6Whdn3QVXVsdh0x2IlxZtCbml90LR7+6LX6M4L9QvmA5gqDKaquhqTlZbux2JNKZkzZ+zW2FroWS1aSGWVbn5pVKAX2duLwSCRDfXH0igUZQZv5w4jSHWwblePCzMTtNALIJFICZ8cnNYQW40MPrAT6kh16AMrSRpMldQAgKaGL1UEZ4Ec/vAaiHMFscmdp2RKfanOAQEaZ6o0U8qXSPgqauZZ2+UQG0pyiRsz01fF1Wi4XEVYxKCUzKdSyW3DlyD2ZePSkoxsH7UHCuWJT/UZrKw8McgME7hGRNrsgJiDbgUvNCzFl4viUtU+rpN8clio24mIcnfI65V+Wc+JUEGKh4obwFWnpHp6OjtTFeSo1t0GUAeLQz/PLSw8VQUKZHh6qjN9BEy3yI0IyKMtuWfK1UetwnO5KhTKWYNKnRx0cp/fDH246vbzvCbDUz3weLwKFRDgjPIVhEW4fwVjvJeWRHhNCvz93xM0oAeuOvzkreUwFgz38gjXC+EpavXCMQAAiECdql0BY8XR7Sv3mgQJ/niVRgMga2oAvn+jOYw1de18oNMCwd/Dg6sBejG9SEB1aq8enDXvP4Iaz0VpkEA1BpD4NtpYwSAsBQmuFwSpHipPZw0Sg6kGqLAsgB4c+py8LghAD3gUmEQ1MkvRbI6AtWyvdw88Ojnpk6riUrkAgATI4bWr4D1WTErfX4YgxVdBlUiQEsWpS9/owJLx+uRAp6NermE+mQoqP4t6rtEc5osJsUU3uS+w3GmhMKUKhaLlnr2VDjwZrrOcT+47WLlgpLm5uRF8dcGVlYG+pcN8aVnfwYOB9+/f+X71/3p4rl2qb2Ly6RLrr7ds3aDzEetfZ1hNGpNh8yMAAAAASUVORK5CYII='
p13
sS'twit'
p14
S'data:image/png;base64,iVBORw0KGgoAAAANSUhEUgAAAEgAAABICAMAAABiM0N1AAAAqFBMVEUAAADM1t3M1t3M1t3M1t3M1t3M1t3M1t3M1t3M1t3M1t3M1t3M1t3M1t3M1t3M1t3M1t2mtb+ZqrWZqrWZqrWmtb+ZqrWZqrWZqrWZqrWZqrXF0NjM1t24xc2zwMmcrbiZqrW2w8y/y9Omtb+jsr3BzNTG0di7x8/Ay9PH0tm+ytLCztWhsbuvvcfK1NvL1dywvsepuMGltL6su8TJ09ufsLq8yNG5xs45xAXSAAAAHHRSTlMAIGCAvwBQn99Aj+8wEM+vcEAA3xAAn2BA7zDvMr76zQAAAjhJREFUeF6t2ImSnCAQgOFBRVR03EyyORt17mN3cx/v/2axrBlbB0nRbf4H+EpALWDxj0QQRpGQfi2ko1gl0JbKWZDINHQFcg6UK7im5AxI9AwkxQwo1NCXSjYkloApyYZiDZgu2FAIw0LJhdTI0QUXUsB+IIRsBwoWhPPzZMwTLhkdiq/OF9MGbTEPEvoO0pIHLQHGQ1M8KIT7Ag6EA8MEC1KWk0gOlIJVxIJKGwo5kAC7Bw6UgV3KgfR/gmIEqrpp6ooL4drvmq4dE0r652muVSwI16y+QTWAokNBDzV9rG8tm4agLIhQNDm0Nv1AgxKYmuyuJKVAAPby95UFB8IXElsWNMhdxITsKNDhaMzxMB86mK5pqSRAR9N1nHK0IEDmGtgtc8IL6YZ0QPpEnENTBe2jdU42caMVOJc/5PzYMP5mNHFKGevnb/dz8+rRv8VjDNimavu9+VNVL9tfTfP6zcq7xWqlEVo3496SoGwwmu2d9I4CCRi0rsfSewK0KofS/sduCH34SIBSwE6m7eu378/PTVNvty/rTzlr63c2g84drXPOZvQyhC7QpVPG9tiMuvEBbcNuQ5/xj0I5QtgQ9CUp8VBjQ/hQlGOWPdmYDgvCwc9a/jEl/I+ie3ROYFfG3ofj083Zjw5efboMcr/j+rmbp8sZ7s+UmI6yME5zzwsEB4Ra7HulMTU0bCkIlyzudEi59nGnhNdFVFp6MMSrMTudCfplnVWiPF5IOxFkUa8lURYI6e4vYmoRfyCWQh8AAAAASUVORK5CYII='
p15
sS'gmail'
p16
S''
p17
sS'related_to'
p18
(lp19
V\U0001f31b First Quarter Moon With Face
p20
aV\U0001f31d Full Moon With Face
p21
aV\U0001f31a New Moon With Face
p22
aV\U0001f311 New Moon Symbol
p23
aV\U0001f312 Waxing Crescent Moon Symbol
p24
aV\U0001f313 First Quarter Moon Symbol
p25
aV\U0001f314 Waxing Gibbous Moon Symbol
p26
aV\U0001f315 Full Moon Symbol
p27
aV\U0001f316 Waning Gibbous Moon Symbol
p28
aV\U0001f317 Last Quarter Moon Symbol
p29
aV\U0001f318 Waning Crescent Moon Symbol
p30
aV\U0001f319 Crescent Moon
p31
asS'name'
p32
Vlast quarter moon with face
p33
sS'known_as'
p34
(lp35
sS'default'
p36
Vemoji
p37
sS'bw'
p38
S'data:image/png;base64,iVBORw0KGgoAAAANSUhEUgAAAJAAAACQCAYAAADnRuK4AAAMYElEQVR42u2dLdQO3RfG7yAIgiAIgiAIgiAIgiAIgiAIgiAIgiAI1hIEQRAEQRAEQRAEQRAEQRAEQRAEQRAEQTj/9Zv1n7VmnXefuef+mDl777Ovtaa8r4d5Zq7ZH9f+OKsUCOyAVTyCQBAoEAQKBIECQaBAIAgUCAIFgkCBIFAgEAQKBIECQSC3+Pv3b/r27Vv68OFDev36dXr+/Hl6+vRpun///n+uBw8edP+f6927d93P/fz5MwjkHX/+/Elfv35NL1686Ihw5cqVdPr06XTkyJG0Wq12vo4ePZrOnj2brl27lp48eZLevn2bfv/+HQSyCl7emzdv0p07d9K5c+fSwYMH90KUTa4DBw6kM2fOdPfAvWglVBDo//jx40d69OhRunjxYvfytnnpEO348ePp5MmT6fz58/+5Tpw4kQ4dOrT1343le/nyZec2g0AK8OvXry5ewX1MJc2pU6fS5cuX0927d7ufxd3g3jZ5qfzZz58/d3EQLgu3iPvi755yH5Dp6tWr3b/979+/INDS4MHzAtZZg8OHD6dLly51lunTp0+LuBEI8eXLl87S4L6ItcZIhVXj/moF480QiJf/+PHj7oGPkQZXQ7b08ePH6l/3kFTv37/v7gs3JhG/d3H8uSDQHsGXiYsYy5hwYbgj4iDN7haXh7W5efPm6IeA1UIqWOIDcEsgUm+IU3JTuKfbt2937kIbePG4TCwmLvTYsWNbywMQbs6g2x2BePhYk9JD58vl/0MwbYIk7uf69etbE0a6bt26NaslckUg4hZSaOlB8t8JTLXENT2+f/+e7t27t5Uo2csGuGBiN2IgCMiFdUUdDxc2MT4gLpCyFcz4s2fP1BEHspMJrkvbIQmCIqTAHSEq4t60WFDzBCKwlEw+sc/Dhw/VuSr0nwsXLqzVmrBKkEXb/bshEDEDZlr6ggk8KVRqC+pL99u7WAiPKGkJJgkEOTDrktXBzGtzVwTHpcCY0glWVNs9uyUQD1tKzSl6atRxKFVIxVjuV6OE4JpA6CLSy6AupanA2AOXJelPGoN69wQiy5IyFFJzjfEZGZZUJiFj9AT1BOJLlchDer6EzrENqKzn93vjxg2VVtI1gXjgZFT5y0A8Q4DTCAqe+f2SknvFSrPlkchD8Km1j5g2kTxNpyXDM9QSCJMvVZm1tnai8+SpOiUGL8GyKQJJMQ/k0RyAYmnynmZroqALApGq5+Thy9Y8/sK95doUtasWoIpA1H7yGIIXQ/1IMyTro7k5zSWBKE9ILQ2vXr1S/QCJyXLrQzG0FaggEOm6VNuiuKgdDBtKTVxBoAUhSf60PFjIYJAV8nvXqI67JRBqch73oDJbkfwRNXMCtZB9qSAQ2kneggqZtJYophLIyly7eQLl2YvF+CEnEJJDS6hGIMx8nr3w8LW3cK4jEOpzEGgBSFkXGY015ARibj4IVCH1pVfGYt0oJ1ArCnQ1AqH5SIGnpcB5jECeWzdUEAhxUGost4qcQIxTB4FmtD70BOcE0l7rCgIpIRATCtIMl2WEC6v4sLkY06kNJAXITR8ShB6upWPevN9GxnxX3tec/070QweBZgAPX5rGrJl5QV4a1bZZfgnZGM+h7JK33AaBZgDpraZqO//2tss01y1D8Dh9UZVAqMu56syDrtFlyDJw3NKcK3o9TJyqIhDr1jSk7sQ6pZdOMxvujPvCWtJOMnVrat5M5r2RfnECIe/nDxpSLY0hkQl+yZjGtsKzw4egepNF49o7KM0RCPeVv4Ba7ouXi4WZsl8Z8my6oR4L1hpWS371w25D7SitylsXQCMHRBC9R0hz4oz/agbdkLsE0bSlEKwHgXZEqXShvXBKTLSPFN9qh4EaAkniIem8BRO/bqM9mRq/Hw30dFGWNpAxKBkE2kGssxj/AGm/z/CitJFbW4hk9fdVSSApfdce/4xZz+FFljblo8Hialv4aYZAkhsghbaCkmK9ru85r695joVmIxD6jxSIal0MJYGXnq/mRYBcZ1FYBG5xylYVgTDx0lo6i2BRAsEyyx+mDjzm8gUkLLm9IJAAqXG+pZEXpIA8M0PS8La1YzYCSbsCW2u2klR4zVvWVBFIWlHXWrtnSQ4gtfdS7piNQNKBIt5FNQnETNLeI6yxh8xsNgJJa09aqQ9JCYVU2UfNtk6i2QgkaUBLHwirCRwCI2lKWCLL7mw2AklFVI9p7CaQlPm+Ed/qEQizEUh6UJZExDlQWp7et8JaLHkEgRZG6fiGXmzMi7RBoCCQSCKp0W4ouFqxRkGgikBolKZ1aw0dBIGMWiMpY9Uw8l2VQJLu4XngjvIEH8imug4EyocuGZ1uPgaSTLNHHYi2FfqG+pYPOg4o40z9WKSSj6WeqdkIRFqaPxjaIbxBmvkf7kvko8Ey5ReamFQns7aldjYC0YVnNTCcCoiwzwUNFoussxFI+rq8deWxN2jYqch2MtJz6VjydRdqtMWSxmwEkpaIs1PHE4YNY0PrStMYrmgqkbDWms9Dq0IgaZ2d5WWaUta1Lu2mvsVzKI1J4/7okYpiqgAeqLSRzJN+M5QqcNljoNEel9eTiXKG5eWisxNI2sXjbXtXXo5obb3drAQqjfV4OgoJF5W3rXiwKioIBCSJ3lsqn5/5QdN8rHfZE6TJTuIATyAIzn9HMtAg0B4gtXF6mw1DTJTKNqwADgLtCGk6lbjI24l+xHWSu27h6MvZF0xJVXmPNTGq8Ohcw98TDSgItCOkmhgLCzwin0RtwY3NTiDqQ1IDuUfkATXiYRBoR0iKtKfuRPQufsdhTxAXMVELC8dnJxBxUH4giaVNZYAyBZlWfkmzb57jvCoEAlLTFbGRFUhxXJ5ZDonlTeuqTiDJjfHQrYyurCNQv3mkpTMyFiVQyY1ZUWxphCNFRwQd6/GhrOFtgZQKAgFSd2mju7W6EffLmRvERZLGhQtrQUBcnEBUqaXqvOXTbcgkpdZdgusWUvhFCVSKJTz00LAPMrdGXrWuqgSSdgZ6mRdji+vQwrZy9OXi58ZLwbT1o797DKc0rA0ImiAQkEob1pZPMUHB/XLq0LCzILewLaz0W5xAPHApeyFFtqCjYFXy+yebZER5uIGMP2N165hqApVSegsZGZnV1FkvayPKpggkNaP3Yz9aA0/cVulMMGlE2VvTnCoCAWmTPRcxkkZIa4v7BIB75sKFEQfFsd8LZWTSF03soK1GRtwjkcfrCTwmCNRrJxbOGmWmXypZtFg8VUUgUNqvo+lYBGmrKg1kAQUEIjiVzpJA1dVyurNUgmmp50c1gQCCm2SFcBMa1p5IA5JYzoASAo25MjKb2rEG7tTq8eXNEAjdRNqrqEGUo0lMakXxNudvmkCA9L3UqF57SI9Si+RiW7dCK203RDmjtLiy5qBeSQtq8RRG1QQCCHSlMkHNCrfUfdjyQXpqCQQk8a5XqmsVXYnTpH4m7qmVOTAzBAKlA9q4ah2LRB+Q5GIhUYuWSDWBCFDzjRf5koYaKT7ZVylOI+WPYqoyEpUOaKvZOjEW7CM8RjuHMhJJavBwkUGN5ZaQqCQ7ECtZHllyRaAe0j7CYe2Mnpyl3QfaVb5oM7eQWmp6zRMIlI7PHm5JXdoaQVrGtMcOXoFIHo+7Wlm8aZY1SOm0Bmu0bhED1ooM0kuMtLJ649Sn1r0seqxrqNcQvNQCOyQ5GSb3Z/WgFdME6jGmWg/HjBk/Xtoi4bI4DmHKmWIkAoinSAQsZ7BSYzNPIIC4VzoRR7JIS78crCWxm1SQHbso1mJlaXWhga1v3s8v4i/+TI3hTBcEAuwq5EFKQ4v5RQckXzvB9tJWCTIhNuLi9nnaYf97BYH2EMiOCY9SUMuIUY0pUv5NqvwQH0JNIX/p4mdrtLy4I1APXsyU1XS5BMDLJHapFYNw2jM1NVweVpJAe91AYw3pwj2BelAl5wFv80UTszDzTtzEWPOcqTcumIVVZHAE/FhF2keI20quDhW8du3NPYGGROJr3jXuIM7A7SEMkmFBMBRyKbilFZfgdnjxM/ws1hGCkn1hYTa5L8jN361heUMzBBoGsbxc6YQd7Rf3jGyhSYRsjkBDUKMi5tFMJhR3YiFiOo1tIk0TqAcvhhiHwJUMbmwD/dwXrgwXCbG1kiYINJFQBKh8/QThU/cCbXJBVNJ34ihcE9kfwbQlBIE2jJ9we6TZaC7EUijEeaDcX1iRPqAmk2OZBGoxf4+XrsUgUCAIFAgCBYzifxPrbOQyazUCAAAAAElFTkSuQmCC'
p39
sS'version'
p40
VV6.0\u02b7
p41
sS'uni'
p42
V\U0001f31c
p43
sS'desc'
p44
V\U0001f31c 
p45
sS'browser'
p46
V\U0001f31c
p47
sS'annotations'
p48
(lp49
Vface
p50
aVmoon
p51
aVnature
p52
aVplace
p53
aVquarter
p54
aVspace
p55
aVweather
p56
asS'wind'
p57
S'data:image/png;base64,iVBORw0KGgoAAAANSUhEUgAAAEgAAABICAYAAABV7bNHAAAAAXNSR0IArs4c6QAAAARnQU1BAACxjwv8YQUAAASPSURBVHhe7ZvPjwxBFMfr9a6TEzeXTXBxsCPxY9ePuImLCE6LuHHgwsWPA5EQhDitK5u4cVviJsRBrN0V2ZhFXBAuDsRfYPt5r+r16h3dM13VM901m/oks/2qerMz/d1Xr96rqlGBQCAQCAQCgUAgEAj4Bsi1UuLmth301vvIXE+vIQWwhj7IWn1TQMTfdPlE935S6xugegGN2UfmbnVUJpCIcpoeeLRVjKJo0QBeAvw5DRvffpfuntJzgeL57Sfo5xgo2CNdzqBSjxXGt6LGm9fS1XN6JpD2GICr/SpMQk8EiudHxumpjgHAaulygoT5Sh/xRjQ8fU+6KqerAuH7LUOIg3fojx6QLmfYa6qMNXl0TSAjzsATGlIN6XKGgvH1qDF7SZq10hWBlqs4TGmBlrM4TCRXZzAeeJAnDip8Rq/ziGpCEr9c+Hd8E4cp5UFxc/QegDouzSVwkI2GZw5K03haPDCXNbOReFMkzi5peoWzB2Fz5GCuOOQtPANJUyOz0VPT+ofxLDwrTe9wF0ipc2L+D5cDWdMzRM/FSgGTdSSARXESKG6OXKOhslOa/4Pql1ht0Z4W/bkqTS9x8yCAo2KVBCbrTgQ7YS0QlRHnKLJ3qMZxJReppoJPE68SQ4gnxPAWFw/aK9dcaPgdBoV3AaKpeH70C4uqb6DarK+Embn8jT0JVtM8T9UKB79J0woS5CEpt7gWZATyc2pPY+VBlDGPiWmN8aolQ3ODFtxz7IZYaoiUhRNGEnzCd5FsY1BXH4YX07iO46RTurzDLgbNj1J+2H1MNs0J48wJ6fKGwgKVCdBF4cAN0cIRn3KjwkMMcUXH6b0snJ3rIedRXHLJg3oKL53wEoo0a8c7gZi2dV7F1CKQ2a3Ip9P9KikuEC58EKs8iD8Q4528qCY9LeATMWqnlmkeFTaj4dlNbKe3pPVNEofunTF2/VgJxIVnS7ngDAzPWL13XVjGIPwsRiZ6gV7hHc5npCsXn7PnNLZB+qNcM6GhcZuHh67SEQ/lxxgWU20V02usBOIzOmJmsrjuQ/BZHt7V0MEY8WHGzMRng7zHOg60i0Od1nh4WJFQY0lAJgHX6Rse4yDQyDhlu0u2dNLwsErvh+XB5YTv69GMtUBFitaiIvUD1pk0/9dZAGlmQqofIE971y8zVTusPYhhL8rbRm6FxQTE+3UcwOwGTgIx7fbls+DsWSG8oQA9XeeJMVucBWJ4GLkee1lMJkFROjB7W9seYh2DloB4kh607bGWPHhJwyxrwCmfFshaKSWQ3vgDdVOaTpALr+XdDWl6RzkPInh4kBddl6YTvLtBCaiXQbxUDEojJz4uStMJDuQAC/v7ctG+E3x8jj3JNSYxsh49l67p6qZrHpSg6y1QV1xntwTypmc0CVyu+4BD1wViTCI5eNkmT8rCeCNM8iGruoZdTwRKMN/XiC7Qm5Q6ea+FAnhZx/c1eipQQiIUPenuIuVJO6oeepUIlMYEYOA1owa9eaH1bV2mKPhK1quqs+7KBWrFfJ+MQNyurwlUs/Gln+q2QCAQCAQCgeWDUn8BcMP1dRmGGVkAAAAASUVORK5CYII='
p58
sS'andr'
p59
S'data:image/png;base64,iVBORw0KGgoAAAANSUhEUgAAAEgAAABECAMAAAAV8YMOAAAABGdBTUEAALGPC/xhBQAAAAFzUkdCAK7OHOkAAALWUExURUxpcfzCG/zCG/zCG/zCG/zCG/zCG/zCG/zCG/zCG/zCG/zCG/zCG/zCG/zCG/zCG/zCG/zCG/zCG/zCG/zCG/zCG/zCG/zCG/zCG/zCG/zCG/zCG/zCG/zCG/zCG/zCG/zCG/zCG/zCG/zCG/zCG/zCG/zCG/zCG/zCG/zCG/zCG/zCG/zCG/zCG/zCG/zCG/zCG/zCG/zCG/zCG/zCG/zCG/zCG/zCG/zCG/zCG/zCG/zCG/zCG/zCG/zCG/zCG/zCG/zCG/zCG/zCG/zCG/zCG/zCG/zCG/zCG/zCG/zCG/zCG/zCG/zCG/zCG/zCG/zCG/zCG/zCG/zCG/zCG/zCG/zCG/zCG/zCG/zCG/zCG/zCG/zCG/zCG/zCG/zCG/zCG/zCG/zCG/zCG/zCG/zCG/zCG/zCG/zCG/zCG/zCG/zCG/zCG/zCG/zCG/zCG/zCG/zCG/zCG/zCG/zCG/zCG/zCG/zCG/zCG/zCG/zCG/zCG/zCG/zCG/zCG/zCG/zCG/zCG/zCG/zCG/zCG/zCG/zCG/zCG/zCG/zCG/zCG/zCG/zCG/zCG/zCG/zCG/zCG/zCG/zCG/zCG/zCG/zCG/zCG/zCG/zCG/zCG/zCG/zCG/zCG/zCG/zCG/zCG/zCG/zCG/zCG/zCG/zCG/zCG/zCG/zCG/zCG/zCG/zCG/zCG/zCG/zCG/zCG/zCG/zCG/zCG/zCG/zCG/zCG/zCG/zCG/zCG/zCG/zCG/3DG/7EG/3CGyssL//EGywtL/7DG6KBJIlvJoduJi0tL+64HNqpHr2VIeGvHjMyL7OOIvvCG4RsJ2RVKvO7HIVsJ/G6HEtDLM6hIOy3HUpCLE1ELC8vL6OCJO23HM+hH+azHT46Lu+5HLWPIjs4LsmeIN+uHva+HL+WIXZiKDc1LkQ+LX5oJ3RgKDo3Lve+G2taKcKZIfW9HElCLDk2LkdALS4vL9anH5MPrd0AAAC5dFJOUwAW+vkD/Pv+AQLz8PUJ/cwEGOlOBtsI1vEP4nmVom9UnCgSyVYHjVtu9AoeBVUnggwQTMBzsOWvnuE2kBV23MfPoM0cX4qD7pT4myXD2XfSGvd6waqaWX0kMNoq7Je7RHwpe2v2Nyy3xivVOhumjG1yut6BH6VDhs4utFLYFFdcgMhwUTJ1Ex3CqOtqS5MxmJ0h6mlK5D7t5iIXQEXveAuRYmfycYhg0NQ5XaO84MTKtTPnTdOFJpI/sI1c8AAAAzVJREFUWMOt2AVTG0EUAOAQOyIkECQCxS24FivuFHeru7u7u7u7u3cTgtfd3d3bf1BKS4lcbvfueDOZSWZuvtl9b/f2bRgM48E+HRJcaMKgG7wK/5MscPwYXWddijVoiiM0R+SVlPCHAaJ8eo5TuLLZAVkd6TDslWPBv8jg0XDctq9tcZiTaThmtrIWB7TvTcfZ8d8BfanXzGYzv9UBYW6UV+G2TVoOaEd5QBtXgTaBlsWCNoFsFmG6UCGbGjRBoOuAYGdKjsVcPQfEUNohpvZMfYi1kArkHafvAGywKYUBeXINICDOJQ/NzjR0AGsKeciSjwOBYaTrZrUEzwGsBWShgf1xIZC1uE1m1hTjLcjVLAUzAnGWdiADBYQCY8F1JPN6mzMRGJfmOaFDM1MBQYhdzVChGUI8QFWt+vtF4NjLHA3qwcWDXl6+WNVyoHTqYoKy8brjFe3Vm8b61l8yl0H+rk6wE9Mdx1H/eqdp0Mv7cP9JxJAdToI+1f98+1qtv6zGsElAVSqVqvpr3UfN56cqfT9WTghF6Tx8887Dx1/ef6/58UJtMNBRxOXrqpXs2vPXbt27+7yx5tuzKwaOZDRxjuw5rc9WX7ik0dTcf/LhkWHiZJ6Q9eTQUyvL5+qu3mh4cPu64bwkQ6wg5Y8U6OS66VOrNsgzSAiCnpje1gAaygw/+MqW94E6qZ5eKP1MMszBkn2Qdq2DEAJxdqNt/5HQJO3Z72eD0svGQ5OUd+iAN4Lkq4TXLT0IATKZBocOohwDvBAOzNnru6/CCi6VSiGOSCrNU5TAjwFeNAc+OSDYAB9SogsCBGYhpMmDjwAVIZwlXo4YHBKjNBV+cXCIZYvSfFtK4NL8aIT2xHwnQprSC1b0C4Be13YxERIuiugcPmK6vYdD0mqjC1S+FUVq1kRMJlfianRMge5CQCKijM9uS/YadEdYTJAnH49yVIcTH0jYmUaGsZAcgft6SPGch8bAGczFF/7uNR1ntxziWE9NRDoNfAakKQiSLM7vhv4fSVl2QSWews9JsyR3H2DIz9qGlldqNaqYTBF86kQulUtzQGlQyJnQzJwIhfTw0aKS4rJA3H70N+fMRnzeWBhxAAAAAElFTkSuQmCC'
p60
sb.