ccopy_reg
_reconstructor
p0
(cemoji
Emoji
p1
c__builtin__
object
p2
Ntp3
Rp4
(dp5
S'emojipedia_url'
p6
Vhttp://emojipedia.org/bowling/
p7
sS'index'
p8
V662
p9
sS'code'
p10
VU+1F3B3
p11
sS'apple'
p12
S'data:image/png;base64,iVBORw0KGgoAAAANSUhEUgAAAEAAAABACAMAAACdt4HsAAAC9FBMVEUAAAAPCgoREREfHx8PCwsODg4REREPDw8/MDAhDg4FBQUCAgI4ODgAAAABAQFOTk7MzMwNDQ3Ly8sAAAA8PDxWVlZAQEAFBQVSUVE3NzcEBAQlIiJVVVVhYWFfX18HBwdubm5lZ2crMDADAwMaGhpbWVk0MzMAAADDw8NBQUEKCgpXV1coKChBQUE4ODgeHh7b29vGxsbKyspTWlrGx8e8v7+3u7tgYGBNSUlBQUG7wsLI1tbU1NTU1NTNzc1HR0fPz8/V1dUMDAxPT0/X19c3NzcvLy94eHgJCQloaGjX19e2trZkZmalmpq1q6tfHh5sMDCeqqpZIyNsAAC0VVXHAACklZXTAAAJCQktLS2UlJQ8PDzU1NSoqKhJSUmLi4vDw8N9fX2xsbHS0tJsbGx0dHS0tLSAgIB1e3vAe3tvAABrAgJrAADIVlZmBATCRUWsfn7TAwPNGxu0p6fHJydTU1OCgoKHiIh+fn6JiYmAgICFhYV7e3shISEuLi4UFBQnJyckJCQ4ODiOjo4eHh5HR0eTlJSnqKicnJyfn58ODg5ERERdXV1sbGwyMjI6OjqWlpY1NTVJSUloaGh5eXlRUVFvb2+SkpLS09PZ2dlaWlpzdHSEhIROTk52dnZlZWXe3t6RkZGGhoaMjIy3t7elpqbW1tako6ObmprOzs7GxsYAAABVVVVycnJBQUFYWFgWFhbCwsKzsrK6ubliYmIZGRnKysoREREKCgqsrKzQ0NA8PDwpKSm8vLyxsbHb29uvr68+Pj4bGxvj4+N4eHiqqqpMTEy4uLhgYGDq6urm5ua+v7+ZmZk0NDShoaEtLS3f4eHJx8csLCyYmJgrKyvu7u4GBga0tLTBv7/Q3NyLlJTPaWnNysrLAgKdBwfMuLiVnp6GRESJICCMgIClsrK9yMidVVWhiorALCyBAgKwu7uKODi1AwO8RESiOjqmAwPBCAjMUVGyYWGBeHikISG1m5t/c3OlLCzC1NTDqam/ZmaNAQEv+6dmAAAAdnRSTlMACQwmFhAcAgEFWmtHLU3WP6gZdJuXf7W8YTc86O3flPPPMUTA0FKEyDvgGuaPa0X2Cua7mC14sqnzqfdrU3dvs4Xqo+DbfvCP6uhV53mdnuohhLdCxzhX1lTmrcyW6prWRePOmfZq4vrUWX7c5m6HXUEutfz+XDhYNAAACB5JREFUeF7tllV0HOcVgLWSlmTZsmzHnNiO7TiNMY4hTpo00DA0ZWZm1NAyMzMzi5mZ2YxhTpnppfff1apyGx/PS996H/bMw37ff+mfMyU3i//HuhNf/GoBePArX/vy/gKw9vnn9tPk1x7NXEp8gw3Qw0l3U9cuBgCcY5n2+Ocq6Z3/4bC7aVD5IXg6MpLpS5BbAPhg2HOtJfFEOR3BA+EwYK5d3JK1A572i+noLQB8YSSZbVbjYL15PBgGTB3buR8EyaYxFwWCu1FWY2bsFho8ZAuYmfcUs+R40t03H+NvRIKBTMu8jKAleMDT3ZeSUbdxS9Y93R1X40HUg697sv1p3L6R1hC6M3ENSdwLrb8zAy1wlgFwX7Kpy+z3VdKawtHMRTXOPwjYMfeEGn+2FIAT0AIlZgAXjbizG7DRQ4A9l21Rv74XAc9ksiC4lUlLcN/lNxNXfLcD9ukXf/fSux9HwPH7L7/3Cn4PvU388dV/vPXqC2hnPvH7X//mlx9DAOOHV//w1qsfocWjc3/7zx+gBf7o/X9748oWBHA++eKvXnr3+/QEn3r572+/vhlhP/vFO3997Ud54Ocv//ntv9xBV3ApJYMpohLe+dNrhbyfzzan/7iNnuCnqIR8605cnlEpd+WBfAnfoyf4yVVo3QsMtEjJllTkm2j4nO8W+klvjItvvvHKd2CMx5PJiYTSvxG1E8aYuEJvjHcfTbYklBhgx0YyEwkzfhus4rc8pwfVsp0sOoJnPO4WlZncy113ZLodCfgwyDvD2X6NjDp0A+b2g1U1Dd6G2oD1sQ2VD01nkMB++OGpcHs8YSapvYy1nnBT/3wkupf7fviWKpvPTvDtwTqDbbJ2XBHLtqhmSWzz01OevADzHX5oOtk0OO+KBt9nEyq3+zCcJHGMAIPT1qqvUZioxGwMc85MI8HZGEacPDLlBoESpzb/F7+hDo+5zOZIjIxSdp/TFpr0OhQmqwswP7wHL+YFialFEGhA4PyPXeJWETKzWjOvTqc1LhkZRIKGmnGFyUjxCEO7uyDA3OfDKANoB3/D9fx2f8ysUXUNdg0O6uXySRwMk14Q1FvOBYmgsrupP2WOYerpqYHuSyCIYfzrXwlVlGxWo2rum7mUceYu5HIGqg6a0OBQ1A/N9QbtvswMFE5SfeenPegRCeo+u4K/lyCVGlV/SzbjDltyHdqcwu8ztOr1tVbdUI/QaLdN9HVpXLjffX7Ecw0ekWB0RQ2VvpgyneqKN2U84fMGlEGIcMIkA+MBxVCPRRwwzMdVaRkvEj6/mGxv6dIoSRCsmMN2v1KNCmhPLk5PDzg6RTWUIdQ6KdZ2LFjrTXNn5AZyEEHmkamwOxsfU7ugiXZY7KU4VIebNamxwb52z8j0oqdb5cIMk169qVMk6pTqTHNCQY89MSvjUWdHpge6my6q0pEoxR+9tXw5ASKGBF3xbLdnIHk6rsF8MAKvRdvYqF3QSeeE4mEnHIoR5vBI8trMIMzDT9jty4IPOEnlWc18YmywJdvenp1IyEYNrQ21NdYObYdWWi81CsVtNeYYj6IiSUggPqZBMiiBsSQ4aCeVadihlKqreSLen1JivhBMMOCoF8jndENS44JYLpTBhlNk1p3tQwlEKYLgLzexio/LlOazsyBJpebTEX/Q0OqtDYxDKHQ9JovxnFjQSPopCuM1n+7rT6QjOEZRBP/RJZ49SZAyF0Qkgn5IKmgI6RGvUOjqh0zQAhCIfJCAH1fPNKs0SqgGbPyNSwJWKxFzKZVwifAoD25iXeF8K+B53rjQK5GL9ASB4Tjv4pjGnK8G8wcriz1sJchYRBaDJPlwCw3oDjgKx/eYpBaj8IxYIm8MEIQfx58aS81GSB4F2fB2sooCPR8nSbATgMMVgv4t8UPAzxmFvWKBvFHBBwHv0TQUkE8gGt3FLgq8oxhKnuL7DM6QXp9/oS2fb4QOSATDIisS8Ld9Ox2BTAmMh/uXv1HKGuoIAnU1aLDZ9F69bm7IMV7g54BfOCcRyIdFATtBEVWsk0o0QtQOorIoKHU4R+18vn20Dr2EvJJcLtdm1SHeCLxQCILhto4Dp06d2vNkxeMkicFxPBzf+e8PvS+F6nzBYNAH98frleY6L1zISXSF/KGDvdDC4UZtRUXFmq2ry8qe4EGuIIieLFmOz+ttTmddvn81DeLODq1W21Yvhf4BD7hAIG8T3VU87R5YYmhHlFjxVr4j0GqzGQwhtL+1FriCokbJEMIRL4YGtIm0TyKYw+ZyK0ZBABk8W87mFAWc+gZ9awjuf0NNwOEY1naIhi1QP+IlEgnwjR2dW7kcDptRvnrN+sdqJ0O2UE317tXljKJjg6LWq9frG2od4+MO6xm5RNoDNPRfLBBIgBd1fIbJ5ZSAoGx3xfod1Xv2VO9btWaFgCm11tTC/XU4rCh0unoLGh9aAIEA8drDcFShBgaznMVilZczGVzAi/G4STHuCAQCsICKwgJA93t70QLk+U0lN4sD0np0tkJXXKBzvdD/It9ZelMBq9fSo9MhvHiBVvK7S24e28RG01AP0Gj+Rb6twK8CgIZBIjTOWSxArzyeNg9RdkDce0YIw8vjS+kDv6aEduwQSCRi8XW4dhOTBsiB+bLZ8Mmydc+wHGCgAUf8XauYTJh5KcyczbkhDjSXyyhlovWoqH5E1NZYoDsf2bRv/b716BKitbmxIG9gMJiwYmUsFmz7jupNm6p37Fu/CqJize6tq1kr1u6GlpJCHVz2khblVArBYHBR/vCH/1H8C1Umoxbg9TQ2AAAAAElFTkSuQmCC'
p13
sS'twit'
p14
S'data:image/png;base64,iVBORw0KGgoAAAANSUhEUgAAAEgAAABICAMAAABiM0N1AAAA7VBMVEUAAAA6REk6REnM1t3M1t06REk6REk6REk6REk6REnM1t06REnM1t3M1t3M1t3M1t2+GTHM1t3M1t06REnM1t06REnM1t3M1t2+GTE6REm+GTG+GTE6REm+GTHM1t06REk6REm+GTG+GTHM1t06REnM1t2osriosriDjZM6REnM1t02QEQAAAAWGhshJikvNzssMzcHCQkzPEAEBAUPERISFRckKy5faW4ZHiAdIiULDQ5DTVKxu8HDzdS+GTGNKTq2HDNLP0Zxe4F0MT9MVlxVX2WeqK9bOUO6xMuVn6aDjZOosrgoLzJ6hIqlITZN/jnyAAAAKXRSTlMA759Q7xBAMN+/YIBAMM8QQJ+/UK9ggN+fr2DvIK8gz4/fEI9wcL9A34eI5IcAAAK9SURBVHherZfXeqMwFAblggHjkrik960S1d1p23t7/8fZzwpY7PEPkVeZq+Qi8wkNKEdMi2ZHiE6TmdIdCMmuqWhXasxNNbGmZiQaKNHASCQUdUORApQ0FOGS+iKTku28yKRkNy8yKpkXGZWs0/xUrktPiXpGoj0l2jMStZSoDUtqc/wm5RiX1OYgEx3gktocZaIjXFKbnUy0g0tuv9ttXLKEk4bEJh9WDZcswPZcvub8ok++dFASceI5nFCp3omMLioJsKoc8vWP6o9KUp5XeBEf36lutCTFcnkJ7x8WdXkFS+axK7yct9J0ymBJxZB4AL9luWb5md0HAmyqn608ZwKURM+F+S4/ibQ+6m85XI87uSuqGe12iARJvCn6dC+E2GdXl0qjSsIN8sMgCEYR3qbWqbKokvDB/JtAcg0friMIaUmPb3AdpIypaEElqiQDxdIF4SUBZMlhJkhmo5tZIkVBseiDQNRyyeaBZL4SjYpFt1C0z5iVesb5bVlmIvAKfIGmVtZe/W24qjZRP4M3ALDLLlLRNBNN5frkr0sO+FzwbC4QrYiTxOcQAVnHj0AozB0WcYnalon/mOhnuYjH0jSJuamI+1EYRr7OqYRFiO1XVH8qUe+pRM+Ys7XoGxK9YC4QjKNZOC/cdoFooWNtLl+EUYw9CxyNNTglDh4YYdEP5OmgAzIMUuZQ9BLvNWNklKGnGsWp4RMSPNukVOR1iUNNYA4RzTJRhEQnrIO2SJ3+iiQoOQeq+YmWTrYuMS0fPL+A5/ZV/iJCJ1ubE5LZdBqOOeA1GfvJ8O9xTRZNNWRJ6LDl6nkqFr0Z0/HPOtfy2ORKk1LfdmQbkks/HCPtR9dU6YObiKRFx+xSHJsp9sn//RSddocWy9EkYxbBLozn9Nl2DB1Yy7PY1jSqtN9hFmt7l+c6aSj3oq+7mL/Evh+H7w3NygAAAABJRU5ErkJggg=='
p15
sS'gmail'
p16
S'data:image/png;base64,R0lGODlhDwAPALMPABsZGPNqEOjp6PO1reOJZHZjT9RjQ8jFwrZNCujSzeMdHbahmf///2YzAP9mAAAAACH/C05FVFNDQVBFMi4wAwEAAAAh+QQFMgAPACwAAAAADwAPAAAEcbDJlKQVx8oiROEfcxRagzUHsxRqiS7N4r0WYmMIIRgIbjsOAsUgI+gOhgDQYVAoEAnBoulcBgZYglNhwC4QwICAwUh4F+SD0hFIkMcMgVu1dAziKTyZUCfEZSJoO3UOCWpuC21qhAFKAwJ8jYSMa3URACH5BAUyAA8ALAUADAAHAAMAAAQN8D3xjHykANBeAIvGRQAh+QQFMgAPACwDAAkACQAGAAAEG/DJVApYkr1qr2BWBYySMZ6AFJAP0EgOQjZOBAAh+QQFMgAPACwAAAAADwAPAAAEarBJedhip8zd0BHLknFNQSiDkAkCgWzVmVjLoBAacjEMYSjAGyOBIPAYIAMhcVgIeEvkgRBICRJOnmAwDQQQBQCgYKowHAEHurQQNxyGj1odGIvFCHR6Xr+L54BqDX5vgYCDAIWGi4yNcxEAIfkEBTIADwAsAAAAAA8ADQAABDewrLlAKSArMg/7ApZlhsKE3jdmRaIMRdMUh1CNtSIjvGEEiAbCQCAYeI6kcslsOp/QqHRKrVojACH5BAUyAA8ALAAAAAAPAAUAAAQMsMlJq70464q6/2AEADs='
p17
sS'related_to'
p18
(lp19
V\U0001f3b1 Billiards
p20
aV\u26f3 Flag In Hole
p21
asS'name'
p22
Vbowling
p23
sS'known_as'
p24
(lp25
V\U0001f3b3 Ten Pin Bowling Emoji
p26
aV\U0001f3b3 Skittles Emoji
p27
aV\U0001f3b3 Pins Emoji
p28
aV\U0001f3b3 Bowling Ball Emoji
p29
asS'default'
p30
Vemoji
p31
sS'bw'
p32
S'data:image/png;base64,iVBORw0KGgoAAAANSUhEUgAAAJAAAACQCAYAAADnRuK4AAAMzklEQVR42u2dL7QNXRjGbxAEQRAEQRAEQRAEQRAEQRAEQRAEQRAEawmCIAiCIAiCIAiCIAiCIAiCIAiCIAiCIMz3/c763rPeb9szs/eemX1mznmetd7FuvfcuXNnP/Pu9//eawRhAPb0CAQRSBCBBBFIEIEEQQQSRCBBBBJEIEEQgQQRSBCBBBFIEEQgQQQSRCBBBBIEEWhCfP78ubly5Upz9OjRlZw+fbp58eJF8+fPHxFIaMfPnz+bCxcuNPv27Wv29vb+ksOHDzfPnj0TgbYRL1++XC3umzdvmrdv3zY/fvzI1jonTpxYEWX//v3NjRs3midPnjRPnz5tHj9+3Bw/fnxNpLt3726FNhKB/sXr16+bM2fO/KUtDhw40Ny7d2+lVVJw9uzZNXlevXr11/chzP3799fa6eHDh8n3CKnPnz/fHDt2bHVfEPXWrVvJ9yYCTQS/oG1y8uTJ5vv3753XgTD2+Xfv3nV+Fo3E5yBDnxb69u1b55YImTapzXaWQL9+/VoZuSwCi8Pb/OnTp/X32b4g16FDh1afYfvpIpFtXefOnev93b9//26OHDmy+jzbZhu+fv26IpmRBQ0HWZDbt2+vr4Fcvnx59TeJQJXAAtjDRyO04ePHj2sSoYnayGjXim1dMUACPo+dFMOXL1/WvxcvDvsqRsSbN2/+j0QiUAWg7vGGeOhonhT7wxbp/fv3f30fzcX3WPBULQAx+Rk0VwxXr15db1Fooi7cuXNnfX8QTwSq4G3ZgvfZNuEWxbbXZtNgiOe4+7boIekgpNk8aJiU7Rii8Xk0qwg0MS5evLh62JcuXUr+Gdxxs5dC9x5PLfd6q4f/H4FCDWPbK6TAiE7B9evX13Gmmgb1ThIIm4KHTWwmFZDGFhy3P2bPsIhjEMi03bVr17JCEXa9Dx8+iEBTgS2r9EG32U19BnEOgbCx7OvPnz/P8ipt28N7FIEmgo/X5Kp6CzYSl4kRKGYf5RKIxbdgZK5bbm49BrgINBHM4EVyYZ4R8ZgYgXKM6DYCmT1F8jUXFgkXgRZGoEePHq2+jgZIBcax3Yc3yu3+wt+RAox4EagigQjE5YCtK7a42CrmoaVe04xefiZ2fyUEQmuJQBVtIJ+6yNkiwsXFGLdrEiBMgdk6odYyArUFGFOMfBFoQvitgwKvMQjkrxm6+H1xmzB3xj1ZkLPUu8z1BkWgTBw8eDA5yhuLz8RyTrZ4LLxVIXaJRY5DbUEdUomX6H8up0xEBCrAqVOniuwMc5Njb7glPnOFPJYHpSBtAcYumCGvQGIF2PaR4zUBC9ThtrcZsLkSRsP9dhhL3LaB4KalP5TKmBiW14olMlNsp1gKxDy0XInVA9n21lVmEoJqxVLjWwTKhLcX0EIpNosv3ooZ31aXg5ayOug28TU8sepF22L5vdhIKWJbaO2aoJ0kkC+lKBEI2OaWp4QHKNzvqt8xbVIiKueoBHJNpYsUW3QfoOzbeixd0eZpYaSX3hvGtAhUAb7WOFdii+4DlIQJurZDCyO0pVO8R5UrqSW1ItBAWFCQ6K0VqneJ2UBtAT5LZ+RKDF6bcX999pkPIaRGwkWggcDYzIn4msbi3xgI3k1BoBRX3n8+txlSBCqEZdZTI77mWreVbJTaLbGabE+IlC3JbCrsutoQgf6rZe5ykU1bIdRTx0BOy9x4S2rGhEX2349tOZ5AlLV2hQQQ89roXROBNkCgHGnTQJYn84VgBClJRyA+YNlXtuoJlCMpTY0i0IYJFLOBsDsszZFSSuEz52iPsQgUltqKQDMkENtPCJ8aSY3DmFfHlhYOSPDXyxFtYQsgUMzotj6znCI1bBv7mbCLwrdd5whkrD1kYecJZHN8sB94g318he0Kmwcj23rJQpKQZLWodk4hPL3utu2R+/LwidmUiLl5iGptrggb9tQW1wnhc11+m7KOjNxGRWBF8KE3Zl6axaiwmTC8yaHZACxIbDEff285vWQiUCF8DXNqO7LP4JuximdlaQn+zR325K9pRWr+a6mZdev1L+mOFYEG2j+pWsN7WpAFW8Pql5EHDx4U3Ys1K7INQUAfkEy9pq8uiBn5IlAAWmdQ4SwgJaEYpGgF8lsmvL28jah3Ct2xOVh0ftZyRxAidXgBsPyZbRVWt8Oi5bYIGXwOje3QJ1pz7BmfD6uZzlgMgSAAIXsWrW8kXZcL7ktPcwNvXuP4BRtSgwOpLQjp/67QsO6Dt8ViJbc7SSBUM2qcyWBDCsC6goIYpamuL5/z3thYGXC20fCauaOAMbTNG8sZdLWVBII4FIl7dT6loJnwrFKM4DDIh/YYGnvxkWm7nxIC2MzHEo9wawhEGL8rGTml8Oby+7sI4cfjjVlC6mM5KWP3YrBRe2MRe1EEwpj1RuomhS2zy4D1JaklPewhbF6ieXhDjGAfhEztkl08gah5KW3Mm0owaNuCciywjxDnNADG4Ls0wkbDXPiYUO7IvcURCBVL3KPUq6ohhAJiW4HPZQ3xeiCjbV88h6GpCMIJRm6uWxpemD2B+MNKm/FqC8nScCH86N+UifMpHthYQxGsuK1Gkf3epsgT631iG8Ntt6AfXhHubMx1ri0sSkgif3hKaT+6fw6542ZSSJk7dm/2BIIYvkTUbxVtbjQGdi2Xvk8TeU3jB3yX2i5m+1EfNJbXhE1mZkHumJjZE8gGG/hyhZQMss84b1K8246mHFJO6t3uUte9Db7vLXWY+uwJFLa+oFVSJ1DwEIZ0k44p3j0OSy9Kn0fusKs+eC2PvbZ4AkEU723x/1wDb0g36ZgC8e2t9tWIuW+6/SwvxtjeErbk0EqB2RCIvT3MZ5UMw55LoNFqgiwMUerxWF30FCNZvJc4pSFdhUA+cmuZ5hKDcU4Esm3Hd1DkvBTe/skdtZcCXyPUdkzVIgjEH+JtF7auvhP95r6FmRBe8EMVcqaj+jqgqWI1/j4XSyAbveY7LUvhE45zER+RziGQj9XE5g2JQC3xm9JQve/mnFvOrIRAvnVHBEq0fdr6ylMwlzhQl+QQyAchp8ia49XVaDicjEAYyaHNMuRBTVWVOKbk5LL8EKkppooNDXJunEC+rCD3HIm+a81VcrLy/oC4Kbwwf/1FuvFhvmuIK2mtL3OXnDJSX0SWW0Cfu+UvMpAYFoiVvgWlkyo2neJIcTC8dh67/NT3vo2dJpmcQD5INiRbTVZ5Dln4VMnpMQO+tjp2LvwQWKvQGBWT1QkUG0+SSyDspaVsXaU1QV5LjBlM9OUcJScfbpxAYfCwJIDok5RLkdxeLt8MOOZBub4BcuwykSoEipWq5rwJYc3QUiRXy/q/c0xX2183l9SzIFBbzqqvg5NyCF/PuzTJcRTY7sL6pjFsFd+hOoVtVYVAbS06uKttsSA8mE01FI4lLFwqCWLHQ40RUPQ5tsW29fQ17aFWeTPw1jC4S8/amqMQ/+oLmPooNNraNFFs4GYu7FlC5hrTyqoTaBcETUpaA23g5zljKONZGmHQ1PSFmc2I5zRkG/PBySFVDyLQQoRkM/Dlp0POO/UZ/thBdosh0BzrdmoIwTvefN8vFrOTiP9449YHXku9MaZ5WImsTTtbLIHmVjlYS7zRylZkJa8m1DS12UfegSixXbxdVfPUwkkItLQI8pjViaXw21hu3tBrn9pnhk1CoCEn7i1ZhkSTMaZ9+CMnfuNtnzHGzWycQENO3FuyDH3zvRZKHdfrB5bzb85R4bMlkJ91vEsyNJKM4WvVB5CBLbGrWRHyeHOh9ozoyQhEbcuueWJj1R37Wmkjkh23YOeX8f8was/nxprusXECgSXntEpkrLJUXj4y6DlDt/B6a4yzq0qg2OjabZaxbQ+iyjgjXTElNBOpoFojfasSiP18V7axIRPKUj007EovU45smQWBdsmdrzkZfm6YlED+VJxtFRKjubXQIlAG/JlY2yhTl4zuPIHI68x5jO/QvvjaJwTuHIGAH6S9TTJ0KLgIlAgy0D7Ztw1CZeUm3eedIhCgtGGbtrLSudAi0ACUHmc910pCYQNzouc253DosHERqDKIoPq+7SUJHQ9TH14iAiWAwNsczr/INZprHmYrAvWA2pml1E6LPDMkkGmiuW9nlKXU6nAQgQpg9S9zDRTK5pk5gQzUE8/FLuI+atcWi0AjgMiuP7p6E7ktSkbnUmsjAhWCt79mFt+Is8tlGVtFIAPpAorSppqTSH4O+0vE2VICGfCCqLEmij300Dma92h/4TgkRZR3hECh10ZNMFMsIAKF5Ri9Yf01RCHOxMwdtAwE7OpNF3aEQIIIJIhAgiACCSKQIAIJIpAgAgmCCCSIQIIIJIhAgiACCSKQIAIJIpAgiECCCCSIQIIIJAgikCACCSKQIAIJIpAglOMf2JJF7LCpw7IAAAAASUVORK5CYII='
p33
sS'version'
p34
VV6.0\u02b2
p35
sS'uni'
p36
V\U0001f3b3
p37
sS'desc'
p38
V\U0001f3b3 Ten-pin bowling emoji, showing a bowling ball and pins. 
p39
sS'browser'
p40
V\U0001f3b3
p41
sS'annotations'
p42
(lp43
Vball
p44
aVbowling
p45
aVgame
p46
aVobject
p47
aVplace
p48
aVsport
p49
asS'wind'
p50
S'data:image/png;base64,iVBORw0KGgoAAAANSUhEUgAAAEgAAABICAYAAABV7bNHAAAAAXNSR0IArs4c6QAAAARnQU1BAACxjwv8YQUAAAn8SURBVHhe7Zt7bFRZHcdnSrcd2bZb6paFMlS6dRugkRIZUeSRlbAx3T8Mf2wEUnkZ4yP+4booMdmAC/E/NqAmRtkQgSWErrsJAsZGVkNNjGi2JBT7skLZlraUPqZPSls6rd/vueeOd6b3ce7twIyb+STnnse9v3bud875nef40qRJkyZNmjRp0qQxwy9j11RXV29D9AZCpSjQqEU4tXPnzvNa1pwLFy78wO/3b0fyZa1EUDs7O/v7Xbt2/ULmUwJPAkGcKrzMr/CSzyE7unDhwtHJycmsSCTyvPaE722I9GOZjgG2xxD9iOkFCxb0Z2dnT6naJgPXAhnFKSoq6t28efNiect3/fr1vo6OjkKm8czr8bUBtj9F9BbC6MqVKx9XVFQUiBugvr4+3NLS8gySuQhvQaQj4kaSyZCxG16nOMXFxX1GcciGDRsKS0tL+5nGM6KWxPEtXtasWRMxikOYZznTEPeHojAFcCUQfQeiEJpUN8XQSmMJhULPFxQU3EcyKJuTQKaDvLdq1ap8rTQWlvM+vwCjbTJxJRA++CbGqD0BUWBBMBj8lEyWy5iI9OLFi7NFzgLDfaNt0nDbxFbwkpeXt0DkLDDUEGMtE+mSkpKFImeB4b5pDX3aePFBvkAgYCvQJwm3An3MS29v75TIWdDc3Dwkk2MyJn283L17d1zkLDDcF88nG1cCoXf5G2N05ROiwILOzs5HMlknY/JPXpxsu7u7ddtGGScVVwLJcU3n+Ph4Eb7pYa00lpGRkYlwOJwDMYcx+HtHFvvkuEbY3r9/31izorAc9stomyqDRS8+qJqX27dvmzaVxsbGUUS56PE+rKqq+o9WqoEX/wPjhoYGPjMH/W/C9rIoSAG8TjXuIQpiNBzOysqKERkCTctpwyuoBX/WSjXOnz//UkZGxkcc52BQqPupKHa2ycKTQBgw/hov+V2ZNaMWL/gVmY4B4r6P6DUtZ4qlbTLw0sRIi4xNQVOyvK87ehtYO1MGTwKh9jj1MLYC2gEBb8hkSuBJIN0/+KenH2R83FavB//DhzFO2Qx9hu/FNhl4EojOViQmJ0eyTrxdoQd/3wPbQSCBD+JCm883NNjn1jYZeBIIPdGrjGenpx+LgjjQBNfJ5BzQhMQk1D82KpY24oFtUCZTAq9OWpAxOBAjkL+1RZ+J67N5ZTK6uzNl8gUZpwTz6ubpR9jMZLFvNjMzy5ed/Rkk6+CnvqCVxoIm9i6i3Ta2///dPMThi/ClXph99tmX9CBfkM1I81HmLOfFyhZ8VsYpgdcm9jkZmwIBuSJYJbPxOAnAlUjNkacArgWSLx7kjgSXXuMDph5cbiVflXEUuWSrYrtHxknHy67GR4hCnEuZrS1zNl9TU/MYzWwGNen78CfRPTLddv369cMlJSXcMopB2gZgOwzb1/TxVjJxVYPonBGJRXurhfe8vLxAcXHxBJsZsm9qpVHnHOKivJk4RNr2SdtfaqXJRbkG0S/gm/0AHz5jy5Yt/qVLl+bIW6agJnRxbQfJcwjv6raVlZXPUAjxkAVXrlzp5roRkudQi9jcODb6IsLXEdjDma1X/w7hHwh/QbjFgkTgpga9wW+2qKjokZM4ZOPGjZ9GNAphvob4Td3WSRwSCoXyGE9OTn4e0XsInMB+gECBrBbzee84Qj1CA8IrCPNGSSDWHkSVdK7xm4VWUAgKIpvLy25sA4FA5rVr11r27t3LUTdf3C20u4pAodawwCuqNeg7vKxYIXZ9lKmoqBA1gSxbtmxWJm25ceNGT2Fh4fjJkydXyqL5QKFYozzv1KoK9CVeysrKHJuWEdmcxPJqeXk599xtuXTpUjua15JIJBKzLZ0A2PR+piXd4SgQmpcY9+Blu1T8hxG5/ZOrYltbW9u1fft2fTT9JGCP6lokR4HgZMV2c35+fpYocEF/f7/YP8vJyeGpDUs6OjpGtm3bFp3g5ubmth87dqx13759TfBdYVksYJ7lvM/nZLEqFOmbWjJBoAa9jzDb1NQ0CLFccfXq1W4V29LS0rv4V/RRs3j5RlksaG9vH4YQ3LCcXb58+b/D4fAjeUvA53VbF8FurhiDig8Snhk1SF+OUGZiYoIfxtaWfufOnTtR73/8+PEXZVKAgWPeuXMcSvl8Fy9ezFu0aFFMU+Xz8bVMAeWmpuqkfSpjHyvsbHfv3i1TPt+6desa4wUgwWBQrDPh/hJRYIDPr127Vp/DqcKhg1L3ryzQk4COeXR0NOqYb968uVQmY8AzYvURTl8czoqntbXVy5f3PRnbklSBzp49G7N9ze79zJkzbTIrGBwcnNizZ89DplHbHjAvbkj4vFFkF3Bfz3Q+acRxLgYnK2bgO3bs0ApcoM+prGwzMzPDZmMeNjXMwUTPd/To0WyjAOy5Dh8+PMk0PttjDCznc9DqywjXtaRHKBB7ora2tiHZcShz+fLlLitb9k748/G9y9MOjl2+ShNr5kXvkdyAOZWooWa2fX19Sts8HPNAzBFo6qurq+vxMPaxw3Td3IijQPhgov0PDQ2ZbvHYoZ9E82JLKisrG0+fPr2aXT3z7MUaGhoWiZuJwXFKo1KDxDYyaoHpPpYdmF6I8c/09LTr2kcOHjw4x4lSLPoomX3iOAo0MzPzR8ZjY2MzosAFEEivQdOiwCVoTkk/C+kokDwEJU6GaSXq6EursHWcyZtx6NChAZmMwnnbPHsuI1yBtEWliZHbvFgdu3NAnDiLP3ZnNiqOp6ampnz//v1N+tiHa0WbNm3qETcTQ4eMLVEVSJzZ6enpsT3dGg93KRCJ2mN2MhaTz1aZtAQDwdUFBQUBv9/Ppdgl9+7dK5O3EoHj2rWSQOjJxJkd+CFXvsR45Bez8DkCYRDoegKcQOjoHY/cKAmkn+nh6VVRoIhRFDMnv3XrVv0nUMmAvzxyRLWJEZ55znXjh9B7ie4dNXDYzMmzy+ZAUGafJjykzu0hR5QFwkuKQ+Gqfoj+Z2pqirPzTviPv7PMcAI/ypEjR7gV7XY9Z778BGHOZzFDWSC8pDh82d/frzQqNviffyGIgR3EnXPKnrXo1KlTSh82QfwV4bda0hllgbjHrjcV2TvZYvA/FOdPTOhNLh40sxefUlNj0/qGllTDjQ9iLRJNpbW11fSnBEYGBgZEDxWJRN6RhxA62eSsxD1x4sRqlW5/HlCcjQidIqeIK4GA+EEKBm62zYyOXJ6Ybzb8HEGMWq3Ezc/P9926dasMYj6J0666OK7/tqvjLzzdCoeq/C2jSf4GQwSxtFn9vx/0OtLV1VV34MCBkMzOFx5q4M6wJz/n5XwQj7Gs0nKO/Jy+S6b11UkVxmD3bcTcffCyN0/o+7jl/KHIfYLhHhaF6kWgk3cKPMOUkJMdxHUNSjIUi3to4iCoAQ5e6V8Sdi4oTZo0aZKPz/dfOWUGpb5JiKoAAAAASUVORK5CYII='
p51
sS'andr'
p52
S'data:image/png;base64,iVBORw0KGgoAAAANSUhEUgAAAEgAAABECAMAAAAV8YMOAAAABGdBTUEAALGPC/xhBQAAAAFzUkdCAK7OHOkAAAMAUExURUxpcS8vL/zCGy8vL/zCGy8vLy8vL4eHby8vLy8vLy8vL3ijrS8vL3aisPnAG/3CGi8vL3ekri8vLy8vL/zCGy8vL/3LFf3CG/zCG3ijrXijrfzCG3ijrXijrXijrS8vLy8vLy8vLy4uLy8vL3ijrS8vLy8vL/zCG/zCGy8vL/zCGy8vL/zCG3ijrS4uLy8vL3ijrXmjrC8vLy8vLy8vLy8vLy8vLy8vLy8vL3ajr/3DGP3DFv3CGvzCG3ejrvzCG/3CGnejrnijreuyMnijrXijrS8vL3ijrS8vL3ijrXejrnijrXqkqi8vL4+pky8vL/3DGv3DGfzCG/zCG3ejrnyhqS8vLy8vL3ijrXiirS8vL6iNeqCQgsl9WL+CYi8vL3ijrS8vL3ijraCtgi8vL/zCG/7DFv3CGnukqS8vL/3DGnmkq/zCG/zCG/zCG/zCGy8vL3ijrS8vL/zCG3ijrbKIb8KAXauLdy8vLy8vL4VtJ4inm8mdIIxxJj86LXijrY2olfzCG8u3UfnBHvzCG6+wcMy3ULOxbPzCG/zCG62wcpKpkPC/KJGpkaWtfHijrS8vL66Jc4ecnc17Un6gp76CYi8vL7CIcS8vL5+Rg9l1Rch9WI2ZlrmEaM17Uq6Kc4Gfo7mEZ9J5TaiNepGXksV/WrWGbLOHbuNwOklZXfi/Gy8vL3ijrfzCGy0tL/7CGXejrv/EGnajr/7DG/XBIvvBG/jBH3mjrPLAJldMK+64G967PaSufHuiqbOHbj86LcWbIDIxL8+iH5SpjkxDLIKlonykqeWxHMt8VNZ3SdF5T8OAXaeNejc1LqOCJNmpHue9MvrCHYunmOm1Ha6wcf3CGuq+L/S8G4innE9FLH+ippqTiauLdruEZoGfpJyshruzYlxQK41yJrWPIoWmn+K8OMu3UYVsJ51+JH5oJ7Oxa8W1WNm7QmtaKZOXkeNxOt5zP9l1Rr2VIda5RHJfKXNfKGJUKp+sgt6tHqmGI9K5S11QKnijrriFaeptM7yDZP0DT8AAAADxdFJOUwAGC+H7+/4BEcP4B+YUGEDRCz3xtAID6cr7Lu/37eOGvulJysk2ZaowI5N7wrqPbq1SOZOqXB4W7UoTEPZSBEnhhJwHQ/PqPGkZwTdhDP7Ye4gMNrN0QrrOaXQv/Q++UiSakOae0SVqEK+h6Soft2AzoKN1ejrM4p+y/Y6R5p/TwbBA27ia7HoFg99K3PFilzEhLUSd1k7qU+mkfFkE16Gr65H5621ev/QU+v////////////////////////////////////////////////////////////////////////////////////////////72WtWOAAAFWUlEQVRYw6WYZVgbWRSGJ41BkFBoEtyluDsUKVC0aKGlQLeuW5d1d3d3fx4y7JBAgluRYoUuTHHq7uvevTMkITITLsv5N3fmvjny3TMngyA6xl3ha++7Alm43eMqFotXWy8clGkFQOJ9RgsGrSI4Yns6l4ysM9LgQIG2BMhqDZc68H32dulwGUwjcoRNf1tKddMkgPiVgMVQpCR7TDI99d039O66mkCBuIFf9fX823vka93HjRLF8/AI+fiL291NfXe+9A3U3vDm+wTHLhC2cGuPTE7d+WdcnLxhxinTaMV62e2SRondKmhpLC/rvTvRiIHaJW4Dl3lescTqsqTDTcdu9ZbAcxDuW40YRmbDFqhAeCAmByxav2o30TM51f1B6TxEmSBWmmsaEidCdwi5gY+KxfK+7rvvHoINa2meOig5coslivpEJ9kTV/KbTW+/Dgvy8sgXrlGBsAc9UBSNfyJdcSlebQIb1h5WfO4ryUqQZKMMgGKetlUuwIN2xaP4Sy9jStDRKgBibZQoQb7QNVu0G0Xxi51K0EoCVHVUBUpAuKZx90LV/gAAVQ3L1UD4yR+UHu58kf+8peUsaJnRMloS3wZsrRnuxFShfV/foQDJX/ABd72eU2IiEws20DbTPFBvFJddG5VgYgy7egKAro+TIEw+XIOjqE2c4snFB+3AarpOozNdCozP5y9BCRJa39CBdTacBDvxwVEiR5KO01XgCvWJIh8vPfQpWVyrSG1Q/maRSMRisaoJECqtlNX/eZ3cicquyiWSzlM/nSCuqnO2JR1MDPis7PNj42QzyNAGCXNY6IxJpZXVdUNdXV11I2ilVAqSf62h4WINCUVFzxYAT/6e7m26NQEitk3QFUS0BxmUtHqo5fKVG7VjY2N/3bj0R1udVIqjMhk+w8Gf2UnmvbG3qaf7pn1BJlWX27UZeDPSdra2n1OhtNbmXy8PVEsVvqL4BYUUsJKeyU8+fIOmWcaKZC0/N4Pt5bNWUcFpPzuAzqDwmlNKbTb2HV5LqyHhQw80a1AUrPL243UzpNPy2c7wES1H4OzC0cWQqNZfBqSEQ7OHRc87gJFqXE5rFbUt5GFRgVxpJc3wt9DazDaOUCO1t4DiNUgwYBLM1jeDNq5UbQ7Pz62wiKNGapPig7+d7zg/uvKxTPq+5KwTl1kYgrzHU/PpzO9StOpCff1gzZM7tuZHUXM8XXTSwtyLCIrZ6itXRoDMcVKaLJFPbqwpRYKCOTogjou3n6ab/edUyiRYu/m6M0thhPoGCyaPpnRdKlLMU3soHMoK0UiOs2cotRJajytANo/HRlNlyDxFPSR/EGoItUtnhgiSyCMuj7r0DuoZ4hQjSLghtS77fwQgllceTenDNUvG9H9nP49G4JeIvhfPpwEFaWmRrcJke7tvZ2ukmzy9lluoQf5smhPm5AzcdVQHNbeR6faglCM3mO6oFjHAXQeNup2rJDWUu5zquIbQgczCEcTgfo0kKQQQs1WoCzJwpAOxN5mbr9fIe8XDlj5LCPOikCNdrQmLSNFaeMQ0ahFhecL5gXTMj0s/ONCHRmHeeiYQ+mRTmL++WcYPnsNbpw+UyoYGGe/VBwqKgAa5GOgDGcCXzU+gD6TZRvSZhbP+ydHNCRJkaKAflLUfjsN2n2uYNYdzyTB8LhADKksW6+aer8MgCscJZkBM6oXMOUGOYVAjf+hcaTJzg/sXIghN0c8xh/0/IwjVF52hGwJv5rQZ593nOa9PLGEO1O98M/eseX6sEQSt10Gxsx08kfkbw83b0Gm2P/GY21M9Bf/zG5JBYfEmx2wmk2lWFOz+GkxQ/wEu/vKTZJEkhgAAAABJRU5ErkJggg=='
p53
sb.