ccopy_reg
_reconstructor
p0
(cemoji
Emoji
p1
c__builtin__
object
p2
Ntp3
Rp4
(dp5
S'emojipedia_url'
p6
Vhttp://emojipedia.org/cheering-megaphone/
p7
sS'index'
p8
V702
p9
sS'code'
p10
VU+1F4E3
p11
sS'apple'
p12
S'data:image/png;base64,iVBORw0KGgoAAAANSUhEUgAAAEAAAABACAMAAACdt4HsAAAC9FBMVEUAAAAIBAIwJAkAAAAAAAAAAAAGAgAfGgYkGwAAAAAAAAAAAAAAAAAEAgAAAAAEAwAAAAADAQAMCAEAAAAAAAAAAAAAAAAAAAAAAACJZiCMbSMAAAAAAABeRxi4lj9rTxsAAAAAAAAAAAAAAABOLwlZPAuFYyCMbSZLLwZYNAR8XB9qRg+YdCaghTkAAAAAAABUNw1KKARdNgdNMQhDJwSFZySfeyeXeS+BZSVbPhJ9XiJcPBFSLQd0VhiKbCWObyWzkjQAAABWMgRGKgBpSBczFQI/JwM3HAJ2WBqsiy6ngSqdfSc7JANYNAR9WxyTciSykDGqii+Nax+edTHIljJhNQaVXxOMVw+CTgy0jj7VsU/atlB6RwnetUiQWhBTKwPRq0zPp0i3jC6zgiqvfyO/iyzXqD3NnDW8mjK1fSadZRjAji+5jTGIUg+zii3lzWszEQHlyWHp03a6lDKpdB7HnkVoOwa7iSzSpDuzhibWsESvhiv18NKkcBrEkjHEmUN/Sgr/7oJyQQnixFvjvVJMJQP17sKvijulgDX+5XGxdiP+63laOgr/8YucahXr2IVdLgLJpUvDoDn+22SjaxndulLt0WJUPRN8XCNnShq2kiuKZyj10151RQjdwFluPwb84WzsyV/nw1Xv02rQoDurhDiRcy13XCRgPxj13GnuyVSWbR+kfinux0v178v722/QrELkwEjz2ny6jTzQlzTy6LTv3pFDHwi2hiy/mkSqeyD19N+/lULgwFWkeDKwgzjv4JySZCjp1n752l/ot0X/6Yz0zlKheCTh29C5hir/9JLbsETt24r833++hir4+fD98ZWYbCvy5qyUYxeBZSatey/eqTvy6rvAqETKjy+GVyORWBmHYRrw5aTKpTvx4ZR3SBXTuFKdij2jbyn95X1QMB3v6tfWoDePbCv/9Zd7UB6AWBWsmTl0TxKBcSttWSNyUR5sTDCFZ0HVxXvJs17GoUrBjjX97bGYgmrEt5yvnYHgyGji9REVAAAAVHRSTlMAFAhkbQ4LBAEzTigkOiBaLHYXRHtfQalJqidTG/3+/reQsIijMheQYtdCDsvLo5iCj+1DTXjguMUkt3DIkl425p67ErCtjPnf+umgypzDVfvS4v4Ovg8GAAAHF0lEQVR4Xu2XZVTbWRrGSYiShJCQBBgglKJtqXfa7bYd99mdFeIuuLu7u7u7e93d3d1l3GXty15J5+zM0hbYL3vO7vuB/+Vynt997/New+y/LagMgYDOnbueYMsW0OmsORMIbDaTaka1tKLMTU9ms9HYNKbD3OZvYW4SkplMOoM8awCdxDC1rHgu5nx7Bm2WBpCscYNm4UxiUSgMW+bsAPbmZKznL7Umc8HolqxZeWnJoeMGewnLjEigApKV5Sz0NDafihoCGzATKoEImqvefnv5QupME+BZ4a+NOcSRiWaLXN+NAPHRSzN1AA1FdXEmokIS3dfnarXa3IiI1a/OqAQmB2zn40QohPXauKw4sTg34pvXZpKDNYmMOEtIGEhxrWjNkKna2yu2bp2YAYFIskBf/nwCBqwTq0KlUpmqFaQgnPyT+4sADB6qGMGGj/VrV9yTSiQaaYYqThvx3WDS4kUvspCELGQ/TeCtezeDgoIkUllGe0XEt4+OJK0hPldPwauYYmNyYOFnF1NjUmuCNDJZlnjr49PjRyY+pM1gBoJ5TAz46PzlwMCi1CBJqAyY8HhfR/XQnQ+fB7AgwQxpLs40nMD+bT+l+QbG1EikoSpx7tZjf6k+OFrl8Ww9FdfAcp4F5tnt7elJ2AQIQZpQVRwAnAWEyYCXnwng8qz+1cKXvGPVarXfpjOBIIWMOC0AnM2rPjIZ/cqzAHQeUjq7YN7LG9VdQ6OHAAGkIGvX5h47uxMS1H/8w7MsQEUkmGZA9NIPtbS0DB26sglMIjRL+/jYThBj46NJ7y+cfidjCwTzLLGF8pyDHR0dB48cunI9sEajqhh4shNGyvjoxAfTbiwyD20kzhK89T30LYXFxcWFgPDx9SJJRsW3T1Jg7EyZmrzzwXTbgslzgKV4nYPzWZwznplZmplZWA0IZ2pCK75LuZqXNzY2ljI2NVm1ehoCiwPPPod5trgGws7TpedOnCjNLGwZvXK96GbFX/MubN589Sqg5J1SB3i5T3OWIIxpGb6i7z587tynn544kQls2FR0U/z3C/v23b594cJmEOUno70W/dpDvj1aBTZkbIFyCgNKiw8OAUCo+G9byk9t2bIPUECUJ4XZUX99FgiQh0tpJgtOAwDUD9Z1nbz+UDbwfWR41IED5acA5e7duwcmku1ovywCOs2ozjyEc3+ta/zw4dLSzOLByN3KnvigrP7IK+ocwIiKOlAOKOXh+hG8LahEd+SHA48JMa+bI8Crwq7xR48yiwu7s+8r9GmXb4of5Hzs53dSvTs7MhxRov4Re9TOw26Nl9fq1X+GNWFyuBBjY489FHZVdxQWdtS13ddVpoc8vFFyzc+/JyEBMmoBBFDC26qGjwaL/BP87iTDXKw4BIiZL8AbQZjT0j04WNemqIxN33h5/z3H+yKRyB8wACTppLJ2d1t2my7ZoM7p6uwO/2ENrB+JAjHz6bgIQmVnZ11dm65y+66Nex/eGPgq6UxwWhpkAEoPgCQplROGO3XdU1N3t3y/GAGIcEfa4AvBTqjYnd2Zrfhxu1y+d8/+z+q/EBmPx/sGAwjAgIC5+CcGAEu6o6J+gABrcyoC4Ax+K9cp27Jrddvl+XsLzt9odLwW6BNoPH48Pt4XBAAFA4xvTGJCUi0wpHINAtCgEybAb/L1itpaZaUwP7/AGyTwVUBMkY+P0bgNMnD4xvuUGdNE/n5qhdDjZwBzCcsEqNQplYpKeX7vnvM3nOq/MO7Y4WMEABwGADjuU3PR6JsGEGkj8JgToClwl1pgQG+sTqFUxMrlvd77Gwa+vpYcFhZmMBhCYBgMgJHok6oZTjaEAFeMt9ygiQhAceFjDwq26xUKHSyBd/M39Q+qop9GiCEsMdHHZ0dMmaZ1ODksJCTYcPQ95L85OtNJHAzwFup1utj0dAho/PpaAIro6CYgB+LUMolUpdV+fhQSkoc3QIkVvphtndFnQ588Vh+7Cy6i8w2OD6qQvKkJqlPLLkplrQt+v4rzbgkkhI00uKHrgMRFn6VoIaxrzk9Pl+8CCexpdroE9E1NQAvFGllr3PplKxfBWf+u5PPhkZHmt/DbwpyJ9hYHvW1WXiqQ98p3Af0n/U7vN8FxgyTwhmpf8cY6t6f7mPJOyZe3bjm5IQCRj1cA3YUBvOS+90lfwUaob2i8VSbRaKShMlVW3AJXz18+f1cuKCnxNLVtbU0nE8mBSiC7OjUX9BZ4A/2XEiDOAO+cBctB4r+ON99Z9bRJZxNxXmySvbWA7Xipr6/vUn9jIxp6xRvL3F700iPwGbhBZVmwmJRlTv0N/U6OA63t4hWunmtn8sa0tsVjkB0o8Ndljo719SUg8VVvms0sHOxhClSuJRkL1nq6Lvd0I87moW/BIHCZTAJtzv9qWVmz6Eww/tyDzCVTzf534//xT9lFuFp0VQBJAAAAAElFTkSuQmCC'
p13
sS'twit'
p14
S'data:image/png;base64,iVBORw0KGgoAAAANSUhEUgAAAEgAAABICAMAAABiM0N1AAAAq1BMVEUAAABVrO47iMM7iMNVrO5VrO5VrO4iZplVrO47iMNVrO47iMM7iMNVrO5VrO5VrO4iZpkiZpk7iMMiZplVrO4iZplVrO5VrO4iZplVrO47iMNVrO5VrO4iZpkiZpkxe7MiZpkiZpk7iMMiZplTqetCks8la59VrO4iZpk7iMNKnNtCkc5SqOklap4yfLQ8icQsc6k1gLlFltNPo+MveK5QpeYob6RNoeE/jclJ715hAAAAJ3RSTlMAIJ/vcGCfcL9AEI/fgI8wEK9Q31Dvr9+AzxBA7yDPn7+fYFDfcO8oulo0AAABg0lEQVR4Xu2X2VLCMBhGuwASWgoUUVkUxeVP2NyX938yawb9pBknSRuHm5w7bs40hzb5E/wPHo+n05wPOR8e1bNMu+P1lksG/aqSsHkyI6JHvuOqkuU4OyXJB//BenW9Rpu+WW8gGvWt0rZmBOieA35mnDYbE8ADWT1S2JBpAQqZV+rs0qo87IsuzNKqPPMS50ZpdSvD2tS0GrZl0cAorcqmLBpp0moTqZF63TYZ86SKruV6kFaL+lrj5c7IHLRWa3fJmhdVdBmEZM+bKhoGDbIHAhC0XYnoYCIvOvzf7+yFdPaJOPtonW0jzjY2l1stNv9W/c0fx9E71TqOgBCr5U31AxKIAhbWO7IhQv4qQwREOfJXH2vSQpTsTwNUadCKClE8+a2exKvlq/3ol4uCqKwWtzbDKNYmFvAsREGK/MbjMRNfRLvVTSL5kyG/+cCeSFOc5IzlSSwE6iO/9gqBKADJwDTTXWrwTCD5424zv9Nes1gKTcqCOuSRdKVRHjjA4/F8AlR6dvqCJI3gAAAAAElFTkSuQmCC'
p15
sS'gmail'
p16
S'data:image/png;base64,R0lGODlhDgAPALMPAGFOGbKoafrSM9ysLvf0aQgGAYViEvPulzksC1FAFbOFHJR6M591GIuCUhoUBgAAACH5BAEAAA8ALAAAAAAOAA8AAARr8D1njJM4F6OGKVmWMMwwICHGKOuwJClitkvQYGgiCExiMIFDwIE4IAACQEOh+AkO0EMCMFAynYLBLqHzJBaKxYCBGCEQOwGBEKhcCoiCQ7tjIy4S0ENRP9xSD2hqQ4ASBgQCCXqFDgCFDxEAOw=='
p17
sS'related_to'
p18
(lp19
V\U0001f4e2 Public Address Loudspeaker
p20
aV\U0001f3c8 American Football
p21
aV\U0001f3c6 Trophy
p22
asS'name'
p23
Vcheering megaphone
p24
sS'known_as'
p25
(lp26
V\U0001f4e3 Megaphone Emoji
p27
asS'default'
p28
Vemoji
p29
sS'bw'
p30
S'data:image/png;base64,iVBORw0KGgoAAAANSUhEUgAAAJAAAACQCAYAAADnRuK4AAAK/ElEQVR42u2dL7ANURzHbxAEQRAEQRAEQRAEQRAEQRAEQRAEQRBeeDOCIAiCIAiCIAiCIAiCIAiCIAiCIAiCIAhrPm9mZ8773nN2z+67e3fP7vc7s+PPc9+93n729/+cs6os6wBa+UdgGSDLAFkGyDJAlmWALANkGSDLAFmWAbIMkGWALANkWQbIMkCWAbIMkGUZoA3ryZMn1ePHj6t///4ZIKubvn//Xh05cqRarVbVxYsX9/5sgKxsXbt2bQ+e+jp69Gj14sULA2S16/fv39XZs2f3AVRfd+7cqf7+/WuArGYR9zx8+LA6fPjwGkQXLlyofvz4YYCsvFiIGEghIj568+aNAbLy9ODBg+rQoUNrIPH3c8rSDNCA+vr1a3XmzJk1iK5fvz6buMgADSxAIZBWiHBzc4iLDFAPPXr0qHr+/HknV0RKX9eJ6uvkyZN7VsoALSxIrjOtK1euVD9//sx+7bdv39ZcGlC9ffvWAC1Fly5dWisYPnv2LPv1f/782YuBwu8BkKVmaAaog7j558+fjxYMb968uff1XGlcRMb29OlTA7SUGEjjGa7Tp093immwXJrq7+7uGqClpOgxa9S1YPju3bs9N1gqRAboACILi6XoXPfv38/O0gjMjx8/vu/1t2/fNkBLEVZEAeC6evVqdsEQiE6dOrXv9Ts7OwaoZNFlx5Lwa5soCsZcGo3U3FT/169f1blz59YsmQEqVHfv3t27iSdOnKg+fvyY9Rpcj0LE66kB5UKrIE7ZEhmghAiEwwyJ33Mjc1wSo6061kGg/OnTp+zY6vLly0XERAaooeYTsyYMjuWMq3748KE6duxY76ozoOpYyBSzMwOUYYlwQeGNJGB+//59VqpPbUgLhvTRct2ZxkRTg2j2ABGYMoPDzDJPNBetBIJT4MhxSdzIGzdurIFAQTHHkqk74sptf/DeCiEu0gBtORBOXcQmuKqcIJmbrkU/vn9bvYev0+rQ985tXeAyQysIvFPpnc0aIDKf2FRg6sI6cWOagPjy5ctaRx0Lk9MHw+rFCo45+vz5876YiiB9Cl38WQMUe+rD1DrWz+Ki484Na3Ir2lEHqpwBMdxpX4iIu8Lsjs8/9jzRbAEi9omtkOCHHmZRuK5bt26tuSYsF22KpiIgq1BDCweUTeDVIohWy5jrzl6+fLnvtQyljTnZOFuA7t27F7UuVIZTViXW1wKsV69eZafr/HtaG30gyg2sqUep6x1rxnqWAGE1Uu6JflOTKPZpT6pt3ifWx8qBIQZRboqv7pksc4zVHrMECJfUFCy3xQ08zbHsjTgn9VosmKbruLiuEOVmWMCiLY8x+mazA4h4QJ9qZpf7tAXIcrTLjmV7/fp18qbSge96U6kn6XvktD2wtPr5Up/NAGVK4xhiEqDSFDg38OTfxQqBTdu4qAXMgUizMz53TgOWGGzMzGxWAMXqPtyYWFBNzNA1KNfvTRySgkj7aDnuTN0mWV3OKAgZnPbrthVUzwogDSx5iuvAlwKgAtC1EId7UEvUVETUwmFbCwIY1d2SNebAoPHQtrr3qzlbH3bLaHItZE5dn1Sg0y47vaqUu1HXRB2nScCoDVTiqrYMC1er8dA29idazdX6YP7VMpAp6c0Hqq7StkL9fqkxjxAiIG+qK9VFUAqEXbvwwBm+hs/YZeHjYgGKWZ/U06c/ZK62GxoTgareZCxRKjgP4xuC3rZiIxVyraTnZFjqAmnLDFkfWs3R+nBjm1yTbkeXmzbH3IYWEHnvlDsLXSjxWVvbg2Kkfs62DAuLo22ZnAB+sQDFrE9OnKFDYvwZ19EHIt3eLjW+qqOqOVmWxm1YubYh/7CuxM9GY0ED1GB9uJk5JjvmIshk+ph7IFJ3RkAbs0QaJPN5m0ZB+DwaVPN/bsvm+L70yIauCRUNEBCo9ckZNa1FWh3bFLMPRATQClFqNQZWJ3R9WKWm9wy3EM7t3mNNt9EbKxogHTrnz10V68D37SnFYiJcTsw1qgUkyG4SPTN1k0NnWLMGCEujN76L9QnNfWxBYFsc1RSTaT0m5aY0I2ybsdY+GxmXAdqQ9eGH21cEpRpU4xr7jozG1rozwRhzKaEF5D3pbXUpFuaOfxigFuuTMwnYVhzU9Ldveo9i68Lop7VZQABpWnfGqMe2MqzZAqTWp2tjNCWKe5qZcUP7wokF0yA/VrTUsYy2ZijWlh7ZQR+aRQKk1qfLaEaOuMF603NHK2KiIq5WLRb8ajyEy2tyuVPZJnhVuvUZouscGzVtqjC3SUdJUmm7joD0abEYoI7Wp+9NbVNs+U1O+yEl7VHF6jhAFZYBdAWJAdqw9Rl6nXhsISCxSp/AmlpQGOek4NfiKEuqDdAA1oenM2fjpyEg6ntwigbVuLKYalfGAzOUhV0cQGp9YinxNiEChD7FRo2HYiBSdCT4LuFQllWJ1gdX0GVP5qEg6rqZZh3nhN37PlORBuiA1idnW5WhAuvYZg1dTyUkhgq/Tz34b4C2YH1oTo75xMZS/HoUpMs8UdjCGMOiLgYgtT5j934Qo6WxjRvop+VmaCQAYeukxGMOJg+QVmeJF6YSWAKKzv/UGVpuATAsHGLBDNAGpUW1VMYyplJ7Q9erPdpcLTWfLmv2DVDHWCNnW5axBSQ6pB9azLaRkHDScKzkYHYAxazP1A9lY6witZ0egKWmB0M32NRANUAHsD5TmLzLjYtiewvVrQtintBN8fsQOobnDdAA1if3mIEpiOwqtkG5ujaySx1gwxoZoA1bH1ZWliiG02JHfjddBmjD1gfzXvKpxvx/WBUaS/dT2wwboA3WfUo5dC0HJGpDVJ91eL/0/++kAAqfVKzP1IepuoiWTKpmRCoPXGNu11s8QDo73LZ8tyRw9Kjw8CHB6pQIzqQAwsSHB4qUMMrZJqrmuqZdNzGfg4WdBEC6jUlpR1+rxdEGsFqcqU8ZFgVQbJC8RJPeBg4Wp+SMcrIAad1n6ofMdgWHofg5WZxJAYT1CTOvkgargEJP7AnB4WtzBmcSAOn+PENuxbZJcMgQY41T/o6vLQGc0QHC+oRFNazPlIfLDc7EANLzIaZ0DqjBmThAGvvQdJzaGiiDM2GA1PpsY0f1XNXjGKnhMDIujk2wRgKILCvceGkqg/KAQwlBZ3RCcPpsoWeABs68xh6UNzgFAUSWFe5QMeagvMEpECDqPGNbH4NTKEAa+2x7+s7gFAwQN09P4+u7+2mfkgH9Nt0e1+AUABC7TsSO397G+qcanNQyG4MzcYBS++kMbX3awMlZLWqNDNDOzs7ajWPikC3dhmyYMpTfBA5glbDr1+IB0jEHJg6HFNlcamDd4BQIED2icP+coVwG3zc1d2xwCo+Bwn2WN334K8Ev7jDWr2JExODMACA9RKTtZL4ccYBJanwUcGiTlLpVnAGKSA8RYX1Un6ExdodntjhmcSgMsrWKwZkhQLW7CeOhLhABDnvrNIGzjc3GrREBqtPrEII2iAjCUzM5xFPUmAzOggCK1YY48yoW6LJbaQwcKtqAY1e1UICQnoFOJqVA6DHegMPxAFM4YNYaGSCku3dRoQ5ni5kRCnc6LXnjAQM0kJiJDt0UATFFQT3NZo5LgQ3QhgQs2qkPszVAcrxjgBqFhQldlh5gYhmgLJF5hZOCBNJuRRigTiLLwuoYHgNkGSDLMkCWAbIMkGWALMsAWQbIMkCWAbIsA2QZIMsAWQbIMkCWZYAsA2QZIMsAWZYBsgyQZYAsA2RZBsgyQNZE9R/Ki6okLaBGogAAAABJRU5ErkJggg=='
p31
sS'version'
p32
VV6.0\u02b2
p33
sS'uni'
p34
V\U0001f4e3
p35
sS'desc'
p36
V\U0001f4e3 
p37
sS'browser'
p38
V\U0001f4e3
p39
sS'annotations'
p40
(lp41
Vcheering
p42
aVcommunication
p43
aVmegaphone
p44
aVobject
p45
aVsound
p46
asS'wind'
p47
S'data:image/png;base64,iVBORw0KGgoAAAANSUhEUgAAAEgAAABICAYAAABV7bNHAAAAAXNSR0IArs4c6QAAAARnQU1BAACxjwv8YQUAAAZ4SURBVHhe7ZtLaFxVGMfPuZPulDxoEqFudHyAG61WFF1YdaFgUCZRKr6KVKGbalREJZksmgSsCEIUFVuVVpRqTWZhC3Eh2oWl0IAvEOpz46sxpgm4Mzmf3/fd707u3NyZOTdzb2YGzg9mznfO7SR3/vke53GrHA6Hw+FwOBwOh8PhcLQZWtqWpNTXVQSl78ab3KG0fqxwbvFtubRptKRA0z09F+sOKLEwYSxFGh8ff5XaYrG4jwcaoOUEihUH1CLeaQ+bBnYOLiyd5PEYUJx9Wusp6Z4FgGEUalb6ifGkbRl0hzkU9RwD8IiYeMf6ZbGq8SOKsiz2lfg6OjExsfb5hLSUQJhzXtJK3yFdBpSaG1pYOoHWGPVJPMpNfDEG8hbP825Ckeaoj97UifbURkVqmRAr9XfvQjWOSrcMKPh0cH7pTrJLfd0/YZOnkDOr+uqhxcXfaJwgAVCMuZGRke9liMLtOI7dRTZ5FQkXvm5DS3hQqbfzGmXU69KtijHwJBuYj7wO8yjbCAoxis1hY8wpykH+KHvTAAqD3ud7El4/zBcS0HSBKCmD9g4GSbgWFGrkUdwBPUyfZVupfnojEfA1hSK9yKOIiBSE2w68xhXOlqYL5OXMWDQp1wKM8r9gyIswdN5AET7icQSFeC4sEl7fTSEm3YcnJyevErsuTRWo1Nc5jN/mcela4Sds9bPf07vpnfIKesouFOEAD/vsDRKz5J33yJZQe4ZsG5omUKm/Zw/++lekmxDzmhh5Tu4CivR8IBIJgXY4H+3D/u/SraiUtWiKQCwOwCHpJsas5D4WkyZJt4vFiEg8kZScUw415Et6w/FttmV/0wVKKo4Gfb2YZfzyDsf8nh7y2wrCopQFRGG4ohEoIpf/emyqQKXerrcSe0616qY9v5rh9XCYEehFsyhAUN7Ji3geNTo6eiQUZpdKW5NNEWhma9ctM33dZ/BuEyXkAPq8mGXMf8oXiIiEmXBaWmKntMSf9EbCca8OmQpE8xRePnj6iySlPIrO6YvELFMRZlrfxm0I9KIJMYlLpCW+lVbZlPtMBBJhil4OvsG7f1aGNw7AFWJFgFNi5Hk2HqFeOGG5j/O8ClIViG6SPEaE2W8zO7YBF6w3i1kBGP2VmPhNcteJFYbDqRFSEYgq00xf1ywmTrxh9JiUhAmIq2QE7wvRXhEBhrY2UmfDAom3FEu93f9QZYpuU6QKVaqYECJAwxlulb6VByq5XNpYcAnymZhVSSwQC0Pl2veW1MKoLvEhhL9eJn+RIkAJGCtVp3R/kZbghS1hs/WRSCDeqCJhNliuG8KYG8SqROsfxKqYDmACDs+Uf5WWyvtlYp6VtibWArHXkMc0jdgZs4JV+EtMSuYXiEmUKxSG0hFqpaxzrsIKh4WkPlYC8fKgGV4TBkM5bsIY3sD3PHUttbK7yCGHQpwMQiniVd9JWxM7DwJ4Qaymoj0Vv34KKpmAooSr3rS0xEP0hteXIxPJqtiGWF7aJqMHxahgrZL58yXZQDuBr3dQCN5gw/XYKHrVNrKRtWVKHRIl6RYgHxdmUWQDbQBfe2SIuFFa4l1p69JuAmEqVA+KmRTyGjpIPIDCWR8kWh370Eq8kcVmqsQc+dAsniaq4SOitLDyIK3gczGbD1Yzb4v9lmmjWAkERpV34lqCTayqVgL5c41gi7MlyPub/tljnaTNivc0nZNLt/mgF4UODjPDWiBKirCiC3hjB2XIEjhmDAwEr8L8eU2v8Bj+mzHxUDnvsiLvdZgnyAh2EoKFa5pYVbE4prd2Vcxq8Qf9yyU4dkmCIqEHhitPNXhbg1buYPBL6/tkuAbmKfw7++drGTyFtmGB4iDRPE8fl24EGCvML41LxwoKIapYOHfZazXNALO98Pfy19JLhVQFIsqPqKwjuUBh2LO0fgBvmZYb635+FnMgIgOBOofLLh9Gq/sL585/KL2GoOWG9mA7/tALeUB7f2T1gGfqAnFY0KZ9ZKeRkrE8eNBWWFcxW+S8KrzFwHha3SNmW5G6QASAel/MNbC6+buS7UUmAtHMO3ZSSSJxjmofMhGI0Fq/KWYESaxtQmYC8cMFka1QBuATsdqCzATiZK1hXek1q7kFMduCzARiAD4Qq4y3BWLP2VuVTAXiaX90cVv1SY3WJFsPQsyqt7+iooVOQtuB1GfScfDsumP1Xnpcpdb/1HE4HA6Hw+FwONoEpf4Hx9yC5THUk0IAAAAASUVORK5CYII='
p48
sS'andr'
p49
S'data:image/png;base64,iVBORw0KGgoAAAANSUhEUgAAAEgAAABECAMAAAAV8YMOAAAABGdBTUEAALGPC/xhBQAAAAFzUkdCAK7OHOkAAAMAUExURUxpce1sMO1sMIVcUoVcUoVcUoVcUptfS4VcUoVcUoVcUoVcUoVcUoVcUoVcUoRcUoFbU4VcUu1sMIVcUoVcUoVcUoVcUu1sMO1sMO1sMO1sMO5sL4VcUoVcUoVcUoVcUoVcUoVcUoVcUoVcUu1sMO1sMIVcUu1sMO9sL+1sMO1sMO1sMIVcUoVcUoVcUoVcUoVcUoVcUoVcUoVcUoVcUu1sMO1sMO1sMO1sMO1sMO1sMO1sMO1sMIVcUoVcUoVcUoVcUvBsL4VcUoVcUoVcUoVcUoVcUoVcUoVcUoVcUoVcUoVcUoVcUoVcUoVcUoVcUoVcUu1sMO1sMO1sMO1sMO1sMO1sMO1sMO1sMIVcUu1sMO1sMO1sMO1sMIVcUoVcUoVcUoVcUoVcUoVcUoVcUoVcUoVcUu1sMIVcUoVcUoVcUoVcUu1sMO1sMO1sMO1sMO1sMO1sMIVcUu1sMO1sMIVcUu1sMO1sMIVcUoVcUoVcUvzCG4VcUoRbUu1sMP////3DGoRbU/3DG/zCGYNbU4heUfrAHIZdUYthT41iTv3CGI9kTf7EGva9Hv/EGphsSfW8HqN2RNijLPvBG4lfUPC4IPS7H7qKOfzDHq9/P+21IoNaU7iHOqd5Qve+Hc+bML+NN5NoS4RcUoRbUeOsJ6l7Qf3CG8WTNPm/HZJnTJVqSuuzI////v/9+K1+P8uXMsiVM9WhLdGcL82aMIhfUKt8QJBlTfvBHJRpS/3FIaBzRvzJNdOeLv3GJtqlKuavJZ9yRrGCPr2MOLaGO8KQNuGrKOCpKLSEPP7fhumyJOewJd6nKZBmTP/+/P/77v7pqv7z0P/56eWuJv7SVv/88v7lnP79/f723Zh1bf3XaP3ILbukn5tvSPK5IP3PSp1wR/3LPv3bdf7ikf7jlu+2IP7rs/7vxP7npIdfV/7uwcm3s/Tt3v3PTf7016eAXf3cfevk4v/12ube282fSO3XqP3ZcIZeVf7wyJJtZP/34I5kTv3giv3MQf3QUP7DGP3TW5mkL9sAAAB7dFJOUwAC/UP3+kwBAv4E/OdSmA8N7PcSGRWKe4gXBSUec887t/OkIzUt5LAMXd7GfRO9BzMvsePgjQQ9INrl6xNAtMvvB66eXYRFbHm51JLBb/XECpTxT0iDGWC23MlEvGYt0mI42cdWjr9vqVmHKvN+mh6pQtPUIYLLdkiN11DKLd0AAAZpSURBVFjDrZd3XFNXFMcjO2EjS1kyrKKiCKh1o9aBA/euo+7Rvdt3b/JGZgmGQJghYVSmyl6CUkCGCC4cXeKq3Xu3dN6XoAR8SdBw/oJ87vt+fmfdcy6LNTibtTVo1jCW6Wb9xswZr3uONh00cgwX2ZZXTQbNe5oGjfMaGkVmnlNNBk19kRY0BDEa9jwCDYEglvUULnf6EAhisTy4Zh5DUUesYO6WF4aCw3rS4yWTvrfhcGysTRXB2X7Q/cDEffOXLZ7tagKMYx4QzgYAQgiAv6/Dm44PHxm7f8qTRjnDFzojCiHoiYlREAQE/qP2DETNW+/CHTPCGGeBLeJIUstaW1pLm1U9SFf0HHNOv9LauAZ1zXOGa8JpmSXi3IjPl+I4LsViW9M7kYd2r7nqnAmabryPbXwsEEfWgmO9hguPNiogsI0KfXBmg+Y+4D47zRBoth0AoKKcxPoMV2fIkKiXrXrzN9LTjObMWL3BAMctCnGIW926ICyXfE+Ffg6315LWzUQBesUzaKQhx1agAAF+cgLW36SJbYLsXtKw9dyZm7YZSX7gDkBbuXQACCNjmwQQhFvRh7w2Bo011hUTbGmOovQhEEaqmwQA7Jg8uJL29gUCATMIaTojAiAsZFBX2GJLkTwGAsEpBhBGdldCYDmBMwiQ23KYlZEFAVHCBMLw9hsEsJs9CJB9NGxLkxGAny7EGEnxPdkgbLhRzqQAIOkQyvmAqI1jBGHVmQBEP2UUNPkJvioWO0MAGHMUZwSR9xog2OdmDLSEXZGB42UoNyCPZJaEnxIblxSynLh1j8TP0dGWJzGTcmMrCTDH0TDI3B9korP5OXwAxPFSPZLixcDZz3AR7YVVdGjIn39DbVukZgaRcSqCvdAgyNWXX4m+pj765YN3AZDU43okFQvARIO+WUULMtDH1K8nPkYgQqUnSmR7FnQ21HE2DoQsjUSCfuf99AciCYqZFWHqIr6tobx5LyXSq5GgOyd412lJsLCL2TlpHgCHDLWHhbheilF1l3g83g90lGAOs3PSeHH2AYOe1SYhQd+fR6DrX32BilKUydhxZFcnnLgK3dwjvEZPWxu8ddZAz2Az4tR9y6Pt6++QpGxxBnOb1BArHcfuHzN++gwXMzOXARuPvUXMUVSDZ2lBvBNnW7II5FzMqQSG4k4qJFY6eY3j9trqfiCOA1+lxqjbP9Kc45+fpooV2YhUxUAij2XB5Y7zgse7aEEeA6oRlJBYyt3jNOjLOgpTJ9O9CzvLhAMjjndI4KhJaEpu06Bc1vavRv+Cczj195805/2bFH2vptJjAEryYgdUAY7Sv0A7cIM3reGO77dK2BziV+ZTKZ/Qgi58SGk8SNSSKhrb+2kik+QEe8X95WadZ/+xHbJblIFTNy9rAp1Cab9ILNLMOCDLiNO5CshyBYh8Rl8V+TkXHsNTriFBxy+eph5MjXS0PKC2U+TUx+J4rsavhFJ0XUXpa1rrJfxUIfUPLeizOkpnJpZ0ErQmQqwqPheH4Xh+e2YPBBY79a5EowRleMpFOtDfULolk9AhF0ENSlQgb0xOzykE6N85eudIqJ0s7Z0rFx4EWiciic01UIOCfCWESvrPzXojZO1jm5p/8lMU6L9SqIHll9CVXgAI0GebrfSuuU5horx//7vK4/UFWrduhF2ZDRJRL4a921z/uhwYLmmhBV26TTF26ZGE9mSJFhPu7q33/ghc5G5Rcw9F6PIVJj24MC0+uUHDidzns13vCuG28G1/gAbsNd7VOw9B0E7bVZ4q0yzb0XPdzQ1Mfc5bbJQUZfLpS+fvntQVRGqkNMmrAIEiHTnX3crV4AwKtQMxqQXKzJPX7vYFOhfHse6WkiJZBeSjjSgiaom50XG/gl1RnNigbKtOuZ94Eifj2svOoDwhiK3dyr17Dq8axEtqGSE7Vt2orOmS9vqjTovPVHUKkD9s57kOO0MdbQb3DHKAhe1HShWwtlWdIIxL7MgrKhRDfjY70nfBYr8QDmuwZuMOFPFStGUSVZXJ6fIaCUD+RO8K8PFznfRoL7ODlkSqGk9KliiVfD4BocWu+RMWeT8iRFPUS4GiHMPz69t6ADsCQQIfA6LtV0tYVdJNHkE7aITfY0K0r7wANhTUNjXLRSDAhmWKuTr4AyIb3Vd25iY+qFfZh0U4O4dH2XNYpprTYSuryY4mAP4HXeMbXwS28+kAAAAASUVORK5CYII='
p50
sb.