ccopy_reg
_reconstructor
p0
(cemoji
Emoji
p1
c__builtin__
object
p2
Ntp3
Rp4
(dp5
S'emojipedia_url'
p6
Vhttp://emojipedia.org/black-square-for-stop/
p7
sS'index'
p8
V721
p9
sS'code'
p10
VU+23F9
p11
sS'apple'
p12
S''
p13
sS'twit'
p14
g13
sS'gmail'
p15
g13
sS'related_to'
p16
(lp17
sS'name'
p18
Vblack square for stop
p19
sS'known_as'
p20
(lp21
sS'default'
p22
Vtext
p23
sS'bw'
p24
S'data:image/png;base64,iVBORw0KGgoAAAANSUhEUgAAAJAAAACQCAYAAADnRuK4AAABfklEQVR42u3SQQ0AIAwEwUrFCVKQgBQklaChL2A2OQOXiZQKhQsEkAASQAJIAkgACSABJAEkgASQAJIAEkACSABJAAkgASSABJAEkAASQAJIAkgACSABJAGk5wDNObO1ZoWdD78F1HvPiLDCzocAGUAAAQQQQAABBJABBBBAAAEEEEAAGUAAAQQQQAABBJABBBBAAAEEEEAAGUAQAAQQQAABBBBAABlAAAEEEEAAAQSQAQQQQAABBBBAABlAAAEEEEAAAQSQAQQQQAABBBBAAAEEkAEEEEAAAQQQQAAZQAABBBBAAAEEkAEEEEAAAQQQQAAZQAABBBBAAAEEEEAAGUAAAQQQQAABBJABBBBAAAEEEEAAGUAAAQQQQAABBJABBBBAAAEEEEAAGUAQAAQQQAABBBBAABlAAAEEEEB3AFpr5RjDCjsffgtI9weQABJAAkgASQAJIAEkgCSABJAAEkASQAJIAAkgCSABJIAEkACSABJAAkgASQAJIAGkp9u9MTNbUXtnNwAAAABJRU5ErkJggg=='
p25
sS'version'
p26
VV7.0\u02b7
p27
sS'uni'
p28
g13
sS'desc'
p29
g13
sS'browser'
p30
V\u23f9
p31
sS'annotations'
p32
(lp33
Vsound
p34
aVsquare
p35
aVstop
p36
aVsymbol
p37
asS'wind'
p38
g13
sS'andr'
p39
g13
sb.