ccopy_reg
_reconstructor
p0
(cemoji
Emoji
p1
c__builtin__
object
p2
Ntp3
Rp4
(dp5
S'emojipedia_url'
p6
Vhttp://emojipedia.org/black-circle-for-record/
p7
sS'index'
p8
V722
p9
sS'code'
p10
VU+23FA
p11
sS'apple'
p12
S''
p13
sS'twit'
p14
g13
sS'gmail'
p15
g13
sS'related_to'
p16
(lp17
sS'name'
p18
Vblack circle for record
p19
sS'known_as'
p20
(lp21
sS'default'
p22
Vtext
p23
sS'bw'
p24
S'data:image/png;base64,iVBORw0KGgoAAAANSUhEUgAAAJAAAACQCAYAAADnRuK4AAAFQElEQVR42u2dLzSsXRSHJwiCIAiCIAiCIAjCBHGCIAiCIAiCIAiCtQRhgiAIgiAIoiAIgiAIEwRBECaIgiAIwvnW71131hrude/M+37j7H3O86y1E2uYd545f/fZpxYAKlDjEQACAQIBAgECASAQIBAgECAQAAIBAgECAQIBIBAgECAQIBAAAgECAQIBAgECASAQIBAgECAQAAIBAgECAQIBIBAg0IB4enoKl5eX4fT0NDSbzbCzsxPW1tY+xfb2dtjb2wtHR0fF7z48PIS3tzcEyu0NPz8/F6JsbGyEer0ehoeHQ61WKxVDQ0NhamqqEEyvqddGoARpt9tFyzE7O1t86GWF6SUk1O7ubtGqIZBzrq6uQqPRGLg034X+9sXFRfj4+EAgT2iMMj09HUWa71oliYRAxrm7uyvGNVbE+RrqQvU/IpAx3t/fi3FHrK6q39ja2kpmBudeIE2n1UV4EOdrt9ZqtRAoJppZeWl1vovDw0MEitFlaWHPszjdsbm5WbwnBPoBXl9fw+LiYjLydGJhYaF4bwg0YHnm5+eTk6cTMzMz4eXlBYEGJc/c3Fyy8nRP9T1J5EIgjQ9Sbnm+hr4oXsZELgRaWlrKRp7ubRAPWyDmBdKueW7ydGJ9fR2BqnBycpKtPJ3QWhcClVxhHhsby16gkZGR4lkgUJ9Y3hT96dCzsDoeMimQNkYR53MozRaBekCZfGq2keb39FmLXZk5gXKcsvcztUegv3B/f+9+d33QoWeEQN+gbxiS/HvTFYH+wOPjI61Pj2FpLGRGIKV5Ikfv+UMI9GWzdHR0FDn6WFy0klNtQqDz83PE6DN0EhaBfqGjwUjRX6ysrCCQUFPMwmG5hUULKbDRBbq+vkaIkqETuNkLtL+/jwwlQ3uG2Qu0vLyMDCVDp1OyF8jjqVIrMTExkbdAGgSy+lwtYg+kowqkjUEk8L25GlWgm5sbJKgYsesORRXo7OwMCZyvSEcVSJUpkMB3dY+oAqlsLhJUCz1DBCIQCIEQCIEQyJdAx8fHSFAx9AyzFYhEMqbxLCRGDlXjz1YgncRAgmqhZ5itQEqmr3JbTu6hZxe7kln0dA5Ld1p4Cz277POBcq5AlkIFs+gCsR9WPg4ODhCInKDycXt7i0CCtNb+Q+X/LFQtMyEQFcnKXRllARMCsaDYf+g8HQJ1oRL/iNH7nRpWMCMQG6s+7xgzI5DOyFPipbfSLpauhTJV4i6lS+RSHzybFEjfLFqhv+99WbuUzlyZX4ot2C6mYF4gLY6xsPh7TE5Omrwq3ORVB1oX4sz852JSVtZ9XAgkVIkUeexVZXUjkBKlyBWqFd255ducTV84p4LaOddP1HtvtVqWPyL7V16qDmCu46HYlTeSEEg0m02m7AhUjZxSXz1ctutOoFwkWl1ddXHdt0uBRMqXsqjl8SSPS4E6Y6LUBtbawvGIS4GEVmZT2HjVVN3DbCs5gTrrRJ4zGZVZaPlO+OQFEhoz6EpsTwuO6n6V+2RxczQ7gTrojJSH1kitjjaLUyEZgTqtkU5rjo+PmzzHpf8tdjEEBOoBfUia1VgQSf+DVpVT6K6yEai7RVIVNF2V/dPi1Ov14m+n1uJkJVA3KsSkVmmQKSJKvVDRy9j3VyDQgGm320XroK6l0WgU1yaV6ZrUsmkGqNfSa+ZIlgL9CY1RtCajGZLqDqp4ZXcorUQ/0++kOp5BIEAgQCBAIAAEAgQCBAIEAkAgQCBAIEAgAAQCBAIEAgQCBAJAIEAgQCBAIAAEAgQCBAIEAkAgQCBAIEAgAASC/5P/AOGFevpSFjnIAAAAAElFTkSuQmCC'
p25
sS'version'
p26
VV7.0\u02b7
p27
sS'uni'
p28
g13
sS'desc'
p29
g13
sS'browser'
p30
V\u23fa
p31
sS'annotations'
p32
(lp33
Vcircle
p34
aVrecord
p35
aVsound
p36
aVsymbol
p37
asS'wind'
p38
g13
sS'andr'
p39
g13
sb.