ccopy_reg
_reconstructor
p0
(cemoji
Emoji
p1
c__builtin__
object
p2
Ntp3
Rp4
(dp5
S'emojipedia_url'
p6
Vhttp://emojipedia.org/eject-symbol/
p7
sS'index'
p8
V723
p9
sS'code'
p10
VU+23CF
p11
sS'apple'
p12
S''
p13
sS'twit'
p14
g13
sS'gmail'
p15
g13
sS'related_to'
p16
(lp17
sS'name'
p18
Veject symbol
p19
sS'known_as'
p20
(lp21
sS'default'
p22
Vtext
p23
sS'bw'
p24
S'data:image/png;base64,iVBORw0KGgoAAAANSUhEUgAAAJAAAACQCAYAAADnRuK4AAACS0lEQVR42u3csW3CQBSA4SsoGINRGINhkCgoKCgoKCgoKCgoKD0WA1A6ciRLkRMlwSbk/O77pbfA6dM7y1ikWhpQcgQCSAAJIAEkASSABJAAkgASQAJIAEkACSABJIAkgASQABJAAkgCSAAJIAEkASSABJAAkgASQAJIAEkACSABJIACdzqd6uPx6CAA6odnMpnUKaV6s9k4EID64Wlnv987GIB+7nw+f8LTjusMoIc3T3dsIoB642lnt9s5MID64XGdATQYTzvr9RogePrhgahwQM/A4zorFNAz8ZT+YJ3ged4sl0uA4Bk2h8MBIHggAuif8LSzWq0AgmfYlPArfoLnb2e73QI0xr77Vf3VE/k6Cwmoqqps8ERHlCJunul0mhWeyC8bQwHK4ZmntE2U4Hn9RHpjneCxiYoGNEY8kTZRgscmKhJQBDwRNlGCB6KiAEXEM2ZECR6IigBUAp4xPlgneGyi0IBKxDMmRAke11lIQDl9z2MTjQzQ5XLJ9pMMmyhzQDbPuDZRVoDu9/s7oObZx3w9t9sNIMUJIAEkgASQAJIAEkACSABJAAkgAfRYi8Wins/n5sM0ZwLQL5vNZj7f6ExzJgABBBBAAAEEEEAAAQQQQAABBBBAAAEEEEAAAQQQQAABBBBA0AAEEEAAAQQQQAAZgAACCCCAAAIIIIAAAggggAACCCCAAAKo2/V69Z/QnWnOBCCFCyABJIAEkACSABJAAkgASQAJIAEkgCSABJAAEkASQAJIAAkgASQBJIAEkACSABJAyr03TExXK6KOawwAAAAASUVORK5CYII='
p25
sS'version'
p26
VV4.0\u02e3
p27
sS'uni'
p28
g13
sS'desc'
p29
g13
sS'browser'
p30
V\u23cf
p31
sS'annotations'
p32
(lp33
Veject
p34
aVsound
p35
aVsymbol
p36
asS'wind'
p37
S'data:image/png;base64,iVBORw0KGgoAAAANSUhEUgAAAEgAAABICAYAAABV7bNHAAAAAXNSR0IArs4c6QAAAARnQU1BAACxjwv8YQUAAAEvSURBVHhe7dixTcNAGMVxQwaAAWhp02cAJmADNmAH+pTMwAw06cIASAwAFUvAe7EtgnXRZzk5hO/+P+kpl3TfKz6f0wAAAAAAAAAAAKAEi+7zv7hXzpSP3Tf8slK+lE/l2j/ghwtxMS7I2SiXCsRFuJC+nD4PCsRFDMvpc6tUzQWkitnPUqmSB08VMox3U3X7yAPvL+Uo3lFVSS3lKL4jVcGDpgoYkxulaB4wNfjYFH2JHF4Gp+ZVKW5pH7oMTs2jUhQPlBr0mNwpRfAgqQFPkdlfIsdeBqfGO+1Kycb/veTkV4mL9pjNm7JtjwBmJvcO+otH8bvy3B7nJ/XkOXWelGzOu08cQEEBCgpQUICCAhQUoKAABQUoKJD7VSPrLbfzoqzbIwAAAAAAAICMmuYbQWbmUrgjiGMAAAAASUVORK5CYII='
p38
sS'andr'
p39
g13
sb.