ccopy_reg
_reconstructor
p0
(cemoji
Emoji
p1
c__builtin__
object
p2
Ntp3
Rp4
(dp5
S'emojipedia_url'
p6
Vhttp://emojipedia.org/keycap-digit-zero/
p7
sS'index'
p8
V747
p9
sS'code'
p10
VU+0030 U+20E3
p11
sS'apple'
p12
S'data:image/png;base64,iVBORw0KGgoAAAANSUhEUgAAAEAAAABACAMAAACdt4HsAAAC/VBMVEUAAAAAAAA2SWI0Rlw7UXI8UXY3TGYAAAAAAAE1R2E3TWw5Tm85UHIzRVk9UnoXFy4AAAA5TWwtPVEcKDEAAAAjLzw9VHwAAAAuP1IyRmQ1RGExRGI6UHIwQ1QmNUMxRFUfKjkAAAYnN0kAAAAUHCQXGyM0Rl01R1w8Uno4TXQ0Rmk1R2s3TGw1SGhDWXozRWM1SWdefp5khaZggaBhgqFfgaBegJ9ff55cfZxNaIdliKhZepZmiahig6JZe5hMZ4VafJpKZYJdfp1WdpNFXXtTcY9PbYtcgKFpi6pbfZtJY4BOaoprjq5ZeJc+VG6Xr8R6l7E+b5vBzttykK2Npr/49fhfgZ9DWnQ8Umk/VnCjtsnZ4ektYpMcTIR5gapdd6MyRoIWRYCys8wsQX4/UopLeaDT4Ox5m7yGpsVljbFuk7Zuk7dukrVzl7qBosGduNONrMqjvtiEpMJ/ocB8nbxqkLFnjrJSbpHB0+RVdZqlwNr09/ra5O59ocN3ocZwlLetxdx+n75nja+at9KivNZqj7Cgu9ZqkbZTcJR2mbqJqcmQrsyKqsloj7Tq7/Xf6fFskbSJqMeMqsijvdhiia2FpcPd5/BtkrVli6+Co8Jni6ulv9mowttQa43K2OXy9PiWs9CYtdH9/v6TsMyXtNBji69/n763zuKqwdfn7vRchKlHX4Z2nL9Zep2vx95omMORttRxnsaFrM1TcJWRsc5hg6SDpshQbZOfutSlv9j7/P20yNprkLLl6/GRrsqWssygutVhh6p7nr9bfKBpjq9dgKTq8vhZe6Cpw9v///9glsKyxtiZttFihKNGX374+vxwk7WUss9Vc5dmiKljhaR8p8zT3udeg6Xv8/dghadjhqdNaIxLZIenwtpXd5xoi61kh6e6zd9Rf6ZbfaOBob9oja2Ip8WSsMtkhqaduNRmiqrM3uyfutaRr8umwdvt8faetsvG1OGBob6mwtpwk7OhvdePrcqrv9Omu8+ywdWHorxWgKXh6vGnwdtskLASrptfAAAAMXRSTlMACs/Pyc/PJh7Rz8/R0M8EGsa2ThJvzyHAVRou3cqL1Fkojic/QOPixqs6e7ew+3anu/9NxwAABbBJREFUeF7clEWPG0kYhvewk0MySuRLpMnkBwThVzWbmZmZ2cPMzMw8YWamZSatXN3jrh6vnOS6z8V6Ve/3dLm61F/9v6i9fIXH+/oT8HhXLtf+p6CGd+lBXulyDVXE5VLmH1zi1ZQJTl3cVfasdMbs1H5FKHusc6VHuXvx1KHdV99fWsAF7QXdTKAiM7pCuwBfWLpfXct5/umxkdSiSjtZ1xFMVCTYUTepVS2mRsZOw3u4kL+LiwJapM20nnv4YwUe5tZNbYg2IMLv5i9A59e1ovDdSfRmNbnc+ifI5TTZ3sQdn2Klq3SSJ6rUqe4EktX8/ZloskiiO6WuOsEIznXd9pt0Uc03n40mqjP5b3edYwTnx1q6EZM4+wWITUh3y9h5RnBWjXtVDvEX4VB5cfVZRnBmzW81OX4uZ2JCbHM4ij9lSw6T1b92hhGcXHIKo44yovODfZtF+gwNUVvZqtC5dPJA8NzZbPtwGNvg5s1eZHV1Najq3xx465g/tNzsfA4JhuffHmLcMPB+44DV/s36cW5hfpgjEAmtXISGQe0GRFtfM7ciFLGC42tOn3Wbg9Vzc2+DQ9sAt2L1OdeOlwR+T0Mzh6uGIDO4N8kY+kc5nQaPHxaE66/C1I+K6alE+7jte1oRNHArYVZQ1aPA5po46P8CAp1X5PVGphpB2B6FG3OYoqeqJLBImj5CvA4P09u3iorRh4BU0L+GOk0SCyt4ZJHO/gIxq38KBEgYRE87SN+ORuCO1PIIErgjHPQ6IJjCQPJ8rCumxiYM7rhZQbXaQqYjYZZX6QCYEGJ0jieAb0LPViJp0qKuLgkeE3zsFYskAi6BdjZOZ0EBCJ4ushWMTzwuCY5dy1AkX4phcQbBbCP403EJnc30kRRQpoBhUj5JZa4dYwVJI0m6W9OSNGBxDgwEpAI6o1Mg30JBkqRb3SRpTLKCo0PvQgRJEiQfNb8oImME5tYXAPcWIygGM8oni+3Qu6GjBwLX9WmKIIhkMkkY3ajMjDICmbkVcCBwy1C3EdQIgpq+7mIFT+ShJE0oFEoS/jAtQFEZwPg7yAUcLDNF+RNIcM8egknFgaBDEaL29ymKiv1GC1rgkv1eSXBE+WZZPg2R+mES7ABX0LnzVyBQxaCOfPmN8khJcOOlHMYiAx+Tummczp30W9iKwaWXN1hBfidjh1n+qQPcRP4CiP88oy/SdzG4lNnJs4KRzDKMJXULTMT/tIP4bAb4/ojBpcxISfBvZXXS2jYQBmBYig9SD8bCC/El+3Z2JNmyFMvat3jNnu7rnzKkgUJ/gi4pOZjSQyhODzZ1coopFEQupVBompRQY6myRggsPSeJ+eZFCDGaOiK074C288zN++FN5e69/WH+anlnNOJoyg3g3StAe2cUOG5+u69UKo/td/i23fLOdPFxYJOktZbX9ZV9Iv150bx78+SZfabVL70jGk1ujgP5wTWof3M28vL1q+dPd0exvy0aGBnk3UCsKFgboIF2emY73nUu6v0uMGIJxZgboHo0aKN/6/svbPVpUI8aB8p6xxr4fKoDhZ/0JQ2sWx29PA5wJWvdT7195AYubkzTN2GVOH/AT13f2Tr9cnJy8fXhtmqCdTAQ51miF8BUVa3RaGybH4OWCZaPuwEGL3UCEaSqkmbQSgln3MCMUbUDUZTwqjHjBJKSmMOJiPCcKCWdwOy+TO3hEe1R8v6sE0gdKFyejCjPKQcpJ4DOGSKVj4gSjTnUCaQzNYURCpEIjFLLpJ0AvJSVZE4o5EIrCJwsZZdgyIEur57LLCWEDQgUK5+vLqPQfzCSWpMUkdV1KgRdZ0VFWkshMOTCkJXsIa/IYpWZqCrKCn+YXUEwaCwxjSCZeE0y+HJxgjJvSLV4BkGmE5AHPCwszC8mYw8miiUX5xeG+2EIkMCQSLAE5Aej4QMoDAWB0xgaApb2bv8HJwYUbmBuQ1AAAAAASUVORK5CYII='
p13
sS'twit'
p14
S'data:image/png;base64,iVBORw0KGgoAAAANSUhEUgAAAEgAAABICAMAAABiM0N1AAAASFBMVEUAAAA7iMM7iMM7iMM7iMM7iMM7iMOdxOFHj8f////O4fA7iMPC2uxgns5Ul8uRvN1sptLa6fS20ul4rdbz+PuFtdrn8Pipy+X3fYQ0AAAAB3RSTlMAYL8AIM/vi50ITwAAAYNJREFUeF7tmMluxCAMQMk2toHs2///aTNVVaM6EWPCoa3mHX14wmCIY/OkKN0NyqI6MFVVN+4mTf0U1Q93m0d9iBqXgaYyhctCYco8otK4TPxD0VvU9X6jg8333Q1R5ynAt6kioB9AkggtCSzqRTjSCSOqRROdMmlFM10w60S40AULqkRAzGbtFj86E1vQsrqDNQigQrRyKl9V2LKpV4j46EEmO74u6sI8ZLZdVCQz2zm4fwfXqEgW48DBQRRlXMSnHUa5Hl4W8b6en0BMJJOwYdhywhqRrGJQiyAmgl8i6tNEcjOGG6I5Ivpzm93nEg3h5Wd2dUG2sSvSRkSRe74pLq2458hB5Dch4WGbzz6ZU8JTOwm76qnlLKg7iWFMxHhOQ6br0z6Qq4woRMFRE6BzCOxZkpsIGkdSNhFySZLN6UQDXTAoRJycBPRd7aRoIYVImqRHL+I2jZu3NJFDCFQL4J2/oxnsJzC/f/yueYuyDVmyjX1yDaKyjcZyDusOcowPPwAh3NgmmZ5lagAAAABJRU5ErkJggg=='
p15
sS'gmail'
p16
S'data:image/png;base64,R0lGODlhDwAPALMAAP///0eJ+wBk/wFa+7LM/IK6/wAQ1AQ87RZ1/xJl+A1v/6ii6j9N4D5M30BN4IyW7SH5BAAAAAAALAAAAAAPAA8AAARZkJRJKw0FqS1635tRKMIwPBVZiuRBAEXwAASyjoNDm8cCBDdFbifo/YKDBtEIHLAGjKWv+VQSOkxktDAozqg4K3YaLL5is1pQmLDYOk/T4CA3rQKGvH6/jwAAOw=='
p17
sS'related_to'
p18
(lp19
sS'name'
p20
Vkeycap digit zero
p21
sS'known_as'
p22
(lp23
sS'default'
p24
Vtext*
p25
sS'bw'
p26
S'data:image/png;base64,iVBORw0KGgoAAAANSUhEUgAAAJAAAACQCAYAAADnRuK4AAAM9UlEQVR42u2dLXAVSxOGIxBXIBARiAgEAoFARCAQCERERAQCgUAgEBERCARVCEREBAKBQCAiEAgEIgKBQEQgEIgIBAKBiEAgIhB76zkfc2vYb3am5293ztl+q6bqFhfO2bP7bvfbP9Oz1ikUGVjTW6BQAimUQAolkEIJpFAogRRKIIUSSKEEUiiUQAolkEIJpFACKRRKIIUSqA6+fv3avXv3rnv+/Hn35MmT7sGDB929e/cWi//mz168eNEdHR1137590xs2JYG+f//evX79unv69Gl3586d7vr1692lS5dGXf/880+3trZWZJ0/f37065esa9euddvb292jR4+6ly9fdicnJ8tLoLOzs+7Vq1fdzZs3u3PnzhV7eLriFqR69uxZ9/Pnz+UgEBf68OHD7uLFi3/9EEi0ubm5cBG4B94QCFZr7e3tjfaQdnd3q/4W39rf31+4XF5Un5XFanLvc91xVQKhGTY2Nv4iDS4LrVHqDQjh169fiwfqs3q40IODg+7Lly8LS+mzosfHx93jx4+7y5cvB0nEd08JrvfDhw8LQkGYISLxAvt+9+gE+vHjR3f79u2/iIMVOj09HV0Y+x701atXF2T+/ft30uej43yfz/+DlC0AMvOSXLhwwXmtN27cSNJIxQnEDbNv6s7OzuJBjo33798PvnUshGUqcWzwGT4LxwMjcmsFvMRYJNf1cq1YrMkI9Pnz5259ff0/q4NPluokLAGmFL9869athQ9PXRKdkvP5U37n1tbWggBoHR52quuB1OZZ9bUpz2J0AtnkQTCjFSRRGaazZEg9t4WVxcqnuGLSKbjx/mfyPKQkKkIgLoS8A1+OaPYpe34kvtjFfv4tbxlC2yTxYpa5Bt9K+dyYFfp+fmPsZ3I/uC+ue9bXXDHWw1h/omEXMT99+lSfQBACK2Jujk/vfPz4cZGHsC+URBfRGsI7BwhA3w0m0iqheSQPxHcd6IwcTcjLSsrD3HPX4p7GfMcQiXghQ9FyNoHQLcbs+cQiyStbuN2/f79YhAIxXDfA9uu42LGAa/ZZCq61BJl5ae7evVtEvOM1XMTH+lUjEF9qIh3c0hAQfbaZxRKVBCmCkNsaG1g83zVRxikF3NZQeI51jxHWrujM97yyCGSiD8zp0BuFpTEXwttSOrmGZfElCbGMmP2xQYTkIxDXJdEYMbm3IbcWQyL7edkv/dDzXStxg4ZuBBlb83f47xrwuS4WCc2pcOXKFe+18cBLZ57RP67vkopriOjKnw2lZJIJZJhKXsKFw8PD/74cF1MDb9++DUY9pd1lDGgNCV2fNFeWSyKstFRzGl3bz9oXIxDZTMNSV+YSbWR8MhagRvTDZ9p1tqGQeYzIyxcxhToPfO4hp2zhyu8QAUsSj/x7l6ZyBSJJBHrz5o33x5PYMg+wVv3LtnAtiedYMc3it5QGssLlinzBjg2iL4nwTyKQKZRSA3KJ2li/m4J+PinH79cEJYfQdaKVagCy9L+LUF0SyHDvJG4siUCmtwdLNEQuIrRaoFAqSfOP1TKSE42ZVaPgindwZeclVoh753K//XsaTSB8qPmwvntCwZsvpdWhFoaSZ2O81Sl6RNKBWcvdksB16a5UK98X4tEEokhqaiV9QBrz/1KrxKlhZov6p58vC+WFalhMXnIXgSWdiEbL2qtvGKIJZEJnlz80xcSauRfqQBKXQAjdClzJOdfi3taAK8EoSS6icUPuL5pAps7j0jgmrI7JfMbC9Va0lv9JyQeZ+mANuPI6oRrX0L/jz6oQCF8fykyXSJIN1Xz6a+p+ZBuQWXLNUm1SIuFKBr8pAiGuzJfUqj1Joy/0REvgfkgbxGpsWjS6tR/ON0UgO1ytBbu2FmqXaAl25Dp2aQNAStd3zY5AUv0zZQF1CKGyS83oUQn0B6GWztpiNAeu2pRrkfhTAk2sI/o/cllyQWbltvcqgRxw1WaWIQdk4CpODq3YvVlKIAFcKfkxhWguJDs2YivmSqAK2dyaGd0csBM2ZjiDEqgwJH01tVxArWzwWK2uSqCu+7/xMKtMoNIZ6dkTiL6WmO2+rUzEsEF9MGa7shJoohC+VjkgF6HNhjWb4WZPIGkxcpUIVNKKzp5Akgb6VSNQSR03ewJJm8hWiUAlUxGzJxDbSeZGoJLJ0NkTKCYJtyoEKpmNnj2BYsoAq0KgkgXh2RPInvg6FwIxEkcJVAgxrRCrQqCSjWVKoEgCtZiJVgJNSKCYQmqrtbBYApVsy509gULHCqwigUrOFpg9gSTje5VASiAlkBJICaQEUgIpgZRASiAlkBJICaQEUgI1QaDQwG4lkBLIi9hSxioQiEP3lEBKoGQCMUhUCaQESiaQFlMLImYwwaoQqOSIGu1IjOxIXAUClTzdSHuiI3uiV4FA2tJaEDGjXVgM41x2ApUclTx7ApkJ+Ms8H0j3hU1IoNitzS0SKHZvW8lZ27MnEEdYLzuBYsa7lJ6TOHsCSU+8aXlGYgyB+K0loQOmuri+6BantIaOJu8fTakEKoyhI62XhUAxuazSg9KVQJ3skLkauzpLISabXvqIdCVQZC6oZCGyFGLqea6jRJVAmZCcEV+jl2YKDec6XlsJlAnCWukDcJ2mODU4gkpy7ZyHVvoceSXQH0hH/fL3WkIM+UtHYEqgRB3R0omF9mF8obW3t6cEqgXpgXM1j91MgfTseBaHyiiBKkF65GWtB5EK6ZDQWkd/K4H+ALckOTOetb+/v3RZaMbY1IASKCGh2NKxl9IkYi3SK4Ec3z/VEdopkB53eXJyogSqTaDT01OxG+PvTg1pJ0FNwiuBEl3C0dHR5ATiGiTXSt+3EmgkAkmjsRaq8hR2Jf0/pQ/aVQIFINkvXyuqKa1/agt+JVBGbqWWMM15cGMnPZVADlBwlIx9mTIfJGljLbmFWQlUwQpBsqkQcrNknjmNUQk0EYHA5uZmk9EYTWGtiHwlkAdonFCvTclZO1KEerixjGN1DCiBAmAbT0tWiEJuKGw/Pj6eXMwrgSxsb28HuxTPzs6qXwffERL37FJtIRpUAlmgbBHqOx5Dc+zu7jZX5FUCCUHn3/r6utd11Bz9gnD21b1IbI5hBZeeQKWbwmPAjgYfiWhar5G4Q2P5xDyieqri7tIRaOoTAyUkKiliQ+TZ2dmZtEd7aLpJswTigqcGCTpfHQpXkzuEAUtLt6HPbZFpnrrBfygn1SyB2EXaAnhwIVELydi0GON2+bs8FF+mmZ6lw8PDJu7D0IjApghEQs822S0BcodC642NjcWWGqahIcZtQiF80U38dixO6LPoVxqjRJGT1JTsnRuVQNxku8YzRbQRshrUzqTtpSmLjHcLTWx9V+5ysZJWl1EJBOw3sxXz7QINaVhJxHQuafgM3OSYmeUYHBwcJHcBjE4gW29Q5JwynJdmjSETmo1MNtbJF01h9nlzcVHcSIKF1ixt//cNbQeXvOCjE6g/QaNlKxQS36Qi7NUyUWLFM0ui0UYnELsq7TcY9rewM2KOQPQPpRekAxxGJxDoj3LDNbTuylYNWFBfXZBgYnICDal4RvL2mU/oqxhP9/g6E0hXSF9olwssRiBfHoGTZmrP/VPEkyfG+gDXNvJiBGINCUt0j0v9c0Etze1ZJbCvLNQFSZ4qRk645jFlE4jISlLzIqHmEnH45lZzJssKOiB9xWOTr4rJjkM0V54sm0B2zSvUWefbNYGbm7pqv+xAb2LVQ3vvU1poieIkLjCaQHZviWQaqu+QEX4YGWGONtJwXwasCA9xa2tLNLSBtErKsK2hPW39o7SS2gdNrocfIDGLbO6TlAWIECAlbxXpAF3/W2S+uS8hN+XqCEid1DZUMO57jSQCEcLHDoWk/UE66lZX/uJlTO28HNpV4hpBnEQg27zxodK5fvhsIgF9wPUWXoGaZOqsRQhCpnqoTaWPJAL1BVZsohBrVLOtYq4LN5c75R49OvT5rtpm8hYKe0tx6kY5Ijr0Tqxv1/V3WgSLQxNciVzSUPUePeXK4a2VYioWJSeS4gYQXeAeCfFVPLsXA6sISuicLJkGwXX55AUkdSGZQGShEWr2lxBaauF0OeFr/fBNEcnaBeiamIpLUhItF0IHAvvmN2ZvI3WNV0Gta81rORA6PgJN5HuW2QTCD7tqJlPuxFTIJAj79HNLIEU2stsFVnsRXdHmqmgLFMElB+BJWnCKTULw+VHUfelT+BRp3gJ5IamhEfFJtGzRURqhwikCm2KciuxxgRui5CSd8C8lT3ECAXIUIYYjzPC/7E0nmciboaQqA5KBEIYIGSJIJtn222xinkWVYT7oHunxlLraWFinlGET1aZBkXjCykj8ra5pFxFzqkatPk6M1lbJKF5d09TRcHU58mG0eXT0mNB9qD1BbVicXOKMTiADsprkjSgKEt5rJb6+tsEDEAGjcUqfCvQvxK0VmS+qHVQAAAAASUVORK5CYII='
p27
sS'version'
p28
VV3.0\u02b2
p29
sS'uni'
p30
S''
p31
sS'desc'
p32
g31
sS'browser'
p33
V0\ufe0f\u20e3
p34
sS'annotations'
p35
(lp36
V0
p37
aVkeycap
p38
aVsymbol
p39
aVword
p40
aVzero
p41
asS'wind'
p42
g31
sS'andr'
p43
S'data:image/png;base64,iVBORw0KGgoAAAANSUhEUgAAAEgAAABECAMAAAAV8YMOAAAABGdBTUEAALGPC/xhBQAAAAFzUkdCAK7OHOkAAAJzUExURUxpcfeTKfeTKfeUKfeTKfzCG/zCG/zCG/eTKfzCG/eTKfzCG/eTKfzCG/eTKfeTKfzCG/zCG/eTKfeTKfzCG/zCG/eTKfeTKfeTKfeTKfzDG/eTKfzCG/eTKfzCG/zCG/eTKfeTKfzCG/eTKfeTKfzCG/zCG/eTKfqrIvmhJfzCG/zCG/zCG/mhJfqrIvqrIveVKPzCG/zCG/y/HPmhJfy9HfzCG/zCG/zCG/eTKf////zDG/zCGveUKfqvIPqsIfzBGfzBGPzCGf///vzHLfqrIvzDHfeSKfeVKPzEI//+/fzBG/zAHPzCHPy9HfmiJP3LPPzGKvzBF//89v/++//9+f/56vzGKfzDH/mjJPzHLv/23/zHLPzAG/7yz/zFJv3eg//01/7lnP7wyPzDIP/++v3adf3TW//9+PzFJP3PS/eXKP7xyv3df/u3Hv/88vzEIv3SWP3WZP/67P7np/7suP7qsvzIMf7rs//z0v/89PzIM//56f7prv/45f/12f/78f///f7gifmkJP/23f7prf7tu/7sufzGKP/44/3Zcfu5HvzKOv/12/igJfmnI/iYJ/3WZv3VYf3UXv/34fzMQf7uwP7fhv3MP/7oqv/45/7ikvzJNf7oqP7vwv3bdv701P7loP3Xaf/99vzEIfzIMPzKOP3RUP3TWf3OSP7tvf7vxP3Ybv7uvv3YbP/67v7npv7vxf3hjv3bef3UXfy8Hf3ehP7gjP7ln/3fiP7mo/7yzv7rtf7wxfzNRf3jmP/77v7uwf7xy/7ilPqxIP3UYP/23v7pq/3ac/7ilf3Zb/zLO/3bd/3OSv3NRP7jl/qsIvgDIKQAAAA4dFJOUwD5/v3R+f4NDdG3FDe9FDm39PjzHVjGHb11N1cFnskMyQXSDNL+xs79/XU5zvn5zv2gdDnO/cOezcwDYgAAA9FJREFUWMOt2IdX00AYAPCi4h7g3vu592zCVS9pG6i0ClhpUbTs5WJvoYKi4AIHDoaL4cAF7r1Rcf1JJkBywbbwJeV7r6/vfX33a3L7TqMRYvySBf5aVeG/Yc14jRRLR/lqVYfvqLWiM3WZ1pt4sm5klzPCT+s7WL2zfjk1fHQnNMFXO1g9tHXxAGrsNMGZvtGb99q6jeJjxhwemjXTa4eaPY+Hhsz12qHmDxWgYV471CDvoCei4y30OaifIHMEHMIMi/gvxDIYufwYcGAvDEKM/WTi/pjLx9pjor6ENDAulPl0IATCtrPtR5L0tBD6+PO5NyJdnuoMAEJcWlk+LY+b9empbM93M/b9aqytpJD+P5wxjbgHtLlPiDVkxtOusSUrhFUEodCHVtpt3ClglUBcqweHPvwwGcEh/PgB7SlufmPBEDLcpT1HcQgGQz/je4H0NRYghEJje/Sekm9RZQdlmVNNLAxizsmKFSXYUBjrqDpFUtYEIMS9k3XB+6hz0OK0IpLMSgVByJBH6uO6XWzsp6RDnO9gIRBOyZCKFN5mxGxtNKm2qjAIFFZB2iy7gfS+GL2UfoEgEPOMVOt+RtYEO6R8XRwAQnGZUoH8Zhl0qVzKVzsQAErOkgqUnySzBtr5UcpHh0IgWXd81UjGFTKVSfldBghk2CMV2LdTNreiowqhSA8Qbu8nyJKtEDr+QSpwTTYdIke1lP8Kgky5UoHwS6T52QIycvbYAJCWe07GQqKsH70Nl/LHkiEQc1EaC/pW0o+YH2TUPudAQySdrIuPbFJt2w+ROUEcOb1D7AUy9Rx8LL4bc5tknWkgCDnqyRx2z8B2N0EdSUbnINicTSqJtn5PFv4dx0XJ9gEvOdhUi1NI+9BJdSmmONPvP7JpfPtZBrgcpWbLl5/CN6/ri+SJ2EgEhHCis5d1bUcFeIHUmjJ7gcpCEXztv1Ds0bnSjJVsa9IzPDj5bRZFGy3u6nu3TlKNCSmCEJdwxY3jLHEgZVs/LbLcinXZbEXfsCOlm1G+xnOirsmpLUc+dSCkfHvMj15U23I0L8Oqp/XWB8W5bR0WrG7Dzj8U5nJ+3bqf0JKY0mTHWPURousYEcZg4aPkUGM+YA6An40CzEadeyjYuLf0xO4AYOw+URrkHgo28ue4ygjjJlAYIyp5QNcDmkscigoM1IEisKu9dLLDcddxvdtRHDpyXJ++WnD+qnO6pc4LBOFKI3iRWoeiBopXGpoRfsErVql2qAE+4iWLZupK9c8jxMKR4gXSmMk+6hmfyWPIldakKRPHqWPGTZwyqZP4BzSERm6Ur5QZAAAAAElFTkSuQmCC'
p44
sb.