ccopy_reg
_reconstructor
p0
(cemoji
Emoji
p1
c__builtin__
object
p2
Ntp3
Rp4
(dp5
S'emojipedia_url'
p6
Vhttp://emojipedia.org/keycap-digit-one/
p7
sS'index'
p8
V748
p9
sS'code'
p10
VU+0031 U+20E3
p11
sS'apple'
p12
S'data:image/png;base64,iVBORw0KGgoAAAANSUhEUgAAAEAAAABACAMAAACdt4HsAAAC/VBMVEUAAAA2SWI0Rlw1R2ExRFM8Ung3TGYAAAAAAAE5T3A3TWw7UXQzRVkAAAAXFy4AAAA5TWwtPVEAAAA9VHwAAAAAAAMjLzwAAAA9VHwuP1I0Rlw1RGE6UHImNUMfLDYxRFUfKjknN0k0SF8UHCQaJC0XGyM8Uno0Rmk4TXQ1R2s8UXUzR2cvQWQzR2A3TGwyRWE1SGgzRWNDWXo1SWcwQ1U7UXIAAABihKNefp5khaZggaBfgaBegJ9hgqFff55miahjhaRcfZxNaIdZepZdfp1Ze5hkhqZMZ4VPbItafJpKZYJTcY9lh6dZfZ9oi6lbfZtJY4BPbYs+VW9FXXtggqFZeJdWd5OHpL6htcljhaNkiquJpr+Go7tdg6SUq8GgtMlHX3tWdpNDWnQ8UmlXdpNHYX53lLBuk7Z4mrtli69tkrVuk7eGpsVoj7Vzl7muxtx7nLxskbTc5/BSbpGlwNrT3+z09/qowtuSsc+DpcSLqsmNrcrC0+NrkbObttFqkLFZep1HX4Zqj7CJqMdVdZqDo8JqkrdQa45bfKFljbH///9/oMBnjbJ9nr2Uss+TsMyjvthnja+XtNBiia2Rr8tdgKRhhKVeg6dQbZOfutaduNNZe5+AocB1mLl1mruWs9BTcJXe6fFkh6ewx97u8vfi6vKiutKduNTb5O/q7/SIp8Vim8aJr9Bjhqaat9Ln7fRrkLKZtdGivNaPrs17nr/7/P7l7PKAocGWssyCo8FliKi6zuGlv9lbfqN/n75ni6utxNuMqshxlbefu9Z3nb+gvNZXd5yPrcpSb5Npjq6wy+BIh7eZttFigqNNaYuFpcNjhqecuNNmiqppnsaCp8lyn8Voja2gu9bO3uyJqMVuk7hhhqloi62ivdh1mr9FXX9LZIdjiKqkvtmrwNapxNzJ1+Wrw9lVc5ahudCmwtqpw9uKp8KFqstwk7Xi6e+LqcNWjbqNt9WWtNJik79OiLiMrc2Bob9ik71pjq+mwduhvdenwdunv9acts6MqsWAgJqHAAAAN3RSTlMAz8/Ryc/PJh7Rz8/QCAQaxrYSzwwnbyHOwOMa3YtQ1FmO0D9LQMY6q3vMWSsyt1Gwdvuny8kBLBpWKgAABPdJREFUeF7c0EVv4wgch+G9tFJnpCrSXEbqnIvDo+1XMoaZmZlTZmZmZh5kZmZYXq2T2LUdW2l73eeW/P56bfmX/5XyMxcucTi/HoDDuXThTDlb4Bzn4mO7uP5AYvvji5xzjEDB+UdiQzQeNsEfsoJN4XjUIH50voAeOJ2363jiHHv2on20I6vR9hfPxpxPHLt5p2nPP5WIQcMa2Yisr0GUVUMfdqQZhmKJU5R3KD9rv+dUd8ikU/zn8jdZyZ/zp6SyDrXznv0s+SnLjFGPqlnUNC2Ry98eQC6XTDeJmlWeqLGMCOSXWqCHIulTyV+HJHkqFT2ELKX5eKDIGOfy2x9I/jg0yYN2PjduLMIDJQloWTofmD6CwLx0GUqU4IFii3NIsxQ4kiXNkNNSjAcKq7g6/sqf7FIB5rDC13GrCvHASYftSuAWu5VthULha1thDIErNsdJIjBjCw1WsLr19UZXV9e1buYyGLLNEIETMzZ/RRu79y0uDD/EGCr8tpkTZEBd2cum8kf3SDLQVMec1GQgx8FV9W4z9VYqvt12JfF9zFHFdeQQgSqueSBEN6Cr1ClufN90pcwrQpkGzNwqaqDOR3f9t89bW9duu9JeDvky1VEDBg867qdRX+/+stngIrxU+zONox4DEThuCCr9ERrzlIvqb1Ukk18ZNBwnAqtBd2SNpjMjYF7LFHEHVymB2gU6ZUYAXWCopQQsQcS6YKZSamiBVqU5w4IVCVqIQJ7lPsBD73RSoP7WpNetzemAtZPuDsoD7lvyiMCrOfgurxpF90jWsSS3uy8VeO3eo0LRat5deO4VETiGBRAEqXVPWCfoqqvTgX+GyQE7ctdi51jg2H7gqhZAEADhCWZ/0sx68YCA8p+AhySvtVfJQP1kPwwAAAzDwGIN6PXOErwCPACmf3rBmkXsLHXcP1m/H1hv1AvhNKFQiFV4NSAICjDgaCowvgiCNbxFIDkTh/rGdTJw2aQVErQErCnUtqQC/0JaHHlmurwfyBX3bOj72eg96cAniDlt9Ihz9wOxm3pWJiceCDO3mzEyYN+ZM7H6HfqYCrwLM7e5HTsZ+K+TetdNG4rjOO44VY8HjAUCIiORC0neoArUNpfjG77VNjZQ0jbXS6U+SaXupXvUtS+AVDFnIKoyZEmXzJUydywqx5jqHCV2P+tP5/vfznRy9ZvkNgrcY9PVUmDF6Lm3RJM388DbO3xze8ZKHGj9JJrcRwF8ay0HxLE7IblBgddfsMkdi3HgWnLcG5LWXRTAJteRrqNAVVb1FpHzAwUO8E1X5SoK0DJsO2OSy9E88O4Am5w2lOko0PFq+iXJtyjwGZv0mteJA+ZUf0kycuY/0uF3bNKnZoJA2zkcHh0Nh+9HjwYyltbYb5O9+quHD/sNzcosAopQS01QFoEXfv9/An3/GQrkjk/qQiMloX5ynEOByqkNRSElEdqnFRRYPzNMSUxJMo2zdRRgNvwBlFKCA3+DQYF8KTAUtZmKqhhBKY8CbJEPbVNt1hNrqqYd8kUWBfaY7fKFrUE1aUCFmn1R3mb2KKQAdsph91zzPJiA52nn3bC8AwrUAgd2+cDq2oO+8qT+wO5aAb8LOCqWXQOglAlC3+rIT+hYfhhkSgCsZakl7KxQ3NzK0avV1cfMZjq3tVmcvWepf2Q5kAoX3Y8VGJAYU6BI2DzHJMDlWSr2BwvKp1nXFJ23AAAAAElFTkSuQmCC'
p13
sS'twit'
p14
S'data:image/png;base64,iVBORw0KGgoAAAANSUhEUgAAAEgAAABICAMAAABiM0N1AAAARVBMVEUAAAA7iMM7iMM7iMM7iMM7iMM7iMM7iMNUl8v///+dxOFHj8eFtdrn8PhsptK20unC2uzz+PvO4fB4rdZgns6RvN2py+VaVwIyAAAAB3RSTlMAYL8AIM/vi50ITwAAAKlJREFUeF7t2EkKwzAQRFGNbkmeMt//qJHBoMSLLNQFAVP/AG/dXWbLOlHkrK8Z70MUZTFsUBhE3RAqFAVQ9MYKJGscBnJGQJ0NIjQuraSApmv+6Db2Qvf83aUXmvOh1AnlY8u/oRkFFRQkKwqSR6mtOqi1nAMiRIgQIUKECBFKKKjdkqMSeu7OS5SQlOboIElTmRIfvx8Rgo0ssNkHNUTBpjHkWFdDzIdvufyTDccW2pUAAAAASUVORK5CYII='
p15
sS'gmail'
p16
S'data:image/png;base64,R0lGODlhDwAPALMAAOLt/gBb+4G8/wBl/3GX9QAP1A1v/wBp/yQ94A1y/1Ry6RNf9hYw3ic63pXK/yBu+SH5BAAAAAAALAAAAAAPAA8AAARU0IlJK1UimW3SGFpnFIIRfEEgECdKGt+wEADQHsGLKrRz56VYgFH76WKI4gd3/CRtSyBsmfRFm4OnMYhUDpjcT8ML9hwOstX3LE2536ecokCv2+0RADs='
p17
sS'related_to'
p18
(lp19
sS'name'
p20
Vkeycap digit one
p21
sS'known_as'
p22
(lp23
sS'default'
p24
Vtext*
p25
sS'bw'
p26
S'data:image/png;base64,iVBORw0KGgoAAAANSUhEUgAAAJAAAACQCAYAAADnRuK4AAAJl0lEQVR42u2cHVRtTRyHgyAIgiAILgQXgiAIggtBEARBEARBEFwIgta6EARBcCEILgRBEATBhQtBEARBEFwIgiAIgmDe9ex3Te+0m9ln9ufZu/f3W2vWuh/nnD17zzP/zzlnwEhSCQ3oEUgCSBJAkgCSBJAkCSBJAEkCSBJAkiSAJAEkCSBJAEmSAJIEUH/048cPs7q6anZ3d83j46MeSD8Bur+/N8fHx2ZnZ8csLy+bmZkZ8+XLl1aOsbExMzAw8GG0db7umJqaMgsLC2Zra8scHh6a29vb7gL08vJifv36Zb59+2YGBwe9i6JR/wCq/f198/T01A2AmOjm5uaHnQxE09PTiVvAPbBDAKwtg3llLUSb5uoOXOz6+nqyUYeGhoLzHx4eTu7x79+/7QXo4ODAjI+Pv4MGl3V2dlbZDqjDUm5vb2daSdxDF8S9/PnzJwEKYEIgsYF5bWsAenh4MEtLS+/AwQq1Ofh8fX1NdrALfNcBcvX8/Gz29vbMyMiI955mZ2cLxUiVA3Rzc2MmJibeJra4uGju7u5a/WCxlF+/fo2OI7oIkBWbGIvks7DAhcXqG0DX19dmdHT0zeqwo2PjJNyaTZXn5uYSH17XYLeVDUbrnF/WmJ+fTwAg1mGxi7qe8/Pzt7VKx6asReMAufAQMF9eXkZlZSxmVrCnkT2IYbDyLDpuOG85ZXJy8sNnsh6xEFUCEBPBrHNxYoisyJ6bxBf76Oe97DICbSxRr8HrbM2D9zZZHoiZX1WD++S5+J6ZOwgd8lgPa/3Jhn1gXl1d1Q8QQFiXwCJmxTsXFxdJHcKdKIUuYhAC77wC1KqAYIG6EAOxWSl5ZLlhnmmeuDMEEffZK1suDRBxizV7+NWQKF65FmJtbS0JuMuoLEAEjcQTNvvoWhDNvFdWVoL3lrUevmfps3BYv9oA4qK2voBbColFcs0slqgKFQEIn898Tk5OPgSgXc3CcFuh9Bzrniew9oUBWetVCiBr9jGnoQAOS2Mnwm4hba5KWQCxm5gX9SgyFnpvvcx6l9N4QoCQW8sDkbte7qYPrW9hgEgh7QVCwRYVXfsa/lxXpdUOTDpQFa6qdrwOxH0T//jmHBtcA6Kvah0qyRQGyJJKXcKno6Ojt4tThe6CPkMhMQQRrik25rRxbdr1VwYQ1UxLqa9yiRWwPhkXkrc+IYDKV9d99R0y4BjrzPt9MRW1vkoAIgDN8o0Utmxa36XDV5+plUFY4XNFWcmOK7Kv9Hs5v1UJQLZRurGx4a1I5/W7AqgeAYsvuYhJZFi7GDdWCCB7tgdLFIKLDK1r+mwA4R1shyCvFaKA6Evp04XF3ADhQ+2Hpd0TEby9KGmzAOq/KOD60vIYpbsGjHQgnhsgmqS2V5IW0Nj/K5pKC6BqxSb3WZKYk4g2lnVH2jDkBuj09DToD+0xUNxYF/VZzwP5CowxxUVi3F7uLzdAFJRCMY49zZen8imA6pevrtOrxxV6H/9WC0BE9r0q0wKoP7Jewx1031sFEMGVvQhHDgRQe2Tj1nQ63yqA3N5YV/VZAQo1nQWQABJAAkgACSABJIAEkAASQAJIAAkgASSABJAAEkACSAAJIAEkgASQABJAAkgACSABJIAEkAASQAJIAAkgASSABJAAEkACSAAJIAEkgASQABJAAkgACSABJIAEkAASQAJIAAkgASSABJAAEkACSAAJIAEkgASQABJAAkgACSABJIAEkAASQAJIAAkgASSABJAAEkACSAAJIAEkgASQABJAAkgACSABJIAEkAASQAJIAAkgASSABJAAEkACSAAJIAEkgASQABJAAkgACSABJIAEkAASQAJIAAkgASSABFBXAXp8fIwGaGRkRAAJoPe6uLiIBohxf38vgATQf1pfX88F0N7engASQP/q8PDQDA4O5gJoeHg4sVoC6H8KEC7o6OgouY884LgD6JaWlszp6al5enoSQFUB9Pr62ujD4aYODg6SufnG7u5u8pqNjQ0zPz9vxsfHC0OTNSYmJszc3JxZXV0129vbyTUZ9vq+wfwFUAqgJh6K77pdHMy/XwlCawFqMjYQQL11cnLSLYD29/cFUIsA2traaj9At7e3bxdZXFxsFKChoaGkOjw5OZnMi8EciEXaMpiPndvU1FQyXzK5JgCanZ39AMLY2Fi7AHp5eXm7CAvK36V2ZJu+EsXMzEy7AELsKnshUmSp/6Lg6XNfWMXWAUSabC80PT3daDovfRReAFflAyhmgzcOEAW1vJOUmg+eY3t5jQNENZb4xw3U6HJLzevq6irYniGIj1HjACF8q3vBhYUFubKG9fz8nFTFQ9aH3l/fAQpF8Xd3dx/I39zc1Ko2GPewaUPw0MaJ3dA+F1gZQFl1hLW1tQ8Xpjck9ReePNYHrays1AcQI1TrIe7xRf9MCPMqVa+HhwdvwdAdNHrzhBO+kwqlASKziul5nZ+fe4M4fPPl5aVWvEKdnZ2Z0dHRnsdw85yiBDTeUzlAbu9pZ2cn87WYy9AN4eaa7Np/RhFvYtV7HYbj//NuWrK4GBeYGyD3bEkoE3MFZFk3Ro+IszxK9+OEFWEROdcUc4qSsgoWKq98GRjj9+/f5QBCttbDDcSYRQ5UxXSmyRCAkl3VpkZov8fy8nLyXHq5Kd+x2yLwILct5Y601ygEECm8/cDv379HvYczKW6RUaPewWbEDRWNqUJxVDoILwSQa9740NjzwPhsMgEtcH0Dr0BPsugZbQChUu37bCxhWoUASgdYeQuFWCPO7mjBqx24uevr61IxFvFo6PN9vc3CX6Gg214myrcZHfFOXt+u8b4sgsW5ubmppJYU6t4TT/lqeANVkYpFKZNJ8QDILnCPpPgKnv2DL0CSlBwfH1daBsF1ZYUXQOpTYYCoQqe/HkNqqcZpN5V19IPkJ5Rtl/oWoNvWcNsVgqhbyqrVMYArpNJfI3VjITdaV8+rG6LJnQUPMVHWWpYGCD/s65nQ2FN1ub0iBOFr2WVbIJV8kd1tsLqD7IpjrlK7RBM868BZniM4lf0SQpYfJbovW5+QygtvQXgR00Mj44uJZSv9KY1ejVMCbJpxCrKbFW6IlhO1nJjaUiw8lQOEqFH0IpzADP/78+fPpJjIzhBU1YhiIMCQIQNCqCmadcwmz1rU8mM+xD2hiqZGOwfWiQ2dV7X9GhSFJ6xM3l/+0mh+kDEXjVFr/zkxjrb6akUa7eij4erKhA+N/R4dZ0w4fagzQe2wOGXBaRwgK6qa1I1oCpLeqxNff2yDByADJsYhyK5S/wAEQObmvM+lWAAAAABJRU5ErkJggg=='
p27
sS'version'
p28
VV3.0\u02b2
p29
sS'uni'
p30
S''
p31
sS'desc'
p32
g31
sS'browser'
p33
V1\ufe0f\u20e3
p34
sS'annotations'
p35
(lp36
V1
p37
aVkeycap
p38
aVone
p39
aVsymbol
p40
aVword
p41
asS'wind'
p42
g31
sS'andr'
p43
S'data:image/png;base64,iVBORw0KGgoAAAANSUhEUgAAAEgAAABECAMAAAAV8YMOAAAABGdBTUEAALGPC/xhBQAAAAFzUkdCAK7OHOkAAAHXUExURUxpcfzCG/eTKfzCG/eTKfzCG/eTKfzCG/eTKfzCG/eTKfzCG/eTKfeTKfzCG/eTKfeTKfeTKfeTKfzCG/zCG/zCG/eTKfzCG/zCG/eTKfeTKfeTKfzCG/zCG/zCG/zCG/eTKfeTKfeTKfeTKfzCG/eSKfzCG/zCG/mhJfzCG/qrIveUKfeTKfzCG/eTKfeTKfmhJfzBG/qrIvzCG/eVKPmhJfzCG/qrIvy/HPzDG/y9HfzCG/zCG/eTKf////zDG/zCGv7z0vzHL/eUKfqvIPqsIfzDHvzDH/7wxf7ln/eSKfeVKPzBGPzDIPqrIvzBG/7oqvzAHPy9HfzBGfzCGfmjJPmiJPeXKP7z0f/23/mkJPqqIvy/HPzAG/u5HvmnI/igJfu3HvmiJfy8Hf3VYv7uwf/78P///vzEIf7loPzEIvzHLf3KOv3PTP/9+P/12P3KOP/12f/23P3ad/3VYfu2H/qvIfqxIP/99v3fif/56PiYKPzLPfiYJ/3cevzCHf7moP3RU/qsIv/+/P7vxfzGK/zHLv712v/z1P3fhv3ac/7oq/3Ybf7kmvzIMv3OSP/++v7qr/zIMf/+/f/34P7prv3UXvzGLP7gi/3NRP7mof/89PzKN5q5XKUAAAA8dFJOUwD9t/jR+fkNDdH+FL0d88bz+Dl1vR0Ut8Z1V57JBQzSyQUM0v43WTn9zv39/TfON/n++aD9zlfOOTf9nn41mCIAAAIPSURBVFjDY2AAAVFhCT4bsgCfhLAoAxyoi7DakA1YRSxg5uhq2lACkk1VIeZwi9uwMpJvjpWBLZMY2CAzZhsV8g0K0uCyFZQCmSNrTYm/gpJsgUBaEWiQnAzF5tgqKAENYpenwJwwsDm2yhwggzgpNseWhTKDkmHmUGpQuTeVDIoJpZJB9onhpBnkEOLjExyCRSIwwYtogxyCfXx8+/p7ejszsMjGE2cQ0JD61pqSyomOaRPsOtocMP3mR5TX3Cc11jW0VFWk24GAoxMWg1yJMqirPa3ZDg7INsjBt9sOGVBgUMCoQfQ1KH0yxQbZuM2aHTl1xhTKDXKYOW1OxvQIyg2yCfEJCXFypIJBIFeNGjRq0KhBowYNM4OCfbLhRW1Etk8wuQZlFeTk5sMMys/NKcgi06DiwqLIPJhBeZFFhcXkGeSWaYcGMt3IM8gT3SDPEWSQH5UMIrJ5TNggIhvsDimpHiggNcWBzC6EmzsKQPdYIK5OTWBpjD0JXZrAaGfsBvn7hUfFxdoTCWLjoryxG+TvB+zH1YZGl7kQA/xCq4EGOKMYJI8wx9bWy8uZKOAFiS9npM4xpLsONYdk4Izorssag8xpIs8cqEngAQQGNWYbQy1yzbG11YYNaTBwi/sbmZBtjq0OG2yQhcHSnHz3gICePmwASYiHjXxj2HiEEENavJL8AuQZI8AvyQs2AgCXeUZDtupFJwAAAABJRU5ErkJggg=='
p44
sb.