ccopy_reg
_reconstructor
p0
(cemoji
Emoji
p1
c__builtin__
object
p2
Ntp3
Rp4
(dp5
S'emojipedia_url'
p6
Vhttp://emojipedia.org/keycap-digit-nine/
p7
sS'index'
p8
V756
p9
sS'code'
p10
VU+0039 U+20E3
p11
sS'apple'
p12
S'data:image/png;base64,iVBORw0KGgoAAAANSUhEUgAAAEAAAABACAMAAACdt4HsAAAC8VBMVEUAAAAzRlsAAAA7UXQ7UXI4TWw3S2YAAAAAAAE1R2E8Ung1SGA9VHw5T3EAAAAAAAAyRVYmNkYAAAAcKDEAAAAAAAMjLzwAAAA0Rlw0RmcyRmQ1RGE2S242SmosPE0xRFUfKjkvP1UuP1EUHCQXGyMuQFM8UnozM2Y0RmkvQWQzR2A4S2o6UHI6UHJDWXo5Tmxefp5khaZfgaBegJ9ggaBff55ZepZjhaRcfZxNaIdcfp1afJpJY4BWdpNFXXtTcY9PbYtcgKFZe5g+VW95lrLf5ey0xNReg6QeRH9ggqR2lK9/mrVxkrBDWnQ8UmmcnbzCzttujqzGw9ZldaITOnnd2uasscuGp8Wgu9Z9n75uk7eKqslRbpL///+XtNBae5+uxtyowtt/oMBzmLpqj69hhqltkrXa5O/y9fiBocClv9lZep3S3+ulwNr3+fuNrcp1mLpskbSduNKjvthuk7Zqj7BmjbJQbI1ni6toj7VVdJlnja9rkLJiia15nLzu8vd2mr1oi63B0+Rki65ljLC4zuHq7/Tn7fOFpcODo8FXd5v7/P2Uss9qkLGJqMdPa5Fpjq9HX4bP3Ol8ocVxlbiDpcS6ytrM1+Oat9JhhKVdlcKMqshhlsKAqMyTsMzl6/GattBUhbCftsx3nsFRfaPf6O9qkbdCcZ3f6vJukrN/pMVTcJVml8Jkh6d3o8mhvddum8OlvdOHpcFiiaqCo8PAz91Kd6HJ2OWqxNyduNSfutZoja1eg6degKNliKiRr8uZttFoi6lmiqqPrcqPr8z19/lafaPc5/D9/v7+/v9khqZmiahUcpWzydtggaGMs9OVt9Xq8vg+daU0ZZ1ylrVLZoQnYJZqkreVss1bhKgjVIp9nbqRsM2vxt7U4O1NaIyrwNanwtpihKNhgqFpjKxGX36Ip8VhgqLn8PZDcp7P2uWnwdtOYJZwk7WascdggKCrwNSpw9tuk7mmwdtshay9z96mwtqkus6Nr81OaopDcZ6DjWU7AAAAMHRSTlMAzwrPyc/PJh7Rz8/PzxoBzY0EThInbyHjeVUaqbS21Fm2wj9AvsYFOisyxtTd+8MT2zwuAAAFrUlEQVR4XtyTRW8jaRQAV8rOHAaUczLJdRh+TrOZmZkhzMzMzMw4zMwMy0yndb5uu792VsnMdetiPXWp+vnJ/up/RerptIwLX+/LhYy006n/FUg/c/6enezfF9J+7/yZ9F2BY5nvSPXigtfa+/2e9Fq9C4tq8l3mMW7g1NkXfKlN+XJa3py1J83y6ZdKm5T/4uwpzvvPFdeGsdBmviK7Z3tPerIV+ZshLFxbfA7aITWzWGrTZ+k0UcGM8NUfe/BKOCOIanRZepu0OJM9ZXrpoo3wbz9TaYXCn/dBKNSqnm37CdtiaeKSJ1JckUDnc5X2289Eq3reGYi4Uk4wgZOlC06B3Kz99bPRmuUC50LpSSaQRobbNQKz6gswz2jaw2QaE8hwRTZCqPmLQEMbEVcGEzjOd7YI0OFdxHYaRlF052MXqKDGyT/OBI5sdZnM6C7MK0MDDXV1dQ0DjbO7H5tNXVtHEoEHvOG5JNDZoYYboZ5btz7Ko411jSiaJAzzHsCBp3OzSRQ03PhIxZEPjZiShLmncKBLb6rhYCoYiFIQ+TdHapIMPfsVDm05iZoVDryREMXlZrmJY9QQzq1D8QDfWdTCg1kpH6ZoLuou0gFdo56jtBQ5+XCAVwCz0aegN582o6oyOlHWzlF4cEBtQx42QTzsE9Cvv0asL68TUVC49FcRx0Fs6nggRe2ubFqG6eukX1oEJkIDplA5rDRVutUp8UCeW7S8DkHodWCBUYIeR8EK2X16yFkWufOggKEeBmm5tBNQ6OmR0PvBQfQILBnYwNE8Nz5RX8RSaQI7Z1XG52wwmyZYpX4Cd+cdjQdcQYs45z3LBB3wixAkNiEIRgeuYaySI7YEXWzAIcPFSgTJYVC2gLvnizAwitp19BUDjIAgSjEucyQCB67GAjgeEOUyKOvpnwHaOpaTm/O+dYUClAUYQRTA8Vjg6oFEYM1owXELLvZhSgAmBwFF622xr+J2q58OaHzgmU+M79jGNSiw5JFZLBaZTGapMPgwDPP9RAH8v9y5fyfgp2jKDJjPUBHTgOxZYgP9g4VGGY3RaIxVKgydFJPIVlBxvrGBx4xYONifCJCDViOMxxPJVVAQWeCo02FYsg6S8cBB8nJJoYdLeKyZDVS3gUyVFxIKSy6TBxOB2vnCZMJ3q5glNqu8oyDQ5oWF+Vo2YH/tkFg5eHp7re4nbZPV1ZN/Pgl3/A7+GmNhyJA4XtvZwAdHCZeO7u5/uj898sYYD7unesA977phxfEBCrxZnYcpkU59t0M3mCQdtkvgEuMcafVNInDYfv1KkMOjSXA145QkGHwbvF8Fph+kHOfKdfvheODvH5dWHTAL9NmrH3dIJOOPfwND89s1WPm38nrXcRMIAzBqaIYoErEN9lLtfXsHbBiG4Y5ve829S59qX8R9pFR+Aqq0MRKRtiHSdrwAiYWUIq63y0pmFo9saeHU/3wz0kwzcbR6KANKGP/c9P1yfQOfJpPJh/e36wP8oEbiUCkDOkp+0caj9RV+vLl5VzzDMKJHEqSTAKNDLaKFf4afKfPLbxFNgzpDAinMkpASjYP5ZmAYjKOQkmQwLQNGnrymJYu3b2YkcPs1XmwN5MZWgDZdXIyGd7PZ3XB04U5JeGegmXr32rbMRcl5EJxHrqvtcO+lTXICrK6ynXLZdeU822mlYhJokkB1dGDfMnv93zX1e6a1XwRaVzaU+zXJ0L5qFQHh2jEUuSbFcK6FIsAdYBMqNUETH3BFQOz6jooGtSDV8btiEWA7x5ZtoEGvsgEybOu4w5LvAnciLW0PoqoBBD17KZ1wTx8GFgiS5ZgerMgzHUsSANt4woPTMx87tqlWYNoO9s9OAd8otfcA6DK+hVP9WSm2fKYLwF67sYF9LHQOW0fMi2cxR63DzuN6tkFp86AWnuxfYjlQGUe2p7Eiz1XAi5vL/wNoyEPBX1H0wQAAAABJRU5ErkJggg=='
p13
sS'twit'
p14
S'data:image/png;base64,iVBORw0KGgoAAAANSUhEUgAAAEgAAABICAMAAABiM0N1AAAASFBMVEUAAAA7iMM7iMM7iMM7iMM7iMM7iMOdxOE7iMP////O4fCRvN1gns5sptKFtdpHj8fz+Pva6fRUl8vn8Ph4rda20unC2uypy+VWJ47NAAAAB3RSTlMAYL8AIM/vi50ITwAAAW9JREFUeF7t2NlqxDAMBdCsleTdWWb+/0+boRRDM7kdL1Aocx8DOSiK7RB1j/QDV2ToxyPdOE4zV2aeHtD0wdX5mA5o5gaZx67nJum7oQ00dNwo/xB6Q4u+RTmyKjIVkFWSItEVQv4mPxJNCWSCnOMAhBwsYQg7Ilse5KNcJCxZEMll9hxoERADIFSQctY6BUpC0Joc/UW7BIXXIZMc+rZ1kuzLULppfVYlXUCoRfcE3dPFlyH17Clsav9fQhuAintU0GyH35q+gOAOoXOVYmtWti5a2azRXrtlQD7IdVwGxNu1E3wOxHuLgw2ftQuG8FcNF4QhZh1AQTkQe1pBQScIxjgi2ggUBCD0sSSugHxyVp8BoYVguQKKYJflQLuABwMQcMRyOUSSQlwOOUlRXA4ZAQ0CEDreguFySINGAwh22nEN5ICTBXE8OxjC2yw4roXYk1L78v7x+y1vqNmQpdnYp9UgqtlorOWw7kiL8eEnl/qnvGqhUMAAAAAASUVORK5CYII='
p15
sS'gmail'
p16
S'data:image/png;base64,R0lGODlhDwAPALMAAABk/0iO/QFZ+vr6/YK6/7TQ/lVw6QAP1Ch+/xly/gM97L+67w1u/zpl7TdN4pqh7iH5BAAAAAAALAAAAAAPAA8AAAResJBJKzUksQ1639tBMIAgWGQpksoyEMEzFEm3Cs5stkOgjjgdQyHzCW65ggDAM64AuV7CMOj9SIJGYeuyHkeeJdOFuHo6Cmoh9SwFYrOyeUjxnW9Lk76kMhz+gIGBEQA7'
p17
sS'related_to'
p18
(lp19
sS'name'
p20
Vkeycap digit nine
p21
sS'known_as'
p22
(lp23
sS'default'
p24
Vtext*
p25
sS'bw'
p26
S'data:image/png;base64,iVBORw0KGgoAAAANSUhEUgAAAJAAAACQCAYAAADnRuK4AAAN4UlEQVR42u2dH7RWzRfHLwRBEARBEARBEARBEARBEATBhSAIgiAI7lpBEARBEARBEATBhSAIgiAIgiAIgiAIgiA4v/V53jV3Tec3f/aeMzPnnHv3d61Z6+299z7POTPf2f9nz9ZgMEzAlk2BwQhkMAIZjEAGI5DBYAQyGIEMRiCDEchgMAIZjEAGI5DBCGQwGIEMRqA2+PXr1/D+/fvh1atXw4MHD4Y7d+4MN27c2Bv8m//Pz799+zb8/fvXJm0uAn3//n14+fLlZkGuX78+nD9/fjh58mTXcezYsWFra6vKOH78ePfnl4yzZ88OV65cGe7duzc8e/Zs+PLly3oJ9OfPn+H58+fDxYsXh0OHDlVbPBu6AakeP368kbirIBAPevfu3c0u9V8EEp07d26jHu7fv7/ZIRCs1bh161aXBUKysUAt3yU1Hj58uHlXNurhw4ejz3nkyJHN3KOOF0ugp0+fDidOnPiHNKis3d3dajsgBybo0qVLWakHwW/evLkn6kM2Dp/FO6Fyc5/1+vXr2e0TpP67d+82hIIwMSKxgfndxRDox48fw7Vr1/4hDlLo58+fXScQSRCbODfOnDmz2bm/f/9WfTYLw9+mPhtCaj+3FXiOR48eDUePHg0+64ULF4pspOoE+vz583Dq1Km9B7t69erw9evX7pOFpMupG4zL0p0HkFJ4Zzmbo/fGSYFnQSKFJDLkYmPMRqBPnz7teTc8IDtbaieh1hCl6GVUDjq8ZPjkzY3S7xgPyXedPn26ynddvnx5QwBsHRa7dAO8efMm6ImybqxFdwL55MEG+PDhg8grQ3SmjD0b6YGKRsqz6NrYFOGUkBpmPaQkqkIgHoS4A1+O0Zyy7HlJdHGI/fwtuwz14wfxJANVIZlwvkP72dIh+X5sQ+3nMh/MSy52hfTVSA8n/fGGQ8T8+PFjewJBCKSIW5yUvUOkd7zQBLrwbDC8pxB4HCYIDYjbErxD7jl43ylRbN4VT9HNeew7NHZnjEQIhZy3PJlA2C1O7KFXUx6Rb7jhoWBw13BVQy8fMmanGMxSkOroRWS8pu3t7eB3YBCn1iMUoghJOKRfMwLxpc5NTk2KH8RDzCKJaiE2geORs8lqIqdO2Ww1PVPUVsw9R7prDOuQd5Zar0kEch4I4jQmlpE07kFY7JpxkRcvXojtjp6QPBfByNrqM6bWNCTy18vf9LH1LSYQLqT7gpixtbOzs/c7/HftCYvtuvGooSq1dqFzKlIDotWOPGP/hL5Lalwzr6HgaywkU0wgx1TiErldSBS6NnBdJeTBPpoDBClzzwbJapeFxEiEapJuJGfXjiP21QhENNOxNBS5xDZy0gH1UXuSfOk3t+cVA1JZUnXw5MmTJpH4UHxH6kjw9yHpTqyvCoGcpxHTjU464Na3CONLo78M3N65kMuVuaBrC+8QAodUkXRDhVJB1G9VIZBLlN6+fTsYkdbqXa3HISUPBJ8TzI/kOSmuawHIEio3kTgyoXkOqbEiArlgGZIoRi6kRAvkSinGAbU5IYkJtbTTYsa8RAoRQAyp4HFgUU0gxK37sLF6woJ3X9piVxE70eSJMAbnhOZ5W3mKBHBLJXMonjV+TjWBCMi5XMkYkMb9rIVeJwOtIVBtN7lks0kTxXhtLcAmD0kSSSViyNMdCwY1gai0i+lDl1BsFbiTJkxTXkNvSNIszuFoddIjFGCUBBdDNtxY/akJREApZuO48lVN5LOV+gqp2DkQC+yFhiT7XYJQXCeX44r93dgsqEYgLPuWE6FVX4wlIFex6A/slRZwWkNruHclEMZVy9iLX2MtGQTClgAN8anEbAFnt47d+UURyI8Ot4AktzROEywBbr6kpG9hB2Ewl0jofUMgXz1qDtAtAW/fvlU9d81SFyNQILqtKZhfAiCE5rlb2EEHnkAUOq2VQLHFiw2Jd2QEamhHrJ1AHP8xAlUGWeC1Eoj0jua5iRrXPs164AkUepG1EGgzycpnrx1BNwIdMAKFqhyMQEYg8SD4aASqCMo+DxKBqDc3AlWE9PjOfiFQ7Wc/8ATSFNHvBwLVLsW1SPSKI9ElBKqdCLZc2O/f6sacc50HG4PKhJK2LUagytA0jlpSNr6kEC5UvG4EmghJy7olEkibTNXULBuBFKBMVrMAFLMvAdrnbhGNNgIN+qQkYwnXEUjOyIeGttmlEaiBHdS7O2wIlKmWEIhCNCPQzLtZ06GrFaQtaFqeaTMCeROhcedbHC/SwD9ooB3SFslGICU0pzNorTcnSnJ4RqDGBNIUqc8djab5lhFoYQTSGKaou16XuoSi51MaqBuBGtsWUltorltz6OU8pQO9EagxpEeGafgwB/yQQ+7GICPQDARCNUlcZGlHrprw54IuJqmu8kagmQgEXD+iuZoWxOC3dOEZNT0dW8SwjEATVRkt+XoZ035bO9fGt4RAlsroBOkC9YgJQVL/vgmnhoxACyYQoJGUJE9WM78UIrLfTAo15pK52s5qjJpXdBuBhJOUawGDKptyrVQK4zydX46hbU1jBWUzgV2bW6wWd5iOj16PG3KXEKj25jICKUiUu/QNdVej1IMurNwDkrtQzr/6fI4GC0agAmM2l3QluEe2vrTojFLVcdNz/h2KOdm5sJURyJ+AXD6KQB9Zc4laQ+KQGqF/8jiVQn4uFrC0k6krJZCbPOnVUKgOFo+z6bwngyAkaorMekw10k85Jsm07V1a3OBjBKoAVE5JSiHXHDzXSQObTPu5tfskGoEqAuOZBGuJZ+RLKjwtiatdciy7tpdoBGoEGqLTuh9CEfiLZc1J2vJz0ib0XNYY3trGEC2uqDICdQTkYMLdwIaZcjwodGdX7yuqjEArhvYkibX5NQL9g9A12r3vDTMCrRgaz6/VlU9GoBVD4+3VDiAagVYObV+j2t1ZjUArR+iapVQ3kVa120aglUITA2p1TagRaMWQ3hvfulrSCLRSkPKQdlNr2cvICLRCxK7bDo3xTchGIIPY/sF4bn27tBEoAYq8dnd3h52dnU0chcQo9TxzdyeTNgUlQdsaRqAIiJukjjeziHPcHQ+pJefhkT41u7EagRSg+4XExmhxCkNCbIn0QWr2gBEoYKBqOl5QjtqzY6t/wDDV9KHXcWsjUOQZ5up6moK0d1HN7htGoIYBut79EiXlG2Toe0pEI9AIJb0He/RL5GKV3DEipFPtO1GNQEqUdLvoQaDt7e3Zg4ZGIAFKur/j0rcEx3dytg/n0+a4fsEINALBQi2BCDa2xPiYc6jasFVnECOQEuNuGJJkJcG9Vsh1SUMyURs0F4xAI2iajROprtmsaQwkW0p18bPW0s8IpAR2hKRDK4cBW3o8SJVcQLNnvMcINDEWhJ3ByU7cfBoUtFRbkCdHYtItS4ARKACy7WPV0SOzDch1peI9/GyuDvn7gkC9XFWSkaHa4lY5Jt4LyZeyeVBpSyLPKgnUo0TBLWioAyp9fGobrjT+zpWo4u31jjJLELv4d7EEqt3fJgUy83QZi+WckAZTbCE8PsnpUmJTc9QeSVXuqgjU+2oBAnSp9AZqhRIL0ggQArc+RCokGtl0riegK5nkVCm/0+pAYC3EGjwsikB+Jy5C9r3B4rPomju6qMmBAG5oaoz4Hham90UuJQhJUNT8ogjEjvYnt6ULnQISRFLQVTp4N9QVmfc1gOcMGf2kXhZFIOCL/Jq3Dpd6Hnhp0rNZuVQEu5i2wHPls0oRa3AluUetO4H84J5/V8QS3FiCejwfz52ybSALpOP3+H3smzWoqRDQArHOspIN3p1AeDyt7j5vZXz77ezmul+1t/HMkKjg7gRiAXwjFvYv1bXd76CBaCzgSexMgu4EAuNandDdEYa2QOWmrr+S5uiaEihmxYdyVLjXhn52T8oL1bTRC6nAagRKxRFCJxN6HaIz8lypViEQqvGuRiBGLNaD3ROy/nmgtXo0SwcOQS7lQi25xpwIRfcnE8jvOpHKeZF8DBlx6OY5yzv3I0gc+3e1xiozNcHPWNHeZAL5Oa/xzXxjIC5THUl7Ze33K7A3keq50yAlNdl4cRIVqCaQX1siOWuVKoDnxcibEeE1d18GpAiLSNWl5Ag1YZWS0paQBxY6Il5UPuhiPbyARCzSr0faaBtSsqsIB9j4b3CmjXnJqalQFUJpXVQsWj/WGkUE8s9ASctIc2WgNuoONiNqqNSmitlRYyO8iEC+eONDpSkAdHbJqVIbusQvObzStEysyjN2ureIQGMDSxsoRBrFqghtlA/U3NSSWuzR2OeHcpvFRyjItk89eYlHh72j1e02/g2LIHFq3PJDLCmWvceeCt5IXYupSJQpnhQTgHeBenTNMm38/6DPEU4JZbc1wyCorpR5AUlDKCYQUWgMtTlbyRnqIVX6gfMT87YnnQIMtZpDJRmJ1oVcswrIFcPkY6S+LeRb65bzWgdChzPHxfeptZxMIPRwKGdCYs+iy8sFJgineKemQKocZI+19ce7WtoxX8N/J1VTBWeaEpxqnRBSehTrfolHfg8a0BaYF5IcGh6fxJat2kojlzjFwCYZZ0Z2X6CGSDlJD05KyVOdQIAYRY7hGGboX3r4EExkZxip6oBgIITBQ4YImkt/XZmNZi2aNPPB7olFNG0scyCd2NBaNOsGReAJKaO5tdjGPAOPudRGbd5OjNLWUKzIxjLyaKi6KeZDt8u9qDGh+tBqgpYhcaYSpzuBHIhqEjciKYh7b5n49rYNGgAPGBundnOI/wFo9UzeMvcUCQAAAABJRU5ErkJggg=='
p27
sS'version'
p28
VV3.0\u02b2
p29
sS'uni'
p30
S''
p31
sS'desc'
p32
g31
sS'browser'
p33
V9\ufe0f\u20e3
p34
sS'annotations'
p35
(lp36
V9
p37
aVkeycap
p38
aVnine
p39
aVsymbol
p40
aVword
p41
asS'wind'
p42
g31
sS'andr'
p43
S'data:image/png;base64,iVBORw0KGgoAAAANSUhEUgAAAEgAAABECAMAAAAV8YMOAAAABGdBTUEAALGPC/xhBQAAAAFzUkdCAK7OHOkAAAL9UExURUxpcfzCG/eTKfzCG/eTKfzCG/eTKfzCG/eTKfzCG/eTKfzCG/eTKfeTKfzCG/eTKfeTKfeTKfeTKfzCG/zCG/zCG/eTKfzCG/zCG/eTKfeTKfeTKfzCG/zCG/zCG/zCG/eTKfeTKfeTKfeTKfzCG/eSKfzCG/zCG/mhJfzCG/qrIveUKfeTKfzCG/eTKfeTKfmhJfzBG/qrIvzCG/eVKPmhJfzCG/qrIvy/HPzDG/y9HfzCG/eTKf////zCG/zDG/eUKfqvIPqsIfzCGvzBGfzBGPzCGf/+/feSKf///feVKPqrIv///vzDH/zCHP3PS/zBG/zAHPzBF/y9HfzCHf7ln/7uwfmjJP/78f/67f/9+f3NQ//34/7jl/zHL//++veXKPzLPPzIMf/56fmiJPzJNPzDHv3TW/3befzEIf/89f7kmfzIMv3PSv7xy//+/P7z0f/99/u5Hv/23/qqIv3Yb/3NRP/67P7pq/zAG/y/HP3ZcP3hkf/55/3SVv/88/7oqf3RU/mnI/u3Hv7xyv/34v3QTv3MQv/89P3TWv3YbvzGK/mkJPigJf/66/zHLv/34P/9+P3UXv3XavzIMP3YbPmiJf7lnP7jlv/12f3SVf7ikvzDIPzGKP3ce/701P3PTP3NRv7xyf7qsv7jlfzHMP7rtPzKOP3ehfy8Hf3OSvzEIv/01/701//77//23fzJN/3Zb/7vwv/23vu2H//01P7hjf3LPvzKOv7vw/zEI/3egv/01f701fiYKP7fiP/34f/12/7kmv3QUP/89v3VYvzGKv3ad/qxIPzJNv7fif3VYP7np/7yzf3dgP/33/3LPfiYJ/7kmPqvIf7gjP7uwP/z0v7xzP7ehv7jmP3SV/7oqv/45P3fh/712v7lnf/88v7gjf7npfzDHfzGKfzLO/zJNf3OR/zKO/3Zcf7vxP3cff7tu/3OSP7rs/7sufzFJf7npP7oqP/++/zMP/qsIv3WZ/7suvzHLP7qsP3Xaf723v3RUf701v7y0OJtu18AAAA8dFJOUwD9t/jR+fkNDdH+FL0d88bz+Dl1vR0Ut8Z1V57JBQzSyQUM0v43WTn9zv39/TfON/n++aD9zlfOOTf9nn41mCIAAAPqSURBVFjDpdhlcNswFADgDNoxMzMzk61kk+y2a5O0W8q0bivDmJmZmZmZmZmZmZkZbwHLdlLnJivv+kuKvupZlixJo7FEvjwFswOqyF4wTz6NGBXyugHqcMvbEDvVKgFXYkW9cjYnSwHglobeaVyTSZvfCtVPB8rSQy0rZmZyFbY4xZq4klfLqYw5ipQyQ8WLuuwwJUuboQwlXHDaWh2mTEYLlMllh0nvGrQCO65Cx5urgSDizIGgQlXPQGIIIcOo88lGo3HbKANCjrXaQa2IIMjph8V1H7ypW3Bw8LnB3eOG6TmHfvmN8SSAeP2A/mFerBheYf0H6Hn73wwkgPik8DasQ7QJT7KTtN7/Tw11DfBiU4VXQFf5k9I2+y+EQlNYxUgJRWog2DqAdRIBraEKyNDbQ0onqFOnIClNj94GcggZ++B2nxbOnR8VNX/uwna4pI8REUOGcNwqYVYE4pD5L2JxAi67aCCFYMRVnEdivDDefHwiznbLZEgIcTODhDbzlolpoGXzhMLhsRwh1KKLj62Jzw3ZnICJQinbqwVpateFFiGTOFk/p0QKxVuJH/Y+oUWHiXJoYgeheFoMIcSfFVpEvpBDcfgNmG4ifUaT8AB9MEmlpo94/E+SpsYN7SY0CVsgdolbEIahXaTDD49ew22WLhEkbslScZYQjxoAd/Dc8lgUarKs2abQReLsm3CEGOKfzBD//Xj/kX37jvQfL83/sUM58vXoVYjUMKRfvxD5QnLgBCRfj+bc8nG2ILFX4tWskE/fOZUuq1lqAYp+OEHZOTyCUwMB9P7YGsVOtZfWWiIIQLh9+Zn7qaFZEKiDzJ2C424u/5Gyet26P2sixW9bMqcasny1oX5VxPr1SeHikn16NqCAbBrP/1wrvo2HOGoIoN+/xG/TwRhADaHk9uKT3h2FqCG08q/oJGyw29iogSA/U+qPh/8qWojXT9kvvUI7ou33R8QQ5CYvDpKcGSsddn+kEJwd+1LaTLBDYh13pIQQHHcvWDY1hpxK9QtS6Ps3mbN6BKCFAP/mLmZ8Nhp5egjAr8LUGO4fjRTqSTajttA/sM76PV12IsV6ku2xsHa/Zdnb059DqFhNtmG3zY/Pr6c9e6TcHeIjhC0exyBnVX7ODjV+m3tqU2fnjNH6ddYpQ77erUZ37KEljB4dRzdXhny9zee4C4GdLzUlCe/AvWZAZweVkByG8fTUEYWnbbx0ssOx7bguOKpDJx3Xi9WxOF/oHEGyXiBoyqcDtSrTOgxTBV9paLIU8K1dl9phqrrjSxZNowb0/bFE9Rr4Ail3Vnd6xj1rbulKK1uhHDnpmJw5CmWzEv8AFdajIEB5hB8AAAAASUVORK5CYII='
p44
sb.