ccopy_reg
_reconstructor
p0
(cemoji
Emoji
p1
c__builtin__
object
p2
Ntp3
Rp4
(dp5
S'emojipedia_url'
p6
Vhttp://emojipedia.org/movie-camera/
p7
sS'index'
p8
V773
p9
sS'code'
p10
VU+1F3A5
p11
sS'apple'
p12
S'data:image/png;base64,iVBORw0KGgoAAAANSUhEUgAAAEAAAABACAMAAACdt4HsAAAC/VBMVEUAAAAHBwcAAAAAAAAAAAAAAAAVFRUAAAAFBQU5OTkAAAAAAAAJCQkCAgIAAABtbW0DAwMAAAABAQEICAgCAgJ3d3cBAQEQEBAAAAADAwMyMzMFBQUAAAAHBwcAAAADAwMDBAQBAQEAAAAPEBBDQ0QSEhIAAAAAAAAAAAACAgIMDAwBAQEHBwcBAQEaGhoICAgEBQQWFhZgYGAeHh59fX0AAABbW1sJCQgAAAAAAABUVFQHBwcEBQUNDQ0ICAhfX18AAAAAAAAQEBESExMPEBBtbW0GBgZpaWlZWVkbGxsAAAACAgIBAQEAAAAAAAAmJiYeHh4AAABaWloAAAAKCgoREhJiYmIbGxsAAAASEhISEhIMDAwdHR0uLi8YGRggISIZGhoDAwNkZGSCgoJdXV2FhYWGhoYkJCSEhIROTk5mZmZMTU0FBQUODg4AAAAPDw86OjpLS0tBQUEdHR0fHx8AAAAAAABUVFR0dHQ1NTVubm5MTExaWlpmZmZAQEBKSkpoaWlXV1caGh0aGht+gIB/f38ICAkQEREVFRUFBAUMDQ0aGxsWFhcHCAgODg8LCwwcHB0dHh4TFBQYGRkSEhMjIyQhISEoKSkDAwMvLy8JCgoHBwcBAgIFBgVCQkIPEBAlJiYZGho8PDwzMzQXGBg4ODgkJSUfHx8EBAQqKytKSko6OjpWVlYmJycyMjJHR0cvMDAfICBeXl47Ozs/Pz8tLi4wMTEfISE3NzdxcXFLS0wTExQiIiINDQ4iIiNBQUEqKioKCgs9PT0RERJSUlJZWVlQUFAdHx8sLCwAAABcXV1AQEBISEhTU1NFRUUoKChjY2NbW1s2NjY0NTVlZWV0dHRqampubm6Pjo+AgIBJSUmKioo+Pj6RkZGZmZk4OTlERER1dnZVVVVYWFgoKitNTU1DQ0OgoKA1Njhra2smKCkYGRqWl5YqLCx6enpgYGCcnZxtbW15eXlgYWFOTk5oaGiBgYGHh4cDAwKoqKizs7OwsLC3t7eDgoODg4NdBoeiAAAAhnRSTlMABRvHBAPYARMCCRXtVQ3qEOYY2HQQ2dkdCvAs7UkHiTd9W/oqSJKO0TEjJLZMhDRovN0VofPby4J3E/HoP/vubqR9rk9vJ/CJ8cqw/CDC8GlB22Ldx+616vDo+nNi/eT48Kb228jSPsIaYfW7irvk99uAmtOcmHPt2OVqt9uOWfj9cvzr6muVkEEAAAfDSURBVHhe7ZUFc1zXFYDXjmXJXsmRFTWVrVrm2o7ZcQyxY4Q4SZOG0waaNAxlZu5jXmRmZhAzM6OZGYMwvatIXq2yTv+Av5mdN+fsnO+ce++b+3i35w53uMN772989+23Nu5fkpRdsn/jW2+/u/H99/6f4P6D//3iaG/7zZ4P33g9oVjy+hsDPTfbe49++Z+D93+j4J03e5zNza3q1kF7S+zhV8ayrzzcV93sAVn7YE3Phne+QbD0g46mMpklpHeLbWq1s+bl0ey/jh8LNpX7wvqQz3tK3fjB0tsKDsw9edhQ1Dn02eefHrJz3kp72T6Q3Rf0OELC5guffv7ZkAnp1NfOPXAbQdr6YcPFisL+s3Z1c3t/t8YVbXqVz8t4ddggotqH2j3qwr6RWsx7pmx9WmrBPG1YQnuvd0UQjPOF/Z4KiTu0h7en3quF1DUhVogRpYe7DVi9oW1easFe7TkEbrIhUqGbQTlJax18wjY9Y7rEReFlWlipcyOoQNbKGW3n9qYUZL9YaqHZi0gD5+zrbpNyIQnNmF9b95oIr9BK4Aaxv68Rl54Pl9KR0hezUwnWIixRwtYprMVd0Up3iYoVVXER/Ll/R4SaCC4lJQbTsA2CSiOU0YKsTXmGQhyuYnRSCCl1GCKwFalDNIxxsYChOJZroAWuShlbguJsVRVelfIk52kISogLlBASiYYZjRUMRBmRxQhRgjBAQJgdF3EM1bGchtCk3MUFFFcixBmVqkgb6PRRKA4EHLd5MQcE56UQUV4ZZipIluUojlqQSsDPhDEY93HKEtbmMiqqSusQTLg4dzFMFzE+SgkX28ycyljKCkvgTD4vFasoGtNFRJy1QkMpqlzmuipa82zOs5oKCo+UUiitwUjinIilMGoVLyVZNKYo8plPiIxCQhSyiXRyDJvPm0/TJBFx2cSE8LwrJBERUAmdlVpQsJmGFOdFJ8JdZ84YvOfqaBLLzONNzaQVFYz5ovsMyIZcDCTHNhfwUrNim1ylIsw2mTcckjByFS1fBLKL5BUohLsuer3eepdAoaC3reDdjqwdENogR1hfnaBE+TGkWjiaXYiSSiVmZH0WAfaxSr5j8gLSJwSrt6MQpCDjP5p6ac23vmLNSxRNKiCooUGqgravnlT/0+f23JeIVr5Q3XsWcLWvr+/m3Xc/v3Pnzuf/8KerPUcBMYdVsWP31y6Db+OWR/bumzMe7j/iPH68pqajEdDhdDqP13T4u8/2xWI9R2P/XJWbz/sa0yNarUjwx4NjV+jv3erKJvWR1lbPYGHhyRu1LceAo9F/vb29u9v+Z7DgGV8xQVDcJmmz2Af+8Ze/PwjCl6N6x3BZGVB4mu1jhhpguHz9sr8wsOGvG958+ulNmzb98le3FNPFLomkuPpK/0Bsw9/W8p40mExAUHYqydDR6Pf7nWpt0H6jOh76q3/x4C2BRetqEzs/OX1h5KPLP1r/gttgCOgBw8HRMQbthTdqQRHYi5ZKXDbcOlh4o7rFWT03IWBEZrOl5ZPTp69cOcoYWa/M22mKc9gxJmkedYAiPSFxqFubC8HmFH4/I3EK4mIRU3v69KFDVy6xOGuz2dxdY0Qdgcpg07jjZAAxm+JLsw8eKZsg0Fl8Pp390IULFw5dwwW42aytl43jdXdFTQ796Ll4WruEjGy4KVjmUTs6H0kICIZhCM/ISH9/f8xIEBafqK08gU3mNsQlYJKgV2MsD1TqA6eC3voJAkSH49yRkaGPhoZ6EY4T4KwoCZctJAsDyeFoOcVpHY5AIKh3Ff8wISgijEZh09DAwMAX3UVVMELoLOIkirXlow63lobN+kDAURlldAnBPUIEQajAh9euXbrUSFEULERwsbYtCZssVF5ebxPLKZHecdjkcCNFmQmBpojjKNOlnp5Y7BiG0RglNIYc0SQ6TXoJOGwGwiydXQZDpwzGtiUEFAzDtCF2tfdsby0th+Q0RYRkkmTK3SLGYjGSNB6uD4F/KfkEAU1pKHm4t7v9sr+VJBUkRCMuV/Ekypkiow5RQITE5QIvLk0mCSgKCrX7O44dCypUqIqUC0UiSzI+F67RcEIVWVQs9onFOkj140kCm/94S+3JKIparShJWVhBMjoxQYH9sao0DC7QCRAFOlFQgmFkm/OG3XMqZEWtUqsKwwXIJBiOpuWk1ArBGtCPRq1JEwCBudoTNLmLpdvvUUpRmkDgSRhhiFSgDdJxlA/wEwIwG8mqo7I20fp1ObuUSivEwdQkEEqhsiobEjyQPUFA0wqjzPybNfkgzI1fvRQNTYKirVJlw/cevWucJ9NvCeRyOYn+/NcPFYBgVKC0kip0EqRKCepTftLuVZDbHsvip6fPSEubNmXK1gaAVDkZaXz8zClpM9LT05O+JLz0hT/JPTCtYOacWdn8nLyV+UuXz579gzjfGScezB5lzdScjOxZMwsKpgERUIFq0Be0LZgzKyNn6n35ax+al/XMroXzf7f7sZ898ejyewHLl9/1xKrdv122JXfdotVPLchf+ThwzJlZMCXu4AHi93zaFDBANlA8fmDFgqfmZS16ZtfWhVvmL/suYNmy+Vu2guIsUL0if2VefIQ5oyOA5olljG1AQXwls7KzM/j8nKmAvLw88MjJ4fNB2SzQd7TxDND6Fnf4H6qP8ljxfujWAAAAAElFTkSuQmCC'
p13
sS'twit'
p14
S'data:image/png;base64,iVBORw0KGgoAAAANSUhEUgAAAEgAAABICAMAAABiM0N1AAAAaVBMVEUAAABYWVtYWVtYWVtYWVtYWVtYWVtYWVtYWVtYWVtYWVtYWVtYWVtYWVtYWVtYWVtYWVuIio1YWVtfYWNcXV+EhollZmh7fYCAgoV5e328vsC3ubtucHKTlZiWmJudn6KPkZSgoqVbXF7KMee9AAAAEXRSTlMAIBAAcK/vn1CP30DPMGC/gFN9KCgAAAHqSURBVHhe7dXbcoIwEAZgCUgAKTbh6Nn2/R+ybjP4k0yDWZzpheN/JRd+s7shy+ol804k4pCs4pmIZJ3qW9J1Ip6AhNSTSLEUylJtJc2WQfkINM1I5VwITr1Tp1vUrobEgzJimt3pnp2mZFxIpOSo0ySKOkwFE5JwbEmOgBAhkKA20Ne0O0F9y4J+FjJ7BCU05xE4n0eJJp7Em0LfU2zmoTUK+jrs94cvlLTOtZV8FqJRK+Psf2MkBQBvl5yDqGpTxMFAB/M0KseW3PaImgC5s27MfEihTKH6fpyqJmnjhaJZqL7iIK8kFQtbU9OzVERn4cO+4F9H+yxpTjLk+C/0lwuOX7f2WbbUW9gLidQEuQ0TvuSKNNYRAOJcWu2F2GuE1xoWm3YXm2/Y7FXLOn5InqBhvJCMzxHivyJalx+uUm21L/5LSw+fFhOVHsOzRgDZRUWpDo+MLcgqqmQ4eexCKKoKZ7D8AaGobTCTkeBCKMoFhj9iJDCAUNSzEMKDDPn/kP95BnpDb6jrh6HvPBDjheyG33QLIVza3kD9Y2h+jXzjTvEglONA7DWCVeu0xoew/K1hcyCUAwjHz4FQDm/5bx0I5TA/R5UNIcwPZBl7IOYnO428EKSAmkpyfBBSPZj4FvMBtCyvAL2hH7HW8aJMjUEkAAAAAElFTkSuQmCC'
p15
sS'gmail'
p16
S'data:image/png;base64,R0lGODlhDwAPAKIFAABGdACJ41uw7KPQ7d7r8wAAAAAAAAAAACH5BAEAAAUALAAAAAAPAA8AAAM+WLoF3o8pQMKgFsgWQP+aBAwZeUGMo6nTCalwM1zjbM+roO+8vgbAQG/363h4wV/IE0yiFjDWBjoVxaqRZwIAOw=='
p17
sS'related_to'
p18
(lp19
V\U0001f4f9 Video Camera
p20
aV\U0001f3a6 Cinema
p21
asS'name'
p22
Vmovie camera
p23
sS'known_as'
p24
(lp25
V\U0001f3a5 Film Camera Emoji
p26
aV\U0001f3a5 Hollywood Emoji
p27
asS'default'
p28
Vemoji
p29
sS'bw'
p30
S'data:image/png;base64,iVBORw0KGgoAAAANSUhEUgAAAJAAAACQCAYAAADnRuK4AAAJHklEQVR42u2dL3DWTBCHKxCICkQFAoGoQFQgEIgKREUFAlGBqEAgEIgKREVnEBUIBAJRUYFAVCAqKhAVCAQCgUAgEIgKBAKBQCDCPO98YfJl3mz+XXJ7ye83c4bSt5n3ntzt7e7trmSS1EMr+gokASQJIEkASQJIkgSQJIAkASQJIEkSQJIAkgTQKPr9+3f2+fPn7OTkJHv27Fn26NGj7MGDB4vx+PHj7OnTp9nr16+zT58+ZX/+/Bn9+X7+/Jm9f/8+e/HiRXZwcJA9fPjw3/M9efIkOzw8zN6+fZtdXFwIoDH18ePHxWRcvnw5W1lZaTTW1tay+/fvZ+/evRsUph8/fiyA2dzcbPV8N2/ezPb397Nv374JoKF0fn6+mJimk1I1bty4kR0fHwd9tu/fv2e7u7vZpUuXej8fK5RXkJIE6NevX4sVJ8TkFMf29naQ7YNtkhUu5LOtrq5mL1++FEB9xZu4vr4edHLKEwUAXW2cu3fvDvZsOeT8HQHUQV+/fs2uXbs26ATl4+joqDU8t27dGuXZNjY2FraVAGppU/DFjTFB+Wi6ZXD6C2GLtRm3b992AVEyAG1tbY06Qfk4OzurfTZcBDGe7d69e1HcEckB9Pz58ygTlB/3Wf2qhBsgtDHfZuAiEEA1W9eVK1eiTRCD43iV8NfEfDaMfgvw2QOEhzbmBOUDD3JZp6enLp4Nh6MAWiL299D+lD7H57KGPrK3WYViHe1dA+TlDc9H0cnIthHT9imPV69eCaCysD08AVQ0WAnYenq2O3fuCKCyrl+/7mqSituYN7hZDWMc6d0ChJPM0xbBwAueayyvc5vx5csXAZTrw4cP7iaIQSAXtUnN8OT0nA1AfBkeASJhDYg8PluMaL1bgDhVeJwkPM9kBHh8NjIuBZAAEkAhRE6OV4DwBwkg5wCRXO7VBiJ9w9sJkRE6LTdpgEiU9zZBhAxyX8vYuUlNBt+ZAPpPHt9yfD+5dnZ23DkS+c4EUEHe3nIyA3Jx78zTs5GhqFBGSVwM9DRJXEjMRX62pxUyhv3jHiBPhvSyNzxWmq3SORoKg9VLQBWYy3rz5o27rVUAOXQosvpURbr5Wcxnu3r1atR7Ykkk1ZPrEnN7wN6pEhHwmLZQjABqcgAxgUxkjAlqcks11q2RmFtXUgDl9sbYb/re3l7j5+Ou/tzuhI0OkLUVeIMIF0LbCRoLIpL5PcAzOkB5WigBya6ipMuQ2xmA9vGpsJ0NmWzGtuUFnigAFQsEYF90cb8T0BziQh8nGjIh+wqHIzWHQoMNnN4UDaDipBEWaHu7kreQ9IUQWxo3X/mskMdhXgwyBENUE6GcTQiwJwlQPlj2KVLQNjEcuwqDssvEsIqxXeV5zkMIkCgV0yUJn62al8vTluUWoOIgRMClwra2UZtJYnLwco852mxXGPEpFNt0CVAxfQJPdNM30GMOUUqXBCcHUD54e1nK6woqeUuxEEBOACou7VQsrbKTKNsrgARQYzupeDJhm4tdR0gAJQRQ+SSFc3IK8AigkQEqugEEkADSEEACSAAJIAEkgASQABJAAkgACSABJIAEkAASQAJIAAkOASSABJAAEkACSAAJoFDXXbjQRzqrt9YIAsgxQCSPHRwc/O+2qwASQI0u/x0eHi69wyWABJCZeUi7JesOlwASQEu/TIoqNLnaI4AE0L/BDYu2RRgE0MwBIq+ZG5ldC2YLoJkClJ+oaGISS9w3CwXA5ubm4kZt17GsoKcAWgIQJypKlsQsEjkEQHzWXBQFIGrnDF0VQwBNECCW9qYnKgEkgJKSABJAAkgACSABJIAEkAASQAJIAAkgASSABJAAEkBdGqEIoJlpd3c3aJ5228r7AihhUU1+bW2tMzD8LvlLBIbJ0ebfPPa1EEADqU9bTfphlBvG8O/0yPDcokAABVSfvqcEiMmcLA6rUa8Ampis8sDYRWU4yoMGMVW/T280ATRx0f2vCoAmnYMwlq0Sw/Q2E0ATFZNf1f2QvGRSbK3tix5jaGdnx3VjXAE0kPb39ysnHsO6KUDYOla+t4eUXQEUWKTTVvXWYFXi500BQlaLSy5ECqCJiX6tVRNOsQbUBiCrdzx9zwTQxGQ17aVpbluA6GVmGdN9OlULIGc6OztrtFq0AQhZ8bSpBlhnCRD+mSb2SluA6F9m3bqdYnxsdgARq6pqFc4kF09MbQGq2xq5fSuAEpflOS5vM10AosV31f+fYnxsVgBh6FY5DhnYRn0BYgWzWm9OLT42K4C4Tm11hi6vDl0AQrgBplB5QwCVtL6+XjmxtAwvqytAuAGs35tSfGw2AFlH96oTUleAEO6AOcTHZgOQdXQnGLpMfQDCHTCH+NgsALKO7oyTk5PgANWlyXJaE0CJiLJ5bYznEADVGdP4iwRQArKi7nX2SF+A6la+rrUgBdCIIundgsDKOuwLEOLYPuX42KQBYmuyju4kxFsKAdDp6al5f+zi4kIApXh0Z5ATNDRAQGwZ000+QwBFEleMqyaOkEbdUToEQMiKv6UeH5ssQHh7LQM2zzocA6A6Y5ptTgA5k/XWM8jdGQsgtLW1Vfk5/EwAOVJd1L1pjnJIgM7Pz83PytNoBZADWWGEqsDp0AAhq5cHK6YASuDo3sR4Hgog6+ZGqvGxyQFk+V2swOkYAAGIdXMjxfjY5ACyPL8MbJFYANW5Flg5UzvSTwogYkvWhFuB07EAsqqBLEurFUAjyop+M2jW20ZDAIQ2NjYmU19xMgARU7KcdYxii/CYAFkV0VKLj00GII7mdZXE2moogEgxsYzplOJjkwCI7D9iStZk89Z7Aahuu6WTo6dmfJMHyKq0kft+yoUwYwNUd3ODK0gCaCSxPVmTQUprFw0JUJ3LIZWSMMkDxNG9znjumjo6NEC0/0w9PpY8QBT4tiahT/L60ADV5Wt3XTkFUEPVVUhtEziNARDa29szbTfvR/qkAWICrQkGrj4TMAZAdclmfV4AAWSIkATH3SG75owBELLiY23DLwKooaxKG6HiSmMBVJf87zk+lixAdf0tQry5YwHEc1qOUM/xsSQBIq+GybNGiLe27u+ErLzK81b9HYLAXrcxdeuRBJAkgCQBJAkgSRJA0pj6C7eTau2/i+nmAAAAAElFTkSuQmCC'
p31
sS'version'
p32
VV6.0\u02b2
p33
sS'uni'
p34
V\U0001f3a5
p35
sS'desc'
p36
V\U0001f3a5 A classic reel-to-reel film camera. 
p37
sS'browser'
p38
V\U0001f3a5
p39
sS'annotations'
p40
(lp41
Vactivity
p42
aVcamera
p43
aVcinema
p44
aVentertainment
p45
aVmovie
p46
aVobject
p47
asS'wind'
p48
S'data:image/png;base64,iVBORw0KGgoAAAANSUhEUgAAAEgAAABICAYAAABV7bNHAAAAAXNSR0IArs4c6QAAAARnQU1BAACxjwv8YQUAAAPMSURBVHhe7ZoxaBRBFIb31kYtNI2VnaAJtgYLTZGciIo2Wlh6oI2KSWNIxNxpsTkxEUE0oI2KVlooNqIByWGRRlMJChHBKlVACGJpzv/tvI05vb2Z3Z1Ndjfvg+HNvL3Mzfz7ZnbfXBxBEARBEARBEARBEHJGia016vX63uXl5cuoHimVSjuV13GazeYCzCzK41qt9tZ3hqDpY9p13dtjY2NflDddrArked4gGUxqu/L8Dya5BPMAIl1RnlbQx02Y85o+FnD9arVafcqu1NjENjGYWBWDvoWymV1toesofQMDA1sajcY7dvuQOLg2atDHNpiT6OMH+vigvOlgJYIwsaMwzzDw0LseQiWIgvHx8TMwT6huCkUjltuBNJebyzYpl2KIQxOkJemzum4KfSf2qklupkLiCKINFZP7zM3I4G+PkcVk3/iOiFAUYT/r4qZ1EkcQ7uAhrsblOEq/qkaHoogfDqlgY4ntYRuXrSg7VDV72NqDCosNgb6yjcsil0xi5TGPR3STq5Ep/CZNYJCvuRoJ/N0cpR1UqM7uqLxgmwpWBMLL2gjdSW4ag6i5x1WiFrUP+jzlZdxMBSupxszMzGK5XP6FCfvLxQRMbgKRszI5pAzf0EcX+uhjV0dIHHx2CG/iLemKbazlYpQTYYLfMfD9GDjlSm3hKKlDnGvK8xfKzZBf/UZ1H/oIzcfQByWrw2uRrFrN5gk+qriACRxGs1t5feYxsVmTo4rguAN9HETz3z5eQdy2JwFpYF2gPBDcRNys+7qblVggysJxVyMnqrZBtC2ZLDnOHV+i2g07hWjsmKbEFoiOODCoO6iuXgLrCiY8h6iohEUF38wbGLd/Son6Iwh0zr8YgtFjnsRAecjnPgEeSmbEITDxXiyd69xsgcW5G4hjiul7EB2GnSWrmmowXM0au9iugBtbZXEibwVagdD5YNAxWWr7F3ICxkvHuB3PyTth5U06q1DkQJhRbsaiiALthjAfqaA+rFzxKZxAtJRQerkkfv0o9BKzgQikQQTSIAJpEIE0RBYIT4bIJ4d5RisQkjk6Fp1XLWd+LQ6psoRRBEGUHuQydLzZw64Ng/ES40jacMgmrUEE0iACaSiiQPTLxxCX9+yLTeEEgig/6YFCxXXdi3AFryixKPQSo8N7vNieShJJhd+DSCREUz9EivUPFhtmk4ZIJyDSFDeNiS0Qvix3ORlEGsS4J7hpRJIImmabNT6xbQtEot/1KxBqDvuTdm9K9NOz53nP8SWnubnu0D6DJ9eI7vd2QRAEQRAEQRAEQcgxjvMHGo+FmmfOb8AAAAAASUVORK5CYII='
p49
sS'andr'
p50
S'data:image/png;base64,iVBORw0KGgoAAAANSUhEUgAAAEgAAABECAMAAAAV8YMOAAAABGdBTUEAALGPC/xhBQAAAAFzUkdCAK7OHOkAAAMAUExURUxpcS8vL0xiZy8vLy8vLy8vLy8vLy8vLy8vLy8vLzAxMV6BiC8vLy8vL2qVni8vLy8vLy8vLzAxMS8vLy8vLy8vL26bpmuWny8vLy8vLy8vLy8vLy8vLy8vL3Wnsi8vLy8vLy4uLmmUnWqWny8vLy8vL4jCzS8vLy8vLy8vL1t7gi8vL2qUnmqUnS8vL2qVni8vLy8vLy8vLy8vLy8vLy8vLy8vLy8vLy8wMC8vLy8vL2aOlzM3Ny8uLmuWoGqVnmqVnmCDizY6PGOJkmGGjl+Di1l3fmiSm2iSnC8vL1dzemaOl2mUnWmUnmqVnmSLlC8vL2mUnWmUnU1jaGmUnWiRmmeQmGmTnWSLlGqVni8vL2+dp2CFjT5JS2iSnC8vLzU4OTM2N0ZXWjlBQjM2NlZxdy8vLzY8PT5JSz1ISi8vL0JPUjM2NzU6Oy8vLzI0NTEyMi8vL0tfZC8vLy8vL2GFjVdzei8vLy8vL0xhZS8vL1l3fi8vL2uXoUBNUF1/hkpdYS8vLy8vLy8vL2CDi1l4flBnbTI1NWqVnmOIkGiRmmePmFZxd1RvdGaOl1Fpb1h2fWmTnGWLlGOIkFNsclFpbmKHj2KHj2mTnFp4f2WMlWmTnVJrcGePmGaNll1+hWWNlWmUnWCDi2OJkVFrcGCDi11+hVx9hGaOlmKHj16AiF+BiFh0e2OIkGSKklZyeF1/hk9ma0peYkBNUG6bpV+DikpeYmaOlmePlz9KTFVwdmCEi2GGjVBnbFNtczAxMTEzNDIzND5ISi8wMC8vL2WNli8vL2iRmi4uLjI0NC8uLlh2fGmSnGmSmzEyMzI0NS8vLjI1NjAwMGiSmzAxMT5JSzU6OzY6PDxGSGmTnDlAQTc8PkBMT1d0e2SKklBobTQ3ODtERkRTVmGFjWeQmVFrcD1HSUlcYEJRVEZYW09ma2aNlmWLlDpBQ1p4gF+CiVVxd2ePmGWMlVRudFx8g11+hl+BiEVVWTU5Ok5laktgZEhaXkpdYVZxd2KIkFl3fjts+bwAAADGdFJOUwB4AbjJSPT6UhIH+f3mU/7uLx8UCwUCBTnFzZzUAgii8UIdDpP4BEsr2v7rJjY9GNYcN1OIGJf2MoGwE6ZtMVAq+Ard8vbxhph1+tF4ES2bu0Rt+UGswV/XOtEg4PlNrEnvQ61tLVxSzkp7q43hfvX6nqcm3lB+xMebtGhfIfaQ3lUNaJeD289I6rfK/t5v+ymj3NLrD7nmW1Kvcg+gklZ7X4TR5dLp9vW47VAi4YXFauvB/hrY+3b1HNV5uKjQZ+n6/TVF1LdND0UAAAQQSURBVFjDY2AYBQMJxJXsOvj47HVr5bDJMun7BQJlI3WUCRijFD7R28WRm5vbJSI0SEcMTdaaz6O7EyTr6tzloyuO2xj92d7c9x89/HHx/MXbd/54ObvrIMsqLwxzffr9xvWLFy/evvq7Z7qHrhh2Y8RCwrReXrt04sSFY8eOnTpx6uSzp5NnIKz1C13++/aVEydOgWVPnHv4KsbHF2vghK/9de0USBkMnLhy1c0dqlYscPGr26iyl254zVXCYk7Qqs2XkBWCFV/rnwcJ1riYR1dOoMs++DkLwyQmvmU30BWC1J4PXgDyXeTWO5iSx06de+6PHn0OS69iMQeo9vzGOGAs7HlxAavsueA+1BCX8395DDs4cX39Fobt2y5hlz11sdcOxaCQKScv4DIpdkP0rgencMneqFdDdlDLsxPHcIFzm9Ztxi17pcEByaDatnM4VQKdtOQ8Htm31UgGldYhWXnq0vmL55C9cvItcqgcO3nxJIqDi5D8VnYdSeOtn1rfPrzA4cRT1/+8e3/35UUk9RnWiMxRiXD7qYdfL589e+bTr3PYzTl9/OzZsx+fXoTHzYXcVERYZ1+BKz1/9+ZxILj85g62AL706ixI9viT53AnXUhMQhiUjBSd9y6DlZ65jyXpnLr9HmLQmXcIP+Rnwg1Ss0EY9OgjWOXxs3fPY0s1UGvOfrsNd1JBOiKwVRBK73yCGHTzM5ZAOnHrMdSgL4gkypaAMCgH7o1TP76eASv9+B1bGJ37cBNi0H2EGK8FwqAUdoT4o3vAYLh8/O8DbHnm1LPHQHsun/2C8NkxA0OEQRIKSGn+hdab14/vX8eRu67evff63+e3SLLMXAiDTKWQ1T54ePX2FSSV/Koo5crbq7dOItvCyIQwSNaEH1ntiRMo4VNSyIPEu4Amqy2BXIwY8eLOlsfMNDTxyMZzIRvEZcaPUyWvBIMlD05ZAVbUolbDAJdKdktRBiEpnAapcKEV/mkCOFRWmQKl1XF5XVIIvRrhyjLHqrJCEBwbzdjtkZHArNhE8rCo5S+HJlsuW20s5kjpIUU9gyjMTTUYkcMmXwxPIY1R6CGuaiWIHDis8vt3QtmChQpoLjfxZIQDdEkeaWFkHwEj5OC+3WsgHEV8yQnD2zKKyAYpKhw7efp4xKIJIOdLHyMJyCNHPSsb0KCbx59MahVicGImzSBJTnSDgEXDzdPtthokGsQijMWgM6dP8kTxkmgQJ3aDjpEKRg0aNWhkGSQQr0kFg8662SgKM1Nq0M3jK6bNdGIQocQgPW2gQTtWzp8KqkgoMUg44NiBvavnQGokSgxiEPTUgxW9TZSUkCh1JCVlNjKQVSHNIGkuXN1swXJVduKBlBHuDruhujEHkcBYXWh0uGVAAABzhdf+X26iaQAAAABJRU5ErkJggg=='
p51
sb.