ccopy_reg
_reconstructor
p0
(cemoji
Emoji
p1
c__builtin__
object
p2
Ntp3
Rp4
(dp5
S'emojipedia_url'
p6
Vhttp://emojipedia.org/page-facing-up/
p7
sS'index'
p8
V804
p9
sS'code'
p10
VU+1F4C4
p11
sS'apple'
p12
S'data:image/png;base64,iVBORw0KGgoAAAANSUhEUgAAAEAAAABACAQAAAAAYLlVAAAGiUlEQVR4Ae2V3Wtb9x3Gz0WgF1sY278QelkY7GK73n9QRkcYC2Udc0uzyzEGg61sa0sgg63QQFnSNRDE6no4YLupbc1OjPCrLNuJNEe2IuvFL/KLHLt2kiZe9+zDw0EKx17QUdw1jOrD9/v7Ps/vp6NHJ5FP8NXriNeJ4GTw9dg8d2yf//1XBxf/sRCPwcX+uYt///lPN09uBvE4wvrBW1WtxKCqikq6o7xu6k83+l7oC+JwhPXi28tajcGyqgQo6LZmNa6/5Ae+NxC0zmGrrQBlB5jRhDqV3v3oux8FrXLYih1gxQGK/icY03Ui3HmQ+E4iaI3DFgFWtNY6jQh3NK9ppXRZdc0Q4RgCTIZrSXMtRChpgXOjSuiuyo7QXgB+BWuqmb+qW31KKEUlPeMeyZojFJXThK4SaE9LjvCUAaZUpm7Sb0LevXY0/s9Y4kxavVqUtK2iI7QVoKb1uDhCRQua0Seal/RQdd8FfhExfwVtB1hTVYsESCon6XMibBNhlghtB0hrwStdFU+3nhBgUhkVNKshlRW+dID/z4PhnwwH/43DFgHWtWHe0d90mcrSU1TVOqUhdes88zV2unE4Q7QpXVeXLsF5vav38Lpx8lqFTEcmOJrDFgE2tGkyWqaDV3cq13AL1lbEXVdJS0QaUZ/O6df6DfxKv2Q6r+4HjhA/wLA+1LKu0Ufpw3Rc1DXcD71/FYahj2+c8E/1Is45/UKv8tFvyjCdrX3w4gfBYQ5bBNjUllmBnHtGObgjK69bdFbZN2mVOTetJCG6dFnv6YLe1yVd9PSOzt76+NTHQZSIhGaA8OIZKufuAJ6ue6fhWE3rlkY0p3HfLf7/EKMPeqFbnbqi02dPB1EiEgiwpboZh34+bEbzXKBH49Q82sU8w9qP20kRSUPqQ/fS55TwR05qCiaIdENJvfTnl4IoUQN++Pu6tg+xJFfIbWrtMbXkvbq2VNE8dZtAaeXBHS+r2dYDbOuuuaIRvasezekKDDJ1waAm6SOUFVOP1RV1akCXleHmlzWhS74H/RpjrfhpeeaPZ4IoEQnNACG15upyN3mVIv421PmorfCnWdAGhH8p4wfo8beddB8J1zkYNNwhz5zwnfAJGIBZXdc4UZpswSvnXgmiRCQQ4K52TFl51YDObAWeoBzOXu14fexdOw3umpYD7GjXTCmpBaVggXnK8y2KiQLrBaBTu+rDqTD7XejH2YkfgItCMvyQinUF6JqiO4h3rfzIwjO8q/0Au/r0MTbcFykTmcMzUHU1vWrk7G78AAmlw7/vi/SkLlApZe0lcN9HhWfc02h2oMrUx4pWUhvxApz+3afaM5thX25MTQ8XQjdyHlSwAp8CInS83RFEiUggwJ72zZD/7g+ZDHR7HWInoVEYUg667XFO3Xgr8immHCs+7Ju91gPs654pqg6rIUx2PCvn1ZpipdC8K9yHIjDjgfbjB8hpjJqhhsWl6HUU2KXrE1lz9hwnZqhhrbKOcfKqd4j0NAG4nJlxgBx9zGGYGg6KacxrM/K9UNXjB/jRG/d03yxpnJrXmrEKuc88E/rzfk6ivI9udJ9scK/1APf1wMxqwtyACZUosK6hSqxXVaNuy/uufmrW/Yb7gwb34wcI8bOuqUqUNZ0C1haIEeAzGT/p8/Q50WHAfYKdTrwJakA9djhBZ6LKuBP4c1Zz6M9COt6KGaCmsmuHXqOXPePZaWKvedLkrT3HD/BQRoO6CZN+DI1oF72ArlBoap2a9ImH3sE3PqNJWKd22TV67c3XgihRA5oBeAICH+TL7VoboSkcQMmdWneveNd7jhM7wCMZdfkxsqgKK8gPYvzFhmKfmrL2OXSFySf0KELLAQ5k1OVnX5rOqqSq0KtNKqkClVIap4tKo3tZk1TWc4H1IELsAE32mpNn1xNOWT19gJS/aRqSykJKe+q16/vge5P1iV6674ldTlK42nu6AFVtmizsQRUPDSj3Qqiroa76PWlrVHsBfvzbf8koa6aVYi5oGvaVpC/DtL/nvr93lr6FU+DcE2gnQIHaopY98wHuW+iCcRQKz2f3jyfA5/pieP0PrwdRIhKepQA5qv5lBPi3jIq6oISGWDNMQ7CN2z6xAxwz7dyBnDKwrVHPo9arVJH6HwTIwbaKlIPQV11F1//vP8FXAc688aXfgQM9+gI4aC1AcOJrLzz/8qmOUz87Zjqef/kb3w5OBC28ngtOBt8Kvnm8cMWTXPnZe/0Hepqk0Me5aeIAAAAASUVORK5CYII='
p13
sS'twit'
p14
S'data:image/png;base64,iVBORw0KGgoAAAANSUhEUgAAAEgAAABICAMAAABiM0N1AAAATlBMVEUAAADh6O3M1t3h6O3h6O3M1t3M1t3M1t3M1t3M1t3M1t2ZqrXh6O3h6O3M1t2ZqrWzwMnG0dijsr2mtb+9ydGcrbjP2d/L1dy5xs65xc55loHdAAAADXRSTlMAYL/fUAAgz2DvEAAA8SobGQAAAP1JREFUeNrt0t0OgjAMhmEcsA2VDv/1/m9UQckXYoFtTTyx78k44Um6tUDe0ELhVVtW+7mK8cM6olWobTdrkG0oAoI0CzmKgyDxkKdICBIPmVgIEg9RJASJh7aRECQhBEk6GiQpBEkMQZJDkOQQJB7qwlcdC0HiocDEQJCEECTpaJCyLvvKSTnQuWWqEqFTL90YqEyE7qHvwUyXeNl0DDPthor3sf78dLiIoVE6xkP8aLin0zokqB4q3scfQF2IrluEQkI/geSj6R7pHuke6R7pHuke6R4ppNAUMvmOmUA+H/KA+lyu4+opZJs8p7GAPpLLcZytAY15k8oYj7+fn0YEsL7Tg4AAAAAASUVORK5CYII='
p15
sS'gmail'
p16
S'data:image/png;base64,R0lGODlhDwAPALMPALPV2SUvMbqVlUdXX1NfhsXLy7J0c761uL6lpcTj5dn//qfHy8v29S8wY3CAoQAAACH5BAEAAA8ALAAAAAAPAA8AAARj8EnZiLuOhDntUgqjABvXJMhSGEJaUgNBAAViL+9DLIlYHIgDiTOzIQTAA45IK/yeww5AQK0KltJEApAoaKOSmYFFNmDDvbSWAdYtxvDxWddj2O2jHCEB6oMSOQEDg4SDASURADs='
p17
sS'related_to'
p18
(lp19
V\U0001f4c3 Page With Curl
p20
aV\U0001f4dd Memo
p21
asS'name'
p22
Vpage facing up
p23
sS'known_as'
p24
(lp25
V\U0001f4c4 Printed Page Emoji
p26
asS'default'
p27
Vemoji
p28
sS'bw'
p29
S'data:image/png;base64,iVBORw0KGgoAAAANSUhEUgAAAJAAAACQCAYAAADnRuK4AAADwklEQVR42u3dLVLDQBgG4AokAoFAIBAcAYlAICqRyAoOgEDgkBwCwQEQSAQCgUQgOEAFAoFAICoQYb7OpJP+JOSndAh53pk1oduE7QOzu9lNe4lIg/Q0gQAkAAlAApAIQAKQACQAiQAkAAlAApAIQAKQACQAifxbQMPhMHl5eZk6dnNzk+zs7LSyxLUDtKK8vr6OG/3h4WHq+PX1ddLr9VpZ4toBWkHe39+T3d3dcaMDBFClfH5+JoeHh5NGBwig0hmNRsn+/v5Uo88Cen5+Ti4uLlpRNjY2AFpljo6O5v5qZwG1KdGHA2hFOTk5WfhvHyCAfsz5+XluvwEggApzeXlZ2PEECKDcRIOura0BBFD13N7e/ogHIIAW5u7urhQegACay9PTU7K+vl568g0ggCaJScDNzc1Ks7cAATRO3Fnf3t6uPP0PEEDJ29vbXGMCBFCpxM3Rvb292jcgAeowoMDT7/cb3cEGqMOA7u/vG9/Rjr4TQDrRnQxAApAA1FpAMXyPPkxaYq1zUb6+vqZeX6d8fHxM3q9snThv1fOndQD6xRwcHEw14GAwKHx9fDBN1x1Hx3vSKCXrpB31Kucv07kHCCCAAAIIIIAAKgNIJxqgRoAM4wECCCCAAAIIIIAAAggggFYJKO6VxWvSEnvH0mSPZ9/n8fFx7mdVS3qPbvb8Z2dnk/PEDtpFdQD6Q4BmJ/KKJgXTLON5QXkTiQEg73cxkQgQQAABBJA+EEBGYQABBBBAAAEEEEAAAQQQQG0ENLsisGh1YZrYf1+mTnz3Rna6oOnKRysS/yCgZUwk5tXJTgrGdSxr8hEggAACCCCAAAJIJxogw3jDeIAAAggggAACCCCAAAKoM4Bml5TWKXnLYLPLU6+urpa2DBagPwToN58PZCIRIIAAAgigXwQUjwWOOk1K9kPKHj8+Pp4cjy06Tc8T1wqQUZhRGEAAAQQQQAABBBBAAAHUYUBVViR60DhAc6myJtpXHQAEEEAAAQQQQP8F0Gg0Gn9PfFqyH1L2eFGpUyfOu+j8ZeoAZBhvGA8QQAABBBBAAAEEEEAAdRRQlSfVVy11tvV4Un3LAC1jIjGv1FlU77syAAIIIIAAqrmtJ2+LTp1SZ1tPts7p6altPUZhRmEAAQQQQAABBBBAAAEEEEAAAQQQQAABBBBAAAEEUC6gfr9fetvMfyhbW1sALRNQ1wtAAAEEEEAAAdQNQNKeACQACUACkAAkApAAJAAJQCIACUACkAAkApAAJAAJQCIACUACkAAkAIkAJABJu/INiPdoYLYPAfEAAAAASUVORK5CYII='
p30
sS'version'
p31
VV6.0\u02b2
p32
sS'uni'
p33
V\U0001f4c4
p34
sS'desc'
p35
V\U0001f4c4 A piece of paper, with the printed contents facing up. 
p36
sS'browser'
p37
V\U0001f4c4
p38
sS'annotations'
p39
(lp40
Vdocument
p41
aVobject
p42
aVoffice
p43
aVpage
p44
asS'wind'
p45
S'data:image/png;base64,iVBORw0KGgoAAAANSUhEUgAAAEgAAABICAYAAABV7bNHAAAAAXNSR0IArs4c6QAAAARnQU1BAACxjwv8YQUAAAE4SURBVHhe7dexjcIwGIbh5Haguo4ZbgP2oKGmPoqkSgqmoKBjCCbgZrgOMUb4f+L+uwu2JVvvI1mOEVHEa4FwAwAAAADIrg3zYsMwXGxaz6ukrn3fH8Zx3HZddw6vJfcR5nes27b9Sj3sOSt/2DRNe9uUo1/nECNQdhbsO1ekIgO5XJGKDeRyRCo6kEsdqfhALmWkKgK5VJGqCeRSRKoqkIsdqbpALmakEgP92r/pHzXsfRs/lsy3LBfjLHazHfOjQFL2oU92FtuFZTYlBbrb9JhXf/Y64IbrRYr5itkmfPpG/GfYba8D7juq/JGOiUACgQQCCQQSCCQQSCCQQCCBQAKBBAIJBBIIJBBIIJBAIIFAAoEEAgkEEggkEEggkEAggUACgQQCCQQSCCQQSCAQAAAAAABlaZon52FlMzXnTqsAAAAASUVORK5CYII='
p46
sS'andr'
p47
S'data:image/png;base64,iVBORw0KGgoAAAANSUhEUgAAAEgAAABECAMAAAAV8YMOAAAABGdBTUEAALGPC/xhBQAAAAFzUkdCAK7OHOkAAAMAUExURUxpcQBsogBsogBsogBsoghxpQBsogBsogBqoQBsogBsou/2+uDt9ABsogBsogBsogBsogBsogBsogBsogBsogBsogBsogBsotfo8TmNt2uqyQBsogBsogBsogBsosHb6SOArwBsogBsogBsot7s9Ov0+ABsogVvpABsouTw9QBsogBsogBsogBsogBsogBsogBsogtypgBsogBsogBsogBsokOTuwBroh9+rleewvf7/SuFsjaLtvL4+gBsogBsogBsogBsorHS4wBsogBsoqfN3wBsoiqFshN3qQNto5LA2ABsor3Z5w91qIG20gNuo5nE2gBsogBsorTU5ABsogBsoi+Hs6jO4NDk7gBsogBsogBsooe60wBsol+jxQBsogBsokKSusvh7ABsolyhxGKlxjOKtXGuzFOcwQBsoj+RuRZ5qsXe6gtzpunz9wBsomSmxwBsogBsogBsogBsogBsohp7q3qzz57I3Nvq8q3Q4QBsom2rys7j7QBsohJ2qU+avwBsogBsopHA15vG2xt8rHixzgBsopnE2rbV5EeWvDyPuDGJtHCty1SdwQBsoqDJ3Hy0z4291bnX5Rl7qx59rT2PuK/R4mWnx2GkxiaCsHWwzVifwv///wBsogBqoQBroQBrov7//////wBpoPz+/gdwpfj7/Q10p/z9/iKArwFto/r8/fP4+wtzpubw9u71+b3Z5yqFskiVvQVvpPH3+vX5/CeCsBZ5qhN3qeLu9PT5/HGtyzaLtu31+UyYvuz0+ApypkOTu93s8+ny9zOKtYy91dvq8pzG2wBqoCWBr8Td6hB1qKXL33awzfT5++fx9rjW5m6ryqLK3cHc6bvY5rXU5Mjg6xp7rNHl7kCRuTGItIa604K30hh6q7DS4om71B9+rmeoyAFtoleewiSBr8vh7JHA116ixMbe6lmfwmuqyT6QueTw9WOlxtnp8Z/I3JrF2tPm8K3Q4XOuzE+av5PC2KjN4JbD2R19rVOcwYS40mKkxrPT43iyzlGbv0HRwgoAAADzdFJOUwD5/PUC/QH+/gMg/v8S7gXDDM/hFAnThv/++kbyLGn9+U6X5vz+Pv6u/SRWMssZnTj7bSlLu/v+/fr/+vP8DxV+kvq3xvqg/fz89uT7/Pr/+nnZ/DXc+/v9gqh3+Y/6ilT5+b72+vr9+er1+/r8/ar6tMhjW3v7+vz9+UH6+176+6Qd+/z4+XL59vnz+vXxX/j4+fj7+Pz69/Lx8PH//////////////////////////////////////////////////////v///////////////////////////////////////////////////////////uGZCogAAAfASURBVFjD1VhpVFPXFpYwJBAmUTAUGWSQSYsDtoBUtFIVK/Kk1taxtVprtdp50o7Wtnawfa9977WvfexzLysJaRgEQsKwkjIooDSQMM+KIDMRAeeO594kcpF71Q5/un9krdx18t29v/19+5yTKVP+lmE73cH2L4CJmRXm4vKul8ecQ642fxzFauG6WEugwuJBtx1hH4Z7LvkjME7zlj1Mo5AECSY457AF8w45/U4YXz/jz2FVxHweQoQRjjfTbdPLHnaud8rwehqG4OMP68PlHx1p3xYdEc8TI4IC41smBq2bdydlhsyYhtejwF0fJwC6R5iEI0pYsGa1es8r1gITmOOijaGeMVNvBbPkRRecCZHg/g//SAFYP5B0I5Izyw/86x2fDJ4RzNIv8fnZ3DhznsWdIro+PaJPWhOPE/o+aWKk+3tvifQJFCCawCArDpipXnSrItb6JyWpItGEhMYjzf+BbRvmp+KFmziAliyjhcP75rP/H/32f/Ek2p6ZxB7Jwd4KBLzPOZq+1MLY8nsFVABHQsYI2EVAYggrjk2oI6YHUUFQyiHEnAnh+GofQBi7D+3mAgR+8kl0dPTiiooKeVPT4gZunO/uEoDF4+zeepkHROT++3BkFhUVGUZHgyXcQMGLCXA5xJ6QGxARjybdYdxvDeDL3jMvHvBfpXMQFqR/dxscqjLLWewSWg7kK3RChksVQ+qT9cejkm9d2dy7WYHWO4JgWwq1qE4qxv6U5SqqrvQEcND0kDXwH2OvbDPfLJuAi5prUnTqFCJS8zQDZVki4SQcCa5spgd7ZYuA8LE3yVbYPDZYmk9iLSEEUvnQ+Y6GZnshg7fgDQQ4O7Cb1Q/Qc2kMNgPqyi6dzaDlKUZdOfnZJefUIz83GpLNlW1kH+NefIj7500FqIbPdNQMDMnzE05RWhcTOVKZpplKGVfmeJDdZkFYRK8bva2a0GeV0PDDSE1LU0YqZg2h1BGKRQ2CWPbKQhIB7aYRin4598uFfr1uQrsk3w83lNUMXNLktvTgr2uwz2aw+2yWBQjeo8vvl4pRQl6u4uJI9bAybUKpKTq9/Qlq0VoSZoazG38GEKueoVfrfzqbgOnF7ZLJ3fvaxhoNaTc3X3cPAjd2NbruALTBNDOiRJWdmnxAxnmSk7dSoR6pG1YygN7cS4Av+/7mOQ3Q1+NvTg7ov9pXmpdKIVGjCTK6W873ZolMaK/xwOIt9tn4uAXwXrvJlkWNtRdburUUEEnizy7p2ZI2KmvJTgTTFrKPIkzR3icmO0qis6/u7WyRa7uMaOIMatQZViJ43pXLH6iUdlRBR1llvUifydBSmtI+67Ja0a3NQeJ8b/zgy/kA69hlvRBTtJO20mWiS6rNkw8NVPWO9RxT3rCXRGmoO1nVNxKFCdzCaViKIjhM/+CKjB77CJ2C4tMVJYO9DcPp49Kk26Haztl8TBEZb1SRrmFQI8OtJ6nzDMWzTN6iru1RMmbc6xEErLDlpmi/eaH+h7Jzrdouuu0UHJbm6aGLZ+zNiT0SCPwXp3BRJNjJnKuSY/2VVYrWvBy699RmR0izf2o0yuIpBE/PYwcKtQT+4ck7vL5xrK3PXS4j6dyQuISWvjCa0/lOW4F8m1aRvr6+ufwYk5A05XD11U73JikeR616sz+WsTc/5gVA/6VUpOsrLpY1tRZ2tp0RBTCsmiZsrlS75/bSYjgSB7xQ9spm4/3jKLXmRLaYpNxAtV5zvizLoGM4JtMInfIk9ocn+whZyofAh+g3X3BntB60udc7qgtUE5nbjze0RexHPocdQCw27R8BWe3XS/OkCQRFL86N0HYX/vjzsGpck97xJH8je2UHcWXPjW81KcdGqy/XFOZK6dwoGRXLS9S1/aZpteVesGQfjrZb8c54/829jyqvbi/M1lLHJYo1AvLP08Mo/R0EiXZchxC0i5Z15pWOq/XDKePNKqg7WVOSSw9LQiynq/f/DwHPOnEeQtbSyrkqhVRp96/tWYZxSiRR9nW1VZeyT2sH6RYesAbeAlac6c5A/Nt4KqosRpQbIKO184KIOaMlUfqeLPqB5A28M65nBXoL70NPGstRtslTaaMSSNpU2F5tUE2yzf5P8Z4/nQ3nbmcgV3mbRTdadr1ClkNZCycmyz7341hzQDoTyHsfPs2w+uNDHggiGW/WYYLVimtSkh5vRPHpbEUlY8/9gKv5tsux7nxePSBSMaeIUjRWVVhBCYk6I2cfHz9buyNwYR2OVkE0JXER248+8sQJ5navK88qG9DkpxLi3PIbD9fgsb+VfTh6uPCAxiK63i7d/UX96IRunWisHSysTZtwTgvnuMbYveQ792njnRMJIPD9kq9Xe/szCE5mnNPsVxIQO537vugwe8GKuX4WZrQEax/FXRht8vUBjyL+Uqtb32Ed5rw0Y/nDjnwwFiqIy3h/++Bq72Adk7aPEfjNuf0N1GbqoYMLfJ39LPmm3MRxWp/da786fp+pCc+sIuHdO74XO4TM2hxmRsO+F+yL2PPUkY9EmTrVB/gaE/r7LusxIeGbVzg/aGECQ7z511bu+WwvySGi21QaszB8Y5DbTHNq1Ji7HdW3yM0OdzR2muliCbF2f+afFhsHTw+vxzY5uzgv8/zz/9vYOLnGuFpN+ZvEbzdRJRMJkK7pAAAAAElFTkSuQmCC'
p48
sb.