ccopy_reg
_reconstructor
p0
(cemoji
Emoji
p1
c__builtin__
object
p2
Ntp3
Rp4
(dp5
S'emojipedia_url'
p6
Vhttp://emojipedia.org/bookmark/
p7
sS'index'
p8
V808
p9
sS'code'
p10
VU+1F516
p11
sS'apple'
p12
S'data:image/png;base64,iVBORw0KGgoAAAANSUhEUgAAAEAAAABACAMAAACdt4HsAAAC7lBMVEUAAAAAAAAAAAAAAACzf38CAgKSkpAAAAAcHBwAAAAAAACCgoGMjIucXFcAAAAAAAAAAADd3NgAAACXlpN1dHIDAwOPj4wAAAAAAAAAAAAAAAAAAAAAAABzcW/U09FxcG4AAADAv7wCAgHCSkP0V0wAAACcm5fLysgAAAAAAADpTkR6enfZ2NXzkIm0gn22RT3sYlkAAAAAAAAAAAAAAADOzcnJyMXGiYbmSkLxfnbBRz/FMh8AAADlgXqSkpB0cnD5fnfR0M7iTUT0UEX/bGHsT0T5kIq+TEXhSD3zW1HJycbdRjz/iYL5g3r1hH3JnZTlSkC0s7LuYlbiS0GSIRanpaHniH3CVk/EOzEAAAAAAAAAAACdnJnNzMmAgH7h3968u7nGSkLdRzu6S0S+S0Xyi4bBRj74V0zuYVcAAAD6WE77ZVvxiILxUkl/IheyJx2urq7yg3uoXVjKLyHIxcChJhlnZ2W4PzXGMyfUSECcNzDqjIbYdmOTMiuAgHx9OTVdXVrReXSwfnfNX1jf3tvm5eHS0czd3NfY19PU08/q6OTa2dTX1dDo5+Ph39vR0Mrr6uX6+fTk4t7V1NDu7enb2tbn5uLs6+fLysbw7urR0MzX1tLe3dn49/PU0s3KycTOzcjl49/Pzsrw8OvFxMDIx8Pu7eidmpDi4N2tq6SnpZ66ubHMy8fy8eygnpXQz8rIxr3j4d29vLfp6eb29PC/vbL08+6wrqnsa2Olo5q4taza2tiSkIjhYlrNSTPCwLrMysG0sqvOzMbtTkPvZ17tYFe7LR7BKxS6urX2Ylj4aV/7YVbuWlDtVErgTEO0IAqqqKGjoJj39vGtPTDHRzTEw7vZX1SDHBLSVk79ZVu8IwzRUkDX2NP9bmSxr6OhKR3ioJXKLyLCS0O7QjS/OCTJTT7xcmnYaFnINyD5WU6WlIznaGDKWlOmGQXidWuTJBqlHw3GPyq8TET8+vbMzc3/jof+dGvRpp3YtKutHwvEiv6gAAAAhHRSTlMAFg8TAwY0AgEIDBA0BRlOO/FAz4kD0CYOKzUwV4nykwriHhD+hc/xIUX+ifE8C3ZJZnB4fvHhHiX+PPxc+kiO3fH0gIbHTbW2Zd1a9ipn/ZnHFujr2sLwk42Rk7Xjb/Pgfnmz4ZTk6tJgn9bP1SxNu6eW3OHfnoW06K59u+PfR7/i7ftpAfyjAAAGNUlEQVR4XtWXZVRc1xqGgZBMgCJJGohwU5oQ40ZIQlxumjbVWCN1d/erLsdl1N1dUHd3l7i7S+XKv34HSFllwcwa+NV39tkzc2aeZ797r/kzYb+oPL58feRE+N27fti1/bEJCB77z6lj1x4dPx/7MfBpG8YvSG89dSz1yQns4KPWU621z4yf3/9+a8u1AwvGL3jq2rGW9n0T2MHOay3NaZtChLZN+QnYkNrckrozNjR+yuuvxtwHHk1tbk57K0R+2nffPT1kiP00taVtx4aQeZFoyJDeXl/X/mSIvEikE4lE61ZwwL72+vqO4R/BiuV7IoPyQOeJdDrROuiw/0BHefkfB38Ekbv3fLn98uX0IPwyQEW6vB6dTrduxYLnbp84evgFANY//u4nGy/XtdW2f7AiEP/ANB2gPT0wQb75y5XDJ87/O335n5/bunHj5aL6ttra2ranAq7fA8nLg6kA5rNXTlytuPT8P7duvV1UVFRXV1ffntbRsSPA+svyCgC8n7MnKiquNlZc+vbmlfIbYLhRfvjopfeeeDMgbwEDWAp8BXln+zZvrrjX2Hi14dujh8sBvvn8Eys3LQi0vs8HAoAt8MhTXTx+vPFeX+Pxzv/3Xjh//p23A8KQKfN8FgsMi8riA4Hw0G9vdR6/2Hex8+6dv/4pGMz1n6dSKewKu4VTwHzohTtHbnU29F3o/dffOTgo/0iuygeoSipVQXzo7xvOHDlyt+FC7/8sD8cExaG/QqoCFGLnJovsD+fAcPBM73/trAIMQfsr7HaFghs+i1Rqt9vZr86dazj42d69CmGuQgqGIP0VQgWEIwmtHUQUtXbl15s/f1YK9yHQITAvzGUpIaUwoRa82iOmED4qp8TPfjEvlxUqhFSuUCgEQwCehVCswuQqpE5WVaG4ywMYi7JyOcvKUZaiKJZ9I2ZsHjWhcrlcoRJn5RuofiXVn6W3W4SglEMolpKLUTA9vH4sXg48igqZylxFVgmSpaTza1TZVj4llwOHQuSo04RSstfGWh+FBiaTvLrYXcrm27KMlZWs0e3PocQmLigMsViM0r8enV/sFDud2U6nGMWzSvxWfXVWVT7u8edXIXwZfCAWZ2fDQKnSMfi1pXyxU5wNFpOqwFTjLswpqa7sOs1QIosJdSJ8Psj5fDGqGYt38hG+k++EoS+stqozPYX5nq587HtroUuG8geDOMfmtRB8YDg9frfD0d3lETS5XN1lDr/D4MQBho/4KDk6v20xh5ciWhzHS0tlVVUMIigpKXYXehg+YxVk41oExxGt1iQBfrS8IsNxWlYqo3FcJpMhFKrsul7iKnZ7TpcV0gVSXAa34RuI8cGw0ROziKDhS7SMpkGAW/2OLibHVZnjNmQ5yhxqLXefJrR64MdI5CINTRC05HuaJjR0YbEHsZYZSvpzyhD+6eseLXGSAF4A/QMYCA2jISUajYagacxpu+5iul0SRxlikuAE4ARuhv4BDXpGwmg0DCPRyLSk39Gv9xfzq8u6EYTQECSJc/sPYpBAGIiEZLBiF1HpKKZJh/skKBmS8AIfJLEz9AyJYRhJ6klGQ2isDreawBGGBCFd86uw4Jk6A8P0JElier1eI8EkRoFaSZjN8E5iG+SDd8jE1GrgMYEA02MEg8ELNSbQD/NBO5gxdSZErTZnCtSCTKMZE2SSI/ggHTLNZjNcMA3EbFRbR/BBOniNNUZjjdds5J5hFlh/wwEhdADO6PUavUq4vDXmytB46JBo8BqURqXS64XLXPlQ6H8KwFDjVRrg4VXmAD8Og83ARWkbH88ZrDaDzWawNgE/rsxMtAFvC5mfCuHxZkImJ1oNhqaHZnLh8XhT7ycAyuOwqJSU6IhJ4eFxcfMTrU2/i4uLC580KSIiOjolJSoqavLkn3xhP1cBDTCgcUuSZs9JWBofn5y85W//SE6Oj186PWHO3NlJSUvmgytiVjSIwAOWn9XhcWvPAnz2nOnxyatWZyx88aWXX37pxYUZa1av+pDTcJZBCThGKIYE0D18ftJcWH7LqtVrMhZCMtYAvyV5qMVQiVE7cCcwWCKc28TcOQkJ07kkAMiRA+iIDQzjwxLOMjmKO8joiIHMmjV0fMPnxxtJcvkRj5BQ4eLL5kIAAAAASUVORK5CYII='
p13
sS'twit'
p14
S'data:image/png;base64,iVBORw0KGgoAAAANSUhEUgAAAEgAAABICAMAAABiM0N1AAAAIVBMVEUAAABVrO5VrO5VrO5VrO5VrO5VrO5VrO5VrO5VrO5VrO4RDnu2AAAACnRSTlMAn4AQjyAw76+/XJpknQAAAJ9JREFUeNrt1EsKgDAQwNB+bKu9/4EVEbKWFASZHOAtk17XylVPujzvcvXOI2kHSTpI1kGyDpJ1kKyDZB0k6yBZB8k6SNZBsg6SdZCsgyQdas6hIh0g6QBJB8g51Bc5OZxwwgknnHB+5mzOoVVOlQ4N51CRDm0rHCLpkHRIOiQdkg5Jh6RD0iHpkHRIOiQdkg7hyJY4/GlPvjLmPGr6qBME3FNqh0q8UwAAAABJRU5ErkJggg=='
p15
sS'gmail'
p16
S'data:image/png;base64,R0lGODlhDwAPALMPAP/PAJgtGf9MAP9kAP/TAP9xAP+4AP/LAKIuFv5eAP93AP9AANOuLeG/Hoc3egAAACH5BAEAAA8ALAAAAAAPAA8AAAQ78MlJq7044zKcfgXBON4GAA0zmCdAFIhVnMdZBDJt45VCADXAzZIwGIJDy2IhMLx4mIVBAY0mqplYJgIAOw=='
p17
sS'related_to'
p18
(lp19
V\U0001f4d5 Closed Book
p20
aV\U0001f4d7 Green Book
p21
aV\U0001f4d8 Blue Book
p22
aV\U0001f4d9 Orange Book
p23
aV\U0001f4d3 Notebook
p24
aV\U0001f4d4 Notebook With Decorative Cover
p25
aV\U0001f4d2 Ledger
p26
aV\U0001f4da Books
p27
aV\U0001f4d6 Open Book
p28
asS'name'
p29
Vbookmark
p30
sS'known_as'
p31
(lp32
V\U0001f516 Tag Emoji
p33
aV\U0001f516 Label Emoji
p34
aV\U0001f516 Price Tag Emoji
p35
asS'default'
p36
Vemoji
p37
sS'bw'
p38
S'data:image/png;base64,iVBORw0KGgoAAAANSUhEUgAAAJAAAACQCAYAAADnRuK4AAAHjklEQVR42u3dH1B8XRzH8SAIgiAIgiAIgiAIFhYWgiBYCIIgCIIgCJoJgiBYCBaCIAiCIAiCIAiCIAiCIAiCIAiC/T2fndme3e89d/f+2zp37/szc2eev7/d6b6653v+3HOGGjnLzc1NY3h4uDE0NNRxLS8vN76+vlL/+ScnJ43x8fHAn9+6jo+PG+T/DOXtC8/NzQVu6traWuP7+zuzz3h/f29Uq9VQRAcHB8jJI6BarRa4mSsrK5niaU+9Xnc+7XTt7e2hJ0+A1DxNTEx03ET9/cfHR18/9+rqKrRJEzAA5SSqPewNvLy8/JXPfnh4CEV0enoKoDykVCp13LhKpfKrny9Eo6OjAUD6Z8/PzwDyOSpqbS3yF7/5euK5aqLp6enG5+cngHzN9fV14Le+37VPWNQDczVlW1tbAPI19qb9dvNlo56fBaQn09PTE4B8zPr6esfN2t7e/tPvo+ZqcnIygKhcLgPIxywtLXk3Gnx+fu5syu7v7wHkW/Sb3X6TNN3gQ1yj1X/dvAIoAiBf5qNeX18bY2NjAURFqoVyAWh1ddXbHo+mNCygnZ0dAPncC5udnfXmu2k4wY5S+/T9APRfLi4uAl3ml5cXb76fa5LXp+9XeEDqNo+MjHjbTOj72Vro8PAQQD5FC8bab5CaDZ+mD+z3U90GII+bsawHFIVRqx2TXuq+2zpIzVia6+3tDUBZRYvGdFPab5KaNXWl00ZrjSwAHy7N+QkngDKKa02Q5qXSRjP7vuHJS48ud2ui5+fnAz/ktCPT+v99BTQ1NQWgLKMlpq5HfZrRXwAVCJCrx9N61CftlbkAJSl67+7uUo8H2ZFtAPUhKpxdyymSTnG4ACUt9AGUk2g5hWt5aZJ6KCtAip3WeHx8BJCv0Wi0vfHq2sddk5MlILv4XzUbgDzO4uKic5F7nDXTWQFSDWbHqjY2NgDkcwRlZmYm1fhQFoD0PVxDDHr5MU5xDyCPEEV98TAtIBXPCwsLoV3xo6MjAPkejQPZGXsVtFGasrSAeo1ka0MIAOUgLghRapC0gFzjUkmXuQLoj6MZ+rg3Ly2gKBOxUYcXAPTH0cy6HWTU/kH9BGTfW3NdersWQDmJfWdLA47dln2kBeRaq5R08RuAPIl+8FGXwGbRjQ/b0Ux4BZoiOmexrwJpcLGfgFpPPjVnqon0Nq3m5pjKyGlczYq2ieknoCwCIE+i8R87LnR7ewsgACWvS8LWFwMIQJHGZ7RNHYAAFDkqnNtvRlhXGkAAcqa9BtLgYr97YQAaoOilvKi7hwEIQIGox9V+IzQ+AyAARY59CXF3dxdAAIoeLeOIuqgLQAAKxK5N7ra4HUAA6toD09XtOAIAAagjWkBml1N0OxIKQADqiI5hivOGBoAA1BG7Rvns7AxAAIoWTVe0v/Ksv+71ZgaAAPQT+4qN3lztFQAB6CdJjkUAEICa0cJ523yFrUIEEIAC2d/f7/jha6eMKAEQgJqx78dHfZkPQAAKbC+nkegozReAANSMnTyNc24XgAoOSNMU2ocn6ZliACo4IDv2o21/42zqBKCCA7L7EsY9QwNABQZkNx5X8Rz3kBIAFRiQffp0W7oKIAB1RHvu2A0tkxyRBKACAlLPy744mPSUQAAVEJB960KrDrU7GYAA1DPqottt7NKcUQqgggGyexLG3cwbQAUGpHMw7CErcTbyBlDBAdnjBNSUdXvjAkAACi2cdWkaI20AVABAWpoxNjYWePok7XkBqGCANjc3+/L0AVABAOlNU1s463SctLUPgAoCyHWoXNyTAAFUUECuk5D15mmWAdAAA7Ld9iTLNQBUUEB2tl2XfsBZB0ADCsj2vPQ0yqpwBlABAB0cHHSM+XQ7sglAAApEE6Q6LE5Fc9QjIwEEoF8PgAAEIAABCEAAAhCAAAQgAAEIQAACEIAABCAAAQhAAAIQgAAEIAABCEAAAhCAAAQgAAEIQAACEIAABCAAAQhAAAIQgAAEIAABCEAAAhCAAAQgAAEIQAACEIAABCAAAch7QNpN//n5GUAAihftmF+tVn9OjT4/PwcQgKLl5eWlMTs769yOWEc0AAhAobm9vQ0cvWkBxNmeD0AFArS/vx84gsF1qUnTZ0TZYRZABQD08fHxU+/Yq1KpNM9vdf07HdnQa5N0AA04IB29YM9rbV3b29vNp0xYTdQ6nvPm5gZARQRUr9ebzZH9b3WO2dnZWcd/K0gC5UKkZk9QXOe8AmhAAe3s7DgxqIDuNu6j7rwLnS49pWyBDaABA6Td8cvlshPAyspKpNOi1aSF/Rl6eulMEAANICB10cPqHR3DEPfcjq2trdCemp5wwgigAQGkG+nqoqs5uri4SPxZOijPnv3aumZmZppPNQANACDXNTc3l8mBL+rKl0qlSJ8JoAEBtL6+HqneiRo1f92aNAANCCA1Y7VarW+frQI6rM4CUM4B6ca295D6FY1sa+IVQAMESN3urM9m7RVX4Q6gHAJaXV3NtN6JE/Xw2ntpGmwEkOcRFk2C6rc/6UKwLNMavFQTen9/D6C8pF9nsqapjXwPgAiACIAIgAiACAEQARABEAEQIQAi/c0/P3YzcpHpyG0AAAAASUVORK5CYII='
p39
sS'version'
p40
VV6.0\u02b2
p41
sS'uni'
p42
V\U0001f516
p43
sS'desc'
p44
V\U0001f516 A bookmark, used to keep track of the last page you read in a book. 
p45
sS'browser'
p46
V\U0001f516
p47
sS'annotations'
p48
(lp49
Vbookmark
p50
aVmark
p51
aVobject
p52
asS'wind'
p53
S'data:image/png;base64,iVBORw0KGgoAAAANSUhEUgAAAEgAAABICAYAAABV7bNHAAAAAXNSR0IArs4c6QAAAARnQU1BAACxjwv8YQUAAAHUSURBVHhe7dvLSkJRFMbxvTXIiYpENSuQSOgBygdoWD1GrxBSw8gXKIIeIx1FENSgC3TDHBR2UYggKDCwi9TZuU/LQUR8nUo72vebbNeCRP6yz8gUERERERERERH9K1pOz7bnxjaV1kkZ1Ugq477XdnrcuItv6o1XzvqHKnEZv6T6qM8OVrs//I0xplz7jPPJVGZGVp4F5GxLWuto7Vub3klPjMrKs7YOVOcoJyEvPfsXgX6CgQAGAhgIYCCAgQAGAhgIYCCAgQAGAhgIYCCgZQJV7oInp/uRkoxN0xKBnqu6lF/vGry5DPVdF0Mnsm4K3weycY42YjEZ1UUuMnh71XksY8P5OpDjqHIxH1bVh46wrFyF3WjCXjkZG8rXgc4PI2V7rWR8x165h0qwIGPD+C7Q81Oww572WfNZnLrjrWivvYIvLwFHVr/Od4FslJ1sj/uskdWn7NXbW+nuy611Dcjq1/n+If3XGAhgIICBAAYCGAhgIICBAAYCGAhgIICBAAYCGAhgIICBAAYCGAhgIICBAAYCGAhgIICBgLYPZIzJJ1PZBRk9+/b/i22lx2drR8/bpFQylZm0Z22/5C58QBtzr4OBxeGp5ab9GoSIiIhahFKvpzdxaIrI2F8AAAAASUVORK5CYII='
p54
sS'andr'
p55
S'data:image/png;base64,iVBORw0KGgoAAAANSUhEUgAAAEgAAABECAMAAAAV8YMOAAAABGdBTUEAALGPC/xhBQAAAAFzUkdCAK7OHOkAAAMAUExURUxpcUDA50DA50DA50DA50DA5z/A6EDA50DA50DA5/zCG0DA50DA50DA50DA50DA50DA50DA50DA50DA6EDA50DA50DA50DA50DA50DA5/zCG/zCG/zCG0DA6PzCG/zCG/2jFkDA50DA50DA50DA50DA50DA50DA50DA50DA50DA50DA5z3A6vzCG/zCG0DA50DA50DA50DA50DA50DA50DA50DA50DA50DA50DA5/zCGz7A6UDA50DA50DA50DA50DA5/zCG/zDG/zCG0DA50DA50DA5z7B6fzCG/3CGvzCGz/A6PzCG0DA50DA50DA50DA50DA50DA50DA5/zCG/zCG0DA5/zCG0DA50DA50DA5/zCG0DA50DA50DA50DA5/zCG0DA5/zCG0DA50DA5/zCG/zCG/7CF/zCG0DA5/zDG/zCG0DA5/zCG/zCG0DA50DA5/zCG/u0HkDA5/zCG/zCG/zCG0DA50DA50DA50DA5/zCG0DA50DA5/zCG/zCG/zCG0DA50DA5/zCG/zCG/zCG/zCG/zCG/zCG/zCG0DA50DA5/zCG+nCLEDA5z3A6p7BgUDA5/y/HPmmI/zCG/zCG/zCG/zCG/y+HPzCG/u4HvzCG/u8HfzCG/+sHPzCG/zCG1O90/zCG+ucNPzCG8a5VkW/4pKxkaLBffibJvigJfyfIvumIfibJ8avWfmhJfXAIvigJUDA5/zCG////z/A5z6/52HL60PB59/0+/7CGafi9P7//9Dw+cru+FDF6dXx+lnI6k7F6W/P7dPw+kzE6FvJ63XR7kXC6PH7/UfD6OH1+/r9/mzP7fzAHPy2HvzCG/mkJPmdJUHA5vzDG+LCN/y8HPurIfmmIz7A6fv+/5bc8q/k9cfs+L/q91bH6sLr9+T2/GXM7GjN7Nzz+3LQ7ff8/uj3/I3Z8aPg81PG6fP7/qni9ITX8J3f89rz+rPBat+vPkS/4my9uPOTLvjDH/iWKPmiJJ6phl7Ax6XBefvCHN3APfihJV3AyPu9HOO5zLgAAACydFJOUwD5DvIH/QUC/OgBAff0bhgJA+3rE0L+mwhdA+oVwynjAtjiDUW8S6XL9uZ0If33GtA2xxA0mRyWW4HATbXUjI4fYh6vKpOFPsT7vCTcT2NGaOXWLwrzVlgnsGbTYIi4rCai5ajdlV0RIfA9MBZ7TttyDAd9cNrKUr9phM8LzTngM3uQQcsca3hEncgxlzE76LHM9uMtBXG1tdZ2O8tTLxmhtujJuET5QO/DVHSo4dw64pWJQU9qAAAD90lEQVRYw63Xd1QTMRgA8DAtUEstyJIqoiwFBAQRGSJTcCDugbj3RsG9xb333nubtGWK4gC3D8W99957m8uh8gq9u6Z+f7R37cvvfUm+S3IA4Og4uSNgw3ThkG7hixcBupg6yTPcnr20XxKDUGwPOmdcO4Ri+rFZVKyEEKpvT+UkheO2qPNEnaHmdRgI1UnVFTJt1YKBPGYO+gO1C6Mbo+bdPBjJc4gdAD2X4auGPSlnLTWWdG79KlOwJgVfVKhICYE+I4mUvAIM2oi/W4yhhUDvZCKl9AFrmU62ooZM+48lUmxYPzxeHlOY3wy9Q2mk7hWItHS5J/6c5gCA+QQTH18KaVE9Iv1aMJ+pqR5gRqIVhIm1qKUzBWcLcZnPCgyGOIys9amlgkv4I2buHEhCHGBMI3XHZV1w7gxCma/PsxA0GF6Gau6S0aePZzF04cuVIsmkpRmN1HvlufdvPiD0bat8gIiVHOOoCmr1hs/vLmQitHdTg8EyVqpcngZyX/f2/FeECi/utDOOEtFLs+VKeOXn98xfl7clgYj4onHy8taSMbbtyrTbvPvSj13bHYDlvCIIBmuZU7QFaWaxZce+Pfg2tOsfSNveNRKztRMN7JhbWzf4T4rTpp5qeJFGRpGknBtMh8XCsWU54VCZKLZRr+rmUv2qTlbFIVitrRZPi281tpGeaxcnGVSLXuNHCZ82F8gR4khzwVJgWS5J1CZCKFTTCXKGq+DJS9DjluKbSAVWgCs3BMv6uQuTJDwpQejjLKiiavGlhB+hEUL2KbMmvClBkTzQkF+ydIL8IYtszS85ywRI0KttTT7Ixt9KiCQOiuYb9IhgXkVFNpgQnv6ZNRbzOMdy0wnVVNKXU9LvwpNP/v2sPKWSmb9hQ6twSc0GcEMPHmZnPD5EkjLoUN6Gq3Ocq4Aq95FCcSon/xihLKy9NY+61I9r5pQHDipwHL+eBpVkGY7SfPxx9+GCjuYoSJy8doBIVi6auxcXzwGduM1CiqtZ6eQXuebFpZxEzAHdLIKyWcikEceRRepvxNu17Bu5TNdManOumzWCNEKH9rPQ/jwVv4OrabSm6b91h3XSSD62vOt4VUcN0N3jjHMkTSXMAWa1S19RVC9O/XVkCUL2FWOJQalj9Bw7B4ljMFDYRm4T4KZhrDPuEae6ocB9TtpeVLJnp58pMg4rtXLw3utXQlI+oXDwZqAuKZ++OknhYMlapPbsvzzNOHqDtXOYnNS2unTihGj/wqPfvuTc0TgAVAlQrye9ujQOfi2VWPwXhznLF1/oRP60Dj7xOv/bNkUu5kCH8JX/Hwef4DuwBdVGRwe/wYfgIXdzcQc6h41zpyCJZen//QbC43gVYpZ02QAAAABJRU5ErkJggg=='
p56
sb.