ccopy_reg
_reconstructor
p0
(cemoji
Emoji
p1
c__builtin__
object
p2
Ntp3
Rp4
(dp5
S'emojipedia_url'
p6
Vhttp://emojipedia.org/postbox/
p7
sS'index'
p8
V830
p9
sS'code'
p10
VU+1F4EE
p11
sS'apple'
p12
S'data:image/png;base64,iVBORw0KGgoAAAANSUhEUgAAAEAAAABACAMAAACdt4HsAAAC+lBMVEUAAAAiDQhzISE9FBJvIiJ3IyNmIhJrIiIrBQA0EwomBAFxIgxaHw48GxtUGxlfGA88EgoVAQAeAwAeAgAcAgCLOzyGKA6NQjsUAABFAQFiGxd8PDxIEQZ1OTl6NTV0KhtNEwf0NhjmMxbpNBfuNhjyNhjFLRToNhjrNxi+LBOJHQmwKRJBBwD4Nhg3BADrMBXjMhaWgX3KJQs0DwdJHxOvNRM4BwDnHxWHMBlCGg5qKhh5KhPHJAvKEhKbhoKrGRrsNBaSLBApBwJwKxjwMRXjHxWQGBi2KxOeLAylEQTgHxVjKBhXJRc4DwczCAGHAwDdKAylhH27IAjqKg6iMRGcGATU1tbDxMTSNxfYOBjHNBfY19fKy8vm5ubQNhf////r7OzHyMi9vb3JMBXAHhTdNxfMNRfDv7+3t7fb29vIHhTPQiFvFgbLXkjNOBfTRynv7+/PPh0CCgvp6enj4+POzs66urrVVD7CLxTKNxV3IAvU1NPDHxQWHB3z8/PPz8/GxsbgNxjFMBVeDAHjNhcsGRS0MBSsMBPWMRXS0tH5+fl7QDPTMBXBNhhiMSacLBKoqamFGRmysrKBIgrNOxvbSSyYKg7mOBj29vbf4ODNMRUbDgvIz9GQJg/W29yYOjOfn5+xTD6aJRCVJhCEhYW8LhRMBgCKIQ7nLxlpaWmRIhDOHhSxKRKamJjQMRXaMRUlGBX9alTRtbA8HxjLNCr8VkHdY0fM2NptIxDMLxXPiHutExRkGAaBJRDTLA2lGhvZHBPfMhXc3d26ExT8/PxeXV6jKxKhGRq0ERJQHxK9l5ErLi/jNipxcXG+Ska4LS3ZcV65oJqvMDGSSjvgWTqcGRrDEhOyGBm1pqN8EQfdHRRRFAWKJg+KFxfKLQ+gi4i7HRThMhbu9veZWU6SIg//blnBbV3EJAqef3kvMjMaDQq3KhOQkJDcMhaVeXNyTkdcHg2hJhHARzB3dnaFZV42GRGpKBGTHwl/GBgjFREoKyzUHhSydmlBQUJR57t8AAAAIXRSTlMAYckYycnJyZlmxO7uCkvF6zOLeO3Y7visqLCPlG+x36shiDSLAAAFMUlEQVR4XtzSRY8VaRSA4UkaZsJimhXpBBj5VeVy3d3dXdvd3d0Fd3d3dxu3ZL6qm4aEVNVlzbs/T84n33xtVe7e/m2Ztv+8rYIPqNjZpV8sm77np0pu4PsdZ5xGc32ZzMZLi13cwq4z8xH3l2R07uA8RdVZmbTezKYVyOzG5nt+4AK6rvqohRm2x/zNLKBS34UfuYCaNV/uVPmGh6WyvVu5gD/XfC97Rx8xjQrUNx6RHd3CA4wXv6Ckix9w5ZPFxr6OWzx1dPQ1FhN5gQ2khsRyPD7d1vaCqe3z/orHf9vIG6RCQH7a7/c//9TJUn+z+UFzZgBc/o4XMM5ZLP7+/v5f2E4zjZQ6fHjkP4vFUjC6sXv8gNupr8oWJiQqVW11d3f3BNMrJmACtZC9qDdiLl5A02qoNzZoG9+IbCB1MCSRSByOElbN1KNt0GJYRACgKErh+iPbfAiUyQRIiBCLQ7CqVgIrAQb/+xTDhAEEQSis912QpmlGaA5YvbCjVsUosFIJnx8QBI5pJhEQVoze3Zw3BUwkIbYTJQGWfJAqFAppOeBI9C0AMixgEolEpDpNiENAgNuf3GEAGR8wlkNRFHEf0R1vodkFGMBKkjZbiQi1n2CAFWEAVfzuGbwGgObSAlYw3wKeRAwilNpWhWFFdpQTqDk2lmKBpGfw14+AFQCkmoDFBFO7fg9Ftfq4v3LNwX9YwJCsixZMNHsCEXsCsQO2B+1MS6sAmOQHpuRyOUolNtZvKunNBaxpVbXE7k2zQbMUgggCICQxpIs+o0tXKFLDDpiAHRLCyxjetDOF5DS8wOtwOCxHBzo869nmDJg32exwEMfBrD0EE14IgjpX96A5zV5O4PbBffvDIHSgz6Nb9h4KBEQ4AYEnOKDGQV7wobx452wKTfEBV/btj8ViYdTVW+fRnaADLUGctJIAOMAQajUeJIKdeMMUP3DjflNTU0weeT9Ud/3hAwgiRVYbM9+5GdQuXjr3f3l005pGFAZg1GkpJGqoTUJol86Mzphpou2Y6qixZqq1Npqvpr9A3LV7cScZySyELAoRhGwsqYuKFtwotJDZ1T/Q0NQ2CAWFMEUXWko2fY3VEnrH0tn2MJcZLtyHubwbpdf3rygEbBkQi/YO8vNO7zfv6akX3BlpbW62Ws8l5cBjPAOSWeZlPp+f/8P33peSJMWS8pgATdOUUGRyX1FyhWwsCSTFQICggZAtdHIonWAxJoDGOTrwcDlgJUk6E8ue9ToovcN0cnzA4SPhBsm0hemhMHFRyADb0bFigKYoShDjwQLDMBerAKv/KsAKmksCBXDlAE4BoWQ+PEOxVGV8fACmAHC5GregxIsSRQP85PiawhitNKCkdNSMEk03LgJWxUBgEBDEbBWlKAr03wIkgDuIaRRRxmkSjA8AoiGXUGQbQQ4C6Cl8/OCwmgDpwxu/SfBI0uAD95Em4D8JXUcFdt47/KY+ksAvsQ0/CDgP/Mvrt1ABw/rRr4CPQBv8gPFJ6BWGCswsrm8s9BmNJjSjcQHAee2UBuUmv/N0q+nxNPvgfXcE9gY8za3Qs8XZGxqkqelZfu3e0O1LRttrPK+F8wquYtMTQ1qWZdfYSIRlIyyvnRiZQRxHwt6kUjzLcWy3nPqBaf4dlip3I1ytxnH2ckpVoGu3f2pXKu122N5VE5jkwu23CWc9UXGFuUk1AftqJVHf26u/c6/aVQVqLveLld3d/RXng5rqwP7S0qP/KICewvb2Qd3tUjUFzKDX63VzczqdTm/AFAM/AZRocuHd0CCwAAAAAElFTkSuQmCC'
p13
sS'twit'
p14
S'data:image/png;base64,iVBORw0KGgoAAAANSUhEUgAAAEgAAABICAMAAABiM0N1AAAAllBMVEUAAADdLkTdLkRmdX/dLkTdLkTdLkTdLkTM1t3dLkRmdX+gBB7GHjaMmaI0LzSOLj25xMuaLj5ALzXG0NfCHDOoCSOkByApLzN5h5Hh6O1ufIaUoKjCy9Krtr3S2t+Tn6h9i5TZ4eazvsafrLS/ytGsuMCZpq7OwcqAjZfh3OLXbX1zgYvff47WeIfNzNOMgozfdINse4XUN2+CAAAACHRSTlMAYL8AIM/vADTqLoQAAAE+SURBVHja7djJboNAEIRhwOBMD97XLM6+78n7v1yQM1LFYRhNp5LIlvhvXD6JEpcm2SzNJLIs3dso+fqQF6KoyJugvCuqunkDVIiywg+loi71QpkeyryQ/KB/gGaLMqp5Lwz1yuhmQWgeDy2CUKlox6Cly3yvb609Oli3dKkhOBwEh4PgcBAcDoLDQXC00ACQ3wE0CEJDQH4H0DAIyXgCCE4dmowlACHnnMJBgqKhdzgcZHkIr3bMQa79Slr9BjStpMMTCnKNqr3PzinIdYHBOchcYnAOMn0MTkAYnIfMFQYnIAxOQhichTA4C2FwGsIXzkPm2g1OQ+bGDa6Dbj3S3efg9yrowQNNH9eDP6kgeX6pSyNr7eubKKBgLbRNEH9m8Ycff4r+9XHMn+uI+YEQyNbqNJZ0ArVQC7XQ9kEfuH+/B33cYEEAAAAASUVORK5CYII='
p15
sS'gmail'
p16
S'data:image/png;base64,R0lGODlhDwAPAKIHAAAAAP8AAJYAAP9ra////4CAgKqfqv///yH/C05FVFNDQVBFMi4wAwEAAAAh+QQFFAAHACwAAAAADwAPAAADNAi63DAwSijUEDjrUF93AGd9jvgEaKqaw+p2ravC8mzVKaztGegDh+ABsAMKj6Gc8RgEHRMAIfkEBRQABwAsAAAGAAQABgAAAwtodUfahJRYhGSVJQAh+QQFFAAHACwAAAQACAAIAAADGnhqVqoktgNiicQRg4s4xmF9WvZRovMAgPokACH5BAUUAAcALAAABAAKAAgAAAMaeLrWtceQWcR5BlowHlRc4EFh8CmDYJ0HwCYAIfkEBRQABwAsAQAFAAUABQAAAwt4dTyxLDx2JK0hAQAh+QQFFAAHACwCAAQACAAFAAADDihlXAAhFFJEvPXqzUMCADs='
p17
sS'related_to'
p18
(lp19
V\u2709 Envelope
p20
aV\U0001f4eb Closed Mailbox With Raised Flag
p21
aV\U0001f4ea Closed Mailbox With Lowered Flag
p22
aV\U0001f4ec Open Mailbox With Raised Flag
p23
aV\U0001f4ed Open Mailbox With Lowered Flag
p24
aV\U0001f4ef Postal Horn
p25
asS'name'
p26
Vpostbox
p27
sS'known_as'
p28
(lp29
sS'default'
p30
Vemoji
p31
sS'bw'
p32
S'data:image/png;base64,iVBORw0KGgoAAAANSUhEUgAAAJAAAACQCAYAAADnRuK4AAAIs0lEQVR42u2dL7QNaxiHTxAEQRCEEwRBEARBEIQTBEEQBEEQBEEQBGsJgiAIgiAIgiAIgiAIgiAIgiAIgiAIgiDMvc9ed9Y69/PO7G/+7Zk98/zWmnCcs7e9Z575vvf/7BRKddCOp0AJkBIgJUBKgJQSICVASoCUACklQEqAlAApAVJKgJQAKQFSAqTU7AF69uxZceLEieLYsWOLPi5fvixATfT69evi9OnTxc7Ojse/x7lz5wQoR1+/fi0uXbokNALUTL9//y7u379fHDp0SGAEqJlevHix2ufrTuDFixeLq1evzvbAxjl48KAANdGXL1+Ks2fP1oLD7z99+jRrL+jVq1drbyAB2qcfP34UN27cqN2ujh8/vlqZ/vz5M1twuDEuXLhQHDhwwC0sV0+fPi2OHj1aeaKA6vHjx7MG59evX8WtW7eywBGg//Tu3bvizJkztScJW+Dbt2+z3q6eP39e7O7uVp4DoGJ1Tj3RxQL0/fv34vr167V3G/Ge9+/fzxocvl+Ovffx48fV33MzLR6gBw8e1No53IlsaXPerrD31t1AR44c+es8LBqgt2/f1kaRy2V67tsVUADHuvPw8+fPv167SIBwy9d5FZyIcpmeq7iBTp06lb1dRVoUQHgVd+/eXbtdYUDOWayoBASbbleLBujNmzermE3VCSO6evPmzRVkcxUwPHr0qDh8+HAtOA8fPgy3q0UCxPLLl6pbpvf29mZv56yLItfZOYsFiDtpXRCM38+9RqcunpNj5ywWoPTLebSzcwTIo5ftSoA8Om1XiwcI7wM3fikHtUlpiKLvaPqiAMKgXJKwb4b+/gIkQAIkQAIkQAIkQAIkQAIkQO0AoqBqG9tsXr58KUBTAIhO020MDBLvESABEiABEiABanDhKAWNbBJqi9LEZU67cJPeKwHacoCuXLlSWbnIBU2TlzliYIMALQAgWoDqEpJpUyJ/nyvAFKCZAkQhPlPI6hS9R5OBC9TnrOuSEKAtBIge+Q8fPjQO3FHE31S0HNX1aAnQRAH6/Plz5fQNLmqOMIb3v5aqvzaivTjXqBagCQAEIAzIjLo1ctt8mFyWDl5ifmJbYTtV9a3tL5incUCARgSIaRzRGJdr166toMgVXZ5pn1mT10eKZjDSu5YrARoYIJoNo3FtNN811b179/73HrROdxWrX9S7v86YF6ANAMRFSOGhZpppY22Uuu9Pnjyp9bYw2rG7WLlIiHKxeQ0gMtSJz45bH3llfG5WTgEaCSAuUmqkso21nf3DbKH0/Shox4bihJ48eXL1f9cNp2x6YAsBoQBtECBOetTqw4UGgrZi1dp0Dozvsi7GJEA9f7nowPXuOlAhdd+HPrCLcnr5BWhggMg/de2T4vV10y7YtkqXm7wYJxjg+GzEiYjjsKVi/3DBcf2xizDkozE0eGa5wAvQQABhr3By+xAR6sg26dI2HBn4HLdv324EvAB1FK50NFCAO7wvcVHTFaKLWBVTg5yf6wKGAtSzCOBFmW1Wh9y0RK7wsLrGkMqtkOBllMRltk8bCVBLlzqa84ynReF8mwtbxmvYWrBXsF1Y3TBm09WiDaBsd9FoXS54F+AFqKGwPaK0RFUBGEABB3c4Jxs4SBWUcDR9Ik+b7DveVBQs5N+6Tk0ToAYCgqgMgi+Eh3Pnzp3VFgEcXOg6z6ntAahNVJWHIwjZx+weAcoUmeu2NcV9Bvaa2Cpsh9EKxwrY1wgWAcpQZHgOPRYOQxkASH20WSkiT4uDh7f0KQHKENtTFyBYBagFwshmC8It50KympAqSN+/i5vOysLjBNLP0CWJK0A9KLoo5YXBzT5//vxqpcIOAgiivRjPOatHeoLarhIY+JGnBbx8liEkQA2Uuu5sNX3EfNLZyusy4JGYSRgZy5zsLklcAepRrCbpJHru7i5VgQCYXoCmBi6rXeTxceK7ViwKUM/igqeeDS5xW68GY7mLm1416JytdBOPjhKgFuKOTy9akzriupPTJE0R2WUkSDf5IBcBaqm0PpmjTfY9tVtymgTZlqJieN6rzySuAA2sNJnKqkQRfa6Apan9g0EcFcHz2jbGtwCNCBC5rzRTnlNHXCrty1pn/1AXFD3UBNd9SE9LgAZUVFAGVDlZeWJHufEf7K4oLVE3xUOAthSgHM8s6jKtWkUAK6oe3JSnJUAjAMRB71WV0i5TgpKRqAuKPK0h0hICNMGi+qoOz3TYEytWal9FnRi5UzwEaCYAsVpEzYSpGw5QpSjyijwtouBjeFoCtEGAOIHpI5BIM+yv/IvadErIcO2j544OndMSoAkBFLn3/Fx6S8CSlntgVGPXRDktIs5D57QEaEIAoah2GpuG1QevKo3jVOW0iHhPWQI0EEClp5VCQTFZGsGOVh1sp7atNgI0E4AQXlgK0bpODFauJikRAZoxQChKvNYNF5+apyVAIwOEohboqDFxqsbymAClIY9FAgQYUWxnGzytsQBiJY7KVhY75rdqPjM5rW3VEABxIxFYrbIVF/3EQtIQZWJ009WD2wAQIY6oOWC/A9LX2JytBKj0zKjryRliuRSACK5GAyv2F+uRWG4zvGJ2AKExa3imBBBAYP/VtY3jXLQdTjpbgOaitgCVEfm6Z3bQMlX3vFYBWihAOXYOsbMxvFIBmjBA6+ycshlyaDtHgLYMoBw7B7CaPPdMgBYAEI4CnSd1dg5/Tyhj7NpuAZoYQNQ2RYVxqZ0zNW90kpPql3Sw2qTtStHk/q6zGQVogQd2ztSDpwI0wQOXnej7NiSLBWhCB7k+KjD7mAY7W4CIlPIwk7GOdP4zhmvT92A0TRSP6fK5MJC3qTBuNIDGVh/VetHjyDc9JkaABEiABEiABEiABEiABEiABEiABEiABEiABEiABEiABEiAlBIgJUBKgJQAKSVASoCUACkBUkqAlAApAVICpARIKQFSAqQESAmQUgKkBEgJkBIgpQRICZASIDUz/QODqHqkTxVHNgAAAABJRU5ErkJggg=='
p33
sS'version'
p34
VV6.0\u02b2
p35
sS'uni'
p36
V\U0001f4ee
p37
sS'desc'
p38
V\U0001f4ee A postbox, where letters and other mail are posted, in order to be delivered. 
p39
sS'browser'
p40
V\U0001f4ee
p41
sS'annotations'
p42
(lp43
Vcommunication
p44
aVmail
p45
aVmailbox
p46
aVobject
p47
aVoffice
p48
aVpostbox
p49
asS'wind'
p50
S'data:image/png;base64,iVBORw0KGgoAAAANSUhEUgAAAEgAAABICAYAAABV7bNHAAAAAXNSR0IArs4c6QAAAARnQU1BAACxjwv8YQUAAAJcSURBVHhe7dqxaxRBFMfx9/YKm+yp/4EK1qnUVsRV1HZNINqIpYKFIVrkD9DOxkLQSixiFizFHGJI418gWGlhYauujcXtc17yoojGCbczk8zx+0CyM3NwHN/b25s7jgAAAAAAAAAgM2zHpMpq9QIXVNr0F6HuU/tq/q1N94UkgQ5WK0eFBleEpGbmWVvekQituwf2mmn87Oto/qMt74nogYZVsywst5n4kC3tmgv6RYQXv4/qJ7aUXNRAw3PNU3e4ujWbnBA9bNfqmzZNamDH4ELFUe5ZPHng2Nz4x4fnG7aUTJQzaKZqrhdMj20ajIhcbEeXX9o0icKOQTHJsg0D4yUbJBM8UHm2ueXeqY7YNChmOq1bBJsmEf4MYrlmoziYL9koiaCBdL+zm31OLyL5BhrT4IwNo9GXrz4RNo0uaCD3lnjchlFJUZywYXThr0EJdB3/9TkuliwDpTpTVehAp+y4p/QaVVbNPd1y2NLEsjyD/kfjdFS8cHumO1zQg777pqkK9DvO1lZDvw0oqHu/eeOEpibQv+K4fwt9v0+aikA7xQnxwTb7QDHjqKwDxY6jsg2UIo7KMxDTTIo4KstAbid9I0UclfU1KHYclW2gFHFUloFSxVF5nkHCj1LEUVlfg1JAIA8E8kAgDwTyQCAPBPJAIA8E8kAgDwTyQCAPBPII+hvFsmre6K/AbLr5e2cb9iSHt79BVO5+77ej+q5No4oa6NtaHeT+h+dX50h4xaZJA+El5oFAHgjkgUAeYQMxvdN3ru0/W+1NOmr/uF+hz3YTAAAAAADsQ0Q/AVA54AmmXx87AAAAAElFTkSuQmCC'
p51
sS'andr'
p52
S'data:image/png;base64,iVBORw0KGgoAAAANSUhEUgAAAEgAAABECAMAAAAV8YMOAAAABGdBTUEAALGPC/xhBQAAAAFzUkdCAK7OHOkAAAMAUExURUxpcYVcUoVcUoVcUoVcUoVcUoVcUoVcUoVcUoVcUoVcUoVcUoVcUoVcUoVcUoVcUoVcUoVcUoVcUoVcUoVcUoVcUoVcUoVcUoVcUoVcUoVcUoVcUoVcUoVcUoVcUoVcUoVcUoVcUoVcUoVcUoVcUoVcUoVcUoVcUoVcUoVcUoVcUoVcUoVcUoVcUoVcUoVcUoVcUoVcUoVcUoVcUoVcUoVcUoVcUoVcUoVcUoVcUoVcUoVcUoVcUoVcUoVcUoVcUoVcUoVcUoVcUoVcUpJeToVcUoVcUoVcUoVcUoVcUoVcUoVcUoVcUoVcUoVcUoVcUr5lP61iRY1dT4VcUoNaUoVcUu1sMIRcUu5sMPzCG4VbUeVrM5tfS4NcU4ZcUv3DGoldUYRbUpBeT5ReTf3DG+9sL4RbU7lkQf/FGttpNudrMqBgSXijrXikrt9qNa1iReJqNONqM5BeTutsMexsMM1nOodcUeZrMtdpN3ihqppfS5NeTYNbU95qNY1dT+hrMuRrM/e9HcRmPYB5d5ZfTOprMclmPIxiTpZqSrFjRN2nKYhdUcFlPnyNkZxgSoNmXsxnO4tdUIhcUaNhSP7EGo5dT49lTdJoOXiirJhfTHmcpKtiRqFgSdRoOKdhR/nAHIpgT/W8HoNaU5NpS4ddUa9iRMJlPtBoOYFwa59gSoRiWoRfVrdkQcZmPYlgULCBPuixJLBjRNqlKrRjQ8ORNfi/Ha+AP9SgLeStJrOEPPvAHKR3Q6h6Qr1lQIVdVLNjQ4JrZnmep3ilr59yRnqZoM9nOrxkQIVcU+9sMJFeToJuaaxiRap8QdeiLKVhR+62IpFmTO+3IaJ0RbWGO7mJOr2MOK1+QNKdLqZ4Q32IioRhWLVjQtlpNthpN6liRnuTmL9lP9xpNcqXMuewJchmPMyYMZxvR5puSIhfULpkQeCpKMGPNs+cMMaUNH5+ftppNoNpYoF0cey0InuQlfBsL51xRoJZU/O6H8iWM4B2c6ZhR32KjXqWnM2aMdejLLqKOWZvPUYAAABVdFJOUwD9CFAB8f74BDgZFB/q3/ouD+Pu0aojC7Wx/NZOCip0MfN/Vubdo4eakUdbwbvFYWk5QYJsSih5VBKfRHtkcD329Wel/Tum9DZmXsrbd4yW+vv7zP7Qvwu6AAAH7UlEQVRYw52YB1hTWRbHIwLJhCZFmg4CMiBNXetnb9PHGWd2v5v3EiGFFIeOEEIooVepgYReFWEQlBGUsmB3dbAt9rGj4liY6oww2/felwgIj/LmfPCRB7m/nPs/595zDjTaRMYwXbF889JtW7Zscf7sU3d7phWDRt10DN2WbfMwNtoINGarZ2Zh89nmNZZUaAzLmY7WW/XQegzzxpB5wx/o2Xyrh+ui95jTgjGWrN5KhwhvuFIZ7VVwPiMjY++lhmS1DGIJmpHF++s3MHWn4FitNEJvlvU0lD3vr3gYH8YiLC7oXt6Z+1Hq1zA9i9WL7K0m82cendCkst4P/0YsxnGW1nD4Urpdvv+Yv1Cpoc0w8ly6wXQikL2ZRlylV3BfvcKPNQqlwUlTguoTM3JCuWjrwNx6pg45yBEpjATy9ubye8oPZlWEjKVBT6V+dxODS/iE/EtJN/i2J/xbw5EzGQVwAwRNKSxorSsKipOKx7gWFt+fjJzauJIshoZzAFaiEMOPDKk/UxnNByj6kNZT3tp/NyIM17qGi/GUoLzgWEIFs1kkoFlmADsm1YqbEhTedKlEKdPQZD45e+uKHkakhIXFKf7WVynkYxo5Z3xKAnrPHIA6MQtHSuDIUkLk+1sLhPmaxATKnhL/yn/mRCvRAxE7+GVNotISB5CfJ05JzTjWF+7rx8I1lqIIv1MulGnWEkZAYr321jWFYmCO5XjQXAD4eb/lwQ9EKZnR7+uHQBDIgrCmHKV2N9C1krJE+XboelY+MLcfD5qJQN/c8UbvFsTs5qj9W/N846WEX2JWRLg/weEWZFXslBLC4wo1Rt8wAYh1EIEkaZ1PBrrSsHy1V9nzPEUEWidWRCGfyuKHEwsPCcVM5k8Akt6H75b0fl+lYtfcTMO4MYMcfmj5kSAUgiNwXz7ykZSaFKTwgqBXu9jQRIe7aq8dutELBBho8IVi1UP5ylNY0wFlns/hCjKbX/LYhF0HN0U1Hf8rhJ4clLLwn3wwbC9rWiDAxSSFPyRoOaLfBemdbd3fIlAUjJKvDwaaxoDobqThh7E91cIWaThsVbtgT+fVq83fwd8nh+AEaMdoUHwJRn9r/K22FKpcffX1thDov5IbVWz2X68JJgBt9yIBGS7YBATp3x8WDXNEX7bHdFexeS96taCHoVODdJcsBILaCx2vGTyeip3wuHvw2ypRzQUJ3Fq0AsfjozGsdXKQ1TIzICkcGOKxRSIVRAx9fXHganevhDvAZj96hrQTwkzaLsSw4ElBBq6bQG3XLvaXosMQ8fu1G68KD+zefWDPhUdDqsfp0CHgXRDHmhqk42ICajtfXn5xc6D5u95qweCg5NmrtkMtf0/g8WraBNxMWX5yET4NELqIaru60tNqByXc6vQrbackFy5XqXhQ96pDz0BwXmJqEFoYETUFyI1OnHdu75XmQ+0dL4fYLaCtihCd154Wk6wQa2/ZuIYpQAY26H64cvHxEAwXdES1C3QlEJyvn8bw9w8v9JsKRLO00QfYqQ6VNhch6CkCiRJuSLDzKRRANMPVdJiN/9EeMgSqQS8eZWLCn3AqIJrpYgtbwYHmxyKRBpT+UsQWwcjnJ45aOB0QTdfS0Uxf8PQJzEkE2gNBhzsFWKXfqIVI7GNTnjUaw/0DIHjW1V7DU7WA3g4e72KapOfe6BILwz+NQ6tJJyymunsX+yYofKG6fEXCPTO6UqOEHAcymkUKkkWpY2IKr18D1S3wesTK4/FJQfA+MrMjKdnGQJlXUcmPweAxvf4kTaAuwif3KKQHMyKpayveAfzw3+L6o1ApTqsWcJ9L3+DgO6PHguBV+ydSELcf1v6QJiEXg5WjLOJNh8ZfbEE+2AcfjgfZGQNsB6pfrKC+HLX6/M43OazxV608FnOyI++PhOFhBCpCLvcbwyEBZcnAHEOSPh2dXXVGRRw66/hYzHgQLi/BgA1ZG+m+CdWj2IJERRgJZwwIj0PdH30R6eiwfqs+avhlwuBUEhYBOoJrWrqI1ALYtem/v4q0rdW1c/yETgwP+cL7dfIIFj6aRoASCQlDEhsyYY6YuzInbNqZM7dZOBAsEJtzcL88fgSG34W1/w7s4e7tiJJBzEbruTqTzRG6zDVrrY1tgbbDK+sreqjpA8WpfFjfErMu+aCMpXt8bDqNQcvOfYGFdkTiZr7r/8Xn9b6KigbUaHG5qA3V81xkMN15i+m21sZJ0zXC3j3zz+8qteMbMHlnwXJTahPgen0wbNpeVN9p9keW1MZJXVNDl1GgGcgXvYVrJx2wSGzVchcPY4cRDjC3cHbcvMGA4ljLWO6pxwFHG0eBZjh5fsSkOh4z1hlxGs/9mP3jCCf3eCPH9pP5OtRAs4zPnss+EXjy1jCHk1T6a9I+jt56ajqv0889fTIgIDD76AioOLD4wVdnzd0ogebp73sQGBAQcCKpkcPhAPh9+1/wMbD0HMdVlxoI/JwdGRgQGJmddDx3377cX7IjESjyF85sBkUQ5/Y/skuLT54sPlH679MnIgOhFZ9OOgqogZah7OM0Hk+69SuEEFb64FZSLpSMGmiuiUZhztnbuT+f+woa3OBRqBZVEHPhSNxfm/bZmVr818wB5Ga7WJdaStrPdiDj0J2pHjaa1VxnY5OxmIXrVv2B/0cxVnzs6mFs5ECHIbSl6zn9ZcF8Ju0PGsPUcon74pUuLvMWz3/LYBKZ/w+fv69OoFvMTQAAAABJRU5ErkJggg=='
p53
sb.