ccopy_reg
_reconstructor
p0
(cemoji
Emoji
p1
c__builtin__
object
p2
Ntp3
Rp4
(dp5
S'emojipedia_url'
p6
Vhttp://emojipedia.org/bar-chart/
p7
sS'index'
p8
V850
p9
sS'code'
p10
VU+1F4CA
p11
sS'apple'
p12
S'data:image/png;base64,iVBORw0KGgoAAAANSUhEUgAAAEAAAABACAYAAACqaXHeAAAHVklEQVR4AeybS4/cRBDHy4957SskiEQcCLtXbtz4Whxy4Iz4BFyQEEJccuEWiUMOSCBOSCAegvBItBCFTYKSzSY7mR3PuLua/WsoW8V2C7fXs0MUSvpJrrKr/3Zp3A9vb0rPuf1fgEB8eMzlY14/5o1nHDwDnmUYU4CLH179+N2fbt66vru7ew0Ix7FrX37/i/iKL7664Y1/++NNEJUDDWh1oH8dz4JniinAi1mSvLbz6s5LOzsaxLY9cfDKtj++vbMNonKg0ZU+ngXPFFOAgTUG58g5p4AxqZg6F4rDYnKg0bH+IKYAyWRuaX9S0p9jDWJHMyu+wlj2xh8fGRCRA43u9Iu5SfFMUaNAP89ofZDRuaEGsWEvEV+RJP74qLcgIgcanen30pbDYD8jGuSJAjEi8TUwX7yXORCTA43O9LM857bzgMD7FPcOsiMQk4NoZ/rSn0UXoBIMxGLOxed0r9/hL4CWPgp0rx9bAGdpZhwVJSsQM0Z8DbM/PjMgLgcaon//yZxu3CkA3bo7o91jxG/SVsktCjC3RE+n1RAmIIaHEV9h2Hnjk2JBTA40RP/z7w7pygf3K96++kCOG7U1Nza+AOhtz6/ldHFTg9iol4qvyNPEGz83SkFUDjREf23Qo5A1aWu9n8UXIL7jQpxbtMWNNJjZS7x+RAHYsWdI4zPrBEU/bNSordK2eAV4kRS+sZhx2DKIypFCd1GAM/sgwpa7zIl+Bdh2+ApMDdPeQUG/P9Qgdjg14itKdt74o0kJonKgIfoH4ymFrElbk1kZX4BRntLLW326fEGD2EY/FV9xnOKNvzDKQFQONER/c5RTwBq1tT7ondEr4NrkrFY/WACDjovtiQ4FMWau/I++ea/ik1/fr45/fvBDs1HAowGYa32YtdZHs7asXd5a4LPfrld8fe/T6njv8M6ph8HVjQIRBWiSy5bBqQrg2PlYXgFKR3R4hLm4VSBWlJUfHJ7m8zp3OjdAfIWx2hegIfrjqaGAhdtScT7NL4AV/4yH+xATyFGoeEBHJl9eYtqKKkAvIVofYBGTKRDrpVT5IRv0+9U1w14KxFfAfHFoiP4g45BMo7byLKW2X4R8qHOW2Yu+BkR/ylbHoVdtaX0AswkVQA2PIbOWm4wCGMraasAatWUsL/GTmGUf6hpmC043CjgOsLxhUIYZDbu4YbD9PABaq5sHTGeG9h7P6PYjDWKHR/PKD9n+uKiuOZiUQHxFaaw3Dg3Rf3hYhGQatTWZFvEFGORYjPTo8vm+AjF8YhI/1AmeW8vlGumNxVdkaeqNQwNai/wcfYqPRm2NBvlKZ4LK59mM5rs3K/K9XTnGuf/OVNguFiTeRcppCmDu3aWHb71Zkb5zRY5x7sTQFzUKMJ/JWkANUWytF5WL6yWnIdDQawH28UwshtREqKGe8mHsnI/lFcBYRw/GsxN/a0dsUpjKD9mTo/qaw5kDkh+a1Sk9aIj/JLwYUvdmjWhqMKK1+gVsDoi2hqkCsWGv9q1jL6OMq2uGOQEc49NYUA/nJAcaor+Wu1DR1L3Bar8mz5J2BcgzLEQSBWIw8YMNp3VOH+jrQyY5Sr/J9UD7NVmSrHYqLB1j3btbL7AVDoMRU2HH/9o4s69oEZ0gNLib1aBjfj52ilprOvzboF18+ppqEMPyUvzgVNgYI9dU+wNwXJYlMTsvOCc50BD90iCHfah7g9V+jWEbX4DSOhoXJ/YHIKb2B4RsMq+vmcwMWPiTeWjyg3Nqf4DoT2YcklH3ZkN7DeYtCtDLErqw0adLmz0FYlgoiR+y9X59zdYwA4t8jG0BwznJgYbo49NYwNS9ZWmifGHQcn+A9NyKRYx1PGqdH+7QdA5DK6oTtOzOeCocJrwa5G5HDqXZ/WIoPDzG2+o1lvELaPBzbjkPWPU3waO5pT8OZnR7X4PYuDDihxdDk6K6Zv/pHOCY7h7MgktonJMcaIj+43ERklH3VlpWvoDdZi1GAXwSyz37A3LaGGSVH7KNYZ17fpQBHNOlrXCPjHOSAw3RR1uBuYO6tyywP2Ctn62+E4x/BaI7QThntEcocjsaM4NYjdV2gs6xGpYExHTl2Q+7yK87nj+HrfLvAqu3+F1i1iUdbpFhonFhPWsBLDCarAXqXFmULPI5+KvBuTqHK/2nhWm0FnDMob3Cq+0EHRNo0wmu7BVw2HK2if+5GWkQ62VU+eHFUJ0z6qfg7/xgzXFOcqAh+hgGT7U/oJ/jHLmYAoz/2revX57eu3fny507qBgk9uDePTj/68sfWPGzh88Qeu7fA2EI//6DL/e//cSGQXJQPRA7YPY/e3zny88PD7FhFLc9vo/Nvfc+f/j48SnIT6QEwLP2xpoWfx/vam9v7zZkDBRriwvzg/PP9d7GihvS2uBqIgJ9QBjM9k1OaYu//gAbBslB9UDs8PeBsDvLQtsebk3BhlHclhIdCKJRsKenZw3ILyA/kZQCgPg0EK8G4gVDHK8G+YXUFAAqdt8D8fNhgt9D/IQJACnEQZ4KGQalAAAAAElFTkSuQmCC'
p13
sS'twit'
p14
S'data:image/png;base64,iVBORw0KGgoAAAANSUhEUgAAAEgAAABICAMAAABiM0N1AAAAS1BMVEUAAADM1t3M1t3M1t3M1t3M1t3M1t3h6O3M1t3X3+XRoq26s9iSZsypwKpqmk9ckTvgrrjbQ1fdLkRtnFHeRVmcdtC3zbWZdM7Iv+OhTLYlAAAAB3RSTlMAYL8AIM/vi50ITwAAAPtJREFUeF7t2LmuxCAMhtGQScaQdV/e/0lHOFxMcxUpP02Wr0CiOUJIbpzsqVSfLFUfLrFHlmugPPuDsq+G+mYOyjVYvkNKwymGUhxKGbKAodMZK3mIgC4Aae7UTaAXKteKW0sMKitfCUGrQCsEVUGXgo4LIeLuD+Gf/VCoblquqTGobn01BDUCNRDUBt0D8oUQMGt3gvDPfqGiH7i+wKBi8BUQ1AvUQ9AQdCnoeERCCJi1C0P4Zz8OeqF3+kdxRqJJnIloFmc+hBaBFqJOoI5oE2j7BzKB5N40Ltbt3Jumzt4296Y5cAxDUZcsCodUrEVUtNVY3GUdh68Pf8CRt71hLab3AAAAAElFTkSuQmCC'
p15
sS'gmail'
p16
S'data:image/png;base64,R0lGODlhDwAPALMAAJEB+f79niQlKeUvJLq6bwNIAf+9NvHNwLB9lz6YUP/DPKqJNG5aZb3dgKjAZGkAtyH5BAAAAAAALAAAAAAPAA8AAARNUCxlqr1VkMC754b2eccRhNsYHAByio3zsS4aJMXcvhuu1yIfaWcTDgYrYjAXOCaBPaaTxrtJkdTi9RlQSAg4AuHoQDwYhAVDwG673REAOw=='
p17
sS'related_to'
p18
(lp19
V\U0001f4c8 Chart With Upwards Trend
p20
aV\U0001f4c9 Chart With Downwards Trend
p21
aV\U0001f4b9 Chart With Upwards Trend And Yen Sign
p22
aV\U0001f3e2 Office Building
p23
asS'name'
p24
Vbar chart
p25
sS'known_as'
p26
(lp27
sS'default'
p28
Vemoji
p29
sS'bw'
p30
S'data:image/png;base64,iVBORw0KGgoAAAANSUhEUgAAAJAAAACQCAYAAADnRuK4AAACxUlEQVR42u3dIW7CYBiA4QoEsgKBQCCRSAQCieQIFRwCxwEQHAHJMTgCR0AgOAKSpSRLNhJa6JcNSp83+dzyw+iz/WQ/jOQiBUo8BAJIAAkgASQBJIAEkACSABJAAkgASQAJIAEkgKQ/A9Tv980bzXg8rhegJEl+zXQ6vWRZZl4w3W73iqjWgHa7nd/1L2oymQAkgFxJgAACCCCAPhHQ4XCoPOfzmZKmA7r9+mfGbzeAAAIIIIAAAgggAQQQQLcXeTgcXr+RexMBVLZ20ydN0/oDKjuNjwBy0u803hZmCwMIIIAAAkgAAQQQQM+33++v30uVOZ1OADUdUOTvYZvNBiCAAAIIIIAAAggggAAC6Md8H+jdmwigsrXrMu12u/Jj0Ol0CtetPaDFYnH9Kbk3EUBla9dlBoNB5cdgPp8XrmsLs4V5DgQQQAABBBBAAAEE0HsBOh6PoffnA9RwQNG/RQEEEEAAAQQQQAABBBBAAL0XIPPacRr/x6fx+cshIvfBabwtzBYGEEAAAQQQQAABBBBAAAEEEEAAAQQQQAABBBBAzQW03W4LX1McuXhlaz8yvV4vdB+it5/PaDSqfPur1apwXafxxmm803in8Z4DeQ4EEEAAAQQQQAABBBBAAAEEEEAAAQQQQAABBBBAnwhovV4Xft5V5OKVrf3I5P+sPIo4OvnHl0fOA4vWdRpvmn0abwuzhQEEEEAAAQQQQAABBBBAAAEEEEAAAQQQQAABBBBAAH0qIKfxTuNDgN79c+NbrVb4tNvnxtvCbGEAAQQQQAABBBBAAAEEEEAAAQQQQAABBBBAAAEEEEAAPQ0oy7LLcrm8O5GLV7b2I5Omaeg+RG8/nwji2WxWuK73xptmvzfeAAQQQP8HSM0JIAEkgASQAJIAEkACSABJAAkgASSAJIAEkAASQBJAAkgACSABJAEkgFSvvgC/GV+biRdGZgAAAABJRU5ErkJggg=='
p31
sS'version'
p32
VV6.0\u02b2
p33
sS'uni'
p34
V\U0001f4ca
p35
sS'desc'
p36
V\U0001f4ca A bar chart showing a comparison of figures or other data. 
p37
sS'browser'
p38
V\U0001f4ca
p39
sS'annotations'
p40
(lp41
Vbar
p42
aVchart
p43
aVgraph
p44
aVobject
p45
aVoffice
p46
asS'wind'
p47
S'data:image/png;base64,iVBORw0KGgoAAAANSUhEUgAAAEgAAABICAYAAABV7bNHAAAAAXNSR0IArs4c6QAAAARnQU1BAACxjwv8YQUAAAHHSURBVHhe7ds/axNxHMfxVEGSlEREaUg6VGkIphZsQdAO7dQ6BB18CnXuM8hNlzyCzHUtjl1tJh1st0AjOmirYNshSLFqk4DacvBdwv35SNNiGt4vOO73hcDBG37wO47EAAAAAAAYNCN2D+W67ooth5LjODVbBpKBKpXKiS2HUrlcjmxwxe4IQSDhUm+xYm7v28LdD39sDHTUTv5eezuXs9FnqLdYOtn9cSt1PBZ9/ezaz8+ELSYQSCCQQCCBQAKBBAIJfR0US/cbH1OJzl8bA73cfFSw5bl7mN/5vHjv3W0bAx2147u1V0t3bPS50IPiZKZ1NZ9pFaIu++mlxRYTCCQQSCCQQCCBQAKBBAIJBBL6etVYebyxm050Qo/xnur6U1v5ea8q3mncxkDv97PpenP6po09Bv5Vo1/ee5wXOOpKxbv/9aMBW0wgkEAggUACgQQCCQQSCCQQSCCQQCCBQAKBBAIJBBIIJBBIIJBAIIFAAoEEAgkEEuSHQ9d1V23ps7zwJpm98f2XjYGq609Cn1Ga2U7MTnw5tjHQ1qfJ8XqzuG9jj6nxr9eePWhE/hfj4PD66IvX86HPcBznuS0BAACAfxWLnQLcR376M+xupwAAAABJRU5ErkJggg=='
p48
sS'andr'
p49
S'data:image/png;base64,iVBORw0KGgoAAAANSUhEUgAAAEgAAABECAMAAAAV8YMOAAAABGdBTUEAALGPC/xhBQAAAAFzUkdCAK7OHOkAAAGbUExURUxpcS8vLy8vL/zCGy8vL+1sMO1sMO1sMC8vL+1sMPzCG/zCG/zCGwBsogBsogBsogBsoi8vLy8vLwBsou1sMO1sMABsovzCG/zCG/zCG/zCG/zCG0A7LS8vLy8vLy8vLy8vLy8vL/zCGwBsovzCGwBsou1sMPzCG+1sMPzCGwBsogBsou1sMPzCG+1sMPzCGwBsovzCGwBsogBsovzCG/zCG+1sMO1sMABsou1sMO1sMO1sMO1sMABsogBsogBsogBsou1sMO1sMABsou1sMABsoi8vLy8vLy8vLy8vLy8vLy8vLwpfiSwyNQBtpCs0OLlbMDszL/FtMDQwLy4wMABtpAlgiis0OSFBUQB2tGFTKjAvL9GjH//EG//iF///DUhBLf/EG9GjHzEwL8hgMPBtMP9yMC4vLzIwL0A1L3pHLy8vLy8vLy8vLy8vLy8vLy8vLy8vLy8vLy8vLy8vLy8vLy8vLy8vL/zCG+1sMABsoi8vLy4vLy4uLy8vLgBtowhijkM1L0U/Le9tMM1iMP7EG9mpHio1Oyo2O5vNKnIAAAB4dFJOUwA97sPRi9YBDSIHxxEDuxbM5CsXvxDO+2r4/Gv5Gf3vOvEWDoe9JRCMWKICD1yaBDoTz7UDjgN+zcDKtVMNEcABCddTGL6ELFBAAcnHLrv4n/OKLebM1fo+EzrlzcIOBDLG0Obd1R8r6PtIBpnq0F4gSLYHFu2c02ZkwsgAAAEzSURBVFjD7djVUgNBEIXhQIDgIRssnuDubsHd3d3dbXDNY7Oz27NUcUnv1Vb/V1Onq74HGJNJvy7PTnVxLq4D5x49oOgbduXXBYpgvjB41xSl8Nr+C4UDlFOSzKtvbLKgIEvtHdTQiYPyBNQeg4MiBRRFkNGgjGJXupwrvxwHlVY7nGlyTkdWFQrKNd9C5lgUFK9BcQQZHsq0K7W0IqGyyopUXlcHDiosuIeCzSgoIVtAdXYclCigJCtBBBFEEEEEEUQQQUaA4G9k/B3a2hbX4Wdoag6W5aVPaG3lLxQ4kXgTox/Q5v6OskhDgy/Q9Ky6SPOLX9D6qjL0eDTIe2RTGnuF9nZt0EjoWyk0MwnLhvsNci+oy0CfCh0z0YOWNrEn6Hd51BJLdz+HDg69DJevV2Z+AAelz4XdZTA+AAAAAElFTkSuQmCC'
p50
sb.