ccopy_reg
_reconstructor
p0
(cemoji
Emoji
p1
c__builtin__
object
p2
Ntp3
Rp4
(dp5
S'emojipedia_url'
p6
Vhttp://emojipedia.org/hammer-and-pick/
p7
sS'index'
p8
V871
p9
sS'code'
p10
VU+2692
p11
sS'apple'
p12
S''
p13
sS'twit'
p14
g13
sS'gmail'
p15
g13
sS'related_to'
p16
(lp17
sS'name'
p18
Vhammer and pick
p19
sS'known_as'
p20
(lp21
sS'default'
p22
Vtext
p23
sS'bw'
p24
S'data:image/png;base64,iVBORw0KGgoAAAANSUhEUgAAAJAAAACQCAYAAADnRuK4AAAJvklEQVR42u2dLfQOzxuHnyAIgiAIgiAIgiAIgiAIgiAIgiAIgiAIzhEEQRAEQRAEQRAEQRAEQRAEQRAEQRAEQdjfub7nv//zWDvPzss9szO7n885cxTnfGd3r2fmfpt7Np0kJWijVyAJIEkASQJIEkCSJIAkASQJIEkASZIAkgSQJIAkASRJAkgSQJIAkgSQJAkgSQBJAkgSQJIAkiQBJAkgSQBJAkiSBJAkgCQBJAkgSRJAkgBaof78+SOApDj9/PmzO3XqVHf//n0BpF95mL59+9adPHmy22w2e+Phw4cCqEY9ffp070N9/fq1mjkxl2PHjv0fnn7UuBKtGqBnz551+/bt2/s4x48f7758+TL7nD5+/NgdPnz4H3j68eDBAwFUg54/f97t37//r4/Dh/v06dNsc3rz5k136NAhJzz9uHPnjgCaG55+5RkOIPrw4UPxOb1+/bo7cODAJDz9uHv3rgCaQ3yo4cozHAcPHuzevXtXdCudmtPYuHXrlgAqqZcvXzpXnrHx5MmT7HPCMA6Z03DcvHlTAFlrzBjGvoj5leeCiNDBjRs3osHZHtevXxdAVrp3794eKGxVIdvWrvH48WPTOf7+/bu7cOGCCTxTK1HuGNdmafD0LxRgXr16tbfyhBinuz6Qxcf49euXOTz9uHr16l9zJCRAeIJ/BdCEbt++/c8LBaKUlWfqA4Xq+/fv3enTp7PAM5wj0PQhATzLz58/CyCXcGlzfhQriFgNSszx4sWL/8ST8CxzhCeaB8jKEA39QCQ6c8d6rAd/my1dAP1P2CVzfQzyZz9+/AieM6uAT7Q5J0Tv378XQLiuc32EFIB643ZOiIZe6ioBio3eWowzZ85Ew1MLRFb5tKa3sNjgYMo4f/78XhzHKuBZyrAeBh6t4kPNG9FXrlwpCg9xHEv1VYelngGnwzK42DRAY7GfnNuW1cozJ0QnTpxI3n5lRAeOs2fP7gUBcwqIgLSUA2C1km4Ez+5x7ty5bCtPiRyZa1y+fNlkK2sKIF4wQbwlwjMHRBZFaZuW4Cn1YhmXLl0qDk8vVgZSJrmfkTqkt2/fLh8g7IPcSUjLpKmVrl27lv1Zjx49mvSs1QOE8bp9PqpEnqumc2IlIErZyjaC52945tq2dona59xbWey5uGoBon6F5bVkkjG3q54i4je5t+3FAESI/8iRI8VD/ES1azzmvF1pmTPBGhNgrBIgMsUUQM2RZHz06FFV76Jkvi/m6HS1WxjbCXGY0gBhD+SsIQ7dxkv+kGI8sqqNaB6GorGUc1OuQe7JZWOxfc5tD/HsLruH95Er7RFabNZEHIgOGpYQAQ+5oF35p5zJUx94XBF3jP2+GCyHi0+CepGRaI7oWNQTsy0O65kprhoD1LL2J0SuOm9qh4anK6wh4v0sNhfG8ppiE+xKT4x16+ghKumZcRLWVRFA06ncwUa29cUChGJLQX3SE+SFxsIHpVIbLo/LJ8BpBRF/f9EAxUAUUoVHRHaszDQ3RMA7Bg82ie/ftYIopFao2YIyX4hiegvyAtm6SkHkepaYuVtAFJLWaLqkdQqilHZwrvIR62i1JTxWEK0GoP4DDL0zPCqLjhquuhwr78wFj0VLmRSIVgVQn/ro3XD+xeW31NjHIE4Uc7y5Fx3QrFceK4hWYQMNRfcxXHxreHqN1WHHQuTqV5SjA2soRHTyWLwX5lLKiuCjMZsotD0w8aaxgGjO9r0hEBFvWi1AuYVNNOadsfL5dL2gLGMs4l2igbgvRKHt8gRQhHfGr3QsAPfixQvnyjgGXumezz7Hoeg5IIAyi8KrsasIxgJ/eFqu/ztH8f6ulYjVMbSoTABFio72rhgUsSJWKjwqVzHYnMX7LohYJUMlgBKEK+4qM9kV4JzjwKLPdhYTfxJAiXJlz0ucS7dciXDfY+YlgAzEOXMfeMj0u0oy5oYoNowggIw8s6kSU1z9XK12U4UnGLsqCiAD8fLHXPthwLGmS+2sJIAKwLNd7VfDpXYCqBKxJYWeGCWN4Qo4CqAViYRoSpdVGhrUfqW3AMogPrrrFMcwRTEFGFufZb9CAVS5yGn52Dv92SoCjVPHkls3rgWQp8hp+XQL4ejQ9taEvTO1WuHiW3WOF0AVipyWz6FGVqexFIVPfx8go9yjNbtIAO0QW4tvU09SAbuizL79HQlItrSlCSCHqBz09bKwc6aaVWI/+fY8YktrxdUXQCMfmkx1SDMHYPMRVz2F9PrhQGQtiVcB5CFqfELb6oXe3R6Tva81hyaAtkQLmdDuH7EtYEJPSrBq5Sy6F0AJopFUTANzjObYJlR4WjF9r0vc2SGAAoShCggxbfBSr40kqRrTqgbDPrTwXQAZC8M05Z4xq2M4gJByaVwNBvbqAMITSum5THs8y2BfyuUxNRjYqwLIdbDPd+SoKmQVSbn2EgN7ztbEqwCIjLdv0ZfloTtfYU+lNhHFEZjjpMfiAaLZgsWVCQT1cq+OqXPEsyu9pS0WIOwUirYs2gNzsjR33Q7ztbhYpnTF4yIBIqnpOotec+d65m3VmT6kt6IA2hJdMixv+bFs+OQj8mqW15TnbnmzKIB8Sk1D+0rPUZ9jed0lgVJCFwJowhXmY1t2bJ+q78kpVg3LVRS7iA5uAmhE5IYI7lnfGeHTMCqndjVuiB14egJoS5RfxOSySlyHbSFSJtbPxu1Hltty043Gc8BDiUYtdcnMI8e1TpaNrVZx1UFIpru2cgnqoy1uKcoFUXMA7eoMljpqPVpDCiXHpXsWEDUFEF6Rq9+ghW1QswgM5nju0K6szQJEojDX1dckWms/j5XLHmKkXAvRDEA5rnes5X7UEHso1/YdGydqAqDtuzCs70rPGaXNIeJTOd4FhnpM4LR6gFi6Uwqudg1OYrSoHPGhvvXw4gAimVmj8Ti3UkphV9OpHsPZqrxhWL3XenMn3o1F/dBYG77FXPfEFmP9gvDkaj8uPHdMLGRr36xpmSb1sbQml67LelNGyMmTqgHy7Wbhe6KiNY/LV8RxrD0z3yrMagFim7F6GbzcqfYrrcva2fANLlYLEEEzK3hyXYNZmyxOdoR2HakWIE5BWGxbqWfYW5NPOz3fRGvzNlBKvc8Su8L7yuI4E6mj5gGK/TUR52m9/3KqCAimeGe+/Yiqj0SHJFH51fHgS+gAbyHyZjFxIvJivqt3E8lUH4hYdUodAGxJoYcsQ52Opss5eFgue1u6i54qVmQ6eEzZlLzPRd/azMNhIBLzAJrcpy6XJt4X78915izmTL2abK5UbPeUhbCyU5kQWw8ugKQkCSBJAEkCSBJAkgCSJAEkCSBJAEkCSJIm9R9b5KJiAtOo6QAAAABJRU5ErkJggg=='
p25
sS'version'
p26
VV4.1\u02e3
p27
sS'uni'
p28
g13
sS'desc'
p29
g13
sS'browser'
p30
V\u2692
p31
sS'annotations'
p32
(lp33
Vhammer
p34
aVobject
p35
aVpick
p36
aVtool
p37
asS'wind'
p38
g13
sS'andr'
p39
g13
sb.