ccopy_reg
_reconstructor
p0
(cemoji
Emoji
p1
c__builtin__
object
p2
Ntp3
Rp4
(dp5
S'emojipedia_url'
p6
Vhttp://emojipedia.org/alembic/
p7
sS'index'
p8
V877
p9
sS'code'
p10
VU+2697
p11
sS'apple'
p12
S''
p13
sS'twit'
p14
g13
sS'gmail'
p15
g13
sS'related_to'
p16
(lp17
sS'name'
p18
Valembic
p19
sS'known_as'
p20
(lp21
sS'default'
p22
Vtext
p23
sS'bw'
p24
S'data:image/png;base64,iVBORw0KGgoAAAANSUhEUgAAAJAAAACQCAYAAADnRuK4AAAHxklEQVR42u2dHVRlXRjHg2AgCIIgCIIgCAaCIAiCIAiCIBgIgoEgaK0gCIKBIAguBEEQBEEQDATBQBAEQRAMDARBcN71u++672ru271n33P29/n/19przZqPNd1zf2fvZz+fQ4Uk1dCQHoEkgCQBJAkgSQBJkgCSBJAkgCQBJEkCSBJAkgCSBJAkCSBJAEkCSBJAkiSAJAEkCSBJAEkCSJIEkD09PDwU5+fnxd7eXrGxsVHMzc0Vk5OTxcjISDE0NPTfGh0dbf/Z4uJisbW11f43Ly8vAqhp+v37d3F2dlasrq4WY2Njf0FSZU1MTBTfv38vHh8fBVDOurm5KdbX1/+3s9hcs7OzRavVKt7f3wVQLrq8vGwfPa6g6bUrnZycCKCUhY0yNTXlFZzPdiR2PgGUkH7+/Fl8/fo1KDjda21trW17CaDIjePNzc1ieHg4Kng6a3x8vG28C6BIdx2+oBjB6V64Cl5fXwVQLMInE+uu02th1P/580cAhT6ylpaWkgLn45qZmSmenp4EUAjd398Hv2HZWHyGVLzZ2QDEtdiGBzmWhc8oBYiyAOjq6sqpJzmkTfT29iaAXOr09DQ5Y3mQtb29LYBcCf/Jly9fsoWns66vrwWQC3hy3nm6jepYA7FJAsQb2YSd5+M6ODgQQDb069evxsHTSVyL0cmYFEBca8kKtHk0aBdqCEBcZ21F0xcWFtp+I5ZsoYYARNagDefcxcXFX87H1I6y2PKIkgCIrbvugye42m1DpAgQedYCaACxY9S5ruOhJguxV/gjNYCmp6cFkKkIjtaJb2Ez9auKIF8oxRtZTFmM0QKEsUhqQ9WHvLKyUhpHIm0iRYA+2nECqIeoz6pjJ5jcVsgATBGg/f19AdRPx8fHlR/ujx8/Bvq/cNClBhA53gKoj91T1WiuUnOFUZoaQBzPAugTcc2u8oUCXNXKBr6M1ADCESqAPhGVCb52no52d3cFUA4AHR0dVXqYdM+oI0qcBVDiAOGrqRJhZ8eqGxvCp5JaXpEA6vL3VGlywEO0VYhnM8IvI9qzdnZ2KgVFbXpj8RulBBA7rwAq/s0sHPT44O/f3d1Z/Tmo6kgJIF66xgNEmIGdxOeNq9/PkpJDMaYeQ8EAqnJskBPkSt++fUsGINJ6Gw1QlaOLbDyX3Su4CaZwG6PbSExZid4BAoJBvc18saReuNby8rISymIHiEBgrMnkGOexAxRb11evALGLDHpMkBTmc8uOOTbm0gaMHiBuOoM67ICN6LxPPT8/R9nlA9snxn6K3gCqcusKVQdVJx/J1SJmF6O8AJTC0dUtOqgqAzECgICgSo7P7e1t0AdDbhL9nGO4dcXc4d45QLw9VWq4YhD2UMjyZ47S2OUUoCppGrEZiyEg4hn48HtFDxAjkAZ9eL2KAEOK8p86JUaDLKpRUuoX7QwgbIhB31weXqzCDiH91VUvRvKbYu5EFmQHAiLTZDG+GI6L2MVuhDfdBkgc7zgHQ18YojaicSCadNaI+ar6mbDTqEFj5xjERUEKC95ujurUutIHdST2yzzEaExxTsTHl4QUCzrGHh4ethP9O4tiAX6f4yn1yTxBAUK92rTkNoStSfIejedt/Hi153aT4yhIAeRQGI2dgGVMnSakRABCjNWOqbpASgwgSQBJUvMAwveCS4GhdPhwUl/kcYe0IxsFEL6mHAbSxdT2rlEA4W/SQBYBVFl1+i6msGyXfAugLqXWhWPQ1Wq1BJArEYfKfaKPAHIogpm5AxTCkG4MQMwezR2gEG1fGgNQCnXvKba+awRAXG/JOcodIBLbfOdVNQIgk6YJFDLWFTtAv/+DW2AdmaQH++4d1AiAyEHy0TbFNUAm/STJgBRAlkWhYtmDr9rp3idA3LJi6+DRCIBMaroY6Bs7QCa+LN8D6bIHiIT3sqoJsiNtyDVAyOQy4DN5P3uATKYS2mrc7QMgk64hPqt7sweIMhtffYh8AEQtWkwOxewBMnljbVWG+gDIxCVBspwAsiQTm8GW880HQPysZTYdZde+coOyBoha+zJ4aCJlSz4AQjE5FLMGyGQWmM35o74AMuk3ifNUANWUSQTehgPRN0Dcsso+F6MbBFBNzc/Pe93qfQHE0VxmB/lyKGYNUFm/Zyb02DQ2fQGEyiYd0X8AJ6oAqiiu5r6vuz4BMumozxw0AVRRJs3CbTcy9wmQiYMUp6MAqiiToS62O6H6BMhkh/UxWzVbgExKeGxn7/kEyCRIjJ0kgCqI+vcQtxSfACGTTvquG5dmCZDJ9m7TgRgKIJNEOdcOxSwBMkn9dPFgfQOEEzR0ZD5LgExKeFzMIfMNEKMkQpf6ZAlQmQHtKlrtGyBUNq4ch6LLyHx2ALGzhMqXCQFQqN02W4BM7AJXXfFDANSr97YvQzo7gExuYK5c/GXTiVwAdHNz4zXjIHuAysqYsRlcBRlJoej3RZId4OLz9gus4g9z6QvK0oimlUuvaTouB/mWFf65Ojr5vL0G+7meephtKIMrLi3tOiDhtfXRgKlXDA77yGV6BUc3Ryg7DjDxax9TD9Un2oGonGA4HUcaWZE09/SRmxNCAkgSQJIAkgSQJIAkSQBJAkgSQJIAkiQBJAkgSQBJAkiSBJAkgCQBJAkgSRJAkgCSBJAkgCQBJEkCSPKufwAnYqjPpSbHeAAAAABJRU5ErkJggg=='
p25
sS'version'
p26
VV4.1\u02e3
p27
sS'uni'
p28
g13
sS'desc'
p29
g13
sS'browser'
p30
V\u2697
p31
sS'annotations'
p32
(lp33
Valembic
p34
aVchemistry
p35
aVobject
p36
aVtool
p37
asS'wind'
p38
g13
sS'andr'
p39
g13
sb.