ccopy_reg
_reconstructor
p0
(cemoji
Emoji
p1
c__builtin__
object
p2
Ntp3
Rp4
(dp5
S'emojipedia_url'
p6
Vhttp://emojipedia.org/scales/
p7
sS'index'
p8
V878
p9
sS'code'
p10
VU+2696
p11
sS'apple'
p12
S''
p13
sS'twit'
p14
g13
sS'gmail'
p15
g13
sS'related_to'
p16
(lp17
sS'name'
p18
Vscales
p19
sS'known_as'
p20
(lp21
sS'default'
p22
Vtext
p23
sS'bw'
p24
S'data:image/png;base64,iVBORw0KGgoAAAANSUhEUgAAAJAAAACQCAYAAADnRuK4AAAKNklEQVR42u2dH5QQQRzHD4IgCIIgCIKDIAiC4CAIDoLgIAiCIAiC4N47OAgODoIgCIIgCIIgCIIgCIIgCIIgCIIg2N733tv3tn07v9/M7O83M7v3/b430r1ub3c/O/Ob37/Z6Chqhjb4CCgCRBEgigBRBIiiCBBFgCgCRBEgiiJAFAGiCBBFgCiKAFEEiCJADevXr1/dhw8f+CAIUJ6+ffvWbWxsdJubm92TJ0+OgKIIUDJA/Th9+nR39+5dzkoEKE7fv3//D6DhuHTpUvf48WPOSgQorL9//wYBGs5KOzs73cePHwkQkZl4KApAwwFb6eXLl0fgESAqCaATJ050Dx8+7H7//k2AqDSArl69yiWMAKUDBPvn2bNnx3bGIUAzAdra2uIDIkAEiAA56ty5c0GAbt68yQdEgGSdP38+CNDt27f5gAgQATp2AP348aPYzkcCCH6fEvdKgIy1vb19FIeqDdDe3p7rtd+9e9dduHDhyDlJgIz0/v37I6/vqVOnuk+fPq0aIOzycJ07d+4QIAth2UK8qX+B+Dq9o+HwMocA8pwF4aAcXuv58+cEaK6ePn1afCvdzwJTAy/ZQz9//uzOnj3737Uw43758oUA5QozzZkzZyZfJMBaE0BYGkPR/pbDJk0DtLu7K0bCv379Whygt2/fml8PWZCIsYWuef/+fQKUKmQGYgqXwgoXL1502a1IAGGXZK0bN26o0X+P664aIGzbY9Iqbt26ZT7F43eGrmedG41ktJj7hH2Ej4oARQgvCUtUbGKXtV0Cb3PoWlhuLHeYyLOOvU/MjK3ZQ1UAevXq1VGlA17U1MBWPSWtFEtd6HflDOn62AFaXef69etJ94mB/xP6ffCSe9mFzQD04MGD5IfGET9OnjxZNFOyKECI8aQsTRx5A/bjKgHCToIv2H8gFLNKgBDH4gv2H3BvrNYGws3xJfuO/f399QKE2A4cZ7SF7Ad8RQiJ/Pnzh45ECN0xpAcGV4CHxg0WvBPqEfPD7kkqJSoJxWoAGqZxTA0EWj0ebGmAHj16pM4ur1+/JkCp3ugaXuje3VASIO1Dwbh27RoBsgonjFuueLj3p66Fjhw1XRulvcyLBUizCUpEqktVZADK2PuEF58AGRjPUxH5JQKE6HrKbhTGdGvJ9k0CFGMTjOM/SAm11NQMaA1QjPFcMhNzFQDlhjsODw9N/46pygzLJQR2W2rWAcbly5cJkJVNMBx4GZbG9BRAliU9b968yXYYosyJABkYz+OBPCMrXblyxXWWy8kF8rT5VgFQjk3glcYwldD/+fPnKsbzVEGBtc23CoBSjWfPlFPsdjBL9BWxlgHKUAlPqwHTRQBklSvUyoOVjGep/1CLOT+LACjXeF5S4BF68eKFWfTdo0ZtkQDNNZ7HA6UyrWqO8TweLTRgaAKgucbzUgKPiGVZ5kF5OFAXCZBkPI8bDgxTOaRyYKsdk6VQdiOloUq7rtDPDg4OjjdAkvEMeEK2EYxIJJQtpZ4cdpkEvLQzk+zD2s0XqgMkPRx8saG0DgAkJekDvpaMacl4xr3AIA79HF5raRaqmWxWFSDJodZ335AA0pa/Ui3xYiQ1bMCHIs3E+Nm9e/eaqANrCiDJeMZuBdIAAiSh34FwRAtCIYFkDGMm1QCCTSfNQpY1+4sASItG93EtDSCkn0ptYFowpiVbDRmVmi3YJ8xJs1itZLNqAEnRaNgvfeKUBpD2gjzSUC2NZ8zCsQDho4p5ZscCIM147hUDkJSAD19JzSMqx40zx3Ze3/MnBiDAGHJr1GrKWQUgLRo9bOUbAxCERKsWs/im0kKGZ47FuDOGOd+I9bWUbFYFIMl4Hj7UFIAkY9o62SxWWmkStvapAMHzLIV9SvTRrgqQZjyP67xiAcKDlWa1Gj0GJdtsnCAfCxCEJletOFCLAyQZz3io45kiFiBI6m3oVQYdEuwuyXgeZxWmAKR571ddGy9Fo6e+nhSAJDgx7Zc8xEQrTRqnYqQABEnHMZTMRigKUIrxnAMQJDWt7LfMJSR5yJFQNp5pUwFqxYFaFCApYBiqO08FSHqweKktGM9TM20qQJoxXeqIhGIAaamcoSYJqQBpjrsSgUetrn+qCWYqQBBArHmuWVGANOM5ZPilAqTtftDcytt4lmaG0CyYAxBmmZBJMLVMLhogaeuJSHPq1ywBhC9civJ7ZvFpxnMoASwHIG1TUmK2LQKQZjxLAc8cgCDpzC/Pyg3JiB+GLqwAkuJjJVJ7iwAkGc99NNoaIMSFpAQuj+kdJce5hY+5AOE+pC29d08hd4Bwg1IAUItT5QKkBR49pnfNeJbuNRcgSAoNead5uAMkpXLC2NS8prkAaca0dZqHtq3W7nUOQLh2KCfKu6eQO0DSsU0x/XbmACRl8eHfLT3TaLwgzT7avc4BCJLOHPPMRnAFCNtM6auMOXtrDkAQDMkSnmmtrl+rIp0LkPT/PTvXuwIkObpiy1HmAiQldMFGsjCmNeM55jpzAYKkLAfrg/LcAdI8wrG9duYCpP0dFoFHzXiO8QpbACTtdr16CrkBJDnUYPDFGnZzAYKkitC++sPLeI6tmLAASCqd9spGcANIcqilnPtuAZDk8pecexbGc2wA1wIgSKrc8MhGcAFIswlSevxZAKQ9WHQj8zKeY5dqK4Cw4yrpQHUBSDrvPfUmrACSjOncB6ulbaTMblYAYZmSllTrBp0uAEkBvtRuElYAaZ7pnHNGtbY0KSXHVgBpPiHYps0DJNk/eKgWJyjnnNQsxYxyku7R4Enr6WxxgrN0UvPUkEqJrAPJLgBJzrtWR04Gn7RUtzqsY4AuAC3taO/crTyWvSXdJ5pyWcfFXAAC5Ut6sHNqxnKOK6g1PEqbXAAC5ZZNMz3H3EPkND9QS8MjnOHmSJRSWNcy+0DIgcbS0Pp9IkPT5WA+L4Cklm1rmX16SaVErQwUNSwuGt/6GfE5vp8pWXWfX9rs4w6Q1hyy5rBu0p16ymKpgefv2aXNPSNRc7bVGPBIe5T2WHahtxpSydQiAMKOrKWtLr5Ir+QqGNQtLWUI9Hq3vStS1gNbQ2qEWXJYH405FdNqwYWBWXZOmkpTAPW7MikzsMQo1ckUWY41bT+4Faw2CM0A1Kc/1JriS7Z26WeiGv4h7HxL9owu3mAKa3JJwxpLZ62jALCESM0/rQdq3Uq3+q3W5hdTLFI7vKZ6/F6kNtTq4D4UyqylVBILY7nWR1L9sBWkUSDIZ7W0wXjE1tW7JjzH2Qg7EMleFrYgPhB8gLC3jvVpPUPB4YWwAJY45BRh+y/NUHgRSF7D1I1EKaRr1nyYsUJ2JGCCXYaYIe5BggrLMGwbAINaO3TkqNk8vVmAQkKeL5ai4VgCKLl20/A+WwFl0QBRBIgiQBRFgCgCRBEgigBRFAGiCBBFgCgCRBEgiiJAFAGiCBBFgCiKAFEEiCJAFAGiKAJEESCKAFEEiKIIEEWAKAJEESCKAFEUAaIIELU8/QMG1lCYTDQxawAAAABJRU5ErkJggg=='
p25
sS'version'
p26
VV4.1\u02e3
p27
sS'uni'
p28
g13
sS'desc'
p29
g13
sS'browser'
p30
V\u2696
p31
sS'annotations'
p32
(lp33
Vbalance
p34
aVjustice
p35
aVlibra
p36
aVobject
p37
aVscales
p38
aVtool
p39
aVweight
p40
aVzodiac
p41
asS'wind'
p42
g13
sS'andr'
p43
g13
sb.