ccopy_reg
_reconstructor
p0
(cemoji
Emoji
p1
c__builtin__
object
p2
Ntp3
Rp4
(dp5
S'emojipedia_url'
p6
Vhttp://emojipedia.org/coffin/
p7
sS'index'
p8
V890
p9
sS'code'
p10
VU+26B0
p11
sS'apple'
p12
S''
p13
sS'twit'
p14
g13
sS'gmail'
p15
g13
sS'related_to'
p16
(lp17
sS'name'
p18
Vcoffin
p19
sS'known_as'
p20
(lp21
sS'default'
p22
Vtext
p23
sS'bw'
p24
S'data:image/png;base64,iVBORw0KGgoAAAANSUhEUgAAAJAAAACQCAYAAADnRuK4AAAD4UlEQVR42u3doTNtWwDH8RMEQRAEQRAEURAEURAEQRAEQRAEQRDMiII/QBAEQRAEQRQEQRAEQRAEQRAEQVhvfnvm3vHu3DfD2Q9nn/P5zigCc/b6nL22vc9aWkWqUcshEEACSAAJIAkgASSABJAEkAASQAJIAkgACSABJAEkgASQABJAEkACSAAJIAkgASSABJAEkAASQAJIAkgACSABJIAkgASQABJAEkACSAAJIAkgASSABJAEkAASQAJIAkgACSABJIAa0MvLSzk5OSmzs7Olv7+/jIyMlOnp6bKwsFA2NzfL3t5eOTs7K7e3t+X19dUIA1TK29tbOT4+LktLS2VwcLC0Wq0Pfw0PD5epqamyuLgIWK8Bur6+Lqurq9VZ5jNo2gG2vLxcdnZ2ytHRUbm8vCyPj490NBFQBm9tba0a2K9C89GvTJHj4+PVdBnIgHUooAzG9vZ2NVg/jaYOsF6cHn8M0MPDQ9nd3a2mj76+vrYHcWBgoGOB9cL1V+u70ezv71fv2DpoJiYmqunk/v7+9xns5uamml7y/ZwN8jtydshZArAGA8qBODw8LPPz87XQjI2Nla2trerCup0pMtctgDUEUF7c6elpheazf3b/eabJNPfVF6zdBCzHPW+yp6en5gHKQKyvr9dCMzo6Wh2MTEmdUtOB5SZrxiXAOhrQ+fl52y80g3JxcVHdNGxaTQGWN2fXAAqa3FnOY4lu/5O3U4A1HtDQ0FB1kzAHs4lnmqYDayygzMO5uPPs6WeBNRZQ7jLr64HlgXOAbWxsAKSaAwuQAAIIIIAAAggggASQAAIIIIAAAkgACSCAAAIIIIAEkAACCCCAAAKo98pHhbPYMJ9IzMrfLIvqKkD57G7WJD0/PxvtGkCyKjXHMUCymDCfNf/MLiaNX5WRpc1zc3PVh8Oz05j+XyA9tS4su2pkXVhWa3T7Ep/vAtJTgP62MjUrCwDpYUBZXpKFg3X27MmLzHZzGYxOOTM1BcjfNsBq1Nr49wc8S5azO0cdTO9XsgLysR3SGr07x38NzsHBQXXxXPf0m/2B2tm1o1uAdOIejd++Q1kGMAekzoGdnJysDmZ+3q/u7u4A6XZAf2LK5lHBUGcQ6uxFBEiDAb0v01Kmp6bv0tqL2wB33D7R2WQqF865gAYEoFpdXV2VlZWVL72Oeb/PYJ7ZAdJFgH6V+0EZ2Ny5/uxtAf8rA6B/lWdoeeo8MzNTPVsLkOzm6r/1ACSABJAEkAASQAJIAkgACSABJAEkgASQAJIAEkACSAAJIAkgASSABJAEkAASQAJIAkgACSABJAEkgASQABJAUlv9AwnHM6zArQ54AAAAAElFTkSuQmCC'
p25
sS'version'
p26
VV4.1\u02e3
p27
sS'uni'
p28
g13
sS'desc'
p29
g13
sS'browser'
p30
V\u26b0
p31
sS'annotations'
p32
(lp33
Vcoffin
p34
aVdeath
p35
aVobject
p36
asS'wind'
p37
g13
sS'andr'
p38
g13
sb.