ccopy_reg
_reconstructor
p0
(cemoji
Emoji
p1
c__builtin__
object
p2
Ntp3
Rp4
(dp5
S'emojipedia_url'
p6
Vhttp://emojipedia.org/flag-for-American-Samoa/
p7
sS'index'
p8
V900
p9
sS'code'
p10
VU+1F1E6 U+1F1F8
p11
sS'apple'
p12
S''
p13
sS'twit'
p14
g13
sS'gmail'
p15
g13
sS'related_to'
p16
(lp17
sS'name'
p18
Vflag for American Samoa
p19
sS'known_as'
p20
(lp21
sS'default'
p22
Vemoji
p23
sS'bw'
p24
S'data:image/png;base64,iVBORw0KGgoAAAANSUhEUgAAAGwAAABsCAYAAACPZlfNAAAGGElEQVR42u3dX0xbVRwH8NPS0rXln6BCx7aOgUjmNBDcwAASrcZMxzSZD5MgGmMmmkxESCQE9wAxJhMZk8D8l0hCNMaH8aJx0ZChQRLCgyxGjE9TEuMTDywI4U859txLe2/pvZd7obT33H5/yS+3PU1Lcj855/zOubeFUARXQXAKAIYAGAJgAEMADAEwgCEAhgAYwBAAQwAMYAiAIQAGMIRpwCYmJiiSnxTACLmANHGeSX+ajucUAYwHJHkCjAMkgJksffYmTSSAcYbEMhwA4wBJHgDjAAlgCch4IgGMMySAcYYEMM6QAMYBEiGEfv4IAZjevOStTijSyMgI9RUU0PcrRCiWVx4G2J62heKNNDMzQ7u7uyNAzxQS+maZBIYeZgIk+XAnz6IM6bH8dYAlCYmdfFeaLQpJCS6cBW5Ca2trUxcsGUhqvemzUL59XHr+WIF4LM+V2lpKSepVifHeFtIbLS0tMUiVedo9iqF9WKk9HFoSLFlI4ZOpBqKUH1RKjwNbvcxG1LEsA5ZMpHC40tMVUeruFY9nD5GY+Yvl3S6p7Ukfoe40C4MlG2l7USHPwVPS4ydCEGXZ4uPXSqX2d05EFx/s6LAT2tTUZB0wMyGpgcnnoeJM8ZidLrW9UCQeP64m9L4sqdhwhXrXxTLC/9aUWZF2qga357Wq2Db5+9icxu1eIg9IWkOiUmY6Ca3Y6k3njki97KOThHadILoLG9OA8Ya0HSvDEYt02CseH8xRRrTbCHWGFtTc7NbzisRibW1Ndwkf8ElDIJvDzmxVjWzTVytaW1uTD8Yz0k7DIFsgq6FdPSlu7tq2Svr3KqJf9/v9Qvv4+Hjye5gRpOXbf3PxpQT5yfY4bZG25/3i3LRTr2O97JPq2N15hra0tJR4MCsiySMYDNJH8wmdmpoSF88ul7i+ekA8+a+XEkM7HwyZxerqqoBWU1Oz/2BWR1ILn89nqGJUyldKElTWG0H69+vrlvu+1vr6etTzzs5OzcsnWu0DAwPCsb29Pb5gqY4Unmu2R3l5uXB84/5YkE815jX22uzsrPCZY2Nj8elhQNIXbG2lBvPuQ+L1MLXXlcLhcOgHA1J89xYVi40qoqv3qoIZQfrjra6UBKmvr49pCwQCUc/n5+d1FxxqQKpgRpB+b2lP2Z7j9Xpi2nJzczXf03xMG2t4eHhvW1NG8G6dfzW1xH6O3n1ZXl7e8S1zc3PCZRPVTeF0m2ahYajoMIL315VrKQEmDF+ho8uVbmhO05rL9mXzF3ixPUxvhC/9K918YyQSsg5LiZ63y+tlrNc1Nzcn9vJKquA1NjbS4EQRXb95NFJ63/7msK73XpbdIXW6kKh+2SEhYLvFu/Prb/wMg9uyp6dHeq4jwjeOsh0N+U03jydqSEw1vO8u5yvCOR02XWsooTdtvcdooZEwMMvhKYDd+qJQOB486NMsTNgVZznYbsP8V5w3N02HtrCwEAV486ovBnJjokgRe2VlZU9/nq97OkyEt7i4qDiHFfkcij2R5cunM/b8d/m9a8oEeBluu+qwWVLopPl3pVEXu3Vgq23hWz8tKSm2DhjPN+pMT08Lx46Ojugd9xDU4vd+mpdlp9leO13+8WgEsK2tzTpgpseTDXVVx12xhUbo+VBbHs302CNw//0grt+GhoboL8PR815x8THrgJkST1bWhx8/dcqtOHfd6MunXS/m0D+/PESLQ0MlAxwdHRU+ht3b+FydR/eaDt9e2WX09/dHzU+KJzvUdvFclniv4UCBajFiZAFuie+H5dlfSgoe25aSL6jPB7yR732Fs6+vb8fPmZycpA0NDakDlky83t5e+tWlexSGwQLVXjQ4OGi9KpE3PNabLpzNjMIJFxv/XD8S1bb9tjiAKWS989mE4jGcOzf8ir1s8yf8mpv58GRFhNt9wFBhATAT9DzPATvd2NjYMxp+aypJwybA4pxtnjpT4gFsHxbpm8EgwLDDAjD85i/w8KvawAMY39tjAOMMD2Cc4QGMMzyAcbY9BjDO8ADGGV4EDMnR/3GmCK4CYABDAAwBMIAhAIYAGMAQAEMADGAIgCEABjAEwBAAs3L8D0rTSFx28gnrAAAAAElFTkSuQmCC'
p25
sS'version'
p26
VV6.0\u02e3
p27
sS'uni'
p28
V\U0001f1e6\U0001f1f8
p29
sS'desc'
p30
V\U0001f1e6\U0001f1f8 The flag for American Samoa, which may show as the letters AS on some platforms. 
p31
sS'browser'
p32
V\U0001f1e6\U0001f1f8
p33
sS'annotations'
p34
(lp35
Vamerican
p36
aVflag
p37
aVother
p38
aVsamoa
p39
asS'wind'
p40
g13
sS'andr'
p41
S'data:image/png;base64,iVBORw0KGgoAAAANSUhEUgAAAEgAAABICAMAAABiM0N1AAAABGdBTUEAALGPC/xhBQAAAAFzUkdCAK7OHOkAAAMAUExURUxpcXBw03Bw00lJr4WGyWxs0GdnzJ6CsnN10Tw7onFw01BRt3Fy1Dg4nlpYvkREqmxs0G1t0ZeStmFhxiwsk0FBp1VVu0xMsmZlyzQ0m2lpzm5u0mZjx3Ruzr69vM1AT1JSuGlqz25u0cjHx7SrrGVmy15ewz4+pWtr0KyrrL6+vVxbwbOys1xbwdTT0jAwl7W0taeWq2FhxjMzmmpqzzMymcvLyrWysLWysqytrbq6utTR0MPDw+JFVeRabepWaWloza6rrbS0s7Cur62trbCvsJxXmGBEnaioqJdoTl9fxLVThKI2Zc1JZ9t3geVbaulWZZlPiwAAZv///wAAZb4OHwAAZ/n5+QICaP///yoDV78RIv38/AcHbv7+/vf29YAuALgOIRAQdgQEawsBYRwcg6gOKP76+nssAO/u7QsLca4NJfzz9MAXJ5g3AN/e3YcxACMjirsOIFEGSHYrAGwnAQYAYxABYIQvAMIdLYEKNtrZ2BcXffTz8YwzAZYML+Th3/rs7pQ1AP33+Onm4sUjMwMAZe/r5B4CWxcCXZwMLJA2BMUnN3gKOuHXv7UOI8g3Rfbb3scyQfnn6FoHRPTU15o4AeCLk9RjbszLytp2gNZpdO29wigojoULNQQAZNNcZ8moUdBSXs+zbqEMKtLFpsuhMs6eH8+pRTYEUuqytyoqkUcGTOajqs1JVt2AiXEoAJw5AMUtPY8MMYM3DOiortdteOWfpo9WNMw6SaN2WsewddTDmMKfQs67ibySKefeye+4JvDFyfHKzuKTmzoFUJJDFUwGSoRMLKuBaLOQe0AFTsiwm/XY27WekcKnl+Td0r2mc9e2Y96qJLaUOWsJPppNIYsLM4EyBamNe5t7ZqaGcmUIQca1qYJAGt3Uz9HCuLSrpNvPr9iyTaZ9HX4KN7F9Xm4JPnQxC7qahp5bM828slMaY9XFu9i+e6IaPuDFf9fOweHOmpRXE+a5Q7OMKsKWH5pqTn8ZTSwOZYtfRns1DhIIafff4bGTSmMRTzE8iEMAAAC6dFJOUwAdLOQHUHkCDfQj1hf3w+xYSBGg/vDK34D5ZDyPM/7+0GlB4GqHqvNcHcC0f7r7/JQpmPlf/Oz8ojGu89PVPE1sQNBJOFe081f+sqH7xuqNfN3//////////////////////////////////////////////////////////////////////////////////////////////////////////////////////////////////////////oDjUAMAAAeTSURBVFjD7ZhnVJvXGccjCYQGCAjLgIHgFNuNazuxndE4cdK0Tdp069Ur6ejVFgIJyZIAgQRCAxB72cZsMBuDjQGbZbPx3tuOR+x4pZnNTrrb3FfLDAFK8Onph/w/SOdcST/d597/89z7vI899oP+3+X2zCubHn8EHAL+TxG/f+GZRXM8o974tLBW+bTbIjkkP+J/BTWZvJcWNyW3ZavXsloKayH2ml8uAuOBjQoSa1KR6kz2naqnPb4vxTM0irw2Lnm74EAZlDN066Ufz/NdAgYb6r4yJDJkg4+777LQMCyJRMJgMCRsmG/kUgput5BOOyVLGeRCd26f3fjzucInuS9ZHhjkTfQKXr8+2Iu4IsAbFxREfgKIHIQLCI5P41BpVFY+MiCH9EOSk8qfOI3N02cdecVusZAjYtKpVCqdzmSKRBxOnFUcjohOo4FxVi/cdQZin/un5IT0KSemxLxKWREvZNJolm87RHPINsDqTdhWy4VM+3skJ3jP/WyWVTdQvNKY0xnOlN1hhAv72VDOiWtJ6ptc3czYsH4BAENdUMmdLXDhYCYIrI+vTroOSV+cFpuHL8Wf4wKGmntFBu/bkwlxTR9K+JKkm1zGkz+dyvEhi+kucDSdxgR4y65YCFIOGdQSSdJ1rj78R1M47kFpLswm+khqCby54RAXghgnr2klPer3b3GV4S88TNxQctpC06Fn53WmymBk2+FSCHDOHeVrtT1Jx036NVWvORIX82b8AhRqNGu7sQSGs2oOsVHO6asGNR8s0Q2prkr3/K/sILwXcwFKYmqMAEYKa2rlAANx/3JVoVL3SCTvXz/7vK4q3JG4FDFtQQq8+UD3QQsGgnh/VhhUYO97ko72na0Kr3rNnriUOVbIEtGOmARA2Va5Z2ssBNlBBSotX6JOSuKrb9xdo3vOnrhvOp9Rcu6xVBtlsEwOPRT3dEFGgZbPV6sM/OPhSp4jcf3inYCiO95rQSPaMrBnGgWI/YFBsbdcoQAvquN3GJAjcaP8Z4E0p96VoZSa/jOZ0Eyd/zBDlVG+d+9eRXnBBzywiU/+wrZr62esTfSRHSVgkxr2OKEAnS4/evyaClC0GQUn9GBAZzP3SiJ9WnqzimRgMtUH5ZBzfXT15N1/9Km0Er4i49dKMGBPXF9v0dSoElvAXleUxUJzifeOTnl3v0FlKFfwb99CDWpL3DAcZ0p6F5XA+7rPsKF5pDcxdDcKtFqDwtB3B93GNdbYSOQ4+2pnHzEmpFQezJwPA/F0Jkh69+Zfj2ozMm5/hI6YrYnrGSi0geqPxSBbBtOh+WUO1zGUZob0ZF9Gwf53LGjrqURYZbN2cqIMaUKrxPxSVplNUvBu2l+gsoLYGy0nrpuf1dqAs3lg60IYiN1afN6E/pt+SKUd0lvGTJbE9VhqsXb2MVlKdzq0MOiz0WHrz899+eVZsCsAqn/KEht+Nwo6FZNSIYdcUPGYmWfZ1c/HL+ogxsQ9HsS2nkohz6KnVT7gyNNLS0vT5bHzYLgM80jxSDGXLeXmtF80F3/SNswA62ZJXHdg7bwdSMNgd2VXREREU0N1xa6y9DlojNb7k1+1N05MNN9rHR9vbB8dHwGxWRN3mTcz+W0BkpWCwDYhKfu6qvvLnPmJa/5scvLSztH2S5NtO78ZHm7/JAeyJ24YTnRKhiCwIMb4VmpR0bs7jDEllkJU01/mZNV4X1xsbhspvth8+cGDxvtfWBfekrgk8t+NiCD/vU5WXnRyfX1ydB7rSGKREVRYtDTOLgG8nIkxc8751q8ffN18T2odk75IANam/K2k91huNtVeBeh0OrVeg9ZZAVoHatNnmjRnrPl+c+PlyxeGL3zOsMLRxCW8/un2vDkrfwKS1XR4xnJNtH0z2Xj6wn9GL7W1WkHcjSA2j998XD/PidYLytO2gV2lU6alHxu/dLl9J9BosXUkveIPDmvPdcZqOq7kl8ApXRUHH/peP9Lc2PhV24Wx1hzLfM7UHPijw9rzsHI7i/IFSGHT4UOlsXZf6vXni6UMi8Xl/RFZL2+yW3uBe1GuZbkKu7p3bZVPW3tuem1lVtbLr1itzXTlNsLa/pYsAUnZ0gCMXyrPjGWzY+X/rj3ckAXbOMDaIhdAYOk1HW/3yhJQ40c0VQ5UV9c0HchCYGTf7zZZz0gsziUQyqJpWIlF+TIB7FBJzG9fD7P3KOQ4qsuiU5PzOhKvpPbmt7TkG1OvfPzGUozjfu2o2i7D6qM1ebm5eZp/1ZEjCQ+vxqvSvhvIfgUXiQP8wqbcj+1V+7tRAIa42ocw7XY829roRR90EKCVmNkJWD+lioR13qs2eM649uOnXUhoNCZHKK571otIBM2Nf7xYGGfpTmyNBB391D8gcKnv7D4kJHgKhimM98JR/KJeBV2Wu08Ift1yChkXQAxe67+7rq7Of61XAC5wOd4X46yfdVibRuOIiU+sWxnm6TalgfMkoR1cJH4JED7SxxeLIczRpoXarE3jxHsvX0n6/r0zFod2IjSm2NtvGWExfTMGOJJGi/Na7U5Y5PMJ/AohR4xb4rnoJwuP4wODVru7PYJnHR4Y7KN4ZPKD/kf6Fruyy+BtDw3oAAAAAElFTkSuQmCC'
p42
sb.