ccopy_reg
_reconstructor
p0
(cemoji
Emoji
p1
c__builtin__
object
p2
Ntp3
Rp4
(dp5
S'emojipedia_url'
p6
Vhttp://emojipedia.org/flag-for-Andorra/
p7
sS'index'
p8
V901
p9
sS'code'
p10
VU+1F1E6 U+1F1E9
p11
sS'apple'
p12
S''
p13
sS'twit'
p14
g13
sS'gmail'
p15
g13
sS'related_to'
p16
(lp17
sS'name'
p18
Vflag for Andorra
p19
sS'known_as'
p20
(lp21
V\U0001f1e6\U0001f1e9 Andorran Flag Emoji
p22
asS'default'
p23
Vemoji
p24
sS'bw'
p25
S'data:image/png;base64,iVBORw0KGgoAAAANSUhEUgAAAGwAAABsCAYAAACPZlfNAAAFAUlEQVR42u3db2wTZRzA8YnvTDQqbwwIvPLFWLelYBh/nKOTMSgTVxCGwaAGIoIZsLVla7u16pwaUOSPc5sbg8CchLEMh5NANNaB850xGoh7YXyh70Bjoi9MJD7unvaud+1t7q6ta5PvL3ly1+txS55Pn3t+z3PPhQJB5FUUUAWAEYARgAFGAEYABhgBGAEYYARgBGCAEYARlsCi0aig5E+RYAUPncuJ8s9PBTlZvr1/ZU4UwAADDDDAAAMMMMAAAwwwwAADDDDAAAMMMMAAAwwwwAADDDDAAAMMsHwD+/pSRBb9sS+655keB2yWwVQUpTStLdX2vS6Hth9wlwL2f4PpYYbeLNaOfzc8Txzb65bHxy6EtHPGhoLa/h/f362df3y3w3AtwDIMdqp1m1a54yNhMdqzL6Wi1e9f27JS2+/y1pqiKJ99lcXGlllVCFgmwO78eJes0E/jSPry1w9z5DnN1bEWc+aV7XIbrFkq3tm11nDutd4HY/1a51z5ubMxgdm4ukh0+zyAZaqFJUNlqwCWwT5MX7E3ihZOW0Y6X9b+nfJZv9Xvz7QfA8xm0tGx78kUMDX0MFbBSDqyABbZtNy0hanfS7Riey3sZHALYJkAa6l51HSMpWH9vMhwvp1bor+qxPA3Qu5HALMLpqTvB9fEKjToXprSwpLPv9XTYbsPU7PLkff3AmYHTF+RJ+pr5La52mkAE3/2p93Cwp6ylPHb8LHdgNkBC03eEgfad2gV2VCxWG7//vW2lnAY+rD4MStgQ0df/M8UH7AZgF0fbplyvKRC6bPECdcyuf1tcMD2LVEtn3TtAcxOH6ZU3pfnAyK4wZh83LkxR8PSp/d2bolB95Jpp7EAs5jWK32Lb01J1mc5Dk5mixHPctL6dMGUynx7Z1W8Uku1FpDccqYaOE98M3/a2ZOrZ7wiOhgQzeucUw6iAbM4cO6KT9TaATOburrpXKCBfd7vjz0vqy5m4JytuUQrYOqxmyULUsZv+kc2zHRkEOzyyQNpgd06cp+2f/v4vaY/Ap/LAVi6YK8+nRjMduzfaAtsReTEtK1W/TEo2ejF9/YIf2URYOmk9f1tz5oOatPpwyZWzTcdh/l1fSRgdlrY5hUiXFsmDr/whCWwS13GW6KSZPxSP1d+9/vZeww/iEPxa7c+tUw0VTtFYP0SwOyCRWrLDFDqXKJVsOjV0ilviUpr1P+NgdbFgKVzS0wuPU2b5fbK6kUzBksu7XWxNSC9wa2Ga49dCHJLzDSYtszt3dRJ28u9+1OOjZos3jn0XKXctj9TPqO1HYBlAEwpn33oszwFFVjvFF9dbNU+t9Wt0o3HYlkjYGlOTV3XVXByaat7TBwoL5T7b2yvkFvls1LUZCW4Ifbws+HxQlsrpwCzscxt/ONwfAGoQ3T7Nom+UJ3o9ntSBtV6sOTjH731vHwY2hfaKo6+tE5mhMpx5Xosc8vCqqnx0w8Ir6tInD+80wDRsjHx+EW/QDTiSWSZyRmncg0F9ZT3YVZNzdbbK4NHdolGl0M0VBRO9lNhOUf4+rZy3l7JRbDRD+pN+yS1NQKWo++HWV2GDdgsvoF5rS8xR3jldGP8pb6FvIHJK7OAAQYYYIABBhhggAEGGGCAAQYYYIABBhhggAEGGGCAAQYYYIABBhhg2Qej5NF/bS+IvArAACMAIwADjACMAAwwAjACMMAIwAjAACMAIyzFvzx0ISTN9q88AAAAAElFTkSuQmCC'
p26
sS'version'
p27
VV6.0\u02e3
p28
sS'uni'
p29
V\U0001f1e6\U0001f1e9
p30
sS'desc'
p31
V\U0001f1e6\U0001f1e9 The flag for Andorra, which may show as the letters AD on some platforms. 
p32
sS'browser'
p33
V\U0001f1e6\U0001f1e9
p34
sS'annotations'
p35
(lp36
Vandorra
p37
aVflag
p38
aVother
p39
asS'wind'
p40
g13
sS'andr'
p41
S'data:image/png;base64,iVBORw0KGgoAAAANSUhEUgAAAEgAAABICAMAAABiM0N1AAAABGdBTUEAALGPC/xhBQAAAAFzUkdCAK7OHOkAAAMAUExURUxpcVNm3vJceeU4XuIxWFxv5Nm+AaZ2u+tmevJdfuc7YcmxBXOD6m6A60Za1kxg2jpPz2h66s20A+bKAexGa+9McOTIAu1Jbd6EUfJSdTVKy2J16Fdr4XCB6D9U02Z56SlAxG1+7M+1A/RYeuk/ZOjLA82zA/FRdPRafPNcfsSsGvRZe2d56cyzA2x962p97PJWdvNWefNbfdzBAcqxBcuyBPJdfvNYe+tEaWl77GV36TBGyV5y5eLGAvNafPBOceDEAPJTdlBk3epBZuM0Wldr4WF05820AvNVePNXevJUd8yzA9y/Amp86WF051tu5PBPc2l769pqRda7AtO5AtG3A/FTd8uxBdijGENUvKGYV6edVrmqNf/gAAAYqNAQOtAOOv/hAAAXp/7hAP3eALmfcQAXqAAWqemBD7SZa7edb+qGFNMUPbuicPbXB+HBIryjdNETOQAWqvvcAdERO98rUtoiS/jaAQ8ms/zdAQMaqhUtt/PVB7yiagYerSI4v/nIBv3bAfKqDerMFti7OMKnXbebZbida+vOAebIJNYZQ9QiNAgeo+JeIwEZqdCzPvHSD9gdRhwzu/3ZARQnm/OwC+uKFeFjHsCpeOd3EdQXQAoir9y9KbGVab+iUr2gXcWnU8mUUsCmaOaAFMquU9/AMeWgG9WgPd0nT9QgNd/HFNo8Le7RCTZChBoxuv7fANW+G/rMBPnaBfPUD9O1NcytStq6L7eaX8SqY+WIGs6xS8qlWuh9EOyvEdk5LY2GSrGhNB4wlEFLfHNyW4J+U+TFGe7QEs6XSdyzM+KrJ72cY9qsOcyKRdi7PtOLP855Qtd9Z/fJgf7lRuV0E9yeKGdoY8q1Iyw7ik9Wc8OwJ9k6LbqqLaWZOyY1j1hdbWBkaMaoRNyNJ+eSF9OoReGCVdBNOd+LedZdO+J9aeFtGu/FEpaNRdo+LUlRd9o+LCc+wpqRQbuOY8Z4VMJzUNaMb72EW9QyI9ZIN+uUP+2ZXfnPQ+2YUOJsSfS6T9SBJdo6LRnj6dsAAABddFJOUwDGMvX8odEBBA/wHAYN5Nj0TWj51r31ygmU+Hm2F+1g/iN+Vur8XKE+HSZGVU0cL35pKeMvPBVK2kFt+5LyI7PtjdDj98aId3NfhlPcEoCvrDfzv6uWiUWo8+RN71iO3JIAAAY8SURBVFjD7ZhnVBNZHMUFElGkS5GigNKkCYINRbGvfXV7SSbBTMJMqgwBAgQQkmBYpIkKSG+6LjqKgCCwllVU7GX7rmtv23vf40yKCcyL6xE/7J7j/cjh/M57d+59//cybNgz/dc1wnxC4MinwBkZPt3CN2D2kDlT51rkQQKa25ghcmYHWFSwIFaF0+Sh2RPsTBNAhBItJgwFM3np/KRESKMdbiOelDI18GUnWh6kU57rRNP/a2kzNmhKqL+jo6O//7LQKVOiooKCRpEKMg+OcHP2leZBLD0o0WqaCYq1j8NKutnrsTEuowm5uMTExkZGLh+u0fI1Vgt2FAsgY0mXAvcWFkK3s/fenXIU4+CkOByODCOUrBHGF0As1gAOq9h5KhXjE21mn5mSGhfHuyJi4FSxs98eiCEk8A0cjLHxMnNPIyhMJjNhlx8IhGd9QgFBtOcsBzo8iT4urYCkEOId3sMGgTZtpIBYSXMGFM7SYaF3BpepE7f0UyAI56+jrKhivrkxJ8SupIBpUP6XwK2tBZgELYgwXo9dGpdprPc4QFDWu4C9BRiKu3reIE7CR+mMxzQJyjMUN8wzkzlQCbt2PrZJRsX1cE8dBOId/oD9uCaxDMVdmBY3CMTMP6QHyVo5DJzzCJOMigsAMQ9qKyJj5LQ39YkVfTjOMGWSwCpYB1pVQgHx3sdwvFV9RlGUUy/sV8FtmKhIJAObBEnDdeGmZ1JACV8Tn01dXyYsLDoAo7CkUFRY01jZCjap2FkX7kXeVNCHOwlQZ5mkv7YfQWFUqahGJfJKDg4ySTBfV9xod4pFvNKP2ThH3fnDrTXnz53uPn68rq67ngSBTHpYXC/7Agoo/zM2LlLX/vjLzQu/3dt+Pb6c33CguoUBNImV9Lx2bw7jUilLYh7liNpVyM+//n3xjzvnmst7+OUnagori9Zmv0VdUsV0bbhX22ZQ9/ZFco4cRb+/9efFi3/dOXmJH19+Uo7mtqeDzqTEBUu0J6PdNi7F7SMt+5QwnPvT7xcu3D1/qnxLeU+zkvBbDDKJtUNb3LFmKdQgfb4HF9cgcN3N23dvn7/Rxb/E72qHhXAHZwsgSRVOmkuAjSc12jzibMPaVGj32bNnT5/rvrGdUKMQrslhg0zSFdeavpsC4uZ/x8bTO1SN1+MbGhpOqS9fbu5tkiNXReysdwB7k84li2u5iBpt4mzDGJhapWyOJ3RZ3bt1a/x95f5j4LpBxdrienhzqZ/tSjpDvB+pP0mCrjWlN/dmZzXmtvXJcJBJuuJ6zaQuKGFXDgkSniJBXWfu/3OvZ/MZWFWdw94MMElXXAdqtDUjqagTRWqu8fkNDSeKei/1ZDchyH4x2CRtcWcAos0rPcTe1wmjSH9dXd3pdkVTh/hEI4IIFRjQJIFmKk0CRJuZf5AtUwjLJFUILJEIc4XCelVVFSqpTWeDziSIFmGpiTYT8NlkDJFCKYRhFEURBEarCGSZpFYENElbXCLagM9GjiSsr1JR2K7MJVaGorlyubxazFkLMokorjk42kyeZiQRBz/WmqOEhRJhbaVYfKyIOG83bQWAEi0iyGiXAECl+pHEaC1UIRL4qohBiPzDlnWgcLsR0Z4FirZhJOGiYx2FbWJMP5SASaKFm4g2MZIMY5vBwYxuA3u/ooKSXM1NRFs7koACmJTkNE0TbfcCQEmOtDBMkCh103GA0SZHEvgmQTEpUeoaqJ0jwGhrRhJYe42TxBLQ5uhvbeBokyMJrPXGJhVbuT28/gOjTY4k/N9MYgmkThGG6ygw2uRIMsHR142VmGQVYG50PwZG+1Gfbe83xGsNEiRZOE8YeDumRpsbx00gRhK5OQBt/UaWIE/qO2fJ4AeEx4ALCZdbkJFS8u3M1950IR43G1rSRcmYzMgvDpbcJbVynRtMfRxHG0U7LjUl093WjL4oOuSN0NBljuNfevGF4ZGxMaP9/DaQ8hsdEzn81fBpE0HvopCHpzY3o8R+3iyvSWOtDY+9MaOCosgX3OLxhBY7+r8SNcrUo1gfbW5Gpu0qLx/rJ36nEtEmg5RaMo4+w2Yo7+Yw4h7Bjdvm7ulgM7R3vLWHfcq23bYrw4b8y8IKj3l2niHWT+G3DsswnxXPfjn6/+gB8cyd+KT3xHYAAAAASUVORK5CYII='
p42
sb.