ccopy_reg
_reconstructor
p0
(cemoji
Emoji
p1
c__builtin__
object
p2
Ntp3
Rp4
(dp5
S'emojipedia_url'
p6
Vhttp://emojipedia.org/flag-for-Anguilla/
p7
sS'index'
p8
V903
p9
sS'code'
p10
VU+1F1E6 U+1F1EE
p11
sS'apple'
p12
S''
p13
sS'twit'
p14
g13
sS'gmail'
p15
g13
sS'related_to'
p16
(lp17
sS'name'
p18
Vflag for Anguilla
p19
sS'known_as'
p20
(lp21
sS'default'
p22
Vemoji
p23
sS'bw'
p24
S'data:image/png;base64,iVBORw0KGgoAAAANSUhEUgAAAGwAAABsCAYAAACPZlfNAAAEFUlEQVR42u3dT0gUYRjHcalTR6lbdAiigqigqEOlCRaBBRUWdQgjECHoUh0qoXvQoYsECqIhRQQJZUXiZQ/+6TAhpWmIHqQuihTFlgu2TszG2M7uzM6877zvzOzu9wcPyTQM6/t5n9mZ2Zm1xiRllRqGADACGAEMMAIYAQwwAhgBDDACGAEMMAIYAQwwkhiwVCplUuVTObDxTbu8RbfdlS471vYLS+f2w243qeUA04GmE6wUVtWAqYbTAeYHVRVgQQZAZiBUgwXFqngw0cEIOiCqwOxM7m3UsicoSzAdaCrAdEykigGTGaShkVktYNZ2rUzsrKt6KF8wVTNbFoyukgBzDN7qqlS3iYLRVQrAwsx4ETC6SiFYqW6brjvjOqDDxnwgMHu9iR1HHP+/PDUDVFgwmU7wA6OrJE+cdcYPTMtVbcAAS+y1xEoowAADDDDAAKtWsNGxA77rGMb+XI2MBlsXMI1gNoZVD3tOmLX7bpmbD900n/Y3rC3Pj70sfxvt98461gVMM5hsstlfZibzVfmpBudhmsB0vSbAZME6xW/nXFn5AVisYPllrvq+nnT6U/QXf/OvwOdnpumSEyObDQWWfvfese5iZ9/alf2oDqGFwIoAi7Ow8CRasKDdkz/Dg34eJrPt2MCWF504n7sD7Srn5u5EA9bY0iPUVbtPdkh9gLnnVIdQt1mvKxYwn07yWj4+XqcfLOzMl7mnIyndJgQW4CBE6YmzbFd9f/G2qKtU3ISThG4LBGZD2T9/uB89mMoZHva+xDi7rQjs98K/f7vWu3eUz4GHcrBjLb2ug/MzNeraVVYXRHEjqVe3zTa3unab9XsoBUtdMc35V8F2gflgj7foA9M1k1XeWx91tzk67NFGcbCCdbSChekqnQ9DBO22bCajfpeYD9Bb6310MXbDFU0bmMoZq+v5sCDdFnZw+gfqSx+uf3wgcCXENM9dvawWrLCrpg425ZY/ezOZyAf6rNdVqttUvI+5IthZ/eMN6rJLjOSBPlW/sK5HZkt1m3KwwdNOiIEG7/cs3WDVfoNm4MkQ5Nrh0HnXgxLAkgqm6RwMMNkjRT+sgvMvwOICS3/xPv8avlby/AywiGrDrnaxT009wGJ9eqXq38cEwZaWXgIW6/uYYFTtDgETqE7DlK7YH+ir1i6TwVLZXYAJVp8xLYQ1ZhxPxiOzdFk83QWYRjQdWIBpQtOFBZhkrdvujWYt33r0OmBJq7bbF82U0erA6ja+ma8HDyfvezqo/7vGYaM5h9VlrGjdFQKmqOovtOWgng/UJ/ebcKgy++oiCjAKMMAowCjAAKMAowADjAKMAgwwCjAKMMAYDMAorWBUGf0dZ/72eHkFMMAIYAQwwAhgBDDACGAEMMAIYAQwwAhgBLBKzl/YbcgDZXer3QAAAABJRU5ErkJggg=='
p25
sS'version'
p26
VV6.0\u02e3
p27
sS'uni'
p28
V\U0001f1e6\U0001f1ee
p29
sS'desc'
p30
V\U0001f1e6\U0001f1ee The flag for Anguilla, which may show as the letters AI on some platforms. 
p31
sS'browser'
p32
V\U0001f1e6\U0001f1ee
p33
sS'annotations'
p34
(lp35
Vanguilla
p36
aVflag
p37
aVother
p38
asS'wind'
p39
g13
sS'andr'
p40
S'data:image/png;base64,iVBORw0KGgoAAAANSUhEUgAAAEgAAABICAMAAABiM0N1AAAABGdBTUEAALGPC/xhBQAAAAFzUkdCAK7OHOkAAAMAUExURUxpcXiRz4ae2bHE9F96vr3F7HGLy8XF6rXD72iDxFh0uqe77qu/8pmv5aG265Oq4rTE8H6X07DC8sDH7qvA8rDD9KS460ZkrIqi3E5rs67C8+qPmrfG8KW67qq+8YGZ1pyy57TG9FJutau/8KzB8o+m3+NpeKq+7pyy6EJgq+zW3kposKK37K3A8pqpz6C268jF2tzCzdDP2+yDkPWtttTZ59bT4ty+xV97vrq92Km65vW3wO+vud7a3W6IxfCZpK6s09idrrK83+e9w92Nm6x5md6eqNfP2Ke55PCrtd93iMurvNPY0QAkfQAjfM8UKwAiff///wAifM8SKprN/wUpgQMnfxAzh88RKRs8jgEkfgwuhRU3iwgsg9AYL//+/dIeNAgqeSJDkwElfQMleuN0gubo8TlYpD9dqP/5+tQoPUdhoz1ZnitKmdMjOPrh5OV9if/Qit5ba91UZTFQn+uXof/99ydGk9c2Sfj6/KDK3vz68dUvQ//y3fTDyVRtqu3t9Oqcpv/u0n2Qvv/px//15f+cB+eDjw4weDtWcSZEd191rp6qpPGzu+2hqtlBUzZTmvvw8txLXdtEVmZ8s//hsf/cpS1MnBMzdRk5dfrn6tTb6e7z+lFkodtIWuqmsP/mvv/Ngv+rLP/BY+aIlOBjc/fU2f/Hcv/Ym2+HfdHXyvO6wfTy2+7v3r3H3/319qOKrNTD0/CvttbWrtZld+mxu/+kG+K8x/XM0f+8VJ7Auouaw1ZtdY2ikpCef2d7c6y3r0lhgubp1GZ8i8Pg/DNPfnSGk7XA28nS5ZOgx8WKofja3bO41P+yO97j78qes6e009+eq72owHqUgkFbeRIjdn2RlCwibX8qWkZEhpaIrk1lgnySjXpvn+TG0dTq/nB5rHZ3qMfP46Kszsx4jsPIrcBnguLZ5KAkSbcWNEkfYcYVLmcbUpekkJVReM/UwJ/N7rTZ/mNCe1tBfZwYP7wcOdrf0vf35L5MZ6Otgf+yPuLitP+1Rpd8oqOevpaisJuGa+UAAABNdFJOUwDhzB71AucFD+/4ZUahgq8j2C8VTSl7/sP8M/4ablnTlQr6Ujy6/F6Q/v39eED+if4/U9ZT5vvC8/njJ53W97ufuKmF9/7mjbN35OPwUoTR2wAAB3FJREFUWMPtmGdUG1cWxy0BAiFE7wKE6QaMu0367mZ3k/0wI83I6hISEhIqgIQEiN6LMaYX2/QO7rEdt7glLnHccElvm8RpW5Ptm2w7+0Zd4LCA/CF7Tu6nOaN5P9173/2/d99bteoH+76bu3/sWo9HwPFI9UsnkH2d5gSsSxfw+GFJq53k+JJd2TAEC/yCnEuPV3wYH4YgiOUa5QwmaB2ugIVxIDg72n2FFLeAteuoKQIjBoC4eJdFPl4dERQXmEgikTZu3rxhQ1y4f5CvCzDfoHAvUlIoIYTLM3MgiEkM/C6/n9j87E/wOGK6Z8zT63+aQEnegiPgcH5UKp7qhyMQY7IlQsiKAS6t8XZ7GCZi45ObEgo/5bKFLJ7hPzKV/rRoLkfIZ7MFwNhsPlOK2lGAoZLQgIUYl8jQxygqmu4WG4XpHfen8mQapLqODdsMmm90ISFuQakmhnpK6moyON1HDShPfV+vmuxE5nqEC0c7WErqvNiCyEQDC606kccpP5XDG7ozXNx2BHmgZtIX56C5Pg6Cc/MKXSNE6WjOqXJO3omWoTvtxceUJbdyYRDkoiCYjQu358Q+3tNhYDNRw9FuTkbN4TtdXZUi0TU1lytg81mLklieJDvOxi3V8rmBw2k96vU6DkOrnK7UIAgiHxgYeO3wtSrewwDSLLNLBWSbcDc8VYIYrUReLWNwdDenK1tH2moK29qOtR6ofI/5EA59Z7PUBLITbsS2UyOFk5Sa1n4EUTbRGHnt5XniDKOJxeK8X705HwJsz4Xf7zBlj2kT7i9kKjBAXK7VdFZqi2k0BofBYNBMBp5+/bY1NmwoL7N5597mCwe/3mkC2Qn3mamEyXv3TlT2H5hS0SwEm/32NxaQdEcmDO+5ePz458f/jhx6BZ0v3G33z7ZUnR28KVOZHWFwOOABC834/DupGZR17sLFfd/+s8iYz7JXsyzC9TKDnlewmC0Dx9qN3mCsvOEpWROlEBhlUitL+MqSbfjcpYMHy+obyooaakWil81JsgmXnM3q+bJQhWE4GeUqGkevOaJU9ms6S+RyeXV153ouapmq/Qgiyv/XmZmZegTZb04SKok3C3ddSsuXTWLA4YiHKadlNE5XfwmibNXpRq6rO3LUVVVss97oO14WIUh+43j+7GiRNUk24UambcU4jIzhNk2nCMi2+JfXrw0qK6eKX3whh4XarRxZb4H8jDXONjTUl4EkWX4IizSBErdSME75pKa/5t5WIFvViRZ2z4OSzrbu7hsfc+3Ehr5/CPNotnfizEyFaFfmPOFu/DmWn+EDyiMy/Xs9QLbimjqIJ6mbE93UYk4xYVs970eK+sZnGmZPNp6p/Xwv3SJcf5NCNokZGbppkWik+4ah42g7h9b0qRCGmTl3B5WtXe03PhZYQZm7GkZ7J/qQorHxxjPHr9IdhfvEpryMhOQHg9Ndnw3B3PV6DiPhMbBP0FF2y2siTRNwymAJD758MH+2rxdBavtO5h96H3UUbsCm8oTks2mdMt0nTJh9C8i2CyyS2AeQ4Xq18oC+/U9Wl65eqsgfra+o6Bu93Vt22bIrCajGJsDjGW1ynXru2PALwA9mGoUGpi3HXP/CqsPVydp3siBbAfTN1I7dnqidqC36wPKamR5r3IKeTK4TpGl0n+WACHh1I3/9yzsfSiylA3HVVS3vSq0F8GpZxfj4yZO9tWNlReczLRErkjDhuj13lq+WU/SfGKXQMfT2m1l2Uw6jKN22tNGv/k001tj4j/r8fJF1/jHhRmAuBYfw707rf8Y1e8HjLbK0Zu4S1d6eGG2o7y2ygSChSbikMLW86cWh/7FhmP/8lUsVQB+IqKL6yltWEBRiFG7s03dP6//NXhKIvmMXwJQMfnRl+x/2WUGwJB4r7rjH5dovOmBoSQa/sf+jK3/cDqz0nG0In4DtSv5bTus+FNKXBoIyL5duN9pLzbYh0rBIEJvvU9ovDEt0CAS39wMT6fxeGwjd7QOKO2DbN++yIGjppNcxUum+LPsd1w/E5vHjP8MQtBzSvlLHyLB2EgjX/Ue7UWhZpD0XXyo9v8ceBCuiQWknZS8PBNaTN15vdowixttY2jC0TBKcKXV4kYvH5p8UI4Wcs1y/QKy0A11ZzlDovAKqkbNqLZHpBAdmKvBrTfuIP07oBIcf5mPp2nypbHilYUklxGhr+x8RyoVX6o6CSrK1ox4+kpWAwJaVSySH2/XH7uRllraxkmBhbnp8lGN3vKC06aAxhqQsFksKFm3Q89Pn+wIJuQqiT2LEvLY/1aG0YZjF5xasCfNMTweHm5DsXK6Az2TxIPM5gsfkC3anEPFJXgsPx6QYewo32xMXSvaOjIoNDIwiBUf7hFJxRNeYsJA1CoUiJMWTSMD7BHu5POzMF2spbRjmF7jioxPDA2yfua0O8PUHJ7jI1GBvb+/gyCgvf5fvOhTHEU0rLczPJvhE+bqv+JzqT8AOuzCzgED2cupWIALPBXMj8IwPdPJywT01ncvfTfCOeAQ3FHhcfKz7o7gzcQkK+OHm6P/H/gsKDF89hoX9FgAAAABJRU5ErkJggg=='
p41
sb.