ccopy_reg
_reconstructor
p0
(cemoji
Emoji
p1
c__builtin__
object
p2
Ntp3
Rp4
(dp5
S'emojipedia_url'
p6
Vhttp://emojipedia.org/flag-for-Antigua-&-Barbuda/
p7
sS'index'
p8
V905
p9
sS'code'
p10
VU+1F1E6 U+1F1EC
p11
sS'apple'
p12
S''
p13
sS'twit'
p14
g13
sS'gmail'
p15
g13
sS'related_to'
p16
(lp17
sS'name'
p18
Vflag for Antigua & Barbuda
p19
sS'known_as'
p20
(lp21
sS'default'
p22
Vemoji
p23
sS'bw'
p24
S'data:image/png;base64,iVBORw0KGgoAAAANSUhEUgAAAGwAAABsCAYAAACPZlfNAAADRklEQVR42u3dO4oUURTG8fKBNrQow0yPqdBg4Apcg6A70MBMNNEFCBoJrsJM0MQdtKMYGAwYqOAOfGQGGggtt6CbUurd9/GdW/8DB4aq7uq6349bVTeZKtaUqSqIADAKMAowwCjAKMAAowCjAAOMAowCDDAKMAowwCgZsNVqtabtdAlWFAVtoLdgx3uXCUS8ndE/YKBpY9WCvTx/iYDE2pk0grlenjpDUCLtLKo2tWBcGvUuhZ1goOlhdYIpo31/s2jd/+T+ubLbPvP19YEpLNNgrj++2m/c9+fDYdljvmsaTBmtDaQLrG2fKlZvMFW0NpSx+5SxBoEprs82wd+8PuuNcuvGTBasut7aGSzFLOsKdRP8/597/vTCdrv7u893FC6ZfQwGgaVC63Ovqn6muq1p+9jfS4k1CkwNrYowO3uiEczt6wJTxxoNFhvt29FBY9h1OH231R0j9tpsaO4mwPpe5oZ013GzA1NA+/F2sX58bz4Y69Hdeflda1g7g8VG+/l+MXpGdbU7tjqWFzBf67PNQ8HRs71Bs8xXt/2mO6fqQ02M9VYwMN+zrE+YobGGgsaaXd7AfKNd3D8ZbCYNbXcuKlhewULcz1Jjqdy3goGFegixDuULywxYTDS1p8LgYCHRHt6ZB4Nyx1bHCgbmA+3K8nTye5g7ByWsoGBD1me/jw9lngq72p1rjPVWdLBylj14N+kOkWlQsCmjhcozONgU0UJmGQVsSmihcwQMsOmixcgwKljOaLHyiw62vP0iOyw3pmzBcpxlMbNLApYTWuzckoHlgJYiM8AAmwZaqrySg1lES5mVBJgltNQ5yYD9+vxF/p9yuXMErNLqpZCRFJgymko+cmCKaErZAAZYXmhquciCKaApZiINlhJNNQ95sBTrM4X1llmwFLNMOQsTYDHR1HMwAxYDzUIGgAFmE83K+M2BhUCzNHaTYD7RrI3bLJiP9Znyeis7MB+zzOKYTYPtgmZ1vObBxqBZHitggGmjWR9nNmB90HIYY1Zgn65ea8Ry+wAzsj6zuN6aDFjdpTGnsWUJVkXLbVzZguXaWzDa0Hucefc4r7anAKMAA4wCjAIMMAowCjDAKMAowACjAKMAA4xSqb9h9XMpCS1+8QAAAABJRU5ErkJggg=='
p25
sS'version'
p26
VV6.0\u02e3
p27
sS'uni'
p28
g13
sS'desc'
p29
g13
sS'browser'
p30
V\U0001f1e6\U0001f1ec
p31
sS'annotations'
p32
(lp33
Vantigua
p34
aVbarbuda
p35
aVflag
p36
aVother
p37
asS'wind'
p38
g13
sS'andr'
p39
S'data:image/png;base64,iVBORw0KGgoAAAANSUhEUgAAAEgAAABICAMAAABiM0N1AAAABGdBTUEAALGPC/xhBQAAAAFzUkdCAK7OHOkAAAMAUExURUxpcfqlr/WPmulndfmiq+qstN9KWuSzuOdfbvCnr/mep/eWoeNTY99RYfeXoby2t/mfqe96h+xxf+VZaeuqsfmeqPGAjPSKlvibpfaSnfmhqvqkrbe2tvmkrfWfqPmfqK6trVdXV+xufIaGhrKxsfOIk/aTnmdnZ3t7e7m2tp+fn7Kysm1tbV1cXLa0tPKEkPXZ3O52g/GAjfSMl2JiYuppd/eZo66urnV1dUhISIiHh/mlrrCwsPB9ire2tqenp/mjrZGRkbi2t09PT5KSkoWFheyPmoKCgrS0tJiYmPeXofOHkqqqqoqKiqOjo6empn5+fmhoaOS0uZhxdc6Rl+ilrOhvfExNTQAAAM4RJgByxv///84QJf3RFgBxyM8QJc8UKAMCAQYEANMfM84PJPnOFtAQJdUmOt5FVgUGB9EbL9o3Sf/TFABzyBESEQwEARkUAsURJtEZLd1BUtk0RgBxxf/+/1VGB/LJFnFdCUA1BagjRBN8y9AWKwsLC9cuQOS9E964E/vp6wd2yMsRJ/z8/bcPIg8NAS0nB8WjEdWxErSVD7/c8e2lreFkcvng49s8ThcWF/TL0BB4u2FQCIZvDO3EFUw/BicgAzlXmtnq9qQNHhcCBCsEB3IJFOV7hygoJ2ZVCiAaAqaKDoNtC5F4DHlkCiGFzjGO0UoHDp/K6q0gQCx/olYHEEyNjwZvwQcXIk5NiSFirDQ0NNYqPZUMGxV6uH0KGD4FC4UKGLW2RjcuBZuADev0+4K640+e2Gms3dvELOrKIo/B5prH6ThYmwFMgyIiIs7ANns3Zcri8yQDBgFsvAIjPJopTgJjrC1cohh0qh18sV+Vgu+wt+qUncG7P/309XCcd3igcnuhcj08PPK7wsimEUg8BmQIEz6Imh5krwQ6ZB4lQPzx8t5YZn2ArY4uVRFmm9BWadvd6gNMhIUzXxJotQMyVgMyVW8oSGlZi7oaNWqafP75+UhCETg9HmdsMKsOIGERGY2PO6upPs+sEsUrPFotMb+eERZDbkcAAABYdFJOUwAUovAxBf4C9Q5agfv+eh1G1uP4ClHNs2mUPSMrHWRLaPno1U+5j/LhIqFH7/g+v/3dx6r17HVg6P7PGlfXMokowBP8xtj63zq4hsl6yZCA3PVc6cBE8P2akUWpAAAGH0lEQVRYw+2Yd1gTdxjHhYQQQtiyR5QhMlWminuvtnb8cWcvZpEJSAhISGgCqOyqQFnFwUbr3nvvat1bq917t3bP313W3eUgT41/tM/j95/k7t7nk/d9f9/38rsbNOip/utymhCZ6PIEOC7zZqa86BhsN2fKxOfroV/dAgfbyYmJTVgEQWtFXpPsa0/c7Kl6CBLu5zNZdmCcQyYO3ymAICh3tyQ/0OlxKVMSJ0ZMrYdQrf6FJ/ULHSB4sEdIYmR6+pD09HGRcYmzJoSExHgAxYRMiBvy7OTRYwwYCFpTwdPROP1BYiKfi31meHxKwlCghJTo+PjRw+dPjxg7dmzE/NHRQ++f1UMm7cuDEcYcZyqMx7jYiOgxHfV6uQBtAiQQyOVyvX6RUXo5hNfmZTBSMsKBAjNkcvTOemIwJKiE+pFgLQ+GVeFBVhZLn5ZwlkARKEFawpZKLDVrkHC3BIZhtzRSbSGx8R2kaIH2IAjXaMHXKqU1aPUqAEIK/AkD5xw3bYzeKrSqqQsS9DQJAa3KGrSmAgWJRtHxnHHTd5LSyUXL6u2thHoedEGttQetQW/kgR7BsE8AjhM5s4Mc1toCqlGXaYR9RY1QYxlaXyuxvndQDIzUOVoGd1ZEh3UrOw9phcq/S1s04m5ld/NDCNI2EUDC/RIMhBtcj9n3KVa3sremT9knrj4kLtOUFakhbTVoFrnXQLjBnZcip/KJsruotq+U2ywWl4mLGh/+Uaol9ZpnqM0yuC/9lUuG5KK9rqrmlhZxMYlra7JrUUMJhaRew4g0yTS4c//cv4+IElRpejpbWtVl2VyjxFyxBhIqWzq7zL6GjdLRPI0g/yykYu8awvILWntqmmtqa7gWlTaqe6sfqE0Z5e6WGEEIw9Vobsd8hLds1WZiUsKDh5qzcRxuESizzMyBLhhbBOMGdw4DgWFe3t4LpGVTV4u5BNWoBWQ7ojIPbhobPQRJ7cOVJ+zSamrF2ZjMxVUaA+Tbvv4WtoidZgCxmIZjXoWpPPmin37+7fcDBw7cunXu3PHjJ04UicVibnN1d1Pnj1XbLn7zxeWvLknMHPPgclJ1RlLe2tXg1y6+f+bTq9f2vIZqz55rmza9u2XL9R/u3L17796d61s2XX1rcU7Ole95FpBpcOneCsRE2vvBmcsgcOECixYaZTrAPrcvw5XG9wnDQMFeIiMINOqTHTk5C2xq65cSHMg0uBlJUhMI5sGXrtjm5OzYSACJvLBNgIt/SSbudPHpxTZBhMqAuZm+2F+QYxYexCt+3RZp65s8AgiRDUMH13lYPgL/G1LOe8USIkialIE5kkEAwbyNNkjb84gZwapUbHDD2MTTtkjkyoAMg+vL5JNJxacX5CzFhJphMRAOtINUGTq4UejgBpmsjbtS/PHJUxs2bDh18siRY8eOHl2/ft26Vwxat/67PKuMFN5BmLVV5AuwJL/hZaMKy8sPH25razv/KqrzbZ9/hliFw+wAZ4K18UtqJpHUsIsiuiAZDK4Dztr4Bo6k5Dxq51vHGgbXJaqECgR/RElaWZdJEctngn9cJ6K1LRdXrKQALVdRxSKyQMzalCCEirTEjTIWZruCZXNnUJZGRSq8IaKMLfCjU1kbV90SckLUnPEcamubc9K1E0iFyykTqjNwqKxtJqnaP7SREMKXzfV0Nt61VXC/JMWM2wMmhCjY/qZdG6W1LV67+WighHbRAs3b/wxqa5tvW8sfmRJSIOTKZeMDLNtRcNceAARnltwoN5iaaBME0WXRHOm4/TGw9kAgMJJvFwJO+U0dAaMqYEaxiLtj0l0bCwNn+EDoNyQzCyU1mCcJXNRJZan+YRmkbT/R2gjCV0izZGwfJhCbkV8gFalkDYW32+FMjK8DVxk0v2Ge1s8hAWw8RVrn4z3C0TWA5cvxZYW5ByaP8PJOnTGyYYUMiOHmQ/P2S3bnhFI985mtjSCKLKZfIIvuYAlzHuwQTA/ivBCW5grkHsDypIf291AcRNMZzZUfnswKdnrs51TDhgSsZrijp11vBUKTdoE+inyiOHa+XHByZ0oVWeGuoXa/WXBw9xsV5ev0JN6ZhE5yePrm6P+jfwCiBKkzGfVMKwAAAABJRU5ErkJggg=='
p40
sb.