ccopy_reg
_reconstructor
p0
(cemoji
Emoji
p1
c__builtin__
object
p2
Ntp3
Rp4
(dp5
S'emojipedia_url'
p6
Vhttp://emojipedia.org/flag-for-Armenia/
p7
sS'index'
p8
V907
p9
sS'code'
p10
VU+1F1E6 U+1F1F2
p11
sS'apple'
p12
S''
p13
sS'twit'
p14
g13
sS'gmail'
p15
g13
sS'related_to'
p16
(lp17
sS'name'
p18
Vflag for Armenia
p19
sS'known_as'
p20
(lp21
V\U0001f1e6\U0001f1f2 Armenian Flag Emoji
p22
asS'default'
p23
Vemoji
p24
sS'bw'
p25
S'data:image/png;base64,iVBORw0KGgoAAAANSUhEUgAAAGwAAABsCAYAAACPZlfNAAAA2ElEQVR42u3dQQ3AMAwEQWMolRLuMzBMozRCIJWCIqfOSUvAA8C1LGrlBMAMmAEDZsAMGDADZsCAGTADBsyAGTBgdgxYdy/ltMHeuhQQMGACJmDABEzAgAmYgAETMAEDJmACBkzABAyYgAkYMCWA1f0oIGDABEzAgAmYgAETMAEDJmACBkzABAyYgAkYMAETsJ+CzVEKCBgwARMwYAImYMAETMCACZiAARMwAQMmYAIGTMAEDJgSwBT0x9nvca/tDZgBA2bADBgwA2bAgBkwAwbMgBkwYHbKPqWekhp9ZxaDAAAAAElFTkSuQmCC'
p26
sS'version'
p27
VV6.0\u02e3
p28
sS'uni'
p29
V\U0001f1e6\U0001f1f2
p30
sS'desc'
p31
V\U0001f1e6\U0001f1f2 The flag for Armenia, which may show as the letters AM on some platforms. 
p32
sS'browser'
p33
V\U0001f1e6\U0001f1f2
p34
sS'annotations'
p35
(lp36
Varmenia
p37
aVflag
p38
aVother
p39
asS'wind'
p40
g13
sS'andr'
p41
S'data:image/png;base64,iVBORw0KGgoAAAANSUhEUgAAAEgAAABICAMAAABiM0N1AAAABGdBTUEAALGPC/xhBQAAAAFzUkdCAK7OHOkAAAMAUExURUxpcdmXAMx8GsWKBdyYAOGcAPM7S9xgNeogMecbLMmMAvM4SOgdLsmNAvE9SsiMAt6aAMaKBMiMAuUWJ8uNAseLAu0nN+CbAO4pOvIzQ+8rO/I7StaVANyZAPM6SvQ5ScqMBs6PAcmMAsuOAeYZKtGRAfAuPsmMAtCQAdKSAcaLBc+QAfM5SfM7Sh9TwPI9S8eMAxxPvfE1RvM4R/M7SsWKBe0oOcuOAuwkNcyPAdKSAc+QAPAvPz9z3i1gzdeVAClcysyOAfE3SCVZxj9x3PM7SvI+TDxv2/EwQfM4R/I3R+sjM+4qO9GRAfM4R/M5SMeKBPM6SMuNAuskNcqMAvEzQ/I1RceMA/IzQ8eMBO4qOu48Sk143/M6STlr18eLAzJl0hlMufM2RTZo1T5x3ztt2jBj0ER13NOTAUJ03j1w3z5y3u8sPT5w28qNAvExQs2PAdiWANiWAD5w3EFy3Dps2PEyQtSUAPAvPz5w20Fy3EtxwzZp1ZyAPjdawZNMi3l6dldxpbWMK9WUAfM5SeoiM4hWm/ExQcyOAdkAEgAzoPKoAAAyoQAzodoAEfWpAPSpANsCFNsAENwFF+ihAPGnAOylAfCmAOOeAAI0ntkAEfGoAAMyngAyn+6mAd8LHbWLKAcxmxM8k9cAE94HGQA0ob4GIwg3m+ShCdKYFeafAA05lzJLgOMSI+EOIAc7qCJDiYsSRc6XF3wVTxQtkkUic5V7PdgAEoJySkRUc2JjX7oGJtECFw5BruujAcwDGmcaXMuVGitHgykphTEnf10dY9QBFd2eDaaDMS0og5IQQKgLMjVNfIUTSEohbydFhiArixNGtAI2pMkDHA0vlz4kd20ZWH1vTdabEklWb1IgaiQqiCUqh8MFIHUXU1Baa8UFHx9Ci2tmWK6HLMEFIbAJLRg+kMGQIKMMNDYmfLqNJIl1ReCfDG9pVjlPel4dYp6AN7GIKlZdZ8aSHbiMJg86lnJqVI13PzFPjYQaUtERKaOCNHAYVyxGqYUoYtYQJsc3jdUAAACJdFJOUwDvBAz2/R0C8vlcUvZqDk75G0T+fi/h+9WeziDj9Cs+CKFVg/3KwEu6zRKrRzL2FjT8iVonFtx6547UtMcN2Ojjk3HuPiMIY7RkZu3TwV9MIUN46WWQgjyVHtkGAzqRJrn+eKMudccI2BQiL8dQdaiY6+lIHIKk27xWJWSwod+xF9XF2l3pdrqJIK2JygAABQtJREFUWMPt2FVUG1kYB/CEFAgQSnAN7l7c2gItLXXdunerdN216+fMDEkTiBMIFA/uHtyhWN3d1qXrNpMMIUBoDzd92D2n/4c8wMfvfFfI3DsEwrP817PdR89u7lNw5u4LIW94M0htxy+AnAWxnLcsUdOJs6QkQxCUvE29lrave9uZBWGhBKrBaNsGmBXLGEhYtEUDVPGzC7BwTobwZFlpPW5BtGzt1gQuW75sdaCe97qdPrZBcdZaWlrWQT7ey59z3WCcBSnCIq+ZAVkSp7fppWNmKygUHTQUCpm8IswsxGKllZWVRUgYWadIzIKUY7xJW+Wi6lmuJBsXZyVPVLNYrOTxsFiQcBIDCcWuftMZ61hXclEWJJxS/NiwwuymzczqKB0xazaILM6xUxxbS7IYmn0Yvx+fP2lVvaOMWQAOlPnbhwlKjobetmIQBmLcH/ZdqtSPXogYyElqeACP7D+kgHZagDmMnFOpcMmCd8cdrfgiUEcEw9m+74xD+ygg88xg3KlCHTh1ZNcOHHItFs6eSWrs64VlKTn4Og5FiYWzZrrudFbS5VD2otdwKF5FR4yJTFeg5v6W4VTcgeG9b+CQZZFwcmFSTVfz2JWchoac29fHmhu7MjNROAkLo6arMed+RVXlBAOnNu05IocCjJV2RlLXlf6ysxfPdLRfvnTpcnvvgzOnLn7bcrVisKysr2yw4mxnVXuliD7BoBmNXiyHYnUUTM3tvs6OygyYnq0UOvp3IpEoIyNDJEJ/M1nBMu+AHPqMjI8ps+Fqx2k4e1rhE5La9L78H9f7c9k+Ylyv6BXNFpFvgAXPyyAfMxRi1PRXZQAx2OZ+T/60s0iGGI2DwzCgAyf++oG97Jv6WBaj+c/ToAycWPBLxG7Zl2y8eKwlA9iBBfV5NEfZI8jyH3UcuC6fyQ/HnrjaAX+DjwumD9xjIlIXQ6ylL/5So5+BhwiC8IhGGLR0HvA8C+ruIVg0nTDoBd9sQOdRfb7MQdjunii0eFE2WDuF1XlMOcSz8UehhOhRVXV4VM4f+vPcwtryFNxBEHN9FDq6oGRqFV2QW3ASy6OC3FyBQKHiERQM/VCdz1Ew6Ni8SATCkYMlyorgZNuFm7XVPd+no7nV8131l+e+rr9W901hW2npjdLStoEL9bU95VJEiUGQtE9NCYT5e5pSFeO+W3fuVn5eGsI8cYLJRD/QT4STxmXndZ/PL29tbS0/353HTWFOUtCk0NCxHdqPQ4mCoZvpX02vwsKcCKIq/BgCYceuEQyiwzd+/jFthronhmqCzvaBvVg7udd+SgNU0Mn28Me3duLd2m5gBmEfdtOWb+3EoT+44I4kQuagW3u0MD0FmOHwXYzkh9uE6MKHwAzCM4/0x5+1Rz9OB3ekxJit4webjz6RArfDP6xPUhzZSJGAEIdNdPBXutdoOEiAumHT3B1Jk07H4XyVlSmcmZeSx+W/EqkbPOW4Hqo5tUzK5pvPoaGhakrY0jQeL0WJ53HZmkSPcCPPadeQjVTlPrgSqs0qByd9XQM3A8eNoTFeqyJsiDSquSYfjaY5lWjj4mXitlXVnc+AxlH0IqF5vKxrGmw/MYOk4LWmmw109V80cXIyWa+va2RqaD/DNW0zkTe+mgu9dNdqAN9TTW1kEEfyqoMRSZ17s6ELtpG4VHcDknr3eI31c7g89kITQ7XfLHiGerzl7mj/FN51aBju9nz25uj/k38BbM2kZSIdz14AAAAASUVORK5CYII='
p42
sb.