ccopy_reg
_reconstructor
p0
(cemoji
Emoji
p1
c__builtin__
object
p2
Ntp3
Rp4
(dp5
S'emojipedia_url'
p6
Vhttp://emojipedia.org/flag-for-Aruba/
p7
sS'index'
p8
V908
p9
sS'code'
p10
VU+1F1E6 U+1F1FC
p11
sS'apple'
p12
S''
p13
sS'twit'
p14
g13
sS'gmail'
p15
g13
sS'related_to'
p16
(lp17
sS'name'
p18
Vflag for Aruba
p19
sS'known_as'
p20
(lp21
V\U0001f1e6\U0001f1fc Aruban Flag Emoji
p22
asS'default'
p23
Vemoji
p24
sS'bw'
p25
S'data:image/png;base64,iVBORw0KGgoAAAANSUhEUgAAAGwAAABsCAYAAACPZlfNAAABlUlEQVR42u3dMUsCcRzHYV9CNPQaegFRW5BTvQCnlt5Acy/AqaWtpobmXsUNLa0NiUSCCBkEbkFX4MUJJ4YWBl79f/B84TPm8H84vZPARmGh1nAEwAyYAQNmwAwYMANmwIAZMAMGzIAZMGCWDFiWZYXiNAHbO31UgIABEzCtFuzkeugwI4GVc5jAVAfY/lmv6GweQIsCVu5ubQtYNLCH3cOi6UDTBxsctydgrrIAYNXVBSwo2HP7wqGmCDa7WbDqKnOlJQBWbZy/zyEtqrvTmv7N0eXAYf8F2G+Rvm19e/paVzcjB1/nFTb+4e1vmT5eRt4m/+szrDt8Wwov7z9BSu0usbngLrHstvfqYD2HaSVgrfM+sKjfJQLzbb2AAfvygO1A/YuAgAETMAEDJmACBkzABAyYgAkYMAETMGACJmDABEw1geX3GwoQMGACpnkwH+juEgVMwDyHyV2igAGT5zC5SwQmYAIGTMAEDJiACRgwpQemQL/j7LfH/bS9ATNgwAyYAQNmwAwYMANmwIAZMAMGzFLZJ6wcLQjRwjYwAAAAAElFTkSuQmCC'
p26
sS'version'
p27
VV6.0\u02e3
p28
sS'uni'
p29
V\U0001f1e6\U0001f1fc
p30
sS'desc'
p31
V\U0001f1e6\U0001f1fc The flag for Aruba, which may show as the letters AW on some platforms. 
p32
sS'browser'
p33
V\U0001f1e6\U0001f1fc
p34
sS'annotations'
p35
(lp36
Varuba
p37
aVflag
p38
aVother
p39
asS'wind'
p40
g13
sS'andr'
p41
S'data:image/png;base64,iVBORw0KGgoAAAANSUhEUgAAAEgAAABICAMAAABiM0N1AAAABGdBTUEAALGPC/xhBQAAAAFzUkdCAK7OHOkAAAMAUExURUxpcUGK3kGK3kGK3UGK3UKK3UKK3UGJ3UeK2EqL1UKK3EKK3UOK20SK2kGJ3UGK3UOK2kOJ20WK2EGK3kKK3UGK3kGK3kKK3UGK3kKK3UGK3UGK3UGJ3kKJ3UKK3EGK3UOK3EKK3EKK3UGK3kSK2UGK3UGK3UGK3UGK3UKK3EGK3UKK3UGK3UGK3UGK3UKK3UKK3UKK3UGK3kKK3UGK3kKK3EGJ3kKK3UGJ3UGK3UGJ3UKK3UGK3UKK3UGK3UKK3EGK3UKK3UKK3UKK3UOJ20KK3USK20GK3UGK3UKK3UKK3EKK3UKK3ambJ8eiBdG2FMGaK0+MxnCMf2KPo06MxkuLy7icBpaZSbieCZCcX8erDY+VT36ejLelIL6hBoGVa0SK2cq4K7qwO2uRl7aZBpubQ2KVssSnCa2lNkKL3EGJ3UCJ3j+I3/zXEvvXE0CJ3fnWFkCI30WL2ffVGP3YEu/SIT2I4frXFUKJ3OnPJ0OK2/LTHkOK2uTOLdPGP4qojuLML9DFQkOL3mqasbS5Yl2Vv97LM6SycqCxdk2O0FGQzNzKNW2brl+WvEaL2HmgoWGWu/bVGmOYuGeZtPXUG+DMMUiM1liTxEyO0cC+VEmN1EON38vDSNIOM8jCS1WRx1qUwoGkmY2pi1SRyNnJOUqN00eO4LC3ZViY4p2wepWsglKQypOshOzRJGKXuqi0bqq1a4amks3ERd/LMr29V9fIO+bPKsXATnKn5UCL39o4V2WYtpGrh3Sepn6im3uhnnGdqnWfpLK4Y7q7W1ya4kyR4Zq04qGVwlCT4dcoSPPUHJiuf7a6X8K/Uay2aVSV4ZGazYSn3qfB6bCqz9pQbL6StNtCYGqd39UYOtYdPtQSNamxYoSllezMFYKf17nJ6Y236dyds8q81nCf39WTrN14j6ufx86Ur9lZdaalz9kwT4um2quPuLmewaqZwsuGpLCPt4qXzZ2j0bqDqNxhe9cxUbiIrdhrhsOFpsxpiWSe41mQt2aUp8a6O+/RHKmzZy3lbgUAAABqdFJOUwD1/PfyUDD+AwEdShUF+eoMDhriWvD7RsBlktXtIyfPKyF5zAiqhbTGV9eBu6PJYHZobJ3gNec9OdvdfqCO2T7Se5hDEokSt69VP1xxQQf0AY8ULmPhJJ5Q7NVT5LiAZXr4/e4OpdS1xCiGC9HAAAAGIUlEQVRYw+2YZ1QTWRTHN6RhAgEp0peiNKkComvBrmsv23svzCSTgRjSSUISAiQEQkek914DCEixi73rqtt7733P2ZlJQED8kIkfds/x/yXnTeb8znu3vHvvPPTQA/3XZUshb5l7Hzhz/R4h2YV5Wcyx2UAAAIDqvsBCjlc0EUAVF2+ZedaFWmEcgOBkAcbaJ8ARmNBaa7wUm1UbPKwmOcB82r3fnWPv4LOE7OTm5hYRTKZvWUrxiffypdFovvGLXdzcXe2AqXKm34OywIsc4h8e40kgMhgMIpFA8rSLjVm2cLW3t7fHslhnBjBD1IBZz+awOdqDRAXMkavN3RhalCsJMFexS+4K1YggBmC+rCLnTOf4RJMAXHp0WsJZuwRRj55g4wHFUKZyNscB7P73U/CAGIumcMgxAMC+8GEDri2F3UncpR7I+sD5T75KwUNa+PCk2wPRdcnxgSsNJXV1deYekBA8AfLDroS6r298fumLTy9d7DeX5D4R3K7oin30p+vXB768+vGxc+aeLXwiccMx0LU/3iktHbjykfl2cnYxgVATsRt+PVlaevVbPI6jhpiCOxo92PFfSkuv/44vAELXG0EBVCDlh8sDP5+88X0dLlDsUiNoG4N97bPvfjz228njJbjSbd4249m2kk5cPHak5MQ3l88fwJm49hiIbtfwJ+Ir8MIH74L4QMuMibs4BgtB9rn3+tn4QMTHjdXOw7TuP4IPlPDXUzuw8htkepCC6x4BwKKbzz6JXbKBgEUSVnF3PoeVoBWWgQ7mwzd326L32kpLMKAiGUrODnJAtxRpCUghh3pH+K9tR0ERVri3IxxL5nGHhJmvvrgLAZEJeDlFVfmQKK0gXXn7hT0IaIsnLgozMfcQF+KmFSWeEgmeRxOXEjPbe3c0KwUsyFWnwlBvSy2/U8DpqI1CEtfXY8ZbCUxQqKtNz0CUXlugE/NBkIkoAcMmMJF/izIrlTKYxZFniYWVEqisIsHffkpoGyni9LasIbWyuGw/or7iw4c60pqkwwe1g9mqisIKVZsiS6ouThXxWLBMrQJ1nRKoRgsCcUji2m+6g+E3j6X15XP1PGivSSwWBHPyuK0CiUyjqdFoZALuOAyxoHFNu0KXlNEogGQjfKQqIRXXNmzSm6qW/a0wi8XTcwXdhmRUNd0SAVekh3kQxDIJgvMEhtPSTF2SWNszDuVXirFWGWn2jKENAoWnDHoWJNKcUUvHFJmF5dXV1eUVmTmK0RFpU1r7ocPFfWVlZWcO1zd2agsLmEmJOWkyHs+QJUTdMW85WiLRLg0sGO7Ss/I09ZWZ+/hJSUmIScVCMR9xUBK24gsTC/YVFSHGF4LIg8TqsY5UDmu8J9fUlqKXmxsS2mC1WgCNy1uQDTN1zYNZyB46zp49265ubKq6laXNUZVjHkS0L71ZNSrtkLfCEEfT1GyMjjg6em+TiQCY2aOHa1oKQWaRokopl3DHOTzMKBCPkyfiCiSphi7Ug/X1p3v65N2CcR4L0mvaB8VGjgcdq9urPIHc/TyuMgcAKqrOSPSsvYi5RYifJDKJoJUryoNRKOZBVOgvLMovHsrWMU1Ve52xjlAcc+WQrKoWrDhlyEMcK+lSNkqzRhW5OTmDCu3YcOdQYzsSV3JDan6+TNatSS473ViZU8s2YeYFTnRtXm+W8Qxj/NrOZNTaSmluho6PxbJJIMAXI6bJKFRlt7W1ZavK03V89KlRJPfJ9n/P27eTtaCqnssSdbVkF4DMWcsSlh+opqffwkV32tHX3/pHC4x2wRy5tJyfYFZxcw5bPKX33/HG3+LKVKhXXQGYVyIJocHTuuNdu3W3emH5iC7BLIxdYMTMAeLlYQmnp21G28MgkkgkAmP22YTqOX+ly8a7xpCXXtEry6eciujouiIgyolMJwe7rXH3d13t6ElgWFFRJtWK4ewY7r+GTrOdZSx6emd9M3Py4N5rt1JsFkwZ4Gx8KUvoTosil4cELPeLcnKhONxrKN7+TPWEeWL9nXytcc+pjz1hOpfdChd7S+ZmWrhxrggl21v4fSISLW2xIQ4Wf1nY6Dc/bhPZ9j5867Cmxa9/8OXo/6N/AVKLacSWutuNAAAAAElFTkSuQmCC'
p42
sb.