ccopy_reg
_reconstructor
p0
(cemoji
Emoji
p1
c__builtin__
object
p2
Ntp3
Rp4
(dp5
S'emojipedia_url'
p6
Vhttp://emojipedia.org/flag-for-Bosnia-&-Herzegovina/
p7
sS'index'
p8
V924
p9
sS'code'
p10
VU+1F1E7 U+1F1E6
p11
sS'apple'
p12
S''
p13
sS'twit'
p14
g13
sS'gmail'
p15
g13
sS'related_to'
p16
(lp17
sS'name'
p18
Vflag for Bosnia & Herzegovina
p19
sS'known_as'
p20
(lp21
sS'default'
p22
Vemoji
p23
sS'bw'
p24
S'data:image/png;base64,iVBORw0KGgoAAAANSUhEUgAAAGwAAABsCAYAAACPZlfNAAADQ0lEQVR42u3dP2gUQRTH8fNPJ3a22kQDimgTrBQJisYgGLQSMaCNgm3EQkE7bfxX5AKBKKchKAGTEBULwWsU/4AoEolERLAUAiI2FkZXuLC37N7u7c3uvDfz/cGDvSVp7sPs7ZuZ26ssEVWp8BYARgAjgAFGACOAAUYAI4ABRgAjgAFGACOAAUbEgNXr9SVKT/0Hq3QNd1zh1B7Mt/zbP28qzpWJ9zCtjIHFDt2U/wFMAFj0OFx9J2adRlMH1up10jmX0FSBxdX6nbXl4y/ffiSCXTzXD5gEsKRLpqujTD1YWgaHnjqF5sQIS2z+HBxpzlwSo9lzfAYwTWCu9mfOgq3YOOwkmlNg63rGEu8WD5ycdQLNCbAL117larIBs9yH5e3RAFMGpgnNabDURTqFaE6D9QxMttVUAybkkthOjwaYMjDpaM6DrdxUTQW793BBDZrzYFGkrIuegFkEi557O/ddbVPtTR+WVNsP3lfVn3kP1khX77gKNC/BLt183bKhXt09InY/iLcj7M7UfCzW2m2jokeZ15fE81dfNmEFLYD0/sxrsGjiNqFKuzQC9i9HzjxRMwviPVjjeMv+iViw6A2IbTTvb+vDtfvoVNPr67feiWuqAVO26AlYqPYOzjRVI9HzgAm+c5S2Sg2Ysq3fgBlY9CyzPwNM2So1YDnBBk4/toIGWIY1sjg0W/0ZYBlXqbOCFY0GWAeocwuLgGloqm/cfh/bVK/qrhaOBpihpjo8A1IkGmAFP40HMGFoP3/9BkxyBetjNptqwHKOrg27aolgh04V11QDVtLzrkzNNwJmoIYuPy9tFgQww/Xx82KhsyCAlbDoGQUETDiayZEGmKWmGjBPFj0BKxCs99i0cTTACtrHmHWUtdufAVZiU10d/9DxKAPMUJ298qKU510BpmzrN2AF1t3pT6kNdfgbn1k+zwCz2FA/eva17VEGmKUvwcd97ywLGmDKmmrAhICt2TqaqT8DrITacXhyGSmY/ejkeVeACd9JDJiQ2rxvItfWb8AEVPAY9yDBg17S5hsBU7ZKDZiyVWrAlG39LhWMUvQ7zvz2OD9tTwAjgAFGACOAAUYAI4ABRgAjgAFGACOAAUak5C/qdEclRXPKOwAAAABJRU5ErkJggg=='
p25
sS'version'
p26
VV6.0\u02e3
p27
sS'uni'
p28
g13
sS'desc'
p29
g13
sS'browser'
p30
V\U0001f1e7\U0001f1e6
p31
sS'annotations'
p32
(lp33
Vbosnia
p34
aVflag
p35
aVherzegovina
p36
aVother
p37
asS'wind'
p38
g13
sS'andr'
p39
S'data:image/png;base64,iVBORw0KGgoAAAANSUhEUgAAAEgAAABICAMAAABiM0N1AAAABGdBTUEAALGPC/xhBQAAAAFzUkdCAK7OHOkAAAMAUExURUxpcZOp8Z6w7JGn8JSq8E5ryIef65mt7pet8ZKo8Y6l71dzzZes8ZWq8W2H24+m72F800RhwfPEB4Ka6F550X2W5Yad6khmxDpYu5it7kxpxlFtyYui7ffGAo+m8EBev5Kp8HCK3WmE2X+Y542k7vrIAfTEBYui7Y6k7omh7IOb6I2k72eC15Sq8Yef6/fGA/nIAfTDBfjHAnOM32R/1TZVuHuU5HaP4HuT44ad6m+J3EJfwHyU5HmS43eP4XSM3fHDD/bGB4+m71ZyzJGn8PHCDPTEBGyG2vPDBvLDB5Op8PjHAvPDBvjHAfLDCHeQ4a+2xj9dvoWd6Yyj7crLyqyzy4ad6fTEBPjGAfjHAe7DGPXFBfXEA6Gac9G4UcOxZXSL1p2u6JGn8FhzzffHCPfGAoye1cjKzr7C1GR6w7i+0JahxYui7PHDCm2Ez7WthMPGz0lenqi02Gt/vXuS3lRuwv7LAAAjlQAilP/MAAAilQAglAMllwUnmP3LAAEklgAilgEjlQstmwAhlgkrmhIynQ8xn0BasCA+ozBOtP/LAPvJAQ4vnCE5gRU1nhQ1ohw9p////wIklEdhsxg3oPr7/SVErTRStwkpkNGtGitIp5Sj08LL5mF3vvTFBQcpmTRFdik+fD5LcShFpho5oFhvulNquLfB4RY4pChIryJCq/jHAwQlkjlXuhkzhg4sjMenILmdKBQwiiNBpDZSrGp+wRs7ojRPqy9LqeDk8qKv2c7V64KTy+zv9/Hz+UtVaGFjW8OkIvHDB76gJUFObqmTMrGYLFtyu2Z7wP39/sjQ6L7H4+jr9oaXzSdHr9y0E+W7Du3ACVleYWppV4F5SeC3Es2rHYl9RC5CeZmIOum+DDlUrXNuUYiYzqm13G+Cwtrf8Ky33XSHxOXo9Uxlto6BQh9AqteyFuK5EEdSa5WGPTpJc3lyTVNaZKOPNZ+MOKyVL3yOyZmn1YubzwAglfX3+3aKyCpKsWhveKibXipFma653rC73w8vlp2q1ktmv144HMAAAAB2dFJOUwAjCD0P9HkCBDBR7gwU10Xi+h+V6aOD+P4c9vNq0U39KcfWoFb5ZmVcdJBZ3Bh+2/g08sHh/rK7t4jN+6u+tcsW40nyNClb0khQHvU/7SzINvyMYR3InV/m5wO+kOlHtPFgNukLyY+pSvB9426q8X9t/sL41PuGTkfeAAAGcklEQVRYw+2YZVQbWRiGiyS4LS5LaaFIkVKBbm1rW1dq69Z119M7SkiakISEQEgCFHdrKcWdlkILFCrU3ai7r8skhGSGCD2lP3bP6fcLBs4z937zvu/9ZkaMeFH/9TI1Mzcyfg4cY3qQu4OjwbA5Vqvc4xjskfaGw+QYeLsJIQBFj/YaXntsZkSwEQAA5hY4HIzXlEnFmJwDIL696TNS3pq1cop1RDQEFAXFTV2s558/nrV86aL5vr6+r89ftHDp+PHL572kqHnjF/q+8/a7pXEMJQcAfO4cHRBDA/Pvvvlk9rIloWPGjAkNXTJhwrI3Zo8b97K8xr05IVQQuSsZAaqCwpxMtGGCfdb97P7DLsEGckWqSv4bvCl2IwkUP9FKE7Pm+x/n/vOEhcbuFsRs0FXwzu0kEGA7GGlI9cO1P13k5RZe4kqzyzforsjDCSQQMyJg0N68vD+oZgvr7jf3Xah5lNUK615SeRkJBJWEUwxnYrPCpaYGEjY1i1vyEYDkbNJJgvcfJzdJOMmMzPGxLmbIFyrdK2uWoEJRwvb9ukhwxsEo0pIYzh4kjnnQlf7LaEFj4V48Nx1POHhN55oubyHvrdhRbVwj6ytKbSAFnXkSYe2fdZy/Dp3UQYJbt5KWRBhXlSWu4XzV9RQRyrmU2pzWUJd8a6d2EnzgJlkAGM1nAER3w9WXAcJp6hHL9rKRsmObtZJiNh8iN4lk3BklKOkPABE2yVokKAPbele7MOG7yeS9FY1yVYJWxENkEEA7zu9pwoW1WOzuSK2go7HkJeEWA8YNT6SCkPzqlOo8UVMNerxNK6j3OrlJSOmAcdfxqSBmJQfl1NSmdfJE2oUpuMUkNyl+stK4U1yoIPldOPcbH/fsyce0ChO+VxalzbgBdkCjmLkNMvFZKbJlxwFNEnw1m7w35siAfpA/jaFJQqv6us5gAEs+3atBism4vZFqXEsFaM5HuDZQWurZSpDCKTucoUGKPEaOEpVx19uyEA0QVFfAklSB9EuPKk5oCBMur6Aa16//tBsdDWkuKROHMB7vYYOUFXtvsJzgI1mUvf3irTBu8KgiLSD5nSSFPS1pqTyNxIzZvIPikugFCuMavxqPagUBdnq9uOVcJpK1bXCXbpCjBODuCuMaeifqACGZf4vPp6CA2X4V1hMlAEoaKzeu6Sq+9q0Rt0rt7u5kskUJt4/A1CjJoTRJaVx6qS4QOz2lrpojShdu2UHJOSJKmJQnY2EjB62208EBmBAgIk7eWS6afJqSc/CdZIpkXELkxjXXJm1llwjbVafW/5HOrThGFiZx4EZRjSs/lYwsMKC7MG5aV1fPRbziBkmYcC/lwAUs2/UEyMyWrQcEIG69uFAKRW29Q0pMAeXABcxpX/dLG9EDQisb+9IqURwnJya8mxIlUOJ0wrhWuqStBOWmSs50MHlVUdltpAOXEiVQdBBhXMtX4/WBEE4l4JzCU85w0KzWGFWUHKQ0ieFGnLiGjrqkrX520lMdjfl5nJyjAw2PvExpEhQ2ljiyx/L1gwiU9GG9rG9POtY+kOJwGyVKmHYheqWtJuWlysSFPCThupIEX6NEScnU1wiQnx1zKBBAuT2yB5kAS2hXRgE5SpiJ1nMU0nbDngJUeP9CLZrLQ5R9gk+oooRRbO2pONuMLPAhQUjuKayKi0jOYWiOYk3wNmWUQFjSTJv+M3IIaStvSzw8Ka8zjcsT3WyVg062K5oEsaaFD0xtQ0hbXSkN9bLz3ZKorDZC44LT8s4y4+faq8b/4FFx0FOBMG63uOsBB0GOlwtiYGJ2h9hJ1h7qcdRYv7Qpk8rjricMgDOydwmIKMETLRzXk+ZjQ8d9TwsqaGy4wENqeY9iT2T0/kqbEUidjjWlDUEQYGAYxpD/BKk6iHALhAVcqOMihv/+2+z3VwcPGvvplIEEghison1h05xp7jQ3Oxd+SVE0K5NAIgSSjUN4nuhcd/4XMz99b5bGa4ifOrURCIvjO9tOdHTyCDT39PTxo9tPn7jA1oJmF+ESlpSUVBrh/O1Xaz/78nNXbe985jSltBGEVUxbYO9vFqyenk0srQzMjDz9PQJCnJxC6B6BNivX6HopNrLI7Oew+A7T/Q1Mn/k91UwxkCD4PgdvG8vhvDcvnlmEIlC08yuelsP8PkF3L2IlOji5Dv/LAn1q0GRzw+fwrcPE1cvqxZej/0/9C8gR+cN/nFS+AAAAAElFTkSuQmCC'
p40
sb.