ccopy_reg
_reconstructor
p0
(cemoji
Emoji
p1
c__builtin__
object
p2
Ntp3
Rp4
(dp5
S'emojipedia_url'
p6
Vhttp://emojipedia.org/flag-for-Canary-Islands/
p7
sS'index'
p8
V937
p9
sS'code'
p10
VU+1F1EE U+1F1E8
p11
sS'apple'
p12
S''
p13
sS'twit'
p14
g13
sS'gmail'
p15
g13
sS'related_to'
p16
(lp17
sS'name'
p18
Vflag for Canary Islands
p19
sS'known_as'
p20
(lp21
sS'default'
p22
Vemoji
p23
sS'bw'
p24
S'data:image/png;base64,iVBORw0KGgoAAAANSUhEUgAAAGwAAABsCAYAAACPZlfNAAADoklEQVR42u3dXUhTYRzH8bU5NXVqzUpJs0TtBQqKghWpvVGk1kWJlBcruimxMCR7gYpIlg2htKIXExGlZHUjdWEh0SIiqCSI6AWKyhuRLJoEiSD/Okf20EmSyum2+P7gj+c8e55z8Xz4e+ZxMJOQsIqJLQCMAEYAA4wARgADjABGAAOMAEYAA4wARgADjIQMmNfrFSp8SgcLpUTt8oRUyRNTyBRggAEGGGCAAQYYYIABBhhggAEGGGCAAQYYYIABBhhggAEGGGCAAQYYYIABBhhgYQtmt9tl/8FDcqXVY6h9lQdkWnIyYKEENjAwoOMsz8mV0rLd4li6TD+PjIpScP96bcACCOaqdhu6qbGxcdicyspKw5wqVzVgwQI72vZMQRQXFw9t8I90dXVJf3+/ul5eXp6at7PlEWChcA/T4j6cLrXHpojT6RSHwyHVBxOlYlfG6K4LWODBam6/lOsXk/T17aZssZonSMJEs9wxzdbHzrsmy7uPXwELNtjJ9hey79pTiS71iC3OLDWHE6XmSIaYTCa9Ws6mS1FBjMzNtOrzq24+l9qO14AFA2xmepp4L5fo9b53qHvmZVll8aocaa6zS73LLo7CTZI1K0J/7fH7T2p+XGwMYOMN5t/8ORlT9Z9JmUtGrI4LWyRlaoJaB9g4g+2tqJD8tTnSUlWorys88VAvx44z6jinrFEda7lRWyQF63KlvLwcsGB1WNupzXLn0laFoqXA9cBwrh1rcxuOrqfDgg2mlc0WpzrpdzUjLdWwBrBxBBscHFQbf7e+RDo/fB7WUb+ed3/5Ju3nitW6vr4+wMYSrKmpST039G+6xWLWx/xgI5UGps2NjZmo1vf09OhjbrcbsECDTUqIld1Xn6jNjrRa1Gt/2mH++dYIi7rO6Y5X+t9sgAUYbENetuEepFViQvxfd9iihQuGXWf7xvmAjdU9TNvgWal2Hav+3hs1/jNOb2+v+Hw+w5h/nvZkxGyeIPG2mD968wHYKMC0jY6OjjTg5dd51ZOM3D3NwzprRYVHXnb7hrrr+C0DUoTFIunTkwAbK7Dy1k6Zn50SsH//J022ScP9t4CN5a9Ei9ksa1avHDXWNqdzxDcbgPEhHMAAAwwwwAADDDDAAAMMMMAAAwwwwAADDDDAAAMMMMAAAwwwwAADDDDAAAMMMMAAAwwwwAADDDDAQhiMCqPvcRYSVgEMMAIYAQwwAhgBDDACGAEMMAIYAQwwAhgB7H/Od73NgS01paXcAAAAAElFTkSuQmCC'
p25
sS'version'
p26
VV6.0\u02e3
p27
sS'uni'
p28
g13
sS'desc'
p29
g13
sS'browser'
p30
V\U0001f1ee\U0001f1e8
p31
sS'annotations'
p32
(lp33
Vcanary
p34
aVflag
p35
aVisland
p36
aVother
p37
asS'wind'
p38
g13
sS'andr'
p39
S'data:image/png;base64,iVBORw0KGgoAAAANSUhEUgAAAJAAAACQCAYAAADnRuK4AAAABmJLR0QA/wD/AP+gvaeTAAAdhklEQVR42u2dB3hUZdr+J5NJ6N22WL5de/+vn+u6uqj0koYgkS7pCYFk+iSTKTlTkpnJTCa9ERIgkN4gJKGE3kXYtbGKoqDsirCCnyiCSLj/5z1DXFaBFBKYF859Xc9lEoaJnvn5PvfzvE0g4MWLFy9evHjx4sWLFy9evHjx4sWLFy9evHjx4sWr+2ULeWyAIaL/KH2Y90x9eL8JTul9Q/mnwqtdMRHD79AG98pPCPL4UR0kwH/C44Im1LvKFDboD/xT4nVFmcKGPZEQLPxSGyJAnV2Aj2sFOLZOgEMrBWhKFyAxXICEYI9vdWFDXuGfFq//HnnChjzLwvN1UrQAR5sEwL7fxslNAqRKBNAEe5w0Rw+9n39qvFzwhA94mUBhWSDA8ZYrw9MW/94ggD5MAG2w11L+yfFiR54+U9m0dMYudo0w14KnLeodbCpjPRITfWd//gnepoIAHrqw3gnqYEFrTpwA32/vGDwkPq13GWsCH/8kb0NZ5j8wRBsiqicQlCUJcH5Px+EhcWGvAIZI4oX4NHYbpqzBIzXBwiOk0tq+uHPgXB4VyQQg4b+rqgI9+ad6O4Aj+f1gbahXbgKbshys3/mysevwkHiv3JXGdGED+JL+lgaHGSnShfeKYkv0Eyw8aHAK8NPu64OHxNmdbCXGjmK6UG87/5RvQWXGPNxLH+YVyqaZQ2SkyFMLcLT5+sG5PIp0bBoLER3kn/at1dN5VB/qbWZL868JOJlKAQ5UdS84bbGr2JXGSAebf/KUqiow0NMY3vcFtqrSaUM895EPlKSqpYwAB2t7Bpy2OLXZBZA2VBR3ez31QHj28TPf6+Vj/pMowDbO28cw09PfFOrlY5KKfJkEkR+jFfrqdSREfga1yNcgF/omz/f0NwZ5++lne/uappK/J/LVvdLX1/J8L7+UR/pMUt03cIJzqGAkRD30b+3hkA+/gwkd+Gd9aO+5ulCRTRMsatEEe3zXBk22SoAtBQJ8u7lnwbk8MhXEC4l23JKc2GyrBiiVutdkMlWsTKLMlUrkG6VS+ef/Oy/xZw9/Bj0VQn/mJ6Gf8aSHv+Gw0I/5yNPPtI/9eounP7Pe049ZLfQ3V7E/Xyb00xd7+usXsz9bxP5ZgadfYiEbRUJ/03JPP2P9wMmxLdFBg/dqQoSfs17mv2bHiYElH169XYC/lwpweuuNg+byaMlxzdQnie+6m3pgkpOL71QqNTNZWPKlEtn7YrG4NTY2FiTi4uLgcDiwbNkyqPNr4DUnH17zCuEdvATeoSXoFb6CjVL0iihHr8iK/wT5PqL00p+v4F7rHbKUDfbvBRdx7+H11iJ4zWXfb3YuRLNzIJqZCdGMdIimp8HzzVR4TrOzkQLPqVYIpyRfiiQIX2djspkN03+C/OzSa0RTLRArHuR6Lo1pAmwvFOCDStcM+c9v3xxgfh3/bL5Uzof2DqHTNKqTH2VHGI1UotjTBoxSqURubi6am5vx/vvv4+TJk7hc7xw+iTvEtegVVenW4RVZDV3BTGC/e8BypbjIhnUhaSqKVlLU21g8VCFTx7LpaB8BhgUHdrudA+bw4cNobW3FtXTi9Dk8FL/a7QEi8YreDPzNfQEisdLBrRP6gYl4vq9bg6OLsz4jlSqKxWLJjwQcm82GTZs24dSpU+isRlhbqADoAekiHNl2p1sDdLCuzZf1DXBLcNRq44sSiaKZQKNQKFBRUYGjR4/iehS+bC+bIircHqA+URVYs+o5twaI+DEmgk1joV6FbgWOSmV7gjXEqwg4arUaa9aswZkzZ9AdytvyKUQRFbwP6qYoNXOTq8cYhhG6QfldNEAuj3eIY8XnVSoV1q5di7Nnz6I7tfbDY+gXXcX7oG6Kv5W60pgxss9LNxUepZKZKBFLvyDGuLS0FKdPn0ZP6JPjpzFcvpL3Qd0UZ3aQeTG2nA/xttykyqqgr0wWl0vSVVJSEg4dOoSe1A/nfsYTmiYqAKLBB5Eo1HBp7MCNN8my5EclEvl7ZNSpq6vD+fPncSPkm74V3pGVVPggw6I33d4H7VjMpbGLpsg7H7lh8MTJDRPYsvxbYpIPHDiAGyl17XvwosBIkxiVaHR7H3Ry46WudEgv2Y3xO3JdGDvq/Gy1WvHNN9/gRmvF7iPUAPQ/0gIc3T7M7dNYuoz0gzy39Dg8CoVWSfwOmXLo7gqro9p56N8YGlNLBUB955djXcP/c3uA1mVxXemfyRbpHoNHLteoCDzFxcW4cOECbpa+PHkGDyhXUQEQ8UHGwkC390FkrbUrjfV+q4fg0UUReJYsWdLunFVP60LrRfzJtI4KgLyjqqjwQRffESB5AbfUtab7DbNC7xsbK76Qn59/U0eeyzV38W4qKjGXD1pEhQ8iBzMkBAtPM0Eje3fjfFby42y19R2ZAD137hzcRclNB6iY0iDRj/VBG1Y/6/YAfVTjSmP6kL6TugUeqdTZRyKRvU9K9a7MnPekVr/3L/SJquJ9UDcG2elKjoLRBnvld4/vkcY5SZPwww8/hLtp/xencJekjhofNJoxuL0PIrHcyHWl/8k+Yo/rgic+3vg88T1kCYY76tszP+HRhEYqACLxexkd/aB9yy9NroYPfOH60pdEuS4hIQE//vgj3FWv2jZQY6T7UdIP+mE7GYFIU9Hb2GV4zJq8e9mS/SJZx+POii3fT01HmvigpMXT3N4HkchXc+X8e11fECZTB5Cez+eff+7WABVt/wyi8ApqfNA4QyIVPmjrokuTq2F3d+1gTpVcNZsAdOzYMbcGqOUfX2PAgmqqfNC/dgxxe4DIcXiuEzx6xXax65wwgQDU02t7umNx2f3KldQAREs/iIRTyqWxDV0CKEGR9CwBaP/+/W4N0NnzF/CktokagGjyQWsy2VEo2OM8ORWtSztFCUBk64276/XsbdRUYjT5oCOr23au9pnVhTEIHhKJ9KeVK1e6PUC6+vepqcRo8kGt7whgnk/Kea/yLqUxiUR2uKSkxO0Bqnzni24ZgQbF1OAeWT0eUNbjwYRGPKppwgNxDfidfCX6d6NRp8kH1di4NUL/V8U85d0FgOS7srKy3B6gPZ9/g2Gx17e47D5FPeLSlyHJmYPU9Ew4Up0wJttgSkmHzpaBOEchomxL4J9UjcfU9beNDyIHXHGTq2H9xnUBIEWt2Wx2e4DI4rIH2ZGiKx9m7/lVrC+pxF8S6+FIy0AqG0ZTEhINJsSrE5CVkwulKp793ghTkgVJyRYwKZl4WtP1ys87kh4fRM5kJKfb60K9sjoNkEymzCabA2nQi+b1XRp1FjrLMN9egqS0XMTFJyAjKwcJWh20Oh0YgwFmAgwLj9GchGSrDVK5Arl5BQgz5LDQEoiqWAhvXR9EYhnDTa4e6cJMvDKBVGLutAboappXtLvTRpqMPHOspWzKykbJijIsW14KtUaLiPkLEFm8DS+Z1sBaswWFjZsw3VYLcUYFxDIFEhkClhWMPQvRyYuwMK0M/TrpkWjyQXtLLk2uhg5+rpMjUHwQAejEiRNuD1B6y8FOT2kQ4/3XpDXQMGZkZGbB7khFijMDzqoNGJ2yHrFLt6OyuQZVKyIRs3QH/mRsxltJSxArlaO0vBJlFVXIzs1DrL0Yg2NrblkfdHqb6xg+Tai3vpNblbXjCUCffvqp2wNEFpf1nd/5xWX3yGrhY6nHDHsdJjvXIqtpH9ZvWIv165tQXbkIGU4J5oWNQPFiO2obG7F8zQ6s3rgDGYuXw+bMhM1mh8KWz1VqnfVBEwx6KnwQidx4bsvPvs6tg44zPkNDN5ro3S+/va798mQ0ukdWh6p1LByOUNRVFyHNHoO6yhJo4uciMz0BJUuSsKIkA4vzVWjctA1jUtZhjLkePtYGDOvCqWl/kOVT44M2F7gmV83Rwzt+15iDKbuDlm70d2fP4zFN43WW15VY3LQLSxfrsKWpEcysKbDc8xBiJj6CyBGPwPDgMyjJScX+d3aibJkZ+vJtnInu6u8bGF1KjQ/6en1bV7pXdOe60WLpORq60URjHZs63VC8X7kKwfZSBFuK8JaxAMHZzchfnIr4uQ9AF3QHEsXDoY4ehgz9/YjxGwp75B+gnDQGaSmhyGvYhf4LarhWQFcAErE+yFI0lQofRILc06EJEa3t5KJ6+efkdFQapKj6e6cqsYExtYhz5qHcOhXFjC8KNBOx0JyB17O3w5kpR/yCQUiIHQZFxCAoIwZCHDoAidIhMKmGsAAFw1C3D7M0GQhOzMA8Uy7+YmjotA+aaNRR44Ma07nJ1XOZMQ8P7DhAYvnOzMxMKgAq3vE5PDtRid0lqUWiQQW7ZCSaMgOREz8eUXMnwWRWI25RPdQRLyJi6mNIGHUvTK/eiUTfexA882nI5t4FZtEy+KWugyoxETUpAVjCAlhkeQtvWCvRN7rjJf1D8jxqfNBnqy51pUO9AzsxAilqaOhGE2366DiGxHS8nO7NftAmRxIsMa+xo88EOBPDkRY/Ga9NmoJxC3Lw6lsGjBgdjokvzcLk56bg9cfHYtITL2DUi89ggT4dIRFhkAWNhDL4VbTkTmcBHAejajae1a66JX1Q614BTFHclp/lHe8FSRVZ5OxmGvTZie87t1+e9S4hthKoFsxAgngOQmZOQknymwiRmjDJsAW+5h2YpCyDr3EL/Cx74G95m4uJzGZMSNyAMfGrMXnaNKSqp6PQEoZ0xRjYYkfiTVtlh821F2U+qMrCdaVPbmZGijrYTFSpSSV2s07h6OzismcTmzvlQ/ws9SgyTEFN6gwsNQbAuHA8ZsychnGaNQhQLsU/PvoYyQX18GU2wi95N/wT6rCsqgkzdGXwt+5FoNjOpq4giIPGI35hIHSS6YhOyubgvBV90AcVbTtXe4/q4HSGah4B6Pjx41SMQtPzd7IfSkWHpzJeNdSjLHUeti6ehTVZgVCHjURCxFiMlpZjYkweIs2lkFhLMDYqAz6mHQiINKK8fj2yCksxNqYQ46JSERvii+SYUai0T8dy6ww4bAkY3IlU+pCMHh90bjcp5ckJHl5pHVxcrx9HSzeayNz4YYf3y5OSf1JyLSocc1BhnYxySwAXtviZLDw57Oj0NiZpm+GvruZGHy7YVOZj2o7xCU2YxGzCGEU1FCGjkTh/FBrS3mBBnI0SZwSe09Tekj6IxBI9l8YOdXRt9NMEoH379lEBUPW+L9Grg72g3qxPkWWUoCF9GjYVzESNfQpSZBMgyaqEf0wqJhm3QW1fgo8PfoKI5Er4Ju2ELwtRiL4IK+rWwlfXiAna9VggV2OJdR5qHVOwIskfjWxFN9+Wz1ZjHUtjogi6fNCepa40lhTV/+kOrI1eNowAtHHjRioAIpex3Cm++n55UiG9bFjJjVLjrY3ItizA5kUzsaVwFprZFJZmVeBF81oESJ0Yo6rHLPViSFPKEKnPw0jxCoxmR5x4Sy7qmjZCYyvAKFkV3mBfG2JbCqdiPAcReb9lqRF4JbGqQ41N2nzQ/21xTa7qQrwTOtSNloplZ+vr66kA6Nh3Z6+6X96LDYUjD1qjFi+Zm5Fqi8f6vBkcPKvSAmFIsWJUUiP6L6zBRGUuxqkbXSkrYRUmJm7kvvZL3sWlson6FvZnLfBhKzQfcQ6XshT2TNQ6yfvNxGb2PTPtCjx12cKza3WsafJBJMgFeQnBoj0dXRv9GS3daKK/Wlqu+H++F5uyoi3Z0Jt1CMldiyLjVA6ejQUzoIueiNDUMvS71AR8Ja4YY2Rl8NE2oaqhBbVrtrFfr3bBw3offfoKyFOrWYC2YpysFC+plmCouBbBqVVYkh6LDfkzsCFvOvKsUWzqq8IrSc1ITMvFcFntLeGDNuZxo1Ars/CO4R0BaAct3WiiCHIZyxWMNIHqyfhapDDz4dAFITFyBPtBz0R1yutYZvBFqS0Q060VXA/nCUUpJorzMTqmGFLLMhiyKhAQZWZHnQ0YtzAPlfVrsHXnXsyQZWC0sh4T2BGrzyXPMzW1ERZlIOerCKDFtjD42Jug00sRYl18xR4RbT7oq7W/lPPhHVkbXW0ymagBKHvTJ1ddXEYgelbfiLm2FUhKT8fa7ECsSJ6KNIscK0kac6RgmKQew8TVmBzrcKWttrC+DR/DFg6i8dp1XCNxTFwDJujWw1+ahv4xtVz6MzgcqLJN5ubWtrIALTf5wZCkA2PSQJOScsUeEW0+iERKLDe52tiRtdGZtHSjiZo/+Krd/fJ3y1bC5LCjwTkVGRYxIvPWIicpHInONG6GnfSIJsYVYLyi7JcSnlRlcSlLkVXCprLEtb/8nOtQL0zBHeIaDr5EmwlrWDBTFJNRbZ/KmXOD9E2kaoMQklZz1S418UFf7xxMDUANTjaNBQl/tCue7dfe2uh4WrrRRAe++g73trO47H5VA9JtCrb8fgsB9tUYyI4c06yVyGLmgEm14yFVHQYvZMv5uDyMES+BX9IujGX/mVlUhXWbd0NmzMYE/QYWoD3cCDR5YRKGy+s48MZZm7GYeR32wmVIS1GhOXMa0jKS8bJ14zVLe+KDNjU+TQ1An9a3pbE+U9oZgeLeIgB9/fXXVABEFpe1t1+eVERz7aXI1r6BGenN3Ac7hDXB0Y5i2C0qzHZUc+luAAvWq5rlCIhNwZgwK15bWIzRqpV4TVKBVxawRjsqHa9H6PBXvev1j7EVmzXDiUztNMxx1uMZdS2MKWZUpgQiNrXomhsUiQ9KKX6dGh90Ya8AhkiSxryWtHcy/VgC0CeffEJNGvPNaP8ylsHiOqSkGpGf+AbCbYUsVNXcUgyyO/Vuad2v1g7VsDDUYETcEkySOhCgTEdAQgFGalfgofhV3MhDft8ftfVItyqQ4WTwqKaR+/kT6lXItkQhOSURw6T11+wH+Zk1VPmg8iTuWOATVVWBntdYG219igD0zjvvUANQfM277U5pkA/3BX0dlGmLoMqtZMvw+k5tCboSoL2Jl1Gvxu/jXBcDkxEnMq0cWbrpUKdmo3c73emH5blU9YPeLXelMSZiwIirAuRkqobS1I0mKtl9uMPLW8n9qz11OMMAtjJLSklCPjMLEc6ydpd5DFqwgqp+0NmdZLcGd55iSjulvPRHch8YLdpy8DiGxrrHZSx/YMv9P5vXshVaXYfmxVKXBlDjg0gU6YgPEn7cHkCfLV26lBqADn/zA36vaqDmyJfLfZC/OYEqH7SruC2NDXv86gCJZdszMjKoAeinC634I7OGOoBIPKLIoaofdGpz25Yfkepaa6OraOpGE80p3E3VwVO/VIcLllPVDyKRqWCrsRDRjmusjVZlKBQKqgBKbj5AzRHAtPuglhwyCnlcsEfdfdeVe0EyRRypxNz51Ppfa9Xf/9ml/fK8D+p8/LO57SCq3sFXOfZXNZembnTb4rLfyeqp9UEndg2kBqCLbFgXknJeVH+Vk+sTxtDWjT5x+tx175e/mT5oa9OTVPmglQ7uPMUfnNL7+lzp0rknaetGE9F0GcuvfVDaMj+qfNA/qi8dRBU24JXfAGSxNA4hAG3YsIEqgBas2EdlJUZ80OtJ8VT5oGPrLvWDwr1n3BLdaKKCrYc6tV+e90Fdj88v7Z1nwnr5XK2ZeIjc2EyT1n54DIMX1lDqg1ZQ5YPWZ3Ond7Qy0Xfec5UL6GTbaOpGE3187Dtq7pf/rQ+qocYHkXMUjVFkw6Go6VproyuNRiNVAP1w7udO75fnfVDnZ+RzuG0+HmeYyP5PXmM6Q5lOWzeaaHLWNm7JBu+Degae3DiuC31eHzZgcjt3iClVtHWjiXQr36fmfnmafNCPO1wjDwdP+OAp7e7OUMji5tBwi+GvtWLPkQ7vl+d9UMfi+22uCVRy5J0+bPDkDu1QVSi0owlABw8epAqgnYf+fd2XsdxMHzQlOc6tfNCpTQKkSsiWHo8fmNBeEzt+j6rK9AQBaO/evVQBRBaXPaxeTSVAJB5VZLuND/rXGgGSo7n9YKeYkCEjOnViaxpTP5jGbvSF1ov4s3kdlVMaJIYudI95sY9qSJeZVFueR5nQDhztcuVmovRMbW0tdZVYSPEeKqc02nxQZonPTfVB2wtJj4c7WGq/OWrYvV2+T14ikX1KWzeayLHuIyoXl7X5oDcsqpvig87vcR2sSaYoNMGiOib6qf6C65FEIt+anp5OHUDkMpb+0dXU+qDHlVk33AeRu+O5SitI0KoN6c0wjEAouF6xAFXQ1o0m2v/FqXb3y7tzDFtYckN90N9WtPkdj2/0oX19Bd0lmUSVJpfLqQOILC57nNLFZTfSB53Z4dquTFKWNkS0g4kY8oCgO6VQqJSkEjtz5gx1EI1N3URtJeZ1A3zQh5UeSIp2dZbZlKWrCrzGfveuSi6Pn01jN5pIUvE3aqc0etIHkcZgieEXo/yuMbTvc4KekkqmH0UA+vjjj6kDqGj7Z9SW8j3hg8ih4RtyXbcyk7XMuhDv+IKI570EPSm1PPlxGrvRbYvLhlI6pdGdPoic67N7iQDJC1y3EGpCvKo0oYP/R3AjZLW2DCIAtbS0UAfQJ8dPU7lfvrt8EOnp7GHBscW40hXZScqED3hZcKMlkch+oLEbTS5jIfvlaTXSXfVB5GBwsnPUPP8Xn7NbG9TXR3CzJJHIPykuLgaNeiN3+23hg0iaIttsiDnWhLjOdCbLTfWh/cYIbrakEsUWGrvRRIaGD6md0mjPB/38tgAHawWos7suhiOjjTpIeFwb7OWwhA58WOAukooV5QaDwe3gOH/+PNde+OCDD7Bt2zY0NDSgrKwMhYWFyM7OhtPpxDSVE8IpFginWiF8wwbhtBR4BjrgOT0NoplZEM3Jhde8QniHLIV3RKlb+6DWdwT4ao0AO4tcI01i+CVvEyz8XhviVa4P6zuZCXzKW+BukkqVzpvdjSawHDp0iDPzJJ2SazklEgmIwW8L9vufxWLZMZlUfoCFfqdUKm15Y37C2t4BxmZPP2ath19ii4efaafQnzkg9Dd+5eHH/Ozhz+C/IsDIwmZxQTYjA6LZOfB6axG8gpfAO2w5ekWW3xh4IsrhHboMormLcF+wBuma3mAi2kYZDprD7EiTrw3pGyANfKmPwJ2llMUpbnQ3+uLFizh69CjWrVsHcu2CTCZrA+WiVKI8IpEY62WyHLNc3jBXpTr/F4YpG84w0k5O/h316OfTeI+Xf58XPP32TBP6VyuE/vk5Hn7OJqG/5UOhv+G0h7/h4hUhm5LMjmhkNEtlR7N012jGwiaak+cCjh3VvIIWs+AV/zaCilx/zr6OvF40K5uD1fPNVPY92ZFysum/fl/vgPifZs+7dz8BRh/ae55l/qAHBTRJoYibRT68r776qsfBOXLkCMhu2MTERA4YsVjcKpGo/y6VpjsUip2Tk9V33Xkj/9uHjF03yNvnsWdEPocmevq1BAv9yrVC/4JcoX9mlYe/favQL/kjdjQ7fsXRrMNhuEhgFfoxBz39jRuFfoZiob9Jw379preP9RnB8/u8BDRLodCO7Mlu9OnTp7nURNKSCxrJOalUvlohVYcmJBz5HS3P6Y6/Bg/oM/rde3v5ND3q5V/8vyLfjJcF/s7XBH5pIwV+qWME/vbRAn/ja6KJmhFePuY/9fLLeKTvOGa44KkD3oJbWSqV6THywb799tvdCs6XX36JkpISsF6FS03kliCZLC48Pj53iIDXraNMpnlgd3ajyX2spEpyjTbS01KpKkursj3BP+lbWOzo8H1NTc11gfPFF19cBo7ka5ksPo5h0gbzT/c2kFQqO9jVbvS3334LcgPipRHnhFwaL2eYgr78U72dAJLINzocjk6B09raik2bNoHcPRYbKz4rlcZZ4uKsg/ineVuOQAorMbukYuqIjh8/znWCyagjFSvWaJUpD/FP8TaW68xEcWt1dXW78OzatQvkVA82XZ2UyzVz+afHixNrejOutVOVTDeQuSjXtIJ8o0Zjvpd/arx+UUHBPi+pRFFLACGz82SVIunlHD58GJs3bwbZ/kP6OTJJfHJVYJUn/8R4/UYMwwhlMvV8tqz/8vKJTG6OSirfp1Qy4/mnxKsDIEHIwvJHlVw9TaXSBmi1Jt4k8+LFixcvXrx48eLFixcvXrx48eLFixcvXrx48XJH/X/gjySkT3b7RAAAAABJRU5ErkJggg=='
p40
sb.