ccopy_reg
_reconstructor
p0
(cemoji
Emoji
p1
c__builtin__
object
p2
Ntp3
Rp4
(dp5
S'emojipedia_url'
p6
Vhttp://emojipedia.org/flag-for-Diego-Garcia/
p7
sS'index'
p8
V962
p9
sS'code'
p10
VU+1F1E9 U+1F1EC
p11
sS'apple'
p12
S''
p13
sS'twit'
p14
g13
sS'gmail'
p15
g13
sS'related_to'
p16
(lp17
sS'name'
p18
Vflag for Diego Garcia
p19
sS'known_as'
p20
(lp21
sS'default'
p22
Vemoji
p23
sS'bw'
p24
S'data:image/png;base64,iVBORw0KGgoAAAANSUhEUgAAAGwAAABsCAYAAACPZlfNAAAU40lEQVR42u1db6wdRRVvSPxiQuInE/1g4h/kCxKRgFBr00r/vLttaUu1ECoFtSkqAQwSqiIkUBVoDO9dyj9ToSB/xNIUBIuJEqmCxEICEkGRCB8IKQVtHy/Yvt63nbfu7+yc2TOzu3dn994HFGeSyb1v372zs/M758w5vzkzd1YSyhFVZoUhCICFEgALJQAWAAslABZKACwAFkoALJQAWAAslABYKAGwAFgoAbBQAmABsFDeM4Dt2rUrCfXIqQTYges2JPv27Td1fHzc1HnnbWld8f394xPJaxeuLVS+16Dtcztl7ePePpXbGZ/I/nbHoklb/B1uV7Yv22nSJn/eAPbm3PlUDz+zq6CCSqnkhZf+ncyKuo0rShyrZHzel5LxuXZNW85UvEmbSzcns0ZGk4Xr76F+oZq28TpnfjI98Z+06alkeir2MjFKV2q/M5a/6ve/f/yVZCru8WB4NKjMa7G9MXqGG3/xtH97ohjA8KD84G9/d13eWPrgXHqxym/MN+/0r9yOC5YNWE070VgOWPq3UnqIJVjo/+z5Vn+nerEROH5Vuj8AkwE9ae0dtc+B+pObnyDhY4BNuyUisPLi++vHaKSbrLl0B/WD2hLt4e/pOG8Z7/H8BjA83OTW6/MBTQei98i9ZgDQUW7w4UdfKkrOjAKWgXXUylvo4dDXieVLMrBmZ4IGrSIA0N/0fuguvvOD6x+ju/QOTBrQaNAh/YtGSVt9BM8VoL1vvp2cetNiuh/aPzh1OHsWAmI0f41qnkt8/twNDxohY6zQf/oMLIsEDBcBBD741pJOJrHOwPJgsBSQZArJHzpgaHekS/9nk0RCpU0fKuZeKZXcv0YAtK1LN5U/f9rfo87ZkHS2dZJPX7F8qPfMARPzAw/M/lPnZoOjJTg3k5mEQhpgi+l7wwYs6mpTOJZJcdoGaRXPVWlVr/3L/C/RJoQksk9/hlmjHZ3k2O+N2HOf1qoTu4uTZb+OTB0+YJZtHU2e/8cbNAhG2xi4KVbZbB5g8/LJM7cMXcPYqYBp5vtLreL5IpZahQHT5mNGAYsyDVt450gy97YRcx2a9bGLTiPAXJM3c4BpafngipvJFJm5zZJsZQaMJ8gNmx4tzG3egEm7n1aecCfWnGF5gbj39NSk0XIU0vJBBkKbXTyvLAcO9kgQjRaR9nTNd1Y8HNE8ZgBL2/joxavp+tHrzyfB4bFRYv6cls7bSLceUN0/fK4csCgfOFRMsEbb5uXASY8M44sKrcODNwYMA5E6AdyG0ao5C0ir4LkyUNIzYzM+iEYBcNLk1DFR2iMzr+l1gLI8NX/QHDO4pMVjSSc1dwCJ74/3ALA3OWXmXRasWBXdeNzTy+lKXy+46pE+GmZNrpvNQ5G2YRA1aBS3MXB6Lun1FHk8LGEofQHTgkEeUvp5gCPN8NTuR7UHqCwXmiSvT78tSTZzdB7TQXvqCrRs7nVRsmB7J+k8tIRce55fMTcBMPyPhQbahesElvYgWbMQlOO1pw5b98C1ux/4Wy4MZv7O+wqH0IrDvOKg9D1JYYkDkIefmVQe7mVD2+vVA4b5Eg8I8E1MJbVY5e16SaSuMc+BsTLxE0s4xz5xTeAKrVi+6VwC4TMbFyWdnUtNX068LnMsACSEDdfm3NkhZ+SVPS8b0Bb8qkOfw/VF1365GLkp22Ryf2PVJ3BefsF9xB7U1bnfuCtjGfRDQxtkLQsj6wDDK8dT7K6XFcyRPn3k2oRDkCGBnB9NwJ3WL1x9Og0+TB7mNWgwwIK5/O/bB5Nr7r+GNA7gvLFvL2km3jNg0gq1LQYwiXK/ymZCOh15raZa+gJW+h1VKu11/bNqQ8Ag2cyAsDeshEY+9swfkqWpyVuh6xX3XEUgLvplh/6HV1zf8/pe0sqFGjxco8Ba9yluj5cArAWv1aSUc4lJpUYOoxgzWMH39Zi9SSsmdGtOFHEgnA0W0m/d+h0CAcCh79AomEY4JtC2xfcsJhDZVOJzpV5gei0zeypnkoTCTIu/c+pqSnCJPHeUaMKMVcFfzkRNBIfoahPqofQyvDkLINc7Sx0VuOjLNDBwGHa/sJtYDICEa6jQIoADTYOJpGA5quFcNZBKVVsa1kamA23AZrLOq7gGj3OG7snhiWHGRSEv1vB93VJXGi46wIAjwcDAcQBYABHB8dZHfm7+h8pzGLn6oK76hRxRkclHvwAOKmm949q/c4C9C9VrkKpqGhNiDsK8BJMIgAACAZaaOniM8+/O5iw4IXg1IHEIMQMMy/sfsKiEHfcAjJgKHvgUPFBOBmwCJaOhFmqnYrkGMmM4Ns0YJfb/p2GdPvMJOx2Rcy0S1zWHCJCgZTB/Z5z5bQIOcxhMIjH00Vg1j9hAcAJglWCNJq/tmTCsPwex8A5zPq+bLZukmkTzlY7BTrnsa2QWl2v2ns3jc8+/nlFtsR3TGWajBTH87gI2e2a9xJzqEfwomzmXoO5TprX7j/U/nrc65AVmVNTiFRsIMGgWOR+pMwJt2/7H7QSOSS+oKGbFm/sniXDhrU72JnPAiFidwULgFNzuqRmN/QyTb3F0zHx3yaVXDqtRFVRj4BEMw+ngOmvV1QTgqpWryJPkZRV2SgAqNK6a9srvjcCaPNeoawtX2m8AykyMzXR4DJ7yTD6RSy91TId1X6VK6Bvl3T/vvvZ7BmY3mM9LBWvswS658+S271xKGsUu/iUXfZOuQ5PAneKzFLd1M22jcdDB8XQ8mIDm5K+vLU0/xyx3nkk0ZbMZhg/0BKxMI0UQD6KZ6aEmNp/YiaZ4cX+E8F229XIaeJg/aBSIXVzvaEcDgAGgs8fWWaB3dmaOCcyky00ODphnFhSWF1yyFCvADBKvXbG5g9mpA4w/I8EnQthhRPi+vt5V3GJg4HiA4EaFY4Bn4CUTA0ha8L6jCd2Nl55FoICS4iUiVJDBa278OhHBTJwjhWE4GlazvPKhlbeUaoNcYpGDylSK1wKmvg8eFracl2TMPU6eZ7QXi6g8p9QFp4dUvTPBFqrgcusKbw/OBOYRTPqcFgEweP67eN1XKNETc5xctJSLwHY8mL1ihSQRRHWZ5jGXiL4+/tSrfoBBKmgFFWs+xlwoiwvMzFYmWZCmRivOwrV216xM/iFrsPYulZ60+2lb3XQBQHmhVSbQFFx+4bmBLiLLoQ4bKwPAMD6Y09BfQyT34xJFfHfCV2/LVuzjcsBwFZ+pzekgRtldpkhNltQoDCKvjVF28KBJOGAQUm2u8t7GZ+er3ePnrKIFTcolicZsl5gHRb+Hxk/r5RMTAw2YqMN5hACMLEo0YJtRfS5jRU5H13TG8mrcTFttAiEZJFUlOXqtsqb039bcZjJ2Jx3yeL5xLgqBqFxmH6lgF6KWAyvc7/Wro6z9YfCHrNHcT6dN20vUnSh6V7b5w3sMJqQVk/RMZv6SR1q3KKodnVg5LPxIt9lAVYFT8z0CrILxN0F7SSbzYGluOrXM3UAweeeoZQLxN+etmwm1z4MNBBikS2dFueaRk3LIQzWhxAKa9M2E30Ti9ZwC5wKbH2DiiIGoAz29z/eXfDFL+67gDGGy0R6cBpN6PSj5WxZuUk6gmOyT/XsdsN6h3Hqpbbo9OUEjV1F6q1miqbJYjbq8fWhmVXwEb65UG3W/oWFHRz+1TC/Pw/3YE0q+lSxMnVaPdEsAS50KK9PWDEDmVTXNqh0mYPxgpFmp2eb5la0CaZtIOrW2KZWx5WnF7hGffA9UJNpYzH36Cqb+iftWJ1NPHW+cnqRk90l5SJE7dJXOhlgJL+Z0pIVyAoW0IicwkY02ZJhnAjC8InSwxoMCbpVpm0iRw8BQLqHTBsyU1NIsEVb1zQ/p6c8DOE5NB2A/Xn2KpaWcLNSXJ9VCEDu03AeWFYVLCqUBzDyongvgMnPEXprv0AAw3KwsX4RNcNu2WZrLCCbDtrg8pwhG2xY35AA1BbZD7kurY+jriOYqPlRomLKI1yzVa9JQTKolmQqpzPZOqUrmrhUh2tfklJDFereNGiAvsEBSpwUxGOawe288y/psW8B4LS5xNg1W5iU+/dc91jIEmQ79HYqLVP0A8/oRboasXorSxWYC06Zuy1faeyVs99Ztz9ISCoUZLZlwY8ISMUeP5CnS0yx0RqCnkrEbNtOyCrTrxQeOp4oWcH3teedTBa2Itj+86lYrbOK0dwgQj6mqMZ+8EGoAIzrJjRtGRD56WrEN1IdphkOQ0TPCkxwpp34wF7jcYV9hIMa+a69tWUGn5ugaFGuOq/Ao4QXeftc9yQ0bzyZt+u0dZ2agHJgkDSOTqIF8/qEzku41F5IjQjtBZeaUQ4GBdQFwcR9hw78wRoUdmL4VS98yUZN3rijNzjcOCqOs48aGswMghIOAasgkMO+nXJOmXyno93Gg0s8sWrCQAOI8QmgcQMI1mEUAib+33L5VJOtsTrb97HwCsc6R4s0OcsMkm8dsYbNuf1gdNaNvBHOHYBBLB9aui8Z0T/4dmMy33jqY8XPLbhqMoxOeLR78gh9us8nXyK8NeIOFz6eA4LkBGMAq6+dpazYmV15+Sc3m9FGbC2XLZCUAdevI3yGnaJUFiAPtgBQPNNIdfn9F5XmJ//7csquTfx73Wao/OvY4mssAGt7z9Y90rjVsC/5PgfUQdmO207C2TPSwAZPSNyzApCBEuZbAucB7gCKB2Z5WBoyvMZCo6+esycBmc97m1IJK8lc3CHMEOwruy54wGwy4+Bw4OTmnmuWNtiy5np/MBgLOPTd5hC0tRPp9BMXS22QNw9y0XQDym7ULDTCnnPx5C7At65ZawCmx8m6eX+/gbDSWrtMBN1R6bIUV2SZgaSK1LIZhx6Kwfhb5kbQMErMEfLYFe6jeiZpi0zgHw/I8EsmiQIukdj27Y4UBBF6iBAxeJGsfaCt8Vzo8HMaQgyZXpeuWXOQeZ7nlpWyTm5E6j5wK8s7kXrOKzXMmvov1ASI17fZiVdjjbJ1w48QtZCFqBMANpN19yPxu+44HkoNPnmBAgVfIAAIsMPbQtCtPPon+x2Du/t1DZE4Le52dZwCnWbdYqqw0t4aBJgoNiJDS7Tv/3iodzcrT0zst2ebjvWrZJvoJwloltkCgzSbZS/w5xFUAAq8ADxXvMUdBkwAUX4PXyOaw0fOLFAu8YowluM0Bc/P2xMazQcBKSrRE3qd1Pl8JM8M5gr40lTRnAAZaBK2BKQQoAArvEavhf9A4zGO4jvmvqdDy/mbZbTb/eeav2I0oN3Ary1yoBuOkiutWwpxxhw41xAEBq3WQlnjljfBN9xEr5ztmFyQypATzjngKpg8gISAGOHgPbWIzyKwHm0ryCVTO9FeZXt8xNYBx1o5xP4UbzixEIynXD02Bb0mQWrbJrilbbrKz0rbB16mKHZe+/TXziJNTAUcGwor5iE0hNI2B4leu+B9/jrOd5AFfnOSqWvQx9xKZUahxe6V0F8yh0ESvvAXNVb766rilacp1JISDQutQUf2y/d7XJ4gxj4U560kmXFgP72A2HSOA8NyD2R5mvAdniDkM2ofrSOHGcUYwj/i/TyjhLqlIxwqeZKznYfskHN/EEP05yc+xW41XsPP+brXtXidKWbwkM/loN8vK8gwtBM0DYYj1CjXPDdx3cz6Wb5saMMxfmJt4CQWZvTzgT/7lKeOE+ALGfUUuiZxK0CStcouxf+eYjvdBhRYd8/FPGAH90+N/JuBkZe3Aca9WRvGMHw4WaqGCAJaOlMyGlk4EYjYwI7S0EgB7F6tJSh0lfhHzFIBh6gqMBkAFOTxwFnAtYIKcBC8Hm5+lH3cLmUJNKzZSyBNg8gO2us2SKsW+Ycp20mdt4JX4uchJeW5xDB9ziQgRTH6j6yg537tt5TFU7Tl0zDrlVVJn1oJpWYq5D2DyvFkTf4ljgAwR7H286mbz0DLpJRa0FKpZmfZsF/yj5CNl/MQEq8XAeOY7cpzEOSguTVd5JmN6nwJgKahmc4NShcOc2VHDmFC7noqAYw29mQ65tRMrztYyvVx002lZTaN7FDpnUZ5HKMAnoBrGVxgvO/Whay1xcHwZNzuUysrPcAEb5JilLPfDTSXoWqfl+AMmU6TFTV58eR9xc+ARy9gN30DYMBgiKUZuwYG2tqGncopHuceYkTltlbClx4E5SgbMItCbMi0leWW0B9sh4QuAxZzcOOhmcec4O0N7KVXcwtSysAmfFutiA/XbWZnwZUwkYP3Icn4/yD7nUg2TzEXbfESXTVCOxMcDbs6OJe+pVPtN6CWpbnJQ67upKgGLTU5mfq79oPucLcAKSf8uJaUnZSZZq3YMMtiFFGmn8n5gmaNYu2Fc90NmErmbJaRAlG5DdQQKz0QMTUU/MS5KrCjE4uAVmEYDmDxXMq1gWeo2duRCokpNY2Uiae32HO1QoPOHVH4Ea9n2TuwF7pfj5ybmyIHuZ6rMqTQeHiB2j8Ty6NgSwerJE2k8l+nxeV5WYnAsDWOP2pfuSseAN6pLTlFqPNqkNUKLS/TJPIpsqXMzdvnnM7yX/J3kyioG3xy2PNL15yfFUe6IrVywzGp0k01/Ih7lVfVEAGbzqGN+P+MRFfMTGTT0UZ5QPjwusUHg1yhzaRjtR84JOO7y0SB91O+3nP4pOw4bRnbZ0KkpeUA+nx0/DNCiam1pTydVD/YwQCsEzsPI3/QCjHPm3I3RA3FvVUfcddvdQ/wyg9WOodZaaKPsJ8/lsr0aAQOHiOqjjU2pqP4/lpNWeHa8LQfVpDa3JUrTihx2PmOXd4GYE8xapnXLJXz2WMlzNELXbWYt9LNzkM4pB7U/ExKVcIza2ph5ztnMgUq/L9biFy0MYPwDAv02mRnStkx1pVam0gnPT3kEquT5Od/tlz9IDoRHDFO6Ml3xa391Z1KZH+ORoJi50LESOodfNUjuqRSuyBYqODU5YJNThUQRK8tI2bSU+dG3Edu0gWdsmj7GACBugTvubieCNppfchDBqE/7SIKhjRqOqUSuhW8OCG8HirXWZSsDxZ9JlAfC+Ox5U4LmMnGbdV5i9vwY6wKXqGb43MJQBi9W1pT5RdWJiVDfo9X6ldlQj6DfcQ7G5sgqAbAAWCgBsFACYAGwUAJgoQTAAmChBMBCCYAFwEIJgIUSAAuAhRIACyUA9n4u/wOAnOZUGEFLLwAAAABJRU5ErkJggg=='
p25
sS'version'
p26
VV6.0\u02e3
p27
sS'uni'
p28
g13
sS'desc'
p29
g13
sS'browser'
p30
V\U0001f1e9\U0001f1ec
p31
sS'annotations'
p32
(lp33
Vdiego garcia
p34
aVflag
p35
aVother
p36
asS'wind'
p37
g13
sS'andr'
p38
S'data:image/png;base64,iVBORw0KGgoAAAANSUhEUgAAAJAAAACQCAYAAADnRuK4AAAABmJLR0QA/wD/AP+gvaeTAABHBElEQVR42u1dBVzUWdcGbCWMNdYtu9ZGibW7FtfujrW7C5GS7pKaIKVEsQsDE8FAEWzFLiwUUHy+e+4AEjMwDPi+u987Z3/3B4sDM/97zz35nHNUVJSkJCUpSUlKUpKSlKQkJSlJSUpSkpKUpCQlKUlJSlKSkpSkpLKnkJBodT+/0J5iQcA4f2Fw/90BJ2sod0VJxZJIdLiWUBjgLhQKPwoEAuQs9v+fZ6/02l5dz72BcpeUJJUCA6NaCIWi+yKRCKdOnUJKSgpev36Nx48f4+zZ82ht4ABNfbtUDV3XrsrdUlI+8vePbMOY50lQUBBevHiBghR24BoqtDWGuq4NNPXsXtXUdfpZuWtKkkgeUYS+QCB8tX37drx586YQ87x++xFthrlB5ffNUGuzBRp6ttDSc/BV7pySmM0TMpwxT1pYWBjevXtXiHkyMr9gjtEuqDLmUclelbUtmBSyT6vbVlxNuYP/o8R4Q1UoDFzHDOSsqKgofPr0qRDzfP6ShWUW+/MxD63y7UygpW+HgTM8hyt38n+QdgiiqwuF/hHkXR07dgyfP38uxDyPnr/DlLXhKNfGKB/z5Kwfe9jBxV0sUO7m/xiJxRE9tnmJ7jm6+iIs6jjuP36DR8/e4dnLD/z70xdTYORyFA372UOl1WapzEOr2zh75t6LnoeEoJxyV/8HSCDYUX2FkcC1/3SXrEb97FC9sxnUO5nyVaerJer3sEa9blYo33ZLkYzDDWm2PPwP8fgQY0ilS///maKjo8v7+gbPmbjE41md7nao3HFrkcwhz9IZuw0f0j6B4kUikb+Vcpf/H9LevXsriURBM4RC8c11pp7M7bZmLrhxqZmnIpNQ+07e4HbSgQMHIBL4JSl3+/8R+fntbCIWBpgIBaInpGICgkLRfIBNqRmHL6baZqyLQFbWV85AiYmJXI35+e1rrtz5fymRESsWB3USC/03iIR+sUKh8CtbOHToEB4+fIiQ/VcLueGKLu0RbnjxOi3XU3v//j1noPGLtq36X4uClPuhg2V9LW37jlq6Dv209GzHVtd3mlFd136plq7NWibuN2jq2WykRf+vM9J1mYdn0Fyxveu0Yy26jj+t0WzY2Wqt+8VoNOp6pL52x5Ct3k1CQkJ+2h1wpUZ0dI/y3+tTR4gO1/IXhHf2EwZPZLbHVqHA76BQIH6TnezErl27cOXKFXz48CE3jmMwL6BMJE+zQY64ce9l4RRHeCSaDnQ8+f+STXx8YjTaDHbprqlnv0hLz9FNS8/usKae3R1NfbtMtlDcomCZ7hhn2Lv4QOzugUO9huK8RiOcV2/I15k6rRA5cwFEnl55s9YkAdKFQr+XQqHojkgoSpRIBnG0SCTez77fKRT6b2cusJC93oe91kskEHnQ8vERedo6CrzN7QRiD0+/CPb7B9jvnWPrNlNJaXmz42TA7ty5kyc9b926hbS0tEKHe+3Wc1TpUDq7R621EXpPFyDpbmHmIdp7JJb26ot6W/c6/37DUb1D7VPqzcad0WrqHmhpd9nbR5DVZbQTZwbK31TTsUKVThao1NEcFTuY8YhqubbGPL9DS7W1UZ6N24yJq8Pw7OU7vL1xG4lDJiC+elPE0dJqgistu+BheBTu3bvHD/D69etISEjAxYsXERsbizNnzuDkyZM4evQoDh48iH379oEivpGRkQgPD0doaCgo9xQcHAz/gEAs2uCBBuRe69vgh6427Fbb4c8ZTrBxCcTR6GicO3eO/316P8qQf/nyBUXR169fsd7hUJEuOam2cuyZq3U0QVW2Krc3RgVmJNPXmnpb0W2SD7zD4/HuQ7rM93EOOCfZX13H6f9Kpjmu2bLpGY0m689pND5zXv23LLYQW/UXRFs5ID4+HnM2hrKNMirRraMNXLJ1H7vV6Xh3/DSutumB+BrNJIsxUHLf0fiYcB1lQeycEbwvAdU6mEj9LFXYZxm2MBBnLz/El2zjVR56+OwtfuxuJfVvVmrDpMo0AdyCzuH8lYe4eusZEm8/R+zVRzjH/v98wiMeic78nFXsZ+8x1Zdn6LV07Xf8a5hm3tqAGj4+gYuCzG1jz9RtAc40Gg1wQasRkxCNEafZEM9cfflDCtgNUmlpKDfz0G009zqBjPRMvI7Yg8uNdPIxz52pi/Al9Y3MDS0pkV1Rv7t1sZ+LAn6TmEQktVQcEaMtYxdA2t+p08USoQeuMeb4UmrmP3slRSKxeHLV7sPP+iFV/tGMU0PbuQ3jdJ/m/e0/Orn5IMovAHFtujKmacIOOM9iTHR//hr+kGcuPYBKi01yMU9ttrmRR67jM2OeZ8zuuVS/XS7zXGT2zqMttshK+yh1M98yMb/G9iDW2h0qUuTnpQ8fMzBmeYj8XhJTR1o6ZlhsvpdLi3dpGfmYltTWc+YlmXocRyWKKEthwn0nb5aZ5DRYEJibXOVqrLOdwT+ScTQ72elo6jvu1tS3/0q2TB19K8Ql3MXXjAzc+HNCfubJXvTzr+npuJ3yGrX1i4++NhnggAvsUL68e4+U1ca4WKtFLvMQI73w9MPXzEypm/mYift+M0XMnpAccvvhbti+7yqHQhRFPhHxKN/aSCHjtjxTQ23/csH4FSHY5HgYNr4xGL44CC2HOEtnSPa55hpH5WO20pDfrsu5iVZ6PzoXDT0Hz38U42hoO7fQ1LWL1NS35R+QjF9u6DKJcuriA/4g9+at5BKnIAMldu6HzKfP8TI1DR2HuxV5GLTpl5OfIvPZC9yevBDxNZvlMs/V1t3x7vBJqZtIAbVjsffQYYQb30T6bKp5vJf2w9zgID6DhBvPmNH7zZ7IZIzly5hHvZNZqV3sukxqDp7rh6WWu5nUMYLeOC9uNxV8XQ1dc27nfM3+783HNwoz0aWkJ6ipb5HfVutkydSY7RMVI6j91xnnh+aWGlq6jtbkbucwjkrem9pyE8Q7LvKHeWrvgXhm8xRkoEv1WyM9+RaXAgZz/KR7IexWdpvsjQdP3iD97n0k9x+Tz9653uVPfLouXeR/ZgamV+gF/FBgI8l7y3/zDVG5nTGaMgn3FzOGp6yNwB8TvLihXhbBPfKi5hhHwNQvGB3G2MBCHIXaf1gUet3oZds5w8fdiUNaRhoOXj2I1x9el5h5yMhuQJn6An+/QntT/NzbHrZO/nr/XXWl4zxAS9/uHulUMs5UpYl4diiGjkf4A73ZdwRxzIAuyED0s/fMgyJazmwG+p2CLmzv6UIOYfh4NQlJfUYhXqtpLvPcGjWTGctvpW4iRWM3MLUh7aartTEqg8CdIZeyxODFZcardjTFgDkCmIY5YoH3Zsz2XYAWQ63zqTFSk4dO3+aSZ/n25XCOdob5HnOJFIJ8Uuhj+md4h8WhTjfpnh2dU6+JzhAKA83/K4xDFrymroMrY5yv1XSteXymqI0bz24UiWBypy/Wbl7YDmJS6bmHSKonRnAEgwUBSH37Ce/PxuFq256cabix/ENL3GMGeNb7D1I3kqTVOGZ3yAJalZaBWgx2gqXXSRw8fQsHTt2CneAUhi0KRDVtU5m20MyNETAP9UDtZT+g1tIfsMkrFB2Guea+hlRsesYXZH7JhIGjATQWa2CO3xy8+SDxJjOYR/b0xXuuxi9ef4IrTOVev/2Cq16yC10Dz6PTaA/2XluKNPDXmfkyBhJf/c9LHV3Hplp69pdI6lSSE27QZZwn83YykHE/BVda6BdmIGYXPVi26Zsn1nxTLvNMW7cDqe8+4e2RE0ho3SOPsdwWj7c6ceNbGp1PeIh2dDBFSAViINXWiqUL2rK/TfaFNNOEDneR6R4e4Cv4u5qdzbDC0xn1V9aH6ixVGO7YjB4znLgkI1tsW8gF/jd2xe9CO+N2KD+rPGaLZiPl+TMImSnQY7IvV3uV2m2BOmPUqh2MocE8NmJaflHkCIOQE3Lx0hUeiaeE7n+MebR0nfoz7+o12TrkDsq74Y372nEk3Zc3b3G9x1CpnthNg0nMU8vErQevUJttPNknBBB/+/4TV32XG3bOVVnEPK/Dd+OrlAgv2VGugefwc8/is9okyhWRQlqMCXIcA1lENkzy3ZdM4kTms6Eqse/tA45B37w7VKeqosaSGphi7sxcfnPuEaZ9lHiPhrsMUWlOJajNUGNqzAWbXQ7zC1ValUt/wyskloPyOchMGLTsP8M8Os4zmdT5XE3HmqcSSvKhq7FNo81ku4pbo2dKZaBE3QH4/OIl98R0RrhjvvFufErPxNuDx3Dp1465kudyYx282XNI6qG9eZ+O1bYH+c2UV5L0nCZAyz+dJTaMPIYwYzgj12ie/JSHuDF87TGTpBHQYIynyiTNH1NcYLbLBnWW14HKTBU4HvDEmGXBXKJJLkEGlmxfApXpKmi8sTG2HfJHvQKR6nIKqt8OI93Zvkpw1Tt27GBSyC/6+3taXZxX1ulm//XXPo48gEduJgXJ6GZRPKXY4BozMo+dv8s/dMpGc2YANyrEQJd/bc89MfKYgvYl4OOnTLzavhOX6rXJlTwJLbvKTEu8TP2IEYuCoNZCYtRyUZ53tTIsZJwTA41YEoynLz/A0OkIj2wXx3CUVnjzLl2hYB6lHDyZNzhzQyRMQ3xRYUEFqM5RRSvDVnjw/FvU+snbJ2i4riFU5qig5vKamG7lwFTWNylWQ88cPad4oULbkqlgCkVQRDqH4uLi4OMj/LzOPKLWd2MeB5fAVRvNveAXepirF1JF5A1R0I9uDBmP7sGxWGlzEEPm+aPJQAdU7mCSn6nYAXqw13CvSBAo1ZXnntjJs9m7zaTJ3iO41qk/EvUH4+6MpUhZZ4a02EsyD+jeo1Tsj7nJPZjdx5MhirwIH+aJ0LIVxHAGWWq2B7PW78DoxcH4c44fdEZ6YDD7mpEhUYVPmHG63uEwfmMqt2LB6DBjvrbD3HAn5XWZRIdfvnuJkR4joTJLBXWW1kHik0SedM36moW7L+7il9W/QGW2Cvo7DIBj4JFc9fVLHxsMmb8NA2d5YNamUGixyyxvMFMYeTHfZ3jOmHably9aDnCZ/J0QcyF/55STyBPIymKvIW/pCjMivdjBjV8Ziob97VGOPcAydngc2HTqPOLUf5Pqib3wDsi9rhRl/m/RC6ZGT8Tdg43vKcxiqmf2hh08yEgXp6woPTMdCwMWQm2uGirNqwSzPWZ4+1ESinA65IQ6q+pwBhrmNgL6kx1zwxlLtu7AfBcbbGR7NdfWpdjQgQTaagRr35hCCV46UxuXANTUtwstc+YRi8MGM+b5Qmi5rKwshTaJ9D/le46cvcMlAdGnpJu49Eu7wgzE1FrK6i34txLdrzSmdilnRs+dkZFR7KXbfWU3qi2qhnILyqHRuka4//o+O+QvmOgzkf9MZZ4KepgMR01diTfX6k8n2O8IgIHzX+hu1RNj1nph6DxfbpjLilHVZ7aTf9RlmeiALc4HKbn6rkmTvZXKTvL47GwuEAjfEAhKWiFbaSjzyVOmmvpI98SGTcHXAu9HCdFPzDb6EHcZqcx4Tt25H8+3ifDMTYCHRlZ4uNkSD9Ya868pG7ciZYMZHps7MBffgb/mhW8g/8p/ly36O2RHfUy8gcxnz/kqLeOEH0pEH2YbUX1WqyFOvMjPM+Qc7jy9g48fP8r83fef3mOA4wAuaaosrILHbx/zyzo/cD5U/lZB5fmVYBQoQNdJ3qjCzAK3kCPoazsQldjP2xu3h2GwOTO+A1CLea0UZa/OPDnyEOt2tUI75tGtsz+Em/dfFakx+s70k4DyOjsOLBvcrt3pKkKh+HJgYCDH0UrdNHbIXxWVSh8/IXnAGKkMdK1dTzxz9kLKWhMkDx7PjOYuXFpdrNsS8T80k+TRpK088aTcr1Jfx1atZrhYu4Vk/fg7T6Nwxs3IVEjCkq2V1/gmNbPMMhzTTLywJdgF28/swLWURO5ZFaRnb55hcfBiVJhbAbWW1IIgRoAzN85gkmAS98AabmoEx10C1NSzwF8L/eCw3wVVFlWBylQV1F9VH6dvxuLOw9dctd59mCqxTR+85tH392kZcsFTqIsHhWU09ezdyoSBRIIAW7J77iffwMfrN5C6+xCeOrFDXWOMO9MW4eaombgxdDJujpyBu7NXsMM2xRMbN7wK2YUPsRd5kjNLCmQzL92dvUxqUjXf4Uv7t++0Lv3cFp9fl9y+IeAYeaUFPbWanU0xxXor9Mz00XB9Q0z0nojTiXF49/E9Y7ov+WwQy/2WEnU1VwXNNjRDeFy4hEmY+tJYqoHBq8zRfLA9fA9Eof6an3jwUXWuKqZ4T8HNlJv4/EVxDbGI2aU8xdLZkjGRfYqKClRLxTzh6+07hq7e+OWYwXgk6g2SYGwobZCzajQrvKp/y0nF12qB5D6jkHbpqnTwVOobpEbuRWKXwf9RBiluxdZshvXTbXlaQF6imFO3Sb6FjNgqHY1h6ByFLSJf9LHuyyUJeVp9HPpiRaAhLrBL+fTVOx6LodzW/Vf30ca4DVdZdVfUxYlbMaizvDZ34dtv6YQVNnsxcKkd5gTM4S4/qbtf1v2CkLgQ7rEpSlfZs2p2Ms1OrppJcOU6dp1KxUCn6rTdf16zsWxmKWJd+rk9Hls682hzIV1/Jhb3F67D5YYdJWrkH8Q8OWtig7GowWyJLa7R+cphpBFFu43dj3HXWCoMtb0Jesz0wFzfjWi0oRE/dFqVF1SGUZQxptmZYpX1Xh4ycAs/hMUhS1BhVgXUXFYTMcln8Lvh71CbqYZ1EYaIPBGDCY7LoTpflQcd1eapYZ54Hh49e6QwxIMMfd0x2/JF5LkdpOuwRWHmOfhDl/rn1Rt+vaDVJL9kqdmcSyIK4l3rPABJPYcjqdcIvhL1BiNRdxDPhn9KulXATvqC1KgDuDl8Ki7+0PwfyTQ56yJbW+v3RbnfDblEqdvVEsst9+Nk3H2OXsx7TsQ8Wz1PoEq7ohPIbYe5wDl0L4a7jEb1pdW5RCEmqrSoEn5a9TNMQ7wx30KI3/pYo+/W0VyFVVlcBZ3NOkPbXJurtYH2g+Afsx3aZp24SiMJpL1VGzG3YxRmnnT2+WeujyicLdCxwo89HC8pzEAnNVoYUPlLnFZTJDTTx62RM/HEygVv90cj/cZtfH7xCl8+pCHrE9vQ9AxudGaxr1nsZ/lyUuzB3hw4yhhsOGO+pv9oxsm7Imp3RMVW+eG0FRmTtGHeTL9ZYp4iWWF1AJ3YzS0vZxqBoscjl/oh9ORe7qaTKlOZocKZoalhUxi4/Impxl4QH45iTFaDMxG9TttMG2pz1LBphzGabGoqsYnYv1VaWAmGkYZ4/VaxYOYHZlgvNNktNadGOK5ek1y+CgQ7GihWMVG/zYTojr3xkLm9mQ8f42vmZwkE41Mmh0VQ8pAqJwmd5+R/FnuO3+BuYD4cCnOPb42ZyT2dfwvj5KyzTNLWbbGqbMqK8yZemWutP9kdi129sSZsPaotrcaZQWUaW/OZnWOsDY8jPhjqPpTbS9WXV0ePrT3QkKm+rfttJK8lFTiX7Kg+SHqapECo4SsuXHuE7pN9ZKadKL+51HAbRILARQoxkL+rT3+hlzcepDzisQPBjouYtCaMQyIIlkB5L7p55dmbDZ3rj2evPuSL1TwysWWqrs2/jnFy1gUmLfs0nqEwo9DB1PrDAgtM9sCZXTACy8/YGIkWfzrzSHCvqZ5Y7emJwdZj0GBNI6jNV8tVa/XX1UdX667cBvpx9Y/ourUrxnqPRRuTNhLmYYw2zHMYHr58WCioS8xBBv2lpKc4ceEejsfe45ed1G/0uTtwDz6PYYuCOJitqM9PLWP8g0IhFPofUoiBnJ1D2ixjHNiHPSgFpTiAvICHQT9bwly/nGwulzpXEnG9y5Dvf8g57j0lYtlXsqv4qtMSF+u2wiWK6fzYGpfq/Z77fe5rKIZUo6nkd7N/v2Acieygeb8OV6w2ncD5I9xx/U7hjqkEDiNpPWJxMEdFdp3ohYDDh9DTtic0l2qi/OzyXLURcKyPYx+oL1LHeMF49LTpKZE+TOVR4NDAxQApr1JybR+KQVG1B6mkRv3teaKUPnsFJkkqsIues1RbyVcmtdHxCC+yFAqEGdQVrcQMVF/b5oeaf9ihYnvp4HH6MGbsVuWExMlIfu4h5IG4MmeWmk35301opofkfiNx7+/leLTFGs/dhUjddQBvD0Tjw9k4pMVf4RBXAqrRItVLK+d7+nda9Nr3J87gzd7DSI3Yg5fiEF4K9MjICilrTHB31lLcHjkdPn8uYhLWsMQM9Esvm1wohsz6ry9ZOHQuEQPm+sDU+wC2Rftiz8WjWBqyFCM9R6KjcUf0tOoJbVNtbNm7BTWybSKtVVrwOuWFzM+Z+WrJCPNE4DSVVqVXs3W7WfFE8rNnz7IbUQWPU6SJgaqmvm26NJQh1S3ZCU/nU1l32aF+FyOZSYS70xcj88kzhaLDpSFCPg5fGCTp/CXn5ldgUjlwzxWpXhHFedLS0/Ax4yP2Xt6LmJsxmOI9FZPdF2CWaB4MnEZg3Y71qLW8FlqZtsJYz7FwP+qOIW5DJDYSY6Bay2phV9wufMr41lgz8vB1qRhvhQBmTDBY+cbkqkPqPS0S+gcqBlfVs7tL9egFS4cdxWe+ubEPHiGp9/BSR4sJ/3NRhrF9e/wcqWjD/wSRY7Dj0HW0Zd5XcSAzQk1OW7+Dq6nCfycLn7M+4/yd85gpmAmLAxZouLYh2m9tzyPJFRZW4LGdCnPY13mqEg+NMQzhgIY6D8WPa39EH6c+OHHrBE+w0uES3OMNY/Lmgx3LzMjvP1vMQfg5RD0CPL0Eqb+PDqmoCAOdqtrZKp/NQ5CGHKJM+tX2vRRjGq3G3C65PXY2U0P7kX7zDq626yH1tWRTfXmdKvuQP6XjhU8g7s1bg7szlzHPbxZuDJmI16FR7N8+4enL9zyOM3ZJMCatDMW0tRH4mxm0a5krbuR8FA6i0xAwbzKUeZXR5+4iJv4BL0MmGyYHUkq5JKps0BntAY1OhVWFaktD9J0uxKs3spOld5/fxQL/BWi2qRkPDJb/u7xEsszJdufnSqLU5NbTz9QXq2OCYAKMdxtjkOsgbgtNFk3GOM9xcD/szt7rFSKPXGMGuTu0Opvyz6TWWvHCgDbMQaJCy7x0//592Dr5oFZnp74lh63q2YURZDXHq6CobA6lxV3GlSadFVBJTXCtU19mc3hztZSrx9++Y/bNKKm/k9BcHxl3i8EcMzX6wicAVxrrfitprtUCtyfM43YRqaNNTkfy13TllN60yoNUbGHI1RAFBjU6mPAIc97wBIUxriQ/40z39+ZdvEFBzym+sGUXiwoFiizqS7nEpQ55UuXmlkP5heW5R0UMU31FdZ6BpxhP3XV1UXdlXcz2n43edr2xIHgB/zfOZDNVuLTq69QXgxwGYazbeAj2HMXo1SIstArEwNm++K2vLWp3sUAl6loiT3MKtgcd2cVIltJDiNAXSzd7U3LVSREJ5EyZWd4ejYnmHIOZmOdyI+2SRXeZfZSoO5DDKSgDL43uTF0oXRWyn9F7Ep2+lMKlQ5aMyGv6rbtMEq3mqZTctMqPbfDE2hWZqW+5W/vHeC/5MMSMsfrMEMrEO9NnoD2RBw/9If0DzKO2YpLXJLQyaoVJPpOgZ6aHWX6zMEswC9FJ0VgSvAQHrx+E3UE7TBNOg+Y8TR5g1LXUxXjf8ai6uCrPkXFXfrqE8eqtr4fWpm3w65pfYb/fFYu9LRB+LBqzTMWw8NnH4a4UAJVqXLOfaTB3fuamSA7jlUWT14QSA91VoOrCdh3lREg057jqafGMeRp3KpnE0e6LV0ERUo3gvDXrj4xtpOKjCd5Kv08UEHWZPbQJ5m6JYuJWBrwkKwsfzsVLCg5rNs9NwSQPGIu0K9e4OiIJQniZ4piI2qyQ9FKUCNNNDH/6SjIWWYXBdIct/I4H41DcBeyK38ONYUIj5mTRP3z8gGuPruGn9T9xZmlv1h71VtWDjmVn2B6x5e696kJJEpWrvmkStae2UA2VF1fGT2t+wl/uwzHDdwbMA0Ow0TMIi8x24Nc+tviNrYZ97fBLb1toj3THXKMofiGLugCkwpsMcuG5seo6Tu1KVt+uZze1UT8HJN+RuKRUQkzqRH5YRDs8NrEtVOhHBjHhne8v2Yi0iwm5D/AyMFxqpSoxFTEXB35fe4xy2bVOVONNKiZvEDOfhPiQhuduAlxu0OmbWqvdCo/M7JH5/CXvr0PAr3JF2A0a2qY4czlFQXDZVx6pbzTAnh2eHXpM9kbg/vMYtyIYf0z0gs5YT+bNnuK48txmD28fY5DzoFybqKddT1RdWBXlZpfDyvCVcD3misk+k9HDtockH0ZJ1TkS1cal0t8ShlJfqo5u1t2Q9CgZL5ldxlfqRy5pXr/9lM9QLop2Hk3ialCSXHXcVCIG+rWHSz/DrV548uQJPr98xWyXfnLHbW4MGseN7EIJ1ch9TDKM5C1XnruLkJD0BB5B5yW378IlqQB7UmE5nhgBpX7pYZ0v4vsru1HkOstqzUK21p2J89l7/p4rjQic//bwCZ6JdvI7w5hRelFkeeZZUXGfIqlKKjDQ6PQt4ksFBhSUzVs5QZ+fAn9ubA+evkiF3T47Sa6LSZiGGxvCdLcp+jn244xRbl45zBHOQeyt83ANO4j+NgZYHb4GtZbWQpUlVbg3l5eZai+rDcfDjnj17pVCyVZqJEEqXJJctWZMZB9bIgby9o5oTYGkmwlXZbZiKSR16rbitx5S3G4CmuUcIME5Xrx4y/Mxk1aE8Af8dPO2TMM8qfcIXu9OXo4eM/ikpQ70xnvi6Lm70qUBU5+pUQc5iuCbNGrJqzsI9EaSjVR1IWlEVafMhd9x+Hpui1x5iEp2SE2UpMBvxBIxVoWt45FmYgSq0ki8nwiPEx6ceYip/vL4C06he6A9wgV6k53gGXkI02ytsDp0DXrZ9IOelR4POtZZWQcrQlbgSsoVvP+oWEECQXNz9oOSq1S6XqJZYxER52oRA8WMmioX81zr2IdHeqUakcwmIWOWDo4gIJ9fpWI6M8zpgHpN8sHb9+lMrbxAot4A6Z5Yqy7IuJfCbYrRi4KKPIiZm3bixj3p2F96j/uL1uWTRtd0BnBplJH5GfbMNirYIUNThwzRLeg/S8QjzMV1CEvP+IwZG3YUrjsrqsBvuDPmbFuFinMqcvVVbUk1zBOuRFR0IkQHjmCY+zCo/a3Gs/JN1rXE8DUuqMw+U2OmHmvoWWCpdSj2no3FyaSTXM2FnA+B+W5zLn0UIXLnyV7Km1zlILPO9vPkj0UDqrtmL/oUK8WwLWgo3xo1A5+fS+8GSi769R7DJB5RvTY8S09lPjmeQTMmwskO4E2nhk6S/h61muJjNrJxI29AWfThEBiM7CNpao0w3O+iTyHxjyHfpNEPLfFguSHSUx5zJGL/WeLc96jG1FCl7I6pVHNOyci9J27wkqWCUolsC0PnIxLPR94YDLPphi0WwSTKiqsikj797AdijYcAqi0MOR4p8sQh/LLmZ24X1V5VG7Z7PZjE8s/dw5972fAq3vSMdG6Yv0h9wb8nHHtJq2hIylNoolAhoq4N2hi47CuRGjur1eR2rDS7JI+9k7LCsMg0w6PNVrm3nfJOlBmmst7cG868quTsVrT3FqyW6sqTcZ0avjvXE5On9R2pNepMQYf9RYqnwTuarTHhtfU5jHStQx+8ZcxFfRbtmYFL0oikT97Py22jtlvwU08bjFwcjA22B2EvOAUn8Rm+8SUtM24zzAWCwxGouaxWrnve12wCJqwOknRjZX9v4IxtmOgwksM76DW1lv2AhS72aDbInr+GKi4KRr4VITKyB84WS00iV9beigXrPNN37kzSkJ+BNBrFxErzjCi2U6sZnjK7Jm+CMLlAT+J3zNsiz4cOhypKXzx/i/YFbYPmm3Dywn3JAzh5STekmRR8bGpXyBOTa0YEkwbjVobm83byufyxl3C929BvbWJqteBtYshTozYpPZidVpMxkqocATlFejn3+9sLkz3nSoxnZizrWehjobMzKuVpk0OdYEUBbpgvns2lUMV5FfG3eB6W24bz6T1JUjL/JUUmUr1e51EeMj+rpo4ZnFx94C8KGiU/A6k3CpXGQASLeCkMzv0ANJtzsenufB3RSXVROTJvN9e+Nz6kPOFBK2m18p7bJaXOb/YflV6pyqTSnckL6GoV8sTkzpIzb80l8JzUXNWXN+8Yg9rnC0ByaXTwGDI+ZcDC56TcyENZzEU9BIYuCOANPSevCYfu2G3oMMIVTkG70c+hH5cshJMe7TIViy3C8jeaYu9tutESYo95aGXcGqozVdlrK2FN0BZ4R8RIlbB5y41IvdFliEt8jPjEJzyafoFdxENnbvM96T9TVGxCduLqUFB5l0jkL5abgc6oN3Y6X+BAiXmee4rz1aF3n+iNdWxj8qmuLba5vXsIckEVkWoyupbl/C4F+njdl1RPbPg3T6yIm1JcNw1qV5cspXs7SaO0uCsc150jjchmS1lphCd3n/CG3oqCy7RHeuAEk7IFg3YE1tsS4o66y+txBmq+uTmsw6j7hmWhPRo2chV2LOsO4WF3aCzSgOoMVeiY/YG4W0lS3XR6L/IehzM1W7e7FS8yrMokGdX5U9dXkmpc3cohOanalST/iRMnIBSKXkZHQ76xEKc1Gq3Ny0CktvJKHqp7bzbQkWNgCAmX63Wdv5jrdT1Yvhn3GZPVktL/L2eNZIdKD0zYHfK4pDHQ1d+75vfESoF9oeI8Q+ejvPy4cLnRWzyxcmXM0zq3oOBy54Fo3XmjQpKHJN9VGT2i3314h9tPb2Ok20jufs8SzMcq6yip0q5ZL2OETGyGY57rsTBwCaovrIFR20bjRNJx9hxphQzhEYuDeC/ossjSz9oYKUkI372bjREK6SEfA2k2nkIMFMcN26Z4YuGUp5Auhdda0+3w33UpX2KT0gZcDXQegPRXbzgQvbiuZRQhpYK+pD4jpNtctVvk98RaGpZ6Y7ozo5eQfFJLjU+cRVJPifcYV6M5thqsRg39kg19q87sBkIgFok7Skvl+S+LfRaIv3MJQfsuM/XmKVFhrfK3Y3GZ0A07prWBb9guLPc3hNU+K9x/eT/f+ARK+P45P6DMIB7kzj948jY7uJjJmEdMfYTs5FNh1Vr25QzEjNgHSzbkfkjC1/6Q3bKNpuB9yvgWGn/hG5TtGrfg7jK15S+u81fjnA9JTafGzZbpib2JOii3J0bimbylCu0ki76nVdAYrsxc9FU2B7gdV7j0mvDddrjIpGnKqi24mvwEo5cGy9WplYJw1Ly8uJ7T79Pe48OnD7h49yLSs1v0URSYItkLjKPQecw2jjak3N2mmbPh16cCwoMimeq6yoOET149yafCKH2iVkbMQ2qO1GBeovkhRhbeN+VioBj1dr8TAyUPnZzrqpPkyWGeCnwK3s18aYMrTSSQCoo2X7/1DNX1ir+1VdoaIfG2xJN4uGmr9KQq886eWDjm9h2k9rt9ZwoxiRmka9hB2TBX2mP7BT4OgBa579TIihKGtOh7OpRd0cn838kmE++8DAvvGA56D9l/TaqBzVUy89QeMFuISpgokEihiFHMtuDdz1pJz+QPZ2pWnpr0b4nLNKnNGuhvkEoiF/tB3DEEDNLC9QgnnoAliZCXeegSdBzhVibMQ8hTamNTMNZFw2nGLHCFeme734tvrqCpXzOmQQdcPyvJV11OeiJRW9lvMmC2ON8bENNwr6tdb7x/+FR+Ucqkyf5sRnwhCkZ8tudHNtfVtj1wd9oiPHXYho8XE/IlK0vZtL1kyVGCoeR5Q3ruh0/fwic8HhMZE1N4ovFAB/7VbNvxfDZhWdFnJnHCxzdCtJEBvmQWRgmEHUwskyF1JJUtfWKkwmZoppn2CCca0rKu+Gi0ClSDzCw/nj9/nm8W3fq8ruW5PJlqMpwv1mWGJ1Nd1I6ONlb+aOwmuPqfzYaMXMG9uSvxOmQnB8Mj6/tyCcVAqJvZ+JVhGLc8hE/72XHkerElzdK8HmIaSst8L8amS3PWewyuRjTE01s7CuGT/sqegaFoqIGaf1GPSF7nJ2PfCXBfr4c9NPUczsilxoRC8a1duw9Anxl2+TynxcF5kpU0+2ISlz63x8/FnfsvZTa2lmar/Mw8lXB2ewpu1l3mvRGUlCpBKX5CMQtyJ+WFIxRHpB7o71YpMLKJwg2/9rHjqu35qw9lygQUj6FZXevtD3O1SzYGQS3kYTo+lCXJHPGBWniWMBVfs76pSOpEX6VD8X0dadHlp7gPIQEas6U92oN3xI84nFis2iV0Ak+u6tll1e7sWq/46YG+4pM9xzvk0/UU3qfG1rm6NzSKpyou/9qRjxiYvDa8+Agxe4Ch7MYcPnO7kKikwFjg7is8x1Mw70VxjD7ThRzCURIbQ1pThJXWB3ihn2zm3sLDFMF7E4o1huUhssPo7xVkVjKSqQXgGWarFfc+qY8OYp9xdVwIHcv26VsYYql5FP6a64Wfu5ox27RwLKpxX3vM37KbOzVRx5J5Rw7yfAmKS/PF5EEbkI3YboQ7byYvGQboOKtYBuo32SNEQyd/5JfmRuScObntORHnh5sseEi8qG6hlJxcZrlfZsaciAzzasW05yUDXpe5/1HHkkp8uLRZdJM0O8s3NIU8Kjrge49TFWYeanZev5gIOj0TGd80plJWdDkz4yMuhrVDyvnGSHtzhSdLLyfeQeDO0/AOjMJ6SxGmrPRnUkbSHOKnHja8/JyYJau0k37yBIMpucqkUJQc3ejtHDk2OrfnjQkPIOZ21nITcOZJ+L073r9I5VWZUmdDMIZYZL63EPK/EDb6YSrqyan+cjadcEVhB6/JzUiEja6pt7XEEeUGfe34uKRPJVShZBtRV3l534sqP8gei014VCh6/flzJm5fmIbY6BW4leCO5OTbOH0+DgLfZViwfCBMzEZii6UhlppGoAGT4PGJj8vEJnv47B0a9LfPk1y1gIa+3ce6ba2rFVOdYbuGxFWu9GEeR84HonxXjtv+KjACtsLTUhOGE1aF4U5Kqhw6HnyehaJpCu3R22DhdYKr1w8fpUSZmeQhRqtRQuYpiDki71OeCYQ5qpJKhcspYNRSHGbBlgicvpCElIeP8PDRE/b1Ia7GuOJ8TBiO7TVEzDFnONoboFX/ufyzVWq7Aas3jcMqIzOE7L2EsrDnKWJPKaB8iITsYXW19J2HFSOB7CfTCwlURMZXXulDDSw5SKzvKNy787RQizdya0kdyfsQhMGtomDOKe8oKIrPtBvuijFLt/Ng3gqmMtexr0Pm+Mmttop3dU14lp8SlAQik3bLSVXSTItijVtZE33aM9W5xBduwgjs2MXsxSNh2LnTFdG7ZyLxvCHuXVqAEVMM2OvW5E/VdF4Nb59VePPmbelDB8w+oiIGqRl6ppkMZm3zLVoCdXbsQwxEhtModiC5NyvlMS7/1pFDQ98eO4MFJrvzSR0a71hcrVReInB8xxLAQEtyk1VabS6TunGpQdAOxny8Nkk+ClRS83HKflNk3YR5cZqlGE7XdbwrIqO2Y/mqvug3bjy6j5yEfmPHocfIqbhyfDhuxG3EgDHjUbHZKqi12gi1lhtQq8l8tOm4Ekf3GyPlwfVSddYll33q+giZGKca+pZwdhM+CwlBOZkMVFPXqRWfxtPBjBuCOUQNNUn6EMzi3KUHuTXkdbpbYTez8ktCZDCSpFD9/fscsryzvqhFbvsRbnyGRL2uViWDcHD3eAu3X8i+oux9aVIKVCo9drEPzMzHMImSv1dR9VbLEObWHzcTd+DYkjqIKF8Z3hVrwrZyPZxULY+T1WvirOMwPEy5U2JEIknN90z9B+29wrvxF3Um3Sc48+SqvzC8i2wJ1MatBjFQv1n+uVZ8+t0HPNtO1RXUY3lg9mTBLhO9cxNvJfnAAbsvFx4nkOdgSO00H+zEAU8UzJRZLKfgoveebbiTf3YykCk88JjdPnJ3ySbT1DH/LpKRZouQeqvIGJU/f6v8UNcV5qGwsJrCXpeT9zNC818nIKJcVVwcVgm3r/kh2Vcf56uo4oKKCs5WYl9VVfj35+a2x4MHtwpBPeh/KdhJSWR6vtADV3mYguJtFJeibq2Uf6tYzOWhy7X3+HWIRCKIhYGWRaqx6vp2aYLQmNwPQXkhDtVYsgEHmdgmlTVlXUSJA3wUfyCvRkuGXUK4FSpJplkcNOmYR3vffeLz0p38zvJ67up65qWSXHW6WjLj/5RUoztHOsZfe8wZqUKbLWWk9kz4+Cqyn8grJc+TKkpWWh3gnl6F7KTvpGUeWL9lBjSaLMMsrbaYr9UKARU0EccY5EKDcrh+fCpun52Lc/XUONPE6ldE3G/lcEGNMdDmxrh763w+BiL1usJqPw8eajI7Ue33AqXdJSgEoCIDOr8DBw7QsLrrRTJQ+6GOt45GH5Mc+uOnPGXBgWLXb/M5ombbTpTIVaQbQGpu6LwAmZgVMqbpVnz5UvQfvvWAbYr1Ac4IJWUkynAH7L4idxrhGmNcisCXBp1IQVhLn5M8hSKrqoNyWtP5IBg/bDaZDtN6jSVMQ5Klgmr2VxVc3a6Hq6emI6Z/JZwtr4qEwZWRMLIyTtNrplbG82Sj3DQHdZkrjfeZ72zaG+N09oy0xMTEnGF1zWUy0HozrxN79+6V2D7rJLZPyhpT5jVdx7bQC5x5KEtNWWPqkE6HSl9JJRAW+R77nuwnEpWzN0XyEHqFIg6BNtnC62SJAl8EdSVviybwyaPeiAlsBadL3vKFqdxdzFtsyjzMknbDoEJDaf0kZVHK45dISozBkYE1clVT7J+VcaGGGk4xJjk3rireJNRFrEEVnOtVCefHVsUV++qMeari8koNxO+2RkZGJq/xKq13m3/u7eFv6aD377kd5LZNtEp2PszXb3t4eDgyHz3h6YrLjXTw4eY9HgshtUIbOvBvP26faGVjVygYSDhg4noCZNNYRsmcruIDdmvtDykUNSUpQR4QzeGi3M6PPawl0iLvjDC26jADmaRbaWawk9e4yekob2Agr51FpUZfvmSV6HkesT2PD12N800rIZYxUOL0qrg0kEmc+uUQ/3c1XN6+DsnhI3HLWgMJllq46FcDZ6ZUxaPopnj1LB7Jtx9xlVVWttuAGcLctje54ZedOzFrlecJmQwkEPg5+Pn54bGZQ6704RFWZo9MWhuu8MQ86UV2bkX22SnJ5lMiNCb+Pp+NZeUTg43MnnINOs9tqqwyCM/S36C/tZgZnlS5IetylMtO/6R9LHmXNcL83LkZi3iH2jihoYrzo6rgmqgGri5TxwOfGki5ZITEqOW47a2F48z+OWhQGad+LIdrRpo4vbE3VluFlo3D0UpyNuTaF6S4uHj2b45f1Dv41pY+7knov1rs4opLjTrzZgUkieiQqVVK2cZUTHDo9C38t0kR3iK7jhyCiWvC0HKIE5O+W7n3SJhoI5foEqc/8mFw3t1jDNIBF5hkuWqrhThxDRzrXhEXF1TDuamauB9YC6f+qIjjTLVd26CB04Mq40iXSojz/hGdDBaV+lwoOEuVGzS8RRrdvPsYNbtSctV+mvShK6LASVETZyGOSR9qbkliuCxxtzm6dbXNgWKlCqUjvheY7EtWFs+YU6u6YQuDMH3DDnhsj+WVJyV5P7KTSDpTCxqakVbaj5qVlYnEs3vw8NQfODOmMo52rohznSriRC01nJtcFY/j6uCM6Cck7+yGPcF1sCO0PlLiDRC/qiqmNf0DlVquVzgAS84JjWGQBvnNIcJ+UXJVQ88hQioDBXqJe5/6tT3uLTPk15NwOaplHBOh1rfSIKV0cDRe09DlKPqyW0AZeCr2o1HaFEJ4W0bIP1Iv5OJWK5h2aCWRjGOXb0cscwQ+f8kqU6YllRAVnQTngLMcakshitcFVDiB5l++fIFrEUtwdX01nG9WHjeCauK6c31cONATA8eNQYfBs3AtZhDm2fyC5fY/496F/kxiVYOnTn2Ub7FR5r7Ts1GVLc2op/Hl2qPc+f5OXBXKu4akFBPXIzVOxQmUXNXUt3/foKegcuHO9U37tjyq2x+3b9zgPQdLki0vTuqQSzhn8y6ZeGRCC/7W21ZmIK7lEGdYCyQt5hQ1iinhSfGm4iLHBDGZtDqcj8Estf3EpFTkketoPsgxnzdHn4GG1VEPRwLP5TBsevpH3Ajvg+julRFnUx8BAfWw1OZXJJ3ug2Wr+sLKohdiD43B+WOrEHNwNa7HOyDuxCb4ixajpk7hHt967CLSfFvKbUpwQen8EpGq5fggOfeS3HmKmpdvZyrBCGk7di3EQDt6Lq0u8tiGhIQEmLofL4N55UacKUiKkHv/tYgPR80F5IFaULdSykdR04OSMg8hBLmXKOfnb8FsnLADV0vlxRESsWYxQ3JpeB1NPCR0AR3q4xtuuOxeA/dOd4e7qCG2uv2GKyen48wxe/h62yI19S1ev34Nd3d3XsN16tQphIaFo/ckp9y/+cMfltwDlVYTV1IiZus1TZDdwcM4u4OH1VgZ0FbRh2MnTvGUQnH13iRVCFtLt6sRu03UXInGLhowu2kjc30pQy/BDss+ALId2v7lWmLMDkFRCRBOorc4dUOZZu/wOLnKdKTBR0YtCca1m89LzEiE0WnYz07u9yJjfMyy7QgztcNxLTUkeDdH3NFx2L3DBR8+vOPMEhERAX9/f3h5ecHBwQFhYWF8EnNI5BFoaW+QZPcZQx49e6fM8NmOfmdypWcOSlFTz36QLGz0zTWmQpm6lNB2C4x383KZ67df8HwSFbkRp1N0lQKN8u4zic+lW/eVyv2kAWoE3yAxTbMjCoLNiEEpdVClQ+madFPFLeF95AXhk/faa6pAoWer22oJRIZtceWsHd6/SwXF5qhe3c3NDZ6envwr5aYoOvzpUzqcBXtQS8cwew7YZph4HCtRo6yi6DBjRPU8qFFqSq+pZ5tVrbVXXRkM5Hdcd6S9VETg35t24uHTd6US6XmJ5r1XLqPu62Rn0S2hFi3NmPTUYbqfQOTVZNV0KVj/3niAA9bZHUTK07cy94HsNPLsFM3Sq7bcBGNrDy5tqAk4RYC3b9/OA3kxMTF4+vQpf++jMZcweLoDKrX5VnzZdKAjuzRlUyBA4z1/7G6db0idZNaqg2yIq42TILjmHzaFiu7JIytLz4RuKE0FUvlvQjsUbdnSSgLd1ef5weO8yoEKJq/efMa/J3uhVN5rS0OMXeCGCxcuIC0tje37Fz4JOo2tG1cvI2a7G9auMEL1jhsKXSKHPBMGFAaXsXMO2puAWnlKvIl5eA9FPbs09Y6uLWUyUOdRbvZ5sdG0EdQSrizjMWSTzDbcVSQo/3uCw/L2FCJIw5Kte7HG5iC3dSh/V16BbDzZSmrZZdZlI+024QedjdAdboke42zQ3sASDboZwmjqGAh7qcFi8tBC45zITSfJWBpjmapxxzPXvmIezZCHeTI09JyHFo1M1LdbJcFGS4ymcStCy0xlSUL2X3iNlqwEZaUOJhixKIjP36Jhd1SKbOQazW+1Rhmqo1r6FhzbnZ6n3p9sMo4gOJ7M8dCVO5h8F8alSTmNmdNBXWOJ8eSWVi03Y+LYFQgcUBGB45rjx64W+S76apuDxXqiVCVDIRMql6Lnt/A+idW2hzDLcCdvGFq1wDPnMo8+Yx4dt2FydK63n5iDjSavoDQcXfDDU1HcIGbwqhaB2aHDk6YqySikxlYkKXgdWSkOkLLlYQeuFSslqZaNgm5lFUzNqfagPSWng5wPQjRQDq/nVF+5cNydhlggYGhNBBrUQr+/NuRieyihTX2IZEmWkH1X0WOSD0djUnyI0hZ8FaHCOfPocuZJ19BzGypXhWp1XcdeEmy0CZZZ7iuR6sr7WjpwClgl3n7O65W6TfFFhSKaUlJ2n6bvyfMeD5+95YNVfqL6q1Yla/9CXU89Qy7I/UwfqY8idbzXLR3GpgUz7PMWaUqzO6iaddq6iCK769fTM4H7eF2Ie5fDsilzOTOQsb7B4bDUs3r84h0M5vrzJgolGwm1Jacm7IOmjs0AubuV1dJ2bsFb3utZ8pJjWdKEWuG6BklKdymJuIUtcnNpUaqA6rebDXLkBrg83o1XNt6oJMxKOCRSb7+xm11ODswOxa0odqRI9Sk9Lz1TOQUm5dAoBXkuR07chaLGVLxQQ0oAUo1JC5PpE+DXRxUOE/tAs5M5r0WThmygYCvvxFpCtU+xHu5t6du+ZjZPlxJ1bK2hvU2LGGj25iipD3cy7h4GzBKhKjsMVWkVEa0Uy499/KR4FptSDoR8HM/sNQpoqnc0kYzvzMYH0Q1txJiM9H7eHkeK2G+kCooLsuYz1JmNQxKvpGYk7TXF2WjcOBVxUniCmEeN2UHjx6xGYP9yCBnzG9ZYRnGJLE3lm3ocK7H6pTowiatu/0C9s8vvKopQnW7276MOni4kYkkVVSljw5LU0PVSdh/N3fRs7BL1FSJvYnd0ErzZ4W1nLil1lS8rX4BsCgprUGWHWjGSlTBEpQ1/kMSkMU1k/FLTrYNH4xA29icEDNbEk4tHpf4OIQto5EKJvNIO5jlR5gtVOzjXV3iefLcJzjeio6Pz3QZSU2XtjZA6IAzvP4G+ZgPrS+Jx0gwOqhFbYr4Xbf5yRd0ulihHNlmLTfi5hw3MmfQoqw4j+bL2GZ9wdKMBRL1UcTXYSuprqDekvNqAjOUqnSyzGyk4hNX+3VVdpTS01c73WA42mih4X0KppuTJihxTJWS6DJVCB0n/Rh27CL5KHsvX7wAOIqah6YXLt+7DsPkBmL0xEjbMTjp96YFM5IAsqURpE/IUKahIKY+s79jzKCHIgjGQCg6u7FcIGfeM7RmNfZLXWM6O8WRp6joZ0hxdldKSQOAXREk6IhL98mTKSyp5qKmArLYtVJay2voAWv/pjHrsVpPrSQG+yavDsJ3ZICWphC2KqGLi2yRkw3x2GaVYyAAN3nuVZ8jLmujZqWbr6Lk7uHrzOWe+4uZz5KWXSbHME1NByMgfkfbyYb5/c/Q7W2wahTDkFGluOdgebQwcX9bWdRysUlZE3TmpSyfRKnaQZcY8zKht0NsWlt4nZcIM4q49QmsD5yJRABRPIRDUy1LgdeiwzLcd5259kRvN3N9Bf4t5T5+yym6TLUPl3dUYk0oMY0MexqBgKbWjKa6zCWf+ty8RMaEB/PtXwb1jod88L2YDth7qInu+CGOaKWtDsdnGD05uPtjmKT7p6hr5i0pZkp8wYCUl8G7ff55vFlaxNekFPbFWElBT/e7WvBF2YNQVDmqSRRQIa/OXi9wq8OdetjxGQzDMkoUAvvI6scolwAZRtQVF0EubqCRwWY1i8EH12H4ZOh3NhthKf7CszAycMBsPUU8VxLotz32dkVu0zNGXg+cF4PCJeAQGBlGNV4ZYGLyhyHp3RUksDppADLRia2SRkqDJQEee6lhutZ/nk5ZZ7MN84yj+lQaDEAaHsMckKYorc6GK0YmrwhRKhDZg+n6t3UGuCoqzO2ifCdurpUD3DvKqfjdwQeTR6yVSN3mBc7+UIIpOiFCKqfHqEinPdT3SGWJmB+2a1RZZnzM5c2pIey62R32meWFn1D6e2Wca5mKAYEd7le9Ffn6hPb19BKjTZavUTSS8MoHFpI5ZUhD26R58vsgiRHkYiewW+my2TCrtYi78rfuvc/FK5A3R6AOqjS9t8R0FR4fM9ecGs7yGPaUv9Md5KvRcNE2I2g377bqUO6ac7LKXtxPg168cgg1qwMVBJDWCrco1wFamrnwhFAg/iEQBa+QeYaA4A+1svtJoGyp1MC0kxjc5HymTPoJ5iQoXf1JgsEpx2XFiSA0dM568JOQkGctlWSRAWCNqVUeS5ZNMb1IS6By5JLjEaRdpzETgLoq8t/7LFUOmukE4qhH8+pbHqikzUa7A+O+KHcygpW+Dv1d7fBUJ/IPF4qhfVf4T5O9/U/OPsU78A+T1nMoa1sHrrJgUoyqMfwQuqBTM2mn0Nt5ldu/xZG7LkRtPLe+omdYfE7y/S0ubqu23wGVqf+6NOU3ojtp6Zlzi0LnxPJa+HX7u6XjC2j5EX+U/TRSNpuFjOR92HrNtyjoOQ3Ee6l6hWgz2mjyhKh1NJSrue+GEmHSghOff7PPQSARq19d0kKOkKUSrkkkJwtJoMXVSnRnLat+VeY2wbPIc+PdVhf/wH9Gyv2V2DoumL9uf1uzsOFDlv0WaenbJFJ2UTNtz4z2Oy5LIc1pgukdmuTSV8oxcGsz7SlMYnxapCsorDVsQyEcrlNWtrtzOmPfMIamR946Q4X+KvSdhZTQ6mX0XJlDNDhUQUoEAaWqtS8ZAvf4ygluvinDsrYkuQzZmEdyUEBUq/23S0rOPrqYjqQsL2pNQJkxDgC2KcVBTBNLhsm42ld4IIy8VmUOiIsRNzkeZoW9ZqltOJTVuwbHFelVkMM/etJMZ6iZlxjiEa6L2ePQsz1+l8ba/1D2foCqUFJbWEkc1O+FZpZMFlzYNe1lj4189ntr3/MF66lSTxir/FNLUtw8kPUqQz+JC+nTQFBgke4a8HVJNtMgDosYHF6494hWZBBmtXUx/H7K1KEYjq+CNqjdTU1Px4MEDXpUQHnUUk5dtQ92uVlDvbMXD8gVXVfZzkqa06aSWKWlIBXKV2K238j4ud7KTVDh5n51oEF4pDWJSj7JGUPEKWrafVJHbe5pA0t2M2TVVO+dRUfp27zT1HQKr6zkM1da+UEHln0ZaenY21J1TvPOSzDTAyfj7vMlm3xlCdBzhzkHy1IiKhuB2YP9PzQe0mB0gN06YHQoVIebYWsQsVIFw5coVUHKXqhSEQiGPZXxbwkyhUPzY0t736l+zt52q29X2oKauzV62dmvqWe9jz3CQifUYLT3bBA19h0fs/zPpAH7oYotxC93g5S3gdVaRkZE4fPgwzpw5g8uXL+P27dv8vd+9e5dvTldOGoJSLQo11qThdD1tODqz4CWhRpmvXr3CrVu3EBsbi/3790Ps54+N5l4gp6ZmF7s7zLRw1+hsZ6DSQEpp8T+JquvarfitjwNepRZu8/HgyRuMXRZS7PzNErd8GeGGO/cf8QPct28fH3qWzSRfhcKAu0JhZIRIdMLYT3h7olj8m66f3/EfjYzeqZXsyR6pVmsdULfLyFqdPD0fjxT6nl0pFO53EQojdguFQQlCgfgtvV9+JhUgICCAMzAlmY8ePcqrQYMjDkJnpC2qapuhQnszLtW+LZMCS/JzCmCaOEbiQlw8zp49yy/G7t27ERwcXPBipAsFfheEQn939uxTxOJdDVX+TaSpYz9+1Hw3ri7yEpUoNy3DRkY5CDj1TlthbJ27gVnsMOOFwkPWQmHqUF/fOrX/k8/u7/9CUyzu11osTh8gFCZNFwpPbRAJDrgKfXduFwhCj7HPligQ+D0l6efjI8A6U0/oj3FC7W6EpbHLUTGFVq0/mNRb5AYK0rJnZJeCmFWUJBCIj7DlIxIFrBeLA0aLxRGtt237B6qlklC9bk49LO198OjRNz196foT1PnDomyMSGbr0DQYsrOYesGUpR7pvr7iXSJB0IwQQdV6/5Z9CglxUQ/yQX1Hx8SmfceFddDo4KGv3tm7u7qeV091Ha/e6ro+vdT17XpodDLv0nGIo7a39/4mISF76oWEoKLK/2daZxTcjKTBzZuSAXEfmN5vP9ytTKQNGbOa+twY/Kqpa3/i556Os4yMdlRXUdL/H9q5M0mDGIgMWKKNjodLyTgm3BuSiHP7t5p69k4a2ttaKHf6/zEJBaJ3ZOhRaL5iuy0KS5xcxtGze6Kh47i6ent7pbT5XyCRQJx0lHkJ82QM4cjbW4/iN1R7RIPdKrSmxKsxqnWyRE1mONbuYv+suo79chVto6rKXf1fkkBCv8Mi/zCe15E6w6vNFj72gLqiUiMlQu1RusFNuBcbzL2w0dz70/TlvuaDJvprKnfzf5CYa7l16jI3qYD6Bv3seZlu3tEBb9684TENCWjJf29AwO5Gyl38HyaxeHfLZoMcsvJm5Wn1mi7g053zUnJyMqjHtFAoeikSbZ+k3D0lcWIek4NkDJREjfWcJuD1UHlzU9T0SBIAZCpPFPKTcteU9I20t1XQ0nUMJSb6tY8tjp2Kx8uXL3lfvmvXrvEefRT6FwmCzEJCQsopN0xJUshITUvHYc6STV738+ZraHqLUCiO9ROE9FPukZKKZyMjqPn5BbfzEwaOFIu3GwQEhCuNZCUpSUlKUpKSlKQkJSlJSUpSkpKUpCQlKUlJSlKSkpSkJCX9E+n/APK5XHtefLohAAAAAElFTkSuQmCC'
p39
sb.