ccopy_reg
_reconstructor
p0
(cemoji
Emoji
p1
c__builtin__
object
p2
Ntp3
Rp4
(dp5
S'emojipedia_url'
p6
Vhttp://emojipedia.org/flag-for-Falkland-Islands/
p7
sS'index'
p8
V974
p9
sS'code'
p10
VU+1F1EB U+1F1F0
p11
sS'apple'
p12
S''
p13
sS'twit'
p14
g13
sS'gmail'
p15
g13
sS'related_to'
p16
(lp17
sS'name'
p18
Vflag for Falkland Islands
p19
sS'known_as'
p20
(lp21
sS'default'
p22
Vemoji
p23
sS'bw'
p24
S'data:image/png;base64,iVBORw0KGgoAAAANSUhEUgAAAGwAAABsCAYAAACPZlfNAAAIGUlEQVR42u3dC0wTdxgA8BbMFhfwtWUzLohRdCqR+Uh8LFZQRCYPH8jkMcecsgCiCE6iQ4tjiooo6GBbZAZQQZGIok6hCPIQQZQi6nioCNMNH2xEI04RLN96/9qjTyjtXVvk+5Iv9+/d9VL/v/vu8e9VOIDRq4KDXYBgGAiGgWAIhoFgGAiGYBgIhoFgCIaBYBgIhmAYCIaBYAiGYTRgBQUFgNl7koBd+8BavagVX+uUBrV9xWRz+7pu11hTDowNNDbBusLqM2BMw7EB1h1UnwDTpAO06QimwTTFeuvBetoZmnYIU2DSqJrkwMqRoFeCsYHGBBgbO9JbA6ZNJ52/VMcKGLVdrCoNwZjas7UFw6rSAkyu80Qiraqtp2BYVQyA6bLH9wQMq4pBsK6q7bbTMpUdWlx+TyMw6XqKVfW8rAKhdAXTphK6A8Oq0vLGmc3oDoyVUW0E61tgxviZ1I4lvg3JBBgn5CJjiWAIhmDqwEZElEJHRwdJBOsFYNbW1gQrNzeXJIIZMVhZWRldXbJokyMLgRtShGDGBiYUCmmk5uZmut1dvru+CMEMedFB9ZO0wlpbW5WAZKtP1aGTUTC8D+sejAJoaWmByspKucOj7OFSMRHMwGBtbW1dAskm6VwEMyxYTU2NxmCsHhI1fYPsCLxsUCP2chgikU5gzy8L5dZt2n+YHtnX17idKjBV5y0pjkj8b5bOb29vNzyYptUju4dr+n2YNts2FJhiFSlebNTW1hq2wux9knpUVROc47X6AtPGJb5H1UZ9Ln2CWfKLNL6kNxiYrnu+Ns90GEu1qRpL/C4pX2O0deJ19QamaVU9OZWtVFVMPIRjDNWmbvC3u+EpdctYA2NyD9f1uURDVps6sAV7CyA7RwYl8LRhwOb6JKvsnGcFJSqriqoCfTxIqq7a6pb4qqw26t/BCtiiESS51uaQmZVLv6ZzvJnyPCr1eR+m657M5LP1+q42JTCHYcBZaAmcCeaqYWTT9qNORH2A6VJVbP4YQtNqE7W2MgYWlfdX52ddYCkHI3ejroAmjZ3i97MKxuQey9bvwzSpNibAHj57pTyCIgMSO2Mc3I32Av8ZI8nrFhOOEqTsdhgFU6yq6qlOZH76uT+M8gd91OfqqtpYewiHy6WbGQF20HFtFjQ13qfn/eg9Tf8P4TD95BFbP5ntqmPZ2u6G2RaQxp/SCeQwCjbMG0ra6+aNIdMoLzt2wfr6A5pdgSlemsf6ukKY01joEIlIdaUGWJLp7mX2ELfSirRVvQ/B9DyWyA0uJFMKhEqqHT7UDF4LefCe33F6vnSZ3m6cMSVpwdtNd/ZQz2gynWS3WA6Fmv7mNxKWuNjS8ylAVWCmn2xBMNbzTWe/v7lUjLZLBlDSNgnOh53OY8mV4spFU6DfGgEMX7qVXm/IptJONEP9GKIv5Vi3UHIoiwnyIdPCuqcQvcoGQqkbaDGCYNcE+pw1Y7ot1B6bDH6u1pBzXXLVGBu8vPPQimD6OY/tC/SAJ/88pi8cKIT1fitJO+fIAajZsZRettbHk25XRriRymNynBPBNLxSzAlxgDDv+aTN93KABw2SX4qW5ZwhMK9eviCvq68UQ0o0H7Y5joar4QtpsLb21wimT7T6qko4nBBHAKq3u0PlxTwas2yTK93OTIiBDP/Z8MsXkyHKdTyEO1gx+i0CgvXw8n5Zyi2CdmiFLZlv4b4FLqx3hAErD4LfzDGQn55EllPJ5OU8gvXwkMhdV0wDpH49jYBQV4jU67Rv7cRTyVO+1PyqSHcajHofnsP0mP/WCOH2yQQ5NAojYu4oMhUEz6UrSjZlse6cToTiLT4Ipo/qaizJghuJkfCTtx3caXohhpCglYS5QKk4pUAnA+zo9hX+IrJOu6gDzmWkQd3vB+FSxDc40sF2Dho0CO6ePQRXY0Jgj+tEqD6yV+Z8VgTlb64CZXPjwun0eetxZTEITmXA3XMpULLVF8zNzBCMzepqf/kfVKXsIW2rwf0hJ8BeafR9xzIHyAqyh/g1nnLzqcfcHpbnw6RPbcjr0kg/SJszROcqQzA1mZSURMBeNktumLd7zgGBnx3YWphr9Ji4h9sieCQshF83BZHXx52HE7Dk5GQEY6O6GgRHQRi3gYA1/3kLzoV6QLYvD8LCwsg69xqfqoS6JJQ8Ss7n8+FRRREIj/4Mic6jCRh1aMwLmq9TlSGYGrA7pxLhSnQQAWtprIcndTchPCSQLBs7b5/KLznp8UfxcipWTB0J/Uy4kOk+joDVZx+BvGBnBGM6TcaEQ216PJRs8yVgHA4H+pmaQkX2SXhwJRfuF2QCj8dTWWG8mTOh8HsPyFvrBFwuF7xthtFgDYI0uBDsotPXLAimLsVIFzd7i68MY0n7cnYmNN0ohcuZKeR1fVYq3DqxH0oTIuH6ga1QEb8RvHgTIXX1Yhg22AwEqz+HMyt48NXEjyXv3+EPDefTSRvPYSwdFocMNIeqw7vh6p61UBDqBn+XF8Gx+F2kwqRgVakxBIyC2PalI7nfotqjPxwIZ31nkcPgzaQdULZzFQzo/w5eJbKZ4auWw82DURA4/zPS0dbz48jU1MREDiwlzA/O/OAvPuetIWAm4uXS3xtQEeTuCGVRgRA4axzeh+llHHF0uNKy49lVKs9hJwTVSutS78eHcPD/S8TOQDBMBEMwBEMwTATDRDAEw0QwTARDMEwEw+weDLMX/R1n/Nvj+KftMRAMA8EQDAPBMBAMwTAQDAPBEAwDwTAQDMEwEAwDwRAMw1jif+0uEt3n/z2BAAAAAElFTkSuQmCC'
p25
sS'version'
p26
VV6.0\u02e3
p27
sS'uni'
p28
g13
sS'desc'
p29
g13
sS'browser'
p30
V\U0001f1eb\U0001f1f0
p31
sS'annotations'
p32
(lp33
Vfalkland
p34
aVfalklands
p35
aVflag
p36
aVisland
p37
aVislas
p38
aVmalvinas
p39
aVother
p40
asS'wind'
p41
g13
sS'andr'
p42
S'data:image/png;base64,iVBORw0KGgoAAAANSUhEUgAAAJAAAACQCAYAAADnRuK4AAAABmJLR0QA/wD/AP+gvaeTAAA2GUlEQVR42u1dB1RURxfGHtNMM039TaImdmPXWGLvvcUajYm9gIoVpEgXQXrvsAtI770KKNK7oIKAINJ7x++fGQQhrgZ1McW959yzJPt29znzvdvvHSEhAQlIQAISkIAEJCABCUhAAhKQgAQkIAEJSEACEpCABCQgAQmI/6SktPoDPet3F+pfq9hudK3vMnn5XZ8KVkVAf0n6+ls/s3Tvr2/jX1N3LagKbWwTUN1s5dnLTsdk7HeCVRIQT9Kzmjba2rc+h+tXgf3SYZiw1hSD5mhg9Eoj7DofCHOvEtj41ZUb2o2bI1gtAXUiQ+4347l+9Y8MXArw3SIdCA2/+Ax/PkMFatbZsPavLlXX/+p/glUTECMj2yGzrP1rSvWcHhKJo8YTPG385U+qsPQpg5UnzAQrJyAhY/sPN9oE1Naq2+bgi5kqLwRPG/8heZ3YRPW1UlKb3hes4FtLLT3MnPuL2QZUt8gZZ2DAJIUugYfy2FVGzLA2tn9vo2Ad30LS0dn2sZVHT2cKAmGlKPQbfanL4KHc6wdJmLgXwdKzxVywmm+byrL933xr34Zsrn8FVh1yfSngdOTjirfA9a0rlpon2Vuwqm8BKeiM/djCo6eubUDVY3XbXIxYovvK4KE8cxuXqTE92y/nClb3P0z79+/rY+by4SFrv7pCm4BK7BEPQb8xl14LPJTfHScLjl85rNx7XBGs8n+QpKR+fsfEuecfXJ+Gu1RSXDK8je8War82cDqymHYyON4tGYLV/g+Rlvmn31u695Kz9qstoMBRMr+HKRst+AqcNl66zwnXAqugYTJ6tGDl/6V0bfPGXrrm70wzd2+5aOXdEmMbWAmqqs6qx2P8GpNuAU4bfzZNGbYEQKZuTefeqkXfvLmll5LSx4PVDHpPNXP6eInRtertlt79/jBzaDll4lwuZupedtHMvUyCsoljuZijZ71oQlzL4YyYrD0VJu47qzRDN9abZS6p0rKdW6Fwa2puyKARPj55Q05tG/GZ1Dz/bvJK0OP8+R8H6lt/Mt3Uqd8uc7eGy1Zej/25ftWVLNlJgCNvkoG1R93xKdnY7gROR6YSjuuN8P8kUG56Hv3Q2um9eeYujcIcz566HK+mQGITZFn7VTV3zDQ/l8mmeIYXIy4xHenxCaj08EeTrdtTvuaO4qAwpCUmIi4hnX2GSgCOT1Uj17u51Nq/PsvSozKd44UY64D6YAuPCj9L93p3rmcfOxv/BnMr7zJTc/dyYzO3ckNzt0oDM/dyI0vPchNb/z6WVh6PnS09K/y5Po+juD51WVzvmvqO90YTnkoW97BP6jpm77DBR5OV3hhoOvLmkz6w8a9qUVNb8MW/HjAFolWf1+mEba83C9bPjUhNSkpOa/EIK2MLbupRDBpxPaYYia2iflj8uyOmbLLEyGX6GDRHHZ9NV8a74+XRd/Ql9B4phb6E94m5orS8BtVZObi75QBSRs5B6ph5uD1+IbLW7EF1VDzKysoYFzwqxqFLwdgk4oXtZwKw52IojsjfgMjlaJxRS4CUfipkje9A0TwTqtxsaNvnQc/xIfSdCmDg8ohwIftbzzEf1M1WssiCrFE6zmsmspjLzvNBWHnQFdM2W2LIzxrsHv8OwPyZv1mgzdbXzKn/7/9K0BTJRP1QZxQg3mDhH9lk7dZCJUO96TWUhkSgoKAA8rrh+HSqMnqM6Pqi9B8tjXPKvqirbURl6E2kTFiIuM/GtPKno5G+ZCtqE1PRkZqbW7D7jAOEhon/Izb2TXGPERLQcciHlaeQy78GNN7XlnySFFctnBeeFkPVSJONKyqVdJD363GkT17KNrlQx4xtrMm1GAh91/VNfX/sJagYh6OxoQllzl5IHP5TJ/Bk7RFBc1kFeNFV0wj0HHHxrQIQ5b0SobDxq6mRkpJ89x8NHA3LrydYuDebOgRW1sUlZiA7MQkPD51HcsdNfrLR2UcvsE2NiMmB0LdiXVqIL6YpwjM4A80NjXhEAJgweHL7d8Z/OQH5l1TRUlPLEzw5+eVYd5Dz1oGH8oS1JkyNGdq9v/YfCRwdqw9mWHnBixqoFt6lOCYXjoysIjxuaMCdtXs6g+cJ31mzG4/r63EvpxQDJ8v/5SJ8v/AqEtIeormqGg/OySF+4Nj270oYPAlFRlw8bmzkCZ6k9AKMXKz+VoKHch9ij5l5lsDSA0b/KOBo24wZZenR7EqBY+RWiA3CXnh/ghyTKGHR2Wzz7h85zyTOnwGUNn0lGgsKUVRWg0mrtF64AGOWaSI54xGaCouJihLuJMmSx81HZcB1nsBpbGqBo08Khs658taCp42ps8D1rS+Qkmrp+bcDh3YEWHr0VbENrG008yxmwHlnrMzTGyY2jZlDLNvEAnVDxH086hkAUfVTn3EPDY3NWLWXdyS2x7CLmLfdGHmPKtFwPxfpy7Z3As/t2etQd/sOT/DUExtJRjsY742RfuvBQ5mGEqga07Z+/6e/t9zA7ovlBMk5NDB2UCYCAyYqPnvDxNO5qOLHNrLcOwixH418BkCxH/2AqpAb7BoRGQ/ymT+Bh/DiX83w4GEF6lIzkL5461NJRl7vbtr3XGM5r6ASB8Rd0EsAnHZ+j2gGWiJi6d5P8W9K/q1618Kjry5VV6rc+yw+86Ib3nrUBo8fP0Zt8m1m4D5jB308EkUGVjw9MQoeavCWV9ahOjIWKT8uagdP/OfjkE3UYguxhXhRRlYxlu4xZ98hAE5nltBLAde7IfVvSACO/57j05RIwbPrfBD6jPprtTBrkz4qq+vRkP0ASWPmPQsgAojcU1LPeGI9Cf9+1pF9tjIoHCnjF3Yylh8qahLju4EneEKj7mP4fNX/1KZ/NV0JJ+W8XirU8TxecdCFqrHHKgZTv39j4DG6NnSZtV9duTExkieuN+3yzQ77+QoeFFSgubwCt+dv4u2JrfuNeGqNuHO/hHliFDyHJd1QRcBTQVRf4rCZncBT5uiJx83NPO2dywbXMXCKwn8GOB+Ol8FuUXuk3CtGRHoxRvHBi6RF+Swq7dxD9I2Ax8Th4/22gTVNypaZGDjj5TyZ90ZL43ZmEdDyGPe2HuQJoLSfVqOpqIR5YtNW60D4kifq65tQ4ReKhG+mtV+XNHwmyj0DeEqdMqLmhGU88c5oqf8EcPqNlMSafZYIvZWNwIwyTL8ah3WGKfj1lD1fvl/ZMgsc76aQbgePufNHZ+0CK6BikYFv5qrisyny+HiiHN4bewl9vpdAzxESxEsSf8b4feqJiSHoZibb5AcXLyPuk2dd+cRvpzFPrIm429c8kxl4Sh3cEf/1xKduOlF/tUlpPMFTXFqDtfut0IOqP8pUzFMe9if+pwOH3CNVVX+cc8KN+AcIyijFGqMU9D0VBqET1zFcJgqXzSOfv9YvwVtFfWlytfnKlZ8/6zbwRN9qORcZl4n0zEKihipRRDbqUUk1c6fvZJfgRlwOOC4JkCNuMn0yJq7SZiK3J1uMp668LieSbXSRmS0zmnl6YmG32gFR4RuCtFlrcHveRtw/eBZ5ksqoiUnE8ygrtwz+EfcIULPgc/0Ouad4mDvEMlY3jcAljSCIEvvh4AVnbDtmi3UEbDM36GHKGh32APy9oLmIj36UxYLtxtCyuInUzBK4Jpcw4PR7Apw27kPYJPg+BkyQfe3fHbZIl6kxE8d3d3cLeJJiWw4lJycjJyeHeVF/RfSamtpGtpku/mk4Ju2OSUQdUVEsQv6mVBURjdgBP/D0xIpNrNu+CC2V1XgTRG2mCQT0/HiiX0bK9BspxYz8DQe57OFKyyxGdHYlJL2yMUohGr1PXu8EnHYWuY6D1ulY+qvpa98HfXBoh6uVR7MD/8ET03dVSlJac1ZWVpfA8zxAVVY3ICn9EZz9WlVP3e27nWyadv5kFEtLvGlqzcw78l+9DWuVvPTh+WqGEr5fcBVLdpvhBLHRTO1jcSsxDzlF1fC9XYazrlmYphqHd0TDGEB4AqcDT1eJh+hlX77c5z7pMBDHqEpKSvIdvoEnMfqTkcnJdyvu3LmDlpYWvm5Y48NHSJ22gqchfXfD73jc1NTp+pbaOtTfyUJNfArKvYNR7hGAImNrFBpYIV9WHfkyanggrsRe86RUkCdxBQ8v6+Chsi67ptjCjr2yzxKm31OXksGATNMhlNXNb6DX9/xTY/OJKrJxT0Jw5H0k3SnEnZwypOdXMbAY3SjAoWt3MFMtHh+cjUCfU10DTUf+mHzO0PM2X6TmxPVmrTVY9p+t4At4ciNE+qckZialpaWhoYF3jIVu8uNXBBYFRMaKnTwBlDppCR7pmBNAXGaJVxr3Sfx2eqsh/cV4JqUY00Di8/iJwd3O7DOjn37u83GI/2oCC2gmDJmCxKFTYTlsGfoOF+eb5Jm3zQiWkflYqpuEMYox+Oh8BPqfDkefky8PFp4sHAp5z3sYu0zjte+37yhplvS2cG/R5wuAkhMKr1K7p5xIirq0O+SJ98cjDSPkEvWStfcE7m7exzaXvt7fL4oHF+Tx8IouSq65ojo6gT3RFCQvovsHzvBMqnbafF7vdROHD5yAAcPO8U0CfTJJDlp+WWyjO278YIkbeO9MOHq8LoAICFfpJ+O30w58ud9TKrHg+jTlQailx2uBJ9+395SHYbeaH8ipI23mahawe/rEv2ATPm3d+PjPxyJj+Y5nKgDb7Y3yCpS7+SFt7vo3CpC/4uiBYzH520P8s3+I7aPlmIjPxW60b/o8zXhk5Jci6UEFVhokoWcXgNKLGNKDxELxNeE+pzq/R915Jcsovqixn3+9xtSYrvkH014LQI2WYb51RtZIHDL5pTeBqpoCVQM0V1Q+A5zqyDjknJBE0ohZb1y6dJV3DtnGv5wZ2dTTSr6YcTWebTaVOFeCclFfX8/MgvyiUlxwSMJ7p3lLl3dFQzFaOgRiFoHw8vWHm08AzpkFESP76XW9CRsRd/6D8TKvfb8f/KgA64BK4o31knll8JRIvTO4ycbtcd7OY09VyWejWbFWwqBJSBr9M1KmLMPt+RuRvnAzYyqlUmeswr3th4mhm9nZTmpuRrlnIO5tPoB4ar98OuYfCRyWlCWs8PUy9OajHbTiN3PstbrNADHgXARkLP1w/fp1VtSflJSEmzdvQoYTiP+Jh+Kz86H4UTYES64E47hxEEydA+Dn54/g4GBERUUhJiYGsdFRWKsW8lT9ke89bJOOZXvM+HLP0gZp4Hi1JL4ygGq0wtfSIndap5z0/Wzc3fg7HippoYJ4LnXp91iagZaIttQ1sJzV48Ym9srKRjvmpIjHX+F/nRWzx3WoFPyns9MXM9BvuBj/Ep/EddcgdlCP46FQDcxGZORN+Pv7o4k4IM1kvRITE3Hjxg14+gXCh4DFj7wXFBjIQBYUFITw8HBEREQwANFrCwsfwTU0Fv07SKEpyrEQuxrIl/tdfdiNJVc1Dcd9+0oAqtZz2lnr4osSBw805j1s9bQeP0ZFVT0ri6BRXnPHOOhyb0HVOBzugenExe8cH6ol7vG97UeYp/NvAU4bRw4chy+HifI1DqTtkoKhEjcRn10KGhLJyMhgnJmZyaRQXl4eAVYkAglwAgIC2P+j71HplJubi9u3b7PP1dbWsnBKInl/slzIU3eeSDZjnwy+2EFfzbrK7CBzl77CrwSguxEly9ISk/CoqAxRSXlQ0AvFyt8tWLT03THSLE5C0xO0MGv9ASsUltR0cs0fKmoh4X9T/nXAaeMYIi0XD93LVwCdueKPGSrxkPXJwoPcHISHhcGfAIWCIj8/v7VHraCASRgqcdLT0xlwSkpKGGgqKytRVVXFwEM5NSUFe3SDOrnzit5ZGLlYjS/3THvgOF4IeCUAxV4fMCHoVj62nXBG/9FSrQbln5BNE6en5DxZ+L9d6iSns3xVt9s4f4rrULuKxnLiv/qReYsJxPBnPHhy+9/sfcrUBvts7PPjSE/soMODN7bm8PgEoFXkAfzVIo0Yy2HYrheBXdrBsHANJCDJQXV1NUsRFRYWtv9NJRI1tKnk58X55H0xy6BOBvdK4s7vF3Pmyz3TJkubgJpGBYUVH798laHo55/T9uDlB1x4B5x+kISSfmi72qJGMu1+6A6pwwx38r00+07DAtmHzyNfTh1FhhxWykEL52ui4lGbkIK6tAw05OQxbswrYNz2N32fMr22KjwKFb7BKHclaprrhCI9S+TLqiFPXBHZB88ic+tBmKw6gT4j+JfS+HqmElR9nsaDqAG8Vy8YsbGxyM7OZpyamsrA0djYyOyjP4OGSp62v2tqamDoFIheHby2YdJRuGwVxZf7/X6pfus8Rcd3d7z8OAC09KB94jvOBjzzxe+MlIKm+Y1OKiv78IXuMZJpQ+Afp1iXBjXS3yTlF1bh3bHSfFVjOm6p+ITYKm0bPuZSCNyJWx4SEoK7d+/i0aNHz5U65eXlzGai6owCjKo8j+Cb+OpCaKfsvHFINt4b9/qDqHoSDUNbtzmePW1eSY1xfRvuH1WI/FPrsBR0LCPbF7nhwcNWD+s14zmJw2awmmZe72XuOMKz2vBlkrivQnX1TZi8Vod/mXnyPWLqQRivGNO+4f2IF8VxCwCN9lNbiCarKUA6AodKmjbVRo1salxTsFVUVCAmOhpTOxjSVI0dssnAst/M+XLPtDmC61tdISUl2felAcTxabpxUSelg80jCTXT8KcLnJGJ1KnLXw00xPZIJGopc+dRlh6pv5uFlElLeF57e+56NJeWPT+fVt+AYks7ZItIsF6ze7uO4e76vSi1d0dLXT3uZpfgsIQbdgjb4jdRe+w754TD4i6sO0ROKxjaljdh5RQHZ99UhEXfR2Q88XjuFTHeJnKNf5l5AqAtR63xi0lKpxzYKdNgpBHVRY1nCiIKFsptNhAFCvXAKMioq089NOreUw8t6lYkNmkEdwo+TrkSh4saQXwJhE7ZZNGqxuwGLnlpAFl5NjtSS7ytoF1OJ7h902rikpH0w5xXUklpM1ahUNecqaX2tEZlFTI69nZ14OTRP6MhK+fFSdmaWpaVTxrxtFWaSjQK0NqUdDwk6ugQAVGvEX8qsRjWWo/TXrH4rTj6EtH9HpG0A8bLsCpLfpZ1fDdPBUremZ3yYlNkQ1hMiDIFxq1bt5jnRQFFJRKNVlNgtV3TxlTthQQHYZtWZwB9eu4GDL0z+NLrT2cysun2HtB6aQBZujdqm3gUs0Xef96p3WBm4Bnx00sbwmlz1rJyipY63slVmpzlqQrJ/6uJTWLXRCU+YIX2z1NLVJLdP3SukzGfMGgiClT00VBaweqQxizT+Ftbe4x972DAmad20HunQ6FpH8BAERcXh+LiYubW04gzjT4nJCQwyfNnALXxPKWQZ7LzCtSdX8Kflu3TV+PB8WnMFnrZ5Kqle9MFKr7W7OO0u+o18VTyzH4JiTOGSJyVKL3mytMI7tiznke8IOZW8yhvLbVxZtdYOcczyXBS3gvFZTW8bR7iqVTfikP6ol869clnLN+O2sQ0lJTV4ryyLxsF83cASEonFGMUntpB1BtbrRbMwFBUVMRsHaqyqKriBRgaqaZs4x4ASeLG05RGq/0T2m4HLddLxgE+ufML9tgxNaZl8r9JLwUgM2f85hRSgfxHrQlR2kKczKuP63mG8TfT8FBBEy3VNc/kxapuRCP3tAwrim+TJiUEJLw6VSmo8mWusmuik/LQ60lB/OdTFaBseB1lFbwlGv1dOiqGJnbbJeEX45FP7ommYvzC7rKa7TctjbYet8UGo852EPWkOO5BiI+PY2qMF3ACA/yhaReIiTIh2E7U1tVrgfiAGOG7dILQ+5g7hNbtgdAOGfZ9312KwlWbWL6osQGTFNnsRkuPXpIvZ0Q7f7D0VlwmeyKaSkpZorRL4CFP/Z3Vu4mRfe9PhWfNzGDOWLmTFYUV6lkgN78clkSqMOkWk8CzV56qsDZPLDOnFENmKnXqVP1uniociQFcXcu74I3aWtQW6tgFSwv0KwLCGPjEVfzZbKE3BaAfFqlB3quzHUSl0DSFEFi4dJY6Lt4BOG8exHihcgjeeVLGQV817AIIgIIx/IQB+q6cDqE1QyC0eRd5Pwz9TobBKDQHA36U5cs904lrHO/GmJerg7750Xhq+Zfk5ePO2t+6BB6aqaclo2h+tkKxQFW/HWA5x8VRXl6D9Qc52E6eSCqFaKnq89Rj+uJfWL97SXktpq97dlI7NfLpsIWbxIPiqdZo3MTdr5MEpdLowQUFVvRG24yoy/4mpBH9DQOfO/iwgx301AAOxSmTIPgSFRVAAHTYsKOBHNbKIiHoI+yHfUoaeG/NMggtGw6hlQQ8q4eg505pAsbWSscDtNieZuf5EIZYe8yDTnV9rKg+qetnjd3xnD2QAuiemMJfx3k+bR3LUhufwnMDqU1CjVnmls/fRCRaGcRV/VtLPrcasiQt3UgqGXh6YmPns1Zo2ie26RD3+YeJjJCAsIwH7j/g7fY3PipC9jGxp9KIGvfERqsMDEMNkWAXrvjh/XEy3Q4gGYNwjJKL5lk4RqWRPDcQQURlbdUMbgXNMW8IbSM227otEFoyDT2WjELf1d9BaO1QCC0fjB7LBmO19G+wuXUPp10y8aX4TUxWjoU0UXX8eCjoLMrWztW+R14qGp0XEtXw8A/RvwTPvW2HmF3Bs/KwoorVDbGn/usf2VAFmr1v08/fz1dlrc5s6NT6vbx/4/OxLA1BSYxs8otiM3TBaCszHXdXW8fDcCeqtDIkohNYqcufc0oa9bn5CI/JxlQq5bqxtWfvWUdWhtqpJvqgPVFrQYSDsepqCFFRgdipakfsGnkCknlE0vyPSBnCSwcx0Ait+4a8Esmz5Gv8eHgxahue2oL3S+sRkVWJ8Lhc9lDxA/TqNjmw8mzyeSk11sDxzSo6demF9g6tj35RmiFfWqX92mIreyTcLsDAqU971T8cd6m11ZkQlQ68pB31xGj/e5sn1pWBAvQfPXuLIQKJevpzqUlb7Cn3jGxrqW5bIf/kpQRcN1BVWYfTij54t5tso7HLNSHt0dkOEtqjRsAwmdgy24ldY4o9V8wx8zCxaVY+AQtlKnHo6+onrwu/Rs+138DEz5bn2pcSlf/tPBW+3DM9e9XGv7ZBSkP9w64DyMI/ovySGu/Yzhfj8EjNsFNPFR011zFGQ7tL478cz66///tJVJZVY+HOP01h/1YMobfus+sfaZnwNqSpJyav3uqJJT/xxF5icusf551YFy1Plz86Abd/Xt9hTMxYNqexnqjU61HZGLWE/yPwaDmMWVAW3jsd/hRAR1wIeAiAVhBwEJUktIIAZNmg1r8JWKaeWg1pGzVsUjyI97eMZGDqtWQQvt03C4UVvKV/Y2Mzthyz4cs9j1ph2DpP0aHnL10GUL15oEO1ujEP8IxHsaX900EGxJs5JumGuNT8TqqrLdWRMnEx6vIf4YyiN8+ic31uaxtzhU8w705V6ontFmYDGTJzO3tiXU0jjFh4FRaOcWy83bMF/pUsVEBbezpKIzrMoaqqDifkvPg6xZV+l6LpTYyQiepc//yrKHq0qaifvyAS5isCqqEY8vsM3HuYjQdJUaipr4VPbAjm7Z0LkUXDoW+nh4f37z5XA1wxDOPLCJhe30uycYUcz55WXQeQqa9Wg+m1Z8BD0wYdp5zO32aEQ+IunVUX2RB2PVERtLfdNeA2+vwgybO195yST2s9UVIas5N4emKLtrR6YmW8PbEuDZUkv7/jhB2yyT3zkka03z5t5qp2aUS9SqrmHmYV8D0zv++CM5boJLXXSauF5CEh5xGkOVfxyXoiYRZ8ySRPj3VDoWyvgxxJcSQd+gVx3teQdt0T2cryiD2+G/4mYkgJ1ENLczN5vsgDVlKHhLxq1D95UOhsgD58uu8j8jfB9a0t3b8/qk+XAFRn7HuB1kYnPJmKQdVWR8lDB1yOXqzOep8KS572r9NJ8HTx6WdyRS+hpLQaQ2Y//xyIDcSdpx4W9bSSxy3gCaCU8Qu65Il1hVuDkGGdiuE6thvRbtaENiATMCVMW4lxP17g74jdlVoQd70HoeOhOOGciY5mWmhKJCaJLMcHa77BnLMbkF/8EKWRNxCuIopE03nITfZBUV4ubjkpIsdrITIjnZAW7IZrcUV490w4PiC82TQVjonFCI7Pw5d8mo80bYtVa3LVdsD8rrX2GIXtpgBKGTWXLSZtGmwjmpca8tNl9jR1qg+qqUXGih2tamDaCjQS9bDh8Is3fNZGfWbwNZeVt5aH8LK5iC3V7okp+712lpwa2ct/M0fKnUKeor8q9CbSqfdIABRLfn/j/3byd8QukYYGAZmYrRbPvKZOIG5swF09DURMGoaU+JvIu52AnOQbSCDgyQvcjttB1xDlYoIk5z8Qb7cfEbr7Ee1njlGyNzr3khGW88nGN3P5M422/1gZWPmW0bHAal0rrtePX0IBlDF9JXKJm9v+hBCj9/MprTOc6ZzljlHgIhMb5tpT17gyOAJWLvHo/Re95nRqGVWFbOjU9sPP9cTK3f1eyhPr0oR74gXK6YSw0Xm8Wq9pn33i4Ik4N2g1eg0X56MdJAFD+ziU1j4rBUvu30O+tgaSzx5FoPw2xDmcQV11KbKiXeAttR63LWaiIv8Wcm8nwV9pE4r8fwbX1Rb9D7uih0hoJ7tqL+c239p9KJ/TSKTJ1XtdAlCpau44CqAieY12Vz0qMY+AR6HdGLT1SOowLKEQSd/PYhtOo82ZOSX4fNpfi893Rkoi9YkkeCChzDOpSke+0NaiJuLt0WkWPYfxN7g3f4cxzIiRTUfRBEdmIvVuITPYq2saUHYjFraL9qPvMDG+SqEDF13Q3MK7sqA8PxvB8luQ5TgP2XHOiHe3wk2dfUgzmIbaKAIYTxsEau1Djut0NEXNxmoZA/Q65od+FEQnnoJog3Eqfj1px7e6psW/OzA1pmk6aNxftzdvq/ysztELpfkPn0x2f9SqttoOcN1k0MmryT5+sdVembQEtQ+LsJ0WZHXlxogr7xWS0TpdzNIOcU+SqrTN2P3zqbj89RL8NngLlswUYzGUvqOkui1KTB8K6mb3/kECfQiw6W99Mlke385UIO/zd+zL+JXanZLB5UQa2cYWISqnCoV5OXh4NwE3ubK4rnUMt2ylcNtlORIVxyJNaTSWSWrCwmIPGqNnoyRgBk4S+6jHsQD0PuaLvkc82XiY3ifDMFU1HqcUvPkGoE+mXGZHY1m49hL762i0UEuPu5EJ9bQ+hWblRy1S65R/ohntjoYz86CI6qLlG9ZuiV13fYk6onYUjSXd9bsJqS+WYuXQPfj6u1OsQ/S/Opq3N1FjsSmtoY+ahmZsM0tjPfDvEyN4n2EoUkM94SO7HKWBM4mK0oaN2ipEiRNJbDcFImpEnWidR0v8HGR5zIL+1fV474gz+pwKh6xLMqLuFsD81iNsJMa0ov51vs48kje9A443Irs4oSMzKzn1DuZsNuj0JTQg2BYzZGmINbuZ1KA2zIP8Mgyedfml3NqfyPf/vM2YdXy8NbOcyYMjoxHI1tA9pYSBh/W6P5EiuipbUew/A4/j5uC0phgkNESQbjIBcco/gmu+DYskdRHsvBarj0pi1gF5LNhzAXM1k5gLX5z/ACV599nfdOoZrbbk133TEwhsA6paNDV/+vqvs/KJueHq5vHPGIBt0WMWMrd3Z6kKWgNEx8AcFHcRDPDuqmu8RgdxOZUYIh3Zbre8c8gZvUWCIK++H43EvmmJmwt98wOYJWGENO/5UBbdgtFH9TF5/xWsEbuE9Qek4H1xLvaLCcMmPIPFhDI8zZBkq8b2h+OawNeH8n/zNFuTq6799//1GV+hzfZq1jmdvmDdQW678Ufd9rYpY3nEAI6Izfn7B1X+i/ij8TLQc0/Fh0/afXoJBxFD2IV4U9cZODIDF0FJbhcOXTqJb49z8ZvkaRz7/Q+YnlgINZUj2HDoIqzOTAL36kKMlQ5GwaNCJF/TRLDoUsTbqD/xWhO6fHRW1w6ruwhNuwew9Gzy6EJpa4smPRKoR/sRQZJsGmsb0QJ5VnIxbj5qSiowfYOeABgvsxlEfdMSlIXaicztfueQCz4QDcHHJ33xwTE3nFU4hGW/S0Jy3zacED6Jzccl4CoxBX6aS1FScB+xROJvEFUgoNoFJ99wJFkqIEh0GXyEFyL88kE01dfB0ime72bBbvEQWPvX1UlJbXr/xaWtLk3nqbh6Z0xrncya/VYsZN6a76psd9tph6em+U3BWRSv0q0x9wp0A+j0jhAMP2yK64mZxOO9h1MuWdh++DzMjs+DwcmJWHhOGU637iHc1RIOUr8hOy0JzU2NSIoMgysxqt3VxOF9fCECTi6Bx7H5cDm6CAE+PlAziWg9YIaPoY+xq41a5ynaDdjw4sHiLr130wvpxAbqedF6mTZ6qKDRXjGYe78QX05XFADiVYKKxJhWJQ/fCgkunLyDEeVojJJH+WgkZkJUYjLWC5/D/t1r8YtmCPPWUqPC4XZpPxJCfVBTWYFHuffhpC4FHyMVeJ3bBOdDP0Pj9xWYf0QFa3Wi4H39DkyuRWHKWl2+BWB7/SAFE48iWHnC7IUAMnX8eDEF0JiVhuyYpaddqflsojxNrlaE3MQJWU8BGF6Df1ytg/hb0Yg0v4xgPSkU5mahrqY1vxh3IwzmkkcRFejFymVKHubBQfYYQm0NCHiyUFZYgOtOHPjpysDhyCIEnlqKP46JsWrG3Zx0BHq5QfeiMBzdwvDNHBW+ufT0VGqub33R5s2Pez0XQLpG342lAJq93Rr+4U8L5Wk9MWs9/vU4YhIf8M60C7jr/I0YTOxiUFFSiHg3S9w0VcS92AhUFBei+OED2CuK4oabDSpKi1FdUQ4fYxU4Xz6N1PhYFD7IQXxYACJMFBAvswlxkmuxW/gSA5C0Tw7uBrsiRlsMlmKHYGIbgf4j+bNXM7dxW2uErAfPeS6Azh9Z8Cm96KJGFEsjtLX40Gw7TXBSt33VPksBAPhQ4kHzigVFVSgvKULMNR1421nBS+cSkq2J7aMiBn8zdaRFRaCpsQGq2iY4vv8gJh3SwqbL7jDS00OsiRQkV43HLbFVWCdyBT0JgK7FFCA/JgQpHFX4ndsK66tykNWinSivX57y7jhZcPzKiTfWQ/nFgxZ8quuT7jytock9I9Oa7xKWQEDEPYHhzC8mrra8TggrwY0Muw51Gz/YGmkhSXkPkuS2IPTKMQRaG8LjRgq+PWCEA0dEMXSbAgbsNcOE7RIIvbgJqXKbcUNsNSYJm7F51CExaUgO8sBdVxPcUj6GyyvHg3NFCmcVPVg58esa1uLayeB4N2S8EED2ftWZ93MetCZM8wtYyoLWElemZ2LWFgPBxvORB06RZwfkrdBNRg/hUAw67Y2Nqv5wFPsVEedXIlr1EBad0sNnOzSw+LASJhzQwv92KENPZAcU1k9CgvR6+J7fiI+FPfCTWjxyM9IQ7GCJ7EBHRGudh9b6iTBc8AW4qrLQ40bhf7OUX8smWrrPCdcCq6BtOHHUcwEUeqMgjE6D6Gj70FcnnxSB9OH7SYSK7LgFt+RifHqhtb6HBhV/OXkZIWeWw/vEYhxaNg1iRw9A5PARaJ/4Fdzja3BH6Rcky25CjOQ6qJzczz5jGV2I0vQ4+FjogWugBVt9DUjN/w62Cz/F2QWjYUAMaxV9X2Z/ver9fjZNmfaMwdy15ezzz8uIy7ajM/uo9KGtwokjZqE07R5GLdUQbDqfg4rHpVzhYm+LQFcHXAnMQb9TrYX3n4p4wej0Xlw/uwLc/XNx5/JWXFr7IwHOVmhsm47A0ysQdXEtogmAZh3Xw3DZaDwqr0VR0k0EmmvCwcUXYeHxMFg1ikigL+FycR/st02EhY4+vp39ep0bSub3wPERCnsugFLi8zRok2H+k7hPpqhs6+wcwabzF0DEBtI2D0a4izXuuZkiNyYUp5wz2xsOJxK7JkCMeFlS6xAtsRahBEyxBDCRxOaJllhHJNBGKIvsw8cnA6AX/hD11ZUoJADK8LmGAFdHuJrpgrP8f9BbMhThOlLwO74Cjldl8M3c1wPQlpM+9LC6Fjm1BV88B0BZ59LjE9isnngigTb9oiVQXd1xBPeYSzCzCUSclz3SHfQRqnAEN/29cNzhHj44F8GqDeeLaCP0/BokXtrADOY0+S2ENyOGAOq6zC6ExN3B9czWY8/jY2KQHROGvAhvuOsp4+yyyVCaOwicZUPgIiuCG9J7YHFZBiPmX32t+/5mgfaTscDv7+Vd0hH78NeigOtIHT0Pu7/ZLgBPtwFIGq4ewUgPcEaajQbC5A7C9OAaPIgKQkBGGYZK32L5sonHTWEueQwxMlsQLbUBkTJbkWKjguqSgqfdqQ/KoGsVgqgATxTEBIMrLQzRn4Zi34SBsFr8NdQOb8MttdNwJHbRF9OVXk9yjpCAjkM+ceebXXgCKDWqelGDvSfk5wkLwNONPGEFMXRtHRFsbYBUGrchnpfuttkIOrMZOcHOyCqugZxvDi6438eDsjpUPspD8f0M1NdUPzN0S/iSO+b8YgA/L29EuttBZf1UHJs+BHI//w+SP38Ha2N9JJopwlRDE9/Oef2i+98lQmHjV1Nz4sSm/s8AqEore8wDx3DM3c4VbHQ3Hn255agNggP94e9iB2els7hmZgSVs8JwPrwcPgfmI4qjxcb//hXRem56EPJHE2QQFBoN5b1rcXHhSBybMRTiswbj7IqpuLD3F4hsWw0jLR2+HNIyeaM5U2NGtl/OfQZAEZtHf+IUUI5Vh90EG92N1YkXlD0RHRWJ2ooyONpwcCsmBf7BUXAWXg9f4nlZ7l8OS8dbSEwveOF02SW/mrHadVe/JBjLnoPyuik4v2AURH76BpcWjoCL+B8wPL4VJqd/g85V7fYmidfhwXM1WtMa9hXbnjO1taZu1/kgwUZ3E9NmR3e/aKgrySEjORF1ZUUI8fGAu5MDnES3wvfQQphsmYJL6l74bJIcxFT8cD+v/JkzX1VNwlmjpl9oPHTFRWCxdxHOLR4P2eXjITZ/BFT3rkGCoTTcJf6AxNalsOM48GWCxw/LDFol0LWeK58DoPp7wkpRgs3uJh6/TBPers5IsjeAp7okcjNSUVuUR9SYAXTPHQbnt/mw3jkTBibu+GCsNDtqYvAMJYgqeLEmT9odQwdw+V1PhYeLC/RP/QbV7Qsgvmoa9v70A47O/p55YY5XxJFoqoBo1ZPQ2bsCptaBfDkjdsspX9gEEFf+6uyveOfDvJuuS+mnCja7m3jMYg24OLoi3d0S0doXEe7phOLcLFxVkIGfAxf2BhrQPPUHrEyNERIWA6/gFDj7JMItIBX+15PYHGl7K3NwL0vATHgrXM/uxIGFEyG/8SecWzoROjvmwcvdA6HBoTDVVIWpihw8HO2wX8yJL3MUjd2LwPHq9fwSV45X8zU6ZEiw2d3D/ejRApZ+COfoIN5ACtYq0kiLi4apjgaUpMQgJSoMO311OOpdJawCA3lxWF65BAsCGDsV4kaf+h0W5/6A5uFfcHr9fDiIbof81gUQWTIZSptmwcPeDtuO22Lcck3W9HBWyZuNGHzdMhyakZczyaAHs9QacL8Y8/zB4x5QN/cqZQXVgg3vnnIOOhDLicNFlK4kOBf2w87WBrYWJgj1dIaarAQcjLSgK3cRahdFIX5oD7TFhKEmegA3TJRwZscaSPy6FuLbV+AUAZDKnpVwOPkLdH5fCW9iR51W8H7apzeMP+WtFDyyxunsVB8j+xHrXlza6tpwlhpJ/cfKCja7uxoNCV9U9Yad4nnYnNiCU7s2wlZaGKaKF8HV04CdoSYuiR6DvqwYxAiArBTFILp7ExK4GnBSOA3jM/sgt2cdxLcug9a+tdA7uQe+3n7sCKhefO6UeW+8HOSp5AmsaTS2H77xL7szTF2xiwLo69lqgs3uRh466wpMzByxe8ksqB3bhUg9ady8Igzzo5tw5eIZuJjqwsdCF/ZairBSuoirpw/DQ10KEYbycJI9Ac75fTA5tw/OZvoIDEtkZcj8nvf4EbF5aALVxr+qwch+7Loudaga2b27kNVGrzISbHQ3T3HdcIgLfQ01qJ3cB1/V84jVOA1DkZ0Iu5kET/9o+Pn4wplrDjP1y7DXVYHFFWmYKUvDUksVPsST8w6KgThx87/ohiaHgdOvQI3YwrYBddXGdlje5WllGiZDRrPa6B02go3uZqZnsl3W9YeBogR81cRhLH4MAQHXsWS3GfqNlMSwearYLWqPywbXWbeFjVsCzBxicIa49PO2GeETOmD8O3G+39c387Wg71xAh22W6ViPmvNSE1sPHTr4MQXQ6iPugk1+A/zJRDkYcQLhSSQKjUgv32vBUxW1H0fKjoDovvuZtN4M5l4lsPZtyTWy+W7sqx1C51Nbu+uCIBr9pvhDIklmbtRnea2/U6WuPOgK64AKcL0bYzUMxw1+5fPkud71d0UuC6LRb01savQlHJa7yVIUlh7NTtraWu8LvQ5xvZtDpfXTBIv7NtRmz7rKPC06xsXMdYC0lJBkT6HXJSuvFlsN21zBAv/Hec5OG2bv2PjVlJjYfbpKiF9k6dFDzdyrTBCN/o/y+xPkcVwpiqksjldzhJbRyKFC/CQLl6YzLBo9Tk6w4P+1QVebLVtd9ICaRjPn/hJS8yR7C/GbTFx67qQAGjRHEI3+zzQyTr+C01fjmNQhXlaCvs2nk4S6i0wcP1xAf4jOhhEs/r88WDlGBptOeLNTmW38a2vMXPqc7/IRBq9K2obDR1EAUSNLsAn/0oTtSCks/t0Rek4PqdR5bOXe047vts7zSGSP5EfsJGdBNPpfx31HXWLA0bbPY+rKyutxuK7twFlCb5o43rU1v14IFmzKvyUlMuUyNp/wgaHro1bgeOOmof2gFUJ/F3F8Gu6IXI4WbM4/mOn4uUkbzCCqGguufwULBlp59vQ04Ly7SOjvJo5Pc4i0gSAa/U/jPqOkMWGtCfZJh7GD4ai0sfGtLbT06KWiZzpyhNA/haw8YaNxLfcfaBxK4+vZ6uTJM8eSP5yw7bQfDsqE46RKLC7qJLPSS3mTO1Awu8de6X/T/3/ySiy7bvtZfyw/4IKpmy3x7UJtFlT7JwdMe34vwQZ+L9vvzNxwWm7MQONfV8Xx7mlj6vTJOikpyb5C/zSycm+5auH990aj+xCwjFymjzVH3SGiHI2r3GxYE1FNF7CNub6VzVyf5gIrz5pUa59eEVbeFf7mHhU+Fu7VXpbk1dKr3J/rgwhLz+pUct1Den3Hz7MRth7FuGxxj6iCOPx2MQRrye/9tJ2Lkcv18fkMFXYfbyqpSWtxqPe781wAxHVS2L3Re6SzebjejfctPVv0TezeX6uqattf6J9MZi4NLBr97huMRlOwDp2nhXXHPCGhmwIr3/K2TX7M8e6XzfFe4GzuqiNn6jRul7bltp9kVdcOkhLyfKnkH4SO97gg5/qVLkdrmqnjjs3mbjdPW3oK61h5TffieH+awvGpr6Kb1RFg9NQaI7ciqHKyIamXihPKMUyFUGm25qgHkYSObNOnbrbCj+tMMWGNEZt2O2q5AUatMMDYVYbs/0/eZIm5u2ywZJ8TNop4YbdYMPmuaMgYpTN3m/5O229a+1c3crwbYilgTJ1679HQHzxM6N9EZi7NO1qj0erdDprvFurg1wtB0HriepINfMz1/ireylP+ipG9xDo5ueFfvMl/u5SI1kc65uPHG9t5LTd3H7jX3N3+ooXHMV0rrxV2XO9RoVZeH9229unxiJc06zKTfyPHq7aa41ObwfFuDLTyaja1cOshbuLc8xcd7sDxUpuT+wr9m8nYod98+g8dt9q4W4BDm9SoqlAlaomBJqCuniyiu7lbvz+UNEO//res047ljz48o6Qw2Nzm8feqeqenqFusmm3iuepna7+V86y9Zi/k+kxdQMDys4Z14RxV3cZpppxFI8RkiwcdW/64n9B/mTRNvxpJN5aKXH4C59sF2jgiHwmuX3lrhNSrMdzMqd9+KakZnwgJ6L9D+/fvG8Ci0Uf5E40eSewBceINtXkQVh69tbTMho0RrPR/mLg+ddXU0Hsd4AxbpMNmDDPg+NUXWLh9eE5BYcjHgtV9C4jjU5dB3edXCq1PvYyjCpHMs7Dxayo0c31HVFT08/cEq/o2Aci7OZA21L9s4ItW99NSSWoYW7j1UtLXXzhAsJpvIVl49FDi+FXgw4ldm2xFC7RpTKO1VBLe2pYThwtW8S0mLbPxY2wDqltodPaveooW7LGDhXcprP3rS03s398tWD0BMTJ3661JI7Orj7jxTGvQ5N6BS+GtUsf7ceBrNaQJ6L9HNFFn5dnLkQJESj8Nc3fasHTDsMW6LClJh1HReI656zuKLzyQTEBvNYh6mjr0Pczxqc/9c47IyqsxxsT+y6WCVRJQF4DU0lPXuv9EI7vmzSZ2Pdeqan8mMJIFJCABCUhAAhKQgAQkIAEJSEACEpCABCQgAQlIQAISkIAE9E+k/wM/9fAuP6GcwwAAAABJRU5ErkJggg=='
p43
sb.