ccopy_reg
_reconstructor
p0
(cemoji
Emoji
p1
c__builtin__
object
p2
Ntp3
Rp4
(dp5
S'emojipedia_url'
p6
Vhttp://emojipedia.org/flag-for-New-Caledonia/
p7
sS'index'
p8
V1058
p9
sS'code'
p10
VU+1F1F3 U+1F1E8
p11
sS'apple'
p12
S''
p13
sS'twit'
p14
g13
sS'gmail'
p15
g13
sS'related_to'
p16
(lp17
sS'name'
p18
Vflag for New Caledonia
p19
sS'known_as'
p20
(lp21
sS'default'
p22
Vemoji
p23
sS'bw'
p24
S'data:image/png;base64,iVBORw0KGgoAAAANSUhEUgAAAGwAAABsCAYAAACPZlfNAAACvklEQVR42u3dvUsjQRjH8QFfQBRtVBDhsLMUwWAj+HJWwlV3neW1h52WmkqwsAlYWApWggj+BaltrK4QbATxQLSXa6K7GEjCJJmdnXl2x/k+8AMJzkL2wzM7zpqsalBBleIUAEYBRgEGGAUYBRhgFGAUYIBRgFGAAUYBRgEGGFUasHq93iDhJAVTlUsSQAADjABGAAOMAEYAA4wARgADjEQNplTvTCyAVQqwD4yhIdX4/9Se5HXda2kAKwBM6VF6gbXBLV0AJonVDcMErA0OsOKxWsH6/X6MaHJghlit16uVZTqtGDALrMxjACsW6+HWfFx1DzBnyXLibborti7zC6ayn/S3RzuwdPzAKGDWma9anXTTZX2sXeYPzPKk5wFLxw6OxwH2ul5xmjxYttex5njX76VM8QKWa0pryf2N3XEA8wzWurPRGbpMAMzFdNjM2ChgXsFcTYem+4m6vNwBJgLWCXe0bz8tPq0uASbRYT9/cB0TBbs+V06vYXmOBZjHBYerP5wBK3CFSIcF0GEusAATAuvsrulJwIICY0pkSgSMRUfgYFdnLOuj2OnQddnWJmBBbf4mmZ2xO97zGnuJImDNn5Op1fY6xm69wMLD5U1M7ocJdJkOzHYBApgA2Nw3dzcw+Z8Oz9Pi6bF+Okxe+/eX7tKCqZPvbqOyT4e1Qwc3LseG3b+XEsUf2M6i+NZUOu4LY/kFy9hluuV95rEjg4DlTZZPr+TZmoqhu0TAbD8flmT7l9m4P7/jwJIBM0Tr9T0ddJc0WB+0fl+scrALljxYF7S+34LTo8tiw5IH60AzxdKhxYhVDNgnWq7UNqLEKg4sD1ykUOUAM4VbmIoeqlxgBDDACGAEMMAIYAQwwAhgBDDASDBgJKDnOPPscR5tTwFGAQYYBRgFGGAUYBRggFGAUYABRgFGAQYYVZZ6B+mQerF+lNiaAAAAAElFTkSuQmCC'
p25
sS'version'
p26
VV6.0\u02e3
p27
sS'uni'
p28
g13
sS'desc'
p29
V\U0001f1f3\U0001f1e8
p30
sS'browser'
p31
V\U0001f1f3\U0001f1e8
p32
sS'annotations'
p33
(lp34
Vflag
p35
aVnew
p36
aVnew caledonia
p37
aVother
p38
asS'wind'
p39
g13
sS'andr'
p40
S'data:image/png;base64,iVBORw0KGgoAAAANSUhEUgAAAJAAAACQCAYAAADnRuK4AAAABmJLR0QA/wD/AP+gvaeTAAAhYklEQVR42u1dCVyN2Rs+7ZYo2ckSiUhI+3q3MpbIkrFvYRQtqluJuCWRFu0rZgzjT5axjy2GwWQs0YoZYxszBqNs7bz/c77PJdruVlTf+/s9v0lzu8s5z/cuz/t+5yLEGGOMMcYYY4wxxhhjjDHGGGOMMcYYY4wxxhhjjDHGGGOyt3k+5m08wlQ47pHPp7lFwldOgkkazKowVqctFNh08EqQT/ZNfVnst+kFCOG78WWFdyLscl7bow+zSoxVa9+EDBzITy66z099DiO88kFrwhlob3cMeo47DWy3bPBMKgCflFeFrpGaVsxqMfaRuYd11PdNLX7kGvsUuow6AchoTxWocY7AgohHmEQvn7lEdO3BrBpjlC1Z39HCF5NiccwTaG97tFryCNGO9xN4JReAd0LZd8zKMYbcI1pM9E19VbQw8hGoc4/USh4h7DzzwDe1qMhFMFCVWcFma2/kPKMVlvttfPlmVsgDaG19UCTyEPRyOE0l1u5RShOZdWyG5rx2VDvvxLf7CAnGLvsdlMz2iUweAnmTH8Ej4T/wTmTCWLMzt4j2bJ+Uonuk0jJyuiwWcSpjrN8tnEwXPWGxbBSZVW0OXsevRzuv+DeJvhtfvP0G5zvdxpyUmDwEA6acp8NYuJo1s7pN2BYuNFDyjFF09kl5/dhn43PgeeSKHbKqg4rFfuCnFAI/vjycWeUmaHPm9GrhEV0xn59c/AfxFDPW3K9R35EUXwfeBX5S6S1mtZuQLQ5R1fGKe7PGJ+XVI0KcOaEPoZ/jLzIljhAGc3/DYew5uIT21GVWvpGao+NbBfdwRSPP+NIA7A2u+OIwRULVpJV/gtaEn+uFOEK0ZR8GX0xSz7hS32a26DsU5vu00FwSrGjIj2llRzrO3knyTp7R5Z5LYwr9PeILApYm/LfSMxH/l/w7usjbK76lCz+lYo571LMZ7hEVE/nx7excI59ZLQkGQ360Vr8pyx/2GD++f3sW6009VSUgN9e1b0f3sBYmXtHyM70SS0L5ieUn+Mkvn9PNzhcwa+1fYLLgCrTBG1ufxKkM4uG8E8vPN0miTHf9qq1HmALLO67EjZ/0JpGfVHLKJ7n4jk/K84rKnWZZgngA76TnZT5Jpc98Nhbd8U58ccMnsfyKT2rRz14JhSe84l8f4ifJpfmmFm/xTirc7JlQuNEzvjCFRsFGr6SCzb6psNU7vnSfd+JzTJDy33ySX9/xSX71UXecn/Ic5uLNG+GVBwOnXYDWNocajDSVYel8DXxTX7yZ7z+oc6MnzEzvPp3co2GaV0JFsndicTb5YMIF90h8hq/QB2DvdwusF1+HYbN/o3IDzbHpVMeZuGMViwOgaLoPFEx+fA/yb2X8+9bWh6Ad9who2B6FTl+doP6OhAht/Bx60y/A0NkXwdDpMl7QTLBZkkVVO2N8b8A4/99hIg4n04PvwcyQv/AV+zfMD/8HXKL/BdJ7WhL7FFzfgfy8OOYxkDJ7Ln7czJAH4LjqDvWeSTec6DY6k3+BjiOOUe/tcxDmU3QeeYJaX884xXmNU99YrdzfM758OY7/F7EbpwizFJNlsuAOWOCrQ9vxLLRhHQa5L2CxmyLkjPfgi+Ex8BMr9jca0jgJTDWWxsq500njh/hvga/+rqNP4g+1l9ncBoTt0jzwTXn1euHCBa2+bG8Tpq7vnVC2WTgtN2fdQypsNGTSyKAqSCinm6stx36RxHENVTT1Tqw4QhJUMhU3wjMP5yHHmc37QqBg+iOVNuCLe+MXRRyP0J663vElBwhx3OL+A/NvMqGl5QFm075AkGLBJ+X1I4FgpfxnJw65I8A7Ti7Cd+OrMsJsQhxl833MRn3BGDTtAhXGXNYpmH9er7OhzUiflOJ7JDEeyb8BrcQYdGLw+dACRwaf1OdwOiRj7efpGgsMWnnFyyWScEV0Ek37dGZjGhkifI9BqSAo7zM0ALvp8JNLsojX4bjlgKLpj8yGNDJ0NN4Gt2fMgopg/7fP3Y73azDyLI1s95VP6usCt/j/oM/EM8xmNMYqzGg3bLaaBYWjrKFitT+UrAj1ahDyeMaoLsCJcvm89X9T9xwxm9E4MdN8FfzHNqJQ5uMKZasCzzQAeVr5knyHtByUzfd/pg+/txIYIkiCwSZJcIdl+Z5Ar52mQHmQf8WLhac71Ct5SMnn4P87NeHfsB8av57BVkA6AYB6LQTU0wlQ1wmAei8CNCAI0JAUQIa7GHKIAA3j7XDRZsR78hAUjuVSYazYP2pW/eQ80a0XEc8zbtktTJ4GvvIHBANSNwZ5lXYwRE8eTA0R9NdG4OmMYJI9Av2BcqCm0QaU2ukC0loMaOgmhig1le1GabDXajI8q0QeChxjKFvuCeUrg3fLnDzuEepjyCkPZFqu4ciDX2foZkDtjKFPb3kIWY4g/1cEJX8huH4OwYQxCF7cRVD+D8YjBE9uIPhpJ4L5MxCoanQC1M2R9lgMaT5KmmMs539MnEooWjQLygMDXt6ZAy1kRp4lIRoDfFOKn5MJNqUGU5Uxefotg9ZqarDCE5PjJk2Usr9p/J2HgGOF4FHeh98JQR539yr2Ti4I2nftAqivFw5tOxnyYPKstHCr6nkq4cWkkVQYe70sbpRsRkiXTmrJTyrJJv2stg3WOcfk0VoCWr2V4GgagtKHVUlS8QSBLQtB1lmaMOQxL+9+/JhSjOxfEIyyUwS5TjxAw3c0a/IEWLjD01rIQ/CMawLlq3ygZOWaJJkQyCseIolI2LchdR5tPvTTVoH8C5gI/1QlD0WgfxG4LkCwPRn/jMPX5ZMI4tfTP3/62GIc8tbg8Ne2iw4gvQ3N1vM8YRvXSh4hil2doFwQ+BDQWznpQldoe0PfTS8rRnjmN9wHHhQJ7TurQ+656onzPkxhomyMQeDrhuDxLQRmOKmOCPo4zFVGCfZQx3cj6NYL50a6Ifi1djebhHmD5cI6PU9lvJw6lgpjz5fGGEtFIH4iHHeLewotLBtI6zH4AVq06wnHdtVMhMo4c5gOY4Q8LVsgSN9b999k45CnP6QtoP6BTV5DIqX6dqtpIhNHiAI7c6gIWgalAetWS0ye+QJjTd9NL96aL8psuLyniz0E+8tXm/NUlyjv24ZArS0Cct+MVk+cWOfW/XcE964hGG6ohkkU1GTJM8wkAS7YjKw1Ya4NpV7OULYq+LrEBHKLhHFEMOw2poE664PCwdhIlaq2RCFB+o8IOnWkyUPwtQP+/SPR/pbg998Q6PTXwK8b0aSIo4xDs7P5MrjLspCIOEK8mjWJhLG3hd4HtCTTfaKezSAE0qjj2DSZwHAXtOxuDQe3ibb5JJ8xN/pAHhVlBIe2ixb2KiPrDALtAV1pBbsJkGeASSocsJ4kFXHeq9KjbN41V8PdJVSdFb4iBNIce6r+P/zAUBjJU6DKblE2/hb2Hh07fCAQ0YNe3RePPMIy/xT2ZGo9huP8a1ujHscIsnCFe9jrPJMBed43V/3ccRgLSZdsGH5dqyGEQOQsmfrOfZS7WMHJvaJv/O2rdM4jJJDLXPG9T+VcKgGX/4rd7BslcZaa8yGPxZYpcd43V+dPhfKg5WWFzlntxCbQ+EWtOxECGc67XL8LoZ8E1paq8OKO6Jv+8h6Cgf0RdO5E6zsOo+jfSUIgYUh0mi4P8v0DGgFx9oK2ySZYbuEB+SwWFLANZU4cIZ478KgwVuofPU2C8wDeyPmkvCxluWbX62Io9JwBm2NqFgyrFRFxsrxoDi0e3sEV1QgOgsc3JCcQwV9ZCIxMu2NCJ3+RpCEl+QSzNbDTagrcZ5vXK3EqN1fLV3hBqWDtDsl0oOSiu/a+t+oxeU6DDpp9Ra68KuPZ7/R/i/6mE2qSF0lDIIJT++RwOOXg97X7sxOmhdEu0MVJ8WzzVbDTegr8zrIWSwyUFYqdZ0N54IpCcARlCQhUemFq0N36Wyi9GJg6UVGqTf8T50M25vRYx71MKUmEveD8WSrQRccd+uMw0RejA84z2hjtoGeRKMhikO3Dcyjhsrur8fcw1CQRxpiuo3Ia4mWyWBz4h23SMJ6mtuaq4yi6GvNPtRWbQN6JpXvJXRb1dZXJ95wNO1PFC1+feqGRXARycnQy3asHrTRLQyLS3Wdrt4a/WCYY5vAHvvLJ1Z+DN/SszWg4aD0R9lhPhkSreRBn6QSrLZaAt4U3+Fp4gqu5H8wyWwXTzQI/wkwzAfDxY5bhx5CGZrLVXEiz+hpO2IyDqza2cAPnMg/waxVisjz7zISp0lzlmUK5wJc0V+MkaKQWxXskPKu38NWxjwHcvix59ZS2CYG8/IdqTFjSP70lOYFIj41UZZEDeuOrX4QFfg968wtqAP3/jeqlWqpvlLjNhzJB4D0kbnPVK6HUn1RisjgZtAqGfQ9GhurUhom1ybhiKrpPJ9JBfh+Th4D0xP6XQhOMCIWSkIjkZPYmynDbclij2+z6wMtpDvSMkOf/hok3/xxfMYcQiHxJh2zHC/ZAr4F+4L1YTuzwRQh3YjeC53cRrF5WlUAES5wQ3MRJdUIYEp+g77zbt3EIAvtrNkqPIWsUjLCgm6srQleJ2c5QGEEI1ENGajRJGMeYrYPjNg4QpK0FOzdKJgAS9ThUgGDXd9UTyH4EHd5IYk3mhiT1Qo4WKnCL8UJ0c9Xbhdzyc0W8M33WqOsTAulKrUbvhRGm6+FnmzHv8wDnfh3hUrpkm0vmf2zMEJw9iKB3z6oEmjoBgZ87gm9mI5E6+zV5oeQNCDbo9mYIRJqrsx1xGFv29pn7wZ6ij7PO7dxRWjVaxySVKksrT8P9wzIEh75t4fmfkm1uxWN6cJ4o0LFrEbRQ+UAeRUUEPyTTyTTxRJISiOBBNoJpxq3ggfXwZk+gwtF0c7UsINJFLDWan/yilC2BGt3aaCcuW5fCX2zzKm/mKSaQ7XAlKPpLQgLhvIao161a4jzFF8FuHMr6atGzQX4eCE4fQNCxPQLDoZLlQO+brZh8AXz8/EP6M7kQdgBly9yhdFXQMbHCGDlal5w0Kg55hpvEQ7r12BpFsGtmQ2D+OCWqByVpePnzCoJ2agiUlBAsdcFJbzwCYwME8Thx1h9EeyOeDYLXD6TThTKOI3AaoMGEMXLLz4JpUBq8ouSIANqKQaCy81OD7ok8vL3AfDncZ5nX+kbODB8EbnPkofxfyTeWJMd+bnTIEoYuebkPoiIhVlyo5CKlEMRLjrdVgJsWQ5u9F3o+3g7StywH9pXEyaKr0QmlexaEP6qTPOrG2yHech48rWPyn2zCUQNd8PeUfARDCJJDRQYjGKKHQEOdFhU7d0RgbowgOgSJPF9UV7hMicS51kAtKOQ0bwLljjaBsVdWATc7YavoYmJcSZxHYkGt5NE0/g6OWI8X6Qolj9k6qB+EBUnvHahENwvBSVzWp21EMG4kjbBABCEBuNRfiaDwT+lfg6jlE3qrw3OOcbMlzxN88YxeYQODfnYDTm7Ys+HJBkqiiYkJpcsoNbqGUzh0TVLgko2d6L0VjIQBfWBjlHQJrtA72NrQIYvkQx1w4qyOE+mhenQCPXcqgr9yZOCFcLicwlGGLJy7NUfykD3b4GQBKJ4LHdOmAvfmWuBmbGGLNtoaB7NrUqMNcLJMhprEUjUx4nW1YGO09CGM4G4mgn9yETzERAlZgUBvAA45UfQdGrJ4fqH6HbZSHjbpajdLAp0fZwrtojgUgRSTRgA7fw3wrsdtEI1AMcp21anRFqZRcJtlJb4sjhGHCUQ2WRabS1DwB4KRvA9aEEmkiRe68avsXuPnwwjctbp8lpmcz4m7dsYwJIRNkUeIoee9gJsTeVu023vCOulRavTU8x95HknII0S8Th9IjZZNDkS8DLl/vrKYKMS4r+iTPGRBoNvY000eogqPWIbNhjz/4rzH0c/mI/IQdN83iwpjvDNpg+sk0NSF/ToQAgm/JXiQSbLYYetTJA3oC7Fr5aTOgYQEOr2/+p5YL00Er+/LhkDFGKOtFZtNb4zkPQEullXIQ9Bi4yjg3AgBTmb8chF8EFGjX5YQNZpMzl0WI2Gu6Y3t0NehRjEq/pXN5pJKy9TogwYkhONY6YbtP02kvRfJw4Ghuk1eD6IKnbkWoBTHrZZABEa/LQNeTmyGiKOtxX9OX5YDx60dZPLm0g0HgvPc6k/SkBR3riJwmYegbRsEbVQROIym1WpZvQbxdJtj5SBcW6tJE4h8tl1TzUClFvIQaB2ZD9wba9/YHj/XrU4CLUsqOXfVL1ZmC3fVVB/mTJSHogey2VwyenE5HcGRNFoDIq2M1f74ZwGCld703RuyqMgO70Tgpd21yRKIfK7dmDxq0bWTh0B1yzg6D7qWurBOAmWu2b+L3KUoqzeaZz4UprFUxLoXrDbPsCWWbmWQEEaaqEr45z69aCING4wgORLJJN+6fhbBVC2NJikoFrzzPKKQh0AOw/zaSuBkRR2uk0AlAcGx5Sv5VEdWFm/2npUBjNFRpc40lIUHenqTPjvxDq6UTuyhD98kx+Id34vg/nX6gCmZeDr8fm17tIHHTawSI54nEec8qjGikUcInRPOOIyFFbHSclVrJVDxitXLyCwIOf5MFm/4KcsIxnXWgJsXZVTKv2s3kJNbK5fzpLlKBs72b5VuLkiIf/IQTDJoBfesDZoMeR7jUn2lsyWoxIpHHgKN7Y5UGGP/9u2EWglUFrB+FiFQwSgb2Qwn4RDA790Ndm6STWghYyEsi+pLeYKunRHs+14Gzdu7CNhDlOGhTdMYMLs9whim+NoAShCfPFQYS+CBTU4QcLPivq2VQK984mypI8/G28ks3m4Z1A+8XeRkUsrnnKO78ELC9OiOQA1XY5rdPvxuBBvBCylLehIKRxupQC7O4Rp7yDo50RR017ElIk5l6J1xB25uxBPHtEkKNRLo5dLdgwiBXnxtL7MPQRqT3OGKMiFQ5im6dCdEmTwWV0rO9MELrvMReC+mzw/q3gXBlVNStkz+RDDBUrlRE+i+rTH4LbESO9+pCZ13TaObqxd3WdVIoPzxF9sTAr2aNVF2M7Y49nI1VamTWKUNLeRgBJL7EM9DDprq0okmk4ICgth1CDy+QaCshGBbovQeyEJPCf5ohGo06eHtnWIG+iFsmRBHCMVkurnKuR4fVnseJFhR/Hr+NJl9IFIK+/XpDnHrpVekH2bT5JkzhZ6Vrpz/dMOe58wRBAb6CGY4YhJIoT09uYVg1DAVyG9kHigdhyv75TYgL0PiVIbBBT5prt6sg0CrbhcvnitT3eH48IEwhqMgNYHIqfVE8yHkIeX7p0m0wBfB9wn0qMejXMn1ptzzCLg9VRtFjkMaoccm0cRRqifiCKG5fzZRpcHu9IUBNRKoXBD4S4nnIpm7VauuranT5KUJY69wcjxYF8HpgwjCg6oSyNIEwb83caVmTjdeJXkt8je/HEbg2F0DnnyBOhAhTSGLrqzI8JdVIKvePE6V5uqm0VQexLka41sLgYLTZKlGC8v5EO2esHypnFQ9K6Lx8KwR5GcgOLKz+jKeqN4HtiEI8Jbwdmdy6EI4gqW9u34xs9HP3uk4N74yhs2zzGEc9jbtojkSl+XSwPiSP3ByYs/VrEavWBNDq9GyXYRMU32w7NOSFhUlJBD5jgz+YnqwjMxId9ComgeRxiohEfnGn9cSlPNkQH8JrupiB/V9f7UXsOhQ/KwBiEJeh7zeXVxFZY02ge3TzcHD3QpMglnQioiAn4E0ldH3p4U4jK2r4O7P6FwtgUqXC/woNZpnKvPFWa/dGxbPka/yZSninJlI7oUnXoyIiuSW5soE0tZCcPf6uwOprtAHUYkbxkgFNtxYCXq5GoHBGjawBCxw9LOGud7W4L/YCsLnW0DqbHOq0jnqaAoZ40whZ5QJ5I00ocLKHTsaDzAB/uZ9jIe8D///FvYmufjvMjFJDk82ozxLoLMlzOJbgyUOS33Xs+mc5jMT5lO0+d7hXXN189zqk+jlITNlqUZXxu+4LB7Vpw0c2iHZ+AUhw9ObH34mbQ0yYC8kkB1LupYJec6LxxF0JF+REMmqfTETPkAeg2x2hygudNrAga6RHEwADgwIZVdBz3AO9RjyWKXKzxPfOCAXzwOL66uAmxW9r3o12m8DT5ZqdJUZFH0dsDSSg/9+l14XIvnKwR9oz0O68+ePSP+coQGYjNxejWpTGxr9T7oAN3/9K7O0By2rqtFe2wZSavQUe9mOEeC4fg+77qS55tDWqCuVUJfKaACMzAdNtJd+KvHZbQS6AxUAeQxnCFQLOu78mq7Gzu+0rkKgB465GrJUowlxsnCs93Kzolw7tTGrLUB9iDqVz0hz33wB3vC0zXQro0c3BF6L6VPLiOAoiTfbgf9WZbAGoA0shii1oPV3Y2kCXVw/tfpSPjCgSFo1moQrklw6L7UCtWhO1TfiZwy9dFWor24SNx8inouMbpDDNj8t5cmwWW/8+6Rw8fIhQjqWtTwgp8GM96kDatsm0OMdF5NHV59IBwr+kEaNJhXIChdLnChyak9C5w+G/kOUqcRVnHBGzoqunDxXBzK5uF4g2pAZee2IQEw+Xex9YjkMSepAn58WUHPSrMO5Xaon0CrJ1OinHCNKtxB5fIAMdOMrXmewEpzeJ1oCTI1a2NZOHiFI4zXYv3YSkdfMOIpArasSIL4RQ5A6oJw6EqxzgoCXFV/ziGvZqjU7ySFD4pCH6BrTfKzFl9WJJ3LSg246KlQXvbYBfLLZe7cgaN1KNAIJSUQ69TUdOE6ETd2BOHRN7MeELhE68oa/+QEvP/Q1+9zuQTUTaOXaqPJVoqvRadPMKX1DqjfoawSttFqDp4scNVJanTci50KbGYlOHiHICWdb4j8Jk/j5b2QgsDSXAzmWJqBoNkMSEcjDzQ8t414+6FBrR750RaCvKGr0I64xLHeRbM62WoRYgryNJujryVFJcuWj8QihiCchsz/iEohAXQ3BD0l0tUWIRBqmQ4diz2PalSGPGORhX9k/oc67M4qFavTomtVoIseP9beR/RuOo0Na636qYMtGcPEYfeA4uetCt59k5BGirSqCwzsQRK1B0KUbJo99H/x6TNJcG1RSR4HJJX/S/yrhXToxTqQ7VIt9orm1qdGX7U1kMmdba14Uick5uT+01mqFiSRHHekrDXneV2dKOGT1UAXkOozJeepAy01jwCwzAJNn/SvOr7EjRT6t7KXHDt2a1Oiz402hW0QDXrVE1MPlPtJpB6iVkuTkUZAD1KMNoLl6gKKYkCXKHalWWQLg5oUV8DJ+shTrxNYChwL16tRo0jXuFPmZXD4JNWssAc0eBMiwM6Du2Iu0roFQcu8Io64CSFsdkHV32uNEMgqzKOiw42tg5QYDN3fDA9b5Q3oSfQldmSCg6PWCaR+RR9TbYRsEJPFdbUEp2hQ5CLHmYszDHmahPiAPA0Bh1rQwyIQqkW9j7nlgLnWkCzcn4irnQnp3ib9PvlQg+KN4yTyKPIcweTpsYJLNpgyFRDsYeNqVvnUnO3ov6zSoImmsTBB0tsTLGX4dZ8qQp4mj1WZ7MLlMVVpvuFe/C0QCkEfSWpkgZMfDIA/oHcaQpymjy+7pON9ZjZPl0P94l/83GsnKnoSs27D47EpqAo1Z6KYHpZSvQO9ndzpk5USf55070RPJ0qaeD/chT66QZMcseBNDp7SpdIlO2hJXUwNYAlBEsjbulYQZhECtvx3LLHpTyXU2jQH9X5bSXic38hrn7FYDVF/GubiZQ16InA3DLH4j72XhKELOOmTlBZNc5zU3M2mZyF9hIKnZnT42gBCo654ZzCY0Usgn2ILmvtlgScLVzXVveVnxaZz0w71QQxgvWV2NEKjXoXnMZjQ24iTSxLG4tpK+hys75pztr9ssUEMbN3v9637HFzGb0khADgbvc2QBWGcH0sTJis6wzdg5Cn0u4+RE/K53xoPZnC+5/ZDAo3pXJDnm5IdQs8q87PjDthe+46LPbdzsqDPDM3yZjfoCQ1T7/00G3fQlH7xN3vrH3GsJEbZnDvZDX4pxc+L+Z5658otMDlt9aw8ddn5NnVnT9+hC0D21BAaf9QCDX/nU9ByB0aVl738mvyf/X/eUK/Q99g30ODAHOqZNoe71Vkoe8UULpsTLkPEK8p6Jp6GqKVKK54W9xN5mB/fiVodBaaCMvjTDMTSSvNnPubjkalPfNhF642R+MA6nZldX0K6aLKAQeWvLublR/+CcLY+bG3+BkxNykpO19hj7WuhP5L/k39y8uPPcrPV5vNyov6nHV/57DJvcIKofRDZI56QLLh6coPPuaaD+w0RouXkM9T4apqlpC222OECXPdOh37FFMOwCH7+31fT7vEFU48i73KwNybyMzeMc07q3RF+y8TKj+OSNk5nYBj0BAl9tvQ87UV6DnMtHb/K6t9zs5HvcnAv7eNfbBHOurp7JPS8w4xy83B0J7MRr/kGEHCvNoQvn7FZj7tUfJ/Eyh/E5158kcHN+PsLN+T6XmxvxgtqsSgQjIw5WOFyYXlkOBhk+oIe92YD0xaCNvVlPTO7u2BMSyaMD9mrtd0yGDjjEtNs+iSIgAdHTqN9jr9l17wzq8USb6XfCmXouw4u+YHldQI9SvL8wQsu42ZFXuFnRydzM5Nmc9B/7osZk3CsbpjeEGi337tgQUvEJS0+8gZgw269xr5eHcy+fcbDbG92pIT+7wwYVde7ZrvqcS4Ujedfc53GvaQZwrv2byMvJTOPmHjrDydp8g5cT92913kwMvOXmhL/k5obdxJ7lFC87ajPvWtwK7pX4r7lnt+s7CiYpo8Zs3MvJ7PpUo8lNakRnMsVhiSbN+hJ8tR3iXk9ysj3+tltjWaexPhVtzA7e7869OFOHfaxsOPtsjgU766oNLz+TZXv9LNcuN53Dzg+xsTkXZMU9GW9km5HRzywtuPtI1yUqqCkb+9z+/vWhRrfF3mbQaTecy6yhFdLsDec4mZsWWB7KaocYazo2MgbaylKNJrnAsAvetLfJD3vBy0qM5Z49OZBZ6SZs3JywV9Kq0Wrfj/9AnLzwR7yrm/wsDx1ivE0zIdAtUiVIKq3rkS+wx5UFLz/yMSczxdv+4OVWzKo2JwJlR50y+s1PbOGLTPdTt4bk48Q4MzGUd+KyGrOazdB4WXHriBajkjJStNOrNttTmgbdBY49yjp9VJtZxWZs7HNHB5EGXf8TLnWe3tl970xaZs8P/493aessZvUYo73QtaQYqho7OK/GdsPA9CXvBrRj0lmnj2gyq8bYe3NMA2VedsIeQpDhGT6ULkSae223joce++fQN+ATPefaprW1fiEZY83XBAKQ511NdebmRtz/WI5f95abFXmFfXHnCGaVGBOBSG/lrc9sHMa5GOXIu5Q0rtE1+BhjjDHGGGOMMcYYY4wxxhhjjDHGGGOMMcYYY4wxxhhrLvZ/kFEp6lESSloAAAAASUVORK5CYII='
p41
sb.