ccopy_reg
_reconstructor
p0
(cemoji
Emoji
p1
c__builtin__
object
p2
Ntp3
Rp4
(dp5
S'emojipedia_url'
p6
Vhttp://emojipedia.org/flag-for-St.-Lucia/
p7
sS'index'
p8
V1109
p9
sS'code'
p10
VU+1F1F1 U+1F1E8
p11
sS'apple'
p12
S''
p13
sS'twit'
p14
g13
sS'gmail'
p15
g13
sS'related_to'
p16
(lp17
sS'name'
p18
Vflag for St. Lucia
p19
sS'known_as'
p20
(lp21
sS'default'
p22
Vemoji
p23
sS'bw'
p24
S'data:image/png;base64,iVBORw0KGgoAAAANSUhEUgAAAGwAAABsCAYAAACPZlfNAAACH0lEQVR42u3dUWoaYRQF4CGL6DZcgS6nuyjVd92QtsEF9CWQbKHFFRgkYFEYCHamDpkZ/e/Nd+C8iQ9+3DO+TXWUUKn8BMAEmAADJsAEGDABJsCACTABBkyACTBgUgzYdrs9apyewb7+OmqAAgOmwBQYMAWmwICV2jrAgAED9snBLgMMGDBgwIBFxMqGlhasqqpzgQEDNsYcXoJlQUsJVmNlvDJgwMqZw4yzmA5sPp//A7ZYLIBFmcNss5gC7Ntzd7DTZ4EV/PzK9hxLBdaGlWkWgQErbw4zzWIasGtYWa4MGLAy5zDLLKYAWy6XncFWqxWwKHOYYRbDgs1f+oN9fwZW9PMrw3MsPFgbytvTl3OzzSIwYPefwxrrf2hRZzE02LXrynhl6cAusbpcGbA7zWEbVhtaxFkMCzaZTHqDnb4D2J3m8BrWtSsDNkJ/7prBHh66g50+2wT2YwdstOs6HA4fuq6mKzt9V6QrCwnWB6sJDRgwYE1/5z+KdYkW6e99OLAhrivylYUF64vVdmXARpjDobDeo0WZxVBg0+l0NLDZbAZsjDkcGqvpyoD16OPu9mCPO2C9r2u9Xo+GVXez2RR/ZWHAxsaqCwzY5wG7NVYENGDAhgW7NdZ7NGBBsEpGAwZsmN4bqy6wDn3d/y4GbL//A0yBAVNgCgyYRgHTQO9x9u5xr7YXYAIMmAATYMAEmAADJsAEGDABJsCASSn5CwR55owA44wUAAAAAElFTkSuQmCC'
p25
sS'version'
p26
VV6.0\u02e3
p27
sS'uni'
p28
g13
sS'desc'
p29
g13
sS'browser'
p30
V\U0001f1f1\U0001f1e8
p31
sS'annotations'
p32
(lp33
Vflag
p34
aVlucia
p35
aVother
p36
aVsaint
p37
asS'wind'
p38
g13
sS'andr'
p39
S'data:image/png;base64,iVBORw0KGgoAAAANSUhEUgAAAEgAAABICAMAAABiM0N1AAAABGdBTUEAALGPC/xhBQAAAAFzUkdCAK7OHOkAAAMAUExURUxpcSyGsyuEsUWl1Sp9pyuDryyHtCqEsSyBq0Wm1iqAqyuEsSuFszCMu0en2C+KuCqBrSyGs0qs3U6w4T+ezkOj00io2TaTwimAqyqDsEKh0SuGszGNuy2HtCmCrzmXxyqEsD2czCyHtS2HtTeUwzqYyDCLuSuFskyu3j6dzTqXxyuEsTybyjeVxC2ItjWRwCqCrzuZyDOQvziWxUmp2i+KuCyGszOQvi+KuCuFskqr3C6ItjKPvTGNuy+LuUGh0S2ItkCfzzOPvkqr3CuFsi2ItjKOvTaTwTOQvi6Jti6JtjuZyDSQvmbM//zRFmXM/wAAAGfN/2XL/2TK/WbN/2jN//3RFFzC9GLI+le77VCz5AQEAV/E92LI/P/REmDF+P3SFmHH+Vq/8U+x41O26IHV/+HQQVW56la67HDQ/2vO/6/m/37U/3vU/9XX2LTn/3jN5FK15l7D9t/z/DAwL4eHhvnPF1m98Njz/8Dr/wUFBcft/+75/v7TFikpKYB/foXX/xUSBYWEg+fz+S0tLOL0/HXN6Kzl/xwXApje/wsKB7jp/8HAv6Lh/83w/3XR//TKFOf3//7SFuL2/8/Q0NKuEe7GFY/a//3TH9+5E3RhCqCFDlZHB3Fwb/vRF83NzWnN/GzM993QRli87vj243PR/5zf/xMTE+3v8Nra2ovZ/8WjEaCfnuTl5ZN5DH1nCzk5ON3y+/39/UdGRTYsBFdXVXp6edHT1PPRJOrQM2XN//3WLHzN3WPK/3LN7R4eHvHPPbSzsb2oUIyDYu/09/PWWP/uqtPW1+Ts8NzUtJKRkNSzJYRtC9bu7ufp6tvw8KCVY/7lfD81CHBhI5WUlITU9P7fXeLovKyrq8nKy01AB8CfEbjPgHR0dTMxKO7z9dm0EyMdBazOk+vt7hwcHcDPc7vq/6zi+KLOorOVD4XR4O3db+vz9mFgX931/5jOssnPZtHPWOS9FCskBJHNvPrplnjO64vNx+LlrLbavIPN0tfQUNTTZMfTe/zXN8ypEXoDU94AAABkdFJOUwBGL/ICDlAcAfQFIzuP9nkLSfz+5/D3wAcR7j+UVRXVIOFZXcbZgzH949An3MljuhjVs8z5dk2qfiv5ZqCdiOto6aL5NmujtbBxbd/A//////////////////////////////6OEB+CAAAFh0lEQVRYw+2YZ1BTWRiGDYHESElCCCCBNEqi9A6hWMa6u7cHc2mGiJqAFVyJRBQVBWyIDbH3surqWta1b++9995772X2pBAScs91xjg7+8P3J/PNw5tz3u+c79xBg27q/64hGp5s6A3gBAlTuKNGB/vNkZdyGxE6PDbaT05wSZhJj+irEpP9Wx5OupZGgKgwtR+YwMJSlZmycxB9Q+yQ66XIZaUKbRXikiGbD68dLOIXhuSp04rS4tU8sSxEU5gcrOTz+cpkDacoNGqUpBFxi5KKIZToYF5SfqoqRhCp0+kiIwVc6YgIVUrmcKDMlAiprmEKjXiqNimQCZMRV6Lg1pYbTNUUCapIkqSoapo2GquAjCaaQgi9F4eYEiX3xShvieJObaT0A4qdy6pn+CMQHRHiE9X4hEgr5QupK0PYpM0d8NsKS6RWkmCoXDkNY+EQ+7OCvHaVkyChmc3PmcNqyajSeHLiEs0kc2FZ83pWS2TOSA8O71YrrLB+4WlWS4R5nMgNClHsh9VhdV2nV7Baqsp0Ny5/QgMCBy3YPZvVEiWI6wMJwyg4aN03x5edmslmqb9xbysn4KBZG+cv3zSDbd8MqX2Nm2BlAc1cf87WemoWiyUqhuMCZVngIHJJ2058+T0z2FbJ3bglDSygLV99jdtYV4mwRrluk1KJHg5aeeRuHL/90Q4WR/QwV+NO1MGLsLXPnMFx23zWjQufONgBiueS8KKOO+/C7ZZYNo4on+BsXPEIeI6Q1Xcsxh2WWDbOmBLgAI1R0dCasuZN9+LXskRGpjlvu0wjtKa+a81h3GFpHtwSMbXYceNmJBgIeKvdvwp3WYJnqVHhGAKCsqDRxtZtPO4E2ZbNg28cxXU0bnQxNNqgQ56w4XhnJ7A0G25JXxFqb9zAUGi0ySUtrTheefLEUrBKLOeSISHDbilXAu+Qlp3A0LHubZXAEvxcqnY2blo4NNgr3wUdsqNn0dY37KsEtyQpsIebJyChHfLhGXzV9hq05tiP4BCAWiKs6fbGlcGjPQd0yNn3FqHoru1Lba0rlmDQxh0DQAHQaJc1gw7Z1oSiaE33ycrFmz6ph/1H3Vjw25TQaNd37f6o801gCEU3/LCj8lwbzBJhyQe3kjzBAAHVLVhzeEdPDeogbT67eHczzJIxEdy4ovGQaINgv7Z0u5MD9Pn7b7cdhVgiBeDGjR5thoCmtbz0wlY3qOnEO68vrGcmEbWhYNiDRRs72tL6VFMfB63p2bazbQvEUniB/YqERBs79NCDmze4QeiirS+uWVjHSLJka9ii3XHkgW7UQzWbn3vsEFNheaLYfifxwpijXbb6wH2TUC89+fiCgz6WSLPCwRkki6EgM80jvd4ctOnhA2t9jqOKVJnzHtEwRxs7+PQrAwyhaO/zzw44dE3hWX1TG+TUxma9egn1Ue/Pn3r17hRprHv8z2CONvbyl5MnT7LLi3Tpt/7jhKArFCP7x9Gg8VamWxv74q99+6ZPv3Dh/PmmXbsAb7JT//y+x4WhLDHjxnjMx7Bo721vb597+fIfv/707WcfvPXxd9//CbhAf/8CLOkR2iJIj/OejhmiDUZ3krxCkhh28SIGhCB79u692j7Xrqt79AhlqBiRFZ8xYOwXSrxABGkymGt14E3DDdNJGsoNRpqyv07AQ0KPYeQV2mDRSrNDOb6P4yKPgYSgGqdGqqKKk8aq88R5cUXC2Pyo4eC9lKOVVABJtDnSYan5QjGf6c3ncWrTZsHw2PgAef+zN1AkVwaE5MWPzC1ISioQjlVzAvgiyDMtJKbaFa6KiHy1csh1v1NdpzZlHlXMCfLn3cxPBXOEvionPU/k5/eJXIHBZIko4Pv9ZWGoMDslPS76BnzrCOQn34hPJjf1H+lfwvIOmuAQ9S4AAAAASUVORK5CYII='
p40
sb.