ccopy_reg
_reconstructor
p0
(cemoji
Emoji
p1
c__builtin__
object
p2
Ntp3
Rp4
(dp5
S'emojipedia_url'
p6
Vhttp://emojipedia.org/flag-for-Trinidad-&-Tobago/
p7
sS'index'
p8
V1128
p9
sS'code'
p10
VU+1F1F9 U+1F1F9
p11
sS'apple'
p12
S''
p13
sS'twit'
p14
g13
sS'gmail'
p15
g13
sS'related_to'
p16
(lp17
sS'name'
p18
Vflag for Trinidad & Tobago
p19
sS'known_as'
p20
(lp21
sS'default'
p22
Vemoji
p23
sS'bw'
p24
S'data:image/png;base64,iVBORw0KGgoAAAANSUhEUgAAAGwAAABsCAYAAACPZlfNAAAC4ElEQVR42u3dP4jSYRzHcRVFHDuCEBEs5LKMw6GIiKglHA5sa4mLIKFBEIKWJpeGRqGlKQgiCBoMBAOhLA8uQbryWryggoagPxS11eHVI1TLSZCP3/t9n+f9hs9w08G9+MrB7weGNklVIf4EgBFgBBhgBBgBBhgBRoABRoARYIARYAQYYBQYsE6ns8n0bAy2tv/Y1pqhkPXl8/ktf9fTHfPsH/sDZn54vueQGFoqlQJtWjCztdxRMbRsNgvatGDjS9t9UAwtmUyCNi3Y70mhmYFmAQw0hWCru/KgaQLj0pSCgaYQDDSFYKApBANNIdgktEgkAlpQwSahxWIxMbT3128CZgOt1WqJoX28dRcwG2iJREIMbXXnPsBsoLXbbTG0z40WYDbQer2eGNrXh8uA2UCb1b/9kwLMAtpgMJC7tEcrgHFpjoOBphAMNIVgoCkEA00hmNnby1fE0Gq1mnNo4mBmr85VxdCq1apTaNsCZjb6/gM0TWDjS1uqiKGVy2Un0LYVzOzlqbM8vdYExisHSsGGJ0+LoRWLRbVogQHj0pSCgaYQDDSFYKApBANNIRhoCsFAUwg2Ca1UKomhrS+eAYxLcxwsCGjrpSXAbKBVKhUxtNfnLwJmA808ZZZCG21sAKYN7c2FS4DZQKvX63Iv94xGgPFGluNgvqA5BeYDmnNgrqM5CSaNNhwOxdCcBTP79viJGFq/3xdBcxrMxY9H58HMvtx/IIbW7XZniuYFmNmnO/fE0JrN5szQvAEbb26vGFo8Hp8Jml9gv/bhxm0xtEajYR3NOzCzd1eviaFFo1GraF6CST8IDYfD1tC8BtP4yoH3YNrQAFOGBpgyNMCUoQEWQLRnyQXAXLk0wJShAfYfaOl0WgxtkD0MmA20XC4nhvbiwHHAbKBlMhm5S5s/ApgNtEKhIHdpCyf+gjFF3+PMd4/z1fYEGAEGGAFGgAFGgBFggBFgBBhgBBgBBhgFpZ/PAVxW2/w5QwAAAABJRU5ErkJggg=='
p25
sS'version'
p26
VV6.0\u02e3
p27
sS'uni'
p28
g13
sS'desc'
p29
g13
sS'browser'
p30
V\U0001f1f9\U0001f1f9
p31
sS'annotations'
p32
(lp33
Vflag
p34
aVother
p35
aVtobago
p36
aVtrinidad
p37
asS'wind'
p38
g13
sS'andr'
p39
S'data:image/png;base64,iVBORw0KGgoAAAANSUhEUgAAAEgAAABICAMAAABiM0N1AAAABGdBTUEAALGPC/xhBQAAAAFzUkdCAK7OHOkAAAMAUExURUxpcfVzgfZ3heVHWOJBUuiCjdyHkMyusvZ5hu1ba+tWZuVIWvR7iPd6iPZ1g/JqeeREVfV9ivRwfvZ3hfV7ifBldfZ1g/RxgOI/UfF6hvZ6iOhPX/RwfvV1g+E9T985S/V3hfRvfvZ5hvN7iO9gcPNseutYaO1dbe5gb+lTY/BldOdMXZ2cnPFod+xaavZ4hvFndru7u+lTZPZ3hPNte/Z5h1JSUpCQkOpUZXZ2dvZ3hfNse+hPYPRtfPVzgcvLy5eVleVHWPRvfeZLXFpaWo+Ojvd9i4OCgo2MjGxsbJOSkpeTlPNufPV0gldXV4aFhXp6eo6NjfV0gsXGxp6ensvGxra0tfZ2hPV2hXl5eUpKSoGBgZGQkLW1tX9/f66urqqpqcHAwNavs72tr1FRUfZ3hu96ho+Pj2lpae5peOWxtkJCQoiHh9Khpre9vfBldNqzuNtseLy1tuWHke5fbs4RJgAAAM4QJf///88SJ84OJM8UKQQEBNEXKwoKCtEYLf7+/v/+/tMcMNUgNNIaL/n6+g8PDwEBAdotQN84StwyRdAVKhkZGf3z9f/8/NfX15CPj9kqPQgICNAaL+qWn/3w8r6+vuvs7NxTYmhoaNY2SCAgINMmObu7u/f39+JxfldXV8rKytclOd42SCIjI9zc3O2nr//6+vTJzvT09GJiYvnh491ZaN9fbvDu725ubvzt79QfMi0tLRwcHNIhNRMTE9EeMn59feN2gvv8/DY2NtMpPPrj5iYmJvG7wenq6thAUfXM0dlEVTMzM/vn6ikpKUdHR/G0u/TEyubm5tk8TdYkN3l5edQsP4qKiumSnO6ss0BAQPjd4OFodZycnOaCjdpKWtUxQ6ampqCgoPHx8To6Ok9PT6ioqP3295aWlrCwsNtOXvfW2t7e3uTk5NsxRD4+PuqZovvr7UJCQvja3ueJk/bR1eucpeyiquR6hvK+xPbU2NpLW+Dg4FpaWuR8iNpLWqurq4SEhO+vtsbGxu7u7i8vL7W1tdHQ0Ove31wQb74AAAB1dFJOUwBlPvX5BgMBMNXi8xAhUqL4DHpNFr9cdfwJHe5/Wf3+G4gkKcWW3dDL6rjwD6zbOLRM50aPLPNU5sVEn+uSbdcZ94T17l8ToWrWJx6LYfGRtTRqrtXNPklKu/icSR3Lg+98qRz+ScpF2+3f+1Z4G8j0+jN+zgO7sT4AAAYUSURBVFjD7ZhlVBtZGIabEGggBYJTLBQqWKm7u7usu7t1cu9EiEAKS/DgEtwKlEJb2i1apFB3oy2VrbDt1tdZmwjkTrSn9MfuOf1+TibP3HvnfT+ZAQOex389zOk21EHPgDPIPpjhb+vTb47j8nlVGN91xuB+cnymzQkDGBAH+/bveKY6efExInAzz35gLCYMsYrAFRwMRA6zeFqKI3WIpZcYUwWo8nMzfO/AoHd8qQ7OFAplhafNC9RR9Am+PtZubm7WvvRxlBlO/qwqDKhBGDfwRUPbXzrpjXUbPv6IwaTRaEwmgxE4fazVcMsRIzaNsBw+NpAWeZCvwRBLYs3Vu7fZk15ZMvHdS51d7QeU9+E4VyrlCwRhYWKxOEzA52IAoShAB50W6mKWLZ4ysXonj11wuRN2PEIeDNSB6QZ/LFUbE7RgysvbeWxFbK58DK9VSPX9USe8XAaSOUsXrcxQYYjgXfwb1mXLnoAE4keTDGfxwZQLCWxNhF9IFm47XWOaBMKG01HOpx/Wh7NJ0XZOEn000zQJZ1IQ5YxZf3EzWyu2x5UW3ztrkgQibDXG3TirsfBK5Z8JZNLmQykx7emmSEBs2ZdLPl/XCCGUx8bdDCGRQtIeix40mdybxrifffmwtYtACR/HtfBQEi8nFu59ZGpJGuM6HUhvPplYkkSgYg9loKTwfbnwWjnX6PZAqJ+3GvTFQQ6Hwz1cUVQngvKsi6T97ckSlp3kGyVJ3cepQaPjgdIHsjN36yDcf4S0qLYrku77xqXZZ9xpkUBtKdnVY0lQkvUDelIZ5+VJd3YYIYG8XuMOYfXeBjg7TpbEwMJKVFVRcaVdt2o5hkn8yaNUIBcagsfSE7th6al6VFC7UoqPGROUq9q4zgz0KkdWUSISJqPbS0i7LmpoMmLckXZK0HvTuaTrWPq9JBi7JURLUKk4MGHcUVYCrV927C6Djbt2IiRCULcNZqhe4/pYirXuANzUEpH8VAFZUK0/13AMGHea0riOQ0N1HgXSi7q++6sFyS31RF5JrAXGjDtodJ7u7yDzTjfM3cdDZdBZ/PsBvUviMmwUoMG28XoeBGTZdTA2h4fmlUZYkqrPeSB/vELcFssj9a0YcMt/hNcrkZeXsKUQnsiWcfQYd6jSuC4s/VvHmhtEPb+RXt4fwqTEw0CPcacqQCtcDUkt/Vix/PJ25OVV/yqJafhFd3ssD4W4bcwMirY2MVpyqQ1N5Ud64O3d2iYGeQGKqkQlS5t0R83pbmFWC+q8tEIYXdSEAT3GpVvxDRtJkF0Gc48jguIdz5LAh9mZHBLKdSaxN2vLMCPphlt+jSwDdkFcCoxuT5UhKJVx9UkbjTMdZBmwQ37KFcLWW82CPhQICyaMa6dP2uiimhpienahyS68+lQKFJ1ITK3F1CzcbC3RXdlGGK+D4GxRcWlcFKl85iTLoai74/SZTClGFA9O/gxC2uMjTRRUkHk0SXKujVQ/M9KSSyGMae24e7/i6tXUr74hXps9y2RlrtldJky+ySO3B2nJW4nCCmOit3X/s+FrAkRxNd2/EM4TFW4hF/XwqJxzhXIFq2fWGKW05+CmSVjzAxEpbarOqiXtfO71/SrOAKo79wm6PMWRy8/Xa/c/7ISMtPUbVXXEmLTRAkMcuTD5OE8LFPLJ6jW9M4oxaWsdObm+KM5p5aplfUOTCWlrSNLyvTDlCJJYEvYsWRykmeIC8p4MRBx5U3uM5MoFtYl5BfMXrUH6Y5PSRg/qcKKifCoMk1A/8aVJQaTuWFfaykYfx3FV30+u6dknYOfl6qg981cvmK3V9pOlDQAuCI34lkbMNAwzGutGfKhYIMV7Rwkii6V2bP3+zddXvRqkM4ZQ0IYEr7rBtBpqO3ems4ODgyfFfthIJ0srdwbNlcXKz89neTEDrd5/+60xr+mbi2zM8L6MGGG2aZgz3dFcs3E7R2s6McGtdfHwmOthP9NzKt3b0FBMdZeqMZH+I52tzZ96Tp2gbEgAN8Lfdpxdf+ZmN79QxfTNDHCw6+f3CZd5oYL4yR7e/f6ysNDeLzjAxvwZfOuwcPNd+PzL0f8n/gWvuOBnRpSJDgAAAABJRU5ErkJggg=='
p40
sb.