ccopy_reg
_reconstructor
p0
(cemoji
Emoji
p1
c__builtin__
object
p2
Ntp3
Rp4
(dp5
S'emojipedia_url'
p6
Vhttp://emojipedia.org/flag-for-Tristan-da-Cunha/
p7
sS'index'
p8
V1129
p9
sS'code'
p10
VU+1F1F9 U+1F1E6
p11
sS'apple'
p12
S''
p13
sS'twit'
p14
g13
sS'gmail'
p15
g13
sS'related_to'
p16
(lp17
sS'name'
p18
Vflag for Tristan da Cunha
p19
sS'known_as'
p20
(lp21
sS'default'
p22
Vemoji
p23
sS'bw'
p24
S'data:image/png;base64,iVBORw0KGgoAAAANSUhEUgAAAGwAAABsCAYAAACPZlfNAAANa0lEQVR42u2dCVgURxaAJ2riF5OYVREQkENucTgEVAQRhUQQROUQo1xyCp4ol4hXEjUeiBAxIAooxriaGFnxJAIaRQlG4kpQE9d4oPFY12+JQddI3na9YZppZoBhmCaA9fze193VXa/a+vtVvX7d0wiASpcSAe0CCowKBUaFAqPAqFBgVCgwCowKBUaFAqPAqFBgVCgwCowKBUaFAqPAqHQaYKWlpUC16ygCq1Qxa56owTKFVSzEflPl03577XZW5QDjAxqfwFqC9coAUzY4PoC1BuqVACZPByjSEcoGJi+sbg+srZ0hb4coC5hYqiyceRkJuiQwPqApAxgfF1K3AaZIJxWdvc4LMGKXyGWTMZ0WVE+t6Z0DmLKubEWBdQWvips6CPyiF4Km0YjOAYzTeX/+qZC3tRVYV/AqsX4SoAUld++jdipg7bni2wKsq81V6aEiYHdqazsfsJa87cqYKTI79MyFW3IBEx932diBs/9Z9U+dNqggkLIiByOw0nu/dhi0NgNTxBNaA9bVIsCnT5/Cnf/WwjfLh7BDIgE2aYpXx9448ymtAeMlq81Hp2lHoW0C6HCSHsI6e/8hbnfEBUWBKZgWI4DEHlYuAYxvaM3mEruDKruzYuPiYaqPnxSwigePQNPEDo+JclMHQX41BdYZgKFKwNgbow3FNb+KbqC1g+AdDXsQGC6nwDoVsB2X4Nz9R6jCqVtB4JgKldv1wHhiOlsuSL9AgXUaYIZr4XS6DghMtoJRwEFcLgtSxeVCv0GgqamO6xRYZwBm+JEIBqNX84fA7mQNyE3UxHVJJfvTfvsfBdZhwIYkQMiS3VLl/Qfbgb+bFkK5kDkSLE3VcT3HtCcL64dsC1wOVn9bBK+pbSNnCkyZwPrpjoecU8DquyajREHE5AVgqKcGf3u3DwNCH3KG9uR41ZjhavBtvA0ccHsLTqdOAGPtN1mbmw8+AEFasciOWHWn0vswZd6HSUJjO5kpJ3C+W6uJw55a1jN4TZgNmYtF81YPyx24NDNUg6o8PTxew8BWZEMcYTbY6aET1VhOgSkATC8WBMuqcD3z+O/Ymb0Gz5AJ7C3jhTBMrzeuCxuW4jlNrX8v6DPjFKyLGsQBzwHWYIuUvzZkEQWmqIfFbirieBbR3jozOJ1M1NroTdAb9DpCWhaoAtPG9YW0eWq4XbJZW2ru4gCTANcuD5O3gmQGXlJ+mujPhVFf3y5gT89/zzn2YVY+m9nnK2TuoR3G8QhOR+s5sMet3FYAG/eeRvUNj4O1O0/gelxKPh77TsoBPE7V2IO1l3mirtkbcN6Ayes9kle4vM/DFLHdISo5jDFqYGjGwhKrQCBAHRcwn+M9TVVss4/eDH4frzgH5rbJq4TuWxR6gGnusaVN3kbOizdQuvMbge24iEt/bXN40lsIjxiVBMWBJwH3ky+uywSH8LSD+QHW3itfkXc6/lJva+JRHJ21GoJj14CmrqEUKFnAenlEsJ6lou+K66tyLoHztCQQeKUoF5i8XvWk4JiUVynjJZy/zNtIZ2vOBIGKvWjd0AE72tknvjFQkOFZrMfphInqZZU3wovP5gyT2E5DRKoUYMq8wtv7XmJHe9uK7RelIrnXdUOwzMh6kshLsg/J9C6EJq5LgEh6Z3pJYztLvlcOMJfAPJmdU1taJtOriBd0xIukzXnbde8wmd5G/h/tuWFW1R/Hbu8oqZc5B7UIjDwXW/WVyJuiNkpHhAgrmZ9MR3uvZGW+W99R3tb0/ijlqxopYFpDjDmgrMdMEA2JLdjh9RWB9ngVnz+GkNfb6p8/l9tm0QYv+HHvHHC2tJIrXYXbMuYwOy0zmJWwSf68pWEYVDHtlm8Lbh8wZV6xfP0+TB5va81G4TpfOLJ6MlTkhMKV/fMR2jebfFv1vITUPfB2335SwJ6Iw305zn9XvAvCqtwZBhU7QvE8lvgMbxuwpl5VPWIilu87UtXul1b4+EEfOa+WvK21+hW5YTDe3ALXrx9cBNe+XABntwaA/yhR4vZiXjgEOpqKkrjjZ4KG43TQcPCVAqU3egbo280EfVs/0B/uDSY2H4CJhS+YmE0FXR1HUdQ93A7BkHU3c0Ns5yrTHmmXlHla6jMA57b/B33KesuIr5/MtuRtrdVzExrgcqa9EfxSGAfXCxbB+awgyJ1ji+XnmHU90+lQnj0Lxu+uAbWs56hCnxgE9XHOUbasOR1hM5upHwyuVkIW2N74sWibwCLtOlvZYPmYoRb8vEjaHfTAcjfYOd8B+hiKMhrl2wLg5uktcGCpMxR+NAmSJuqCh80wuF8sOj7czbJVOLI0aJQu1id2JtsKYdF7umj/+CeecOfcdjizRfTrlzcMFuP55C8eR4HJ0sMfe4KFiWNj4LHeE6r3zYELOaL55PPFTrB59ljc90N+JMfDxGoQmsauq255AmqZdTI9jNQndgIcjCA7ehTaP5cVCLePJEBpmg97DmOHCuHwak8KTJYme1tytu8WJcG9b5bCZ0GmcHTtFLzayTwz0Fg0jB1cMZEDgsjAjXc4Zdty86GsrIxTRurha3AGiXD2swC0S+zvmmuD7ZF2ObcQQTYUmCy1H8oN4e+eSMJhq3JXBOTNHQEnNvrC9rmj4UHJcriybx44p3NBZGRkwB9//AFec1dAemI41NfXg3XwSgQpeZyTlSvWJ3a+XukOhYx35c8fhe2Q9ki7nNsWY0cKTJaSK11yu+b4EuzAo6s94Pg6L8hhYGUvcIY39GPhwwAHcNl0kgOCAFJPLGa9jSwfPnwI9+/f5xz3npU97Fs5GVSNZkGspznkMe0S+18nu2B7pN2WzosCa6ZjbjHzyeXdkUwoHwb7E5zg9rFEOJniCxEuQ8HfwQQ7GSEw89SePXukhkd2Lkt/zNkm9VytzDFKJPbuFSXDkTWeOK/9dGABtkuBKQDsxqFYOLbWA37YFQkn1nvDHQZY+DgTLCehd2qEgxQcoitC3LFMY/M9tmzgxho4dOiQaF6bYw+/MDZuHYmHSUItuMN4FLFP2jmX6Y/2KTA5NMnThLP989cxcGyNO3OvFIIdWv33uXB0zRTcFzPZGnwCAuHatWtSUaCkSIX1mc/AffgIWBfhhHZIsEHmM2K/jIFVkuqN7Uqex7IpphSYzChxshFnOyt0GPzrH4sxu0GGMXID3Vs/hhm2FuJ+WWF9iKN+y8AawnpSX2zn/LZgtE/aucG0lxttzTmPpZOMKDBZmtdk6Kn6Iho7dX/CWOzQvHn2sD7QFlIinZoFJkuaA0bsfLl0AmRG2KL9L5c4YXukXcnzyGXapcDkmMP++XkUlG0PgQIm9N7kL0TvIuUk/CbLR48etQrnffPBUsdsWJ+F9b9rSEvpGPnAOj9TKFjhDrePJkoBo3NYMzqzIcErVpLhuLR7NuxPeo9TToB5jTBGYO/OymkRWlMZGJ4L77/vDfYWo1nwYv2K8bbKnRGYp5QsDx2jT4HJoxd3huPjji9ix8JrBksbO+hT0Stp9x48RAiqIdtkAmvqXQNWVooS0A0PNcWJX6Jmho6QHWGJAYg4bcXrVwS6i+6ItmPXSQrpTIY/zi+yhqVevXqxgAbEl7Bgbv78o5R3kRvoAcnnRcC0QmQOxyRiPM1cDBmRjV/R2RpqQ4HJqxOEBpg+OrjMBfbGj+fs+zSEieS0o1kgJCUlCam5dfEjnnlOGhx7xD7J1pNMx3Rrdeph8qq7fm+Y79L4HnxZZiBsiRwFnwUPlciAxENxqp/Uc7emWQ7xUmX1FSlgxanT4Obh+MYn11HWsHiCNob44jI/ay1wN+5HgbVFTYxdMatRsnk67FowBssywmzh5KZp8IF5X6irq2NB9FtQyK576PVg1/sGNc5xp06dgqlm/eHEBm84kOzKDoeladMxQpw4TKtjvoTTndXXfACmi6qZgIB0bhoDjKSpdA08QHXwECkv40SFKXe53qXpD6NNhJjgjXPVQXuX90Sj/YjRqh336aJXQUmKinQwUR+LQY1Z/ZoaDpSl6zMaPr/1J/c7W2fOsHUi7NVZWyQa7fBvTb2q+uncCdDTMBkfrbQk5eXlYOc0G2IDlP/tKQqslZd7Xry4ywB6Bi/rX8AFFUvU4lUj4caNGzJhVVRUwJkNLuyx1QWrmKjyIdr5/d+3KDC+gaVffIydTfS7wVZws6gAXjL/dsc5wTv9VeHq1at43KVLl0DwhgqUfDgC91emfQyn5tmydY3z6uBibjgF1hEe5n2olu342ge34fe7J1HJ8Mj+PppZEljifQQaOd5+71O2LtlPgfEMrLy/Oaq404keXW4Hx1eMklkn0GsGA2YkHqe9vQ6XYhtV+xMpMD41O8YFihYNh6uFayDKbxpcf/wraGY/QwiyXlQlHif2SkmvOrXGAUpWjqRBx1+hBBoBQb7RIQpIfkNIL1/+B7eTvn3C7us0n5B91VXSg3wLa2Hc/t8g4XQjqBfP7/LWNgWmoOraxMCL/93jwHv6uJr3dimw7vKnPKhSYFQpMAqMKgVGlQKjwOjfRu5Sf8eZ/u1x+qftqVBgVCgwCowKBUaFAqPAqFBgVCgwCowKBUaFAqPAqFBgVCgwCoxKZ5H/AxyZbc7MydmSAAAAAElFTkSuQmCC'
p25
sS'version'
p26
VV6.0\u02e3
p27
sS'uni'
p28
g13
sS'desc'
p29
g13
sS'browser'
p30
V\U0001f1f9\U0001f1e6
p31
sS'annotations'
p32
(lp33
Vflag
p34
aVother
p35
aVtristan da cunha
p36
asS'wind'
p37
g13
sS'andr'
p38
S'data:image/png;base64,iVBORw0KGgoAAAANSUhEUgAAAJAAAACQCAYAAADnRuK4AAAABmJLR0QA/wD/AP+gvaeTAABCtUlEQVR42u1dBVhVWRfFGGuccMYYa5xRUVDAFjsxUEIUDNKiW0S6RFJE6e4WBem2u2lFxUAJEekUXP+590mNT0VHHeeft7/vfCi8uO+c9fZeOy8bG0tYwhKWsIQlLGEJS1jCEpawhCUsYQlLWMISlrCEJSxhCUtY8vnFxkbwB/ewQSs9jlaLex/tt9bSUupX1q6w5IPi4bF1aFD8QI/w9PrGo6dq0b7CM+pagxP7RLr6co1n7RJLmIp78NwpYalNT0LTqiFndh7ThP0werEjpqz3hpTeSQQkVSA8rbHKK5J7MWu3WNJNvEL/4AlNayrzjCnFeD5XsE00emsNn3cIR8IeIyy97qWDx8jfWbvGElq8I8YuDEuvf+keXUI0zhGm4Glfvy2wR1BKJYIT4c/aOZaw+Rz7cVN4RkODQ8QTjJh/6L3gaV+7Tc4RTtTUYGoqOpi1g/9Zaevlf2KgQURGXZuFTwF+mmnVI/BQi0vAmybWPse+38Tax/+guLpuGxKc0PsEBQJ1m2voP2V/j8FDrT6TTeAbX46gxLYA1m7+10xWxO/Lw1KbH4emV0NAMfajgNN1qVlfRWhq4wvTZSZ9Wbv6HxArV64hgQm93SIyal87RBSBfbXbJ4OHWvO3hdJmzD3ityWs3f0/Fjk52e/8Y35UDEtrfB6eUYPthmfQf+r+vwUeag3iPoCQtCoEx/eyY+3y/6GYmi4d4Hui9+7QlOb7lKbY73UH41e6/G3gdF0GLjkISW4rYO32/5E4B/w6KSi+j0VYWkMpBRybgAeYvSnwswKnfa2RjcbRk7Vw9J0yhbXz/1I5Krapj1vAgLkB8W1GwcltNyJO1oAyVToOt8Ej5PtFgNO+hs49iAgCIL+4V7r/qU0XE2vrY2MzZMwRz75z/KOHrPY+WicelNx3t//xNi3fE1UGfvGVRv7xlcbU8o2qMohKbNqbeatNqeDGw+3VvvGStU5nNzX5F66udY5YUm11dU7RmdHsKSnPxmptYx9quiz9C3kl6KWnN32YR9gvvH7R/aUC4pptg5Nep4em1dXQyU4CHEvfAgirxONXcrBfEjhdF6XhQpNx4f8SKJcTVX4Mi/5+WUBMi3pIYm+3kKRXJwkneBiWVtvaNdP8zkUOJfHCC9zKuou7tzNRk5COVxFxnetoPF6cOo/8rCzcyrxLP4fSACEptS2hya0vw9KbHgYl1NwNScKNsIym04EJ1WlB8U3xoYnfRYanNwcEJ1f6BcRX+fjHVXkFxNV4+sdXeQclVvlGpH8XFJzw+kRQYnV6aMrra6EpjQ9Dk+ubul4blfC0CXwAWdNzWCQRjp9n2Xw10HRdYntSEJ5e23bkyIoR/3rAlO6tHd7oel68yf+0R9HFvOzsnPy2hPOV9Ib7JbwAFXFVtb6CrXvTsGpXFGaLBoFjrQdGL3bAUN6DGMRjiX5T9qMvhyn6kSVrEIuXVfWoe/gE9zfLI5djMfKmLsMdnpV4KLQdddduo7Kykl6lZS+guP80RDWSIL4vA9uNzkLZ8hI0bK9j35FMmHrk4YDPPVgHFMI+9DFcjj2De1QJPKJL4RlTRtZz+t/uUcWg3GybwIc44H0Xek5ZdMxFUu8U1ivEYq5YEMYudaSv8Z8AzF/XHytc6P31jx64618JmnLza5MbvTMMmwPTr7wKi2ujNEOT31G8PHMRpaWlsHS7gF/nHEQv9p5vysApZtA9mIrGhhbUnL2MnGkrcWvoVMb6dQrurt6Khqx8dJXW1jbI7DsOtgmG38TBfq3Vi90YrseLEZzIFvOvAU3y0dW/ZN+qU392If8GZUZehceixsYVz6TVcHfWGvqQn7v60wfre/QG2Mb3/FAHc+3HIZ8LaGl+hcoTSciauKAbeB5u10BrZTWYyWG/i+jNbvSfAhC1dhqfRXhafb2pqcmgbxo4jkGjpgXGt/odP1nTeCurAI+zslGiqIecrof85qAfq+jTh3rxxhOw/WnQo40YMdcaiacL0NrcgjICwMwxszpe8/Zv01C83x5t9Q1MwfOkuAobFEL+sUPsP2kfvp+85x9572nCvrQZ84ocLPxNAsc1+Id5wUlIoghqYPJLqFpcQMHDcrxubsY94e3dwfNm3ROSweumJjx48hLDZll+cBMmrTyMzPwStNbWoUjnAG4N4+p4rcwxM1HuHYrXLS1MwZN9txQcqxz+US3wI6cm/py58x957+8IH/NPrEBQAry/KeC4hE/lDEpojaWA4x33HBvVkzB4mgWtUc5ff0wf3iNlPVrj/BVA+bzr0VL6HOWV9Zgp4PzeDZi61gk5BWVoef4ChcQMdtVkOTwrUHPyPFPgtLxqQ1RKLsYttvvHzchILkUoGtliIKfxP/L+lLMQmtpUamra1vsfBw7VERCU0O9QxMmGFv/EFzRwBnCZd14w4TT+x2/Sh1jq4IVbQzjfAhBlfpoKHqC5pRUCO5lHYntNMMIycR88K6tBE/G0KHLcFTx3loig8e59puBpIhzJ3OU0vp9q9o+Dp/dEPSxZvBZhp9OwTsnrozjf51pUKIEyYy5hgxf8s+UGkSP4CZKfUIExBfOL+GmG9dsXTDwdo0Np9EFWJZ/CzZ853gLQzZ8no/bMJfoxGuYJ5Dl/AQ9Zq6T98bSkGo25d3GXb0unJiM/72+WQ2sVc7L8rLQG8oYx6POteEITDSC/aQFibt1EbM59TOU//Nbn/dLre2IZqBKRoPj+1v9Q8k9gUGBCPzfKXNmHPqLjM++74K0q4Xj9+jUacu7QBPctHjSEA+WewUw9MQo8FOGtqmlE3eUbyOVZ2QGe28O5aQLeRrgQMyl4+AJrtgfQr/EteUKC60SQeOcuLhKzHXshl2jGr2/KjN1zEZrcnPcPJAB5JoWkvMqiwCOldwrfcX7YLCwU9UBNXROaHz9F9tRlbwOIAKJIy/QtT6w3Wbt0oujnUtwmh3tFp9kbOwslti6EfDczBc/Za48wcbn9N+dGU6EDMWlFhJ1KwfmS53hYUw1bv5MYzPV1g43rFGIoM/b6kOecSV8NPN5Hx60NS2us8iEkeYaIX48vdsJSOzwtrabNzJ3losw9sQ07iKfWgnuPKmhPjAKPkkkcagl4qpJOImvCvG7goeI+aG1lyndsPc9h2GyrbzIOM3ahBaKvXsVhZzOcKy1HbkUFHpN9UTMLRh/2r8eHqKJ8Oip9otferwIe3+ND5CJO1r86GFSIYfM+zpP5fooZ7hSWA22v8WCrAlMA5S8QxKvyCtoTmyvoCvX9iWhqeoXqlNPIHDen43HZ7AtQTQDFTCqJmVM3T8SAKabfZiCP8EHxfX449/gJDh3ai5NEI98g3uS9ykoUPHkCE7sTGMDx9UB0MOghQpJfnfni4Ak48bNO5MlqHAoswB9L7DF0tiWGzLDA91z78d0kY6KWjYmXZPhuMjjeAKcuF9KH/JS4r7d+eduVz/pzLu2JvSLu9tHEHBo8FZFxuD1qeqebzrWc8Ki7TMHz4mU9hOWC0Ysyf9SieBS1Jvxl/YMA6sduAI+oNNwkoLGz10FMTh4NoCwKRMXF5LO/gmfISfwy7etwoq17U6nkaqud3dKhXww816+26V65VYi7hc+JGapBOTmosoo62p2+97gCl249QUhMJiyImyytdQwzBFzwI485bYI6AEUO0i3kCn3Q5f4RNGlm6omdv9oBCErz3Fm8AXdXiOGxkh6KzexRfysH75KHRZVIv/gApy8/RMq5e+SabiPg+E16OfpfhLnjKey1TIKC/gmIq0VgAwHbgo3umC3sSn8BvsaBzeC3QfbDx7hGyLPvcT8EJh6niXT2iwrklZSgtr4eOfl3IC8jQcyZ3he/ngl8brQZ840aJPNFwJN9s00xJycHT4h6pbyoDwn1mPqGFvowY9LzoWoWj5nEHPXnMIEG+TcltRev4+ZPk5l6Yi98w9pf6J2e1ecWijNNI6D/4q400X76VseJia7CpafFiM+8CQdnE5wrKSMaqRz3CRcKiUvFsvWK4NsiDrbdx8HGa/eFCb0xqA7X4ITW458fPDf6CeRm57c+fPiwR+B5F6Bq6pqRfbcMJ9IYGfHGO/eR+cfctwH0Cyee6lrgawsjMx/1xc1bv0kGSD2TSbRMA64UPcWFJ0U0D0p/VIQrZeWIu5mHSSvMIS2wFD9O3wc2eQIgkYCeAZsi39P0P+m6ZM3OgzhGtaamJgM+G3iyrv/CkZNzv/revXtoa2v7rAfWQr5xeXPXMSXS9zfuwmvCA7pKW0Mjmu49RP3tXFQln0ZVQgbKfcLw3DMYxQccUGx+BE8Nbeifz0wP4ZmxHXHvXVFy0I1+zIvASPon/VyyqNdpzC2ggfyKcA9qOQRcQp9JX9aMjZprhpeV1WhpeYWrDx8R76sSDg66iMnORVzefUxYaY7JM2UgtF4Y38lGYoXzOQzYchRsnO/pyphEgLOI/F2LPI7/MP5YdhAzNrgT+tDzL8MMEX9GDdaxoes+C3iKLmoMzM0qzM7Pz0dzM/MYC3XIrz8RWBQgCtZJMgVQ3szVKHMNIICwpROvVNAw609eQqRn4NYIHlpL0YsKJL5rvSHcHYt+zpTO5w3nxu2R0+iAZubY2cgiHl7QhLXoN/HLaqD5y7dDVU0LixXcIbjTEUEp1xESH0r4RyBW7XYh5kQfU6X3YvyBBFil5cIz5QwBENFCXO8JR8j6gS0oF2zu1zBojikc4srhklSDH3h6nrLpx2lGJ70D49s8PguAcjKfH6Z4T1VJKRrzClAVn07nsIr2HUChjDqtJe4JStM/H+7aQ8zOATqgVxF2AnVXb6GFqON3lVG0yyP5fUyTqt0On9nfvtC6MGwafpqg+0UB1JddB1NnS+D7veHoKxGEQaLemLnHA0t1rPCdQiT+VD+MDQ4psI48CzsPB2wQXovBy7wwaIET+nFZYiC7GnkdQ8ZaQLSOHAGPXxbYfDPBJupMvGFD8O2KgG1kEX6Y9nG9ZFqHbiI05dUzsLX1+lvgKU7tO7vk/NXWpxZHkD9PgC6NoL+9HzrUN3+/PYwLBfwSb1UAdvCNqmpUxaUhf4nIVwXIh9Z1ct2z/lT8KnGgflsDoJ+cA5vEG9A5dhUilqkQP5CE9evWYKGsMzgEbbB61RrwrVyL/jxOmCQVjRGrA7Bw0QpGSmahBX6wTUJvz+tE++SDzSIJbEstwcahh74L92O77emPDkgulT5KmzG3gB/m/i0AtQSdT230DkPW2FkffQhZ4+ehzMEbrTW1bwGn7sotPNE0QTb7wq+uXXq6JMdu+yo5s16zrSHidxWmtqYQ0PTCGttzGL/YGCOnaYNzvjw283PDQ38arnqyw9toNlauFsPYGYrgni9BE+pRUi4wCbyHvuIeYAvOZyx/oomcL4LN5xZmUw7BR5rjH6ZbISyjhnhjfcw/GTwVpgPGvAqPe/1MUrVTq1A/ybfzNtFE2VOXIm8OP+6sEKOz4dTKXyhER5ALpVTRdP9hd57U2oqqxJN4ICaP2xR/+XXqNwkcOilLltWoteg78csHGn9ecBDLFKwgs3kFFvBJQ33nKgjzz4fxbm6cNB0Le9Vp2CCjhgfHliAncC6ctbkwm+yx+EaigcYbYr1mOI7EvsCwdQ5g875Fg4bN4xoDSEF5GLL601I4Zp75CElqy/pkANU7XxCmitzvzl6L7MmLcF9UlvZmqlPPEC+oEK9evKS5DZW8pHJWNJEmPylSjNYuhJp4/NXp5xj1Ol0qBb/1FT1iHvpPNPiyABqvh5kqx/HTPDcMn2YCb0Me3A+fAl7ZQziqzYHwJQMQsv5nrN6mhctey3HDZTZibedhy9pJWL54Fnm+EcT10+F3tg3zthIOZJYMNrcrYBM+BDalILBJE630iakQQaU4Ornq5MX95ycBqM49WrIhJhUVUYloeVbKAMjr16iubaLLIqgob0DULbiFXoW9zwXEn7xLXPzu8aEG4h4/EFemPZ1/C3Da15Vh3Phtwt4vCCBjjJkmAx4+JYxbbIodW/hwN4QLecFLoaqjBmOdrUiR+Rmn9wzDQlFtxCqPRZjiWBzXmIz1a5ZizQpe2oQtkgyB75lW6Ljlof8CC7AZx4FNxPVvp2pGLjxM86CAmH7qnwSg+xcr1uZlZaOsvBLXsp/Byv0s1u8KpEsiBk01o+MkVHqCKswSkQvG84r6bq55ibUzMn+f/a8DTvu6QbTlqnE7/2axGHWI+hjMZYjxy20xZLoxIxDITjQbcdP7kL/zLhLAhBmyUNg6C9kBC3DdYTaCtXjBp2SBdNPxOEXMGDffXszlU8BaCVnwbZTD+DWGxMwtIq9ljMHcZsTTKiZa6DVmCHuCjZMKIhpizCIbiO2Nwy+zDT85qk71wIUkIeOTAHTz3E/TTl0txjbNExg4xZRBKP9yIVTiVMsikQ7/d2idnLu4s2zTl+c4f4nrULyKiuXcHjmd9hapEg96jZnV8W/679SiONhQrnfHkd7wIKUxmxg5vE8tWJ9sgF1mqTh4rARuKXVwT60Fn2wg+mmFgM3+NNgkPDBqugIUtvBgAx834sxmImz3WOhLz8F0gb1YI6MJox3jILBmBZQk50FNigNSm4n22bYL03gFGZUNBDB8OwPhldGI/cGPyZfbBAPJMg8qRMA5YNuBU+gz5dOun2qyDM+ob7GyWjfk46sM9w4fTrUH88vHMA84TTaBrcfZDrNFkWSq++FLaB0qHEC9bs7UZXRYgE6mWjig3CuEEPMM1GScQ/2122jIzEVjfgGanzyjF2V6qdX+b+rv1KIeW3vhGuFzp1EVS8x0aDTK3YNQfOAInhla47GCDgq3KsBXQBPf/c2anIl8R2DglQvvUy3wOd0GvzOvYXz8KQZ6XgVbQA7YhJwweTo/NLaOg5TgaohskYKIjDQkpdbBQHoUDuweBif1EUg7NBYOqiPgpzsSrpojILiaF73JF1rV7gIcYsvhkdZIayEB5RNYKx9BzNpreJ9shtXRpxiw9NNapyet8WDMU4waJPHx4wDQ1ovqE5fQyXjrhQdwmMIp4FI3k/VYSf/LkGSqIXC3Ft2lQZH0rynFz2sxiOtvFN5zE5PFQTUAGOD3BftxKKoUTglVOBL9HGN1jtFeEpt5GvpxakOIjweT1pli/hoZaEsSvmM8CqFGo2CvPBxHVAlotMdDZ/tkaGosgKHpMqxav5J4ifpYLuVDwNNAAAN6OcVXkVUJz/RmzBEl5Jx3P74T8Wbkxz42uUosDNW6HZLYO/yTzFhoavMjFasrf2kdNoVr0JWOTW5+WsLwsP5mPIeqMLz9DrJdKKFMa7hPlU9N/jY2vcIsYddP4xDEjLCppINtvg1tBlfLhtNayMQ3F4eOF2H8JhdG2sHnNth4TDBx9g4ICvLBVWsMXDRGEND8Bkf9ubCzVYepvRPUDrhhm7Y72A6koQ8BXn/H09hgngifU83wPQui3V7Dl2g41+RaWIfdp03aZh3ilf2pBzZlch3cpkw4WjtPe/fnoJojQlPrqk1NTfp9NIBCUl5dMnLN7cJ5THDE70LnBhcU0rGgTwIN4R5ZxCwVSqqgKiGdjhvlzlzN9LFUi07ry8p359OamvEiKBKPNYzpXrMHUqq4L7ITL4/Fo62xCfcfV0CJeCcS6hHYsfcYZHWjoWQYQ3eHWDifhkvQZQRH38KJ1Dycv/4IV24X4c6Dcnpt0zj6Sd5MrymG+G7PafSaZ43ZG91ozeNHDlqecBKXxCrw7ggAm/NlsPllgm2xNU22N62dTpsnZ52pOHDQHNZBaTD1iIG+YwSsAtOwyyUGvR3PgC0wl9Zev/rchDh5/i7n83BOqIC4XjJ+XXwAa5Rd4RhXhk17TuC7+eS19W6CjbfTjA2arION66UgJSIOE5VdGMmz551B09migQwzFjls9UcDKDixNYpi4u0F7ZaupzsOjSrmyp68+JNMEpUWee4WQJuljrRGTS0K1oozfU7OlKVofvjk/UnZ+gY6K0+VuHZwJ6LRKIA25N5FCTFHigREfbr2v09oX4adFYt/GqIfUd3fE037E485XWX5aWkKA/BK+kDD9RYxJ420eXFPbcD8LV44EvscvBJ+YHO8QMBAeBAvo29uxBQpHNDmg6VPFOzCz8LcJwHGrlGQM7DHhCnTsWTjdkzT9GGYvjerV0A25lonwSygAAMWkNeRD8IPaoEYNf8AMZ36YJM+DjbVU4xMPRVl5tTBYS1JpNttRNwBQaTYb4OpsgyGTmUesqBmMtLT7RPg/NEACopvcfFNeEFvspxedAdhpsHDvuCjiXD+YmG6nKKtsZF5FeFOTeamkPyu/mY2/ZhrWU/pQvt3mSVKkz1S1O1G5jNHz0DpIQ80v6ym65CmrnX8KmmKvpONIaYVD58zbTSpVbA+T/ijATSO3MAPM4mJcyAAciUUYT7xcmV9wLvdFhYBabCLOAvLgBSYecVBVE4bg38cAt4Vgth7MADSjifQx4+YPaJ9aE1EiPhwj6v42TQKbNapjISqXiwjfUF9MahEKmenBtWSU8R5l21IsxOFlpQILHeuhqb0VogK7UCfdwROtQ/fRkhKy2O2j02uBsW/0qfUl5BsSIerXn87h45M91zjTCUaZz1eHo1lSoK79qw/I14Q7VYzKW99GX6Cfkzwidu0ZthjmYQXlfXMOU9bG10JQKVXbnch9gX84nRit6KyAXoHU+lRMF8+YWqAhRL+xLwk4qdppnQbz68zjRgRYicCIJM4sOkexy/ElBpoEQC5x5B1gmie49ilY4uhI0ZDTFYbtqGnaa1kEpiB7z0J6IyJZvElQDoQ22HS6EWlMOSYj8f7feYeXPJVQFaIAg5riBESrgfhNdugKEK8QEkxjORmPuBhxfZI2ow5+/4+86MA5H8CO6LPVKO4rIZBmB8V0a50j4nxH3NRYuWEtrr6t/JitZeuo0jbHA3Z+R3apIKAhFmnKgWqYvPD9GOuZz9DnzdR1uFzrHDQ6xwqq5lrNOp9qVExVA1RhyYcwYNick1Ux0fa+ft0zfbXaTT8C48iHInN8SIBTwQNhPmOiUicKYyk0byw3CAPI+ej+G3seBo8FHDal7lXLIZouzJqf9yvESClgc32XCeIiEljW8Z8IIXkZnkaPPeiNLBbUgHfES+uH7s+FDfwY4eQEDbySzAl1D/NtKZnNwYl9DH5OBJ94oc1V28Voq6uDq8qXiKPcJcegYd86+8JyhCS/eAvhWetNGEuWC9JF4U9dw9EUXEVgohWobXbjUymvfKUCWv3xAqfvMTY+TbdPInxy+wRRQhwXQPzgjeKa1FcqGsXLJX4rc44T4PP8FA6PVvoiwNoHvGEtjqDbf0hsM02ZgCIHHwv4o0tdU7CFm1HaBk5QXW/KzhnzMPoPybBwj+lG4BMPU5g8potYFtF9kCbmC2tYxikmgw+os2GqoUQQn6Aafa9L7sBXHUkcd1nBwpjtXDSQwFbhLZhzJTdGDdNGXtFl0N9Mz+GcjHXQtTEtZDklhsfVwd9+Wceqpis4lkx7gnv6BF4MkfPpEtGuyVU30ipvUcHwJ6oGaKqqh4iCiF0VwSlhahS1XeZx7urttDDoSqqGsC7wY3JkALGsIXLxINiataIqayMT+umQSlt9FTfii5jpdqMKJf9i2kjXgJQ75sdJRe97Yg7bp/OCCZS5ReETPeScsfsTaZg55qFn38dBs6Z82EdmN4BnkMR5yGlYQYBSWX0+YNoizkW6LXFEasVI+F/7jW26qW/M3I+dOoeJFlvxDUCoHvRmnDXl8JPHPsI79Gjtc7aZZsJiJaCb5k4nSL56/OFVROoqa6vrR1m9vxeY/cSFw2jAPTAwOrDcZ5fGWNZGm7nMj1AipNQZJZ2y5eLEo1WCUNqA6kpG1u96CQtdZCUZmDqiXEtp1uhqT4xUcXQd99MhN0Y6uYJePSUudtPVUg+VjXo1EYUuSccjWqVricaTJ8c7GBu888PoDlEM7hdZfAeh3PoR0Az/chJjFX2gqLPLSx0OIWR1vFYYh6NffYxGDN+MgQkFGlPrEMDRZyDgdNRiOzQwNAJfAySzK6HobMtoOeRB6uIYvz4jurDmQsUEG20Gle9tqMwbi8BkgzWC6l3mKwBk3SgsZFoIZEV+H7y29WY1CxKRudqP+WPikY/O3OtuWT33g+C58E2RZpXMK08rK4loNnE+NaPmk4PVaCy9+0j5SYtt6dbnemhUyI7mb/HcC46DUGJATnk98VmKC1CtTJT4+4aGpkQd2JKa85c7AZWyuV/omWGpqJiXLjxGHMoLfc5W3smUzXLXoT7kG/8eltaC60ja61sOIbPNsNyGX+s2R0EXZfrxO2vx1YlM8zjE6LjP11NGLWEpFSwaL0U2H6X7+z25TLFTBEX9OPobrbY56jT3hU/nzTizPhxzU8Oid57kRuuCL8DCug3qbN7Y8bcHbCXmY0/pykx3VOH8CcITnyV8lFmrDkk9WG51v738p0iXYv3phmKzQ51PPZF8DFk3inFsDmdhU4/cu9ntDoTobQDM21HeWKVUYkdnlhP5uhQH3rRZi+cJObpr6Um7bEnqrabLtVtL+SftYaA6xJqaxqhbZ2CQZ+LGxFvbNJ6SwzgJO678BGwaYbiV3k/2EWXQN8zF5s0oyFveQbeJ1vomNHhqMeYz7cBxm5R3cBzMOwMJNVMsHGnJsbOlH5vx4W0hAoueu2C4Do58K+UwAnj1Ug/JIoEe2k8TtRGbqQGZi7r5Dz92XWhuXEFhFeIMDVj1L1Xw9Mbmk0dHX7sOYAC0y9W7T/CPLYzghtlR7y69VRRo+a6xmio7tLbv/HQj3+0aw9qKuuwUvIvbuafBjh79RH9+DJnX+ZEmvLELB0YnljOG0/sIya37taLprtombr81zNxZ6lIlzExXPSYmCZiUs9dewzO1X9/BB6VMtikFYMNGrEYONXgTZzGCIulgugAIxWlbs9nMVYbdut7Y7uWxVsAsgs5BWftI9iv64LxK7tXHPYaR/jROHn8yrUPUfaKWLRCCR7aopBcJ4BIvZVIPbgRF90kcOeYKu4eU4GS1HaiqTr3cibvDmiKLEX/SW93wnKu82LMUzzee0uPAdQUcPJ4nYMPE/Dw4EXQsc5BBsSbUTWJw6284m6mqz3VkTtjFRqLy7DPOplJZZ4hPEKvdrQwM+1UpTwxGXV6IENhUXdPrGcawAjsKw8jMOoWPd7u7QL/GjpUQLX2dNVG1WlnUVvbCE2LpL89xZVHyANuqXUw8cvHr7MYPKvvJCMsFPeDc0IVIcKAzdEiOMZV0Jn1ZVJeWL5RngGaLiDab+6Fou+n487wediq4ERfV+9xivhlwlZMXaaDUTNUsHWTHHQUlTCY8BndnRLwUFiAsL1LkGq7Edd9CU0I2E3ItDqSnOTp1EZHiS2nNjRElmMIh8bb/HKSCT2uMCSxd3DPAeSX6tzsd/Qt8FBpg65TTpdv84aiYUx300UOhH48MRFUKWxsxh18N9mEaXeCrk0Ko54oO79zgMJfPTG+zQxPrJK5J9azGh0TSGhG4jG5ZmbaqP5GFvLnC3RoI8qrpMxcycPSj87MU1rnO8Ix+pFvM2VqqNZhjrWOmE4laP9iegZzGWHiCjv8NscUB0IewTG+EqPm7YeonC7tylNRaQo8xp5JEFVywlUeYRQO5MKOtbvpykYuETtMNriOka51mCTlAwc1QQgL7UaYnRo28EsgQH0xAtTmI8lSGKcOiyErRJ7mQTeDFDB+tkaXazaG8EoRTJstzfQzKVteRmhqw0s5uWvf9QhAjT6p+lRtdOaoGR1mq6vmoQZcTlnlgF9mWuB5RWf/OjUJntp86jlFe/ej4mUdxi56930gNhJ3nvKwKE+r6+CoriuXZ0WPPLGeLEYQ8ny3Yriu7UZU/Xdml0kgmXPXg3u6/keVrP5BNIG92kYEm0nATG0XOHjVPtgl2neSAV0kv2VfIgGTGZSJttmlYwNTz1jaC9uo4kjMkwKEV+0k5kkdXCoxmGD9EL+5N2KERxNZzZhkdgsrl2yDlrwKwg6qIMZWCmH7VhIALUSk7nI6D0YFFPMilJB3VAUauxW6hC+MMZZHGYIrNjC9vrmbgxnJ1Yiflvestcf7vAwFoFzOJfRmlti5dWw0lZcau8CWNg/d6oPqG1CwToJhBuauQwsxDxuV3n/gCzd54GVVA9EwVd0HZnbVfIRLdXhiB9P+dv86tWn8OwKQe+85U/Jfe/Yy7lLeIwHQTfL+m36X7LG5XLJKGUH6QsggpPWMwxb6wK76yWP7lt3vzDnRRJbDGOsUIoi2M0V/Tn1o2gRgr10grX2sgk9hkYI7eLRTwW59D6Odq96Apvsad7gYE+YpwsNoFybO2QNPE1lEGfMjUGMRwrSWII3woEvuUsgOlcf9E5pwN9yBHzg6XffvOfZBlE+Q6f4O5DJHcGolNRb4SM+K6z1ur6YAVMC7HkXEze0YGUdI7/DZjJA5NWe5axS43Decdu0p17jm9EUEx9wm3yzjD04to0whPXRKXOmdnlhVfNpHeWI9mnBPvEAL1zP06DxmrddUn33WmBnQHS1I1zF/kLQTk+VuuBPHTQRwQH4Doi1EkR+pRniHLC64SkJNShoD38RaBpGD45zXrpkMMYBDDr/MV8OIFZoYv9kKinaRdGKVApCky1mMdKtlCpruqxncgsbwMdgGkQ3KWL1OCYEGIogzF0SwxkIkHBAgRFoSWcFyKIhSx2XP7Zg8V6NbUFZkhUA3btR16TpmUcnVBz0C0Ev7Im4KQOWWjh2u+rWsZwQ8Vh0z/iISsrsMS3iO7EkL6QOnos2FTyowfO6He5MGcJgg740meGp8kGlSlRr5UmLjjFfE27tKrqH3Z4zTUNpouYQP/AnJpkbRnL5SiLz7z2nCXlffjMpLNxHBJ4d+Ez7c6jOIgMNNVwJGUmvwI/k2j52mjlNeqnQE+IrXdsSYrcMOkc309W/dtBtX/BXhZKiAP2eqYzThMhzelRjvWYsxHnVY7JQD2+CT0PHJwB+OxT0AD1meLeAzjIS6xGac9tFAtJMGtotsJIAWRJD6QsSR9z9pL4qrXjLkmjRwJ1IVohtkafPVbsYWzxfDKG51pp9v1a7jtBlz8hvN/eH25m01QxujkvCyuOTNZPcyhtlqHxIg6tnNq3msZsTgKzNXo6GkHOJUQVZPDpG48klnChjTxYIicetNUpVqM44fPge2o1Zjx5jNWD3fAFz8TujH+WXG1vV686Wguk6ocozvCLCp9/plliX+nG/FqOD70NzD6VrE89kK5U3rMYBooxkLlZDhJkcfVk6YEiGxm2mXet7CXVAUl4GIkBzWCGgg5uB27Ny5E394dmqZ0a6VEHW6AG7HB4z/Ew30m1sdxru9gHBAIWb4lGOiZxWG/wVE6ywisWiBGCJsFeC+XxVJR7bjuJkITpjw4xh57xQbYVzz3o7bgbtpLaSvJNvts82eK47x0+SZfr5fZtvSt8YKjO1j8OFoNFtbr/tXMpuKi4vprDwn35Fuqo7KaHclzrQHRUwXVb4RFpfVc9eXmCOKR1GxpPtpl2E6Yg3Wj9uOUeO16A7Rb2007/vWL1O1oSouBo1NqzCIXRvLl4pj9Ro5YipkkB2lS0eDE8wFYL2TD+rimyCwTg6L+NSwbr08xIW3YY7lKQKI5k5AuDfQP4e5N2Fz0D2inarp/8/xq4B36m2cvXIL64KKyO86ifRUu0zwzhOEp/Eu4pLvg5/pLkKeRQn/2YSQPYtobnbWcSvtzl/33Y4g8+10sLOjGWD6biyYv+2dn9HS7x5CknGlhxM6Ch/m5N3DYjHPbi9CBQTbY4Z0GkJIhtYaFId5WlyJMQttPypOs4C8/tJtPnTHx78JMH9dQ6ZoQ2nzRsgK8WMguxa+m6hDAKKBgmPKiD2yC3G225BivQEhWovhrjAf+6RF4W6mgjM+qljJJwvO3c7EDDV30yiUOTNMeIg90fc7tA0FskkeFTickIWICwUY6V7f8fjhXq8wU9wKJgri4FunTlx6eZjvFsZpR3FE6vMh0UIQp46I4aK7JJ1gDTHZQoCv0wVACli9aEMXs/YXr1k9CREZtW1OTgtGfTgrn1V0wSHg9lvj0Nqjx5RQ9cdUqoKqAWrMvwcFw5j/3K2TOm+eogNFUSHIC60mPIdhFqbM10JWuBruEXNxwVUCqTYbcNxgFfxVF8BNZQWSnGQxb5kqAsxksGmvFUZ5dTdJa4Oe4tKVa1joTTQNMWGj7Z9glutDeF8qgUdqNi7fKcJoArJOHtSMOaYnobtjK076aOK8rwoCDcWQZieGJCvqvfloLXSJAOis8zYkWG8ED2/nRJIRU1UhsGTtO7/Ivy9zYiRXYwfKffgeX2dbjx0Je9LtBTYohKL1TX6Jctvbp4w9IwT44s0nX21Q5Td5IzfipquIroOsID9dsEW3Cs/Yh8wIDdw9rkZ4hywh0zsQa7oOgeqLEL5vBWJsJMDJq44NArvgrrsZMw/d6NQmZElHFuHctSyIBBXC83wRZpEv6CzrC5CJLsfV+6V4XPQUpsmPMMOzBKPdGRxqmd0p7BTdDCcjJcxZqoqjB8RxgrwnZcZOmKwl3th6AqJNOOMsjhTbjdgmsKUjgTySSw3LiAl8F+ejbgLoFPkUQYmvEnpQ2trmRN0SqFfHLYJM6Gms7UIVyNMlF9zLUV9RDd6N7v9Z8LRnwWUEBKEgxMcYd0ztGbsejtvI4M5RZdzw20mItChiyCEGqM5DhC4fQoxFISOpittH92LtWmnIqqhgpGt1B4gmeVUh+94TZBHtviu2HAudsmEfFIthztXkb9UwSy/FubynuHD9Ng7GZ2OBXxlm2F2FFP8K2OvsJlpRH+NmqEFktQhc1AUJiedDlCEfIokmijZdj3POEvAykMTAN9n5nzg1MX+28HtjVjKGZxCW3thoaio6+P2lrTGv9Ch1NWAqI38jJBeMtjfkp7W6psNtpzo8nQIu/6v5y2fRQBOMsXmNEFQ3rKBnQTNmQuvDUX83HsXvJW6zCs07kq2EEUp4ULTxWhxREYSdjiJ8LJThaSSDxRJ7ugFolHsdoq89xHniBY/zrAPPwZt48qAAixxv01yI0lJcXhXY6p8L8aA78Eq4DE73UiyWNoKR/BaMm6mFVGImww3Ww1dlEXnfZQhQWwAvpflItd1E1widctuNEVyajAI0TjVM5JZiFJy943NyCXoz5ilG/rTx/YPFY/rKUA+kJjZQnhdVL9MuJVaOHRWDRY+e4zde6/80eNrjKEsWiUNv8xICHL2O8MBWahwgceWpHNRlTyk6IhypuwLBmovhpimAdKedWLpaA+o75CCrvY8GDQNAjRALvIeCojLwh5XTv5vrmIfysmJEpV/EcKeXHUAbSZ4zxuUFJEIfwOjYLYwzyYScmBC4F2rCSEUOY7hVwTVrJ+QEV8NIbC6O7JiLxAMCyDtKXH0rEQybqsZwBDjUMHzyrveGLfpMNoVvQjmCE+H/XgD5RQ1ZRQFo6nov+jZLnV2pxfREeSq5Wn3mMjQPJLLA0x5Zn64ISwle9J/UmSKYtYTwn2A5OgueGSSHs05baTN2VGc5Mg5vQTzxzmYsItxjjQoc9kmC1/4qrVnWBD3D8bOZsE7M73Dpee2uobG+FvU1ldjhcQ7D3Rq7ke7hBHQTPV5i1OFSSEgrYr2gOnQU5PA9p26HSR3Mvgd22+fRbn243iocM1qPqXOU3gBIBQPYtT/4Oam7UoemNpWLib3u804AuXmP56IAtEg8DOkXOgvlqXpiuvVYWg03sp4yz7T/R9cvnHugvWkJ8WY0O937qdq44KOA/KMquEl40GniRsfvX48QzUU47yKJI2oidGIzP1obMpuloaclh9+dy3Ao/jY2++VimtfzjjgPn9MN1FYzynap8ctTDmZ1jx2R9ZtnE1Yeb4alnQvUiFbbKKKMNQKqHcViP0zeg+1rVyBQYzEuukkjk5B7Dl5G9PmXSQo9CprO3xbKqBEKG7P4nQDSU17xK/UgI8drdBqhvcWHyrZTCU7KbReQDWIBp2vZCOE+KsLLMZaYjI6cG4cuvPTF8ZDwoJwwBTofRfGgsL1LkX5IDO7EjCUd2QnhDUpwNtiF3duEwGOfBY/4y5jp8ZSOQLcDSMz5DFpbX3VM8j93Ixu8tpcwjPxtjFcT+KOaEH//FRpfvUbmzRuwUN0C9rka2K+2C4MmM4hyn4n60BJdSWfocyOUcSdKExNnq7/5W89urTCI+wBC0qqIN9br4PsHLaTUNWXf66yhKdpnzsh3qRsj4+KD/zxxZsaD+BZvpCv82oNxFH/Uld+FgigNOoVAVQamEx4Ua0bcafvNdHzGz1AcA9l1sUdWHltkdmCaUwGso68T09XFRLnWwuXEecb8wPYSFPK9jj19BRpHc5D1vK2jKrT4ZS1u5d3HGkElzF64Gzu37sT0hQxQD2DfB2kBYYRrLaQTvefcd9BR9I/9rIYuOQhJbi54L4COpdUVPnrylJEwLS6lUxZULXHN3UIs3OzJAgwTAI3mVoDQSpHOL9cEI6xYrYjMYHmy5HDddwddmxNFXOn4A4KIMBSA0Fop8K7UwvjZe6C/dzcmuZViuldZN9P0++HHyMnOQgPRLo9qXiM4vxU7UlvA4fCA/n3XqSSu6fnIe/wcApL76esYMnUfJs7ozHuN55FHuM5KJFqLIMxQCIMna330Z10jG42jJwmovWZwvhNAZy+Vni8sLOzGfaif0Sm5LO3zzniQHrasYiRUO0o9iBlLPCxDZ8IvERNGZcWp8opYwoVs5AVwWEWImLEdWL5WHdoqipjjkke4TDN+924GZ0Az+KNbsCf4ChTDcjAnrAW/dQHW/IMXUfXyRRet1AYRt6uobWyBgbkXY9TLG4+Q0QJlgJ3rVyNCeynyiAk7ZiXNtBb6Q2vo3INUzxgCYtt03n2/jFuPI+/evUtrH6pVOIt9IV7mPwDnGkcWWN6zVi3ZTEd1u5bvqkhvxwXnLbjsIU1HgmNM1tDR6EDNpVAWFcSEWRpQ3qGAbWLKCEvOwNmnr1FY9bqjV/NVSzOOJaRi7OEimg+158VEHU+irbWlAzyZhaXY4HoV1fVNCAmPQ5/xOvh+0l6M5VGhA4SUSZ3LK4Hj+ny4QgCtu1vqkz+nTcADhKSwnX8ngHJvP3OkmgyL38R9CvceYMzOYYHkvWv8dCUs4N3c7XezFigQziOGMy4SiNm/joBnGV1uaiK+lPASHXqimYGyHJbwqeFclAtqCACaW/5y05lXLfCIPolRR0oYAPJsgbJHKgEQ43FVdY3wOXUHEv5ZdND3zLkrGEI8QwPJtTjtLAPxjdsxlFMDVlKLiCcoQPMvjllyn/w5N+9JoW5W12ZxZMWIdwDooe7d25n0rJ7bRAOJbnFmma4eLMp8ia5Yg37snfGgUdwa8NZah7gDQjhmuAaeCrww2zIXM+ZIvfGADKCvJAfuBWrYqyiHgifPYZOQi6KKurdApOAcj99cqzHcrQEGgZ23/vS/9BRc1teRklNK///+/ftE+6jBZNcm2lxFmW+EGN9q2oU/67QN4ZY7O4Ken7L+WOHyZizw4J3MSzpulkiXZ5xD3pRlkPlDnAWejyDTCxZsxey5kt1udellQPVmqeGazy4EqPJCYs2azrzTBGOobd8J3iVy+GOWOjLOXsfpO2XY6H4NReVVaOzSxFn0rBiLbM8RDfQK1mHptGdW1/QK64OeYt8JQjleMUYDPih8iN9naUN8rQACtZbDS3EeAe48xBHudd5dBnMWKfy99A27MVyPFxN3vjWGKYDyrtXxNR9LhOUydRZ4PrY+iJgOmdXEPLVHpanpqtI7UHBcDbcC5RCmvQR2MnPxK4dqx9/X8+/CBOKJUeUgehYB9P1TdY/nYF9kFjxPFaC4orbDVY9MvYCx9k9gG3GK/r/duef448gT3C/rvE9JaWkJRvIow0WVHzfJeyZYboCP0nyiAddCWWr7R91T7F1rl/FZhKfV12tqig58C0C1zo+nPo26gCXioSxQfIoW4t2IOXM6b+AymkcdEXqrcdyIn/xcBQ+lxdiwUpiAbB+j7WiKEvHiGAE/7lXGqHj5kvamjOPvYartLfC63cfxrBfkd81oaGiAhMtJWIemo6S6ATPcnmCs7V2cutc5YOL+g0L8MVMNGhJiyD+qTGffXeQXg5d3Gx1Q/Byfc9amANqMeUf8tuQtAF0Um/JLdEYVBJTiWID4lCIzjj1YzCuIIRyabzL2BtgjJYYbvjvpTtGIfUtgvWMlTaK7pUQmq6DvH5pIOXmpo338QWk1rNMeYahdEdYGPsWtZ3U4feUmbNwD4XqpHNvCHmG6fTaUIu91aKn8/Ds0Bxo+VQPSG8WxQ1gEo6cqfRbN077GLHFkpDWOVW97x9TW+kYpvVMsQHyiFho3dTvYeSTpRCZdtMWzBxe95fE0VY925x2V+MA5Q6ZDI0yfL49IIwFs49+EjTsOdaYuKFeemDShgIcYb5WJhT7P4Hn6ARLCvHA6vwSPy2uw0vEadE4UdDw+NiGdgLNzkGb/SQaQ37kPga5OWCWgTQD99z/j5LWeDA10tPf6dwCo6YG6zTUWGD5x9ScH+PMkRYzk3NVx64i16xQIid2OlIOiCN6zBA6yi/ArpzrRDAYwUpTBgxOaOKSyAT+wq+HilczO9imiiSRD72G1y03cL6lCLSHOLc2MvrYzBETTDmUhv6Sa4a21tcHcxh29x+vTN/ulett095qjofoheZ06hHj7v7dwrMeuvFYqwjOIK3940Ujm+bDkV+dMPfJYYPibUzoGsWug30TtN9FgQ6htFUZOmDKd2gjeuxKam1ZiyjQpGEqvp5sB/TWXQmnjeqzdbIKmps55kEk5ZZhscQXLHW6g6EXNG7C8hsvpQjwq7yTQNTU12LRNEza6ekh3soCfhQ7KHl7B1eIyFFZWwdcjgIDr730uao6iT3w5QpL6vLvENSSp9Sg1ZIgFhM+7hnFrwXmfJN1uHH9AiO6acFNYCGfZefBVWYhbQfL0WN7fOGXh5BVNTBnDNacChJSndez2cxxKu4+cJy/Q1NKKO0Xl3fJhZ86cg/9+LeTzS+DGmNm452yMvLISBOW8QPrjGly/eAEjp316DIjKyFv4FlA3ZmnwDB0x9d2DxxPgEJD0ki6oZh38513fc2hDQVQUFz134byrBN186CE/FyFay5EbroxoKwlCgDXx01QtnDx7+a3br1NlNvVNbw8ZpbTPfgMdFBgZ4+qyhbi6cAGqHl9BdEE5cspKUXTnHCoe3MTydfqfNJGNAs8Bn7v0XX28j7FveH9pa2yzDkWSBnIdYB36F1iURzRjgTI0JLch9Yg0XBQW49CuJbBT4Afvoh0dMaI/5+kgOf38WyD6q1C3aXdyC8QhS0s8dLLDFXM15Pka4nFFCZILn6Mw7zTOzJqBqyrboad78KMB9D2PBSwpzXOyvsXn2MRNH+zO8IuFFAWgUYuOsA78i/IkI/SdqEuIrS7hSjroT1bvN925k3g1oaW8D9qK8ggPDUR5+QumQKK8tNS0U+CZvxuPslJRdOYEEkU3ojQzBReePofD9XLcUN6Oy0O4cWnbZqhr2n7UNf5MOA+VQA1Pr232Psa1oUcdqt6Rg1bStdEC3qyD/hpe22QDKCsY4ESAOw4dsMHqdSrIdLHGHZFdyBOQwFUHC+hrqSEoNBqPHj+h53m3tLQQot2EFAKeP2bIwvnQEdSXXED1k/MouhaNp88L4X67Ahdzb+H6LkFckliL7GgPTFms23POxmuHI4QLR2Q01vlEgr/H08ocfcdOoWujJcJZB/wVFs8SbVSX3iOgKEN9czmqii4j11QZV8dOww2FDciS3obi2xdgrm+M6fO2Y/1WHRiYOWC/tQvGzFRFf3YDxEUE4+X9dCQE2CPvbATRPuUIz69ARqw//BzsEOBogzUC6j1Pmi53hseJUmrYZqVrGOfij5rYqqioMIQCkKByPOuAv8L6Y7Y2rl84h6fVlfDLfoFrxO0ury3Fw+MOuGmjimPzZ6PsZgoayi4j88wxzORj3Ama7U/tDr4ktNkQngctsUdpL+rqSxGY+wLHcoogvsOMrgf6mLzmTBF/BCRVICy1rcg7fDzXp92ELqWhQUqfFY3+KmuCIXbLW6KqsQEpD18g7n45jt8tR8GLMrwknlSOnyNePryKqkfnaS2jpm71FhGmQLJglTbxti4j4f4LHLj8EmfOJuDHKTofxcnWK8QiLKMaocktNx29uMd88v3kQ5Ob7mvYsqLRX2stFTJF+eN84j2Z4U6GP049eALjC5UorCxFzYs7yEv1xD55ObhYH8A8Pu23WqyX82si80IinlSV0eDLKX1KgNZzL7r/lP1QsrhMpyiCElqjXVycB7P9HQlNbj1r5pHPOtyvooGMMGKGAXJTg3Fy9BRcHsWDGzvEcS3vBm3Ogog5qm58juLCm/B3c4fQhj2YPE+bLgMR2qAG90N2qCrOISbwOa49KyMa6DnOpEbi56k9I8xUJzLlaVFjXPxjfzIzZTPpzfZ3JTipLcIxooh1uF+tz14fnkeccU1+B85yzUC2uQIyAi2QfP4UTtwrh8utCqQUPicaphz1tc9Q+fQ2akuy0FRXjNqmF7heUoaD114iqqAct+/cwKK1e3v0voslw2m+E55WX+Eb+asA2+eSoIReRwKSKlnR6K/Z5cqjD+8jh5AZcxge1mYYNV0bkxfqIeG4P84XPqbBEZZfDu/MF4QflSCGACu/nEGYnW5WwJcQ8OzCbKgqU7Oq31++MXiaJdRsrtEmKySp9aKzN8c4ts8pgTGv9tHRaG4L1uF+xUUlXftP0u9Wv/PDFD3slDXFzSvxyCt7Cu+sFzhfxOA68YRwU+mKG8WlyLyRCilpbZoTve895ooFMVz0jPoW/xMDjU2XmfRl+9ziG9NbkgLQ6MWsaPS3skZO14GsrAGiglxQkJ2Ba1kXkZtzBlcywmBmaA6O+ZrvTVNQgUHtw7dorUO8rEyP8F9nsn0p8Y36cQX1RtRsGNbhfXu5tKHc+/DnbC2MmLaP7gh5X5yHmvckqplM35U5PL2h3j/mO70e38LgU8XFayInBSCKZLEO7V/aMcthilW7ouAeXUJpndfB8b0jPzvXeZdobDf5mb6TMysa/a9b/Tj308BxOfaMNlfBSa8vuEUMW8j2tSUkuaFeWv8061D+LV7cbFuIaabAK7aMAZxkXPY6Nnod2z8lISnN9zRsr7MO51v22iabYuZGf+y1v4nQ9Go6GBic2DvRM2QQH9s/LSEprWfMPFnR6G9uqBWnGaYJ+0LW7Dx9YzhK24SnNjwPSuhzyN2Pg53tW5HgRIQ7Hi36BsmhGUYtciDfvACs3h2NbdppUDC/gD2HbsLINYcuvbT0vQcr/wf0T+r/1O/32N2kHyeukw5++RjMEQvCnytd6KDatxww7T3JmB74vVbuBO2GU+XGNGjSG2tDknuH+0X/ssHU1KQf27cmwfFthwOT/9lo9HcELBxrPSCkEg+Ng9dxOPQxwoiqpjawfYWm1rSGprSWBifW54Wl9LkYnFydHpBQnRIYX5cURH4GJVWlh6bgYlBiXR55XAn1+K7Pp0fYJryAbeADYgpuYYfRGQiT91sgHgoOfg8Mn3eIvo6vUlw2ZT9di0N5v5K6GTB0zaWvjbpGajZPaHLLo6DENg/fyMHC9vYRA9m+ZfGPaaaj0YO+YjSaAuu4Zc7YoJoIY7dcBKdWtR/y65Dk/o9DklecCIh1tfCL5pZyCdq24IC98GhTtsSPSv6BTa2XvkXsSLcQ57l+URJiAXGXtYMS1V2Dk3iTQpJ/zQ1JaaqlDqsrwKi71njHlcM+5DFM3POgefAGbUIobSakkkA0YRR96HPEgjF9gx+mCXnT0245+T3Buc4TXAJe9O9niQZhiVQ4VstGY5NGEmQMTpPXug5z77u0u029T/t7hqXXtYQkN9+kAOMX3Xe7o8eYCWz/JvGPaZVgRKMdvjhoxq90hbT+KTi/cT3JAb4OTR55OzjR0s77mPEGC4uJI77mZzfVcP7ZNYCHxycyiT8gftjOgPhjRoEJym7BSesiQ5M5zwYn/XwnLKVXGTNt1uNFPmNIUkNdSEpDQUhyy8ngpFa/wLhehr4nem9xDR3GYyqW04/t3yw+x/svpz4ot6DPFwEO1aRGmQp7YpZo0GQ0NpFNjA+I67/bxunsqH/LPknwl/24z8ZqTED460n27tqzHQIFFvkmCiwNS1u/LCxp0crQlDkrCFiWOoY9X2zv1jLXL4SP3eDAi9Gq/K/7s/0/i5PfSA7qYCmV+zmB8+cKFyhbXkFoWhUjQprUcsE/ur+cqem8X9hY8v8jcnKyP9HRaJXPE43mIHzAkHhD7R5EcEJfZ2f/CVNZO/1/LKEpjXUU0ftbtwPgc6VnDNPASWsqDYz7UdfKauwQ1u7+ByQkpbGAcp8/KbQ+xxYqVldozyI87dVz/9gBe/fuHf49a1f/SwBKbj1JNdR/bOCLqu6nSiUpYhwY18fGw2PlT6zd/A9KYEIvm5C0avw4w6pnRU8LD9MxDUapJJJdgmZMZO3if1ic/XmmRmTUtVHR2Q/1FK3YHonA5JcIS2966XtssAxr91hCS0BcXycqMiuoHMc0rUEl9+T3X2BoneTXJ/9WQxpL/v+EStQFJ/aJogBi6pGPJZLhdLphwio3OilJDaOi4jkBsQOs33tDMpb8p0HU2+94P6WQlKaiv+aIgpNabvge+20Na5dY0gMgtfV2Cxs4wzuyVcw3srewvctQFklmCUtYwhKWsIQlLGEJS1jCEpawhCUsYQlLWMISlrCEJSxhybco/wP7vhWwLm5jdAAAAABJRU5ErkJggg=='
p39
sb.