ccopy_reg
_reconstructor
p0
(cemoji
Emoji
p1
c__builtin__
object
p2
Ntp3
Rp4
(dp5
S'emojipedia_url'
p6
Vhttp://emojipedia.org/wheel-of-dharma/
p7
sS'index'
p8
V1179
p9
sS'code'
p10
VU+2638
p11
sS'apple'
p12
S''
p13
sS'twit'
p14
g13
sS'gmail'
p15
g13
sS'related_to'
p16
(lp17
sS'name'
p18
Vwheel of dharma
p19
sS'known_as'
p20
(lp21
sS'default'
p22
Vtext
p23
sS'bw'
p24
S'data:image/png;base64,iVBORw0KGgoAAAANSUhEUgAAAG4AAAB1CAIAAAAgKEP0AAAKvmlDQ1BJQ0MgUHJvZmlsZQAASA2tlndUU0kbxufe9EYLIJ3QO9Kr9BpA6VVUQhJIKCEEAohdWVzBtaAiAsqCLl2wUWQtiCgWFgVF7BtkUVHWxYINle8GlrjnO9/+9805M/c3z7zz3pm5d855ACD3Mvj8NFgGgHRetiDMz5MWExtHwz0GJCAFiAAD5BjMLL5HSEgQ+Nfy/g6AxIO3zMS5/jXsfw/IsthZTACgEGQ4kZXFTEf4FFKbmXxBNgCoBETXyc3mi7kAYXkBskCEy8ScPM/NYk6c5+65mIgwLyTmNgB4MoMhSAaAJEJ0Wg4zGclDRhBY8FhcHsIWCLsyOQwWwnyETdPTM8RcibBh4j/yJP+DGYxESU4GI1nC83tBZiIv9uZm8dMYq+c6/88mPU2InNdc0UJaMkfgH4Y8kS8IVaZmBEqYl7gseEHnIjtaYI7QP3KBmVleyFnOz2UxvAMXWJga6bHADAFCf8dws+kRCyzICJPk56UtC1rQOWy6hNlZPuELehLXl77A+ZyI6AXO4UYtW+Cs1HDJGvI5XhJdIAyTrDlJ4CvZY3oWMvPvtTEZ39+VzYnwX9BZbG+fBWbzIiXr4Wd7SvLw0+b+77kzZKf5SfSsnHDJ3GxBhERPYQSELOTkZ4dIzgT4gxBAA3EgDFgDC5Cbzc5D/jcAvDL4qwXcZE42zQO5IWwancc0N6VZWVjaACC+b+IYAN7enbtHkCL+u3ZgPQA+Xci3/f275oicY7MJ8svnfNd0pQGQUgXgzF2mUJAznw8tfmCQWywN5IEy0AA6wBCYAStgB5yBO/ABASAYRIBYsBIwAQekAwHIBWvBJlAIisEusA+UgypwGNSDo+AE6ABnwAVwGVwHN8EweABEYBy8BFPgPZiBIAgHUSAqpAxpQnqQCWQFOUCukA8UBIVBsVAClAzxICG0FtoCFUMlUDlUDTVAx6HT0AXoKjQI3YNGoQnoDfQZRsFkWB5Wh/XhxbAD7AEHwhHwCjgZzoTz4QJ4B1wG18DNcDt8Ab4OD8Mi+CU8jQIoEkoRpYUyQzmgvFDBqDhUEkqAWo8qQpWialAtqC5UH+oWSoSaRH1CY9FUNA1thnZG+6Mj0Ux0Jno9eju6HF2Pbkf3om+hR9FT6G8YCkYNY4JxwtAxMZhkTC6mEFOKqcW0YS5hhjHjmPdYLFYRa4C1x/pjY7Ep2DXY7diD2FZsN3YQO4adxuFwyjgTnAsuGMfAZeMKcQdwzbjzuCHcOO4jnoTXxFvhffFxeB5+M74U34g/hx/CP8PPEGQIegQnQjCBRVhN2Ek4Qugi3CCME2aIskQDogsxgphC3EQsI7YQLxEfEt+SSCRtkiMplMQlbSSVkY6RrpBGSZ/IcmRjshc5niwk7yDXkbvJ98hvKRSKPsWdEkfJpuygNFAuUh5TPkpRpcyl6FIsqQ1SFVLtUkNSr6QJ0nrSHtIrpfOlS6VPSt+QnpQhyOjLeMkwZNbLVMiclhmRmZalylrKBsumy26XbZS9KvtcDienL+cjx5IrkDssd1FujIqi6lC9qEzqFuoR6iXquDxW3kCeLp8iXyx/VH5AfkpBTsFGIUohT6FC4ayCSBGlqK9IV0xT3Kl4QvGO4udF6os8FrEXbVvUsmho0QclVSV3JbZSkVKr0rDSZ2Waso9yqvJu5Q7lRypoFWOVUJVclUMql1QmVeVVnVWZqkWqJ1Tvq8FqxmphamvUDqv1q02ra6j7qfPVD6hfVJ/UUNRw10jR2KtxTmNCk6rpqsnV3Kt5XvMFTYHmQUujldF6aVNaalr+WkKtaq0BrRltA+1I7c3ardqPdIg6DjpJOnt1enSmdDV1l+qu1W3Sva9H0HPQ4+jt1+vT+6BvoB+tv1W/Q/+5gZIB3SDfoMngoSHF0M0w07DG8LYR1sjBKNXooNFNY9jY1phjXGF8wwQ2sTPhmhw0GTTFmDqa8kxrTEfMyGYeZjlmTWaj5ormQeabzTvMXy3WXRy3ePfivsXfLGwt0iyOWDywlLMMsNxs2WX5xsrYimlVYXXbmmLta73ButP6tY2JDdvmkM1dW6rtUtuttj22X+3s7QR2LXYT9rr2CfaV9iMO8g4hDtsdrjhiHD0dNziecfzkZOeU7XTC6S9nM+dU50bn50sMlrCXHFky5qLtwnCpdhG50lwTXH92FblpuTHcatyeuOu4s9xr3Z95GHmkeDR7vPK08BR4tnl+8HLyWufV7Y3y9vMu8h7wkfOJ9Cn3eeyr7Zvs2+Q75Wfrt8av2x/jH+i/23+Erk5n0hvoUwH2AesCegPJgeGB5YFPgoyDBEFdS+GlAUv3LH24TG8Zb1lHMAimB+8JfhRiEJIZ8msoNjQktCL0aZhl2NqwvnBq+KrwxvD3EZ4ROyMeRBpGCiN7oqSj4qMaoj5Ee0eXRItiFsesi7keqxLLje2Mw8VFxdXGTS/3Wb5v+Xi8bXxh/J0VBivyVlxdqbIybeXZVdKrGKtOJmASohMaE74wghk1jOlEemJl4hTTi7mf+ZLlztrLmmC7sEvYz5JckkqSnie7JO9JnuC4cUo5k1wvbjn3dYp/SlXKh9Tg1LrU2bTotNZ0fHpC+mmeHC+V15uhkZGXMcg34RfyRZlOmfsypwSBgtosKGtFVme2PGJs+oWGwh+EozmuORU5H3Ojck/myebx8vpXG6/etvpZvm/+L2vQa5hretZqrd20dnSdx7rq9dD6xPU9G3Q2FGwY3+i3sX4TcVPqpt82W2wu2fxuS/SWrgL1go0FYz/4/dBUKFUoKBzZ6ry16kf0j9wfB7ZZbzuw7VsRq+hasUVxafGX7czt136y/Knsp9kdSTsGdtrtPLQLu4u3685ut931JbIl+SVje5buad9L21u0992+VfuultqUVu0n7hfuF5UFlXUe0D2w68CXck75cIVnRWulWuW2yg8HWQeHDrkfaqlSryqu+vwz9+e71X7V7TX6NaWHsYdzDj89EnWk7xeHXxpqVWqLa7/W8epE9WH1vQ32DQ2Nao07m+AmYdNEc3zzzaPeRztbzFqqWxVbi4+BY8JjL44nHL9zIvBEz0mHky2n9E5VtlHbitqh9tXtUx2cDlFnbOfg6YDTPV3OXW2/mv9ad0brTMVZhbM7zxHPFZybPZ9/frqb3z15IfnCWM+qngcXYy7e7g3tHbgUeOnKZd/LF/s8+s5fcbly5qrT1dPXHK51XLe73t5v29/2m+1vbQN2A+037G903nS82TW4ZPDckNvQhVvety7fpt++PrxsePBO5J27I/Ejorusu8/vpd17fT/n/syDjQ8xD4seyTwqfaz2uOZ3o99bRXais6Peo/1Pwp88GGOOvfwj648v4wVPKU9Ln2k+a3hu9fzMhO/EzRfLX4y/5L+cmSz8U/bPyleGr0795f5X/1TM1PhrwevZN9vfKr+te2fzrmc6ZPrx+/T3Mx+KPip/rP/k8Knvc/TnZzO5X3Bfyr4afe36Fvjt4Wz67CyfIWDMeQEU0sJJSQC8qQOAEgsA9SYARKl5PzwXAc17eIShv6tY/i+e98ziAcRDgKMbAWIgALDtBuC4OwB6SF8K6YcgHOEOYGtrSUVUcclKsraaA4jUgViT0tnZt4gPxBkB8HVkdnamY3b2ay3i2+8D0P1+3oeLo7WnECueJqb+0pyN4uc/y38AuX384MFwjTEAAAGdaVRYdFhNTDpjb20uYWRvYmUueG1wAAAAAAA8eDp4bXBtZXRhIHhtbG5zOng9ImFkb2JlOm5zOm1ldGEvIiB4OnhtcHRrPSJYTVAgQ29yZSA1LjQuMCI+CiAgIDxyZGY6UkRGIHhtbG5zOnJkZj0iaHR0cDovL3d3dy53My5vcmcvMTk5OS8wMi8yMi1yZGYtc3ludGF4LW5zIyI+CiAgICAgIDxyZGY6RGVzY3JpcHRpb24gcmRmOmFib3V0PSIiCiAgICAgICAgICAgIHhtbG5zOmV4aWY9Imh0dHA6Ly9ucy5hZG9iZS5jb20vZXhpZi8xLjAvIj4KICAgICAgICAgPGV4aWY6UGl4ZWxYRGltZW5zaW9uPjExMDwvZXhpZjpQaXhlbFhEaW1lbnNpb24+CiAgICAgICAgIDxleGlmOlBpeGVsWURpbWVuc2lvbj4xMTc8L2V4aWY6UGl4ZWxZRGltZW5zaW9uPgogICAgICA8L3JkZjpEZXNjcmlwdGlvbj4KICAgPC9yZGY6UkRGPgo8L3g6eG1wbWV0YT4Kp2hqRAAADgRJREFUeAHtXU3o3MYV3xS7tQ1u4xrXrUlISpoeAlXAJeAQ0yLfQmmVQ9OTLmlA7aEQXdqiQ3vQTadUpVDZUEQJe0jXlIgSFloU0z2UDUUuUdLI2Goik8i0ClWIDJGNDNvZT33NG42k+Xu3sP+Dd/RG8+bNb97MvHnzRn5gNpsN9n8sEPgMCyZ7HnME9lAy04M9lHsomSHAjNFeK/dQMkOAGaO9Vu6hZIYAM0Z7rdxDyQwBZowOMePEmtGdW1d//7tXrl7/dHDs2GPf/u4LP7hwaneFXTQe7cF38C+wtVrXSNNoByXNRRrkyd1JRTZXA3JO4PV4d4SsSbKLy87bf/y1i4Xyykt/ePs2NmcXiLsI5WBwHILmbnYPyto6fRehzAa7q3qEDttFKE9+5QlAYuH84yeArO2TdxHKR57+FnbZ4eQfngWH/vah3BlT7d6dj8LgvX9d924EH1x9CbvsuL96/eKT8ckvfvnhhx59+OHTXzp1YmekX3RkbU2/r4QsCafjoSqJnZSKE2V1OJ6GcXpfhQYq25ZdmfpTS5X4TghiCvGiMrLdJANaeV/I9x3KLJ6OdAGDBhMSp5p2uCUdfQB1WN9G3L552bxovfEuMmGOn/7m8z968Xtnz+B43n7z8m+V539+BZfHlMYp5ss/FS9gp1K0tb/0m4tvvPsfJOwTF4QXX/j+Y6yWsp66n/pWfZSKxrTCNpyOuk2HPSDmTduviJG4wxpDfuQllde6PfYb4Jkv10RbEob+epglnsFuTgRqg8mi5sbrGTSa1Ht9UVL21sJ2A3FZqheUiWNAjeC1uWL6to61EKFSB0TXxkg9UxOeoXWHgZ+kF5SuSRi1oqYScgmgIRNHqmUve4SXRUCxagVaEbYPpUeCslVbBpwgGyPbC5ejMVRxiPGqPR9KyBb1nJGhCuwUfvtQpi44wKmB5BTD8qLSxJ96JlBc8tbz3nJ6igPHVOsqDJSGySaLlafXAJ/NYgOegGDJlzmcNppsloQlNMt/XQOcGUy3BPqqVBraptpdR2WLxaoz6wklGm6RpbXWC0kfR2X9ooSSNBLTcKy3lkQxJ7jOKYpDm+4N5aKiLImdIV0zBNVp2o4QtJIE5UKSNHI0kUpBpaGTMNHGNdRsnGyHjg/cv06bRvRANJ3Za784e+ZI45udXzhy6uzPXnnLt5RGDpfG7j22gqwx7fVLtIoKjeJ4WRt6UYMyeLCC4+fKguxZ7I90RcAZAAU5VknRdAtF+yYZDPAstKhGVKEpkmET4Mz8UeHdYlIibkvSiQFtvopMimnOCuA5uyW2/aFMuhmXnGrDjQgUbOcIBrxEZDbWFi3ihk0LJsyzHZZ9oYyn9bN/rMgYojaBYgQS7CZP0Ktekk1be4nBKFShJ5SRhlUfDG5YklJ13aywibCrhmA4G+zKiQD7PrZKDJHTwjK7bk+9oIxsFSPZisSPfU9vmv55bYKTOx3ijPTVxrFWYNroSpasOBwTOl21GYDZB0qSSi41CF5A8i7ANCN18TYqp9VnhGiq57zwKX45kTgExDm1P5bdoYxJbZA3m+WAwsQzyrMVvLUXpuU1Am0M8OgVqHlXZR6+hxYvwxN3bRQAhM5QkhZu2QqK1TnwnnrTZLmwgfNHkE3Dj8PNsh/bFKZPZaUKQM4MYru6QhkRph7Z37R3jag7hNDZgIkSvG45qCjBd6dP5z7aNJxIhJlvzVKqnYvMYLc/KjQkWq3rpoC/HaH04Q2JNPSwtcW+LTetQnMQREWBvU2ml8ZTCs8eL489vGOcIDkPG1vYFlWI3aDE230LbRCd8nRWri+1NRinRfmGf4Tm4oI2Jorg4qyDRbW4Za0sP+mpE5TJFGoQYNyUJGi2XRrgJGULeOuqJAC8lPN23UQoFSU9dIEymoA7HLrpJh0RllISUE154pCkj2scsgDa4w/y5X79Mv1vFyin4CBVAsqaIcuxCStivugSfCQlwULI5748KC29S/3QAUpwouRkq7Z0g4LE8MEvES8wc7m4g/WVMyaQ74M38KtVuTj2qT2UsELJI2BLja15NnOIB0OCYky9IE7SNIkDb2oo4GqB0K3Yj0CFORmeo+hVO+e2TLWHEl5zkKVSZd/wnGD32ggZC2fKxJ6FX+7E9o6y2IYMs1HdKm5oxSq7AcrIteSVS5oTJXVou+4YcmFwI9ebjExVlgR+aUBzvCBppuUGUboa+VkSBY5tGRoKqRR4fvVeedCKCzMcED92sCsWYiWIkqIZlj0NonVwYJZGgWeZWkkgWTXRgbs/wfJBksgjBzVDlVcnROiA3nKp1nUSlDQnJGUUSE8cz1HsUAYaCcg5vonT6L9AYnCoOpI0yzyKV5YvyiP8vqPY4TCU0D0kUEBquUAOaKtDY82k8FaLwLqaRdWxeSGOdNy8QBSEkvbkK6+MQQp27ha7f0Y43WUgBMBCMNySELUH+PD2LsDyIMkXnvoqDftHnzpP8xrjd+5mZIYglNndLdxD+uc1FIzb/Be9d635JdZvJE0MQSgfP/9sU1n2+Tc+/ISG6Se33qd5je07z51vGjG1Ib8hHNhOmdREoWkBR0s46EwhMe6ZJzWvh+Cys0A0trTSHoOXVF3Fm8lIVM3UJZwJIkiKbo7G47E1NDVFEohrZ9PuMxvjz8jXUHE8Mi/N4by6kWmg2tYZhV9O1E0DMtF5SdPkUilBtWh2k2Qo53imceA6juv58dLOBvcJq4MXtM8Lfc+d/3l+uDHON8o+T2RpEoXoz8eed4s6FG2QTfRS167gEQx/zi1K1juBSmVRLtB8J7rIBaPozcWxVJbGqBGo3Wh7UeIGPzRDWS2bOrjWzBullU+7qgVrzySPhqg5YclhloakEDWjeV4oVZ960Pla9SSuVIz40B5KFJ4KjI12HirwvkI+EnlR1lRFUTWKEPR2XlvPBPaNPRzpHaCcgdE5LeToEy6cY11KtfCPJZBPipPH9H7Cio52gTIcQ3ElXOFwtVJR6RFUihI2rR9og/zA6R75Mtr5CYut6gLlDD65pWkM1ZFhaxhXBXSK+Zpw6Jjf3CqCRJfuBOWMEOKSx2VgBYgc6PZDV/Bq5SqxHjUxCLFamBP8WnGQ0A1KkgO8EpqR15xFNPEUyD9WA6c1QTJAPw7sP0euyhYHKnm71qmOUGY+ZEygZmNCmYKJQYMQJ+noBg1hACL7eTgET+nKkPPmtB5TFRGC61Qw3nONFvG3I5Qz0hgfKONSGzxCpM6m9Siewl2Vgs+pB8bqUDGhvFSulF22xIhWcnQ2EcVFZmcoZ4FFCAPKJx2KoL2BqE+KWwpCjFz5skliU1zU0fLYScIUPxCb3JGNWHaHckaMsVs5ceNm18P8Bkr5LwVnD8xxIEVg18pEI/Z9903ORvYeUKKQM9LJAGeH8ZiguIuhzSnYmT7Ex2Xz+LB+cMuQzx5GnMChQiiEbnHlegNKt0QvKMmKuWkInFCAg1J81AIckESwb+DK8xxhQuP5aQK4H5To8jzNkpILXUrBAUYhdjtFOF1Jwas+pRqxD4JenWGaQMPn94VyNgPjb7Byb4jELRo+pJhTIOfbvG1dj5ox8y8eqiZqfyjRwTRF7OgGwkWiIS4FiqVp+n7llCJSuywIssqDJoho8xlAiTy5NtmzXRZfqi3ZFWHhvmk+rnCoIrXXAgndg60qMqNHJlAiMH06MCUorrkomQu5wAaDsl1ZLJSnUaS2AnhU1xAuf4U+gal5fesUeOJYrrXp6dBjP3kZu1RUCh777OEKBfvY6yNKR48++ODnsWxLRE7/5YVTJUrfhzWm3X9RiFarDwnxsulhP/SwFoEQfNGglUkwavUZGV6yHKrQqrVopN++A9yBPPtNXSzpVrCOOKsISNiDQ/fBsziw9Kb9ACBS49xdEQ967AUlugkOiEdLFlXTCar2Mex0EGrXL7LIb4hipRGFya3wXlCyCtHiBMmwJiguctXhkL29uQ+OAid9FwVOsvrUEMH4h3SwTu/3XVJiiBZyUGI/jlpXE9e69GPr0pzOi+pzzz7z9Q/r78wp1qt/ujx45y/j1y9ZlJzxfOrUptCqegkMpY4uPYUQTD53o8ZTmcbfixGKOYkzJkEI35HhWewdew1w2JbenErHHb79wxbIuWd+ORtHYPx5g2FAp1y9oJx//QpnDKPNcrH2hPJ2I1sI59wEc1I8jE3xH9HkdSYGUU8oUUhRUPk8paCMqkvyHNfMHWNhZ4/fkqNi2jjjNRqVL6NykrH50max+zuke0O5qBMFXC3irVx/swrjZUkcy2C17EKdIBvIYsVXv6SiWxoraUNcp5OKkvLYQEmqAZOXBc64EngH4dKCjkL9RhPquDOMWD1JW4FyJTO6xOPY8xsyLfDCvIq+qGVOvfzzBT0R6VycxReoMc1rSbp359bNG+4/HPfqW3+bvmFdabAa0aWcc9/hnz73zLknv/G1R3bmP4fq3AkHWTA2sYaBOo5iFGraOdbsIEWezRg52VpqYcPrH19/DffxdNe5eeTEieNH+u3QGurunr2LUN568894N4n16t8/ute9rQdccheh/Pd1B2j1lXc+2MJtIkCYKnkXoTz8uaqU/xfPuwjlseOnIezOfOEolLV9+sGuah2546Mt0CcvO/K7L8W2aaKTGpi4lShKUSd+PYjE6z7l7YaJDgzOj29ee/+/nx4+fOzkQ4+eOcH2G8dAlT3IOw1lj3ZtoeguLjtbgIFFlXsoWaC44LGHcg8lMwSYMdpr5R5KZggwY7TXyj2UzBBgxmivlXsomSHAjNFeK/dQMkOAGaO9VjKD8n8xzbHSVMpMjAAAAABJRU5ErkJggg=='
p25
sS'version'
p26
VV1.1\u02b7
p27
sS'uni'
p28
g13
sS'desc'
p29
g13
sS'browser'
p30
V\u2638
p31
sS'annotations'
p32
(lp33
Vbuddhist
p34
aVdharma
p35
aVreligion
p36
aVsymbol
p37
aVwheel
p38
asS'wind'
p39
g13
sS'andr'
p40
g13
sb.