ccopy_reg
_reconstructor
p0
(cemoji
Emoji
p1
c__builtin__
object
p2
Ntp3
Rp4
(dp5
S'emojipedia_url'
p6
Vhttp://emojipedia.org/yin-yang/
p7
sS'index'
p8
V1180
p9
sS'code'
p10
VU+262F
p11
sS'apple'
p12
S''
p13
sS'twit'
p14
g13
sS'gmail'
p15
g13
sS'related_to'
p16
(lp17
sS'name'
p18
Vyin yang
p19
sS'known_as'
p20
(lp21
sS'default'
p22
Vtext
p23
sS'bw'
p24
S'data:image/png;base64,iVBORw0KGgoAAAANSUhEUgAAAJAAAACQCAYAAADnRuK4AAAKRklEQVR42u2dIdRMXRfHJwiCIAiCIAiCIAiCIAiCIAiCIAiCIAiCtQRBEARBEAThCYIgCIIgCIIgCIIgCIIgCMJ512/Wd9d37OfOzJ07+5x7zrn//1p7ree1nveZmTu/u88+e++z7yJI0g5a6BJIAkgSQJIAkgSQJAkgSQBJAkgSQJIkgCQBJAkgSQBJkgAapJ8/f4Zv3779Y/ybJIDC379/w/fv38O7d+/Co0ePwo0bN8KlS5fCyZMnw6FDh8JisVhr/M6JEyfC+fPnw7Vr18L9+/fDixcvwufPn5d/WwA1qI8fP4bHjx8vv/DDhw9vhGSsAde5c+fC7du3w6tXr8Lv378FUK3Cw9y8eTMcO3YsGTBD7OzZs0tP1+oS2BRAxCr37t0LR48eHfTlHjx4MBw/fnz5JV+5cmXpOViSnjx5Ep4/f77PHjx4sPz7169fDxcuXFj+v9vAhHd6+fJlU0tdEwB9+fIlXL16NRw4cGDtF0icwzIGIO/fvw9//vxxiamIf54+fboEi9fY9D4A7+HDh+HXr18CaEoRDAPEqi+M5evWrVvh7du3WZcQwHj27NnSq+HlVoHE+wM8D5AF0JbbbOKbvi+Hf2Nn9ebNmyKWCgJpYGLXtgqkU6dOLSEXQBm0t7fXu5Nia83ShFcqVSybeMRV6QKW4R8/fgigVMsVwa696MBEPFFTYAokq2I24CKvJIAc9fr163DkyJF/LjQXn2Ws5kCU4PvixYu93oiAvIbPVjRAeJU7d+7su1PxRFz8VkS8xhLcF2STBBVAI4NPe3cCEnmaFksG7MT6dpQsaeSOBNAWIiFo70hiHbLLrQtY+jYJZLNLvHGKA+jTp0/74h22uV+/fg1zEZ/19OnT+yAiUy6A1ohciIWHkkELGdsxSziJSAsRG4eSPFExALE82cQgO5E5tkjEov7WB5EA2rBsCZ7/i1YUCxGbCQH0v4DZVs8vX74seHogsjs06mizBoitKwGyjXnm0Ig1RpRqLERT19AmBQhPY3dbcwyYd1nO2PJPmVSdDCDWcFtFZzmTNosg2vY5TeW1JwGIHZd1xVTZpeGiGGs3HbMAiEq0DZppcZC2Ex4HzxNfR9pumwfI1remdL+1i1beOHc2RRiQFSCOutjiaK2deKUG1WSvmwQIL2OP2NCqIe0m8mVnzpz557rSP9UcQMBiW1CVLPQRPUPxpoSwINe1zQIQgbOtc9FENUY01JP3YCcXGxXsmk837CoOEkyRpV5M8eE4oTBE9EHTH0wbA4fyhpxdJ7FGoE6eiSBzLiIBG/cRcfYshxdaTOF9KJ6uEl6E7SiQbTqgN8SIu1o5xLdtQM1/Vw8QR4HjD8UkjFXBIOenUp1l5+7EK7UMEtcw7uTM4YWSAoQ3sW0afTsEPJItqqYyACWd0Krw3jkz/IucH6Zv54XXWXf8N5VRT2oxgcn1jb04sWO1ANmsM7FIrL5uu5xG33GLY1e4zvHnTJmdTgYQbzoOgvk5/iCcMpgSnriFpDWI7LUnDq0OILsjoFGsEzGIxw5LnmiY9+cmqQ4gu3zRTdfldmxgXYKRNmgpM05smWMZSwIQwan1MN0dvuoseAl29+7dZgDiRo2/A0KGagCitGCXCMQWvlR4ujjtw4cPzUAUF1lpQKsGILsLIIhjebANUCUa8UIrSxkloNRJxSQA2Tk+nPemplU6PFN29qWQveYpJn0kAciWI1iPbc9KydZKqwkdCvHnSjG4yh0gak1x8AY4kF8LPK15obhCbxO5RQJEi2r8RXSPA6gNoKEtJ6UrnvKRot3VHSC77lKu2HYgdylW28DLPnEDp6yLuQNk2zfsjmxXYydHUpJmsS5O4We83NAJ9UMtVT8NXhpv0MWKNMqx8UgxMzpuJSaBWzxAHHCzyTnPRN+64LZvLN4u5p07IT6kH2pTWcUza2xLSt6bA3eAqHnFiblNF2yoDZ3OxR2Mq/Z4TZZeL/HF9Y0pXvW6XrU521LjXdJwByieyE5SzqPDkL+xTSehPXC3i3ndsdt2H9BH7iGb/fceFegOUNxSyR3nUXUfU8fhuLQHQB4XHG8y5ECALat4eCFbVvIeVOoOULzj6pt9PMbGjC+x6YSxxuMJdhWZ+DGv7ZH4qxogr7aNMcsIa73Ha3tc8LGdlx5j7KoGyMsEkACqdgkbe4K2lCXMDrQoHiCvuKeUIJrOvpqDaJKTVQG07sFqu2zjtzmCQ/HWaxvv1ZA+1Tbe3kjFb+PjRKKnUdMZEguRL/I8pMjreiUSh2bJyUZ7naC1g0y9z8IlL2V4GqWFdReWwNm774jam5fIkuMR1uXGyNx7ZaGBNq4P4pWLr4V51r5WnXHnNQiSAQbjZ1x+31NuPMz7yA+ZcoqcJFrZdOAxuTnIGnvWqujvTlWaSQZQKQcGPa2mR1DGsn1YVbRzsO1tDSDiiBplDzFU0VBGzqY1gIgdahsL03cjV9HSyho+xbSN1FbK03F22Q2nmIib5VhPC0aAXosXYt5S304vxfn/JAB5ZYFLs5Ie9LZtMpcKQQolAcjWX1oyj/aOlLIdiKkHkCcByJ4Na8koq5R6WoP3taoD1KOmlw0gVPIUDo8zY6XNpOb9rKtDcjq4KoD6nvPZkg2tzeWSrXnZgRGplG3EnSBKJzvIPVVHQVaAWl/GYoimWs6A1z54rs+qHLK5bkfQmpH3yv2cLmKaIb1XVY/57Rs03qrRcZhqp2PF6wztcExdCM7+qIPWjRJCqjF5dFpu0+/Elr7qRx10uYkWa2NDugrxFLuWD/DiNOWTCNx2U5KieJodIJS6yaz0Sj6xChNFqFFtAgpgyHbz+wTI2zbjjz0OXjRAeKGxF6JFo80UDwVYnZGroWPQy1unGus7CUBo6udizMkonOZKLWQDiGCu1klltVmTD91FdMm1np2e2gi2c2bHswKEhmROZeNzUbkTmtkBIqD2nmUom240cXaAkJ0YIdvdONA5hSYBCNU4O7pU4/jOVP3akwGE4hnGsvE5pdxxTzEAkauIJ6nLts9ye49rqQogBdX1P89jcoAQNSIlGbezHIXSagBCHImeS+9QS6dkiwGog0ieKM/EtCYBQuwoUsxZbMFyVdirBgiR02jxfP0uDwPO1S7bBEBd9X7TcZW51Lc8Rg3PDqBOdObNsSW2e1yo91TV2QGEaCafU1zEksVOq7Tj09UChBhPS6/LHEoTU2eXmwSoE912rW71qajX9pzW6gDqvBEnPVqJjTg9WvrcoaYAiutomwZ3l9787j0bWgCNEOfE8UipBo2n8Dh7e3tVBMmzAChe2ki4lZiEBG76wVMdexZAziJ/QsV6SpgoDrNz5GhyC95mVgDZWIkvkWXOTm/3jmnwMtSsyF3NQbMAyIpaGw88ASpOzBKIM1UDuNYdL8ajcASZ36UdlwemMMqPvI33Y5QEkCSAJEkASQJIEkCSAJIkASQJIEkASQJIkgSQJIAkASQJIEkASZIAkgSQJIAkASRJAkgSQJIAkgSQJAkgSQBJxek/lw00pi9TvzIAAAAASUVORK5CYII='
p25
sS'version'
p26
VV1.1\u02b7
p27
sS'uni'
p28
g13
sS'desc'
p29
g13
sS'browser'
p30
V\u262f
p31
sS'annotations'
p32
(lp33
Vreligion
p34
aVsign
p35
aVsymbol
p36
aVtao
p37
aVtaoist
p38
aVyang
p39
aVyin
p40
asS'wind'
p41
g13
sS'andr'
p42
g13
sb.