ccopy_reg
_reconstructor
p0
(cemoji
Emoji
p1
c__builtin__
object
p2
Ntp3
Rp4
(dp5
S'emojipedia_url'
p6
Vhttp://emojipedia.org/latin-cross/
p7
sS'index'
p8
V1181
p9
sS'code'
p10
VU+271D
p11
sS'apple'
p12
S''
p13
sS'twit'
p14
g13
sS'gmail'
p15
g13
sS'related_to'
p16
(lp17
sS'name'
p18
Vlatin cross
p19
sS'known_as'
p20
(lp21
sS'default'
p22
Vtext
p23
sS'bw'
p24
S'data:image/png;base64,iVBORw0KGgoAAAANSUhEUgAAAF0AAACCCAIAAACre1NuAAAKvmlDQ1BJQ0MgUHJvZmlsZQAASA2tlndUU0kbxufe9EYLIJ3QO9Kr9BpA6VVUQhJIKCEEAohdWVzBtaAiAsqCLl2wUWQtiCgWFgVF7BtkUVHWxYINle8GlrjnO9/+9805M/c3z7zz3pm5d855ACD3Mvj8NFgGgHRetiDMz5MWExtHwz0GJCAFiAAD5BjMLL5HSEgQ+Nfy/g6AxIO3zMS5/jXsfw/IsthZTACgEGQ4kZXFTEf4FFKbmXxBNgCoBETXyc3mi7kAYXkBskCEy8ScPM/NYk6c5+65mIgwLyTmNgB4MoMhSAaAJEJ0Wg4zGclDRhBY8FhcHsIWCLsyOQwWwnyETdPTM8RcibBh4j/yJP+DGYxESU4GI1nC83tBZiIv9uZm8dMYq+c6/88mPU2InNdc0UJaMkfgH4Y8kS8IVaZmBEqYl7gseEHnIjtaYI7QP3KBmVleyFnOz2UxvAMXWJga6bHADAFCf8dws+kRCyzICJPk56UtC1rQOWy6hNlZPuELehLXl77A+ZyI6AXO4UYtW+Cs1HDJGvI5XhJdIAyTrDlJ4CvZY3oWMvPvtTEZ39+VzYnwX9BZbG+fBWbzIiXr4Wd7SvLw0+b+77kzZKf5SfSsnHDJ3GxBhERPYQSELOTkZ4dIzgT4gxBAA3EgDFgDC5Cbzc5D/jcAvDL4qwXcZE42zQO5IWwancc0N6VZWVjaACC+b+IYAN7enbtHkCL+u3ZgPQA+Xci3/f275oicY7MJ8svnfNd0pQGQUgXgzF2mUJAznw8tfmCQWywN5IEy0AA6wBCYAStgB5yBO/ABASAYRIBYsBIwAQekAwHIBWvBJlAIisEusA+UgypwGNSDo+AE6ABnwAVwGVwHN8EweABEYBy8BFPgPZiBIAgHUSAqpAxpQnqQCWQFOUCukA8UBIVBsVAClAzxICG0FtoCFUMlUDlUDTVAx6HT0AXoKjQI3YNGoQnoDfQZRsFkWB5Wh/XhxbAD7AEHwhHwCjgZzoTz4QJ4B1wG18DNcDt8Ab4OD8Mi+CU8jQIoEkoRpYUyQzmgvFDBqDhUEkqAWo8qQpWialAtqC5UH+oWSoSaRH1CY9FUNA1thnZG+6Mj0Ux0Jno9eju6HF2Pbkf3om+hR9FT6G8YCkYNY4JxwtAxMZhkTC6mEFOKqcW0YS5hhjHjmPdYLFYRa4C1x/pjY7Ep2DXY7diD2FZsN3YQO4adxuFwyjgTnAsuGMfAZeMKcQdwzbjzuCHcOO4jnoTXxFvhffFxeB5+M74U34g/hx/CP8PPEGQIegQnQjCBRVhN2Ek4Qugi3CCME2aIskQDogsxgphC3EQsI7YQLxEfEt+SSCRtkiMplMQlbSSVkY6RrpBGSZ/IcmRjshc5niwk7yDXkbvJ98hvKRSKPsWdEkfJpuygNFAuUh5TPkpRpcyl6FIsqQ1SFVLtUkNSr6QJ0nrSHtIrpfOlS6VPSt+QnpQhyOjLeMkwZNbLVMiclhmRmZalylrKBsumy26XbZS9KvtcDienL+cjx5IrkDssd1FujIqi6lC9qEzqFuoR6iXquDxW3kCeLp8iXyx/VH5AfkpBTsFGIUohT6FC4ayCSBGlqK9IV0xT3Kl4QvGO4udF6os8FrEXbVvUsmho0QclVSV3JbZSkVKr0rDSZ2Waso9yqvJu5Q7lRypoFWOVUJVclUMql1QmVeVVnVWZqkWqJ1Tvq8FqxmphamvUDqv1q02ra6j7qfPVD6hfVJ/UUNRw10jR2KtxTmNCk6rpqsnV3Kt5XvMFTYHmQUujldF6aVNaalr+WkKtaq0BrRltA+1I7c3ardqPdIg6DjpJOnt1enSmdDV1l+qu1W3Sva9H0HPQ4+jt1+vT+6BvoB+tv1W/Q/+5gZIB3SDfoMngoSHF0M0w07DG8LYR1sjBKNXooNFNY9jY1phjXGF8wwQ2sTPhmhw0GTTFmDqa8kxrTEfMyGYeZjlmTWaj5ormQeabzTvMXy3WXRy3ePfivsXfLGwt0iyOWDywlLMMsNxs2WX5xsrYimlVYXXbmmLta73ButP6tY2JDdvmkM1dW6rtUtuttj22X+3s7QR2LXYT9rr2CfaV9iMO8g4hDtsdrjhiHD0dNziecfzkZOeU7XTC6S9nM+dU50bn50sMlrCXHFky5qLtwnCpdhG50lwTXH92FblpuTHcatyeuOu4s9xr3Z95GHmkeDR7vPK08BR4tnl+8HLyWufV7Y3y9vMu8h7wkfOJ9Cn3eeyr7Zvs2+Q75Wfrt8av2x/jH+i/23+Erk5n0hvoUwH2AesCegPJgeGB5YFPgoyDBEFdS+GlAUv3LH24TG8Zb1lHMAimB+8JfhRiEJIZ8msoNjQktCL0aZhl2NqwvnBq+KrwxvD3EZ4ROyMeRBpGCiN7oqSj4qMaoj5Ee0eXRItiFsesi7keqxLLje2Mw8VFxdXGTS/3Wb5v+Xi8bXxh/J0VBivyVlxdqbIybeXZVdKrGKtOJmASohMaE74wghk1jOlEemJl4hTTi7mf+ZLlztrLmmC7sEvYz5JckkqSnie7JO9JnuC4cUo5k1wvbjn3dYp/SlXKh9Tg1LrU2bTotNZ0fHpC+mmeHC+V15uhkZGXMcg34RfyRZlOmfsypwSBgtosKGtFVme2PGJs+oWGwh+EozmuORU5H3Ojck/myebx8vpXG6/etvpZvm/+L2vQa5hretZqrd20dnSdx7rq9dD6xPU9G3Q2FGwY3+i3sX4TcVPqpt82W2wu2fxuS/SWrgL1go0FYz/4/dBUKFUoKBzZ6ry16kf0j9wfB7ZZbzuw7VsRq+hasUVxafGX7czt136y/Knsp9kdSTsGdtrtPLQLu4u3685ut931JbIl+SVje5buad9L21u0992+VfuultqUVu0n7hfuF5UFlXUe0D2w68CXck75cIVnRWulWuW2yg8HWQeHDrkfaqlSryqu+vwz9+e71X7V7TX6NaWHsYdzDj89EnWk7xeHXxpqVWqLa7/W8epE9WH1vQ32DQ2Nao07m+AmYdNEc3zzzaPeRztbzFqqWxVbi4+BY8JjL44nHL9zIvBEz0mHky2n9E5VtlHbitqh9tXtUx2cDlFnbOfg6YDTPV3OXW2/mv9ad0brTMVZhbM7zxHPFZybPZ9/frqb3z15IfnCWM+qngcXYy7e7g3tHbgUeOnKZd/LF/s8+s5fcbly5qrT1dPXHK51XLe73t5v29/2m+1vbQN2A+037G903nS82TW4ZPDckNvQhVvety7fpt++PrxsePBO5J27I/Ejorusu8/vpd17fT/n/syDjQ8xD4seyTwqfaz2uOZ3o99bRXais6Peo/1Pwp88GGOOvfwj648v4wVPKU9Ln2k+a3hu9fzMhO/EzRfLX4y/5L+cmSz8U/bPyleGr0795f5X/1TM1PhrwevZN9vfKr+te2fzrmc6ZPrx+/T3Mx+KPip/rP/k8Knvc/TnZzO5X3Bfyr4afe36Fvjt4Wz67CyfIWDMeQEU0sJJSQC8qQOAEgsA9SYARKl5PzwXAc17eIShv6tY/i+e98ziAcRDgKMbAWIgALDtBuC4OwB6SF8K6YcgHOEOYGtrSUVUcclKsraaA4jUgViT0tnZt4gPxBkB8HVkdnamY3b2ay3i2+8D0P1+3oeLo7WnECueJqb+0pyN4uc/y38AuX384MFwjTEAAAGcaVRYdFhNTDpjb20uYWRvYmUueG1wAAAAAAA8eDp4bXBtZXRhIHhtbG5zOng9ImFkb2JlOm5zOm1ldGEvIiB4OnhtcHRrPSJYTVAgQ29yZSA1LjQuMCI+CiAgIDxyZGY6UkRGIHhtbG5zOnJkZj0iaHR0cDovL3d3dy53My5vcmcvMTk5OS8wMi8yMi1yZGYtc3ludGF4LW5zIyI+CiAgICAgIDxyZGY6RGVzY3JpcHRpb24gcmRmOmFib3V0PSIiCiAgICAgICAgICAgIHhtbG5zOmV4aWY9Imh0dHA6Ly9ucy5hZG9iZS5jb20vZXhpZi8xLjAvIj4KICAgICAgICAgPGV4aWY6UGl4ZWxYRGltZW5zaW9uPjkzPC9leGlmOlBpeGVsWERpbWVuc2lvbj4KICAgICAgICAgPGV4aWY6UGl4ZWxZRGltZW5zaW9uPjEzMDwvZXhpZjpQaXhlbFlEaW1lbnNpb24+CiAgICAgIDwvcmRmOkRlc2NyaXB0aW9uPgogICA8L3JkZjpSREY+CjwveDp4bXBtZXRhPgrl29GuAAACxUlEQVR4Ae3cMUsbYQCH8bN4pAq62KGtCErp4GCWDnVtv0AX6eKX8DO4SCZ3FzcXpy7FzU2dHLI0tDj0AxRKhMbjhHjiJHn03hdzXo4+GQp97kjufvkrpBWnhsNh4mNE4MVIMdwK6MI70EUXFuDqXnRhAa7uRRcW4OpedGEBru5FFxbgOs254nrVO/i4upm022Wv0134fPh9d+Nl2XljP16PS55fdotb6d7+UfJY+DNIkud3acD3l1reuga4lAyqmsO6sKsuurAAV/eiCwtwdS+6sABX96ILC3B1L7qwAFf3ogsLcHUvurAAV/eiCwtwdS+6sABX9zJJLmna4ssZrfOtdDRWX6L+E+Lqd+9XP3/yRaWz/85/hj7Lt9OT3vrbPH/yy84ur72bC33VJCl+TjX00T/7FP68E3dm+6wfeqPFeTHfX9J0ceLuNvyCVqK+HmNcwq+h+Wfqwu+hLrqwAFf3ogsLcHUvurAAV/eiCwtwjdlLnlzykzSixn3gjfk8PfP6a2f7Q9IK/jeCB73+Xhzt7B0/ePj+ga1O5839Ev+3LMuWXkV9QIr4jDm+U/Mf+6H39mV/ML7XDX+mmK+j0FspP2+QZ+Un3Z3Rz4qf333+Rz0uUfcZ86Ue9cSPndwAl8cuv7JjujCtLrqwAFf3ogsLcHUvurAAV/eiCwtwdS+6sABX96ILC3B1L7qwAFf3ogsLcHUvurAAV/eiCwtwdS+6sABX96ILC3B1L7qwAFf3ogsLcHUvurAAV/eiCwtwdS+6sABX96ILC3B1L7qwAFf3ogsLcHUvurAAV/eiCwtwdS+6sABX96ILC3B1L7qwAFf3ogsLcHUvjXW55iuvtta1l+Df8fB+bqZaAX72qeJXFvCR/7vWtZdJV9eF3yFddGEBru5FFxbg6l50YQGu7kUXFuDqXnRhAa7uRRcW4OpedGEBrjex1oC2S0raAAAAAABJRU5ErkJggg=='
p25
sS'version'
p26
VV1.1\u02b7
p27
sS'uni'
p28
g13
sS'desc'
p29
g13
sS'browser'
p30
V\u271d
p31
sS'annotations'
p32
(lp33
Vchristian
p34
aVcross
p35
aVreligion
p36
aVsymbol
p37
asS'wind'
p38
g13
sS'andr'
p39
g13
sb.