ccopy_reg
_reconstructor
p0
(cemoji
Emoji
p1
c__builtin__
object
p2
Ntp3
Rp4
(dp5
S'emojipedia_url'
p6
Vhttp://emojipedia.org/radioactive-sign/
p7
sS'index'
p8
V1189
p9
sS'code'
p10
VU+2622
p11
sS'apple'
p12
S''
p13
sS'twit'
p14
g13
sS'gmail'
p15
g13
sS'related_to'
p16
(lp17
sS'name'
p18
Vradioactive sign
p19
sS'known_as'
p20
(lp21
sS'default'
p22
Vtext
p23
sS'bw'
p24
S'data:image/png;base64,iVBORw0KGgoAAAANSUhEUgAAAJAAAACQCAYAAADnRuK4AAAMv0lEQVR42u2dLbBOXRTHbxAEQRAEQRAEQRAEQRAEQRAEQRAEQRCEOyMIgiAIgiAIgiAIgiAIgiAIgiAIgiAIgnDe+T0ze2Y779r7fO299jrPs/4ze4x7n3vvOfv8z/pea+91DscC7PkWOJxADieQwwnkcAI5HE4ghxPI4QRyOIEcDieQwwnkcAI5nEAOhxPI4QRyOIEcTiCHwwnkcALNxZ8/f7qvX792r1+/7h4/ftzdvXu3u379enf58uXu/Pnz/yy+xvfu3LnTPXz4sHv+/Hn36dOn7sePH06gXbnRv3//dm/fvt0Q5dy5c92hQ4e6vb29xevIkSPdxYsXu/39/e7Dhw+bv+ME2hL8/v27e/XqVXft2rXu4MGDRQgztCDm1atXu5cvX+4EmbaSQJ8/f96om8OHD6uQJkemmzdvbq7HCbQCvH//vrty5Up34MCBpsSRFrYU0tAJZFTi8ICmPlSIdvz48c3Pouawjx49etQ9e/bsn8XX7t27t5Em2DsnT56cTdJTp051b968cQJZAF4QD37sw+RzZ86c2ag3vK9fv34tJi4eHDbPsWPHJhHp0qVLGy/QCdQIT548GWXjYDzzgEsQZgjfvn3bXNfZs2dHExqpR0jBCaQESMDbO/RwTpw4sVE9tUmTwpcvXzbkGENyVCIhBidQZRBnwWYZsjFwoa281VwHdtQYFXf//v3Vuf6rIRAR4FwshwfEg7L6ACAS9tIQkTDSf/786QQqufGkEnJ2xK1btzZBw7WoYNIiOcMflfbx40cnUInNzrnn2DmotTUCgnD9OeN/De6+WQLh0WDPpDYY9z02kNdiO8TqCemK9MxJ16dPnzqBpuL79+/Jt5M3k2x436Xn85DOMogbcf3YczHhCTHkvDXLJNpbE3nY5FhlEYi7cOHCP+kCy4jDD8SK4kAi5MqpNKsk2rNGntOnTye9rHjD8bikt9ZqPAV7Rkq24pkFaTRk81kkkRkC4UXhfUgbB6lC8Rabffv27WwcyFpkl3vLue/Yc+Ga+Zf/p2wia4a1CQJBCuIfKUIEw5MHkfpcPyBnCSRih64ZVRwb2CRu1+CdmSDQjRs3kpInbCrinUTomBwTqs1KuSmG/di6pPh+c/uC6rOSiG1OIEpBUzYPNlF4CDkDU1psvgUQNJxa7hF7kykSsR+t8nxmCIQoliKyvLGhio9NStlGQ5nu1pWAFN7PqRuK1TZIReIpnttZArFBkmEZG4oYlGNLI1I1Ny3turEqN2UTBcMa2y/1u6g42EkCpUQ7bm0Ab9jSUlKCdC3AfSy9dgrf4hAHHSDS5yjl3SkCEcMZ2jCitSVqkTFMtdMcqN3Uw566KE0JIIgqqURUXqtUjjqBUqoLVRU2AduhZBsOZLTgGMxZsT0ICFFIn3vw4MFuEEjyKnBLwyah94eKxuY8BK0aG9zrUk2LsRSNbSvJLuSFa5ELVCUQmyuJ4NgQRI3VaKsh662BMeW2S6Uo5bISSan93moCxYlPyUaZ6/ZacevfvXtXra+sL2FS0W2uYSsJhKcg3XAclqdnvWZzX223fknIYcwiHhSAay+pelI9W0kgKRiGRBryzEqvWm+o1vXHYQk8NOkzmuWwKgRKqaZwo6iwOdHmOYuAXGmXF7f96NGjKtePlIshBRg1I9QqBJKChrH0oc5Fs0+9tFs/JtteSwpJkg8DWytPVp1AuOWSxxAKv5AGpd12zWw9hm1pt32MFI33V4qraaU4qhNIki4QJqgRJla0mJaBVCyBEumWpVJIkoBa0enqBJJcdyK1AWMKxGqtpYVZNd32MeNihuJrGi1PVQmEq9m/Mf4f6nyIDrec5bOk/JW3O9d2pLEIKAZItdTxi7pKAr148SKrv8nftB78NNdWKJFtX7oY3pAzFfBsV00gqa43zrjXDhyOSW/M9VaIakvqWVuCxmpM+kyQ9qskkBSjCMYfD66l+uo3J4Z4FW816ZVwbXg4RLB5wyWy5TpLNRbXHCDFotACqySQZP+wwkPQitxKObF+kRm22BhjHvcfj6dPJEjXikBcT84jrJ1ErkYgyUOJRW6rN5c26L4qmlr8RRiin5idWjxfasUBWckui0tBVkUgyaiL34YW9k+82XPJE0ujOOeExG3hlXEdId7D9UgSd5UEkrpHY49HO3rbtxdKuOHYHLGRmkpuarnz3JP0/ZqFZtUIJOnjMCeZ2Iv2JvcTjKUK1+ISkRZpmX7PvGRI15wXUI1AUm1MEPm8EdqbHA/5xgguOcU+todK1kOPXXHAUNr3mkMZqhFIehODKE0Vl9VccfIUVVryd8exrRa5vVgKSpI/9tRWQyDpDQ9pA21bAbFeMwGKQxBn57UJFEecpaaFOGK9GgJJN5qrYam54gcMShev4ckN3XvNFf99KTNfqvLADIFQYdyU1ur3TNUwdPsxIe21UwRqjdQUtFIEaomtIZAU57EySbV01DiOsDuBFLyw1pDKTCxUNzqBBtSElZP7SJ6WjIRbGuwpeWE1C8uqEUhq8bU02y81pGBpfs2ieo5H5qyGQNKb0M+EtwT22FJjOh4KYQVSWUrNozarEUiK9lKhaAkkIZfM8aldrDUHUoyrZqdqNQJJ0WZr4h6QoZ/aVcqgA0vSNIBIvzRXqebE2moEkkL6iHyLxztiVOeOlOq77FaPYkKiDqVxVkMgIL3Zlo9nIkJOYpRa7rgcl7wetgVZbcunAkkpotoTSaoSSEpaao+bmwtKPpCirLUciit5YLVH31UlkDQos+Xo3ZTUiQdZjgEqzJr3BaTgbe2BU1UJJPUq4fVYUgOhAAsDfyhOBXHCOfX9DL9F+4frrH0UaPUsoHREgZWAohRqwG5DSmILkRbgXwxs6T4sufFSCkPj/LTqBJJKPFsMg+wD13ZpWSuksmIfSfEfjfPFqhNIajUhVtH6oJBSGXkLR0vRKCntscZoY5VCFqnFuaU3lpr4PrfTtXWVgRTD0hq2qUIgaQpHy/H8uWMl5ywM61ZIzQbSOiNEhUCpNpoWRmiteYytotNS0hpHoLb3pUogIA0gwAjVlEIQuVbjXzz3qLX00Tw3Q41AeD1Sok/zJOJaxyiERSpBE1KkH0mv6aCoVoNLA6cgVe0hSIDIcckTgFLHdGqpDmp8hs4d2ToCpWwhjbiQ1jBPDfWB2pcCmxBY2zFR70dJzUWsGZ2W4iS1lsaJyqmBVi2cEnUCpUpJkUw1VFmN88daHupCclRSXUjYFmGRJh1xqfnKxGdKb0Kraao13PrUaY+8fK3OkW/WUikNoCrdgsKm1jacc/34pV+G1FCIluW1zQiEtyIZgqkJqnMwtky11irZTpN64SBVy/KYpk3diHlJQvC1pYVQLY8hKB0RTs0z4gVsnZRuPhUgZaNAorn105rnj00ZwzsHeFaS0czXLNSXmxgrkRLP/UmoY6F9/lgtt56W6ZQNV7NZcHUEQmKkAn1TSYRIX9IsaMWtz5HHUk+amcE22AoptTOFRK2PHkgtivenpClSwx+Q1pawZ+likB6pfnU2dKjGhcLyludvTBmzlzOYU/fAy2GtL80UgQDR6JR7z8bmXOPWp+dMmecsqfGc9KQE12JTozkCAUo/pDLYWIz3N9OC2z7mWALJ7aYkNne/VsljlkCBRLmjCNjwvneDyyuF+q0setD610xTY87opwTGcju1WQIBEqHSoKo4VkRXRLzBGOMU7JecRF+iWhH7Lb5OJBGSJWezaVYWbiWBAobO4+LN7ns5JB4hUsqe0jiXDPL3iTNGUuIwWJw9tFoCAcpFh+YaIu77JSE8PH5W63gpCIvkkHqyiBwPdYSgtuPDdJ1ABcHGDh3RhFrDyJaiv9hVeEIkIEuqOFQUKQsIItkrlNPyN4dCDHRYaJXE7iSBgl2EpBl6GHyffi0iuikjFJJhxFJCQuYeVUjxmXRUOSoHovA5HjTqkSrKVPcnfxM1NKYHDclaqgLBCTQSjKbLub79IyohCRKidi97OLh3rDdI7GpNKmtrCBTecgKLU9QRbzsPDZVD7GipyiCGg42FRzWldJZSD37Osou+9QSKXWJ6vuZUH6KeePAY2ag8pAdGMA83XhAV0vF9ukhQd3P+HmTn969l6tlOECg2knnAlmJAscSBOK0LwJxAI4Bawji2kBtDsmFMr8272mkC9T0totXUG2lIJtQapEHlaXTcOoGUJROuN7YMUeKpA8ZThMEeIpOOpKk51NsJZBB4UXhjxGGwUSACQT/iN/2F8YyxjnSh6Isit21VTU4ghxPI4QRyOIEcDieQwwnkcAI5nEAOhxPI4QRyOIEcTiCHE8jhcAI5nEAOJ5DDCeRwOIEcTiCHE8jhBHI4nEAOJ5DDCeRwAjkc/8N/WtUKIQ5pb6MAAAAASUVORK5CYII='
p25
sS'version'
p26
VV1.1\u02e3
p27
sS'uni'
p28
g13
sS'desc'
p29
g13
sS'browser'
p30
V\u2622
p31
sS'annotations'
p32
(lp33
Vradioactive
p34
aVsign
p35
aVsymbol
p36
asS'wind'
p37
g13
sS'andr'
p38
g13
sb.