ccopy_reg
_reconstructor
p0
(cemoji
Emoji
p1
c__builtin__
object
p2
Ntp3
Rp4
(dp5
S'emojipedia_url'
p6
Vhttp://emojipedia.org/sparkle/
p7
sS'index'
p8
V1208
p9
sS'code'
p10
VU+2747
p11
sS'apple'
p12
S'data:image/png;base64,iVBORw0KGgoAAAANSUhEUgAAAEAAAABACAMAAACdt4HsAAAC7lBMVEUAAAAAbBEAYQ0AZw8AeBEAchEAfBIAAAAAaA4AcBUAfhIAWAwADwAALgAAPgYASQoAOAgAAAAAAAAAQQkAZw4ANg0AYRAAXA8AYBAAbBUAgBgAOQgAcA8AYBEAbRMAZRIAdRQAZhMAtSAAoRsAnBoArh4AsR4Aqx0ArB4AmxkAtRAdOh0AuBcArgcfojQAohMAvhoAsgoAkBcArRUAyCEAqAMAaQAAQwAAnxmHdYQATgIAXAAAoxibhZgAqhCe4KqmkaMAhQLjx95dyHJDyV4ZPxpqzYAAHgAMPRAqvUJhVV1zYXBpWWXNtsg4ODYAugQUnis7wlM4uk3i8eTp0eVjq3IAcgYVqi9IyGh30YeE1JIAOADFqMIAIQAALABSRlEAMQBHPEQejzHTx9Dc2tw+SkD99vvG28nP4dNXqGT///8CxzdG1mdR2nNP2HFM12491V8p0FIAxC0fy0UDy0chz0pK12sIyjo33GQv0FRD1mQhz08y0Vcgx0JX2HU301o+1GAi3FYAthva9uEe3lIArhk7010AqB2h5rAW3E8AxSgAnAIAyUQA1DkAixcA1kI31V3J9NMAyEBs3YYl0FUAzC5D1mkUyz8t0la578OV5aYZzEz8/vsAhRcezVAAsx4001kAvyYxy08ryErM8dMAlR0AphwAjQAFuiUt0V6s67kQujEApRxc44Pi+OkAmBkAsB4ApyJh2Xv3/fcAshREYEMAoiI81Wfw/PMAmR4AzUXQ89j/8v8AoQIJ2kwAlwH/+v8ArR5V23kAphhz348AoBv48vV8jnuvu64VxTsAkRgAkgIr210AlRAAewGWppb/+P8AqRpo1IIAoxwAwx4EzEwcvjn//f8Aqh0BeRKD4ZVedl5qhmyKmolTbVNM0mT42/BO3HNG0WKL45w9n0kAiAMAuyCSwZgwcjZWflnE8c0ApBzm9ukyUzEAnxsAlRjf/+kQzErm/+wAuCD86foAsh8IsS0ApQ0AvCQAnw3X/TeIAAAAInRSTlMAz8/Pz9DPHtHJ0LsNBDmLSBoIbOMUVS57xf1ZsR24sN6njv/jVQAAB4NJREFUeF7ckMVvJEcchXOwV8pKuzfbY2vx36tq7mFmZmYwMzPTIjMzM4RzS1VPz0y3EmVzznd7T+/3SVU//L/oUpzs/vG7dJ9UdP2joLO7Jzyw8h8YCPd0d/5N0HG8tLI4vndt57fvsHNtb3xxpXS8Qy7oaj+/6HHdvu7td3z8Vxz93uu3XZ7F8+2ydxw9MTDjGsvPFecc/e+lxBCyot+BRvkx18zAiaMSwTF03zdZHE1Q6rQEtZYfG+O18o5KjBYn+5DhmOT/wjMu03LMvJSmKYpssqu99Pbdu7eXtLutjqLo9JI5tmxyzYSbP3mo/fP08FrOmqZIs5kSwabaG4B4U0N3Tcxmkkpbc2vD05/bD4mCw+G784mYm6Ap8qKWpJukVUCAT7c6UnuRpGjCHUvM3w0fFgWKqenhnFmvpp/B0pSNVDewRoFA1NqsSNuXEnxGq/Xm3PD0lEIUHDk135u3EIQa3nt69pWNIkTcoqDKNBrK9urs03tQTRCWfO/8qSOioG3Q/nyW0esZ/jQAV4ZstL5OtCoKomJBO4euAHCax9vZ5/bBNlFw0GN/QlitVobJAWxwooAxGoFAtlrPhHAPcgyDwxO752BL4Na7EVWVFw0eDTlRQuiyAHOHNQpR7xx6hKJXVRWSWyboZSwYI59HkzMXnELUsXewoGjQ4cQ4L5xBKc8bLULslQn6LEYBNvMCjR5u+aIo6ApzWLBc0KEQ9Qn3LzJsfWnpkwn4qq4Om7lfN+Ai8xELHBnUV31bD1G4n2HFYZVvCQ547KYsK2LQ7KPhg4APNZo1LHivYdmsb+sBqvc1hsYua7J7DjQEg3ZT0tBABRNo+jjgSxrgKBZ4NYakL/AYlQmoas6SJvugVFAutICzAGwvBDbLcB8LJmB5M7CwDcAslIzKcsG5wjcJHAXA1YWNzfgIFiSDmxsLVwGgOOmmcE4iGK/AW0op3BIA659+j8BJABwwsvFpHYAlTja5BSvjDUHbh0pNGZTBjQiGFHpDIvUnvh/h5AtlrfKhrSG4UXkNlfHgah08iHPJIvjlZSr009eQ/+U6KCa5OL5qTOJK+LpyoyX49edaPBjy/4Go+VOhSCSyypWLYOLm5VLP5ZsToFjmVlEZSvlreOMPBeO1v5ork9im0TAMhzCoIyXdy4nb7zgZuw1x0mxNui60pQst3Vj3ZRYf5w6HVJVRI3zjNlGExESgRiSiPXQEUcZUGc20mqolUYnR3KBBIiMHYaIqt/m9xHZapPY4z+39vvd7bvbPF1UBYuZzjxbcp5ohp4aGrnvcO7kHD5++avG13brV5mt59fThg9yO23N9aEjquBce5XgzogrifI7Y6N4kBV5+mR7rHm727DidbK8w6GWdzh5P83D32PSXl1KlYyOT4+OqIIXyOft7soKxUU/ygxQ+JD2jY5Xb93iOR1MVAusAuYfetRdSeLE2vXc3YNUKjnEoyNlf7y19WigLfv60d/fangMod0wj4PH+ysrcc2L8nRTejRPP5yq3/TivFXiZMB/A78vLpWePu+5t4+PJHmJOVBE9yXF8+17X42dLcuU+HuDDjFcRmJgw4AP2xW2BxSfLVqsVz2zcGXETbz9+fEu4R+5sOHE4XH4iV+wBHoQZkyLALEUAWZYJA8A7Z89skjN2Fzvrss+Qm2dmnTwA4XIDQIoWrFKghXe64f3KX7i/t9eP312BBjc0qFQKjmBUPKyFz/hvvCFXFu3Cb+yfoH1xiXxzw5/hK0pxCjtSFsQotKhZgYz/GvwZb1sDPbdJ8nZPwLr9C0le82eAplREqZgqiKDmogJP+IZJkjztCnfeFJ6Fm61h12k4GPYRvNoyoxGtgImbZeKA8I2K9+ZwcIaE/JQomkXDqI8Aao/RCqIWtAxo8YzA8qQLRc3JP6VPwYyirrNwOOJpAUrRElUERwv5LKPcX2qD1bMJGOLrPwqCH9bjMCQEQ9slxcBk84WjiiCdZSTA8lXhvj9hgWH+b/FhmVqfh8GS6BcMV5eBXM2mNQKE+k4EtF7pgLXzCYuQWn/7XhD88WurkCyJ8zB0XGkFUpdCVMEaQmUtENA5KNz3JbYsAp0T4uP6+0SnGLcSfYJhsBMIKUsha6ogFaGy2SxaGuyGlYHgVlZk96T0vE/sSnkrOABj92AJhYGKpBSB3sFFKcg8exkWLgRXKQlZQJ7clQerwQswXmbnhRDlHPqygPbmxT3zmSQvKvdagWK4SJKfGbGR99JlgYE2pSMCpdWprqAtUqZUFpSUkS3YNbUqxbSJNsiC2hCGREVKEZstqqAK1JnNFpETgoVqZUEdG+PS0rS9PaoRnJME51Sp2khzMbZOFhj1NIak8/toL4l/ua4gsn+XRjBab9TJNLIFDknvx1aa7OubLNm+skK4AtuoK2M0hGJcCtmPN5hMBr3IflJcLGQw6hRqmuiYiUsdGs4Uo5tqdCrVdU10ATNxh8SEFeimumqdhoYaA+soYBhmOhBYKjhYQ02DroLq+kY9G6IdjrUDcDjoEKtvrK/W7cVYdaLWoP/2QPSG2hNVRt3XaDheX3UI6o836P5P/Aeif3mezuts0wAAAABJRU5ErkJggg=='
p13
sS'twit'
p14
S'data:image/png;base64,iVBORw0KGgoAAAANSUhEUgAAAEgAAABIBAMAAACnw650AAAAJFBMVEUAAAD/rDP/rDP/rDP/rDP/rDP/rDP/rDP/rDP/rDP/rDP/rDOgo/zKAAAAC3RSTlMAUN8AECCfj+9gMIQ27Z0AAAFZSURBVHhe3ZYxasMwGEbVM3jMETwZOQ1tjxEo3UMnjRkzd8rYI/QEdcExfJcrwqIPG4V8Q4dSLcIfj+dEsv5fYT3u2qGJqxHWwUb6vAm10nAL6iXpV6D4Z6DtvgrlHCiNdeg0Am2lQw26l/ZA0liDElDWZhUQovI6HoEQHYB4BkKUIQIgREAkQIiAcgSECIgMCBHQHAIhAiLNECIgVECIgFDNECIgVAVCBIRqPlKIgCKq+XAiAkKlY9cOzQ4RECp95fkJERCqAiGqQLvp/fk8vT7oWIEYj2dp+liFoWv1M4YmvuT5LS7TsIEpf74shEhDFqGK5zxNcZkGLUacp36ZWpD1OuuHW0vgLOZ6W8S2OBvsfir+R+d/vv5BQNRfPVKICoTKOOZOwfBKj1XEvHJoFVazRPvF3m8b6VoDukS7lflNMaZLvb2m0WrUVsv/F5B/XfMvfl3lCvkNMMhtO1oAo1MAAAAASUVORK5CYII='
p15
sS'gmail'
p16
S'data:image/png;base64,R0lGODlhDwAPALMPAP8RAP9GAP/9AP+kAP85AP+dAP+XAP9lAP/sAP+oAP/MAP9tEv93AP/cAP8AAAAAACH/C05FVFNDQVBFMi4wAwEAAAAh+QQJMgAPACwAAAAADwAPAAAESfDJ+Ra9hhaapdmTonWSMAGTeT2D5Ejt6iXGAMrscAyktBQKgKNwcBwMDoCiYKEMdDyc5xnFxV4smeqBKnFuD9GkQOqBe5fmJQIAIfkECTIADwAsAAAAAA8ADwAABC7wyUmrvThPt7vlDyCBl/Agp/YkTJI5TnM4RwOQ1sAMqomaGNGDMLqQjqqkMhkBACH5BAUyAA8ALAAAAAAPAA8AAAQf8MlJq704682le8PzacFBbMkBHMlWBtsXjl1t3/gUAQA7'
p17
sS'related_to'
p18
(lp19
sS'name'
p20
Vsparkle
p21
sS'known_as'
p22
(lp23
sS'default'
p24
Vtext*
p25
sS'bw'
p26
S'data:image/png;base64,iVBORw0KGgoAAAANSUhEUgAAAJAAAACQCAYAAADnRuK4AAAKqUlEQVR42u2dLdRNSxjHTxAEQRAEQRAEQRAEQRAEQRAEQRAEQRAEawmCIAiCIAiCIAiCIAiCIAiCIAiCIAiCIOy7fu9d+95z9z37mY89s2dm7/9/rWne9z32/p1nnnm+ZtNJ0gRt9AgkASQJIEkASQJIkgSQJIAkASQJIEkSQJIAkgSQJIAkSQBJAkgSQJIAkiQBJAkgSQBJAkgSQJIkgCQBJAkgSQCtWt+/f+/ev3/fvX37dm99/vxZD0UA2frx40d3+/bt7vDhw91ms/nf2r9/f3f58uXuw4cPelgC6L/6+PFjd+TIkZ3gDNe+ffu6x48f66EJoL/158+fUatjQfTlyxfRI4C67s2bN0Hw9Ov+/fuiRwB1e35PDECXLl0SPQKo665evRoF0NmzZ0VPDQDhgwig9p5bFQA9ffq0O3Xq1N4RWgD56/fv392FCxe6u3fvrhegZ8+e7Z1meBknT54sBlGLAF28ePGfz3Hnzp31AfTy5cu9wNzwhfDNEkC2rl279r/PcuvWrWJb2uwAsW31lme4zp07NztELQG0C55+8f8oAdFmbsszBk8piFoB6ObNm87PdOPGjWUD9PPnzz2n2fUgyDkJoH9179495+c5ePBgkTzd7FvYr1+/9qyM64EQ4BNAfvAcPXq0WMVAESeavfr8+fPOBzPHCeP69etRAPElqAWeknm5Ysf4PpZRGiJiKTEAXblyJevnevToUfXwFA8kAtF2TGNs8U2sDSC2vhIn1X4dO3as+/r163oDib7H037lqsF5+PBhFECcikrBw/aPL1mDqkmm+kD05MmTLC8sBqAcaQRKS2oLczQDkK9DmxqiV69eRQGE5UopqiIPHTrktDw1wVMdQL4nj5QQETuJAej58+ezwlMq0twcQAhAXKacqHYKffv2LQogujXWDk+1ACGy9cOE67BLItVLdMG6a6U4PnOKctVj4xvWCk/VAPVOpQVRqvA98ZRQgKa+VOBx/V1iYDXDUz1Ac0FEWiIEHlqA5oCnBTVRE+2CiG1gypbiE0LYXmfOnJnkcy0FnmYAQvg7lrM5JazvkzZIUTZBNQLVl5Zf11rTYlNdGa4TCxDFhPffvXsXBFBMGMFVygI8xKRaU3NtPS6I8E9CIWKYQshJDOBCRNphifA0CRD69OmT2cuOJQKKEJ04ccILngMHDgRFg/m3Vv0ThwB8vFbVbGOhyxkN7fTAr0ldBwQ8Vt1TqSpCAbS19VhOKacl36w1kW0fgEJKS6xSlSXA0zxAPhCdPn3aa8vByfXxg3xfuhUaIOywlKFVi+iNd9VZ+9bPuAKKvHifyLBVVYDvxkFgKVrMcAUAsQAAItfL53huAQQYLlkVjrVUEQogw2m16qzxSSyI+Hl8k7Gfd207zAxK5dQLoIKyWnVcpRFj84Jc6YvtXv9dYQVOjUvUYucDWX4IR/YxiLASu6wQU1vHZNUxY3lCY1ICqBKRlIxpXKTa0LeFx2rXxifjdLdkLX5CmWWJrMJ4Jl70EIyd4KwqAfyt2uqXBVCkxk5GrrKJFy9emBC8fv16L7Ux/L048rUXggmgQA2L9VO15QwhYrtbg+VZHUB9nAd/hfqfMeFE4xTTOMiJjS3wwYMHZvCP6DQVAjUXvwugRBorOiPAh/WwKh8pyRgr5Ofn1wZPVoB4UfgYlElYL2WYKiBmwiLuggPLS+XEhNXAJ+E4nbqtl/qeXb7M2MIipRTgUaJCTRBWku0Wy4cvxTPgGfJMSIP41i3xLPn53KUiWQDiW2pFdFMsfj8PiJgOQbzYQB1Ahl51MKUzlWM9oPClYFg56Y2czylXS3g2gHhArka5XIuXQRac2IxP/IVvfuwLxBJgNXz+Bl8orDFbYEwP2tTFDpBrDExygEIL1HM+NGByRZCn/A1rFF+/hcdYtxzLJxFcBUCxI+NyLjLxuxKhPlPSXJAOj+ykLXgGJSyNaxhVEwD5DNEsZZGGvoCvc+/bI49vU2r79lk54lPJAYppE55z9Seo2KEKw8U22MNTm9UZrhy1SKsDCL+oj9ukBAgwa/5/NwOQb3tMibUdKcacp7AYpDK2c241W6EcZSXJAfIZmlmD/4OsYnzfNYw/AVQtJ69hP1sTTrRVgzP3wqElpzVWSjr1s3Jg2CWsG+WtNW3nuQajJweIpGNpM04ahOi0K5iI9ZhyEnONuWO7JJXgyrHNsUgDNZPK6Iux5o5AA03oPu/qxEg1aByrBExYPQCfEyhXM0GVyVROJSEJSlfagEQiTYLkj8gj8eIpo0gR27C6Kcbam1O8EE5FWDGeFV8Afu/x48eT5hGJluesT8pazsEH5yXzkDjuuhaxFAJzLH6OB5y6FWYsJ4SJdwUBARkLsuuFpC7n4G/wO8m39c+EhZX1eZY483O0Ea2qHqjvnhjLTvPSyLLjcPZWgK2G0ATO+FgcpR85o4KyBWvYt5WqxGE4r2hN9dCrAYgKgV0nQxdELt9hbNgVfpqK6hcOj+vGHaoUgcOqn2aeYUvXEgigQFmDDjiGj1kJfJ1ty2LFe6y/wamxllt1BFCgrIZC/BTLOhCnGZbPWicaK6K9dIgWCZA13MkVVOM4HzPa1/qbQLTUFudVjXfheO7ySwjkjSVkXRBYEBEtX+KQhc2S4LFKVMm8uwCgftoKJFoOtQ9EMdNjBVAF8PjO58GxtgACQh9ZJS2Uevh0cwigmYRVseYj8tJ94MEv8slB+fwuF9AaslmJ2A6sIn78Dt98EHmmkBLWqRAB6xIganrQuNUUGHrlgW9xWch1364rDqhWSHVpngAKhMeq9mOLCB2lO4z9pOqvcl2y0jpEzQGE2bcsT8zWgKUIKfAK7W4AorHwQB8iCL3ARQBFyHVTT+z1Aa7je4obm11Wk3xdypugBdBM8KDQHvmQ+zK2heWyrGeLEG2WAA9+xJSLS3xv6tnOpU3Zgq3/i1XwJoAywMMDn3pZW2gvGxWKOf9PU+YPCaCBb+J60L5xGUuhM4KANsUXw9V0kHoS2qoAAgzXySjVBbUxLTYpcloc311/m1psARQBj6s5MZWfwBE7pl0m1WVxdE+0DNGmRXhSXo1NYjMGoJSX5NJw6NrOgKjGOutNa/C4psvHvLwaBlf6WKIai/WrAQiH0QVPquny26LdJwagHJ+FGJDrGeRsU24WIKsw3bekNFaxvfHWbT+5rXBNlmjTAjw5Oz6Hd2iEDKvKJR+oa7lKqihAPhFgq/1mLoDnBsgX7Bo6PooABBBW7fD2FIzczXmcbmJHpuSWD0SUipS8yHdTAh6rc2JOeFDsXOtcE79iAKdUpBREswLkaruZG54WAEI+1hqISnR8zArQ8C7SGnrKWwDI93Pmus6gqi3MGnbAfj63U9gKQGz9VpF+qWEORZzoXSPlSt2t3gpAlgsAPKVOY8WO8dsBM+DJdR3RkgDqIeJv13I7dNE4EBBRi1MKnhYBQn2nBzGyVcaBtlX6AbQIUA9RDemM1V26uxSAatHqAQotqN92XCUBZM45LFEdIIAaE202MXd7pKxIFEAr84PYvtY2UFwAOWIrbEkuS0TJKRfJLH3yqgCKFLOEuHOeSDkJTCwTi+pDSl/nuHtCAEkCSJIEkCSAJAEkCSBJEkCSAJIEkCSAJEkASQJIEkCSAJLWrr8ADq88IpJQsNUAAAAASUVORK5CYII='
p27
sS'version'
p28
VV1.1\u1dbb\u02b2
p29
sS'uni'
p30
V\u2747
p31
sS'desc'
p32
V\u2747 
p33
sS'browser'
p34
V\u2747\ufe0f
p35
sS'annotations'
p36
(lp37
Vsign
p38
aVsparkle
p39
aVsymbol
p40
asS'wind'
p41
S'data:image/png;base64,iVBORw0KGgoAAAANSUhEUgAAAEgAAABICAYAAABV7bNHAAAAAXNSR0IArs4c6QAAAARnQU1BAACxjwv8YQUAAAWySURBVHhe7ZvLbxtVFMbvHTtLVIXHFlRYgVoLAXlQygIFygLEQyxSqWyoKjYUgdKHVOKwIAlIQLLgIQQCuioki4oi0QWiFQtEm0fpIo7CChD8AVSs48zhO3eO7RnHdj2ee+0R3J9U55zrPGa++e65L1d5PB6Px+PxeDwej8fj8WSDNkafkzAXBPI1F4SV8WOk1KSkuSBXAikKJ5RW90mWC/IlEMTRSpfCjZGHpWXg5EYgFoXFiTL9VPR18OTIQTFRtBqTaOBYEaj6/puT4bvT90jaG3FRSD0gUc9UF6dfkTATVgQqnnxrOSzqT6uLM29IU3piomitbw0ro6ckTQU/LFzHVaJgS5oyYa2LEel5DNEnq4vlS2ndxMM7iyJpRA8u2l4sf6kCWiJF14ZOzP4ozZmwJlB0QXQBz39ipxisp3ITD+/NaN11HTKuWShXUORfQroyNDX3avROdqwWaVzYUVhpUys1jHS+aze1EAO/Y283w33NNfgd++DgG0Sq927eAqsCGSiYkwhEbsJNfCgNu4iGd7VX0iRaH5ZoF02uEeicra5Vw7pAXLBRA85Kyk4Yxk0c58K5vTDzmDQ36CAC6tBDEiWIu0aa8L20abNr1bDvIFDrapLWGIda51u4qe3SAoX7AG0+eKekbVwjJJxrDycCGVpccOQmda+kBtzs4xK2hKhQX7ySDu9PuEZgx7JzJbWKM4Gau1oNFNF1CTG8dzPX0Y9IoAo79LmEDaKudVQy67hzEChUiedGf0qKJ61uJG6yu7mOrM9wsafnf8MPXZY0wlHXqgHHu4Wn/KSCg/hDleLU7NvSbAgrY7+jvfUIFofoeV1awxwrgmsRBeFBjl0U5jjOBWqHGd51cEXSjqBbfhGUVo9J2lcGIhAvLfA6ebMCXQNd8w+8fqL1zrLe98tf0twX+iIQD9UUFl42IxDRo7vWXSkgoiu46msIloLS+lVpdoYzgXjznZR+WmkagVPqhdYmxllEq7iL68H+tfek2SrWBDIuMXMWMyyX8ItvXnwtg2nFJbysIrpoy12ZBDKLSV4qYEnAs15pzgUQawMvW7jB5fgImJbUApnJHc9fsAIfhEt6AXXrb1zvTwg2dbDzWZpCn2qiaBxDag9kvR1/bI805x4zKBDdgeu+RYWFVBtx2boYD9fmLCt/bsrimjiZBIpTr0dYnXc7v7FNVHf0ulb0XZa6E8eaQM30o1bZckknnAkUx6a7XLikE30RqBnZ5jiUaqlB9JUrl3RiIAIx5mMuWn8jaUf+04tV2Zp4UofB9827fr1ud0R723SI46ETc2dMoyPcC7RQrsApZpvUbJhVw5Fo48sIdAEX8CzH7eBCHJTWbpNUVRdnvsWXZ6IMhPqwq+1WxumOojl9iO0hQ4zhnYKOdRX6WYL28CiVpCEOE9DrEjnBmUDctVCEd50+YFZbP8XobgXeELHNae14p3O3rLhzkA7LEiXAMJ0YhcwKvAO8SSYhCP/hbipJDH2k5ZmbBZwI1Ny1DHxOhnrRYg+57acweHMsPqwXp+Y/5hoGkZakycBdV2uV2O+2hfUibZ6kVuf5oqWJXXK23dFMp71p/NwH6IavSZpADgNO4e/cJU38/R/Z3sS37iB+knVxGq5pe27FG1tmItgCTartObu4aSLpJvtdzaqDuFiiMB+P6gSd6/ZphhujX6N4J87oWbRg/+rdknakyU0rxalZax8Cteag6MnpIwhXcHcvpLK6VtclasB7zV3S5Kbx7YXyO9E72bHmIP4sEC7w115rAFXG8OMNUE9O97IRz9MLnhsF1fDF2oR04PBFZe37WMD+wCLV/klzz9j6EKfVGpQF1KE51KFpjnluBPc8Yd4YMO4miqmhixIwVj6haoPcCBQN97RhEqLERHCQ5MhBgNQWi9SPI+VuyZdAOrjMIknmaUXe/kOdx+PxeDwez/8Tpf4F0Xh2MEdCsK8AAAAASUVORK5CYII='
p42
sS'andr'
p43
S'data:image/png;base64,iVBORw0KGgoAAAANSUhEUgAAAEgAAABECAMAAAAV8YMOAAAABGdBTUEAALGPC/xhBQAAAAFzUkdCAK7OHOkAAAI9UExURUxpcddZi9dZi9dZi9dZi9dZi9dZi9dZi9dZi9dZi9dZi9dZi9dZi9dZi9dZi9dZi9dZi9dZi9dZi9dZi9dZi9dZi9dZi9dZi9dZi9dZi9dZi9dZi9dZi9dZi9dZi9dZi9dZi9dZi9dZi9dZi9dZi9dZi9dZi9dZi9dZi9dZi9dZi9dZi9dZi9dZi9dZi9dZi9dZi9dZi9dZi9dZi9dZi9dZi9dZi9dZi9dZi9dZi9dZi9dZi9dZi9dZi9dZi9dZi9dZi9dZi9dZi9dZi9dZi9dZi9dZi9dZi9dZi9dZi9dZi9dZi9dZi9dZi9dZi9dZi9dZi9dZi9dZi9dZi9dZi9dZi9dZi9dZi9dZi9dZi9dZi9dZi9dZi9dZi9dZi9dZi9dZi9dZi9dZi9dZi9dZi9dZi9dZi9dZi9dZi9dZi9dZi9dZi9dZi9dZi9dZi9dZi9dZi9dZi9dZi9dZi9dZi9dZi9dZi9dZi9dZi9dZi9dZi9dZi9dZi9dZi9dZi9dZi9dZi9dZi9dZi9dZi9dZi9dZi9dZi9dZi9dZi9dZi9dZi9dZi9dZi9dZi9dZi9dZi9dZi9dZi9dZi9dZi9dZi9dZi9dZi9dZi9dZi9dZi9dZi9dZi9dZi9dZi9dZi9dZi9dZi9dZi9dZi9dZi9dZi9dZi9dZi9dZi9dZi9dZi9dZi9dZi9dZi9dZi9dZi9dZi9dZi9dZi9dZi9dZi9dZi9dZi9dZi9dZi9dZi9dZi9dZi9dZi9dZi9dZi9dZi+nyEHEAAAC+dFJOUwAbB/rk/AMCAf79BQwhH/cKQAQG5uIy+wgkixDjRRYcMNjV3VrQJ9zxLCjvD8y2aNk2lg1ObJ1t8ql03ljwoaMdKrxCjaARjiCmSc8vzVuF1zNeXMbKqz6+n8gt9pmeIm+yZdY3X/T4zug0ZuE5wLoJl24LxGrBV36xaVM8KeXqy0/fxUSRv2KGyVJ2uZrnI3BRE+uJ0fWT4Le9pXlnY4OHtKSKwqJ4uJsS+bUm03GVkpzuFUizhCs17a8UPUF0UVuxAAAEaElEQVRYw7VY90MaMRRmeixBEAShyhBEsHXWPYuiddS2dm9rtVVrh13aWrv33nvvvffI31YulyMcdydQzvyUvLz7Lnnjy0tEohgtpe/+7ocPihWiJJukLEcJgLLoXnpyOIrePABb3oLkgDLXAdQ82qSA7qpoIHN3MjiG2yDcGlLi/kytjpZMn4GBZkxn6XM7ILunoX5nI1OmnYeB5kUZqXFn/aN32Rw4i+UASBdlMQLGMQ0DTXMw3Jm1SAqAfDEbqVAK1b36SOF8GQaSZUTO6L1QKC1kBfAqpL9wTYR0Vg0GysmNmFizEElXRbtAYUUzqnINltpdGMhlx3JNOR0WVlbuzKxEU7oKgtNrB0rDYqJCh4SVM1k20qxWoknTEuzgAgx0Bjt7iQnJlKs1bLelrqWXu1Qc/vV1DFQftoZ4KW2GtalcgSQuQQuWN0to2QUMNJe2hqRZjoxQIuaO7O3bkLfz3LSoXRcGOk7L3IgQZNu28+UIkbWcMtS6FbT/D9E4144g0QqKEJTLs4jJaGPZSqhW1UKNS3fRQM7zlKSlCg5XLsucPHE1ZTArNlSj3x2lgQoopxHVG2C+lGlicmLTE3J7MpQqtXLa1ig1oBl3NMXD4Y3v14d0N1Me8aGQkVKRJ94c6q8viZMt0zbmhGKgdSvs36SAavzkaGtraIE5G9PiprhNW+Qgvxaa6Q7lxwLyY6I2H8i3bEqEY8XWOuCBYTvfCJ1dDYPfA+qs4gTPM7erBvKGpZwEMkIyyq1xuSUJE/+EnnL4XnJJL+D36fqJ2MRvm51R3Km9JGGdFYY9w/m//CwilFzSdhZnzLYxD4zU3rY5RbJzJqcncPb0wU4bI0qITF8pI9JsnQdPnw14nKZzsqI5bb2YAQzuDhXOciA1HR7pduDI/f3jryPscI2je+SwSRqhrupwG9Bk12UQ3VT7AmN9FmiX0V0/zcYqaGxL31hgn4qlfLkL7esq4GyDT/VqkaL/ExwM+EVq/dNBbs2r1O4WmAFPG6ww2AdQ/1t6xSCfnhmWKsQJwNtkb/bSzBYYkvHrnSCTgLjCr1Dp+PMKdZ805fHrXYHZ1M+7NfC65Y0XdR99/sqrZu6njD3APa00Br+LDM1U0laOi2YFjUpuzQEUSqf2c/xk+PmzIdL/9ipyc/ljob5l6NnzYY7l7z9Fh/vFk5ERBnTeW4/HfXQMvuz/+PrDF5Srab7xx7e8ukht6cmLOK3sXcFQihhvODuOtVkL2/0M5iImhl4yeM/fXmhtO9bhvGEMpUiwy85MTTJpfVqbRU1wJO3u6KQl1Bab1kcmrSF2QZubEk0jKbmZiRfq7rdONrE53yZKbEJRrUDkL9RxpC0R5IBUNO0AQhzZQhURApU14ULLNVmh5YpZaIVLv7rRyUq/0TpEnz2lPEGYcDE6whmcQpXHghXsQl0h/vdS06qYqmuWYBc/4a6i5OU4uCexy3FDTzZ31WZI8LqunuoHhCl80hDukUWwZx/BHqLifxr7B/bgN4pCiE4iAAAAAElFTkSuQmCC'
p44
sb.