ccopy_reg
_reconstructor
p0
(cemoji
Emoji
p1
c__builtin__
object
p2
Ntp3
Rp4
(dp5
S'emojipedia_url'
p6
Vhttp://emojipedia.org/squared-katakana-koko/
p7
sS'index'
p8
V1243
p9
sS'code'
p10
VU+1F201
p11
sS'apple'
p12
S'data:image/png;base64,iVBORw0KGgoAAAANSUhEUgAAAEAAAABACAMAAACdt4HsAAAC+lBMVEUAAAA0R1w4TWwAAAA6Tm42S2Q2SGEAAAAAAAE1R2E5T3E3TGc9VHwzRVkAAAAXFy4AAAA8Ung9U3wcKDEAAAMAAAAuP1I0Rlw0Rmc1RGE4TGswQ1QsPE0mNUMxRFUfKjk1SWA7UXQnN0kjLjo0RF0vP1UjMT8UHCQXGyM8Uno0Rmk4TXQzR2cvQWQzR2A3TGw6UHI1SGg6UHIyRWFDWXo1SWc7UXL///9efp5ggaBjhaRegJ9khaZfgaBcfZxff55qkLFZepZNaIf1+PlrkLKCo8FskbRtkbJtkrWBob+Rrspvj61Pe6Bkh6eFpcR/n745X4Rni6vz9vhpjq5oja3f5+5ggqRrkLNuk7ZmiqpmiahnjbCDpMRjhKZliKhkiaqIqMdbfJrb5Ox/oMBuk7hihqaGpsVoi65igqOJp8Vtk7ePrcqWs86Gp8VMZ4WUss+TsMxPa4pQbYxdfp1WdpNFXXt2mbtzl7p4m7tfiKtIdJpoiqnN2ub1+PpKZYFYeZ1JY4BZe5g9U2xmiqxhiK17nLxrjazX4Og5XoNpj7GMqsb4+vxZeJdBWHJef55xlbd1l7lvlLdtkbVScI5ScY/X4ObH1N/9/v46XoOAnbZJaIrQ3OhmhKBXgaRVc5ZWc5dUc5BHYX51mLijvthZe59RbpFTcZSlwNpegKOvxt1li7BmjbLm7PPe5/Cgu9aZttGat9KLqsmXtNFWdZpoj7SNrMmowttafaOduNOivdfC0+Reg6dqkreKqciGpcRPaoyQr8ypw9tkia1qkrZHX4Zae53b5O92nL/S3+ysxdzp7/Ruk7Tg6fCgutV8nr6Rr8ykvtlLZIbu8vfU4O1ce5+BosGnwdtqj7D3+ftqkLWmwtpkiKmFpcPz9fhRb5OMqsifutakv9nL2OWlv9lnkLVPao/6+/309vlhhahFXX+4zeGrwNanwtphg6WmwdududR7nb1wk7VihaTc5vDq7/R2lLCKpsKduNRkhqVihKNhgqGhvdd6lq9TcJXOJQIlAAAAN3RSTlMAz88Jyc/PJh7Rz8/P0BAEGs/PTichwON5GsXKtovUWdHPjnLNtmw/QMY6q1krMrfUsN1R+6fJBUZ2WQAABQdJREFUeF7czjWPG1EYhtEUW1qy7GrszqVxOX94mJnNzLzMzBgmKSnG8ViOxzttTvlJ73Pvu/9LAlgPLryfYyG4DiT+OV8NrvUyMIL8coQgcKa3FlydmgeWb+ASZua3Gi+OGlt5EyvBN8uByX18KTPcIzfuTstU/aODOlU+vdsg94aZpfjE+yvwA9E2ri4PqCb9wQHdpA4ur4w28QCv2P+weHFNyvXt6m0tp9zvOrhXcrXb6nZdJq8vFsf7WBEj+T6Nn6CKkptDUdATnO7zJFaMjfbekEhU6EEX3XwjtDugK4QY8lqBSNE8x8s6+vhmqF7Gz81ixAoAh/lKtQaeuQDWqpX8IWAFoiKRNRjQFcbIEmLUCoQhicOZH64wOCdBYSvgUZMayLgEaknVMw4I+rFLumAPFDqtLy61OoW/Ab9akDXuj6cps6+aXFD9VsCn7vAcy7Jc+nk/bbefFrgZV5bjd1TfKABJKVYQhOznn1+/vdp8/3Q06yqwKQmyBX7TSTY/TcNxHBYSOMDJP4G/giBgFpilTLv5ozXrW7rGgWNtlxVI2rlhdkAigwPbEqPxBRIjXPA2OSpGjzPsZEqyjSUe2HXu4IGTv7b0xbV9jp88eb6XLy9ls1n+7eQAe9+C1qzEuwLFk4wkyzK/Oag+izQCVlnKnBStwESRYeVGo5H57VFFMWBtyCxTnHACyYgoiqzn1vzpacAqRpKuQI1ROhB28+rC4ZWu7n7xX6GtMDUrMFZjBLbD87wkRWx2P+lqOmjtsAJTG7MDBKlG0+l0qxW1Of+pq3+fBKxRlSScwCGoLqtJ+CIuerrabbFw8K6tpLpcBYdWYPgAoBWhoiTvucg90tXFX3DwrDEF6ig4GLYCxxRCCgIpqNuxRQvFVOHgxggsVX5AG6GOnUAzjJIkiaIouV/O9WI6H8zAecxNr24E0CqUw01XACshqAmCILCilhVD7W7fkMspZXWfRJ8/1gP1OBRLmBO4xDTERVznqakif+r1Ogo3A8QMLMShpWGXVmD8aAUPhQcwA6FS0BrCV47G7UCfCA1iqG2NCVyJvh0YWV8Fms6CC1PFmaBVA6vrI64AjuPa93z+gU3+haGm/Feo/xe4LhAEgb9/92bn4Q07r1/qKrHlv0K9cG0HRs+maJBKUYmryQHaYCvhu6ZSgJ46G7UCa7McACAB2h6VSvivUOdm15zANFagqCblozb9V4oqYNN2YGhuY4amaYxe8qgc5r9CfWZjbsgO3L3DcRx2v30xb9PV1b0C5r9C/V8nc8+bIBCAcfwahsOBlwSEwbfG948gWq+ha+OoWweGJk4kwN3UxACDXYBF06Sbbv06/SAdm6hTMaFgSa1cf+OTPP8hygIm2k9iT6+f96nly3Q6fV4+nlknkz0ys4Ax393E3mYfmdnR+XU3N3KBvIejM2suwC28w5DawVtwaUDX9tQ0PQ1U3OA/gcCtJIEqwQPtQEkbYFJNArVwjcYapTFahbUkIPmWMRpTGhmWLyUBtu5iNKKEsFtnkwDf8i3diW4pRI5u+S0+CTCyQlaGEw0KixxjRRSZAQm2p27XHnKK/h3krbdqjwXfeCipxMYeKsjDNlElyIOUCPtKuLA3ONAvCvDGXoRKH4ogI5Qh7HI+cd/NuwvMd5f4XBfCsgBOMHFBbjQ77dJ16U/XpXan2ZDjPwN+EERIRRRAHsPCwlgG/IbhRbYAkT+9fwGYyW2lOFWlJgAAAABJRU5ErkJggg=='
p13
sS'twit'
p14
S'data:image/png;base64,iVBORw0KGgoAAAANSUhEUgAAAEgAAABICAMAAABiM0N1AAAARVBMVEUAAAA7iMM7iMM7iMM7iMM7iMM7iMM7iMNUl8vn8Pj////z+PtsptLO4fCdxOG20umFtdpgns6RvN1Hj8fC2uypy+Xa6fSZV+70AAAAB3RSTlMAYL8AIM/vi50ITwAAANFJREFUeF7t2EluhEAMhtEa+Wtm6E7uf9SABFE25ULCWbW/AzwvkLDK6kgbPMhou6esdR4P8+6A3ITHTW6HPBjyVmmwpJUBS0aBKYEEYkgggUJMvfK7YG/JqVecwy/UEtUCoCaivN6DUhhAqV7QmkloA7ZE9qK/2jWiods5ogwhzCMIN6EmkEACCSTQP/9qX3EElb/QXDvFcx2ttVe+Nh/UgdKF0QaNuAV9YQSVE8I3Na0BKJlgapEnxEdDAgnEd2TRYElzHaLYTmOcx7o9jvPhDxKnl0w75mbKAAAAAElFTkSuQmCC'
p15
sS'gmail'
p16
S'data:image/png;base64,R0lGODlhDwAPAKIFACoA//+/AP////+fAP//Vf///wAAAAAAACH/C05FVFNDQVBFMi4wAwEAAAAh+QQJFAAFACwAAAAADwAPAAADOFi63P4ryElnCSTrrQf4YBh6Qll+5umFggi0Aya9AEWvYCvCb4r6OJcoRqgYA4PCYMlsMiHQKCMBACH5BAkUAAUALAAAAAAPAA8AAAM3WLrc/jCWQKutk+jN9wBgKIqfYJrgiX6iMALuEBAUDFg2G7pjDKspoO41ktEuyEFhwGw6mxJHAgAh+QQJFAAFACwAAAAADwAPAAADOFi63P4ryElnCSTrrQf4YBh6Qll+5umFggi0Aya9AEWvYCvCb4r6OJcoRqgYA4PCYMlsMiHQKCMBACH5BAkUAAUALAAAAAAPAA8AAAM3WLrcFTDK+Ii9+A7Au/ebIIrcSG6e8AHqEBAQC0gy2qlfy5olb68fF2xCHBQGyKQy6Wg6n1BHAgAh+QQFFAAFACwAAAAADwAPAAADOFi63P4ryElnCSTrrQf4YBh6Qll+5umFggi0Aya9AEWvYCvCb4r6OJcoRqgYA4PCYMlsMiHQKCMBADs='
p17
sS'related_to'
p18
(lp19
V\U0001f64b Happy Person Raising One Hand
p20
aV\U0001f1ef\U0001f1f5 Japan Flag
p21
asS'name'
p22
Vsquared katakana koko
p23
sS'known_as'
p24
(lp25
V\U0001f201 Here Emoji
p26
aV\U0001f201 Destination Emoji
p27
asS'default'
p28
Vemoji
p29
sS'bw'
p30
S'data:image/png;base64,iVBORw0KGgoAAAANSUhEUgAAAJAAAACQCAYAAADnRuK4AAADSElEQVR42u3cIVMqURiA4Q1EgsFAMBgMBIORSDAaCASjwWAwGmhGgsFAMBj4AQai0WA0GogGg4FoMJ47nxnG9S7usIfnnfmas8DZZ5azMytFkipUWAIBJIAEkACSABJAAkgASQAJIAEkgCSABJAAEkASQAJIAAkgASQBJIAEkACS1gvo6+sr3d3dpZOTk3RwcJD29/dNJtPtdtPp6Wl6fHz8G0BPT09pb28vFUVhMp/j4+O0WCzWB+j5+Tm1222Lu0VzdHSUPj8/qwOKr624vFnU7ZvLy8vqgCaTicXc4nl9fa0GKDbMP71Ip9NJh4eHNqMNmrL72fF4XA1Q3G2tOvjZ2Vl6e3tzH9vgYn8b57HVaq08x5UAhdZlBx4MBlY/o25ubuoFNJ/PrXpGxc1SbEVqARTfn8qv4XBYD6DYWCu/4ra9FkCj0chqZ9j19XU9gOKFBBBAAkgACSABBBBAAAkgASSAKgOKF27qrHoeeDabNfYzxXtvFKAmP4W36hmnZQvclClzzgACCCCAAAIIIIAAAggggAACCCCAAAIIIIAAAggggAAq92b6/f5GTK/XWxug6XS6MZ9r2X+RZgVoUwoM6wK0ScWJBQgggAACCCCAAAIIIIAAAggggAACCCCAAAIIIIAAAggggAACCCCAAAIIIIAAAggggAACCCCAAAIIIIAAAggggAACCCCAAAIIIIAAAggggAACCCCAAAIIIL9Q5hfKAAIIIIAAAggggAACCCCAAAIIIIAAAggggAACCCCAAAIIoDUAihdu6iwWi6WfaTabNfYzxXv3OIf+NIAEkAASQAABBJAAEkACCCCAANLmALq4uLDaAP0/oMFgYLUz7Pz8vB5A3W7XamdYv9+vB1DMw8ODFc+o+XyeWq3W+gH1er2Vz5jEweN7czKZpOl0aho29/f33+fv6uoq7e7uLj3Ho9GoGqA4eJMfDjPVJq5MlQDF03nLLm0m/4k9UZmKn/7g9vbWgm7Z7OzslLr6lAIUjcdjV6ItmU6nk15eXkpvwIuyfxgHHQ6Hqd1uW+hM4cSe9+Pj41d3cMX/3Pa9v79/749MHvNbNJUBSQAJIAEkgASQBJAAEkACSAJIAAkgASQBpL/qH6BHYG9cFmXjAAAAAElFTkSuQmCC'
p31
sS'version'
p32
VV6.0\u02b2
p33
sS'uni'
p34
V\U0001f201
p35
sS'desc'
p36
V\U0001f201 Means \u201cHere\u201d in Japanese, referring to a destination. 
p37
sS'browser'
p38
V\U0001f201
p39
sS'annotations'
p40
(lp41
Vjapanese
p42
aVsymbol
p43
aVword
p44
asS'wind'
p45
S'data:image/png;base64,iVBORw0KGgoAAAANSUhEUgAAAEgAAABICAYAAABV7bNHAAAAAXNSR0IArs4c6QAAAARnQU1BAACxjwv8YQUAAAEXSURBVHhe7djBSQNBFIDhN5ZiC1rB2kOSm5ZgK3YQb4k9JBVoC14FT3YwrvhyCVn+XRiyLPwfLJt3mBB+yMBMSJIkSZKkhSn5Hm9/fIsatzktS4nPWHernEaZHmh3fO9X3eW0LDU+YtPd5zTKTb41wEDAQMBAwEDAQMBAwEDAQMBAwEDAQKDdYXXdTf+uk91hG6U85tQfKutrbB6ecppu6Dd6WG3PQMBAYJ4Ls/M95nwPmu653wNf8rN70DUZCBgIGAgYCBgIGAgYCBgIGAgYCLQL9HfOGftE+c5Vl9X6dXHd0BPx87+wPS/MgH8xYCBgIDDPhdlc3IPaMxAwEDAQMBAwEDAQMBAwEDAQMBAwkCRJkqTmIn4Bu1Nmo2X2QjQAAAAASUVORK5CYII='
p46
sS'andr'
p47
S'data:image/png;base64,iVBORw0KGgoAAAANSUhEUgAAAEgAAABECAMAAAAV8YMOAAAABGdBTUEAALGPC/xhBQAAAAFzUkdCAK7OHOkAAAFoUExURUxpcfzCG/zCG/zCG/zCG/zCG/zCG/zCG/zCG/zCG/zCG/zCG/zCG/zCG/zCG/zCGy8vL/zCG/7DGy0uLywtLyssLy4uL/nAG+ezHf/EG//FGy0tL21bKVNILINrJ6eFI/3DGzg1Lr+WIUI8LWBSKldMK+ayHeKwHu+4HC4vL5p8JTY0LrmSIv3CG1JILGxbKYJrJzc1LjMyL/7EG6aFIyorMJp7JTEwL+KvHsCXIUA7LUE8LeizHbmSIc+iHyosLzQzLriRInRgKM+hH5t8JXJfKIduJsecIJl7JcOZIfrAG6mGIzg2Luu2HbqSIve+G0lCLfe+HOWyHSwsL1RKK+i0Hfa+HK6KI1NJLFFHLLaPIrCLIlpNK1hMK/G6HPC5HOOwHdanH+m0HUtDLOSxHX9pJ+eyHVVKK3plKMmdIN6sHum1HdioH+q1HUQ+LfO7HF1QKlpOK6iGI86hH8WaIDUzLrmRIsidIHhHpqYAAAAQdFJOUwCVFMv4dw/htAhdAaQGtQkhbPNpAAABjUlEQVRYw+3Y10/CUBQG8DJlY1ugFFTqQlELAoKL6d577733/PetRuglnJsG2wcf7vf6Jb/kJG3v7aEoitKbDHUqYjDpqZ+YdUZaVYw687djt6l0JMlmlyCng1Ydh1OC3C71kMstQVaLeshiJRCBtIcEBoiAbRgctLjur074nqNp7vYCqPwbMMRk16KNVYk+fyaTr09Qs7UJQ2LaywLx9gX4YiEINb0cPFoXWw/EI0E93RGgCdYIhbBQE4H+ConpVZ+cCqhYYIEGBzELS8OtpQwlECiZu4Qa7GjLKwMdvznLRVkZorlMuTk63vMoQbT8OvKZdhRCXlr+sE0ZksOEKyE5QieBCEQgAuEggS8ncLIfRCGkOVCEhPnpllIGd099CPR4LTc726wSNDvXXE68H/34vz3EgQY72pRHPioiFafIxzvUkCP7H0M139jEsZQXSP4lwGcTeaBJTczAD+ToSKyhKrGrO0a4OYea8UkRHk2Er/Ui9sIvkr8jApUgzVYami1ZNFv7aLaI0mg19gVgkWIiKUFcHgAAAABJRU5ErkJggg=='
p48
sb.