ccopy_reg
_reconstructor
p0
(cemoji
Emoji
p1
c__builtin__
object
p2
Ntp3
Rp4
(dp5
S'emojipedia_url'
p6
Vhttp://emojipedia.org/white-medium-square/
p7
sS'index'
p8
V1262
p9
sS'code'
p10
VU+25FB
p11
sS'apple'
p12
S'data:image/png;base64,iVBORw0KGgoAAAANSUhEUgAAAEAAAABACAAAAACPAi4CAAAAAnRSTlMAAHaTzTgAAAK7SURBVHgB7ZZBjuY0FIS/cmbYsOFwnIQlB2DJJdhyNFiNkHo6v9+HhCzFtvI308OGxZTTUrpfXqWqnuUOfEMAfuXr8BPwAQAoFsgOCAsacBF8/P7J4wHvKf86J4L+w48mSUhCSNgB4riUyu9/HpOC8+VI0kgSrkUAx+XoRkv7OVsIr0cbEq7WiwBnDkqrk4vAUQciO+SSAEgxDE0WQINg8w0ChgR0G0Z3FKhCR1obUGvUsLNbqACQIhIIEKYUwYhI4W5BDd4Y4OoGFQpQZwtilZaU7tqH6gEsKK2SRUEVjZAwqw8ALj+iUsWSQQEFoz/BBEwAZJkDClCyKLBCNEiECBAAkF3HlgFgqVXD8gDuGI/pauHmPZkE4FQXxMAyhY6qoHL77rkweLqLBWtq5aZ1K20WHueHIV1uILsVzgfrFM7vkCAXS3zGEM5FQQde+dj4MoQ6X4E+K6A96vjQsp2HA4YL1qNXq3UfCI3++eXsQp4eyMF+vnzuNBBWBSHQe3LkIG1uE6GkWyUJhnUKnTa0BDqdFmhHYIy4g4WQCEQa/bhRQAghEnwQAIFgDhARNgWjPySQZRHmwxDHgrSNgDTCYMlozyBAQREHhWHZB5KEJJBmgwyOgIxGoYAYIcEO0C4L/6CFkCcgaS0Dm4XkuhliZmTb01e9ASh5N9DLQu26Af7t97oU7OVhdUZb/9L2DCAhs/mMNeAWxZ6BbaXfsRfalgF3et82sVgozDa7bBbAZaKJ1J2Cdvv2vRqSTAoYCrY8LwWbihAjyxjfTO9uxI1JgR0Y1MkzBZsM+rEpeCeA/wXBmIJm2srhHnMhUZ7tRHKPrXBzoHzpPgDWDHoJeRfA6v8hRLYQQYsrSBLWUxlF5m/gjaAVZDQ9/ccyrWoLQfv02zYmwgr3209tIsj5B+/F/C3xM1+HXwD4hr8BPV5Sa4iADq0AAAAASUVORK5CYII='
p13
sS'twit'
p14
S'data:image/png;base64,iVBORw0KGgoAAAANSUhEUgAAAEgAAABIBAMAAACnw650AAAAFVBMVEUAAADm5+jm5+jm5+jm5+jm5+jm5+g8dULQAAAAB3RSTlMAIJ/v/wAwF8MKgAAAAFpJREFUeAFjGP5AyMQFB3BWDAUCBiAOQ6jBVJUKVSTsggcYQhWp4FPkBFVkgk+RM1SRC14wqmhU0aiiUUWjikYVjSqCAhKqV8IVNeEqn5TGQyjhZggBMKQVAQCZTZr57r3B/QAAAABJRU5ErkJggg=='
p15
sS'gmail'
p16
S'data:image/png;base64,R0lGODlhDwAPALMAAP9mAMgAAOZZAOYzAP+ZAP+oAP/UAP9eAP9uAP7MAOUtAP/QAMcAANkaAP9lAP9VACH5BAAAAAAALAAAAAAPAA8AAARIMC1DqzVJrEK6/4UQGMRznCjqKAx5AHAcI8NIvLJM23gO7y7frBYUAoA345GYNCJ7vqcSWDgirlhsLaMYeL/gRkDECJjPaHMEADs='
p17
sS'related_to'
p18
(lp19
sS'name'
p20
Vwhite medium square
p21
sS'known_as'
p22
(lp23
sS'default'
p24
Vtext*
p25
sS'bw'
p26
S'data:image/png;base64,iVBORw0KGgoAAAANSUhEUgAAAJAAAACQCAYAAADnRuK4AAABm0lEQVR42u3S0QnEIBBF0SnAIizKAux8CrAIF38D+QoJi54LU8AbTkzpQeEFAkgACSABJAEkgASQAJIAEkACSABJAAkgASSAJIAEkAASQAJIAkgACSABJAEkgASQAPqw3vuMCHe59ReAAAIIIIAAAggggAACCKDvALXWZmZuf2snQC8A+tcHnr4fIPsBAggggAACCCAPtB8ggAACCCCAAPJA+wECCCCAAAIIIA+0HyCAAAIIIIAA8kD7AQIIIIAAAggggADyQPsBAggggAACCCAPtB8ggAACCCCAAPJA+wECCCCAAAIIIA+0HyCAAAIIIIAAAgggD7QfIIAAAggggADyQPsBAggggAACCCAPtB8ggAACCCCAAPJA+wECCCCAAAIIIA+0HyD7DwFUSpm11u1v7QToBUCnH0AAAQQQQAABBBBAAN02xpiZ6S63/gKQtgsgASSABJAAkgASQAJIAEkACSABJIAkgASQABJAEkACSAAJIAEkASSABJAAkgASQAJIAEkACSABJIAkgASQABJAAkgCSAAJIJ3WDwHMZvl51K2pAAAAAElFTkSuQmCC'
p27
sS'version'
p28
VV3.2\u02b2
p29
sS'uni'
p30
V\u25fb
p31
sS'desc'
p32
V\u25fb 
p33
sS'browser'
p34
V\u25fb\ufe0f
p35
sS'annotations'
p36
(lp37
Vgeometric
p38
aVsign
p39
aVsquare
p40
aVsymbol
p41
asS'wind'
p42
S'data:image/png;base64,iVBORw0KGgoAAAANSUhEUgAAAEgAAABICAYAAABV7bNHAAAAAXNSR0IArs4c6QAAAARnQU1BAACxjwv8YQUAAADISURBVHhe7dqxbcJgFIVRwwQMgBgBtsgETAB7MRFN0qalzgrwzO+CFNFtbNki50hXvA7pE3JjOgAAAAAAAN7Bavgcy7b20c7ZXGtf7Vyefe0+80610ayHT/4gUDB1oEOtf85Nvcn4BQUCBQIFAgUCBQIFAgUCBQIFAgUCBQIFAgUCBQIFAgUCBQIFAgUCBQIFAgUCBQIFY79069/Nf7bz6Vj7buekXr/zXLu0c3n8eeG/ESgY+xm0qe3aOZuf2q2dAAAAAPzSdQ/9CElmhN+Q4QAAAABJRU5ErkJggg=='
p43
sS'andr'
p44
S'data:image/png;base64,iVBORw0KGgoAAAANSUhEUgAAAEgAAABECAMAAAAV8YMOAAAABGdBTUEAALGPC/xhBQAAAAFzUkdCAK7OHOkAAAAhUExURUxpce1sMO1sMO1sMO1sMO1sMO1sMO1sMO1sMO1sMO1sMGvZ9q8AAAAKdFJOUwAzQPDp6jA6DdsHqGSJAAAATElEQVRYw+3XsRUAIAgDUVEUdf+B7S14KSjvBvh10hoRye3ocrETaJ0hd1YC2bxy0zLIdciBgICAgICAgICAgDSoarCXXYiyU0NEXw/QPEitCYslQAAAAABJRU5ErkJggg=='
p45
sb.