ccopy_reg
_reconstructor
p0
(cemoji
Emoji
p1
c__builtin__
object
p2
Ntp3
Rp4
(dp5
S'emojipedia_url'
p6
Vhttp://emojipedia.org/large-blue-diamond/
p7
sS'index'
p8
V1269
p9
sS'code'
p10
VU+1F537
p11
sS'apple'
p12
S'data:image/png;base64,iVBORw0KGgoAAAANSUhEUgAAAEAAAABACAMAAACdt4HsAAADAFBMVEUAAAACNd0CK60PPq8ASOYATecAKq////////8KNK4BNtwAQeYAOOUAT+gFQbEASOcAPbUANq4YTrIrWLUAOeAEQOUCTOgABrkAMLQANbcAM9wAINQAUegAQN8AQN8AK94AL+ACJM4MR7cJRbcZULgALaoxXrMsXLosXLoAPd4AH9cAHdUAO94AB7kLPN0ACrcAMrseU7cAM7IlV7g9ZLhhfbZeerdZdrNhebZcebVznvGJrfQ3iP1nlvE5iv42hv0udvswevx7o/Fdj/OBp/Jkk+9fkO01gv1llvl2oPG5zfUAQeqpw/a+0fYkbPl9pfJql/DG1/aOsPMtffsWX/V4ofGRs/QPV/Q2gP43g/7M2/c0ef1xnPBznvMEUe+VtfUtc/uFq/OZuPUSYvU4hf5yn/mDqfImefkjb/k1hP0OXPM0fv0pbvpgk/l/pvOkwPacuvU5if42fv4wgPspd/ptmvCMr/QhaPisxfegvfWwyPczgPwcbPd5pf4ZYvcbafd0ov0DVu9ilv8db/cocvoBSu8kdPk9gP4xeP1ik/NZi/GIq/Hl7Pt0ov9qmfIeZfVTifZbjO4XU8aYtu9wl+ACQ8GIqOW0y/fh6fl/pvBckPgwa+BRhvFumOpolOxCddZ8ouqhvPCwx/IqYMczZsjT4PjY4/nd5vmpwe8VUL5+oOJCb8dWjv4yfP1sm/lvm/JomfoTZ/UzatQyg/xljd1jk/UOTccrevoEWe81fP8mYdMgWsYldvkVavUJX/BMd8wANOQRVulgjeQBQLpZht0fc/d2neiQsOwNS8J3o/0GXO8eVb88bs+Tr+ObtOWhuOcyYr53oPNKhv0AJcsAE8AOT9RUhugEM9YKRNsdYu5Qftc8asRPdMBrmfYMSLsnW747Z74AO78AOro2f/+yxewZZvc6h/84g/9woP40ev9+qP9rnP1wnPY8j/86i/83gf9NfdtKfeM5hv87jP9Hhv88jf9Hh/9Liv9FhP8LPdwRTeIAI8YJR8dTg+FLge2lvOrl3A+aAAAAOnRSTlMASTIn5ORrAgMdQePk8Wvw22trazH0/Uzay1hW/lk74/jkyubcEw3J31fuxV7Z5Mje1u3q3NvWNhVrmQwIGgAABWBJREFUeF7tlGV0FFcARrcJkg0Ea7GWtlAope627q5Rd3d3d3d3F9zd3d2t7u5u38xCKEkYsuFfT++f2fPm3PvevjcztP+h0cyohYVv3E2nDrz+2qtv3kuA/sq1a+/cTx0YT+GbLrp6/MTSU1SF8VQB0yeWnqyv/2An1jCqAH0R/OLiYsoCAhTzn+grdnQsru/feWqa8YGFL1893lvvqFDr6/v+RsHYgMmL3bU9ffo6haJO39d7cunb04wL0Bd01zr2quMT6+oSE9W9PSeOoWBEwGRB1xJ9j0IVnwjiVYoex+PHjk4aecD0sa5qtWNieFiYKj5epQpLSHTU13ajMMIAff7WaoU+3jM8ISGM0BPCPVV69ZLuxZNGFMD8W9d1qsNs3cgCfARsE9SKJV0ojCDw+Pyj6/rrEmJtUfAMD4ft6eZmaxmu6Kzuemvq3QMmUyr3dXRW+TKZlkigQei2sUwPt87+6q0o3CVAn1J5parfUiDyYMZakgnolpZMpofIUtWxDgXKAOZffOVgR5FcG+rrwSQT0GOhe/iGCoo6qogCVcB09qG22iqRM8NGGyoiE7GwSV2rtWE0VB3cV7l36h0DWP+htvaDDTpnuY0ABZGvr0cRswi6KFQrsJEznAW2td9U7h13pwDmP3agiCHWxTgz5DZoNDSg4SvSCgSEznDW6ZyL2m8rQDe7dX4v1aypbm+RsNkxKDCIgrZBJCJ8Gxu5nBETo2OLYxoOtG1AYZiAyayaNXsOtFZIsAKsgUigAXBhYPoYBHRiSWt7S9uG98YN/SbSZ9Vs2dciqagQi9lstg6LIBpyzA0ZwGaLxWJJhaRlzxoUBn+VTeD/2VrRXCEsKChgs0tLS1euXOni4nL6tAvA79JSdAsKhMJCSStZuD1An12z5VtJYXOhUChcv369THYdfAF8fHxwuQ5kMtwgAuWFkgtNG94lC9AN/gt/wBeWNzaGhITIZLJVq1atAD4rfAhwBRiTyUJAo1AovtB0HoUBTJ7//VLTX83ljVA/B5+A9PT0w4cPpwBc0gExiHvIhJSXNzedP3tu5kBg5rmLv10uKwt2d8o7s2zZssxMIlFSkvKZgZSUkpIS2JmZuHkmz4kXHFd2effFs8/SBpj36+5A67hgd15+vpPTpwY25+X9/NMPBL/k5UXeGHRyys/nuQdryqx3X5o381bA7LkZGdZpmmwisJkSMqCJSw10nX7fv59oswmugR8mZ/P4/OVBkZGR7w8LbgQtd+Lzsv3TvDImmw/6EIzJCEzzz+YhEGRvb//1MGAYAYO/yeIZOIMLXsn+0fzl8B0cHD4eAgbt7RGI9k/22jTjERhDCpu8knOjrZKkUgdvb+/vBoEhB6k0ib8xN2v1EYsnIdypwE9CAP5Ht4ECAvC3wZ/xAG14xh5ZnbVtY5Q0gMuKAF8NEEHA5UqjrLZlbd8xFvtPXVjLZXE48L6/ARIcDosVEGXlt3/7Dgv4FIXtWX5WUQGsCA70Hw2QiQgWdy3pjzWHQFnY72dFLIHUvwRkg3PTt3gYwsgKhoAhgX9g8OcMnB/lPvhtjMJGYhsMO0D8f6r5h55mVi52MoCFs+BwIiJYLC72jzi/OcOcH9UTFcD1BtwAaZIVef4U5zfkqU7zj7YKwiMFpNIgfnQunt/J5rSRQryb5JuFV+vm+5MxBr5RBU22O4+fn8/n8bI1adYZkx+EYFQhNU4T7A4M3w8l5jeukGOXWqYJBqQ/HfMbycQcO+vUOJBqbZejxPmNouBqZw3s7HIm4PxGU1C62gHXnOnwR1nIAcqJ8EfJo7uUSuXchyCMvrBrrjntXnj6Kcx/T9Bp/3n+ASgcPdsrAt9nAAAAAElFTkSuQmCC'
p13
sS'twit'
p14
S'data:image/png;base64,iVBORw0KGgoAAAANSUhEUgAAAEgAAABIBAMAAACnw650AAAAFVBMVEUAAABVrO5VrO5VrO5VrO5VrO5VrO67MPsPAAAABnRSTlMAgM8QAJ+N+GT2AAAA+UlEQVR4XqXWy01DMRAF0FtDRAMRiALQawA8tEABWbj/Eli8XY7EjcisrWPJnzuT/9XlesxdZe7qe+/Xuuhn79uBBCQVIakISUVIKkJSEZKKkFSEpCIkFSGpCElFSCpCUhGSipBUhKQiJBUhqQhJRUgqQlIRkoqQVISkIiQVIakISUVIKkJSWUBQk89d6yVffdHbQ4se227eATiDzEc/gsyS8jBPql2LlBd8UvWpSPnopHy+UECnBOWXkvJzQgGdkpSBIWX0SBliUH/E4erB2iO6h31vG70B9VbWm+IT7bU36t7y+/AABdQGmj4a9SHr+XFtXa4zSr1+AQpqQbR11bYhAAAAAElFTkSuQmCC'
p15
sS'gmail'
p16
S'data:image/png;base64,R0lGODlhDwAPALMPAGZm/wAAyWxs/xIS1VlZ+JCQ/2tr/2Rk/2Ji/zMz5Z2d/39//21t/2ho/5ub/wAAACH5BAEAAA8ALAAAAAAPAA8AAARB8Mn5Fr1ULYSvKgIAdJIDHuKImQKaqtPXvml80mLDVMuMG4RE4oHAiYCDwMSIVFJozU4qSgI0CEnShJFwaiVDTAQAOw=='
p17
sS'related_to'
p18
(lp19
V\U0001f48e Gem Stone
p20
aV\U0001f539 Small Blue Diamond
p21
aV\U0001f4a0 Diamond Shape With A Dot Inside
p22
asS'name'
p23
Vlarge blue diamond
p24
sS'known_as'
p25
(lp26
sS'default'
p27
Vemoji
p28
sS'bw'
p29
S'data:image/png;base64,iVBORw0KGgoAAAANSUhEUgAAAJAAAACQCAYAAADnRuK4AAANnElEQVR42u2dIbRNXRDHTxAEQRAEQRAEQRAEQRAEQRAEQRAEQRAEawmCIAiCIAiCIAiCIAiCIAiCIAiCIAiCINxv/d5aY80bs2fvc9/73j37nJm17uK9u9+5957zOzP/PXv23GGVlrYDG/IUpCVAaQlQWgKUlgClpSVAaQlQWgKUlgClpSVAaQlQWgKUlgAtz75+/br68+dPnogEaLx9/PhxdejQodXVq1cTogRoPXiGYdh63LhxI09KArQePBqi9EQJ0FrwyCPDWQIUCubDhw8X4UmIEqC1PY993Lx5M09aArQePPK4c+dO0rN0gGrwPHjwYHXq1KmEKAEaD8/9+/e3xv38+TOEiHC2ZE00JDy+59EGRMeOHQuFdQKU8Px9nDx5cvXjx4+/f/P8+fPVvn37wr+5fft2ApTw/AsR8Bw4cKDpb+7evZsALRWeJ0+erK5du7btd0ePHt3meQDpzZs3KayXBlANnkePHv0dayGSx/79+1evX79uEtZL8kSzB+jz58+rI0eOFC/2iRMntukd7Ny5c/+Me/z48bYxb9++zTzR3AFq1TxnzpxZ/fr1a+tvXrx4seVt7BjCGcsd2IcPH5qOuwSIhqXCg0i2Pz99+nQbPHbmhSdDK1lRHU3x5w7RsER4CEd4HC9Uac2DYC5pIq2f0ETHjx9fJETDEuER+/379+r06dMuPK9evaoKay2+0VERRHMV1sOS4PHKMQhbdgxQiSaS41pdhCbS4vvbt29bv1uaJhqWBI+FCMFcShIS3vBQ0XEl2chML9JBc4ZoWAI83qo6gGivwv9tOGN2Zo9rxwCRHcMCawTUnMLZsAR4ask/0Tx4pQsXLlSPFQlr8TA1TTQXTzTMGZ7Lly9vG1+aLUmGWYQ1nqfmNTh2rVKR0ObllOYEUbcAcXHGJvNevnzpXlBgENH87t271cGDB8MV+pLm0cnG2nLHXMLZ0Cs8kcawwpiQg2COSjIuXbpUhEdDxJhoaQSIWOawni46bs+eqDuAWjRPbQxeCG9ks9H2wRQ/0kRSuVhLNuLh5qqJhjnBI2Wo0Vi9qv79+/ciRCxZiCY6f/58NfyUINLhMXq9XsPZMBd49EUXA6iasCa0eYurOtnoiWFCFXBpgW7DFD8DjRboJRh79UTDXOCxEJVW1fWdjp4pHVeSjYjiUoYZGIAiEswivvFCNXh6hGjoHR5qka1ovn79+rbf8X8rfAHEHtcKc4S1/Z39mYSkDUt2DM97iUxqkXqHaOgZHknsoWlK3obfv3//PvQk4rlqU29grYUhRDeeKxLWZ8+erXquXiAaeoXHJu0ovbAQ4XmAR6y04MmMTGsZT+jeunXrry4qQXTlypVt2gkv58HDa0TaqSeIhh7hEYEKNGKUVnh5Hl1yAUzexcKzyIUvlcCK3pHZlOc5EN8yplRvpJONtWWRHmZnQ2/waEhkSg4k0QV4+PDhVhlqtD0Hj1br0AEQeLEon8MYAIuK1YDo06dPq4sXLxY/Wy8QDT3Bg04huadPNP/XP+NhGGOPY8MbUNlwZi8gF816GjuGxlM2nNkxgGI9jR0DlF++fAnzRFMMZ0MP8HCydY7HQqThwdNEa1p6qk+4KglruViR0JWpPmGrlLGWuqIoXBEyJazhvaLZ2dQ80dCD5+E5xmhjql7beoOXqe1jR0B7QlcbF3fdRKIWzJgX/lg704Ym60UTDVOHRx5oEzyGJAk9PaOXKaIkofZApUXZvfZAhC8MOHpKNg5ThseKTO7oe/fubfMGgGSFNUsYVgxb4LhQNnxZD8LU3cJjjwNEVjDb46CRbP2QPQ7vhdezv4tyV1OAaJgqPOIl7En1PA6hq7b1hteLZmG8DjOs2iwMjRLNwoAFr0UYjGZhhMVoCg+EeMipa6JhivDY/jzeidbhahN5IG+2ZPNAHkQteSA9GZDXm6onGqYGj9efxxO6eAp9ITjhtUx0qVGU3gNW2itm+/+wTlbLRJNbKi1j6Bllbb9+S3+iTUE0TA0eC1GpDFXuZsQnkJTCE3+LoK7tHkWYc/G9emh7kTx4rLCOQi/eDA/17NmzIhi99CcapqR5rDvHW+iTBwzc5XYGY8MSF9H29fFW2u0+eKs1uND2PVsIAc6GFzuGn60Y53dW/NtJQw/9iYYpwDO2P0801RXxXUo26saY0So+gBFqovYwwIOXiCoNAQVxXtJEAgZesvXzT6k/0bBpeFr78xBiasKaxKE2pvxeakDrFMKIHcPFqW1tBir9voHIhhp+ltyVCGtPg9nP1lN/omEKmqelPw+gcSdLktCbbusZTmmZwtZEl+7k3aqJ1nvxS55TTxp2sz/RXniiYRPwcILshWvpz0M4QFRqzeP18EF42zvd6g1ey4YdeyxCq80w2zHc6bbux47hebs8Ycf02p9o2ITnAYLW/jxeUZbdesNJqrXgxetEU2EyxdzZtX1hfLZoXxhjaqvqvAYzx6iycWx/ok1pomGv4dGr6i39eXD/3jZie6zStFlXEu7mzlQvPOIhZUwpg6yThKW9+Ov0J9pUeexGAZIMcq0/DxfV0wRaxHor5lwsWaSUC+ZdVJ1sLInYluy4LbNtEfGAshv9iRg/C4DGQIRHKIUVWcWO6np0f57SGhbvg+dLTRPsNDpKEsr79jLMNlwwIyx9NhHWXh33Ov2JanKgqxDWCpFN9rX257EQcBKtJrH5FuCydyevZZN09iJwbHuB7RjCln2PaBt9bF7fhjzbn0jSB+v0J9pkYnES0/jW/jziASJhKXebFz50kpC7Nko2SpIw8oBShhpVNgIP5yFaVec9MLHYjf5Es5nGt0JkFzxLwpqLrc0T1kCjzRPWelW9pMG4q/WWZCDyEol6MReIvERiy6q6/myt/YlqEM0ikbiOsPYulq3sK20S1DOl0v4uqbOJkoS8vi4zpXC+lI4QwzvUGj6UVtV5DyKsOVelWaAI60UtZYyBqDaGEx2FC52HiU4wYaWWh8F7AFEJHgk9LIUASZRjAi7GRd3KmJ3VMsx45tpnm+Vi6phwVmuOuc62Gp63yUYvE2yL0uwYPANrUlG2uLStyI7js0XZcvEkNpxHoG6iJmiSBWWtzTGBZ0xRe0lY69AXbRmS0EdW26vR0UnC6HPK4mlUoyShL0o/LK6gbMwUv7byjIjVyTYWWr2KRC10MW8mZLcMeaFNZ30xb1uRrVr0+hMxA9RGLsgLVTrZ6CVJp1IXPdmierlLo0J3mVFFhe5SjxMlCWWqHSUJ9Sp+lCQc058oOgeSbJx6B49Jb+vhrreC2SYNW/rzAJGt9rNjgKj2jYX8nzE2SWhB8foT2c/p9Seyn43qy6m3f+lmY6GEiNodOaY/T1TZKAujUbJRNE+tPxHPt3wJDKEqqtvOjYU7gEivqpfaxYmoFmvpz+NBhE7SiUSy5BYQvVMW87YM2SQpU3AvBTFmVV083FS+q76L5gp2600po6uzzPxb6s8jmqgEGSBoYe2JYanXqSUJdZaZyYDnqfCW+uaodUmbCjyTAqhVWNfuUNkZGq0pESZqO0PxMPTwIZ1QCmGySyLaeiPrXMATfTZCEu87WlXP9i47hIiLYTWCJzRtKEFkW09jLzgC1q6d2TG8Ph7AruLbqgLCov5bnreeh3BrP2eUYee9TdG6bXGni7Na2uxGC5CyQTFKNsoGxSjZqKf6Ua2P7B5p/ZyyDSkB2kWIbDNwL9mGF9B6ZyeJRLutxksk2oReS6Nzr9qyp+71Xbf5ldXwKN2/l0sZehU/eu+SbKxVEtrMdgL0P2giVrlrW2+muJhKGIuqAaY0Ve8aoLHJRrRQSzkHoaNWzoGOqZVzAIsXquzCaNRIwZtt9QBPNwC1QiRdL6KEnBTZS+jzpvsCj5i3PibTczGvH6MtKOOYtU4b+WUrE1iAFfNmXbY/j3fh7X59b1Oi7U/kVRLaklbgjjYc4u16s9l94VxLazzxVKWuZlpYR9Nxmf5H70nWy2rf1qOXahKgCUzx7YX2tuPYBuW23MP2J5Jp+Nj+RDzfU+/n2QM0RlhLV4uoy4auJIyWNyRE7rQ/UQ8Z5tkD1AKR3f5LiPDKJXZra7PN29S+w8NWDyRAE042RolEPXsraR5glBKP0mviyViAjWaBc/rO+FkA1JpsrHWAx+t4dT8WImZkEbBoIjyatzlybvDMBqAWiLzvGos8hCQJbSmsl+fx1sV6zzAvDqBWYY2HEMEchRm8llipGF/roqhjx1SLwRKgNSCyq+qe0PWabHrt5rRAr311Zc9T9UUB1KqJsJb+RC39eWqC2TaeSoBmABFaZJ3+RGP78/SaYV48QGOSja39icb255nTbGuRALVA1NqfaGx/nh6KwRKgXYKopT/RmP48c5uqLx6gVohqY1r78ywFnkUB1BrOrOaZen+eBGiiwloE89T78yRAE4TI9idigXSq/XkSoIkL69o3HS7V8yweoBaIvB6NCU8CtJYmSngSoF2DaM5rWwnQ/wzRHEsyEqA9nJ0lPAnQWhAtaXkiAdqhkffREKXnSYDW9kR0QEt4EqC1jA2JCU8ClJYApSVAaQlQWloClJYApSVAaQlQWloClJYApSVAaQlQWgKUlpYApSVAaQlQWgKUlpYApSVAaQlQWgKUlpYApSVAaQlQWgKUlpYApSVAaRu3/wB++QMGymq2gwAAAABJRU5ErkJggg=='
p30
sS'version'
p31
VV6.0\u02b2
p32
sS'uni'
p33
V\U0001f537
p34
sS'desc'
p35
V\U0001f537 
p36
sS'browser'
p37
V\U0001f537
p38
sS'annotations'
p39
(lp40
Vblue
p41
aVdiamond
p42
aVgeometric
p43
aVsign
p44
aVsymbol
p45
asS'wind'
p46
S'data:image/png;base64,iVBORw0KGgoAAAANSUhEUgAAAEgAAABICAYAAABV7bNHAAAAAXNSR0IArs4c6QAAAARnQU1BAACxjwv8YQUAAAHQSURBVHhe7ds7TsNAFIXhMbuiDRVsIIiGFSAqWARUdLR0yQbo8C5YCT3Gx5krIUQg8dxXovMX8yos6yvswnJhjDHGGGOMMcYYY4wxdryt3i7qKkUndc7Run8dx9U4X28O4uvqHN8G53xaD8NH6bqbsly8TPvAcgB9x5GSIMUD/YYjJUCKBfoLRwpGigPaBUcKRIoB2gdHCkLyB5qDIwUg+QK14EjOSH5AGjiSI5IPkCaO5IRkD2SBIzkg2QJZ4kjGSHZAHjiSIZINkCeOZISkDxSBIxkg6QJF4kjKSHpAGXAkRSQdoEw4khJSO1BGHEkBqQ0oM47UiDQf6BBwJCB9ltNydfZeT3Zu3leNdX87joeBM9U9z8FB84CWi6cylMe6yx3u83JxX3d71/YMWvUP4xXu6i5fjTio/S2WFUkBB7UDoWxISjhIBwhlQVLEQXpAKBpJGQfpAqEoJAMcpA+EvJGMcJANEPJCMsRBdkDIGskYB9kCISskBxxkD4S0kZxwkA8Q0kJyxEF+QKgVyRkH+QKhuUgBOMgfCO2LFISDYoDQrkiBOCgOCP2HFIyDYoHQNqQEOCgeCP1ESoKTKyCt+2Ga2ZaS/cjCGGOMsSOulC9uygrlHj1aDQAAAABJRU5ErkJggg=='
p47
sS'andr'
p48
S'data:image/png;base64,iVBORw0KGgoAAAANSUhEUgAAAEgAAABECAMAAAAV8YMOAAAABGdBTUEAALGPC/xhBQAAAAFzUkdCAK7OHOkAAAB4UExURUxpcddZi9dZi9dZi9dZi9dZi9dZi9dZi9dZi9dZi9dZi9dZi9dZi9dZi9dZi9dZi9dZi9dZi9dZi9dZi9dZi9dZi9dZi9dZi9dZi9dZi9dZi9dZi9dZi9dZi9dZi9dZi9dZi9dZi9dZi9dZi9dZi9dZi9dZi9dZi6REpZUAAAAndFJOUwAO/JESEBT7+vmalRWbnpeclhOQnw8RmZidkpSTWPHqB430OkiJDaNNaDkAAAFWSURBVFjDrdhZloIwEAVQkCQEBREU57Fbu/a/wy788KACmd5bwD2QQFJVUWRMfDrFESB5cT4XebijVhOiyUpBHICk5k+HpbmCOIFSvkvplXTnveL5ouOwtPCU1LvTSl5vp4oPh6XCQ6q/nVaqXR0x7XFYmgqI4ywNOo6S2Aw6LG2sJbHVNBK9tZTqctRhqbTaO2FyWsnimURldFiqjNK6SskiabUed+RMk1X0TEIcg+TgjEry4OCwdBiQ5DEjp2THXknuHR2W9j2STJwdlpIvqfFxWqn5uN8TTV7RSfzuZOSZrCvFS2+HpeVLakKcjnR9BDks3f6e0O+FAvNzx0KwV4MtNm77cR8k7hfB/bS4YwR3sOGOWtzhj7uOcBck7srGFRG4sgZXaOFKP1wxiiuPcQU7roXANTW4NgvX+OFaUVxzjGvXcQME3EgDN2TBjX1wgyjb0dg/hcNTRDUx3WoAAAAASUVORK5CYII='
p49
sb.