ccopy_reg
_reconstructor
p0
(cemoji
Emoji
p1
c__builtin__
object
p2
Ntp3
Rp4
(dp5
S'emojipedia_url'
p6
Vhttp://emojipedia.org/down-pointing-red-triangle/
p7
sS'index'
p8
V1273
p9
sS'code'
p10
VU+1F53B
p11
sS'apple'
p12
S'data:image/png;base64,iVBORw0KGgoAAAANSUhEUgAAAEAAAABACAMAAACdt4HsAAAC/VBMVEUAAAD///////////////////////////////////////////8oDw////+uSEjh1tbLSkpsAADv5+fu5eWsRETs4uLt4uLy5eX////o4+OlPDy+Q0MhAACdNjaVLi5+AACsGhqwS0uoQUEAAAChOTleAgJ5AQHZxsYZBgY/DAy3p6eMISG7Pj6uLCy5NjaCAAB9AAB9AACOAgKvSkqmQEAjAABPAAAJAACZHR1AAABuFRV4CwuSKiqQGRmWEBBsAgJdGBijNzc0CAgrExO6dnZdCQmlKytyFRXKlZVPMDB/BwefKSmrTk6yICC+dXWdDg63cHB7AACTBweCAACUCAiHAwN/AAChERGFAAB9AACOBAR/AADKHh6/FRXnWlv7gYLIGxuQAgKYAACeAwO1GBjPJCTHJiaoCAjxb2+1CgrsZmbCLS3QLi7cT079jY3qVlbwW1vyZmb3c3PYNjaiBwfUKCj1dnbhSkrvY2PqUVHtamvlWFelPDzXKyv4eXmuCwuGAQHMGRn8hIT3fn/OS0vRTU3+kpLkRET5e3uzDw/pSUniQEDwaWq0Pz/EFxf1eHi5ERHNISHaLi7eSUnzb2+iAwPtYF/aPT3kXV3CHx+3IiLADg7DNTW2AAD5hoagPT3nR0efEBD0amquPT3KLi7mVFTfNTWTHh79iornV1fvWFe4MTHXGhq9SUnEAwOhMzPfTEylBAT0ennnNTXqXV3ERUWXBQWLAQHjODi2KirycXLpZmWCAAC/HR3VQEDvbGzQRES5QUHhVFSjGBjNNTbjLi7UR0fkYGCYDAz5dnbqQ0PbS0vYJyeqPDzRPz+mExOrDQ3hWlrDDQ3dPDzIR0fDGxvmTk7cMjLSMjLWODiVLi7FISHTODjuTk7ISUnfKCijJSX2bm7hWFi7EBDqWFjjUVG7QUHbRka7GBjxdHXEOzuyBgbQGRnRW1vhaWnzYmKlMjKXFBSSDQ3eMDCtAwPsVFTTIyO7Hx9XAwOuJCSOLCx0EBCBExOMJCRxBgYwsGQcAAAAXHRSTlMABwkKBAUGAwECCAsMDOgP/gIgHecaERQOFuf9NebnX/7o5wTmqOUNJ2cQ1+/l/ooZNc/o50GNHO9/r8nm4/jDid5XNWybz8I/OiKyovJ34VY6wqbxmB7zs03icP6017EAAAN0SURBVHhe7ZNTdCRLHIdrJhlmMtiZZDPRJrvx0sa1bYztiW3bto2lbdu2cW2crZ6be/I41ZP7cB/yndPVT7+vftX/avD/hEql0SgQGm3kTaXiElD/GwFltIIRRi+ABoADBAFKA3t7bIFYMaAIYB5aLXJkAYyS7IcZ/owYaAJYGMuTySTLMmxAF/xzgWAWhskEAok0cgoqQG+AZcnwoZNJUAENiAWomIBiyROJdDoRLmQC1sHSAHEEmIBMoBPtIA52RDqBTMIloFgEcHeYdnB0IBL/FaDOEBs+iQDjDo4YsIPFgOt/oFGgAQpcXFwc4RlIMA1Q71EQi+XsPJ7Pd3LicsdBuFwnJz5/vLMzy5/lbz3O8PVb4uHh4zpnIo/HZDJne3szmTzeRFdXHx8PT8+l8yZZE7hLu5rij7YV7HRbe4adnp6RkZHOPrPW7V5BQVt8U9MlqbvVBn7rk6Uy+Up1TrGwUCIRCASSQuFtbZJaLpOu37IlOQBYI7BlnaxCnZQjPCtQRkQkJCREKEskwuKcE+HyddIDy60eAXAW14avTCoWSkoiSs93YpQmKAVnH0CDbPcyd2CdudP0FYqtKkPY6bys5tzc5qy802EX2lW/KMJbNvoCFBbd8kpSGarK7naYe4ODe3+KORd1f9sevUL+aMF8JEHAFGPF5YtlcZW6/NbW1pCQ6DWiXYePtas37lgI0HihWq+9GCXSbYpMTDx4MLR8++Zq47aaEycnMxAFjBdbi5VRovzINHFqqjht1cNY0Yor2n3slwAqgZvLTmXdyS8Sd5tM3Y1pRVAgqNG8zkEWMCaHlhwxhxQ1mjIzM02Nq2J7qupEbi8DdN5kx9TtPRR8M1ucKs4ur2z+oVAV9yrAwztr9qSsvvpNaGJ2YmhIzIaft5qnBuES8KdE114/FFweWRSpgQVqqna8AvDx3q5rir250ZpNmuiYDUqV+TUaTgFr6vYbT1af08XqevKOKFbUvwHw8sGxpy39nR37q6NKhX1xbwPccD7SfKvtDzMeDkvZvf/dtwB+ZtY/+24wxWBIUe80Tge28GncUflg3anHXSffZ9gkmPE5+88fGxq+H9BPALbxde1QcoPsr32zgI1wZvX9kfz3gNeHwFa+PD706+/1HwOb4XzxW/y0T2YA2/nsK68DE8BomDkdMT/GGGOM8RxdChwc0ndzVQAAAABJRU5ErkJggg=='
p13
sS'twit'
p14
S'data:image/png;base64,iVBORw0KGgoAAAANSUhEUgAAAEgAAABICAMAAABiM0N1AAAAM1BMVEUAAADnWnDnWnDnWnDnWnDnWnDnWnDnWnDnWnDnWnDnWnDnWnDnWnDnWnDnWnDnWnDnWnDkYbFIAAAAEHRSTlMA7yAQv6/fgEBQcDCPz2CfGQTH8wAAAMNJREFUeF7t1dGRgzAQBNHRrhAYMKf8o70EmLPbX1flfRlMVa+k/6eUUmJMaITurBNbdeea2EN3Ek/rurdNpoWMZSKXnGwTWOQ9yLCUAcdtMuC4U3/b53ueqRf6fMuhV6Kx2/B2mLTXWdJewKS9FSbtPVnS3sGTFh93ihg+aSEbTNo7zbBdUA6QNB/XQtyP+X6wbChp8oCP1GcWkDQZd+pjl0ma6yZpLJpJGttN0lw3SWNhkuZWnzS/uZ4ykDj0jUop5Rev60NZI0iJ+gAAAABJRU5ErkJggg=='
p15
sS'gmail'
p16
S'data:image/png;base64,R0lGODlhDgAPALMPAP1paf8AAP9OTs8DA8xMTP0UFP81Nf+WlqcAAOIAAP+Hh/p8fPMAALgHB9dAQAAAACH5BAEAAA8ALAAAAAAOAA8AAARC8MhJ5VpKgc27c4dSBGRJMgjyPIBpDusqugEarwIN388yljbeI1faCQE/RkMYM5ASzBgysIyuDFArzmgFVLUEgjACADs='
p17
sS'related_to'
p18
(lp19
sS'name'
p20
Vdown-pointing red triangle
p21
sS'known_as'
p22
(lp23
sS'default'
p24
Vemoji
p25
sS'bw'
p26
S'data:image/png;base64,iVBORw0KGgoAAAANSUhEUgAAAJAAAACQCAYAAADnRuK4AAAHN0lEQVR42u2dLVBbTRSGEQgEAoFAIBAIBAKBqEAgEAgEAoGoQFQgKioqKphBIBAIBAKBQCAQCAQCgahAICoqKhAIREUFoqKiApFvXjqXb5PZs/kjufvzPDN3poQmJHuf3Ltnz9ndkQZAH4zQBIBAgECAQIBAAAgECAQIBAgEgECAQIBAgEAACAQIBAgECASAQIBAgECAQIBAAAgECAQIBAgEUI9AT09Pja9fv3JEeOjcRC/Qnz9/GjMzM42RkRGOiI7p6emXc5PELez09JSTFtlxfHycTh/o+fm5sbKywomL5FheXn45J0l1or9//94YHR3lBEZw3N7ephmFbW9vmx9qdna2sbW19Xqsrq42/d793dTU1OvjCwsLr48vLS29Pj4+Pt70HP1c/U7/r5/n6G9Wj+u9uM9x37M+Qz/PUZv42mdjY6PpOfrZfb35+Xmznd+/f59uGP/r16+mk9LaqXMvq4oS3N+76BJcPb67u+vta6nj7uJ25PX/+nmO/qZ7O2hqQOc96zP08xxXLv274vHxsek5+tntLrjiucfY2NjLOUh6HGh/f9/8dhweHiJQnwIdHR2Z7buzs5P+QOLfv3/Nb8jk5ORraIlA3QsUuvroFqq2z2IkulUO99A3CIF6E+ji4qKWjnMtqYzWTrLbWdQ3CYG6E0ht5nbU3WNtbS2/XNjDw4MZ1p+cnCBQlwKdn5+bHeefP3/mmUy1wnqFuVdXVwjUhUDv3r3ztuXnz5/zzcb//v27aUzHPTY3NxGoQ4EODg6Gmu+KqpzDypO13t4QyBZIovja0H3P2QokFhcX2w6/I5AtkO/QLW1Q+a7oBPr27VvbPBkCdSfQsML2KAQSrfkdBOpdoEHnu6IUSKGmlSdDoM4FUtjupjaKEUjs7e2ZDePezxHIFki5xjqpVaBQLkcDZQj0j8vLSzNsH0a+K1qBxNnZmbdxJiYmXsaNShdIgszNzXnbSIOvdRPFtB63yMtXjlCyQNZtvq6wPUqBFIJaHUTl0EoVSNNwdCX2tc2PHz9iOHXxTCz8+PGjt6FUnF+qQB8+fPC2idoqFqIRKJQnc7+FpQhkBRca+hjEBMHkBRKh8szSBOqkDBiBPGG9VSSFQP+uSnWH7VELJFrrghDo/+Pm5ia20xXn6hyhPFmpAg2zTDV5gULlryUKpLa4v79HoG748uWLtzF1dcpVIF1lfJ/506dPsZ6meAVSWK95Y74G1bz73ATSwKAGTn314lVKB4G6xCp/VeojN4HcwdK6y1SzEUhY5a/K1ucikDXxUosmxJDvSlqgu7s7b4dapQzuwGOqAik0t8a+3NdDoD5onfJTHW6ZQ6oCra+vm9OcUiAJgbREiZWVTl0gqwoh1rA9SYFaT0juArljXQj0RmjGpZWtz0mg2MP2ZAUSoeVMchEo9rA9aYFCYX0OAsVSppq1QFZYr062u7BArAKpHMMSKIWwPXmBhJV0dEs9YxVIBWG+9+5O40GgAaOJdr5ZrboyKZMfq0DW+04pbM9CoNA3WQNzsQpkXTlTCtuzESi0+quitdgEslbu199MKWzPRiBhlb8qxeEuwlS3QKoesPJdqYXtWQkkOtnUpW6BrOrKFMP27AQKlb/GIlBOYXt2AglrBmfMAqUatmcpkGZqWuWvMQqkQc9Bb4KCQF0SmtUam0Aph+3ZCqSw3tqrtdqPIwaBUg/bsxVIWLXFCuurPNmwBArVcudEdvvGWyWi1W1jGAJpg1tr79LcyE4g5ZSsbL0624MWSLcnX/mt3lMsi0IhUBusxaq0nvKgBdIs0pzD9iIE0pXGWoPaHTN6a4GU4LWufrmE7UUIFOqHuCf4rQWyxqLqXssZgXpAOabQdtiDECi0IyMCJUi7xaqGIdD19XXOTZy3QCKUrR+0QDmG7cUJpK2l6hAo17C9OIGE9hG19poYlEDaH7YEihAoFNZrmlCvAqlM1feaisZyDduLFEhY2Xo3SupWIGtRqJzD9mIFCq1BrX3ruxXI2mVIQwexreWMQG+ENnXxjRTrlqPbXKcChUpHcihTRaAAVrZeKY5OBbK2YKpz71IEGhLaq9W3GqquTG5H2xJIkvmuYnpNvTYCFYCVMbfKYDuZYVFtjodABaDqRGtWay8C5VamikAdYG1k24tAmkpdKsUKJDQztF+BcphdikA9ojyZNau1U4H0GiVTtEAiVP5aYc18LSXfhUABlLOy8mQaeLTm3ldF+ggEZp5Mg4bWwGNJ+S4EaoM6we3C+taJiiXluxCoA0JrUKewdykCRYC1Y6B7qEQWEMiLlScrrUwVgfoglCdTaSwgUBDlydwFOt2wvdR8FwK9QVjvrjEECNQWN0+mUtiS810I1ANunsyduQEI1DHKh1VbJwACdY02R9EBCAQIBAgECASAQIBAgECAQIBAAAgECAQIBAgEgECAQIBAgEAACAQIBAgECASAQIBAgECAQAAIBAgEtfIfitSRVWAE7aYAAAAASUVORK5CYII='
p27
sS'version'
p28
VV6.0\u02b2
p29
sS'uni'
p30
V\U0001f53b
p31
sS'desc'
p32
V\U0001f53b 
p33
sS'browser'
p34
V\U0001f53b
p35
sS'annotations'
p36
(lp37
Vdown
p38
aVgeometric
p39
aVred
p40
aVsign
p41
aVsymbol
p42
asS'wind'
p43
S'data:image/png;base64,iVBORw0KGgoAAAANSUhEUgAAAEgAAABICAYAAABV7bNHAAAAAXNSR0IArs4c6QAAAARnQU1BAACxjwv8YQUAAAKjSURBVHhe7dqxbhQxEAZgOwQhJAqgAB6A9+AVNqHhAYCWEgqkoCgCikjoaJAIokZCIhXNVdAjUaW8DqRchPaSB9gbPOdRBItJdu0Z28V8jT0pUvxyZme9MUoppZRSSimllFJKKaW4WFpH+3Tr6p01MFeorF4zP/5M21GiA9q/ce2+tXaPyqqBMXsb8/YhlaOs0TraxtHinVtmvqqb7bo3tB0tOiBv+Yg29QKz1fw6+U7VaEkB+b9rmFJZHzBtd9G8pypK4glyZ8jCc9pWBww8vvuz/UFllOgm/af9m9fful/0gMpazJp5e5v20ZJPEFqum208zlRWgqc/sgREx3jiqxrANHbu6WMJCFEzrOKxz9kX2QLCUwQAL6ksBofCzcPjr1QmYwsI4fDoQvpGZX6uD6YMhSGsASFr4RltS5ikDIUh7AEVHB5nqUNhCHtAK93yCe2ywf6XOhSGiAREx3zXV/Kw79HLMzuZE+R0624uyjQ8SvY9sYDyDY98Q2GIWECoOWq33SI7PAr3O9GAkPDwuMv9WO8TD8g3T4HHPt71YJ8TJh6QB69pw2ki8VjvY7kPGoL5zojlrmeITCco7eK8L+dLcbaAVs0UzBaVCWAqNRSGZAsIrd6VkodHkX72X1kDoqa646vxAMxHyaEwJGtAyA2Pr9wSNTzaZfeCttlkD8iDp7QZLvEDYKwiATXzxQdstlSeD4dCgbueIQqdoNEX6zs5hsKQbINiyMDhMdtQGFLsBKHV8HjuYz+iXzEqGhA13TNeOPGuB/tVOUUDQmcPj3mHwpDiAWHzxf/CoPIUfgDMPRSGFA8I/fPB0Z0o7g+AsaoICPUu3tk/AMaqJqDTD44Fh8KQC7RW4d7lSwdg7cHm4eIL/UgppZRSSimllFJ/M+Y30o8YSE0OpM4AAAAASUVORK5CYII='
p44
sS'andr'
p45
S'data:image/png;base64,iVBORw0KGgoAAAANSUhEUgAAAEgAAABECAMAAAAV8YMOAAAABGdBTUEAALGPC/xhBQAAAAFzUkdCAK7OHOkAAAE1UExURUxpce1sMO1sMO1sMO1sMO1sMO1sMO1sMO1sMO1sMO1sMO1sMO1sMO1sMO1sMO1sMO1sMO1sMO1sMO1sMO1sMO1sMO1sMO1sMO1sMO1sMO1sMO1sMO1sMO1sMO1sMO1sMO1sMO1sMO1sMO1sMO1sMO1sMO1sMO1sMO1sMO1sMO1sMO1sMO1sMO1sMO1sMO1sMO1sMO1sMO1sMO1sMO1sMO1sMO1sMO1sMO1sMO1sMO1sMO1sMO1sMO1sMO1sMO1sMO1sMO1sMO1sMO1sMO1sMO1sMO1sMO1sMO1sMO1sMO1sMO1sMO1sMO1sMO1sMO1sMO1sMO1sMO1sMO1sMO1sMO1sMO1sMO1sMO1sMO1sMO1sMO1sMO1sMO1sMO1sMO1sMO1sMO1sMO1sMO1sMO1sMO1sMO1sMB4xwWYAAABmdFJOUwD8AwH3Agu/E/4G7rAFiwRG1vo2oQmDReoHK9AMT3MRtvkWOhvAXj+CxSUqz/ORltkV/d7j6CSq7WxN8g+VFFd7vj3iHsNC58hmqc3xDpl6GFsiZY71MXS3VZ3gHJ8w2hCvLmsIovImuIgAAAISSURBVFjD7df5VgFxFAfwMZuGGbskKkohlTbZqWhBZE8rUt7/EUoOWWb5Lf1Tp/sAn2PG3Hu/lyD+63eWcwGznEPHxm+qsWqTtw0cfbCPXUH9J0TW8aE6OfhJ58e4zvH51ztiTlV4juqUGb7tshoPUpdH/78hguNEDOMPSaPj0B1Op/n+JKsFdKhQnfy403FUJ56e6hL2AfHhuAd2ut+WjWiQcXmmcZkcjeLQOWZ2BCTCKFA4MT9MzEfwzpFZZCoxdyZYx3THiM23Axcs5DoQn5SXITgndCkxcgUf1BhQ+QSp4f3kh4H8T9JrYEUL7mhXZPaJPQncKVzSLreZThygkONEfsdt7YI5u1sKy5K1gEEWVmntNvdBnP2m4v6mogBjgI5SyklgjVeG+DWQTLGRUXIyG0DhhLx1yzvuWxIs5qyfyUNn66CBybAk5ywZgJOXXnco7Rzq9OAZLnstDV1nYdLg/Y2Uc3MPFSutJYkxwJWscAE1ILEwjQHIpEvVRDuFrlGwmbmYF4PyRfj0bX6cdx7NCDGeXJ1bmKZVEgEiUq1ZqJVCOy28V9POlRfxRhEWpxamalFAvXY8F5PQhQf9bopNLExtDOMA0+yNO4Xb0+Cccts7I2hnG+8orDSGTqOCeV2yz0PomcWEiNf2wGm/Yh+8VO9zDNA9ChsiOt1+v9v5iSP8xfL+8jPn/JuV+K+/WR/kYuplA9bgjgAAAABJRU5ErkJggg=='
p46
sb.