ccopy_reg
_reconstructor
p0
(cemoji
Emoji
p1
c__builtin__
object
p2
Ntp3
Rp4
(dp5
S'emojipedia_url'
p6
Vhttp://emojipedia.org/medium-black-circle/
p7
sS'index'
p8
V1279
p9
sS'code'
p10
VU+26AB
p11
sS'apple'
p12
S'data:image/png;base64,iVBORw0KGgoAAAANSUhEUgAAAEAAAABACAQAAAAAYLlVAAAG30lEQVR4Ae2Z/YtdRxnHP8/MnJu9m9Y1266QNMa03WpZtuliYEtCtDah4kuoKChSCCLiRtSCP1hJ/4KW6A+CEt2IiASKGLBU4gspSa0tKVkMbpMSqk1tKVHBzUvTNNnNPS8jzsPBO5xzOffe/aG/9HuY5S7ce57PPPO8zJkjvMsaAuA9gPVjZit3MsMaZlAtcoNFXitOcWVggPX0r5HpzpfZKdvquT3gX+R461e8PADA7fSjduvKV9grWwUwgCARhA8XFPr5FPNjv6TTF8AUjWpdnjOPmQ1gkDBGuZVxJmiTACnLXOAiF7iOpwgDin+xf+wndFYNcGWn/EimBMEirOPD3M0m1jFCDpSyrHCZN3mFv3MZTxFA/Fn/CMcbAG6jt6Ttf2C+KZhgfJId3M0oORk5xABhOCzXeYUXOIcnV28ckO+yTE/JRnrJThaHZUawGDbzKaZIScnQ2VUlGAyOhISz/JE3KMjx+EXzRc71BPgQ9ZLZ9Cm7wWBp8Wk+TsEKWcV0PYZjBMOf+QMd9cOS3c0CtZLN1Or+/PcyarDcwsNsZDncSuhPPmC3Oc+TXFSE6/YzPNc/wGz+rIw6LOvZw1qukeH7rlvlN1345SH+TU72P4QHWOgLwE8WJ2TCYRnna7S4XprvByH6pmOUDj/nkiIsme2ca4yBta2rJ2XGktBiD7fyDinCcPIk3MQFDtEhJccv3nwfnYY6cHVe5gwJlvuZ5TIpIDCEB/RzwjoWeI6clAJ/kL1Ekg/SrXybO2FwIfj2cC3UNmk23RPDh7q5lkMhGDMKsu28GAFsoFvmebvDYXHsYjNX0Mg3DKcCzYgx3uAYmZawF/hYz0LkP+uOGBIca/gSy6wo1AAd3NcgwAhtfs0NsrAM2W5+V1uK/2k3nnZTDodjIw+wRK7mVrEE+skywbOcJ9Pr7Pkt5DV3ve3r7qAjLEBoOW81mI3acQPK+0ObysgVYY6f1XiAvyRbdf6Gu7idtwHRMWQWgNfB+3idVynUPMUZtqBCNqGy08UZi3rAMs40VysRUFCQaifU0kIJpb8CS4LBVKLgZl4O5Ug9kOM/yl9jAORx2Wdx4QYOYRNrEcCHDtghDUGU0SwXgjihFe6m97jGm/iQhqkCPMFjcSXEnzb3JJRLIAi2p9ul2f3x/9qWyyUgDYsQeaAYtxetmscGAIvAwBFQHwXgA0JRBiE5+S1c6qoDyYP+qAsus8G0jQOwFqXZbByIecDISQOCfJJnunbFxaNmv6Wl8w8IVfODFaIqgidXH+g25Xt8vysGink359AYkDBkkBLUjBOuLIxMw/oA3+qqA+435vM6/+CDCGBVzSgC0PmrD4qn+EKXB+SY2anzT9Q8psF8JQYaEApFIC3z4Di7undEJ+2s6wIwSGx+iGYUI3gKBSjzYIH7iAHKKhAD0BCMTcFHDFBWggrAMRuWIAkAugi93S79rXwlC4oAkCpAvATytHnIkQQA0TRsNj8QgqahD8bDMsRBWMwnc1q9bZwFjbnQHP9xFmgOpKS6Oyz3hOZRuz/MPyBIzSLIgKXY1yyAD+bVB3lciMyDctSypvRABDCY+RghBig9cIMcH5fidLz1H2c1DNW8qQDIADsiXwEoUIRUwzDvfCBqRuBOJrMKoB5QABqTkcYEBAVQDyhAqknYlYb4x5N9SbUfrh4g7oUlQHVDYqbtGUuCAthqOa54pBkhLsN5uEIA0qluycC9ZLe4aibEETA4QJwBWoROcy+o5A5KyZzM/x9AAxFkVQA6NADLFMzwezkIKrmTUq/ZO07bqbInSpmMqwYoj6zScv5n/1H/YAKbH3JPB4CoGsigMRA5P6oA6oHP8dueBxTuebvDkmCjtmyGzIIiasN5GJWH08n4JtvsCaNtOaqIZohNaRFVQA3Agjx6PNcYiCTzZs5SFiQb+cAQS3o9E0fzzykLUE6hLai3B2Cl3T5hZiwu7ozqgz6bkc4/6oBqfnF5O8uNB5V2co0eUpUIEUDTfiAGKM3rIdWN5kMqlcy2/iRtRXAlQBkNDc2oUIRoCxbML3c+wcIAB5XJEXOTw6KXRCkpSE/X+y7zOXplFO+ku5sPKmPNto7IhK1BIIaIjFNjPscvdQY+qgX8ZOuwnTFlNkSxUJuG0doX5OVY7Ax+WK3K2yM/tHOmCyCGoFRsvATQvwdXvjPkcb1qdCcHzEek1gsgaro6e8X4W/oIz6z6nVG7lX1b9smEQjR7QI37Jf+E+/GqX9mUervd/qp8w9xDGYo1QViGHxRn/E+XfxE7fsgliJVMu4fNLpmVHnXAU5zyR7MnV/XarlkrYyOz7i5/rxmn/PHrxSV5KXt1ZWGoF5fvrt4D+C+gbF2aGwBV9AAAAABJRU5ErkJggg=='
p13
sS'twit'
p14
S'data:image/png;base64,iVBORw0KGgoAAAANSUhEUgAAAEgAAABICAMAAABiM0N1AAAALVBMVEUAAAAjHyAjHyAjHyAjHyAjHyAjHyAjHyAjHyAjHyAjHyAjHyAjHyAjHyAjHyC/gmIZAAAAD3RSTlMAIGCPv9//AFCf70CvgM/BTNtMAAABJElEQVR42u3YUZaDIAyFYQJyJVHc/3Kn0+mUtuegaO7bzLeA/0mBJOyQmKaMhzylKHNfmDuKPhtN1nIuJMnQYUmGQ8uKXesyFBLFIZXjUDUMsHoQkg2DNtkLRcMwK/1QxSm1F1KcpB+h1nGUgqPTSq+hikvqZ6jgovIeEsNFJm+hDZdtr6EKh9pCYnAweYYULvobWuC0PEIrnNafkMBN7qEEt3QPGdzsO1RAUG4hBYHeQhkEeQ4CCgkRFDEkUKQwgWIKGRQ5gOQ/9KdDtA+S9ovQflreMSKgENZRSzv8adcR64LkXtkCN2E9a2gPLdbTj/YYZT2PWQ922gjBGmpoYxZ/8POUlDsc88f1pjgWCI6VBmfJwl778BdR/NUYf1nXnFoffgEORH1qQbrePAAAAABJRU5ErkJggg=='
p15
sS'gmail'
p16
S'data:image/png;base64,R0lGODlhDwAPALMPAAFp/yOJ/wBm/xR5/wBi/gACmgAIoQBO5wBc9QArxAAyywASqwdt/wActVC2/wAAACH5BAEAAA8ALAAAAAAPAA8AAARJ8MlJq714MIElCc4GHBfhOIMgAMhigZsqEEklBAMhz4pBMYGYipXwTRia3ahRsAGGo57lgCAQEAfFomlZJBSJhoGLMYw76LQlAgA7'
p17
sS'related_to'
p18
(lp19
V\u26aa Medium White Circle
p20
aV\U0001f534 Large Red Circle
p21
aV\U0001f535 Large Blue Circle
p22
aV\u2b55 Heavy Large Circle
p23
asS'name'
p24
Vmedium black circle
p25
sS'known_as'
p26
(lp27
sS'default'
p28
Vemoji*
p29
sS'bw'
p30
S'data:image/png;base64,iVBORw0KGgoAAAANSUhEUgAAAJAAAACQCAYAAADnRuK4AAAEnUlEQVR42u2dEVR0QRTHHwRBEARBsBAEQRAEQbgQBEEQBEG4EHZOEITBQhAECwsLC0EQBOFCEARBEATBwkIQzHf+75z3fZ13vt1q33vtnZnf75wrQefs9mvmztw7M4kDKEDCVwAIBAgECAQIBIBAgECAQIBAAAgECAQIBAgEgECAQIBAgEAACAQIBAgECAQIBIBAgECAQIBAAAgECAQIZJP393d3f3/vLi8v3cHBgavX625lZcXVajU3PT3tkiT5G7Ozs+nP19bW3Obmpms0Gq7VarnHx0f38fGBQLHw8vLiLi4uUgnykowbkmtnZycV6u3tDYFCQyNEu91OR4+pqalSpBkW+v2S8/r6GoFCmKKazaZbXFysVJphoelQo1LoU1yQAmmaWlhYmIg4+ZDANzc3COQDvV4vnaosiJMP5UnKwRDIKEdHR5XnOEVjZmbGdTodBLLEYDBwW1tbpsXJh2QPJTfyWiBNCUpWfZIni+3tbdfv9xFoUmgTb1IrrLJC+Zrve0deCqQd5Lm5Oa/lyWJ5edlribwT6Pn52cwSvaxYXV1N960QqGJeX1/TmlRI8mShWpyPibU3AunLtbrHU1aoqItAFbG3txe0PFmcn58jUNnoS41Bnqwgq0UCApWYNGsHNxaBskKsL/mQeYF2d3ejkse3qcy0QHd3d+brW1WFGtV82Kk2LdDGxkaU8mRxfHyMQEVGn5jl8WUUMiuQbxX2quL09BSBfooKpbHmPvmYn59PW1YQ6AeoXwZ5/kW320Wgn7C0tIQ4n0K78Aj0TZ6enpAmF2pdsbqxaE6gs7MzpPlPaFWKQKy+xo6TkxME+g6hNYuV2UONQF+g1k5kGX5AEYG+QCc4kWV4WGx7NSWQrlpBlOGhFSoCjUDb9oji10rMlEDsQI8Oi9fGmBJof38fUUaEpngEGkEsjfMIhEAIxBSGQCTRJNEIxDKeZTwbiWwkUsqglEExlWJq7AIJ2jlo5ygEDWU0lBWCllZaWgtBUz1N9YXhWA/HetiR5mDh5OBoM0ebC6N3txDI7urLvEC3t7fRy6NXFbnepQDr6+tRC3R4eOisY1ogjUKx5kK6WFQXqyNQQWJtMtOriz5gXiA96cQ1vwhUiJguGlfizEXjFaB3JOh7RqCx0ZCuZ5F4bAWBxkYNZ9qZDVEe3YnNc0+/gKr1obxW+PnVQsvliqAEEg8PDzx5iUDFUMHV99cLeXTXwB6R/oN97XH2XR7vBRLKHXyr3KvfyceEOUiBMvRHsV430456p9NxIZGE9GF6vV5aBrA6ZWnKDY3EBYhKH1bOl+lAoE7chkoS6gfTMeBmszmxlZpGQpUlQsl1ohMoQ3/Adrv9K2UQ5WBK6K+urlwsJC4ilIOoz6Zer6dV77JeFVR+02q1vGgAQ6ASpzi1TUgoFTEllaYdTXl5uSSJfq6NP40wjUYjnZ60mWnxxgwEAgQCBAJAIEAgQCBAIAAEAgQCBAIEAkAgQCBAIEAgQCAABAIEAgQCBAJAIEAgQCBAIAAEAgQCBAIEAkAgQCBAIEAgQCAABAIEAgQCBAJAIEAgQCBAIAAEAgQCo/wBiXsGxb6bmGoAAAAASUVORK5CYII='
p31
sS'version'
p32
VV4.1\u02b2\u02b7
p33
sS'uni'
p34
V\u26ab
p35
sS'desc'
p36
V\u26ab 
p37
sS'browser'
p38
V\u26ab\ufe0f
p39
sS'annotations'
p40
(lp41
Vcircle
p42
aVgeometric
p43
aVsign
p44
aVsymbol
p45
asS'wind'
p46
S'data:image/png;base64,iVBORw0KGgoAAAANSUhEUgAAAEgAAABICAYAAABV7bNHAAAAAXNSR0IArs4c6QAAAARnQU1BAACxjwv8YQUAAAGTSURBVHhe7dqvTgNBEMfxgsPxAASHIkGREAQOFIIEwgugsLwD74DH4TAIXAkWCQqHROGQMJPOJuSySQ92tvuH7yf5ZWoqdrJ7vc7dBAAAAAAAAAAAAHOsSU4kV5Jnydcg75IbyZlkQ/JvHEh04cOGzIs2Ub/bLd0FU0ls8b+JNmpX0hU9JrHFpuRSsippni4ktkCP6I5sukk5mxPSbJMuJLEF5Yhe9JuiF9HYQnJGr3NN0O0eu69ZRPTeytWyVU/Hks3Zx4U7t1q1UrsnxHUXee8gvfaU2j3BqVUX3g06tFrSkdUqlT5eIW73Rd47qPTxCtatJvNsUJcjCc8GrVitwbbVZN5HrDueDfq0WoMnq8k8G/RqtSveR+zFamlvVpN5N+jWakkPko/Zx3TeDbqzWtK11Wp19Wc1hxwD+rHREW/1uhqY5bIliS0gZ5oZuQYM7Ufgsc8IPDgcgUfPI+i86C9vdQyjv5DdvbzwU1OvvyxZLUHvWXYk+5I9yXBcq398NfeSR0mX0wIAAAAAAADUZDL5BoJMDVm7WEXFAAAAAElFTkSuQmCC'
p47
sS'andr'
p48
S'data:image/png;base64,iVBORw0KGgoAAAANSUhEUgAAAEgAAABECAMAAAAV8YMOAAAABGdBTUEAALGPC/xhBQAAAAFzUkdCAK7OHOkAAAA/UExURUxpcQBsogBsogBsogBsogBsogBsogBsogBsogBsogBsogBsogBsogBsogBsogBsogBsogBsogBsogBsogBsooLe1G8AAAAUdFJOUwD6wV+ewgi4GFv5Fj8Gmz4FCrTY1wL74gAAAHFJREFUWMPt1EkOgCAQRFFAUJkElfufVRdGWdOVuKl3gJ/Q0ChFREREv8r7ngGZdbLLYqdV2klOt5t2SdYpZ3ucRdKJpr1MFIR8+ELBj3fq1jpbHQ7NRx865v9DsKPBho27ftiDxK0Ibmlx3wgREREJXLfzC7kshrceAAAAAElFTkSuQmCC'
p49
sb.