ccopy_reg
_reconstructor
p0
(cemoji
Emoji
p1
c__builtin__
object
p2
Ntp3
Rp4
(dp5
S'emojipedia_url'
p6
Vhttp://emojipedia.org/large-blue-circle/
p7
sS'index'
p8
V1281
p9
sS'code'
p10
VU+1F535
p11
sS'apple'
p12
S'data:image/png;base64,iVBORw0KGgoAAAANSUhEUgAAAEAAAABACAMAAACdt4HsAAAC+lBMVEUAAAALMIENLoANMokWTr4ASIAAAMkONpYTN5MTSrQML4QVTLsVTbsLL3wTR7ETQqoVSroXU8UPOZkTRbMVTrwTRrIQO5sQQqoQPJwTR6sQO54POZcWUcELL38LLX0ONpINMIELM4MMLnsSRbERP6YPOpYXUb8SRKoRQ6oTRK4TQ68TS7cRPZ8NMoUWTLcOOJgWTr8VTr4NNpAOMokMMYQPOJYML38ILHgLL3sLLXoMLns5kPlIpv01jPg3jfczifg/m/tEoPw4j/hCnPo+mPs8lfhGo/1Ho/xFovxCnvs9l/pHpP1IpPwwhfY5kPg0jPhDn/s6lPo+mvsxhvcvg/Y0ifc8lfpFoPs2jfg7k/kyiPZGov0rfPRCnPtBm/o7lPkWUcQYW9Q+mPo6k/kyiPclcu4ndu83jfhEn/wlc+syifQ/mvo9l/g5k/otgPUqevIUTcM0i/dBm/sxhvY1i/ZJp/0bZuUXV80WU8gTR7gjb+ougfE8lfkwhvcsfvUse/AUTL4hbOsXVcwdaOMsfvIqfO8ga+dIpP0od/IZY+Uqe+0ZX94XV9IbY+AbZuIoeOwaYtsxhvIXV9QNMYQQPaUNMokRRbeRs/MPOpsNNIuPtfZqn/V9qfQONZARQ7MPPKEONpN1pfWpwO+Dq/MWVdUTScIRQ7CXt/OkvfEPOp1KkvYYX+MUTshkn/dFj/aBr/cvgvURQqxQlfYVUMxyo/VUl/ZYmPaMsPKduvION5aIsPavxPCGr/WCrPVEhO+Qrut3mN5kidl5qPYib+4VSbUXW90aZOiJs/gdaOoXWdmLsvYTSL4mdPEQQKhinPYWU9E1Y8cyhvUUSrw+i/Y0ifVZhuMnY9o1fPBdj+t9oek1duokWc6Bn+IrXs0kVsWEpOakuuohUbxMdM+ZsugwXMFEbMpaf9FpjNeGsvhgnveKtPiArveXufegu/NhoPd6q/dqovdwpvdvpPYwhfRam/d1qfZlofdemveZuvaTuPdro/ePtvh7rPdwpfd66IdLAAAAO3RSTlMARUzkywMBEQ1EzfJyxyxK5vJ00JZorci+IMg3wnIsyGgglpeEla1w8+H8TpWXOfPcgoTT8vzcOYKtvkkgmFkAAAdHSURBVHhe3NRVbyMxEADgS6OCIuUXVGnTvPel3eLftBcZwsyMZWZm7jEzSOcke7mkTeFe73vzjMc7O7L85D/W1qMzWUZGjcbREYtJ19P2b9WtQ8NGDAAcpxEcBwAzDg+1Prq83WwEgJZSLhFWiK6URANgNLc/qrzDNAhwyQVDExeXV6Xr69LV5cVECLokHAyaOh6ubzEAnoL207PiuZLRKOfFs1M7pHhgaHno8xaAU1BYKZ5kFMX5SuNUlMxJcUWAFA4s9zbRZcAlVH6QQcXJr3WS6JDMATpCwg1dd9fr9DQVWispzqQDeVnHgSSdSmktRNF63Z2/j/Gi/ejY6SBJkmG+NWAYFHQ4j4/sIo/dMQgdxkPisJAkE3NzcwzD/KiDliiYIJOFQwLyWNMeuvSofr/gSGSz6fT09PTzBiiQTmezCUdhH52gbzKHdoMEicguqeZygcDTpgKBXE4ldyMElAy371QvLxLeTVLluBcVgRuqUY5TyU0vIfK9twZIuwTvVoKT5bGxsTdVP2u0AErJMpfY8gou+sYgO/pTIZt1R41Go/Kne8hog7pjtYVS/Y0XyiTB+WUPJ7Pse+RX2bsGlVA5x7Iy51meh5KpYYJ6SvDO7nGsj2XfIt+bKmdYtIXbm/UKlL5+jubUos3qyUeXlpZ8VZ9v0RJoSzTvsdoWU+a696ObIiKTU3n2S9UzzWvNn7WWZvNTkxGC6v77wnQOlBuY2fbF4/GPVfFYOOx2+yvc7nA4VkvE477tmXILA521A/ooATUwvuAPx2KxsNu/vrEaDH5oEAyubqz73ZUN/oVx1IJA9dXez25xbdnzu/ty7UkjC+O4m9jdNTVqW621a7Jpeq9NL69ZEFhBhWXEy0xBGIFBbjMKtFIcLuVWdGVRQeP7vmlMmvYFph+h2EBqYzR8E77APuecGbWt3XXf7v8Nwwy/33nOw5lbzbNiTwWDFfjpdwMHg8GUfcVTe7t/+OpX+Up77eFOuA4FhFKVKYjJtLCwMA1pHAV9g50mEzpeSYWghHp45+E1+TR8s/1+FxUQJPS0TEekEAeEOIKohN3322/kk/Liq9j+2+xeKDhlmpycnJ2dpemnT58qISoctAU7aBoOwQ9MU8HQXvbtfuzVRUlwc+vT60J2DwoAHMFjY2MEJiES2IkkoIAS9rKF15+2bkqCy1uoBSupqRdocIJqtVrqROAr0aAyXkylVlATti5Lgiufw9ACmMHs4CAMbbHIsFWKLLFYoJDBwVmYAzQh/PmKJLi682635rVXJgGXebfb4dAdxeFwu2UDKCYrdm9t993O1W8EEg+4G+NzOFgBu2TDN4IrRAAzsPh8FIxutR7Txw6rFaqgfD4LzIEI5ClclgQ04QGXaEEKdmAFMdCSQG7ifSIw0RaFQgFzTyKA42ZOhOOQIwm9gJ9YaBMR3JcXEqzkmjdlUoIAJp9MAi0IgP0uBQyCAI5kEloBAqUp5a3BWpYXUudOpv7RYzcN+hTz4wxj4AQIweUgAzgMDDM+r/ANmuyej/XMTqck6LtzuFnw5JtjWsyDANGjEDMO2kIOEGCDdqyZ9xQ2D+/0yadzb3W/8CF9QPtAIOMAPzkKSGQFCHz0QfpDYb/ae/TgdGNbLGZDFVo7z5DZY/6kABtIJ5h5LV0JZYvi9o3jS9q9cH3ZW6F9CsYwNKFmWTz8CMrwMP4gRbDqiSEDo/DRFe9yPXzv+JJ2rje2Ck04ULoZbkitBlwWDENkASjU6iGOcSsPoAWrsd4Tj209VWcxm24qcQVkfAL/AcESUgOLK1A209mis9pz8sZyN7MZ9SSmqXFu4hmLcQLLkRTsswlunJpOeKKbmbtf3KBvx8RiPN1UuQ3QArNfc5pA4zdDEwxuVTMdL4qx21/eXC9lVqOefEPr4NSjfj/hfzsKMfj9o2rOoW3kPdHVzKWvntY6q074I5oRilGzfs0Tm15vNBplHjb1etsTjZ9VM1SkCX+Bs9rZ8lWuH+bWYBJKK6Me1WhseoI/hxCF3qbRjKoZK3QwvpY7vP7tIw5MYh0bDBOsf4QYSAg/4mcnDJhfhwmc8tjc0RV2RQNpHhopmDUjemR4joN4/YjGLEAD+XQg6gp3dbSckrbzTmRoqqxJgQWFzWj8E8dotAHOCkmrqol45/m2llMzAIb1+NJGg9JxM6wZFoPeCNHDEjCzM5yOamwsxdeBH2j5Ttq6kKGU4FWUbk6YgSWJz6RRdkaY01EqPlFCfBeM/710tDoXy8uBpQQfocAxx+HMAU1F+MRSYLm86Gzt+MfH/e6M6FoDRX6Dj6Dbg06HbggRfiMP+JpLzHT/2zvHABQBinhpKZHY4PlGg+c3EomlUhxwGH7gDK887Y+coqv8cjkeKP2FUwrEl1+WXaLzUfvPZ3vp6ml1iosuV3ntJc5a2eVaFJ2tPT+d/bXvweP+C6KYyy1CcjlRvND/+MG5//ji2dfW3n2rv7W1/1Z3e1vfjy3/3/wNV7k/JBCS76sAAAAASUVORK5CYII='
p13
sS'twit'
p14
S'data:image/png;base64,iVBORw0KGgoAAAANSUhEUgAAAEgAAABICAMAAABiM0N1AAAALVBMVEUAAABVrO5VrO5VrO5VrO5VrO5VrO5VrO5VrO5VrO5VrO5VrO5VrO5VrO5VrO6IGJelAAAAD3RSTlMAECAAUIC/z/8wj2Dv368kIFc2AAABIElEQVR42u3YwY7DIAxF0TqD8QuQ/P/nVmLSToaqCeFZXfVsK91die3bJ8n0c+528JsEjYaNRQ0yEpqT4YWl+WIoG96w3B8SLThQVPpCecGJJXeEpogOcToLhYIuJRyHErqlg5CsuGCVdyExXGLShHadoVIbWnHZ2oSqhAHpNRQwJLShqWBImZpQxKD4P5QxLO9DsmDYIruQgqC7UAGh/IUyKPkZMlDsEZpBmrdQAiltIQPJfkMCmtRQAC3UkIKmNRRBizVkoFkNwcE39A0ZaOb7F1HQ1PcZEdDE66n1fvz5z5HzB5L/ZDsPEfxY4z9o8aOf/zDKj8f8wO6/QvBLjf+axS9+/Crqvxzz6zp/QPjQSYM/svBnH/4Q5X8a4/iH7iwvhCX+0zFZAAAAAElFTkSuQmCC'
p15
sS'gmail'
p16
S'data:image/png;base64,R0lGODlhDwAPALMPACSK/wAPqABY8ABm/3DW/wBi/wAowQA40RV6/wBo/0Gn/wAzzAABmQBh+gBD3AAAACH5BAEAAA8ALAAAAAAPAA8AAARi8ElZyrgzv4KUQtdQaAVAEGA4OFNJKJWaCIGUvI2qLpupq4VDgIOw/AYNYal4nCkVAONPYAiIpLKkgfE4DhKrRe2RA18SiYZjsZ04BI1CQyA4sLmZwOJgN1TxGg8BgwGAEhEAOw=='
p17
sS'related_to'
p18
(lp19
V\u26ab Medium Black Circle
p20
aV\u26aa Medium White Circle
p21
aV\U0001f534 Large Red Circle
p22
asS'name'
p23
Vlarge blue circle
p24
sS'known_as'
p25
(lp26
sS'default'
p27
Vemoji
p28
sS'bw'
p29
S'data:image/png;base64,iVBORw0KGgoAAAANSUhEUgAAAJAAAACQCAYAAADnRuK4AAAIi0lEQVR42u2dL1BVQRSHXyAYCASDwWAgEAgGgsFAIBgIBALBYDAYDAaDwRkDgWAgEAwEAoFAIBAIBIKBYDAYDAaDwUAwGAyGdb4782ZgORfve9z9e3+/mVOAcbx7v7t79uw5Z0dOkm6hkYZAEkCSAJIEkCSAJEkASQJIEkCSAJIkASQJIEkASQKoXv39+9f9+PHDnZ+fu7OzM7e/v+/29vau2PHxcfO7L1++uIuLCw3aUAH6+PFjA8Tbt2/dkydP3Pz8vLtz544bjUYT28LCgltZWXGvXr1qoAMuYBRAFenr169uc3PTra6uunv37k0FyiQ2NzfXQPX+/Xv36dMnAVQqNG/evGlmiNDA/M8ePHjQzHbMTgIocz/m8PDQPX78ODk0bfbo0aNmqfvz548AykW/f/92Ozs7jS8zycucmZlxDx8+dGtra40P8+HDB3dwcNA4yp8/f3bfv3+/Yvxs7GBvbW25Z8+eNbDOzs5ODBJLKf/Gr1+/BFAq8RXv7u66u3fvdnppvGh8E/yh09PT3mYBZj7gOjo6cq9fv3aLi4sTgbS9vV30jFQkQCcnJ538Gxzap0+fNi835u7o27dvDdwAy0zXZTfHMwmgwPr586fb2NjovESxxCwvLye1SZZWlsXSlrViAGLZibENT20syfhZAqjH3dXLly87LQU12fPnz5sNggC6hTheWFpa+m+M5d27d0Ua//f79++3Ph+7RJZtATSFOJcCkLbBffHiRRFfaJcwBLu3m3ZqOQchswSIeAs7qLYB5WCzNvHMbR8Mz8zvBVDHLXrb4SbT/TjYV6MRSW+DiDHJcaufFUDstKaJ7A7F2EjkNvuOcpp5BE83iHKaibIAiOl72pycIRpjlYtPlBwgdluWw8zPhpBP8z9xkGv5RczWOUCUFCDiPNbg5PSF5QKRdSTC7oxzt0ECRISZ/BhrjefwU7r+sVlHOZz+p4yHJQOI44m2E/TUB6C5WtvBLMcegwKI7frQzrZCG2M6CIA42xnCqXpsY0xTnJtFB8jK5+HhSz0QTWVWQh1jWzVABMCsr4daLWkykUZrBV456qkSIPJ+ra+G8htpOlF7ZqXHxkzfjQYQOcJWMIxqCL+MWNbNGFNrFiJRvyqAiFN0rZ6Q9VPMGKvSIwpAfBF6sXGN5a0KgFiPrQAYX4msP/Pjavwshi8UHCCSpHx4qJeS+hXNI1LsyIIDZNWqp4qa1iwaSvizEGeNRQPEQ1mVBkProRNL1uE08aJiASLGY23d5bOEMSuvioqPYgHKoT+PtvRhnelgAFHLpBeYh4XM7AwGEAd+/oPQh0cR5LBmFSmGPC4KBpC1rcy9TLcGEfX3CxRChk2CAeQfXRBMlOKI7rN+lmcoPygIQCTE+7MP8SAtMXFsfX392viHqiULAhAPIec1L6MnYzEAWfEfWVqjiKEYgHDa/DovBfrimp8nhAtRDED+6TtrshRXNBf1O5sUARDevr+NTFm3NFTR/cwv2AyRZNY7QFRQ+usvvZmluLLypUOUQfcOEBUWVrWp/JK4ZqUQh+g30DtAVgxIVm/1au8A0eNYLytPIz6XPUBWEJH1WBHiuGb5QMUCRH8bKa4YcwEkCaBxHpAaIsQ1xrxIgNoaKMjkRGsbr218eICsUh7OxtSiLq5ZBQ0h7tzoHSAuTPP/46zJUlyR/+O/h4uLi/wBQn6FJDfxSWkPU7EQCvKvUn2qdI608lsJFpPOgfykbll6KyqhTCmtSmm9layWLrK0Fuoi3yAAkbjkPwB+UK0XxeVmbFpibOGDAYT8hCZiE1Ic+VXBxRUWWg8RKg4hXRV5z/7HW2Rps9VYk+R6HXSGNW6zjtlwU+1d1N4lT4CQGkypwdStZPUI0sFq3ANUjjRCKnqTTaLUUhitra3V1WQTWW1+Qz/UEIXPWV2bX2SV+VC3LfUrK3gYIgMxOkA4cNbNzLLwNxjGuHBFl62ooVT+APElaBaKO/uQGVoNQIiL5ayu9cfHxzoAvYWRKFb9hXNjX8iKU4RuxV+zrI+SMY512VxUgFBbzZhu75lu227djRGqG2sWALVtN1mz+bmsu1mX+KUoXogOEJ3UrXVbdjvDn0yRLjNKMf0q5bWMsuVsAUIkeVsDsbi4qCWqxaxjodRNTJMBxK7MumGPqThk/kqp4qIaa+mnBg+3YHAAIYJd1qCwuxBEV+HxizXHmw+64qbUKPXgkPLBQFgQESijUdKQjcwFa8fFmIWqtCgKIAQofnNyWbsxViFa9hYL0DjI6N/vILtu5PzEDhYWARAiIi2IboaHs8OclBVA45mobTnjnAfnulZ/B5+G3Oa2ZSunmSdbgMY+kXXOM25TUuMOjc0EMbC29IxcfJ4iAELn5+etOURM5XQAiXnqHEo8A9UrbUt3Lrut4gBCxDiWlpZafQKWtNKjyzcl2hH7yf2m61HuXygR67Zjj5qN44mUEeZqALq8Q7MCjjWeqofq5TNogMYhfb/33015wfxt6iWKXZVfr9Vm/H1pHUyKAmisg4OD1h2LlajG9jemw43vtrOz07RV6QIPvlyOW/RqARr7RuQEW+dElhEWYEYi4ZwwQJ8NB4jhADW+GmB3nXEAnNYrJe8miwXoMkh87ZOWDeFr8OUDFYn9gEWiG/EWts3WoSa/42946cBCnf802ZWAQ91WDQ23igfoMki83LakqxyM/CcyB2uIX1UHkB/VJdCYQ38iZkZarNSa31QlQJfFckSkl56N1k3GfRu+Fjsvljmi6SGbOwmgBMKP4eXi97BLYobo6vRavgzLEv4QSxOw1rQ8CaAJ/CccZe68BzACedZFtgQzgUTdZgWQJIAkASQJIEkASZIAkgSQJIAkASRJAkgSQJIAkgSQJAkgSQBJAkgSQJIkgCQBJAkgSQBJkgCSBJAkgCQBJAkgSRJAUlT9A+CB43lxzqj1AAAAAElFTkSuQmCC'
p30
sS'version'
p31
VV6.0\u02b2
p32
sS'uni'
p33
V\U0001f535
p34
sS'desc'
p35
V\U0001f535 
p36
sS'browser'
p37
V\U0001f535
p38
sS'annotations'
p39
(lp40
Vblue
p41
aVcircle
p42
aVgeometric
p43
aVsign
p44
aVsymbol
p45
asS'wind'
p46
S'data:image/png;base64,iVBORw0KGgoAAAANSUhEUgAAAEgAAABICAYAAABV7bNHAAAAAXNSR0IArs4c6QAAAARnQU1BAACxjwv8YQUAAANFSURBVHhe7Zo9aBRREMdnTCdopyB2ASstBEUsxCJXaKxUkByCJKVEgo0KNoI2glYWEUuDIlmF2MXGWzCdhdhoYwRLIa1Y5saZe3MaJV/7PnbfmvlBdmceR273v/Pmvb0ZMAzDMAzDMAzDMAzDMAzjD6jn+inKSQA6wZewDwhGdfRvEFaAaAUQP8LE2CMdrZV6BRqIAhN806f4pve4wUos8V+Pxbrn3PTUI1BRXucoucLfdkxHwiD6zpf+HLpjt3QkGWkFetE7DCP4mK3TbiAyRMscibMpp186gYryDt/ADc+pVA2iOeh2ptSLShqBit4s/+tp9epiCVZpGi53PqsfhfgCFeUiH8edUzMy5fpwIaZIu/Qch6J8ycdmxBEQD/EdvR7kvkjEE2i+fMDHS85pEBFpBB+qF0wcgWR/g3BTvRwYh/neU7WDiCMQ0X218gFxcvDgAgkXSJ4U4gH18oJgRi1vwgRyyfCiczJEdu4uN3oTJtAuzjt1bASDoPNqeBE6xfKNniGyqsm7oCf+AsmrRPbR85szeq5MSASd1HP+EB1VqzL+AgV8ae3IKjvfO6deJfwFynVp3wjE42pVwk+ggKTXGETr/6y7BSE5qF0g7larEn4CERxUqz1sVBjYAs8Iov1q/PfsnCnmiZ9AUqdqGwg/1arEzokgom9qVcIzSdOyWu2h1gjqdhZZpB/qtQT8okYl/KdY2/KQZ3HRXyCC92q1Aanpe+EvUJ/m1MqfgIcZVjgsynd8TFN3j4Xkym5nr3qV8Y8gx4KecyboGsMEksRH8EG9/JDo6UNQETE0ghiSLo5Ml3x8Elqnj9O80Ew3x+ZIZHfHvH4kW0uECGImOtf46L2URkc60PoUXFUV4ggkSG9ODq8gMt0Rb8dqgYnbHySVVmk/kVpUEzhxZnjxiLZHi99A1ZRICcQR4k2xIRLa0uUF8MYN1ICb2t3Y4gjxI2gtg8YBuspPNmUF9hXnv7uxexOHpBVIcK3AslmL25onyzjCM9+39O2SXqAhUtlEnOLpcDYwomQ7sZBamCH1CbQWaXwAOMJRMMpXsHn3vWsW/8qf/TT4BSHRVNqIZgRaj3+rtav0tm4xDMMwDMMwDGObAPwCsrvj9hB/zGwAAAAASUVORK5CYII='
p47
sS'andr'
p48
S'data:image/png;base64,iVBORw0KGgoAAAANSUhEUgAAAEgAAABECAMAAAAV8YMOAAAABGdBTUEAALGPC/xhBQAAAAFzUkdCAK7OHOkAAAELUExURUxpcUDA50DA50DA50DA50DA50DA50DA50DA50DA50DA50DA50DA50DA50DA50DA50DA50DA50DA50DA50DA50DA50DA50DA50DA50DA50DA50DA50DA50DA50DA50DA50DA50DA50DA50DA50DA50DA50DA50DA50DA50DA50DA50DA50DA50DA50DA50DA50DA50DA50DA50DA50DA50DA50DA50DA50DA50DA50DA50DA50DA50DA50DA50DA50DA50DA50DA50DA50DA50DA50DA50DA50DA50DA50DA50DA50DA50DA50DA50DA50DA50DA50DA50DA50DA50DA50DA50DA50DA56X4KWQAAABYdFJOUwBI9pQD1PMB+PoHAuRr8e/dJbIw2HzZqgpxGR7DQjLXnkHPmCpOhvxwdRMix2UX0BD9D/sNEhH5kYEFIWBV9U0YDGOHNO2K4ak3W2LeeokzIy2zXzpX7PC+nYVXAAAB10lEQVRYw92Y11bCQBBAQzAmgRgCCUUQEaSpgCiKglSpUuxl/v9LhIgoGCHZneOD9wPuObs7O41hVuBsNtr1660J1/V2o+lkiHC4qy0PJ3VqwoRaR+I8rarbYdXCX1X8igBLCIq/csVb0GyoSU4EQ0QuqW6Y9cS7PVhBrxs3pTlM+2ANvvTh+su58YiwFvHxec1VOYYKmGI0XPmApyUZTCKXTn/3nNsvwDQX9vPfPEV7ASxQsBeNPWeXIlhCvDwz8pS9AlhE8JYN3n3gAsu4Bj+jQNWAAN/dsiffByL8+aWDZVkyEZtdPNzRMRByfLSQN7wpUlHK+z2ruDUgRnN/Ex2ckItODr48uQxQkMnNRQmWRsQm5lVnH6jY/6xTwRidKBaciaIynUiOzkTbQMn2LBr3aEV7HzEZ2KEV7QR0UShCK4qEdNGuRCuSdnVR2EUrcoV1kW2TVrRp++8itMtGe360gET7ImifFi2N4CU2tFSLlvzRyhFegUQr2cw9h9RE8GOktgat0cJr/Yib0X4epz3W1J8N+8srTsPOlMc4IwTeUIM3ZuENftNR9A1lFJ0Mx08mh2Nl6EAZ1z03/F8tEPSVxu0IY6UxPd8DzpIFb+2DuIiyvhp7B96BntXIwNfgAAAAAElFTkSuQmCC'
p49
sb.