ccopy_reg
_reconstructor
p0
(cemoji
Emoji
p1
c__builtin__
object
p2
Ntp3
Rp4
(dp5
S'emojipedia_url'
p6
Vhttp://emojipedia.org/waving-hand-sign/
p7
sS'index'
p8
V137
p9
sS'code'
p10
VU+1F44B
p11
sS'apple'
p12
S'data:image/png;base64,iVBORw0KGgoAAAANSUhEUgAAAEgAAABICAYAAABV7bNHAAAYKGlDQ1BJQ0MgUHJvZmlsZQAAWIWVWQVUVVu3XnvvU9Shu7uku7u7S+luDh0qICChIKCIgKCgIqKCKCklCopwEVBRsQgRUVQMBAXkbUC99933/vHGW2Osfb4z15xzf2vNVfMcANhZvCIjQ2EaAMLCY0i2Rro8zi6uPPiXAAIYQA7wAOPlEx2pY21tDv5j+TaBaqPlvsSWr/+s978WWl+/aB8AIGsUe/tG+4Sh+BoAGDafSFIMANhRVM4fHxO5hb+imIGEEgQAR9jCATuYYwt772DpbR17Wz0U6wNAoPTyIgUAQNzyzxPnE4D6IUaibXThvkHhqGoGijV9Ar18AWC7hersCguL2MJLKBbx/oefgP/m0/uPTy+vgD94py/bhaAfFB0Z6pX4/xyO/7uEhcb+fgcfWikDSca2W31Gx+18SITZFqZEcWe4t6UViulQfCfId1t/C08Gxho7/NJf9InWQ8cMMAEAA18vfTMUo2MJM8WGOOj8wrJepG1bVB+2DIoxsf+FvUkRtr/8w3F+0QZ2v3Ggn4n5L5/Z4aGWv3Glf5ChCYrRmQZfSwq0d9rhCd+KC3K0RDERxaPRIXZmv/RfJAXqWf7WIcXabnEWQPFXf5Kh7Y4OwhIW/btfiKSP1zYHFhRrxwTaG+/YIs5+0c7mv7n5+ukb7HBAfP3CHX5xRtDZpWv7yzYrMtT6lz5S6RdqZLszzkhjdJzdb9vxGHSC7YwDMhPsZWq9wx/5Fhljbb/DDYMB5kAP6AMeEItWbxABgkHQyGLrIvptp8UQeAESCAB+QOKX5LeF03ZLOPq0A0ngPYr8QPQfO93tVj8Qh8o3/kh3nhLAf7s1btsiBLxGcRiGDaOJUcOYo09ttMpilDEqv+14qH+/FWeA08cZ4wxxon94+KCsQ9FKAkH/U/a3JfY1dgw7g32IncI+AWZoqx/a5y2G4X965ghebXv59d0jKJ30L+Y8wAJMoXaGv3rnjVov/NbBCKGsFTC6GA2UP8odw4RhAxIYebQnOhgttG8KqPSfDGP/sPh7LP/9vi1+/+zjLzlRjKjwi4X3H/56f7T+7UXvH2Pki36a/VsTyUauIreRG8gg0om0Ah6kB2lDhpGuLfxnJrzangm/32a7zS0E9RP0W0e6XnpBev1/vN3rFwPSdrxBjF9CzNaC0IuITCQFBQTG8OigO7Ifj0m4j+QuHllpGQUAtvb3ne3ji+32vg0x3ftbFiEDgMrWfnzgb5nnBwBag9Etje5vmVArANSyAAwe94klxe3IMFsPLHpqUKMrgxVwAX4ggvZJFigCNaANDIApsAL2wAW4o6MeCMJQ1vEgBaSBLJAHjoBjoAxUgRpwHlwCTaAVdIIbYAAMgVHwEDxF58YceAeWwDewBkEQHqKC6CFWiBsShMQhWUgZ0oQMIHPIFnKBPKEAKByKhVKgA1AeVASVQaehOugK1A7dgAahMegJNA0tQJ+hHzACU8IMMCcsBEvByrAObAbbw3vgADgKToIz4Hy4FK6GL8It8A14CH4IT8Hv4GUEIBQIE8KLSCDKiB5ihbgi/ggJ2YfkIiVINXIZ6UBjfR+ZQhaR7xgchh7Dg5FA56cxxgHjg4nC7MMcwpRhzmNaMLcw9zHTmCXMTywVlgMrjlXFmmCdsQHYeGwWtgR7DtuM7UdX1Bz2Gw6HY8IJ45TQtemCC8Yl4w7hTuIacL24MdwsbhmPx7PixfEaeCu8Fz4Gn4U/gb+I78GP4+fwqwQKAjdBlmBIcCWEE9IJJYQLhG7COGGesEZGQyZIpkpmReZLlkhWQHaGrIPsHtkc2Ro5LbkwuQa5PXkweRp5Kfll8n7yZ+RfKCgo+ChUKGwogihSKUopGinuUExTfKekoxSj1KPcTRlLmU9ZS9lL+YTyCxUVlRCVNpUrVQxVPlUd1U2qF1SrRHqiJNGE6EvcTywnthDHiR+oyagFqXWo3amTqEuor1Lfo16kIaMRotGj8aLZR1NO007ziGaZlp5WhtaKNoz2EO0F2kHaN3R4OiE6Azpfugy6GrqbdLP0CD0/vR69D/0B+jP0/fRzDDgGYQYThmCGPIZLDCMMS4x0jPKMjowJjOWMXYxTTAiTEJMJUyhTAVMT0wTTD2ZOZh1mP+Yc5svM48wrLOws2ix+LLksDSwPWX6w8rAasIawFrK2sj5nw7CJsdmwxbNVsvWzLbIzsKux+7DnsjexT3LAHGIcthzJHDUcwxzLnFycRpyRnCc4b3IucjFxaXMFcx3l6uZa4Kbn1uQO4j7K3cP9loeRR4cnlKeU5xbPEi8HrzFvLO9p3hHeNT5hPge+dL4Gvuf85PzK/P78R/n7+JcEuAUsBFIE6gUmBckElQUDBY8L3hZcERIWchI6KNQq9EaYRdhEOEm4XviZCJWIlkiUSLXIA1GcqLJoiOhJ0VExWExBLFCsXOyeOCyuKB4kflJ8bBd2l8qu8F3Vux5JUEroSMRJ1EtMSzJJmkumS7ZKfpASkHKVKpS6LfVTWkE6VPqM9FMZOhlTmXSZDpnPsmKyPrLlsg/kqOQM5fbLtcl9kheX95OvlH+sQK9goXBQoU9hQ1FJkaR4WXFBSUDJU6lC6ZEyg7K18iHlOypYFV2V/SqdKt9VFVVjVJtUP6pJqIWoXVB7oy6s7qd+Rn1Wg0/DS+O0xpQmj6an5inNKS1eLS+taq0ZbX5tX+1z2vM6ojrBOhd1PuhK65J0m3VX9FT19ur16iP6Rvq5+iMGdAYOBmUGLwz5DAMM6w2XjBSMko16jbHGZsaFxo9MOE18TOpMlkyVTPea3jKjNLMzKzObMRczJ5l3WMAWphbFFs8sBS3DLVutgJWJVbHVc2th6yjr6zY4G2ubcpvXtjK2Kba37ejtPOwu2H2z17UvsH/qIOIQ69DnSO2427HOccVJ36nIacpZynmv85ALm0uQS5sr3tXR9ZzrspuB2zG3ud0Ku7N2T+wR3pOwZ9CdzT3UvcuD2sPL46on1tPJ84LnupeVV7XXsreJd4X3ko+ez3Gfd77avkd9F/w0/Ir85v01/Iv83wRoBBQHLARqBZYELgbpBZUFfQo2Dq4KXgmxCqkN2Qx1Cm0II4R5hrWH04WHhN+K4IpIiBiLFI/MipyKUo06FrVEMiOdi4ai90S3xTCgV53hWJHYzNjpOM248rjVeMf4qwm0CeEJw4liiTmJ80mGSWeTMck+yX0pvClpKdN7dfae3gft897Xt59/f8b+uVSj1PNp5GkhaX+lS6cXpX894HSgI4MzIzVjNtMosz6LmEXKenRQ7WBVNiY7KHskRy7nRM7PXN/cu3nSeSV564d8Dt09LHO49PBmvn/+SIFiQeUR3JHwIxOFWoXni2iLkopmiy2KW47yHM09+vWYx7HBEvmSquPkx2OPT5Wal7adEDhx5MR6WWDZw3Ld8oYKjoqcipWTvifHK7UrL1dxVuVV/TgVdOrxaaPTLdVC1SU1uJq4mtdnHM/cPqt8tu4c27m8cxu14bVT523P36pTqqu7wHGhoB6uj61fuLj74ugl/UttlyUun25gashrBI2xjW+veF6ZaDJr6ruqfPXyNcFrFc30zbktUEtiy1JrYOtUm0vbWLtpe1+HWkfzdcnrtZ28neVdjF0F3eTdGd2bPUk9y72RvYs3Am7M9nn0Pb3pfPPBLZtbI/1m/XcGDAdu3ta53XNH407noOpg+13lu61DikMtwwrDzX8p/NU8ojjSck/pXtuoymjHmPpY97jW+I37+vcHHpg8GHpo+XBswmHi8aPdj6Ye+z5+8yT0yafJuMm1p6nPsM9yn9M8L3nB8aL6pejLhinFqa5p/enhGbuZp7M+s+9eRb9an8t4TfW6ZJ57vu6N7JvOBcOF0bdub+feRb5bW8x6T/u+4oPIh2sftT8OLzkvzX0ifdr8fOgL65far/Jf+5atl198C/u2tpK7yrp6/rvy99s/nH7Mr8Wv49dLN0Q3On6a/Xy2Gba5GelF8tq+CiBohf39AfhcCwCVCwD0aB5HTtzJv34VBNpKOwCaY3KhN4M8MAuJoed2L8wKx8CTiAlyE2OEeYANw9Hi+vApBE0yPNlz8naKCsoCqlriMxoaWjO6HPpBRlqm3cwXWTFsXuxdnDxch7hXeX35JgUsBQeFpUTyRd+Jm+yqkvgmpSd9WGZUjkpeVyFasUKpV3lKZUONWV1cQ0XTQMtW20cnWjdD77h+vUGP4X2jBeNNU0azXeZ6Fm6WQVZx1pk2RbZVdvX2reiqH3Iad37i8tJ11u3N7vd73rg/8xjx7PFq8K70Oeyb5OfvbxOgFigQRAz6FvwyZCC0LuxweGSEXaRSFFvUOulFdG9MTWxmnH+8SYJ4Inni26Th5MaU0r0Z++L3R6WS0pLScw+czujKfHmQLFs9JzK3Jm/iMHm+ekHYkcrCkaKNo7uOuZXkHm8pnSqjKFeo8DiZU9lU9fQ0plqixvHM/rPnz43VrtbxXDCvT7nYdOlTg2pjwZWPV92u3Wuxan3Qrt4Rc72u81k3RY9cr+ONqL7Mm4W3SvpLBgpvZ985MHjw7uGhw8OZf8WMON2TvLc22juWPK44/u3+owftD8sm9j7yeKz7RHCSbPL907Fnzc/LXux96TmlPy06QzPzffb1q4m5wdc35q+/aV9of3v2Xf5i3Hv3DwYfxZdolpY/TX7u/nL6a+Zy4DezFalV+tWV789+9K5Vr2ds+P3U3+Tb3ETjjwNs6O0wAfSjNzpz6Aj0EpZD715fEA9kAr01PcdG4oi4VrwfgY0wSVZBHkChS6lBZU8MpE6lOUV7g26BgZFRnymRuYHlI5skO4mjk4uC25HnAu8mv45AmmCP0LqIkmiw2EnxoV2fJRml5KSNZdxkA+Si5BMV9iomKQUru6mYq2qoSavzaTBqEjR/aL3XntZ5qHtXr1v/qkGtYalRtnG8SaCpi5mxubKFsCWjFcbqq/WMzZhtr12jfaVDtmO0k7uziYucK6cbzu0DutN3udd45HpGeNl7y/tQ+sz4tvsV+PsHqAfSBr4Ouh5cGOIXqhpGHTYb3hqRHekSJY7Oi5HoUzGkWL04xrj5+PaEQ4nuSdLJcPKjlIa9efvC9juk6qeppqsc0MgwznTOCj94MPtszs3c6byfhznyVQocj0QXHim6WDx49HUJfJyjVPGETVlYeV7FxZOjld9O8Z22rj5Q037m0znJ2qjz1+pW6lUuplzqbgCNOlcONPVfwzYbtWS33m7HdxhcT+/s6vraI9RrdyO5r/Lm9VsP+xcGVu5gBunv8g5JDWv8ZT7iei9wNH4sa/zY/eoHDQ87JwYfTTyee/L1KfKM4bngC+WX5lMB0zUzC6+E51xfZ81feHN7Yfrt6iLxveAHrY9uS6mfRr/IfS1e/rJiu3rtB8ta5vrqz/jt+GMALRADliAV9KL3elUoBmqFYdgCPgWvIe7IXYw6pgWrjO3DWeNm8ckEdsJtssPkPhTqlOyUP6lmiEPUzTRnaUvp8umzGTIZs5jymItZqljr2drYuzi6OLu5eri7ea7zNvPV858UyBOMFdotrC3CJwpEn4q1iuftcpTgkXgr2SyVKm0mwyQzLVsvFyuvpUCmcF/xpFKgsrzyqkq3aqaamTqd+qRGtWawlqzWuvaATqHuHj0xvRX9mwYFhm5GwkafjbtNck0dzXjN3pm3WKRamlsxWU1b19tE26rZwXZ37YscXB15HOedLjvHuqi5wq6DbgW77fYw7XniXu6xx5PT87nXSe89Phw+k76lfo7+9P73AvICDYIAOl/iQmRCFkNrw7zDOcIfRRRHWkYRom6QkqLlohdjzsa6xzHH3Ys/mKCVsJrYmBSUzJP8JOXoXvt9rPvm9relHk1LTPc/sDvDJdMty+9gbHZmTknuubyWQwOHH+bPFXwtRIroi/mOSh9TLdE7blpqc8KlzLs8omL/yeLKi1VDpz5WC9Yknhk9J1y77/zEBYn6jItPL8s0ZDe+aFK8mnftZYtc68G2Zx1y13M7Z7rVe0p7v/XZ32zuFx44c0disH8o5C+BkcXR2+NXHtRNND6+Mfn8OXgpPV37Kms+923rB+pP2cssq83rTlvx3/kdbqvgFAE4OwuA42kAbNwAqBUHQLAcACIDANZUANirAFi3AEBPTgDI6PKf84MKCKMZtD84iGaOg+AdRIRkIAcoCToJdUJPoXU0v9OCveEs+AJ8D/6KsCM6SCByBGlHZjAUGAWMJ5qRtWFeYemwWthw7GnsQxw5TgeXgGvCLeJF8AH4WvwCQZIQS+ghoyBzJbtIDpE7kzdRECnCKcYplSlPURGoSFQviKbEdmoR6jIaKpo0mhXaCDRf8aF7Se9NP88QxvCNMY2JyHSSWYr5JosbyzJrIZsM2332eA5OjlHOg1y63ID7Bk8mrwUfK98b/usChYLBQobCgiKUIsuiM2Lj4rd2dUhclWyUapBukmmT7ZUbkn+h8EkJo8yowq8qoSajLq0hpsmjRacNa3/Uearbo1etn20QYehspGssZcJlSm2GmK2aL1m8tZyzmrGetnll+87ui/2GI5kTs7Owi4qrhZvP7uQ9x9wb0XPsvTfRR87XxW+/f01Af+Bs0EYIXShvmFi4ZIREpGgUH4kpmiz6R8xCHFu8RUJGYk/SzxSDvcX73qVapF0/IJ/RnmVycDbnYB7vocv52gVThYXFzsc0jpuciC/vr2Q/RayGa76f/Vz7oW6xfvHSx4blKxvXCC3sbVId+p0u3UG9cX37bqUO7L0Tdzd02HMkb7Rt/O1D3kd7nlQ9ff1CZipt5uGc+Hz2wvyi0YcLn2i+JC+/X/X/Mb8Rub1/UANJYANiQRnoAa8gCkgWcoMy0Ix/CPqIZveqsCecDTfCTxAEzdldkEzkCvISQ4XuKiGYcsxfaP4tg/XFVqBxp8aZ43Jwd/DkeAt8EX6SIEggEfrImMhCyQbI+cnTyecoTCk6KMUpq6gYqQ4RccR0akCdRoPQZNMSaY/T8dE10GvTP2QIY8QxVjPpMM0wZ7FIsEywprFJs02xF3MYc2I4+7gOcBvyUPJM8FbzRfMbCnAJrApOCLUKnxI5Llooli+ev6tIokzynFSz9B2ZF7Ir8owKqoo+SvnKXSof1QTVPTTKNZ9qc+n46jborRkYGOYZDZlgTZXMvM2zLM5Z3rCatF6yxdgx2Ys5aDu6OEU7F7hcdh1x+7SHyV3Dw9+z0Kvb+4Mvv5+zf0HAQOBGsHxIUGhl2FgEHCkb5UnKj74e8yaOOl4pwTMxL6kteX4v8z6T/XtTm9LeHuDP2JNZlvU4mznHJbcy79VhifyEgoFClqKI4uFj0iXlpcQTOeWUFccqhatunw6qoTzTdM71PKausd7jEs3lm40JTVJX3zTXtga1S3R87uzoTu8172O+OdvfeDtl0HSIdXh0xOHe7FjSfa4HIxN5j+0mhZ5Bz2deDkzXzxbMkebtFtjfVi0Kv7/yUXNp5LPHl4/LqSvUqyd+cK1VbbD9LNiOPzPQAZGgCtwDm2js/aETUD/0BeaDbeEMuBVeRHgRZ3S9D2IQjCYmCdOKWcYqYOOwXTgszgpXjnuLV8Mfwb8h6BPOkBHIIsmekZuT91IooZHWpRymcqF6S9xHzUjdSGNF84m2hE6TboH+JIMdIxXjXaYcZnMWOpZJ1rNsJHYdDnqOd5wDXGe4s3hCeO35dPhlBYQFuYXYhdlEeETFxVTEzXZ5SaRIlkl1Sb+SJcqpy5MULit+VFZQSVMdVxfRyNB8rW2u06onrn/GkNeoxkTUtNlc3+KxVaQNpW2jvRu6Xrtc4tzkd6+693oe9nb3VfSnDHgSVBZiEroQnhixHhVDmouxjr0aT5tASnyQrJpyeh/F/oTU+XTnA8OZulkd2fI5LXkahwbzXQreFe4rpj1aXSJ1vP2EZllPhfrJlirsKfPTx6pfnhE7G3+u/zxjnf+FjovES76XOxsZr0Q2DV0TQTOf92027a3XuTqzuj70OPXe6BO/eezW5kDw7QeD2nfrh5n+ih65O8o+Fjh+8f7bh/wTTo/SH59/cndy7un6c5oX3C/FpxSmVWc0Z7Vfac9pvladV3ojsyD2lu8d8d3CYvv7+A8KHxY/nl1y+UT+qfOz/xeaL21fdy+D5epvut9mVvavcqy2f3f4vvTj0JrwWt+6+/rqRvFPqZ+Dm75b8Y/2l5PdPj4gSl0AsC82N78IoUlFEQAbhZuba9Wbmxs1aLLxDIDe0J3/drbPGhoAKmr+038s/wXZWc58Q/jF5gAAAZtpVFh0WE1MOmNvbS5hZG9iZS54bXAAAAAAADx4OnhtcG1ldGEgeG1sbnM6eD0iYWRvYmU6bnM6bWV0YS8iIHg6eG1wdGs9IlhNUCBDb3JlIDUuNC4wIj4KICAgPHJkZjpSREYgeG1sbnM6cmRmPSJodHRwOi8vd3d3LnczLm9yZy8xOTk5LzAyLzIyLXJkZi1zeW50YXgtbnMjIj4KICAgICAgPHJkZjpEZXNjcmlwdGlvbiByZGY6YWJvdXQ9IiIKICAgICAgICAgICAgeG1sbnM6ZXhpZj0iaHR0cDovL25zLmFkb2JlLmNvbS9leGlmLzEuMC8iPgogICAgICAgICA8ZXhpZjpQaXhlbFhEaW1lbnNpb24+NzI8L2V4aWY6UGl4ZWxYRGltZW5zaW9uPgogICAgICAgICA8ZXhpZjpQaXhlbFlEaW1lbnNpb24+NzI8L2V4aWY6UGl4ZWxZRGltZW5zaW9uPgogICAgICA8L3JkZjpEZXNjcmlwdGlvbj4KICAgPC9yZGY6UkRGPgo8L3g6eG1wbWV0YT4KLqSt0wAAGDVJREFUeAHtWwmUVcWZ/t7e7/W+QtNNg4BhjVHUMTFxQI3JRI1KjOYYcxgTBz2IEzfGk5m4Zo6JjtskbqPjRE7MZIZMjMvRODFCooImoAcVVESQpqUbupve17fe+b7qW4/bewNRyRnrnPvqvaq/6tb/1b/V8nwOEz5JoyLgH7XmkwqDwCcAjSMInwD0CUDjIDBOdXCc+o+1+o477kA8HseKFStQVFT0sYzlsFaxiooK3H///TjzzDOxdevWjwUgyM0fzonAOIsWLXJmzZrlbNy48SMf6mEPkBBpbm52KEXOzJkznS1btnykIB12AKVSKeepp55y3nzzzUFACKRTTz3VOfbYY53du3cPqvswf3xkAInxRFenk4zHx+QnkUg4F1xwgUP746xatWoQbV1dnTNv3jznnHPOcfr6+gbVfVg/PhKA9r2z0WlafZnT8etvOF3PXOq0r/8pweoYlaf29nbn+uuvd/Ly8pzbb799EN2GDRuc8vJy54YbbhhU/mH9+NAB6mtrdXb+2wWO88fzHGfzJXwudZx15zltT13u9OzeNiZfDzzwgAHp3nvvHUT38MMPOwUFBc6zzz47qPzD+BG4ielQ/SfVBz273kGqux3B/GL4fL5sl527d8LZ+Wvk1xQCgWKWM4/mIyevFYl3X0QqNhuhwvIsvffLcccdh1AohBtvvBHz58/H7NmzTfXRRx+Nbdu2gSqIJUuWID8/39vsz/rdJ9QPpcdkdxf2PfcviKXfgD8UQDo8G+FP/y1iU+eabnvbWtD2xGWo+jRDrgiB8BXwCbAuAaSb0LUzgcCx1yFWPcD80LFoeJdffjlouPHcc89h7tyBfuvr63HyySfjtNNOw3333Te02aDf8X0N6Nu7A77cEhQeMX9Q3Xg/Dhmghmf+FVPCa4HKyWQ8B0h2ob+hD/Hyc1F4/Hnm/Xt/ex8m+/4XYOCHYAnLoqRl5iQJUiO66wIIfPZGRMurRxxvZ2cnzjrrLCNNTz75JGKxmKFbvXo1Lr30UjzxxBNYvHjxsLbJnm50bXwUoc4XEUQXEr1+JGuWouzErw+jHa3gkCLpnpZ9SH7wIlCSx/71UIVCU5AzrQy5Hb9A57oHkab6FR5/Pva1cKmQ6gEyvaQjMELIFyZgFcirjiO14TbE25pYPjzR3uCuu+7CG2+8MUhazj33XJxyyimgwUZPD/v2JIHT8ftbUeJ/HvkzSxCdNRuFC8oR2PkzdNVt81CO/fWQAILPj0yKL0ilyThVxmHOuSJiCFZOR176d+h66W6ECorhn3cRemvbKTFdpCNIjhoqRQjqZORPbkP8lVuR7O4cKB7yuXDhQgMEvZoBStXBYNCUvfXWW3j88ccHtWh9+RGU5b8DlNawvJTv0wQWoXhqCP07OKkTTIcEUG5JCVIF1Ok2zl5aMxjnI5NG6XDy4S+rQVF4I/rX342C+YvQV/JV0nYQTNI6/XwEqBJVM1KJgvJG9L18B9J9krLh6eKLL8acOXPwgx/8AIyXDIEM9s033zxoMdvdUItQ8/PEpYw0uXykz0qcvLwY0s2bIccykXRIAOkFpV/4Jna/R2Di3a50SJIIkvFknLWiqciLvEbGf4yCz/8d2ntpZHsJkkN6ASqQROujXYpORkHeVnSt/zFSLgBeJqLRqAHj+eefx5o1a7JVMuJa0NrUV/sqisv1i33CyyLf4w/An+pEhrsEE0ne1hOhH0ZTMmMufPMvQk9tG1WN6iPpgGbHShJnML8K+YE/IfHavyNywpXo2EO3nHAlSbROxu2XxregCgWhjeh+5SFkMrZ8/2vluaRmJZTe0VJ63zvw5VMqEeJjpcdDzUmZqPM+ZID02srFF6A9dBLQLimiDXH6BiRDIEk6HIJESYql/sCY6Bn4F65E9y42TNImGUBltJlo04gm/KVTkZ9ag07akZHSJZdcghNOOGGkKlPmk52jfRoODqU1nUIy4WOkoVBj/HTQAHFNhe6G943n8fv9KPvy1WhuqQYYFyEtFbI2Zr+6+UqnI6f3N/A1b0R63hUMLglkmiAZQCVJlrYAgUnVyO15Ch0b/nt8LoZSpKnmfknOEOmROlN1U5EyBCN0DhNIBwWQ3GTLr6+Cs+FaJNddg441t8DpaUHeaTehdU8x0O+CZG1MdiC58JdPR5SMB3q2IzVzBfrl2ZKtBMejmkaSChGqqka0bTU6X38q28N4X6Q6+9WHgGeT1JWS2h1nQH8kNKkTSROj8vQk69+y5m5MntaE/FmlyJtRiMLibXBe/T58nXWILr4Z7XXU/YRAoropYs66dHWUi0D5NEQ7n0Ag2YS+KUuRqGvh2GnDBkmdhlaEcNVk5DSsQueW36nxuEnLHEfeytgvAeSCJOlkYNrXRYAKpozbjyU4YID621oRSu2lZ6aIKrZwSuiiOdPTC+B75zb4uncj9Lmb0FHLGUsSoAztkiJmY4jtjOYZFYp2/AqhcADdpecj2bCPtp1AGXVzjbNvIKYK15Qj+P6D6Nr+qh33mHlGHjEhR0GVyia9O43+Xgehosps6XhfDhigcG4eMg7BURwhxs0MkRECFZlahsCOuxDoJ4AL/wld79OVJmWPpD4CSYO0tqGQIE1BuPFnCOeXoivvLKT3CiSpm9fIs29fKWKcAGfzT5BobRyPJ2QYLqBfY/N4QWOO+H5/DkL5nNQJpgMHiOugeP5ceiwGc/IWJjhk5s52aEo5/DvvQZCGOj3vKrp/gpOSt1LcYwHV6Dhin1SoEuE9P0WQXq4jdCqwjwCl+Rj7JUD1UGUD5SiocdD/6k+QGiWQJKFJIfaV6JFqS4LU3k1SP44zEFYIMLF0wACp2+LjzkXd22TcBIeSEAVdGgi7c4rJdAUitfciFEihf8YK9LxPVTMgsY3DgWcHTVfrL0O4ugI59T9FoOxTaEv/FdBKgCRJBnzLIKU2p4KB5Hvo+eO9Y0bCgYIKxqKcDB8BysZYEiE/nRvL5OUmmA4KoNIjFyBRswQ9O8hEgsyb2Md9qfFAXIuR6fCu+5CTE0S8ZhlBon0RSNalG/F3QRVIU0sNSL6yBWjtnsMlCftOUuUMoFIVMch4ioGkgs6e9fcjk/bamP0chwrKkcwoimb/isNMksQGuSOQQKKtwS0bPzsogNTt9DMvRX3yWGT2UoJkZ8z6yg5Y3ZYgVD0Jwdr7Ec7LR/+UixCvlY2Rt5IkWVr1RjvjL0ekuhg5jT8Hyo5BU8MkoLmZE8AVflZCxawbSGb+gPaXCNII0XYwHIXjVxStCfAARFXNLY6gv/5Nlk8sHTRAwXAYU5f8E3a3zwQ6aV+4vhlYpVvGqT6+YjJN6aAkhYsno7vsG0jWCyQrSaJ1VUg2jHYmZ0oMOXv/B/2lx2PH29wt2EuAEmxjPZKJzAuI51QUptdi32/vQH+37Nv+lGIcxjU7CwjOIBXjO/IiSDRsyi5297ca+dtBA6TuooVFKD/jBjQ10mv00GCnZI84MEmH8ViSDNmYUkR23INw+Sx05JyOzB6BRBWy3srQskMf7UxoEmI1Ochv/g2SRZ9B5172laaNyzIqOr09n16wCuXB9di7+io0vfO6Ck2KN21HLJ/tMlZ6bA3Z5RZuxGlFvJ2SPIF0UHvS/e0taH/rJY67F7HKIzjQheja/DKieZzJAAdlxJuDMfqvPAeBQo639gX4pi1BV3cIsR4uKKOsE62kx9gujtgnjxVCNLcbkd56xMqibFvAMj7DUpjbqAFuqTSief3TaK1rQKq3E74dv5KpAsK0WdrlNH0LLElrH/o4QU7F5xErpRqPkw54yzXV14cPfvWPmJSzlRMeQyJnPqLHLEMqmUJ63feRP50GNaeYjHPFrs2w7OAYN3EPuq+OW58z/x6pnb9HaXjDwJ5NqJS0YkRMuLOe4Qwn+Pi56xgqZzH7EoNG2sSofegcpII9nXBayXx/CrFy7grk5/H1ZWzPXBOgpLiNW7xtb9QiseB6TFq42BSP9cEpPLDU+u6rKEq8jtisMkRnVKCwfBcyr94An7Y6jv0etzMp2vJsZpXOwVv1kSGmjYnW5CK8414Eak5Ca+8CxlNUNRluEyN5xuKnyOVUUwqmDAFHHk0P32MeAhrkZOQykq8sRGwaJyeXHiwowAWMlRx+NaD6kBMNcOeXdnAC6YABktfIZDh7GqPDQYQqkTM1giCXGeFQGpn5V6N3F73UoK0MzbYS1cc/CdGpUYR3Pgj/tFMY8tQQJEpAmiAN8mwaGqXHbHixvbFBFhhF8QTIPCyTlAZcNdUiNMh2AYIkdc1umFmJcxCJBnlExXdOIB0wQPnT5qO1p4ShvLYqCISZlVKuvLUWux2RnBCSs1agdycNtoy2cf9kaADRgUEHKngsFEa4bhWcmtPQVE/70kGXrq0P663s4CWBBjiB4wHGK0UZqY7eQWnxEygjPQJXntTtyEiyDHcG/ggB6mx0K8bODhigXO7zhj/zTbS/S9VI0iin5WI1OyWMoLm+2n4XF4MVSEz7DhIfSH3ItNmkl0q4yXqraj9ijY8hXXYiOnYRgD7Oqol5RGdn3KqSC04WGAuWgBEN6WXDBJBOS7LSk0WIJKSTJIb88MUZuE4gHTBA6rPqpCVo9H8W6T1k3kiJ3WRncFhZgNC2OxGpOBLdhWdzAUqQzAaa7JGkwKYB9YxWplHYu4bOjEbYrMA9NFZyLGMWHPVjVU5bKYaO/UrVDECyPQLKgqN3ql93kriDEEw1c+tDa8mx00EBpOOWaedci/d3M/7ZR4NsYhqBpAGV8RQnBv9Wqtu0E9AWWEQazlZ2AeoBQC44p4qGNYb8ajKaRwOrMq9amb0ktXEZtMCY3ywzqiNpYxJARnIEkMbiBYg0pl/mtFORzF70fPCuWo2ZxgWoqanJnFwmk9RzT8opKkbF2Tdj+7tkqIMzYTa8aJeUfGWIVMUQ3P5j5Mw4mTZrLmlohCVJ2W0PlymFAmECXTiNeQXrxZzAUL3N7XcWmXI3V7GPHwYkfZfNkeToGcqapw/WlZYH0b1tnToaMw3tZRhxK1fWy5cvx4MPPjisrrCqBsWn34TaNzn7OvAz6yxG0q4kRSYHEf7gYYTnnIPWZsYyPa66ZV26Bi1ygqy4SbNvJMRlxqiOvrt0FgjTSB8WQFtAiTHn/gTKKz1u8/30PviL+M7GTYgPOZG1Pdl8GEDaUtXFALuvqxsV3/3ud815FO/m2HbZvHTWfEQ+vxK7XydAZi9anohLA7lXXznCZWmEG/4ToXkXomsPBxUnSMaziTmvCqhLF5hsbsuUK1lOmVuwTM7fxv4ImCHgZNupDd9p2wUDCKd3o7v+fUMx2scwgBobG82VEl0IUNIe75VXXomTTjoJy5YtQ0NDw7C+Ko9bjMyC5dj3Jr1QnOpmNtKkkhysn9sepX2INLO/I5eir4GGMiEPInW0DKtLfbe/PYyoalCydJbWWylwNDHD2NoPjCUnX4WMRbvrttiSEfNhPenq7VFHHYWVK1eCV95MI51o3nPPPUhz/0W3KXTbYmiqOeXraCv/Gjq2EqQEpchs2MsF0x4w7gkXtiHSsRbxki+jv471/Vyla2FrksuslYZBYLkkpswaXqmSR/oMIBYYsTQSeBZYtz+2jxVG0Ff/ln3BiPkwgHRh6Uc/+pE5677mmmvQ3z/ARFVVlbmwtGnTJiNRttzb64yzV6ApuBjxWqqRiaTlRuWGaVsYcYdz9yAnswOdmblcEpFGMZKxI5bZIUwMYtQLiuhtG41AdQKIEmSA89apXkkqbftnPb/66O6TLXXmsrohGeFjGECi4R1AIzFr167Frbfemm2mG1+rVq3C008/jauuugq8SJmt05cATyunLlmJ2va53Mch82b7Q9G24g8GbxFejYl9gKI8qpiJV/R6lxlrG1gyUKbyoc/QOpG4fRjjbOlF500uMHqHvtpEMJ1EL8MoNz6y5Z58RIBUf+KJJ0J/Bbjzzjvx6KOPZpt88YtfxCOPPILHHnsMl112GddSlARPyuGm/tRzb8COXVxJt9KtS5KyRzkEKcaTjIo0161FRJRGwIDgMmD6cQEz5SMNz9KKTvV8JDWDJMeLgjq1bZjb7lWcolQFo5wrmoFR0kgjyJJedNFFuPrqq3HFFVeAFyaz5WeccQZ++ctf4oUXXsDZZ58NqZ03xUpKUcKNtB2bOQBtpJnjZamqxJyLSK3QGSAa955taEeu3GXYFLm/LWDW3hgaFxwDlCFmW4IwSBr1AgHEd2coKR475yQ5UQVUfe6OjpbGBEge7LrrrsN5552Hb3/721i/fn22n8WLF+OZZ54x1+G+9KUv4dprr0W3Z+uzdPosxBZ/D/WvU4qM+6dh136M4ZfBoYl41Z0Gb0Gw3WtYlmHvd0tr6ZSTLgua6m2y35UTHBNTKedPo2oOkj1JHjdxssZIYwKkdjLad999N6Ra559/vpEa258uVOrO4A9/+ENjzPXPHG+qPOYLSM9dhvatMsgEyJyyDtV3FwiT6cP9bXIOL1uuobpgZdXJS0/OjXSofwuORmMBkrOQBLt1pG1r6Udk0kwRjZomvKMo6ZCL18Wlhx56yFyqHLXXIRXv/dctmBZ5CeFpjKbDJeSzgBTeufEw5GXCMOMynC0XrWXagi3GLXhUF+0WmM0ykZJG4YTCjhSditRMRplLp+2vtKHga/ej4sh5JBw5eUc5MoVbylvvBhhJ0dKlS40BHyoxo3Uw9atXYEd9JdBCg62bHOaUVUzZ5JUEW2Zz1bnMW6nKSpkt97LhAuiq0YAHpWpr0asjIiNl7JJbs70+HkRW1tgXjZgf0Ka9jJnsjcC65ZZbsG7dOlRXV2PKlCnGxY/4BhbqiMhfPg+71jzLEIKzF+RATdwy0qLS24sFjkwbtbJ1AoF1qrYqY6pUpkeA6REgBCdDyTEnI2wnSSRQicZutISPR9UJp5mWo314oR+NZlC5Yh2tzRQLad124YUXDrJLg4g9P0pnfAqxRSux7WXuHHZR3JOMhTI04GLAzqqH3uWeJULBfbK2R8NWmQVC321yQTCxl9SLdjGjR2DpYT0PGOp39qBo3l/bRqPmE7ZBI/Wgm6b82xJqamp4R1xbFeOnrU//HKHN92Hm5yZxc53HMhHGQsYmMdq2AAyyN7ZPMqtk6sioScpdppUbaVI07fZlpSfFvSptyQok2Z+2Xry2KYp5V67ivyK4izBGOmAJ8vYllVN0PVFw1HbOmd9C3xHfws4/NnClyCi7Xx6OT/bAUYwqeSTH/HaHakC0wx4qWVaSBAZ3MDM0ztYwS3IEEKVn7/Z2RBecPi44eq19kxnCR/Ux7/zlaK9YgroNewgS7UOcqmZPWrOSQIYMSHZUYl7DZW4lzatm2TKCYLZhqVZpAiSvJWBc6cm09aO2tQw1i5bYjsfMPxaAdD/w00v/Ac3FZ6D2TxYk7UpKknQIQAkw6iKQlKxkKHeBGrb2sjQCiNKTlmGWgRZA7Eeq1ZvA1k0tqDh1OfLGuEZsXul+fCwA6d3a1z764u+jZdISbF9PkDrIUD9VTqcN9pasAYqMDZIqtRZwfLJSY8sIrOyOPFYWHAIm+9OXwJ4t+9Az5XTMWPQVNZhQOiQjPaE3jEOkncvNqx+Af/N/YP5nJ/FCiNZqNLI62wryCFlHON5dQoGS9XoCShJDEI1aCRwFhbJB+9VKktP8Tiveix+FhSvu4H/V8sYZ1f7qjx0gO5QtT/6M/+m4F8ccX8T9NXq3MGMkc0JKsHQ+b/Z6JPBeobfguAAZqSE4aRcc/cmG1353b2lBbeooHL38tgmrlh3XYQOQBrTzlbXY8/g/4zNzHOROpfuNEhjdiA8QFP7HIguSUS02MJLk2hcTABIQY4wJEM/YMrzM8PbrLeirOQsLvrWSN0YI/AGmwwogjb1p29t4b/VtqA68jZq5pfBxWxQhSpNuzuvcXeB4AZJtlhEWWJIcSQ0vcLbw6HtrXRhFi5Zh/pnfPEBY9pMfdgBpaL088dz6+MPo37QaRx4RQEkV71XnU5r4l88BoGSHSGjtkcDR5ldvEp17uvHu1h6kak7F7K9dhpKa6eryoNNhCZDlpuHtN1H73C+QrnsZpbEuVE7JQ7QgzP9Z8C9NwQFblOamV6IvhY6mPtTVJxAvPRrT/+Y7mHb8F2w3h5Qf1gBZzlp316H+tRfRsmUd4nve5UX1Nvq1ODWLm16ZEHx5lcifeyKqP/cVVC5YaPawbNtDzf8iALJM6thJ/5NNx/u4kmCsw+QLhniLthB5paWW7M+a/0UB9GflfIKdeYOKCTb5/0X2CUDjzPf/AaX0+GFdKs0dAAAAAElFTkSuQmCC'
p13
sS'twit'
p14
S'data:image/png;base64,iVBORw0KGgoAAAANSUhEUgAAAEgAAABICAMAAABiM0N1AAAAaVBMVEUAAADZnoLZnoLZnoLZnoLZnoLZnoLZnoLZnoJ3slXZnoLZnoJ3slXZnoJ3slV3slXZnoJ3slV3slV3slXZnoJ3slXZnoJ3slV3slV3slV3slV3slXZnoLZnoJ3slV3slV3slXZnoJ3slU0X0/xAAAAIXRSTlMAMIC/zwBg3yDvEJ/PUABwQBBgn68g79+Ar78wj3BAUI/jHcIwAAADkElEQVR4Xq2XW5eiMBCEB0K4BIOKgDfUCf//R65poUnb6Zmz7tYLL/qdrq4ymC/U9XTZTM3H+pqf7XHy+ldQfwHMP4Ou1fQ7yNTOZVZL+no+rhNos73vPeDul8WQJnNe+Q+gvgLM/WXyUMVNdu6lUgbBfg4zZhJMWjcrF0HtytlWkwAqhwCUF25IDQMdvS+P2S/jnGFZRMotSvQIz8y8gWDTd8/ZAOXYAoTqhpxOLybTN9AJBkLOiWCYscGYxaR6A/lVb58g8FVdCYAbs7pzAmjzcraFCjxdJYr1LmXGvMY3kAfsG+hStfcuWMiJixhzQ8l65AXGrmvvhgCUIWinV5M3HQP1sOcnx+B3IsZGvaanWCFxoKPPK2egHXIKE6an0wFqSUF+Q234i3LLJ0wRNWZ1jbUMQHfYeOis0LNG5KTR9FIC8qU8N6GzjhnL4ukpAoJSEmcpM5aQ9DoXBUEp0VkQWkeMsfSYtWVFuaO7tswYT4+BwBnddVhjMb0AhDJBKtTYTY/MGGbCQTlxTmospRcHKbLrkhlj6VkdBZUOZQjWiulxELVSEGOdmJ7OlapLBsrCHSZBwiS9sJY1nl0hKHGoNKTaX9MrKah2KBts2tVCegaHvhGQnx8dWI0WUHJ6KYKwRIEHoxgo13U0PUtAhSOq2UxyepgaHQjnpSSaXhKmR0AxIwl1K6YXgnax1eqUuhXSI6DOcSmSpJxeCCpdTDs6EjPGTkjMno+EADE9CupcVAkWh6WHxihoiINGNir77REQd4CDlxG/NvBOQBg+V2TWYcf+2cgg/sIQ0nsHpR+BOv1/QIPhoNsnIKtB01N4O/pkR53+G1Cps1+M9QRk5Phl0y89npwLghqh2YoVg70bv+FGhKBOKIqUZ4GJ+StRu4JycUWyMXQ27VeQEYJJOINejC7w7xNBzBt5JzNlyGnhjoYgoQBKGggPob6CzEJQo2KfVz8b22/mgfwDQNGRVBk3pijnu2l6BPEtcbFDqPccuHxCKREkvHrEQ6itpuUmdPClBBAzJ6ue+3OZgHNtZmcPBGErJeF7tX98HyfQBqp4fnIqTI2RJM606hucQJdOAOIkmbOCLq8ibudVEVBjf9x4bTSCzi9M731BlyioKZWcu11OxMuh3QPlcZhALTY7kC3EcYjQJB4jTDlHDXWptQA64o+WKxmzkNLlOA0DVSdwiSAms7ulIJtoQX5ZD/TxB6drvG+e4D3kAAAAAElFTkSuQmCC'
p15
sS'gmail'
p16
S'data:image/png;base64,R0lGODlhDwAPALMPAPuuYpVpPv7JkPvpt6WJYxcQCnBNK/76yG1lV/7bpEgvG9qzf9CLTMGiddvTpwAAACH/C05FVFNDQVBFMi4wAwEAAAAh+QQJMgAPACwAAAAADwAPAAAEa/DJV+hEaM5iuH7ZpSxGU2lh0ZQGYXygojQBwQQBjNV3XyGB3yzAQACInEEOpEIsCIlBQkEQnCSLxWF7EDAWgOujcUgIAGhBgiFGdAFnQTeoKRwGgnP0CCOb4V5iEgUDeHAACjASBHh5iB8RACH5BAkyAA8ALAAAAAAPAA8AAARj8MlZpr2lhKKuVY0RNpXHLQbKlFZBGABsrB6YGsLcYQsSA4FVAUF7FBwBQWOQECgMh43keKhWEyIA6zgAeL+CwMUxEAi8gkPuQjg0AemE9oI4MOFyA2tKPp/1Hg8EZWYAOxMRACH5BAUyAA8ALAAAAAAPAA8AAARo8MlZXqkzT6XQ1VSxKCOBZUVgLKvRnFsTMAhgMLCEEERAMDPQQ8Za+AKggsMxcCQEtsJOISkMDokrtnPASRQDKGAMYCy8FgVWIBYMANTNYfAEXBPoquMAFdTjGQRhAGIKOQ+CflCAEhEAOw=='
p17
sS'related_to'
p18
(lp19
V\u270b Raised Hand
p20
aV\U0001f450 Open Hands Sign
p21
asS'name'
p22
Vwaving hand sign
p23
sS'known_as'
p24
(lp25
V\U0001f44b Hand Wave Emoji
p26
aV\U0001f44b Waving Emoji
p27
aV\U0001f44b Hello Emoji
p28
aV\U0001f44b Goodbye Emoji
p29
asS'default'
p30
Vemoji
p31
sS'bw'
p32
S'data:image/png;base64,iVBORw0KGgoAAAANSUhEUgAAAJAAAACQCAYAAADnRuK4AAAOZElEQVR42u2dL9QNbRfGBUEQBEEQBEEQBEEQBEEQBEEQBEEQBEGwliAIgiAIgiAIgiAIgiAIgiAIgiAIgiAIwnzr96w11v3t99r3nzkzZ+acs6+1znpfnHnOeea+Zv+59r73va8LBFbAvrgFgSBQIAgUCAIFgkCBQBAoEAQKBIECQaBAIAgUCAIFgkCBIFAgEAQKBIECQaBAECgQCAIFgkCBIFAgCLQ8/Pr1q3v79m33/Pnz7uHDh92tW7e6q1evdnfu3Ol+//4dK79rBIIQEOHo0aPdwYMHu2PHjnWXLl3q3rx50/39+/f/3vvjx4/uzJkz3b59++SLa1++fLn23+HTp0/ds2fP9l4Q237vINBEuH//fnfo0CGXEIcPH96zLF+/fu0+fvy4RzLvvenr/Pnz3ZcvX9b2e/D9Dhw48O/zX716FQSaGrdv364iQ/9KF6jmtX///j2CDnFrWDosYAvu3bv377PPnj0bBJoSWJUWMqzyunDhQjN5Tp8+vXftzZs3uz9//lRdB1GPHDny73Pfv38fBJoCjx49Go0cLPSTJ0+6Bw8e7FkAz8URm9QC10csln7Gt2/fqq59+vTpv+uuX78eBJoCXhBMAHzlypW9+IEguuSelHX48OGDdHXEUj9//qz+jhAuvR5ivnv3rupaLF7vcrFmQaAR8fnzZ9eSpJkL/5/LtnLxCf8Gwew1ly9fXsnN8jOxdKUMKw2o7969GwQaE2RSypqg66j0/uTJk5JAJTJ4brIlMIYoBMP2Z9SQAm2qt1ybmtIvkkDEEnZBsDS596eBafp6/fp1c5bHz4KYLQG1+nxF+BS44f69uNUg0Ej4/v37fxbjxIkT2WsgiiIQ1+VSdJ7848eP/+c6rEMLlEskpsrFN8Rmm+7GFkkgbqwKnku4du2aJFFpcbAU6rpWq6BcIu4t5576GO7UqVNBoFG/mBAIiY1yIINKU+s0fipdS2ZnryO2ahUYVWaIdFAjLNbKAEGgDBDWvMyKckaJCKjK6tpz585lLQGuRpEvt/ie+1VlFy8e4vcdokMFgUQsggtSqXULibyYhhdiYg6PHz+W1osiaAtUPEbdzXPX/e/cKiEEgSqCYPUi48m5FmIXRUTIV8qulPXLZYC1rozvg3VS6EsifL9NS+cXQyAVg+ReN27cyP48SgTqOnqCcvDIRytJC4jHbGrv/Qz+vjb1DwI58HQcRLaLFy/KRc319GBpvJ9ZKjcobYj4yLMgHmypg6BcWRhUad4bQfRAsKB2wSgRcEP7G84NVjpLblEhmCIQMVLOBUI+VXAtBeI1lnXTq++LJJDSb1RRE7HOFkFLgacqM9RkVx75WjMlKy20CpRBoArYRfYyFi9Npz3CAxmU18VYCqj5HioQb3VlacF1EwPlxRPIBrwvXrxw30vaa9N0nvBca6rX1UjaXtJ0lDaEW2oBRE21oVJ9LgjUCKu/5AjkuRdqXt6TDekohagAvdRJmGZItQG8Ai0eQwkYBCogVWP7ulDJzCv3kqt5eToTC1sSOFW7CORrqdj3raxoPq191JCcyj0pPr1SS2pAWwSBWAibYZX0EFyWvaakGqtgnVioVO/ytKGSFqUC6hZANDoXlRvtSVxywzujA9m4pqaQSbtqiyvz6l0E5iWoz6rRlIYAi9O3vNbsKpniO2wcgdKqdG2qbYPTmutUFodrKcVCSlnuCVu7I6PWGiOctqjyJT1s6wmEu6LEMOTpSoPT9DovK/OKrfTylMBuUrWAZHljABJ4heDSa67AfHYCqQr4GB2FtgG/FNPU9iWjRivCEtxOIaj2vVBIHZQ8sFD8l84Cm0jM0RY7K4GwErkty/2LynYOXoaVK4CqYmtNwZTFU3FUTeZYinvUz+X+eOTEra7Su7TxBPKeOPUquRgVdOYKoNx8S95aldnbMVvjBj3Ywmtfs4OwtfJHTsHfOgLxxNkFZMGJaZR1KMVD3GiVaue2LKMb2fdD6hI8t8nnD62oqz6k0vAF3JjNXHeGQGgcudKCsk5kQTkRDV2mRTUmtrJV99p4xtuY2LrHHqh6HbFWq7QwR0fjbARS2VPaqoqFIq5o2eXgpfVYNo946T71Vlfgba0ulWIsVK2u1PutPr/UsrtVBLI+X1WpySpag2NFiJxr4jPJ9IaQAFIqwrZuTETHaUkaeljrOUYmuDEEspoKC1ErMJa6A/se49oyh2poK/Vd9/CKrTWxVK/9DCnUQnx7T+ZoE5mNQGrRvFqRyrBwZZ4CjDCp4pOc+yN+GLqlx2taqymaqkESuczLu26uHR2zEUgNUPDUY1yFNfOlBVaEyGU26vvwVNdkVVg2RVhaSEpWLN0f31u+GktiH8C5tkbPmsbbm55LW+2N7hVa72n1NvjlBD+1M6Q2HlGutu/tbnGBtZ9ne6LGKqdslJBoY5XSzVP1slyju7dL1WuB9ToQa7faePW8XHBrtaja2MkmIbXXbRWBlKKba03FnagF9npiIJbqRMwFyEpc5GewQKT3EBbBTqXZfJ6qpPN5XgBvrV4tEayIuJMEUtVtxLEcVJoOqTxX5gl+nskn/VbxlqpRea5ZqcoeiSyBSi7Pc5m1rm+rCKQyEOKaUueeEhhzrkzFNnyOkgIozNbMmc7NK8JSeoKmdYdWUK3N/Ox1Ncr11hEIqKe1dBNVO2vOlXkTxNJtzri03HAHCAcR+Qw+v5QpkSWpQZ6QKK3p2WC4tk3WxkA7SyCVXRFzlLr8vO3HnivzmsGoaLOgKlbqa1ssVouynFozRUiI1WtEtg5WO3zcEmiuoeWL3FhYswMUi6Eq4rliphIkiXc8DWeMbchYGGWJ+DsIZqea8X1qdCBbjOZe7CyBVENYTYOWN5rOq2N5zWA27caNjHmiDxZOxUSQSAXsNT1JVkisGQG4tQQCqlW05jASpb3khlt62lAfGNdUwYcAV1WT3dW2ptpmsp0nkL0htX7da+HwakNe+ytDD6Y+R4ys0xs507pVCGsaBKqwQjU302vMt66MP6t4pLQ7dUyQ4qv2kdbf2c7SDgJ1uv+nNj1VW51TV6bmC/HnOQZbYjXV920h0NDsbasJ5BGh9oYq64Irw8JY8hBMt+5RHxu4TZUB1vy+NojeWR2oxgrV9hl7zV1qt8M6TypsSfPJPmtaSIJAjVaoJjvyxrgsZRtwznriSsk6a7sKieeCQA5Uc1dup2nuyVx1rs9SEaWMAlRHYe3iK22opdLdCmIpFpDvN+aghRZ3PcemwkUTSFmh2kzD9sr0w8KnWty02o/Os472Utu3VJp/vXMEsgvTkqHYiWIEqVPNYEYmaJ0cO8W92cmGshLUduWSr1cxUOtGvxaoI57WMTXMKtpzHd67+HPjVTyTs0LrfjJVhX9qiQAhcsgRmztJIGWFcrpQmsaXJtKPAdu9iGWYGqW5AkGgCiukdCFbYJx6r7jaVdo6eHMIVEfBXGeuLoJABJ3oPOxo8BbKBqrqvWnX4TrOY1eWYB1DnpTQOtdBLYsgUJo1efGDskJWF0p3KqwjqFQB+9QEQky1fUU8LHMdn7C4w1a8w0jUnjC7dTht61jHqTiqh2lqAinSlk603noCpbJ8bluP2ohoF4ymLRru1/FEqhhoagKpIVpDhlptFYFsBd4b/K22Hk8pElbdwMZzWVeFKhavI3BfNIEoMaRBcm7krtrOM+fhJTa4n7JBzRu4tc6OysWm8cQ+NYVT7yjLucb9W4swpR6j9u3PmcIvikD9aTY17RuqcYxi6RyZiK27TRkDKfc19wF2ixISbXO8NwtRTVed2n14sKWMqVpGrEg6dxV+kQTiSUoHJ1DC8LYqq50YrcMtx5Ygpqy9eQOs5j79cHGlDKut4MpUH48l21wBpZ3VXNs52QKyTLUpsWaSyc4RCNhajzfLRw3T9Ma2rEPDajlzo8Uqqwkmcw7WXDyBgG1p9bIy1fq67rTeSguQeKwt0t6BwXPNhd4YAuG20p2qxDfKXHtj79ad2trzPcY4iM4bD7OE4HkxBMrFC1TT09TVM9lKH1n1+KUxAupVMjKSAW+LUi652CkCYVG46bmFxsKk+pBK1XnSVVo/ZSur9zCkab03DbYGuWMv5+p/XhyBemkec5wjEZkZcQUvr07mpfVTdyQqMpOJrSJs5nbYlo552CkCpRkMgW9uscm4SmZbnZExlbBXcj9DC7zeEeNL3Rg5K4GoX6U3C/O/SuBpf14fL8xZK2p16blDd8eUB7YmiLZjV2jXXEVNVmk9i7JuhXrV+ElpPnPWvBadxquzwwiAh9ww77iCpaS9Xraphmul6va6Y7mN04FoxLILz00dssfKm4M49zwgBcTA3GBz/m1p00QWSaA+g2HESWrKcW+osa1PoBodnBu+OQfILnODN3mgphr6uZUEsvoPFei+36Y1+2DmjnJlWLV1TdBotbjeMPIg0AhkGgK1b70P1OckkdeakVrduds0topAq8ALTleVDIa6aG92UZpArGNLUhCoEgThao50787W1U+DFqWETkuepcc8O0cggIqtJrj2RdcpA2s+u0ScTSXPzhAIsG/eKxGweNTSxhTqyCa9RjCVqi+htycIVIA9pE0F16u0SUBAiFpjcVKRcCkjh4NAFbA9zCoD4j3IACWLRHaIvIBwSftF6SQga3XIEpdYnggCFaD2l3uLTDWfvh5IgqBJ1wDBN/+Wq5rnCDpEGA0CLQwIeUMIsMqLgqh3enMQaANBoOtlZ2O9UNLZtr2pQXIQqABSZ2Ke2sPgal0fpNk2axMEqtBs2F2B1WhxbwTP6EmUKGpOdA4C7QAoO2BBSMuxJpQ+CKAJqomf6FfCes29MzQIFAgCBYJAgUAQKBAECgSBAkGgQCAIFAgCBYJAgSBQIBAECgSBAkGgQBAoEAgCBYJAgSBQIAgUCAIFAkGgQBAoEAQKBIECgRb8DyYetE3B9tpJAAAAAElFTkSuQmCC'
p33
sS'version'
p34
VV6.0\u02b2
p35
sS'uni'
p36
V\U0001f44b
p37
sS'desc'
p38
V\U0001f44b A hand waving to say \u201chello\u201d or \u201cgoodbye\u201d. This emoji is recommended to be displayed with a nonhuman skin tone by default, unless a skin tone modifier is applied. 
p39
sS'browser'
p40
V\U0001f44b
p41
sS'annotations'
p42
(lp43
Vbody
p44
aVhand
p45
aVperson
p46
aVwave
p47
aVwaving
p48
asS'wind'
p49
S'data:image/png;base64,iVBORw0KGgoAAAANSUhEUgAAAEgAAABICAYAAABV7bNHAAAAAXNSR0IArs4c6QAAAARnQU1BAACxjwv8YQUAAASdSURBVHhe7ZqxaxRBFMZzSSUq2ggWEQQRPG3PPkJSxMYmQuIZOzWSQpEEIhYmiCAkhQqiaCHEnBcwhbFIGiEWViZtYmFrZ5U/4HJ+3+7bOLe34935ZvdWnB8M7+1mcnfz3Zv3Zmavx+PxeDwej8fj8Xg8Ho/H48mK5eXlQXFzS0Fspogwb9D60X6gzYyOjlZgc0ev2Ky5i0ZxCO3jSqVyOrzMF84F4kARIWtoG2gP5HacA2Ij+vv6+lbFzxXOBZKBDqMNoM1CpHneN6nX6x/ENSlSWPFzQxpTrCg2Yiou0tjY2FOYz+FVA8PVavWF+B2B9yiL65Q0BGLSjdMkUq1WuwHT1LdQKExApNty2RKZ0jtwl2Dr8ffRkoZAM5hCu+KbNIhULpe/o9+CXMaZQ9+2IgJTmtG4H7V4zesuE75zgViuEQWv5TJOg0gy1VbCq9/g/4/A3G9zoMfEBvB/e3t7L8qlmjQiiCJNw7wNr5poEAl9L8N8C68aKCI63onfERDpqLhq1AJhsO/RNtEW5VYABn4NZj28aiKekx6JjVPi64vfCafEqlEJJKKMoJXQximUOS2QiJlsk6KD7Iskq2hbxI3ExMwUbQTFS3qJ66BIJCZiiHTJkrQJRQqSsUTcFv0E9vu1SXwh+teoBMLAkwbE3LEaDYgiISdMBn9JAK/x3Bj8PZuY0q/dze1JsWpUAqEK3YJJyjNFc+AyhRJLOqtO1Bf9PuFWNfxLI1LZnrks4e2gTtIYFEtqk0jmwHmNfqxsTSWdmH1F9KRVNmF0cmnQiuNi1agFIn8SCYYr3CgZs6QnDt4USVbZNobRx6yYB8WaRCcFapyeB+GDc7PJjWoSC4wiThHmKFzHE3wARNqFWB/hjod3rETRyCraBN7LydicH5i1EGmFUYQ+gxBiRSIsLYbwXsxpKpxMMRN8KE43W7nmmmaNHxziWCubC/AFnBNXhVogDHgebdHcgSOHXIGxLRCZQzbQ5yt822Y1N6gEojgwU2jjiIgnjA7ejxaIcG0iDTAP4VtOOhpxxRmxKrQRxFNDE0bHDhNxGyIVKar4zsFrJ1W3jtEKZNuFByvpNkTKPSqBMPiHMIkiRWuaLop0QqwKlUDG4JsWf1LCg0Vil0Q6JFaFdooFIqFsX4BrPfvhQXwXI0mFWqAIWf/YNqQTrHCGSGlWrwieUalxJhCBSNyQznK7EN5pgBVuk+fF+PthuZd7nApEINIcImbSIlKJpV3y0z+Bc4EIRKrs7e2dh9vVfNPJ8zUbqf66Q3buPL+xbV5TBV+UenypChSB3MMnE4nHEmniQqBUplgcfFAelGW9MXUyvTMRiECkaSTuO5bknQbbYlVkJhDho2ZWOLipr4PwRXwRV0UmOShOq2NXB2whYllF1WQaQRGyPTkL17Y9UYHoWRJXTVciyAQVjk8oWh3Qd0Jw7i2+mq5EkAkGw0fOrircuktxSNcFIhgU93BXNRUO//sSr+Psd0ERuRCIYHDR9qTTvMT+Q/JE1jldz0FJIC/xRwo30fgjhPixBR8p/UTbrtVqr5jwg7sej8fj8Xg8Ho/H4/H8H/T0/AI68vzvk7/47QAAAABJRU5ErkJggg=='
p50
sS'andr'
p51
S'data:image/png;base64,iVBORw0KGgoAAAANSUhEUgAAAEgAAABECAMAAAAV8YMOAAAABGdBTUEAALGPC/xhBQAAAAFzUkdCAK7OHOkAAAMAUExURUxpcddYivXT4OywyNdZi9tolv77/ddZi+Fsb9hcjddZi997o/HG19hdjtdZi+JtbddZi9dZi9dZi9dZi9dZi9pmlPz0+N5zndpjk9dbjNdZi9dZi9xumvvt8tlgkPzx9veTKfeTKfiTKNplk/eTKddZi9dZi9dZi9dZi/XV4vfd6NxsmN94ofnm7v32+eaVtfeTKfeTKddZi9dZi9dZi9dZi9dZi/fc59dZi9dZi9xwm/ba5uOKreeYt+utxtlej+B/ptlhkeqowvLJ2vno7/fe6Pbb5ttnldhcjfeTKfeTKfeTKfeTKfeTKfeTKfeTKfeTKddZi9dZi9dZi9dZi9dZi9dZi9dZi9dZi9dZi+qlwNdZi9dZi/PL2/HD1uSNsPvv9Ntql/DA0/jk7P76+/rq8O20y++70N1xnOifvNtolfPL2/eTKfeTKfeTKfeTKfeTKfeTKfeTKfeTKfeTKddZi9dZi9dZi9dZi9dZi9dZi9dZi9dZi9dZi9dZi9dZi9dZi9dZi9dZi9dZi951n9dZi+mivvji6+20y+KEqeKGq+uqxPvu8+++0uKIrOWRstlgkOigvfjg6veTKdhejvTP3veTKfeTKfeTKfeTKfeTKfeTKfeTKfeTKfeTKfeTKddZi9dZi9dZi9dZi9dZi9dZi9dZi9dZi9dZi/TP3u63zfrs8uOIrNxsmOGBp/LJ2ddXitdajPbY5PeTKfHC1feTKfeTKfeTKfeTKfeTKfeTKfeTKfeTKfeTKfeTKddZi9dZi9dZi9dZi9dZi9dZi9dZi9dZi9dZi9dZi9dZi+WSs+yuxvHG2NhdjuyxyddbjPTS3/eTKeedu/XW4/eTKfeTKfeTKfeTKfbZ5feTKfeTKfeTKfeTKfeTKfeTKddZi950ntdZi+SPseebue65zuGDqPeTKfeTKdpikfeTKfeTKfeTKddZi////9dYitdXitZXidZWif///9dYi/79/u62zPeTKf/+/v35+9dajN50nv34+uqnwvvt8/DA0954oYsaiUQAAAD5dFJOUwD+/PsE/v/+Af76+/v+9gKo/BIKGPz++/3+CBb7/v3+Bg8E+BV65eil/Pz8+/3++wkzhw3JovX/RQ/7/Pr5+v76/Pv6/fb0+fiqKk36/Y0aIzLMUyfU8Z4kkfuuvP36+v39+/3+/f77/vr89N93ufc64+j18oRnlusg+X3eXy0dW8V30fua+f37+vz7/fv5+/78+hj59gzHR9C9EWzu1c1r2UpvOrdAivD6+v70/vz9/v38L/S3gEPKQOudYD3DTzhywDk8uJDisxz39fb89v38Hfr1s0lvafTZW5YUIHpM88728fH6o4f5U1dx/////////////////gAcZIQAAAfVSURBVFjDzZd5XFTlGsdnGuDMOCiyD0pACAqyByIqIAMisrprIqISJBFcRXFDxQUE3D+K4IJbmSuVaGLubVS3ulNkZpvVrXu9t+5955wzn8FBpe153/cAswOf+qPnnzkzh/PleX7v8/7e54hEVsM55tSJjTnvxgwR/bF4avYqhGP4KZc/xJnxFhKCCXAyuOPz2id9ZNg4uThFjgIEp33IsggN8Hcgvzv4ko+G1JsRfcEMXTc46vuod2YhpK2Kn7ctCEhrZ+AbviW3r9/FF1eWHugD6e2ccqEkLvhptVrdVsQixh/fkX5WnPG3G1IgXso8WNcbZ2olILQsIUmAo27PbkYoaii5eeWArvQ61PfNkcw7vXCcB+NUvGxVgHr4Kwapx7myaNB0ejvigO7qV1KR9JJuX6N10ElY8odbk0bnvgJ5xRNQ/nweocFCM71WrDuSBh/Lri6xDjrOIE5eAI+HyDn+Xigh2augmabS+9JDGZnfSkVTvly23+q6u8xGSFxNHs+Tsco2crUgmEPMGtoBIr+buoONIr+j1kCR00fNPA0VfUged9vC82F25HIbCDatq71LMpdOAdBhy6XNGBxN1qr5g3by+DwvznYkuRoJckcLcotulJUtEU0+csTi+q/PwRRoZDZoD3m8cxffXN3eLXeAIPc3pWVXRBFLr/lakucUAxjVy0ViLReWT0iBrrxnDZVb1iN33QHIKL0s3eJefx7ykefWjKtWsV72dN1vNYsTSUrbQW7HNVLyh40HQaM7qU9YAr0QDTVhSfJ3w94IIaQ9QRr3AnKVCHJHuQigfXdFaVMsSr0BGvolUlJTAi++Ra46tjGMpIPKre2Su/Hg177WWqgHpH6siFPS4grchZQe9MjdmPqT1ZaG0rixtI52iYwLnkBSOutx/iz5LRfLXUHM5NUGcCanioqhNmYw0jcCBsAmi6cd5LaL1dLivBM08gWk3iowk01dK9w6J2rte5WbW01QNsfeI02kSCIgdY07LxRnr/JYRHLLFiO0kVru+3NGUMMa/qazEWfFaYzhWK5wHCWdU/BV2NXUobFCShcUIPfrpFFOMLRzEYo+bphTxVrYYczLj1zFXMIE2kLZ58VhnfiqTeER9+9/dAIR5P77GJHICTsWy9gu/BhQw1sNBFrOIK0yMcQtcKdWPN+b7vitnArXVCBRsM2qMDfsBgh3gMMmcGK2UDKyJl4BpNn6KUWegCOnGm/0CVuaH+7upL7oqfEc511bdZ5l3CUY7n2Pg5QiTw4HTvBourgIzVytf2xsRGh8IO3lYF5VS5duhxcnv+fBcUXZtM3VuSotmrXuHeAUUZ8q8GTRrBf1QE5wFA6cR/860JNXdO00Mcgviw2kXGgKnNII6BKZhP7k/U8WOcbogYYEgC3GUQ9TJ7lqPEl2obvBdYskburuwCphv9pJZSQ2tWqqvtorBiCtQkipI0+pkcPKuz0rY5mExzp6OOoFcg4vWJDQIp1h2u5zSojVcJaxnrRwtV3teM3O7XaJHpwsrkltELXwJJKdpfCOWkiQEbxFCIcVYLJcFyl/20BxXK0Xr4wPNeSoz+xFiJ8vFBu4EDv5aiPbX+moRwq9xXiouJQddoYYu8CtDCuWU88Es4E6V31nMjiMgrbnxgqkBWGITbHvMOQ8qHXVyIJuTRDSroYHyv1NDcCQlCRTGHPyJeOVu3aE5Atf7ZWg11wnM0biok96Vrmo3Uif0a6FSQ+6vz3tDoU9P9Wss7kEENIZnElenpE+oMlHI3u+hH4AE0r0OqnICmnhuQ51r5E3EFZ+pbMJwifNh5Kg/7ki+/beOPk/gKVsXG2aS10LnQic5gCJdd3RW07bQaFBG8wU1dBym45NY+aQnM71AqqHJaNjpbH1X1r8ORVuzJO4x4MCrXLaq2HJ5po7Q0RLDn/5qjD6rcEkeYg1UBNUxhwzu2ANqbrUuwKJ6BQWagW0CHbr2goTSDiWZ//VjKwGweawuctqLQtO3GSUaWVp/4GqwrMyF2f5CXNJFKRk22ZRIYkHQqdjTMvyu3wbCJNbdJkt6TSpGDj/uKoLFkDzbNmeqcsgSjKywiGxFp2urOVOBBRq4w8njnhsbr45zgVPfJy9YU7pyfsWfwupTM4q1el0V29eS/cdsxnsiVXGXTBFue2Eph70ptm1F6UfXvw1DE6+ESWpR4uXFv83nJqKlnWNqzEGtXkh5PhupPnd6lOyTHf5eh20pE/jJ2l14dieVuIJl9XEGrfBh/Afpq23NBs1/L9Ul3E066sIv+5ZzHldJS7P64wR6F/gH8ulFqcs3xvXijN0y0ovf6Z3tGyC8ZRPNALt0iDHY9YGNp8p6Z8fOvQ/P/1zE14n2ITn6us/TU5O3tP0yy+P70lOfoVHzNyTNv16qY3BQxMzae+kH1MgHkEsTElRkQGrtT8c6Sb85sbzPMtyHMvyOPAFtBF9oexr2GyG0eLRb4WFKcOGDds7CWLvMBIfI7S5P6AhOTAvb3drKkieOPGL+ucg6r+YCPFpLIcC+gOKrERsvLlN8rPGgquZL+z9DSMQe7/DjJt81Ixy1jv3FdRaeRp6OCH752fuQ1y8eHHR/a6IZVB01NwXHPoGOs6QwZvnNRD8gPJyR01X0Ff5mU/1DbQc9RLlr/cN9GRvILTizwL5/+VAVsykf6CVek35Oz4yy9FN/beaAAAAAElFTkSuQmCC'
p52
sb.