ccopy_reg
_reconstructor
p0
(cemoji
Emoji
p1
c__builtin__
object
p2
Ntp3
Rp4
(dp5
S'emojipedia_url'
p6
Vhttp://emojipedia.org/heart-decoration/
p7
sS'index'
p8
V163
p9
sS'code'
p10
VU+1F49F
p11
sS'apple'
p12
S'data:image/png;base64,iVBORw0KGgoAAAANSUhEUgAAAEAAAABACAMAAACdt4HsAAADAFBMVEUAAACMIXIAAACYI3ukJ4miJoecJYEAAAAAAACRI3aEIGynJ42IInCvKJKOI3UAAAAAAACsJ4+3AABwGVgAAABjFk+zKZQAAAA5DS2NIXKYInqUI3igJYR5HWJZFkYRCBFYFEeCHmoAAAB/HmaDHmdJEDqZM5meI3+vKZGrJo2kIoWdIoCkJYWdJH+mJ4qXInelJomXInubJH6rLpLLQLTKP7PNQbbJP7LGPrDMQbTIP7LPQbjHP7HFPq7RQrnOQbfSQrqxM5nVRL3BPKrTQ7rXRL/YRMDbRcHZRcDdRsToSc3bRsL2eOD0dN7hR8fjR8jlScvCPKz2d+C3NJ/+//3vaNe6NqLkRsriRMn42vLva9nqUdDIPrGtMJW+OqeeKYX////uY9bmOML4bOL3ceK0NJzFPa2mLY7VO7zvrOLoVs/WQr3jMbroX9DOQLbyctv69PTsX9TJPbKwMpjAO6nrj9vdVcbbO8D66PfeYMHWWcHLN7PfjLz8/frhas3midbhgNHgPcT54fTVT7/idM/ne9X99fvSS7zzy+znas/00enNRbbOQbjfdr7ZPLKXJ33xaNmoLo/vteX75ff0ze7zxOvnaM3XYqbikcTkmtfYa8Xmotr3fOH/i+rVPLnwT9PDN6jyVNf8h+bzbNz/iur/1fflQcq5L53/k+znPrv0ct76geb+3vjpRs3YQL7+hun/0fb/jOvqQML8g+b3geL4fePANabrQM3MO7L+5Pj7l+n+xPP/h+rhRMboRMz/juz9g+e+NKPiQMfGNqzcMKj7e+f/8fz2Xtz/z/bPOLXhk733e+HtVtT+se/5feOyLZX5gOP/+f797/raO77iScjuztrybtv9gefVRp/WUKH+iOnXWKPgPa7PO7XbeK/9hOr60vL7dOb6eObsYtTyleLUP7n/x/X/6Pr4sOvaQMD/oe74u+3dPsPWQbrhLrTSOrfKOLDYZKffR8b6gOXuR8z8geXswNPiT8njPrPnr8jfoMDlpcT9h+jdg7T9hef4e+LqtFnYAAAANHRSTlMAzw/Pyc/PJh7Rz8/Qz9EIGs8BjQRvzyE/4xouxbZQHlm2H8K+SwU6xqt7Wbew3VHUdqf+PFr6SgAABU9JREFUeF7c0DVz40AAhuEUaV3YRQrbtTn8e8XMZmbGMDMzM94luZMle5KxrTZP+c3q3R31/SoG0+iYub8r89ioyfBTYNg8TmVgONcFDGeocfPwt4BxcBIOg7NnN3OPHc3dnM2CYXhy0NgeMI1k1o+zu3unW3ykI37rdG83e7yeGTG13T8UPM/Wj4rTMzzh7ojgZ6aLR/XseXCo5Q0GV1AkFyLF2AmdAgC8AwBI0SexYmSBFIMu9Vc6qX0SO3TTcdyT6sqDx2niECP3KWczYNFfJSDi4PPzHuHxAwJKXOktcsBKiaFoWcIBvEcALpWjIZGyygFHLoHEaGlFA4mOIYmcQw7YKyTbWHzTZLHBkhW7HLBdJv3R9B9N0lF/8tImBwZAwY/6NEL9AjigBmrovUZorS3AcrcKzrf5xScP6pZunThWDehAAZuaaOK2IWZt7cmLbHPN6bZQumMYxltSp4kpTAB1SiCJBf7+F9i5y1+/PMw/VFfz0M6/NVBALpY2qs+v78t5qKAcxJJK4INRsmlpIwjAcIsoiCD4XxQqgSBDNpvdTeISd83a9bC7SWDzoSaH+AGJYqsFBUX6fSgoBDx4yDF6SUC8NbmYxNBSUoT0KEb20FKh0NmJu5k1te5zfHl4GGZmpB3Mlb2Icijx4UJCcBffEqFPcAorX34n0ZT9+VUJG2Yu2B7pBvbKAR1v6DrDSQbZP9chL5y+J7EpEfIitbyHBZoCH/DpHCkfJZzPiXA4kcEXLqOEkRrghaYRGGoKsu8I4ttf4SQLO8fHO9Ypu7LfcWWhOWQETrTUQqPRWMgp25KV5O5u8t60reSQnNJOsIDY0Km8l+5ze9szbVWQLHYD/TcULT+HlKI9Nsf1TNGS7so0ddPfDbCizPN8aUaywUwJqrLIYoEzkqXFFC/HqnYC1ViLT4k0S55hgSBN02KlxdkJcK2YCPUgHnDXWTgdzkm2mDuEMlt3m4GBA8LPQuwHdNtPHAyYgbhWh5Ng9w6EIMvWtTgWAFodMlm8tBO4LE7qtga6gYKL8uus/7ATSK8jmXIVjEBfYYLRdIq/3tj4Bv4ikpmJQp8ROHWQFBqvNh8NvNq6QipFOk7NwLTDw1CIpfQjgfPNpY7JeBzT3cA8QTIdaunz/wWWN2p3IknMm4HBqXHgITt4aqsvHg68W6yRhgjGpwbNwChwewxUJvrAIapr+bypucEoFhgDhNskr66+/Vfg9aKKWQQYMwPDkVknwFHja8s9r7ehqhbJORsZvgs8jTxzuoCF9suoNRAFbavxtzL62U0UCOA4jlzGJQZIgVQP2v9PACJdBTX4AhOSSZrATC/ArYfioauXZjdZm9ik6bG7L9JX4Njee+y5fYQlm6FFGat+rr/MNzOZkWOFlTwwjG4Ho0Wvb9fPhc+/fnsdLRrcRsNCwHQGy9LJWR74+SMtzY75Gaglkdl1StLZDX3+JC2vXTNKankggEa/W/bi/C+c/UoZY9+AQR4QssBFn+Fxlr3iajJlbRdZQMgD+rhjMk0nv5/+TNlbZ6zngWaMe8Yp0/vD33f2YvRw3KQBhSC7bTC15/NVi42IQgOtuxD6bbbLyxWDD8O7Fg3sCTq2/M5WfAvrwh4N8BoJofV9KxYMicbTgASOYgSt3hYsiOIjINHAzmG9oSPXtjZmu0hv1A93OIoHJ417D7uRvZHIxd594wTw3AcZ1I9J4CE8dtcaY+QF5LgOZO6TuguAViNxkCTDNZIkiElNA2BX5QqkrAD2lYOKKH77kihWDpR9kJ2XuAWqDLYiq9wyvgo2VuU5FomXqxuQ+eLt/wG69c4BXtIA3QAAAABJRU5ErkJggg=='
p13
sS'twit'
p14
S'data:image/png;base64,iVBORw0KGgoAAAANSUhEUgAAAEgAAABICAMAAABiM0N1AAAARVBMVEUAAACqjtaqjtaqjtaqjtaqjtaqjtaqjtazm9vLvObZ0O3i3vHw8fj1+Pre1++9qd/Br+HGtuTs6/bn5PPUyurQw+ivldhgg9yCAAAACHRSTlMAYL//ACDP71kzCuAAAAF1SURBVHgBrMGBAcBQBESx4x7237i/M5DoF+mFDB5BtZe6QNR4bQrRPtAofCKUPpHyka8dO9ZtGIaBADrcQlOUaTm2//9TW7RD2uiEhISKLrn1gIfYDAOEb+h/IVm0WLWyLvJYrF+FLvIC5KXeU/x5wSEp9XeKPCk4tFl9jDUAaKTwMdQqSxsXA8grT2uVxzkkVnlsWAiFSg2nMMhrIk6gNQOtPSQ1FemgloNaB2kO0g4qOah00J6Dbh1Uk5n1ifbp72j+1JYctHSQ5yDvIFjGsT9a2vyyNQJlns3AoCMOHRSSOCQUgkYdBYfEYo7JAMIZg06MoGuPOPvFoMSeOMYQjsToKYRb+Dd2AIklJsYgbK9BG55BaIFlJVDsC64gUEJScCgqKTgUlRQcikqKCIQ2nlcMghtjzBGFIDeyF4I4BBxkT1MQfP/J7I4shOu8O+eFPASIfjMqQAwilJnK+8/xhMw7skw7+0w7RM07jU071n1mxvnwA05oj78aqY+EAAAAAElFTkSuQmCC'
p15
sS'gmail'
p16
S'data:image/png;base64,R0lGODlhDwAPAKIEAP/fqv8/qv+f//+/Vf///wAAAAAAAAAAACH5BAEAAAQALAAAAAAPAA8AAANJSBrS3kFJEaqtQhI6gP8DQzBBV3ohEEKd0IGCSgJn4NnpbFI6TX2Pxmd2e9iKuOJP5bOdaMccB+D6qGIhkumVWimmVllmcrmMEwA7'
p17
sS'related_to'
p18
(lp19
V\u2764\ufe0f Heavy Black Heart
p20
aV\U0001f497 Growing Heart
p21
aV\U0001f493 Beating Heart
p22
aV\U0001f495 Two Hearts
p23
asS'name'
p24
Vheart decoration
p25
sS'known_as'
p26
(lp27
sS'default'
p28
Vemoji
p29
sS'bw'
p30
S'data:image/png;base64,iVBORw0KGgoAAAANSUhEUgAAAJAAAACQCAYAAADnRuK4AAAHwUlEQVR42u2dL7QNXRiHbxAEQRAEQRAEQRAEQRAEQRAEQRAEQRAEawmCIAiCIAiCIAiCIAiCIAiCIAiCIAiCIMy3nvOtzT777jNnZs7sOTNzn99a77p33b9nZp6z937/7HfvVEptoB1vgRIgJUBKgJQAKSVASoCUACkBUkqAlAApAVICpJQAKQFSAqQESKlJAXT58uXq6NGjf+3WrVuzeABnzpxZuq6HDx8KUAmdPXu22tnZ+WtXr16dBUBAE1/X3bt3BUiABEiABEiABEiABEiABEiABEiABEiABEiABKirACa+0RcvXpwFQIcOHVq6ridPnghQCb1//37pRu/fv7969+7dpOEBlviaDh48WP38+VOANhFQ3Lhxozp9+vRSjgjbt2/f0g3Hjhw5suvnpmCHDx/edS28KdKfY+q+fft29enTJwGq0+/fv6srV67suqna/8ab5/79+wLUdI2j5e3Ro0cClOrt27fC0WIk+vr1qwCtG30uXbpU3blzZ+HW7mU7f/78rnvDmkiAIp04cWLpBt28ebNS/0TRWXx/zp07J0CxUu/qzZs3UhOJkSi+P3hnAhS/iGSIZk2kBEiABKibCH6tMxaHrHU+f/4sQB0A+vjx4yLgynpo3b1mQ8KkAGrjlhJ9FaB2AHHPcvdtlZUcsbYOUM66AvTt27dFfol3Jp7LgQMH/v5NkpYnT55cJGEfPHhQffnypZdrJXf19OnTRSiC9AupleAU8BEPk5AEUWRGjT4AamsCtEYkWhnKc7myOgMyHv6fP386BT+ZGtqMBBiQtfUy9xxATYNk165dWxol2gL069evxQbDVeAw6tQlYoMdO3asevbsWaP/SVIzrU3CGN0I8JFqYMRZBzPw/fjxozNA3DfWkE3uc8nNilv3wl6+fNkJIML5PPg0zM+Def36dfX9+/ddv8O0xRTHNJZ7wHw993tB9+7dWwL++PHjC2CYOsO1pEHROgPwDx8+dAKIUVc3vqMbz7ojhQevLreuIcsPbEDFdBXs8ePHi+kkVx6SrlXSSgEePCNWmPqA7sKFC52mF2qA8ETbAMRrNA60AUBpaJ+hPF7H8DnAsLDlAXV5qGFk4G/FcPC/41EKGHO1PW0MIJiOjQMNABAeVPyzaZMFCtJOnTq18UIeiFjvXL9+fakOm9EoCG+vryw7/0eACgPE1BWvQVjMhpGHj3UL6q4Qhc8BN/wvRgvWS32XaqyqOhSgngBiwRp7IfFUUuKBxh5TDHEfI1zOGNEEqCBAeD25kg+CdKULuXi4uN2l4AkR5niKFKAeAcLDit314Drz9bbBvD6mtFL26tUrASoBUDx9xQVVrHvmVLKam8YEqAeAmLLC9wnoBaUb86ZuhAkEqABAjDrh+8R4UK4UZOqWg0OAegCIXFP4fog4v3jxYnYAsc4SoAIAxU0IQtSWqWyOW3cEqDBAdUlGARKgLEBx8jTESgRIgDotosMaiDqXucGTy7QLUA8AxfEeFs+ITPjcAKIsRYAKABT30gndyXDn5wZQ7ggHAeoplREy7SRSSWqSvZ4bQCHGJUAFkqnxOogRifKKofJgQwURcwX+AtQTQM+fP1+qR8YbK5kdH9pWNdgUoJ4A4t0Zx4Mo45hLYyqm5VBhIECFAEKUO8T1M0PUAg1hVDyukgD1CBCKR520z/IUjd0hdZsbBahngKgMTLf1TDl5uq4DqwD1DBBiY90cPDAcg3USoAIAITYHThmepq38BKgQQCiuVJySsVmxaVMHASoIULpzdApGcVybIw0EqCBAiIBirmPGGI0AaNOuHAI0EECo5Ia/PlMVXZqEC9AAAAWI4trpMRkNGLp2RROggQBCbHceG0QUiTXpAyRAIwBobNMZ8Gzaj1GABgYoQJT2EZrKmkeARgBQ8M5yh5UMNfL0daqOAG0JIMQesqFd/L5GHgEaAUBhJBoq2MjD7asHtQCNBKAAUckmVCVGHgEaEUBB9KYulZ5oG2EWoAkCVAKikvAI0AgB6hOi0vAI0EgBQnEL37HCI0AjBgh13dXRJasuQDMEqEs9EXXMfbvqAjRRgFDu7I26c9uHPhRYgEYOEGJEyR09lRrdYoeWAE0AIETbmLqjEjgHbBsSoBrlOmxs88zUVe497YTrzhIbEiC2M23rtQwCEAA0Mc7cyh3Qtk2ASL6SSe+yf2sogDDqndjm3eQ+lzycblaH7vYlevTEUxk5tG3KQ3cnBhCKE69dT1sWoD0MEK1W8MpyLecEaCQAcWG5TqtjAAjROqbNBsAhvTC+1vSckMkBNFU3fqzSjRcgARIgARotQGnchXWR+ifObE1jQAIUiRRB2nCSnBNJy6ZBybkaC/k0vVJ3RPieBIiI9BwPTSllY5riRwEQNTlz6vdc0sjVjUk7Y3khBO7iY721fFezcNieAGXE3i2mM7Yjz+0w3U22SLNGJHHatCXengWoTmzYixeTfM55GeHwuamJ1532d6QqcoyQzAKgNBYSnx0/VQFLWgWZO61HgHpQfFJPfGbY1JV22l914IoAbai0w4YACZAACZAACZAACZAACZAACZAACZAACZAACZAACZASICVASgmQEiAlQEqAlBIgJUBKgJQAKSVASoCUACkBUgKklAApAVICpARIKQFSAqQESAmQUgKkCug/xyzWGIN0WLEAAAAASUVORK5CYII='
p31
sS'version'
p32
VV6.0\u02b2
p33
sS'uni'
p34
V\U0001f49f
p35
sS'desc'
p36
V\U0001f49f 
p37
sS'browser'
p38
V\U0001f49f
p39
sS'annotations'
p40
(lp41
Vemotion
p42
aVheart
p43
aVperson
p44
aVsymbol
p45
asS'wind'
p46
S'data:image/png;base64,iVBORw0KGgoAAAANSUhEUgAAAEgAAABICAYAAABV7bNHAAAAAXNSR0IArs4c6QAAAARnQU1BAACxjwv8YQUAAAQjSURBVHhe7dvZaxNRFAbwmRi7KDUkFmPrUjWKaHEp7gvFHawRCv4Dor6IT4IgKta2oCCK+iI+uNAXUfClD1YRV6q44oO4gEupFbtENFWC2NY0Y756LLVtMpPMmZm0nB+kueeSzEw+Zu5MbqaKEEIIIYQQQoihq9bvO1br996g0jF/t8N3jErTXPTMQJurKOoGKhyE7cCDB2NAw5MEpEMC0qHSs2G1+Z4SZYRaSGUvTVMrVVVdqCixIHU5AtuBZ1XVep776na7XmxpDn+m0pDUAxrnq4i/q4rKISYWLA99r6PCEDnEdEhAOpIeYj2HU3+qtiL+JwOud1KnKcpZVVMGjEHlX8LV1BwgeUB+X3yZw195KJwwB1v2oDlHjjb4165zU6l0tLZGX+zZnR/58N5DXUnlTZ/xY97xk19zCgp6lxG6fSv6cv/eAJWGsO9Bg0nlLLbuyfOmUZMm+1WXK4e6/tPVHm55sLlsdKKgxm/c1Fpy4pSW5fUNuKyAWDQaibx7+/XemtKp1KUjQ85igZ27moKfWtpHF00pShQO4IOvrn+YjT2MunotOlfTsPh8jTdROOByu/M8s4unYl0Ik7pZsQeEcIoPVvpHZGV7qSspBDht247AytqrvSGhXRjcHEgWbl9YF8LEuqmLDXtAs/YdGGP0g/U1dumyAD4gHmhTt2FYJ9aN8Yq6WLAGhDHH6J4zmNkHKnx4UJkyrHvJxcvfqWTBGhAGZGqmBWMKHlSmBdvAuRexBYRBNZ1Dixu2AZcEVJrGFpBv4aJsajoub+bMXGqaxhaQ2+NxfO/5x5WTm0VN01jHoOGILSAtGu2m5rDCFlBX+FsHNR3X+SX0k5qmsQX0qrKC7bg3q7HmArXMYwuo7XpdQfTXL7bTa7qwDQ1nThdRaRrrIP3p0kXWy/x0cG8Da0CYn8EUBpW2+x2JhFKdI9LDGhBgfgfzNFTaRovFOu5vXM9+LcYeECa/3hyuDlNpm/jA3Gx0hjIV7AEBBslvjx8NmASzCtbFfWj9Y0lA8KA8GPjZ9JF9Aqu/jra2z1gXlewsCwhuLVlQZOWgjWXfmF88kUpLWBoQXJ81o9CKkLBMLJtKy1geEOCDcI5JP968brQjHLAlIMA4wRESlmH8Zx7zbAsIENKrqoomXLNQl2F4D95r5YA8GFsDAlwC3C1d3tnd1dlOXbrw2qfbt7ZzfscyyvaAABd0VycXenGKpq6E8Bq8Fl+GqctWjt/dgcn+grJNE/pP+OOQar1W1/xsx1a2Q2rI3t2Bn2lKb9797c7NzUeNKYv69atHWvHVYTCO391h1Ko79Y14tuoslXF3d2QeuUeRnQSkQwLSIQHZBf8KlQk3ff7dDr5/y5I9SIcEpEMC0iEB6WALSNOUK/Fr+UNUOgbb0bMtQgghhBDJKMofO2KU8WdZ3GsAAAAASUVORK5CYII='
p47
sS'andr'
p48
S'data:image/png;base64,iVBORw0KGgoAAAANSUhEUgAAAEgAAABECAMAAAAV8YMOAAAABGdBTUEAALGPC/xhBQAAAAFzUkdCAK7OHOkAAAMAUExURUxpcf3FGP7HFvzCG9dZi/3CGvzCG/zCG/a2LvzBHPzCG/3DGv3DGvzCG/3DGv3CGvzCG/zCG/3CGvzCG/zCG/zCG/zCG/3DGvzCG/zCG/zCG/zCG/zCG/zCG/zCG/zCG/zCG/3JFvzEGvzCG/zCG/zCG/7XEPzCG/zCG/zCG/zCG/zCG/zCG/zCG/zCG/zDGtdZi/zCG/zCG/zCG/zCG/zCG/3FGPzCG/zCGvzCG/zCG/3FGPzCG/zCG/zCG/zCG/zCGv3EGddZi9dXjddZi/zDGvzCG9dZi/zCG9dZi/zCGvzCG/zCG/zCG/zCG/zCG/zCG/zCG/3DGvzCG/zCG9ZVj9dZi/zDGtdZi/3EGddZi/zCG/zCG9dYjP/QDNdXjfzCG9dZi/zCG/zCG/zCG/zCG/zCG/zCG/zDGvzCG/zCG/zCG/zCG9VRk/zCG/zCG/zCG9dZi/zCG/7NENdZi/zCG9dYjP3DGvzCG9dZi/zCG/zCG9hch/zCG9dZi9dYjPzCG/zCG9dYjNdZi9dXjfzCG/zCG/zCG/zCG/zCG/zCG/zCG9dZi9dZi9dZi9RRk/zCG9dZi9dZi9dZi9dZi/zCG9JJnP3FGNdZi+WAYtdYjNRQlfzCG9ZXjddZi9dYjNdZi9dZi9dZi9ZdifzCG/zCG/zCG/zCG/zCG/zCG/zCG/zCG9ZUkNdZi/zCG/zCG9dZi9dZi8Yov/zCG9dYjPzCG/zCG+mQUvzCG9dYjNZUkNdZi9dZi9dZi9dZi/zCG9dZi9dZi9dZi/zCG9dZi9dZi9dZi9dYjPi2KNdZi9dYjNdZi/3EGfzCG//ZAtdZi/zCG//zAPzCG/zCG9dZi/zCG9dZi9dZi/zCG9dZi/3EGNdZi9ZYjddYjNVTkfO7LtdZi/zDGumOU9dZi/OpNvu+H9dYjNdZi+yXSddZi/3EGd5sd9ZWjtdYjNdZi99vdNdZi9dZi9VTkddZi85AptdZi9ZXjddZi+J4atdZi9dZi8IczNZXje6hQNdZi/zCGw62WJsAAAD+dFJOUwAKEwT+H/f+AQn7GQ0QKgP01AZMZf1VNKMi/OA2YPrjRQcLJN6oAvLoUvVaJ8obVPtzMhyJVg/ARLr5EMyTjDsae+UU227dzLwjTsfFd4EWs9otwl4c+SzwF/Oyt1kWRGLiZgirX8/vn7aKPmQHPDihfOQR/GwPFFC01aYD6/Zi8e0unimXdKklQITfxcEZGLFXkUmoKQ1C0RVcCtk89zjXTNMCSpnnzUZ+ydASz9EFhGUEa3BvlQ+Sgx+O7em9vkXIM+HfpZZQE5tfaliiFaSGB7md5jB3bXqwHo0QgjEEdWcNPhZgnt4I3GYkR1O6INgEJTkTQVSgG+u2CEANObEsCQAABk5JREFUWMPtWGdcU0kQXyCVFEghJAQCeQgSQkc6IoiEXqUrCgiIAgGkROU4QMAuhxV7L5y9npwVe+9eP6/3jte9+/Fu94EUCeXBfXS+7Htvdv47OzszO/MAeEnDIT0HKtW9P6Y7leqgN0Qgz7083limdh5zLI+313MwBGsfXV054EzCcXy0Aug1C4UC+XOeXCAUNusBxWjInMQBcl1dH+t+gZq9PDxOWCtpcC7+kG2skslsLJ7zLGxkMpUx+yHi0ZTWJzw8vJr7w9F4wUmXXIhF8UbWHTTMKAEYh4OBkhno7Q6rESfUdbkEBy+NdhyG0Bty6Y80VnCoseDaEDLqaHFERIW/mkC34VrUwMFK84gOB28hQztSmT6aXMEsDLG3v8/nEItPTJlvguNG77ImEmpy+Pft7UMKmRXoTb+sL4aBJCnOwT8cLZoHQMndKQ8AaKrEcUORXSySWcJ1NMTxyiYAHky5WwJAHlI33N8hLkli0AvI2FcqjUkJC7e3D7B+JWHL1PXLW7d8/2VAQD6TOwoBmccx8wMC4n++OPXH9T9sCm2zDrC3Dw9LiZFKfY174ujkIk2d+Zpo3XXbatcmUyiU0jNrV1U9hbq+bgR5UdAHE9K+Cj7rBFmpv6xa/pdutIbvjGyRq9PTBaejZTdKAJh3JbW9i0onHA4F7zfu29dIBQ3HDzh1czY/2wSAZCOSmt7TPU1noU/hrB3btrb3IsqB5QVyDJO3tS4r7c3JqGpjIZvis0x7RtdieJyGSsbKjPYXKfmDBAD2vz2+D+PvmzuU8ADoi3tFHlXsFeLHrtve3pcoy9458ixRCyNjE9svxEtM7UaZJrG0dOD4MDf82a6VKE7av/8UyPThOFhaSqZ1AsXHqlQo2q+ltpMip1soG6hUsfGd29qDbB8Gyue0k6TgBBCGznsPsT3GfCMiOnWmJpMFSryJEbFsNB8FHUOE4tHoDfmTdtJU+9lYpMVoERG9bBTtsdyC98gDBa/holC0YncGWpGVVbb1h8HkgS6fss62sirqCjcmhhmAwAnkgcbPAwYY1pXeC2f6zRw3XKBxULiw84KJgducXLJ/OEB1PpOhcAxxeTHSUbKnfVq+lDzQ1wnfEcLp6NT0diFXwHNPXiEPtHRdLiG8iwjcRShtVnoyiskD3TjqWYnS86KOHOJnS7Nt4YOVqWRxnI4AfgsU9uvMJKzZCkEKAIEXyAJ9WwdAikAxm9WdSERlQYKPP6GQBFrxjSCoTDStR15zqzYxWWJ86gA5nIyPjJeYmFS7deOwIpDpi3SqXiWDQynGipBcRPfOdhJlw6ykDffIAJ17jUvcGbSdXUD+6D6mizFQRyJwL/8KMDEqASJce9gIXgfmLvDh3yHHyeM/4HQXc3j59LARwJodHdVsSzs7n9YhIj1Ou25nZ8lWOzo2Yy8WEvEqqbRe3rp1SNGaxqyXSlXx2ooaqi/cb3UYY8uywd1p+7YdYdVwui9VS5nlbELcARgIrd08MEzpnHmgI+ubOGsptUSG6OjqYbnzz/HxA+GcefM3WKTUowMzFGnZGrYAclRJ6vT029c/P9f/9oKvfXE7PV2dpILTF2DajGQqzsoys+PBQikINBw+qx0m+WooCIJlEc/OLCtLbNpvgXxoDNJ4rh1oW6k1YW5fXwBWz0U2GHNowJLd9SCyIT0fPiac7nPzvloLSzggRGvhB10HBOJ3aLTaRSBoOpn2gktl3FrXJBC4dGrEH7iLsMyRyQyPcXk0Wo0juDinp80v/M5wrKHReNxjhjJZjuUg7QhDbZbtFt1ClNj+oOFqV4VFWfW0I7jxlmi3bDM1Yyjt0UJ0tLitAoDyJ52JPPFGAwAKW/RdtXDIDRtbjARyYJELjhYTSIkr1sAXSQ76LmYPvfUzNafTbfNZIqUyrqAYpk2nFeVxSqWIlW9Lp5ubkughDRSRkUJOFKx9QjQbTm92uheoGwJrqCiOMDJSYUC2IzU1Rx1QGWNNWlUgKEOdEyllus8vinC882z3FJY7+zzhqFGM4SDl7SYaFIcKX98FrkTbsTtvWM02f4y3vr5HNMpTJpEpHvr63oN5c7+BZ5aZabyQ6FxGcV0yM81cR/ITIElK9GtvjfhvAtGv0e/rjRgIUGN4vBmS/+MPh4ZKjWaAlzRy+g/zUg61SXhXJQAAAABJRU5ErkJggg=='
p49
sb.