ccopy_reg
_reconstructor
p0
(cemoji
Emoji
p1
c__builtin__
object
p2
Ntp3
Rp4
(dp5
S'emojipedia_url'
p6
Vhttp://emojipedia.org/womans-clothes/
p7
sS'index'
p8
V186
p9
sS'code'
p10
VU+1F45A
p11
sS'apple'
p12
S'data:image/png;base64,iVBORw0KGgoAAAANSUhEUgAAAEAAAABACAMAAACdt4HsAAAC5VBMVEUAAABmNU5nOFJ7SGpkNk9kNE1lNk98NmVsOVd2TGdpNVVqOVN6T2p3TGdtPFp7NWaGUnKHWXZlN09qPFp7TW1kNk97UGx/VX+IYoGJY4GPaIeSXIGMZYRoN1F8N2eLSG+EPlZ9N2h+OGlxQFtkNE5vP1ltP1pqPliBSnOVUXORTWyGUXCMTGt7NmaLUXBtQFh5NGJrPlaCOGuFYX6EVXjSlsSKXXugV37RmsHRlcOERmaGSmmscJjIi7XMkr6weqBnN1B1QVyES2i0dJ2mb5S1gql4Q1/NkrrFjLjMj7rOlLyvdJzQl8B8QmCUUHSARGPPlr7TmsS9ha2zf6XBibW4haybU3mVZIXAg6zOkb6ZUnelWoKkYIWqdpqMTWyedJZmOlCxcZrTl8Z0PVqdVXuOTG68d6LUmMbVm8bOk8GOT2+UUnOmZo2TU3ejWYGcX4OvZ5HVncW5dJ+RUHHQlcK5dqCLWHnTncN7TGiXUnWeY4fLjbeoeqCEPlbJj7xxO1edWH6tZI23cJuqb5aLSWqcZ4mKVHWWbI6BSGSiapB/U2/VoMWcXICwfqWLPXOcWHh3PlyRTXGSUnWmY4qZXYGDVXO9h7HIjbmQQHd/OGnCi7a0dqFwQlqIS2yRYoK7gqjDi7KtaZHGj7mhcJR8RWGmbJHQlMKncpeWV3qVTW2KQ16meJyeS4RuOVW0bZduPlasZ4/VncepXoeXUHDGh7OqZozJkbmza5WsYou5hrCqfKKxaJO3eqNgOEyhZ4yOXHulXYV/S2moXIaXWX6oapHAh7DDha+NVHaqX4iQSWerYYqFO26ebI6QVHaaYoXWn8iNR2Oxb5e4cp2eXH++f6m7fKSeWYmab5GbRYCwbpWEYYBySWKuZY61eKd0OE21b5mXQ3yva5XXocinW4O2f6alYYh4SGV9NmajSoh8SGaSW3xdLj54WXSoXZOFRXO2b5lzN0y7daFcLT2xXpi1b6KRa4yEYH8QOzSjAAAANXRSTlMA31cKQGWczCThE7fh0zlDNP6BGtHF7QZLovDM/eveZsydsfWl2KJveJ/A2vm9/odvh/ON3s2Z0fIAAAagSURBVHhe3ZNVcBxXFoZHkiXLkmNZSuyA7WTj0IaXhpmZUczMzMzMzMxkZmZmDDPTwvOe7plRZcuz0/Oc7+n83fV/dW7XbdwfFZe3/vQEb7ngHOfN+IqPfvkfPqqIf9Px/kvp6enK73/7Hd8r4dFLjvY3vxMUFBf0HuF3vAcPgt7Z7FD92efeplLj4uPjvis4ZKHgOyRTqW8/9yx2+/kXqqs5NUHxufFBVcEWqtBYw6mufuF5u47N0A6eLzg0PoGuwKn7N0odJ64NFpgYP1QwHwyO/3cSl79vrw4uaOQfPHiwcoIDh64R5Pzn0aNHOYIaCJyJSnjBbywIrt7+Z5t9r39svz/fqO/qE42N9XUKajg1E+zlxz/88HiZPQFB0Nk3Nibq69I3zt/P2unxZP/l3p/uz/O7REWM2NhYhm5ggM0eWA4JGRgICVlG5gEd+qJI1MWfP335RS8bgqbaxi4RYyoMH0bOiGWGoDzePl5nnpgZZDIeH5bBEHU1LjT1vviEwL236R5fVzQVFh0dhieTM4xHjx71bgwO5uu13jAaM/BQB8iMvg8XenptfIadTQ/6EUEY0ifjM3IIum7doQJdn6hIR8iBMh4Aua/oX9/09LrbuH+XP/mxq9t3ikyemkL3gIMUabXNNx7GkvHq1ZgYNXkKDjHF6PvnQs+7OBvs7Fn4UNfN8AVk6pjVGHUYPlbPv1gYgId0/fqqWubry/BldGu+edBk87fYBCvodSJRdxGDDJXVmOjoDL3+3F1xNPQ/++y6WsboFolEZ+EEf7P9a7/b9EA6rNGMdDNkqamIQD2l18PnsApU4hGNRvPFj59cfhlnE6/enntMplYjEpJS6+tTU9XIEeDc6uxUENRny/ad1TIbaQtNX3vhbLP+ck/teODwiJCUDYJskozB5+9tvktSp9YjAtWYJnCcd6/pa7gEtvFav37b0BXt2X2oQE1SCfn8G4W3ZaRsyPUkycgXV4zbtj2z/i84O3gbAzVjqmyAJFOJ+VruXpMKDACcgGkk4LDYShgfpktkJBJJJfHt1mrFYrGvRIVkyZhmmrAVU7Cxs1I7sk+iUkkkQjGdyaTT88VCoUSikuyDE3RuxBRsqBsKHKYLhUKxOD9/D5P5MOBufr5YDJmuCRyq2+CAgHCFaaLn59Pp9D2mwMAbhc179tARTMwrBAcET9V5G3nMYdO5cybTnbvTgQG7R++YkDTM5BkJdU9hCzoJQ5U8af8RlOlpsKBTv5RXOUTofAZb4H3cWFnLo9GkUm5/P2/6zp0j/VyplFbOq600DmU5IMjquHZssrycRgPBEd50e/MoCGi08vJJMBzHFmzIgj7UaaFSbuYRHg8+YiZXGkoDxeSxa8c3OiI4Ux4KcLmZUSDInQuIyuRyQwHamTwHBaHczMy0zMyoqKjJySgENHJDHRJsrQJBGtJBipO1qABNaaFnrmVhX+WvqjoSbt761UxabW3ZUpo13ARBDlbf5auq5ISHZWlmuMeOXSxstoRbNxOSs3JcMARPIxt8WnbLTBkqsIZPE5LP5zyNIXBHBR+Xmfk4L29/ylpABe4Ygk2oYOlnM0t5eTBYAyrYhCFw/vZ8R/vo/iUz+2EDmC1hFBE4Ywje+PZ8AwgsHE5Onp0jWtNoe8P5k29gCP4Kgi9XDlsqKcnJc4W7rbaV9oarJ9/HELx+8mpDe2nKYTMpHQ3NsyesoRQRvI4h8DwJG+xdSTHzQUdHyhore78EgSeG4DXYIOBA6QdmDpw+DYOF0gMBDVc5r2EIXuG03Q64VGoBBLsvEq3pUsDtRM4rGBeRzWkrOXHhgIVLMzNzhbPWdOFESRuHbf8qbmJTEcElCxdmZiJ2+68lEFDZ9m+Ss2AwscR/1wULu2YSYVhL/iWJgwL7N8kHFZzaZeFUYiIMawkV+NgVuAkGFRFJp6x8nphomCWuxaQIxaDAza5gi4CabiAm+ft/juLf1jZXeNEy+ycRDelUwRa7gh1sSpDCQCQmAf5QSU+fveGHDACRaFAEUdg77PU9WMVyaqQi188QERFBJBJL4uKIKBANfrmKSKq8mOVhR7COxQqXUwYjW1sVitxcPz+/QarBYPDzy81VKFpbIwcp8nAWa509gROLVdwiV1Io1IqKSECpbG1thaGigkqhKOUtxSyWEwjs4O76qtNicXiLXK4EDSU8nIKgVMrlLeHFi06vurrjsHF39vHcsQiacFi4paUlHKqLTp4+zlB2HI91rq5ubluctni6ubm6rvPA/XH5L5Sj1UQWdpf4AAAAAElFTkSuQmCC'
p13
sS'twit'
p14
S'data:image/png;base64,iVBORw0KGgoAAAANSUhEUgAAAEgAAABICAMAAABiM0N1AAAAulBMVEUAAACqjdiqjdiSZsyqjdiqjdiqjdiqjdiqjdiqjdiqjdiqjdiqjdiSZsySZsyac9CqjdiSZsySZsySZsyac9CeetKeetKniNedeNKqjdiniNeqjdimh9amh9adeNKgfdOqjdiSZsyqjdiqjdiSZsyniNeUaM2hftSHXb+Xbc6pi9emhtaactCjgdSgfNObddGdd9FgQJVkQ5ldPZGkg9VZOoyVa857VLODWrt0T6qOY8hsSaJwTKZVN4h879dfAAAAI3RSTlMAEM8AMN9Q74CvYI8gYO8AcJ8QzzAAgADPAIC/AM8A70Bwnyj7HGgAAAJqSURBVHhe7dVZb6MwEMBxIA52IKXpfbjd0o4h99Xz2N3v/7XWDGlJYsSM8lBpq/4fiGTJv4fBJt6u/eQHg6e/NT0NAv+iNq92VbRhMli6znIwgbbgQ6EEmJn339vOn3czA5AhF1Jgy4wxrw/rzMOrXcrApliQ3wHs2dhekELmxdieAev4NCQCKFsYbPB2f7+8fxsYbAFlgaCgSMKqqalpCqtk2AzFUFUHQVXcAHUDWGviOhNYK+g6UPXW15sZLC8f2AzWk2Et5MewWYbOcFwI4yFCGWwW+y4kAqiqDsB8hLOC0Rxf/naB2IYUuC1M3gcoIYB+bhbgpjYgEUBN0+EYKgjGwynUFIgPaC9J+tAQQg31k2Sv1fJafmKMedwderTbk08oz3aFsvwDat3iWx7tBo3wXNwi1DoopPlu0LxwDloldHiEp5YJuaf/6BAh2zHegEcO5A7a5Mf7Nm+/6BQXMgbkDtqcnhR5J9h5OXAacgd9/gvzyh8xdwZOQ+UesXnXLlHHgeuIgiL9Oejh5VmZd7bquhh4DjK2nysKsp/AWAJuuL5a5V2tEnjUowsbDRVFeLWE+2FTN3j5bIKCit142W9U4x9kSkFpteHbQT9QSEEhE1IUpP5bKKagmAlpCtJfDQUUFDAhoCD4YkjQkGBBKQ2lLKhHQz0WpGhIsSBNQ5oFtWmozYKAhoADpRwoZUCKAykG1OFAHQYkOZCkoRA4EIQkdMeD7ijIlzxI+gSkgAeBaoZ8yYWk3wT5GrgQ6EYo7cV6+67lxuRbSFvHvdSB3LpppJTWWiLUz/M+AtIuKRWl3Qpwod37/tA/AzFCHVQrCFgAAAAASUVORK5CYII='
p15
sS'gmail'
p16
S'data:image/png;base64,R0lGODlhDwAPALMPAFpRVPv7+/9nm5eambZEagoFByUXG/+MtehlkV0kN9pXgv9voWQvQT1AP9O/xwAAACH5BAEAAA8ALAAAAAAPAA8AAARk8ElTGrCtGCm1G4ATOM3gUE9BEEMwlKVLKEWyCEk7FDqD4ICDAMEAMQADn+BwcQiGs4Ni9iQ9AL+n4KZFADgFhZYroHEk4u2BqzijtfC2O73Uys904fPOocfdYVp6ZQVzY3YcEQA7'
p17
sS'related_to'
p18
(lp19
V\U0001f469 Woman
p20
aV\U0001f452 Womans Hat
p21
aV\U0001f457 Dress
p22
aV\U0001f458 Kimono
p23
asS'name'
p24
Vwomans clothes
p25
sS'known_as'
p26
(lp27
V\U0001f45a Blouse Emoji
p28
aV\U0001f45a Woman\u2019s Shirt Emoji
p29
aV\U0001f45aPink Shirt Emoji
p30
asS'default'
p31
Vemoji
p32
sS'bw'
p33
S'data:image/png;base64,iVBORw0KGgoAAAANSUhEUgAAAJAAAACQCAYAAADnRuK4AAAOEklEQVR42u2dLbQNXRjHTxAEQRAEQRAEQRAEQRAEQRAEQRAEQRAEawmCIAiCIAiCIAiCIAiCIAiCIAiCIAiCIMy7frP8refOu2fOuffsz5nnWWvW/Tr3nJm9f/vZz9fee9W5uGwhK28CFwfIxQFycYBcHCAXFwfIxQFycYBcHCAXFwfIxQFycYBcHCAXFwfIxQFycYBcHCAXl0UD9PXr1+7UqVPd0aNHu5cvX+75fb58+dJdvHixf5/Xr187QEuQX79+dUeOHOlWq1V/7du3r/vw4cPG///9+/fu1q1b3ZkzZ/r/1fscPny4+/HjhwM0Z/nz50934cKFbv/+/d2bN2+6jx8/djdv3uwOHjzY//7hw4e9Jnn79u2O68WLF93du3e7s2fPdgcOHOiBQevcv3+/e//+fffo0aP+d2g1AHWAZgrPlStX+o6+c+dOd/78+R6cBw8e9BoIrXLixIkd2ml4HTt2rH8d0ADW1atXexh///7dayRec+7cuf5nB2hGQoeiYehgIPn06dMOMIAAqEJTEFMWNtPnz5+7d+/e9a9D+9j/R37+/NmdPHmy/xk4lwDRainw0KGyd9AegGLtl20u3sfCJrguX77caz0HqPFpS/BcunSp1zwSTWfbXmidoYcniLCNHKCG5d69e/+0BC63FQzoMS2EbYTBrGsKoBs3bvzvc7Gp9N4Y30DlAFUuTEtMT8+fP+87DQ2DbUMn4i2FRHbR8AKaHQ01ARAeWkiID9nXoZUwup89e9Z9+/bNASotGK23b9/uXWc0xtAo1vdTAT4M4hAUxHSePHnSPX36tL+mAMLuCQmw8Pfjx4/30+dQ2wFY6yA1BxANzrQkF5yOOHToUB/LocOJ7ahT+Bsu+ZQ8fvx4K/sHOMZEAAGK7h3tA0y6d0BnCmw1dlQVQExBxGRoeF1oGIGBzWLdZzqPwN9Y44cM3KHwntsAFLJ/JIoL8RyhZ2WKlVbiPgkTEFvieYk12XbgOdG4DtCIXLt2bce0M3UxggFqykVmWtFUtM5LQ4PtBR7ud2iYS8iv6XVTnhgAK3a07iICXptXVwVAjDh5SoDEtEJDYQhzYadoJG6asMTrUcOvC+jJzd/tpakpJGhSTaHrPh+IaQOej+dH6+rZaQfaQ9MhF4PHATIdjT1AiiBmwzCtaXoY0xISPLe9BBWnsvhAoGBiLMG7pK3QqrVMZ8UBYjqioVHlsYWUxaYjFjd/t8bz1BSKZ8jr0EQxRUnbkF21OIAIttEYGJspRJHm69evr30tMADFpgBNQYlW3VT77UWzyoOrIQRQFCBUMg1BnCWVy09jh6LQVrBRuJdNjXiy7VMCsCrtSCF6fxK7iwYI1zS1USjjM+RuAxXusup75E7bFMZYKgM7BOPb5tYQotLSPrGnr2HsqgZjuihABP9SqPmQO412wcPhZzw5vldH8zeMXWIwApt4k1IPiinJ9uC1Vlthx+Ex2VAE3lcqQxfNk1JzNwMQo51OSl3ygPYZi+PwN2tLYGPwe2JDdBBTINDJ7lBSVLXQIe8NW0owphCmXACdCmLOHiBpBkZuDqHD8bQUXyGlEIrPKH6kZCpf0TqKgA+j3mgZNIJKX/Emc9QAob2BN4X3Wj1AGkE0QG1lDnQ+7j/3pqJ5W4FYizAguDeqCRYHkGIZ2AyM7t2siMgFOAYqU5g8nZoA4t4w/lWKUrL9sreIltRgYyhfNVarU5MoKFmDAA9Ao4XwIE+fPl2sdHZV4uHpCFxRhAYg4Fe7yJWvQYhDqYxEDsJYUdvsAGLkMJo1YsiB8XMrAJWO/jK9qtwWoSyE+yplC61yPzyGny0X5cH5Xe1LYBT9RYOWFMWAsB//deKawrbZADR0kREaIlUyNabgomthYUlRFNrWBaneepEAEZOprcZl6t5LddSwvcjdLQ4g7AflkRTm14gisFeTG8/9yI3HXqsFIC0CkMZWSe4iAJLXZedwATSV1wE20gu5amBUo8RXYMe+UOlJyo5CMzNFTrnkmvJfvXrV/6xqynUVArMBSN4MnoR1Q6c0kMpDreGY2lMEWMC1JSepARIMUy65jHlWpkij50wJFQeI4Jcy1nQQCUm00tSyFhV6MeroSPJAKUWfR2ep4D0lQAwqKgSkjac0raZSYmfyyBiMpUpcs7vxKvXUei7gWRcHotN4Lf/PSEsdN6LGh+mL6YTP5nvqplMBJEBVybhuqgYY2sMupuQeZw8Q6540wuyyXzplKqlK56lwS4nNuXhhmoaUzuFZaacxwWiWHQlsFO9r6ps9QLjq1mCmpAMjVWp4bH+eoRFJA+bO/aQCSF7UOhuGvCHtI3iYWoHN2ohjS6xnAxCG8nA5DLYPo0ggqTpwLLAoL2RYStoqQNg+UwABCe1ht9WjYtIOINlnJbLyWQHSVishLwOQMCJltKKe8dCGBVp6j9zlnKkAkvZQchnheQWOKh4xtBmAIc2rJUly7WcLkLyMUCnpsFHtcmO0E78DMmmx3MnDVADJfkEr40mhiaxxzLPTbiFw8GgFGVfKMtpq3HhUtoqzUMss6Q01DrYQI8tupkBjyvjmf3MmYOms2ACp/lorWC04eJoMmpB7zu9I6ko7EXYotcSnWEkrcEjL4C4TsBszjGmc0OYLKVdzDCVFHEhxHBvW0A6wobag3Uiiyl4EHH4uWclQtEIKrwGXXiOJUYeBOOaJMfLsKM2ZgNX6spgAaTrW+46BwPTJ1Kbth2UC1FACU0WJHZoET8xuukRuh1FvG8nuUJE7AYuWjL3adLi5FQ6CncIZTHY3fDQPINW0q1lVG0yhYWhUanw3WWJsPZfYQjBPGXm+SlvETFqOba8X2q+R+6hxF7Nqt7hDbWMnoXXoNBqR0ai0xqabJuxF+DxGPZ8ju0tJzJifqaw/moXn4vl4Tjwzcl04GCWCg7MAaJPgW6ppTJ3K9GkTnDH3fVb8B1BbPqCl2V1aFT9BS8TuAHk52D2KAMsLs5WA2zgPsvdK11gvFiDsAaaaFHVCdDBeDgDhKqOFFEiMkS5QLItpqvWjEJreJ1oHpmCnpDYwBdC2S7HxoORVzeEcjaYB0poortRh/FgAyZtbt3+1A5RJ5CW1ApBsqdLLgxygv6IAX2sApdoX0gHapahIvzWAYm7/6wBtIdo1ozWAhqcBOUAFBHdbHk3qcoZYAGmZUGi3Mwcos1DZqM5IvaxFqzK2BUgLC2rZpnfRACkZmWN7GGmOGFvyKZeXahtgB2hDUdY+9m6llJfooLnhyocYACmJSjrGASok2msoVn5Kgl1CaED7GOkEIe1pHQMgGdJoIgeokGhB3rpl0XsxlgFHNhXlG/ys/FUMgKzx7wAVEu2WEXtXCuWqqEViKmN65DO0JDvWtsQKP7RcytE0QMoppdiVgkIuRbh1aK8M31jaTgVquRdIOkB/RQe65VgLhb2lrH8skR1U2xGWiwFIKYwcwTgFEWMmQLXOrJaD4xYHENogV0JS67difx5ArjtV2gFKIBq9dhlMDnsr9nJqDHQM9pZTGk0CpIPqNj3BOZa9EnsViE6rVrDSAcok1Cnn3CNIu1/E9vh04k6pDTIXCZCW2eQsh9DezGi+FINh3RHiDlCCBs+ZiBRAKfYk0snSrVYoNgWQjhtIaTcQidY5Zlzk2dTJKWwunZ3GNbU3ogMUQZTQ1I6tKYRFhbjXwDNco5+ig+1ezwRHHaBEgsGsdELK88VseYgCiLpSHc+ptIk9BssBiiy2FDRlJR+bHNChFKsp2q3MeSqAFJbIlZpZJECaTlJ7X0Bit9Vj9QQGbkqACCRqrXypDcNnDZCWMJc61Uc7x6acXlSei7araQOpWQCkQB4Gbomwf44TmzHQNVW2VCvdBECK/ZQ63TnXkd+qemwpJlQ9QDoeoeSJNLnKT+2ura3EhKoHSHsAlaybUafm1Lat1AlVDRDHHGj058q8jwGUazsWpU2od2rBmK4aIGsTlNoTWXsQ5Tpiis+TFkp9sN6sAbJLgEvWy5Q4bFdLtkvafc0DpARmzI29WwGIeJPSG6XOQm0aIGv75IyJEGOiLkfLmoFHmjD3KYmyhUrFvpoGSGumcqpwDFYMVwrWgJbvWbuuEpLcANnNOGte+lMlQDIic+7ipbIKjXa0IEZ8KYAQ5eBSVh/MEiBlpxmBOU8mZNUFNhcn/xH1RgPJoM0NEJ8vDVRzuWu1RrTORpUhmaNOBpuH0U7Gn4soeMrz4sfsMDSvfXY3oiNAhGYocahsToCIdWkThxbgqR4ghGCaPakQuyRnhFarQFIDhIZVARsX5R0tSBPZeICxR4NjG5AryrE1itzplAABD/aX1batlLY2VVSPfaAAo9x8OjhlmiM1QNy7Th7S4MADbEWaXJmKZ2T37+F7ppoUh/BSYJ8KIHYqU7VBCa9zsQBJ7dPYFiSdZMymC7ECkHs5bBetYiPaIZsNLWNrr/m+tYL6pgGyIBGpHYKk6Y166m1gmgJIqQ+0lBYiDs9/V2kG0XXtRsamCnIM0DocOld70nS2AA07VFPO8KLD8HIIUu7Gi1NJCZs5oNmYPgEAo1fr1EIX9UN2aVDo4j18i7sKhdFMARoaCBtDx1bai0V8dC5GOZoD8Hg9F7kwph6+2mnGXmgOVmvwf0DF9KNrCAVaysZ3mGZLFsg5QHuY5khPAEsIpk0uphki1bWfouwAZYCJKYwiNWkMnQ+PJyctRADTro8vsR7NAXJxgFxcHCAXB8jFAXJxgFxcHCAXB8jFAXJxgFxcHCAXB8jFAXJxgFwcIBcXB8jFAXJxgFwcIBcXB8jFAXJxgFwcIBcXB8jFAXKpSv4DRevZ8JAeTyEAAAAASUVORK5CYII='
p34
sS'version'
p35
VV6.0\u02b2
p36
sS'uni'
p37
V\U0001f45a
p38
sS'desc'
p39
V\U0001f45a A blouse worn by women in a neat-casual setting. Shown in pink on Apple devices, yellow on Android, and purple on Twitter. Similar to the top worn by the Information Desk Person Emoji. 
p40
sS'browser'
p41
V\U0001f45a
p42
sS'annotations'
p43
(lp44
Vclothing
p45
aVobject
p46
aVperson
p47
aVwoman
p48
asS'wind'
p49
S'data:image/png;base64,iVBORw0KGgoAAAANSUhEUgAAAEgAAABICAYAAABV7bNHAAAAAXNSR0IArs4c6QAAAARnQU1BAACxjwv8YQUAAAROSURBVHhe7ZtPiBRHFMZf71nwbA56ECW7BsQgGPWg4O4SzEkw3gyK3hJNDp6UHFUEvRi9RYyHEBJBc5RVD4J/EPxzya6Q3PZgclTwPOX3pr5xxnVmZ6r7vdqM1A96672apav761dVr7urpVAoFAqFQqFQKBTGlHmZ27Agc7voNmZB7uzTfdJ1pWJpThSkmsW2C43s1Logrd1TMnuv/Q81eSF3DqG4qnYQuYW/z7DNNd3vIEwFUlEqqQ5itzNw18baLkHC9SmZOUC3Foie+x3B3yfMB6nuirRuWIplJpCGPYqr2OHqWDOQw5My/QvtJBbk9mlcgJN0+4Koeo3i8JRM34w1zTARKEGc2ieQ0oZGU0vCvk0y+w8ratNYoLQDj6SKVKcNK5EaCaQzyYRUOMlqE6tGhiJdw8B9adBJ6P4rmfgOB3mcVYk0F6m2QE3E6YVCPcL2d7uiy0Yc3Je0a9N0YqglkJU4uWgi0gTLJDCTnB4XcRQc79eYAf+gm0SyQNqQNkh3bKBIuLBpJHWxcRWnF3S3k+huZ+kOZeQIYpI21uIoOIczL+T2MbpDSehi1ec0PgY2sxzKyAIhX0EuEubpji06o03KzFG6Q0kag8Ztel9Knek+aRbTjFQz03GMJCSkF+vkQsnT/DCRmBkvRi8fbLcvceaa/p5uEskCKcuJVEn4EfXn6WYDY8UP/URKndaXUksgRUXCYPeZ9mtW6cHoAPiTbjjYB6x2J7arz5jCOVa1aSqOUlugDtqv9UCwnent47iiP9PMQLisf6MYMaotxFFq3ayOysLAx6N2aPT0XhhrGkfQcmA8+p2mI9VvNFxwjSAFUfQKjSQ8CUwhzOs4SMcF1wiKhDka5sS3GL5kEEieszQHkem27w7uAuHu+V+a5rSk5Z5KuAsUTyJcgWmZXWNf4UqTh/Gj4j5I98LX0TvQ6HqMH59qHeyBaQAz47+iJ09R8x+2h16vmQuFQuH/husgHR+OVydwv/QYLnKW5gNsZ6CHuQUpxLYgrW88B21vgXBHXx2h26Y7M4WX+I05UniDk31vyoaoG/D7KnprYH/Sb8bjU4RTdM1xFcj3Puwdi5MyvY62OW6Joi6VyyCOspbLY1xwEwihv5dmDnazNMdNIB1AabpTSdhD0xwXgbjk94NFnH74vadziqD2NJwVLg82x6uLbWGZjZgW2OMiUM7xp4vP4gpzgfKPP+/YztIUhwjKP/4omnN55EMeXSz7+NMlbKVhhkcEzdJYASrt3qaYCqQhnun2oi9oe6euYaJrgqlAyGi/orliYAbdT9ME6y72BcsVpDK9SKYCBZFf+63RyQXbvhA9G9BtbeETv28R6lmXDCOTvo7tlPW7MnOBOqhQEGng14dGLCJq/rT+yrAXN4F6YQKnz2w2Ytted6ZjF3oE6xkO/YnVV4XLkUWgpcTlxBP80Hf5xBIH2F6goK+wc7xqLhQKhULhY0HkLUUDZ3W+y6kFAAAAAElFTkSuQmCC'
p50
sS'andr'
p51
S'data:image/png;base64,iVBORw0KGgoAAAANSUhEUgAAAEgAAABECAMAAAAV8YMOAAAABGdBTUEAALGPC/xhBQAAAAFzUkdCAK7OHOkAAAL3UExURUxpcfzCG/zCG/zCG/zCG/zCG/zCG/zCG/zCG/zCG/zCG/zCG/zCG/zCG/zCGvzCG/zCG/zCG/zCG/zCG/zCG/zCG/zCG/zCG/zCG/zCG/zCG/zCG/zCG/zCG/zCG/zCG/zCG/zCG/zCG/zCG/zCG/zCG/zCG/zCG/zCG/zCG/zCG/zCG/zCG/zCG/zCG/zCG/zCG/zCG/zCG/zCG/zCG/zCG/zCG/zCG/zCG/zCG/zCG/zCG/zCG/zCG/zCG/zCG/zCG/zCG/zCG/zCG/zCG/zCG/zCG/zCG/zCG/zCGvzCG/zCG/zCG/zCG/zCG/zCG/zCG/zCG/zCG/zCG/zCG/zCG/zCG/zCG/zCG/zCG/zCG/zCG/zCG/zCG/zCG/zCG/zCG/zCG/zCG/zCG/zCG/zCG/zCG/zCG/zCG/zCG/zCG/zCG/zCG/zCG/zCG/zCG/zCG/zCG/zCG/zCG/zCG/zCG/zCG/zCG/zCG/zCG/zCG/zCG/zCGfzCG/zCG/zCG/zCG/zCG/////eTKfzCGvzDG/zCGfeSKfzBGfeUKfzBGPzBG/zAHPeVKPzCHPqwIPqxIPmkJPu8Hfy/HPzIMPzDHfzEIfqzH/q0H/mlJPzDIPmpIvu6HfzDH//88/mjJP7qr/eWKP/9+fzGKf/34P7z0/3MQfzGKv///f3YbPu3Hvu9HfquIfiaJ/u1H/ieJvu7Hfy+HPmnI/idJv3NQ/ibJ/u4HvqvIfu2H/qsIv/++v/34fqrIv/01/iZJ/7qsv7suP7ilPzEI/3gif7rtfu5Hv/9+P3Zcf3QTf7xzP712PzJNvzFJf3MP/zHL/3VYv3TW//89P7lnP3UXf3adv/99v3ac/7sufzLO/7gi/ifJf7uvv/45/3VYfmlI/zJM/7ln/ihJf3Ybf3ehv7jlv/23fzKOfeYKP7oqf3SVv7mo/3adPzAG/3dgP3XaP7uwf/45P7mov3OSP7oqP7yz/3QUP3Ybv/66//++/7npv7prP7xy/7gjTtAJlUAAACBdFJOUwD6+9lm8Qv+BAHBEcP9+LkSECDXeC3PJjWYYdTwYgWNS2gy6ULbH5ptuO8oyKXkDvnd9QYdnw9VCKI7N2AVA9G0G0pXiuPEGOe+zHUw1pEvk0nhc7OUqAexCuVBPyRExYgC94a8/BO1Q+au4BZGfG678rp9pFOB9PYzhWzxymllIxUsxLYAAATlSURBVFjDnZdlXBtJFMBDhBBpklIcikNxdygU90Jb6u7uLne9zSabNGhxKBQrcJWru129vbbXnru7u/c+HOGXhNnd2d3h3qedt/P+u/PmvTdveDwmSVVtz7QrDVXK5woEc+XK0FK7zO2qVN5wZWRGVk62aAQGyAhRdk5WxshhYcam5O/CoLIrP2UsMiYuPl9R/0gDwWgaHjxU5MfHcRGm2nrP8s3cqNxK3HvhyeMqGsrQ/+/9v/s1W5UbM31nedtOhVOiiyaVufpE8I1+afhHrf7z+34DAf6NXtPX+Ze6+7HB6C9+hI9r2aSiaDoneHKYxbWa+l61Wt397sEPqwzE4H9pCEPj6ZufD2jV1wH3h00OpnKSCoCP6188YDRRd/d+9nV96wBJ8/CLTzrfe3ZQ+WsVuNqnksgceweMBLqkNsn+Kz/3EQ0/XDtwx6z5igTCHOxBTkIs6SXx4L56SG7qe3qB4SuUHYhNAEC+QeSX7c8PGd75w3ADGF48qCfPDfId4rgnUr6if3+/xfJWj4b4/SfL8Ek9QZmc6G4BOUZSA6/17ddNhr/1EVpMc9cMvvSSnhpdkY4WkKcVLYRvvHbFuEkXf/yFqLvdVt7+7eA+vvzmPXq4W3laQC5iejJo3nrjo2vf3H1E1HZ0Xb38HXb6085b11/t0dNBYhcLaLQYkleEvqGxfSAc9+E43nVeq8daG6sMsAQUj2YHmWWvDsf3nNMyTwBALmygCziu+/IsywRgaV4AKEK6njzvxMkzp2rKybr10ggA5GXmSMYDc4qLxlG+WH74BPUnxpW4AqPxEhNIFQJoS603YZyyyRr8dojKXFhDF1iUUZvDc7hBOeGboyyDBaGW4isTFvBNWkFMbiQ3KDI3RmB65BcIZUDWxgRI3Qb1ZdHpYdygsPTossEHN2lADKWyqSbMCxFh2BZJejY3KDtdsgXDRCHzJqggRVuyKmON3TM8mZxqpqVFo1zGsy1ck7FKwnaU2GRRrI7XNNdRVFk2KMfaanKVO3uqsnIvmRS0Gul8lElJVieNudZEWp1UhgSSFC6mJW01CFpcKEE7sr2Xg6DqSp3uTBuoWe6NePZbLwLNKqo7Wg6RFrvIGhFkM4aStZTcH2PzP0FUQQZNV7KDlNMRQbZ+7CA/W0RQfBQ7KCoejePuzJWzzu5IIP9RXKBR/kigFAV584/uu3CcDFKkIIXjCrJVUxeOH6sl61aghGSyD9noA2Ou1ZBLkk8yNyd1IeW0bIGAxAu5rwD+rhTPNl/F8XcOU5Su3O4W0lqcQ5eP1NJaGSHnHSSQvttaSAcRyHUnmSPCkEQ0hyPxnTFEcWYvAbMFqCDBbHZX81FBfFZ3xwViyBLIdtnyhLq6ogLqbk9mzpKlMMyRjzuOwkhLlzBx5ttZQeaf26PTPdcGeWFlN58BVLKSsauthnW1K0sYQE9Dm1vjkV3ZBAOJdzOAAqC7c/tYZVdLHfRVAANomRt0em3zeei2YW7LmBJ2GjxitAxt/zTGxHUqxoYhxU7MgTTTAZ3jMJMtR+ynKNAwiin27HUk3AtpecVe4Zy11tFjBhdmhocjUlfj5OHHcu8S+3k4ofY1kuC16/KgLHHeurXBiB2k6bxN3pmYlrcNhGzLS0vcmWzNG7Yk5CYJd8RukKdNnJgm3xC7Q5iUm8A8+z96tsTZynGvLQAAAABJRU5ErkJggg=='
p52
sb.