ccopy_reg
_reconstructor
p0
(cemoji
Emoji
p1
c__builtin__
object
p2
Ntp3
Rp4
(dp5
S'emojipedia_url'
p6
Vhttp://emojipedia.org/skull-and-crossbones/
p7
sS'index'
p8
V208
p9
sS'code'
p10
VU+2620
p11
sS'apple'
p12
S''
p13
sS'twit'
p14
g13
sS'gmail'
p15
g13
sS'related_to'
p16
(lp17
sS'name'
p18
Vskull and crossbones
p19
sS'known_as'
p20
(lp21
sS'default'
p22
Vtext
p23
sS'bw'
p24
S'data:image/png;base64,iVBORw0KGgoAAAANSUhEUgAAAJAAAACQCAYAAADnRuK4AAASCUlEQVR42u2dL9RNzRfHnyC8QRAEQRAEQRAEQRAEQRAEQRAEQRCEN1hLEARBEARBEARBEARBEARBEARBEARBEN4g3N/63PV+n99+x8w5c86ZuXfOuXuvdZbHfe5z7zkz39n7u//Mnr2Vi8sE2fMhcHEAuTiAXBxALg4gFxcHkIsDyMUB5OIAcnFxALk4gFwcQC4OIBcXB5DLUgD08ePH1cuXL1dPnz5d//v161efDQdQv9y7d2915MiR1d7e3h/X8ePHV48ePVr9/v3bZ+Zf+fLly+rZs2eru3fvrsfuxYsXTS22jQHo169fq7Nnz+6D5cCBA6ujR4+ujh07tvrrr7/+A6STJ0+uNdQuy4cPH1bnzp37Y2x0Xbx4cfXt27fdAdDt27f3H/7mzZurHz9+7P/un3/+Wb17925169at1cGDB9fv4d/379/vJHjQNiywGHDsxeKz47hYAPGQAsbff//d+V6ApPeyAndNrl+//h+QACRMO2Nx4sSJPzTS1atXlw+gx48frx8W7oMp6xM0lAZol8Rq6UOHDq0ePnz4h4ZBW+N0WB65TS20kRlilfCgkMAcwTPbNQC9fv1632yhafqIMhxJ72e8Fg0gVDAPmkuMBaDDhw/vDIBOnTq1b7LwvHLk0qVL67+5cePGcgGEp8Cg4FnlyvPnz/e9sV0QeJ80LqCY0zhVBxAexRDzheB97RKJ1hhxEfPJle/fv+//3efPn5cHIAgfruYQ8yWvDa115syZnQCQTBHP/PPnz0F/q/F98ODBsgCEt3X58uV9FTs0uszf4InsQlQaTSvyPFSuXbu2/tvTp09vZayqAOjNmzfrwdCqwu0cKnLlUe81BC2HqeRe4RK4zHwX38uk2AuSalMJb9++LRoFJqrMs165cmXw3zK2MmM8y6wBxIScP39+/4FIVTDYYwT7rljHGABa+fTp09qzAwyYRQUqp15oSLQHoCPWBRnGbA8VIvB8HnGgMZqe+1AucagJbAJAEDhWkeIS/MtgTH0YVhSfxYQP4VAAhgnlnjS4scvm47jI1QGI2AXweE/X5ykFwyK6f//++j5yBOLM35JIHiM2eg2IiCnNBkCochE5LnhPbhwjRzAb0mZopZTwnWGmnzgSk4mGYHIwVWhE3psTEe8zgYD61atXa7AwiZjtMIfF2GACuzQx6R3ey2eN1daiDLp47pLzUA1A4iqsvLED0Ccyi2gIayKYRIBhg3C8l9dyV38NbsU4oIEhtiGYAItNPfAzi2OopxrzeAGyPksX2hONVItg75WYXBJ8NTPnlg+xmuEa8BmtdoCFG7vtzHTKnKIZ7cRy37EylhKTzGfAGRknNLA1bU+ePBnF0aoCSByhtmACYuUMUwn2poSJxYODS8W4EwCrISw2eXlcaOuSC20ygHA9mcjaMYiwzIEE7aY9jlIC6C1vlBatKRB1aTwWfKn52isxGFMI4Bjw4GHNXSDxtmwFE1O7VPXOnTvFY0Z7JQYCWwuJJhhX2sbCbZYGnnABiqsQIhgbNxtKA5irZuJA2HYbByG3g7eB2oRcj3WZ8Uos0WQFLVHQPCp54XkJN9QCq8ayVIS/WCTaVtOlAnYXLlzYB1aO2CJ8iGBot5eUJ4PYkv/T89YAEVqnSQ1kVSR8BZIG24coporD+x4AG209lJjnsK1YTy2xQVk0UenclvUAm+FAQ7gSqhotpIfoKsW0rmdKY9VS9duOGylXBycqRawt/+FzS3mwGy86hmTLNKGdYt4bgUNprq4yhW3WAtd2uTXZYzL0oQAWcayS5msrANIDKcwfAxERUz1sV6CQLPZSRXU+U0MkLFhruqAWJT3lrW17sCDC3tsMsuI+cJ8uojykfrgF4Zlz812YfKVv0B5jJp0qCUvMMV2lS1/3tj2gFkQaXCVHAVKXzLFmmmfKzZKzqDT5Q2rKGVfcdFv3xGKskZ3fa2FVqhSBFQKJ1MojvtQlvG9uAvFHK+TGxuR0MDaYNTgRCWyAiGlDo0C0WXyMV5hE5eIzukphZg2g0H21bmyX2uZ3c9x4yH0DBrzMHAEYOfvkUwlaCHnNeFkzM8AqsgnGvr1OvH+uO1e1UzdXVHQfC9CG5bloZT4f7TS1aG5WAAo1UV/TAO0dm2M0Wh5WrtgkqHZv4IqrsB+g1DJRswKQHdy+vJcCY3PsbAaPGcLftPEQLsPCaWnRNAugvgJzxYrmCCBMEjwIQp1jZpRnbDFw2iyAuhKuVNnhaXDNsaiMOiC7g6Vvj5nGxAGUqd67kn1EpvHQWMG0OJmroDm1pbnPJOUsKgfQv6IdGKnCKuXRahZebUoobcnhQgLQNnaezg5AcllTAFGaYwltgbVTduqicgANAJBKXJcCoJyAYt+YOIAGDJbyQ0sAELt4AVGftGy2ZwcgBRCXACCeNafOW7U8DqAJANLWXbyvbfXCqfGsEOm+ZxnTpGtnAaTyjhBAWoV4LS10aC8heib+hdulgooCUItatzkAabAsgAgWKui2BPddojY08CBARGKUqHO4gUBbmxxAAwDEwBJ5ZTAJGPLa0nsmslBwEigeI2ioAjAlUUtv2lw0gJRAZPWpQrHvmIQlijqx1mq+sFgAUVkX1r/U3H/fsplrWfs2CyDAgs3nSpFLvBdUPfEUOIRa1aUu3sN7S+bQVH+MR9V3D/ye/NeQljQqWymxvWdnSXRM8MRSvXb6Lsh4ib1RgDx1eF7fRW1PDqdRN/oxDTh3EkBqYtkFIMATtnIbc01pRonmG1urbPtJ9gmxr5a7kjQHIA1uCkCYLbvXacoFCMd4Ntxb6iTB0iAWF2wxEz9LAGE2Skycrr6tQ11mtsSFKesSbetp9QjQ2QHIniVW4hp6VBLms+T3Ywa7RKa6xQaiDqARJwJpO1HJKyV4n4qFtSoOoIYBpMoDTKYDyAE0GEDaeVK7g+tiAISddwD9X3QIS6tBxOYAZCdnVwDUxW9U2lLryCsHUCUA4ZkxsWwhDmuPrJYsFYtKxbsUqBwTanAAJQBEicPUCHAXgERcdcW6oJWIgtvjGmKiEhaulpuJNtdcISfzHnauLwkg2x021SXEtp+rBSCVs/R1aXMAGSGtIO3SdYgsNTKlTh0Mu6DZBpe6QjNmj+meeqXa9GknRs6uDQeQEeW5+vZLlUhmxpKUMY4VS2SW0ELcf6y0hBIRPVvrpxE1ByA1X2IA+2qAdZrhFA8oTBHYYxvs6X8xbalTqUuBN7wHtGyLZaxNA8hqgBz3lUkYq4lijSvteRL2/I/URNKGpu8c1aE5OGm31s1XkwBiouTlMDE5nbcwA7aRdm4WPEZOFbwbUk6LFqPgKxdIBAZTgCT/JX43hx0oTTYZZFUPzZbDG5j8PnLN7+nPE5tAe4R2eOVoAz4T84PJC7UivYyIK5Ge6PKqpAFZEHOQJgHEANuTeob0N2YS0RaYQl245qxmvKeuhlSq/otdlK4Ocae5DzjcUA6jM0K4FwfQBLH9ozcxmLjqfdqrdlWgDU9sq2nmYgBkNQL7wjap8XJjRqVFrWv6qhQdQJliA3Y1V6Q9uzTkSyGPqRkVVgxsTvvfmu/UrW0zkM9aEmvkjflUOsFetfoyqu/R3DqPNA8gNd2sqdbFteyF+UTrhbsvajS6JFmq8y1a3f81WwARKLSJTzRR6da+sV0WilCH0ebStTnhYXCpQ/gcQCPFHtVoUxBoplLmJIz92BLSMHGae0hKrquv3bWYasWOSh51udMAIrAn8wJoQm3AayVWq40ZcYX1N5gtWtERTCx5SqLyfjwHdUg2QQyhbnUrz2wApEbclkQTr1HF4JzPk1ciODRZNgqPJvRk6sQYUIpYQnBVM6zTfebivdAwQZom1uTBtrZJ5ewcQB1CPkgDTF4ptQoBkSXAkOzWI7h2X30K9Lxmj0dvWcM2ByDIo2I/8IA+j8u+X/GbVsXea197lzA63uoR500ByLq0xEVyTxjGU7KcqEUtZJ8tZ2GI7yk+hEbmOR1AHaKgISmEoS667drR4i4GG44YklOzJk+HEu8cgCjHgBTjhsNTUN+4w9b7sMc6jt0HpdU6JlrMPRIkDLWeUgyx4q4hHpIF0FBOYxeHde/RUCRgGVdMN3yQuBLhBu57E+R7rzZw1GE1daHWmTiR5iHno4eiU23GkE5lwsOSDUXC8Zys6LnsJHWZJQugMdFs3Z/cezrW9jW5gm/VjmpXAxBaBFOkCkBWhOUmqGIG0npRrJwpq0b7xfpMhM5ft8KExMhq6nXdt93y07VNx0a0xyaGw/1wjC3PAchVNIf25TULLsIgteJJVQAkUpsTTWXVEs9B9U5VuVqlffVDmNFwQ1/qWEm9Hu6giHWP79prjzbWhE7ZqiOeyH11jS33ZUMBmLkaJq04gEA6qpMBzs3nAKISYXttCuw7BRC+EL5HaZIQQJoEa3Z4Rk1MCKAUeO227SkuOd/dtemyS2vVaNJQHEAqCu879720YCJtAViXKy/zE2qlmKZRLs4Ovpp/296F6iif2qocdvXAqdgEyeU79GzwzNJeXHEAKUHYd2x3yQFiMsJdEF0xkxiAFKMJV6lMlU2nWEIs70wAyQWQus9vIutuG1LktBbeKoDknWyiLS3ZemvnCQ1IY4RekxVpqthrAhCfbTtkMPCAEg1rzQIkG5Mk/kWshs/g/7wuviMA8T12WzShh01sX5YWYkGUJNTFAaTVXRtAxGtsJaEObkNThPu4MEtMqi6bO+MzFD8q1TDK1hdpX5u6fsj7A+D2fbWP9LYbJnMj/FsBkCa19oDYVWzdYrnLdh9XqhEC2hLNYrPfvBeQYYLRINJMgE0AVJkJJojvI9Yid996YfAixYaktSzHwrSooqD2YSp24ZTc8VocQHIza+/lEihi36OEpQguxVpMHKuen8Vr7EBKC4WDG2szp8iwBYuIdawRg9XMIbmnnGMTnVgF8OYBpM4SDPwmABRziaVRUm5r7ECX1CEv2ilqtZxItPU0xXFi3qe6nsW6rUpjxxpZlRQtBMh0yUrH4gDCbKg5Qs0weheAFEpImYUYWFInI4tT2e8RICzPUne12B56rf4wTWODiyVrrbvMV+nvqRKJVkEYJLEWmRaniAHINkmIHdCrDXwWLKmz2VV6ar9H2saChYWTOlVRHlC4oGw3tBrbeTCXto4cM106bFAtF4YbK67B6oYbMeC43UwWrzGRmJsx9TtaVanTbjRwsaitJtR6I3ot/DyZZAsgBQ1DsMS+DzCzmBiL8OA82yCrZMEYxJ2Esg2sonlqnHZdNRtPvIFYCitNOx4gvbiUNokKkIbGJgSgvnbAsdwU3w+A7YAKQOFEyqsLYzUAIufQOpWDxMi1NS0lisUAKJ8p7cszAvJau2mrA6iPKylqPSZD3QcgtAQrnysn7pHKhfG3UzwXEfpYmYrdgTGVL8KnZJoJT+Bxzr4eqE/wBhRiH9rOTcS0K7ejpgmQ+r7ztlKkXOZqLIA0qTEuaHtST8kdAhR5c13dzxYHIOtepuInKZH26iriYmC18xMQdYENU4O2iAGF14Zup2YSBWBMSkwb8B6ZGxbSkEZaMfDDLTe9BWjrALIPP2TFYd9zdmAw8apUZLI2kXcCqNIIfGeX9rIphlQxWpfoUN4amfZZAEgcARdz6KDlFqcDInvCM5qhxrZhSDkLQmaZiHgfgcWtttWDQ7gQz7CJ9jdNA8juQM05F9Se2DxksJVo1eTiBcJ3SvAFTA8LwbrNmObcmIt153m23LCGcnLb7Cm0dQABGjvoXVwDV1fuP57GmEEDdDb7jonBjGBmhoAJc4Ebzz3bWiR+xkMccm/hTlSerU9DWg9um/vFmtgXFtbHEATDQ2EFs7qZdAZYE4XKn3KKsfo6hy3s+FziQfwOEGAWFL8iQIjpY9XHyj+4NzygsfcFiJR3k4ZMRfG5H43Ftg+jawJADF6qT2Fsokqdn4W2AxhTjvHG5KDBxnpQsXGwGg1tBJgVhLXbpPg5jG7vJICsK40GiB1dwGsE+2p5GgAAs8CKxiMEVOF9QFgh44QQmMwSoEmNQx+ouY8W+gc12Z0DEmmbhaPKS7e1a13gYwAJT5NFRdgC0GDmMK3b1jxNA8hlPuIAcnEAuTiAXBxALg4gFxcHkIsDyMUB5OIAcnFxALk4gFwcQC4OIBcXB5CLA8jFAeTiAHJxWcv/AAM20KiXIfOGAAAAAElFTkSuQmCC'
p25
sS'version'
p26
VV1.1\u02e3
p27
sS'uni'
p28
g13
sS'desc'
p29
g13
sS'browser'
p30
V\u2620
p31
sS'annotations'
p32
(lp33
Vbody
p34
aVcrossbones
p35
aVdeath
p36
aVface
p37
aVmonster
p38
aVperson
p39
aVskull
p40
asS'wind'
p41
g13
sS'andr'
p42
g13
sb.