ccopy_reg
_reconstructor
p0
(cemoji
Emoji
p1
c__builtin__
object
p2
Ntp3
Rp4
(dp5
S'emojipedia_url'
p6
Vhttp://emojipedia.org/horse-face/
p7
sS'index'
p8
V237
p9
sS'code'
p10
VU+1F434
p11
sS'apple'
p12
S'data:image/png;base64,iVBORw0KGgoAAAANSUhEUgAAAEAAAABACAMAAACdt4HsAAAC91BMVEUAAAAZEgYWEAYaFA0cFgsZGQcjGxAcFQo7LxYRDAQUFBQ+ODArJBYkHhcOCQISCwMgGg4lHxEeFwokGwscEwdbWFE8Ni46NSoIAQAQCwMRCwMKAwAPDwcVDwUrIQ4sKCEmIBcmHg09MRgiGxEuKB5bVU0pIA4dFgkjGQoYEgchGgsLCQIXEQYFAQAFAQAQBgFEPjJSTENGORw4MCJFPzijjVIZEgg3LRQxKyY/Mxg4NC16aDujjVKgi1CdiE6bhUyYg0yhjFGMeEWLd0SXgkuHc0KJdUOfik9uXjR9az2ijFGEckAOBABqWjKSfUikjlKOekaTf0l/bT51ZDhRRSamj1OPe0Z2ZTpwYDaWgUoSBQAJAgAkEQOUgEl+bD0BAAByYjech01URyhGOh8tJROCcEBPQSIXCQFsXDNXSCdLQCOrlFaeiU9iUy8ZCwEeDgKQfEdeUCx8aTuijVFkVTAlHA0dDQFURSUmEgNEOSCNeUU4LhdBNx88MRohEAIVCAGBbz9gUi42KxVbTSunkVT9/f2pk1VqTTkbDQIoIRERCAJ4ZzooHg4/NBxpWDAeFQo1JhM8KxZcSyddTyxhUS0wJxQgDwJmVzErIhFxbmlHPSIxKRZlUy1QTEjx8PCeh0krHgwlFwzg395iRzM/PTr49/eOjIpBNhw3LxrJyMeAbj729vRzXjZWPSj///9aQCyBfnohGgxHNxpfTypNPR0nEwQwIRB2c27BwL96ZTvPzs3m5eSZl5VKMyNWUkuKhn8cGBEICQylo6IeHh+Cbz85NC9YSypzYTOgnpurqafu7u7a2tp7d3RgRy9iX1w0LBi1srEsKypQOCW7urkPEBHk4+NaSyrY1taKdkB4WkTKv6EYFAqmlGSqmm9pVTPn4tWlop9IRECwrqx0VkDW1dIjIyNFRUW/sIero5F4YTv5+flMPCF/YElGQTo6MyNfVD2XhFOKe1RtZVV7blBjWkuajW+9roZpZWGJfmoiJCdoZF6rq6tmYVscorPgAAAAO3RSTlMAaF0kiwcsGv5FA0rJEc6drWc28+X5Z1ePjHrkDcF05Zl99z/e/qP6uPDQO09w+vjx8fSc3P7b8/bRvuEKyxUAAAc8SURBVHhe7ZZVcBxHGoAlW7JkR0bZubMdxxDHYT6eZWZmZmYhMzMzM5iZmRnDzDlmfrie3dUmimSfpu71vqet2v2+6f63p6qj5sP/eSoxZdMSWFiVmLItFrkf+3yFqX0zEJYkgA8xyAOL2+taxroWgZWY6kw1plWIA9tMAwcNxm1RUW8UDhwUja1AvIOt9fUNRf7X46J+3lDfYDAULkIYWLil4cQJe5vlybjXa07ctSdnbEYYeLFwoM7rsXpeWZ12YtfQLllawhIk+hMvrWexFHkej8fab79bVnZD2rwlDsk/sEzJUlg9qd7W1tT6xh2ffTZ0hOZYPv/CgpeVSlaetbzc25rrbWjc9c6vy45U2VPWvzhP/4WXldrK/jyFQlGe6k0NB/Ld9YrKl+a3/w1abXXtJZZ2oPGgwqpoaNwBAt+Qa+M9eawfzsNflcDS1kxy2lLacBKWVjGQBmYAAkTa3tZy6zwKC35aoxQRODievrhUdqvZjAk03i17BwRk+1W53v9eeDIrzd4k4WNdDFRSErXYWYqy1O4YKhvaTty+Pz0dLqx9pL85Po2t8cn1VDwKxeWKuVyuy6/pvjG0azuZtv/AgQNwYd2jnh+fZhPwSBgqA/hhSrHSD2/s2G6uBYFQYcFD/ZVBH4dBM4AeQew78qH9iKZ2bzoIpOeW572y+GHzg30JzoUP+ZEAIzNgO0+3NXinC+sXzun/IORjIn6k4OIxiecvHfSogoVWj2LZE3P4j22xsAU82Bc7neKZCb2cT4TSyr2qAwAVGMPyOfxXLWwN7ONLsTSIWzwjgKJi+T50v7U1HS6ATShn+68ZaumZJDC/UsHpO+e6cN8r4PUY569YqblwQdXqYc3y1/yuWxP0xdjT/7h3/ExGKXdmgZHk1CkVqar04Bwrvz+/NX9sC/koJ3T/zpfD507rwRJmIlZX9qtSVbMDsH+IFgj5XKfgzLkvvrh/mirmzsJIrreCTYATnTfDf/zp3X+Cps+PGGXS3j+jveiMaKjIB5fTyPLmqlRgijP9U6emnw8oxmVXvlckFk9bqG8D3FK30pOam9sKAjOe//Ef3v7O+S0uxVKd4rCdlDRdQCXh8cUaJcvq9Xq/O4PHTu6+8nXYDyMuBnpYYjAYIAH7aKqLypVXlneXe8o9365g0WvXL098wJl9fqdXgKaiGeDdZLiwWL0Ljc4K6OsUVmtkBUt/1HH88OfvY+fyUbCPp2KAhqdi1Xw51uVC47jUFiVLEQm88e/Re28de7/v4b4eCyD5KEyiGotxUdEusVFbX62cPgAnT93+/NjUX/tgf3aCgXZhSXK+hMiEaFWZahxWj8FgGMk1ghxlZAM3v/zXVMlHDMZs/ccoFPDlnEyyRshullEkHDkOzEGP5RMEjnDg8ZMdWu253pKd7/YFnzgTeP8kDsFcxd63T2emEDhqEihgcWoivSgc+MU/T93XDo/s3FnyVR8Qkhh4PBqAD4GmYnDqzPPCbnsRrUrAJPr4chIOwCfSk8NDfLXj7NnRwZKSkp1TH/TBhgsTwgXA6MH6Yd9icLOFdCaRx1HLSQAOBbLVhQK/OXT2aO/IL+HCR3iMCyyPJFfLwa9wMHKOhKLRdVv2iprgAIXH4YMv5WofGbKZIoGJwatTIyMjUyXvqklqH4FCBlAImTweL5PI1EjZ+yzxORY/WyiAV8Dhw/DIVezxUGC44/Lht45d7e3tvXp18PdvkychnYxG0wmrIDqdDkl1tX6RsbA/y+K3VU2SCRIfJwiBKW3rDAUu3By9PXFt8MGDB4PXrv3lkqy2+WKaKM3+ZlOBOznZ3WS3GONbnn2m0OGnQWYKCASREPOFbkcosLHn0PHbhyeOHj06cfje3xvtjuycrMKsrJyxDKPRmDEW39WeGB33XEunnxYAAZ7EJ5GArVEmddOBTReePjR6+cqnn175+Pjon2uyWhKfXRm94vnE6or29vaK6j2r14K73bJ2YxMtwAwPJpNAJNNlBeFA3MYLPTc7ru/efb3jb2t+W706JngXjF24OHpdTExM9AtLowDLq8fehANEAoBIpFDMdJm/c/oyuOLO8Cc9J3t6Phn+2YbouS9R0Xty7DbITCYCgE4m50O2JhAI81RMwtaNWxM2rVz40BtLXZaoTZpPpgCAzoT/3CI4ECF26SOvkEtXdzmShRommQzbZnM+Xci+mBGFgA2mzmZZ4DwTYM6fFAggXRuywNrqMfhtMpthXUOnV8mSDdlIAgvAFMHLIJicFNDpAQgS0tzIAoueyRIly8DpDupVUp2tQIQoEPuTFkczTQpBAWBLhUIZ2y+qiULCivaMIrZOKg3qOh2trciSgyiwLiVHVMCmyWTgVaXZ2G0F9s5xRIHFdV1GQxN4QZPdbndBQZHBkX0LUSDuuYpxo0NkMBhEMI7O7HETosCSZXWm8ZrsDJjs7OyanFsmEEDC8vf2VLR03QrR1WUyVVRE/c/8B+b3dLEStFKDAAAAAElFTkSuQmCC'
p13
sS'twit'
p14
S'data:image/png;base64,iVBORw0KGgoAAAANSUhEUgAAAEgAAABICAMAAABiM0N1AAABTVBMVEUAAADM1t3M1t3BaU/M1t3DgG3BaU/M1t3LzdHM1t3M1t1mIRPLzdHBaU/M1t3CcVnM1t3BaU/M1t3M1t3M1t3M1t3BaU/BaU/DgG3BaU/M1t3BaU/BaU/BaU/M1t1mIRPBaU/BaU+URTFmIRNmIRNmIRNmIRNmIRNmIRNmIRNmIRPBaU/BaU+nVD6URTHBaU9mIRPGmY2MmaJmdX/LlYLKh3GZpq7Rt6xse4XBaU9mIRO7ZUvZnoJ8OCjLjnSfTjnWl3zTkXXKfWLHoJbNhGnQim9sJhfSlnvJel+OQS3VlHgpLzPDh23Ju7rEcFWub1inZ1HLz9SwXES4ZU3SjXK2YEjM1t3Cd2HHdly8f2aKSDaqV0CURTHDbFJPPjp3Lx5xKhuCOCbHpp+ZSjV0MSGgYEuuYkyRUD19MyLCcFjJtLHLyMuDQC/DfWptKRrJ9BAFAAAAMXRSTlMAQM9gEAAQcL/vr2AA74DfUHCPvyAwQI/fIABQr5/f3wC/AI8AcEAQ77+vgDDfIM9QEhf51gAAA1lJREFUeF7E08dv2zAUx/EABnQJfNBFhuEEodKV1mnV64+Sd/bee3Xv/v/H0pQl6uWFoppLvkeB+ACPj5oqFCCqeYL06sVrOW7hzfRzmleLEAjTlDAFAOrtIjW9IPPm3heZdh0ohRTlG0eSnuWOr5gSyENa2JxAC/JBqRkizbNAApPqi9p5Ke+np1usY5KwQVFRajbeMmju3fy8cSIrFAJXKz0ttUIgXmFSL2xpp7dyBYRWqK0gdRhZB7/vQx+g60mpoLYV8jUkjzNomJxfUOi7do6lhnwrFACXClrPoI0kSc47HFpX0CUQWKGmhm7jDErGrXYYFN9qqGmFxBi6i2EgLX1mdxTfjSFhhyJAHiBrJ0nbM9CnbA0SiBhE9w/TBOrmjtkD2T6H2kDMoUTKTvdbYTLoY+1ySMWhv12l6VWZSqGWBdpLNLSOYq0SKHgY6ihnV80XEyj4b6i7NcbUfHg0ZPoiO1tJdUjYoC15sZpQCM1HQKud3TEHkiiHDm82N28OoevnkOb6UJkTDkg5SoJukJAGUJkTDmhT99UKmROVIDghPAm0RKGlp4Ci6lBUCoVk/WsUWiPrD0uhBnmQZxQ6Iw+yUQr5SLNCJp9Bjt/fBFLAIFJ1SJRDEYE2is4GcSIH1CDQgD3svIYDahFouQgtE6jlgASBlth7zBMuaAaF1th7zJpxQjXykKzPqOaEPBSzbt9zQnS2vnH6dDI3VLPsf0Anc0OiztbGllYXVaBZtja2tFkHxGfbMdAOm8wFeey22V17Loj/uMsP/SCRcEH8koYZNGRX5IZ8mK4z6BomvyIUADj9uL2/PToFjlLnKP12sj36AQQVIQGMTnT7o2y2IU5/pt9+/YGoCv2rjA5SHYSBOA6r+NA8ik+igTKL3KHaqgUX7wIu3OQOvf8FmlTClHYSMr/lH/xIzN9mfNvj/3izy+6n/fxDlFFj7YhhHAf32dVBtw0XU5+IMmqUFphG2+TEeV1n875IIMqosbLQ4qDFYLhUyVBuofGVwXDJk6EyDpXJEIjY1QSkQx3+Wh8uvwyo8Y+N4dIwIGUiKQYEOuxo4EAyDEkW1IehPgQxjySBB5WadnTJhEAJyhEKuBCo4tspFKRDWPVxPV0BsCCslZ04ENHJFmI9AeBPpl36ypIbAAAAAElFTkSuQmCC'
p15
sS'gmail'
p16
S'data:image/png;base64,R0lGODlhDwAPALMPAKVbANI3APx6ANNYAP9lAJGNAG50APaFAPlcAPxtAP2QAMRxAOJGAO5XAPBJAAAAACH5BAEAAA8ALAAAAAAPAA8AAARY8Ekhq61qNXOvIgMCFF0lIELCAOV1rhdpCQSBIHXCctKR1IRfzYH5JYTAWmAiUTQawB9i+Tj0AlhG4kBgUB+khKfhtThdy4blMDCrHwxLgSdZSArfEo8eAQA7'
p17
sS'related_to'
p18
(lp19
V\U0001f40e Horse
p20
aV\U0001f3c7 Horse Racing
p21
asS'name'
p22
Vhorse face
p23
sS'known_as'
p24
(lp25
V\U0001f434 Horse Head Emoji
p26
asS'default'
p27
Vemoji
p28
sS'bw'
p29
S'data:image/png;base64,iVBORw0KGgoAAAANSUhEUgAAAJAAAACQCAYAAADnRuK4AAAN2ElEQVR42u2dL7RMXRjGbxAEQRAEQRAEQRAEQRAEQRAEQRAEQRAEawmCIAiCIAiCIAiCIAiCIAiCIAiCIAiCIMz3/WZ9z6zH/s6ZOfNn77PPOe+z1lncuTNzZ85+9vv/fffeLBDYAntxCwJBoEAQKBAECgSBAoEgUCAIFAgCBYJAgUAQKBAECgSBAkGgQCAIFAgCBYJAgSBQIDAIAr169Wp27dq1tV5z5syZ2cuXL2N1g0Cz2dmzZ2d7e3uzDx8+dH7NkSNHZvv27Zu9f/8+VnjKBEL6QB6uixcvzv78+bPyNT9//pyTh9dApB8/fsQqT5VAx44dm+3fv3/+L4R48ODBytc8f/58QTouJNjv379jpadGoF+/fs0JcPLkydnbt28XhHj9+vXS1926dWv+vKtXry4k0eXLl2Olp0agz58/L1QXZEIS8fPhw4fnP7fh6NGj8+eiyu7du7cgHpIpMCECPXz4cCFJ5FmJDHfv3m18zZcvX+ZSB7UFsJmOHz8+f83Bgwdn3759ixWfCoHOnTv3F4E+fvw4O3DgwPwx/m3yynDd+f2dO3cWj6HyRLzz58/Hik+FQHLfb9++vXjs2bNnC7sGiYKac+Bxob6uXLky/xnp8/379zlxRKJHjx7Fqk+JQC5N3EjmgiCpPXTq1Kk5uVBfMqC/fv06O3To0PxnCJYSLzBiAp0+ffqvx3HJ9TuuEydOzEmCqoNsGNEKPPI7/v/06dP5pddAsnDtR06gCxcutLruxIM81oNak32kC0I9fvx4oe7wyvw9UXNdApOBgRLIA4Iex7l///7CDkLavHjxYk4OyICX5b/n/277uEEt+ypINFICefCQlARS59KlS4vHSLC2xYMgHySS3aN4EiAE4CRCzaHeQqWNjEC47b7QTqZV0egmomD3CEi09H0h2/Xr12dv3rwJqTQGAgHIgv2CtMFAJriIuuoKVJQIgroTeA/eG7sJ6eOSSnEmSEbYIIKPAybQkydP5guKZPj06VPr8/jdzZs354YzEsTB4ymBgCLdSDpUIfaS0iVNF6oOw5swAiry3bt3S1MqQaAKgCq5cePGwihGUshl58KuQZKk3peDRWbxZQMJSBeeD0kFApF4biRw24jUpFJJs0ByiAUhp2RPDaKklZ3fdUE9cr0MBBchZltejWI0pBTEIGApEne5SPgi+aYQsBwEgRQcZFHIsBPPIZjoFyQjF7aOWiHfBkm6SkMIwd9AjZEe0edadiHNkHJjVXfVEwhJoMUg5pMbkBTDuitQV9hgkARphbfXRCScAYg3NiJVTSDZL4o2U66RG7KNsIW2iWF5uiWVSGMqs62aQB44TJOqOaE4EYZ3l5jTMunE61F3bkNhU5XYDJMmEMlQ3XSkUEnPhjiR2zd4WtsaxUgl9xhRaWMgUfUFZV3qoHOAOiIM89T7wsPCbXf3fx2VTFB0TFUBVRLIE6kYnn0CqYNx3OTGIxlpPVo39eFpFuJcQaAdgggv4p2bSztPLV4LKQ2I1BStpmZpncZH4JUCQ+6irYpAZNxV18NC1dhZCpGQGimR+BkPbh0QLkCyqV4pCLQFvAu1VMxnW0ObqLek5aY1RvI0S3qZoyMQakoLgacCmYYCiET+Le2G7ap6UX2SYEPM/FdBIEWbibvswithIfB2UDWlFoXP7iRaZ6KIetfwPIfmlVVBIFUf7sIOoJwDV9vjLesauJuAhfeaa5XUdrWFvHdtSOmOqgi0i9iNG7cYqJAJElFm0QeJ0vqkJmAzuS1FEJN7EgRak0Db7jwP0qkFmkUlHFBqwAJkwK3XZ+BvdzGqVfjmF4/VXl5bFYG2HYBAwRkSSLtZQUgSmBjnpRaD4KO3GXXxsIh/KU+W1nKXUMGjIBAu7VZf5t/3IBaTFtTrooisFNSTto6HxQbgdV7L7dK0RmlUFYE0VWMbAvFePtalLwIBrw1KS22bQI5NFZIQKW2W1KykIFBGApEW0JiXvglEeMI/x6rFx07zElvqhprKeTGyeV4N2fxREYgdr/wZVYLEgfzG96ECPMi4KnGKp9hEMqRRGvF2qUS4oK8g5KgIpFYd9b3r56a2nlIgtqW+Mz7DpiTmffAy24r7eRwVqNYjbEEImZtYoyIQN1l2g0b96gavU+e8a6i/bd1xxU1AbWFke7B01YX02qZEt3oCabLYtgQCJGHTbom+a26QOvpMTQOucPvXtc94T3KGBC6XNUSuGgs4eAL5HMNdEAhgAyHCkTrEV2pwfyFO25g9VNM24/f4vrw/ubQ2yTRaAkn6KPI6VuBRoVK5SLk4CDSicncF3h8PkMAsIQ3Ik8v9751AHispka/qE+r2SO0RFhhiDbE+ulcCTW2CqrLuqU2mqPWyCkySsl27aCdDIJ+eOqQism08qKa5j/JClxFE0fXSwdBqCeQTyKY0vxmXmlCDqysRa9lgCFUa1DZxvzcCedfplI5lUqt22qQIsZZtJPXJ1VY73QuB2H2Kzk5terzUdtrBQSgDErVBvfa1HRzTC4G8hLP27otdQ6ooVVeSTG2emAhUsq6pWgJpF7LjpjYdVfk5IsgukRVNbovX+LSPZeP+Rk8gknvKUQ29rXcTIHFV6ipAiFV1Q06grsX6oySQV9vVXKqZC2ph0nkeQDOJNCG2qTbcnY40DDAJAnGzFHGt7SaUBGkGEUEpjbSgvinhmlZZ1qLGihAISeMpCxJ+NZVmQm68mzRHlQvaRCKBe1jpUHQhbf2uxRvLTiDSFTIQuXFMuKitcU5HSJWK8qq0Qz1j3B8uCKzKw1S9ewu0ap1qaIXOSiBukNeq9FnU1Qadq4FULOUei0DYPjobVvEwlcCmDgaemiQXm3CdkcaDJJBLnlV5nj4NWn1GFqUURCDUkmwbbS4qEnR8VTqMU2aAOjZqGAuTjUDeIFfjicmoC51Hr+L0UqpVBNLcRKmv1OPS0Z2CmgQwutX7BgFHRyAlB/2YpVoASSC0Ir9+oUZKqDHVbevgvPQeYVxLXfl8SJV9EITke0C+viPTWQikNt2cpZSrwCL4rsYIxWZIT+ZBGriHmFvVuhvfllh1W8jH/MkTQ7oDFetvMvCzagJ5qUYTgSAYOytXGqOpNbitpwpPRnaHAnk5G/a8hHdZMpnPlfb485gOnZFhjQTi575soV4IJPuIf3d9IEkX8kAW1IYbqV7ctm2P/jJ43z6fY1lA0KfVKnsvqaXPrtRIX5I+O4Ga6lf0pbXjdxFUJGSw6pgmdiqfpynew+t9YXPtaJ9k1iUYKIMaQxs1rO4OV7UEIrmPfcSFshAIqSKV0Lab3RZBDG+6YKjDlDj8bbwTiAJZUZddzvHy98nlOep78xm7BC6xf+QtEqtSv71Hq1Ue00dXSzY3XhV07IwmL0HBMF3ruKO8H6Tgb6StvqjFTfNErv5SF3pnN/y/91/H8EVC63tCHB2ZoC4WFehxr0vbQtkI5H3pTQXzaW5n1fgTHVzC89JTCpXdhgDbxHL8M7HbcwBXfJPB4t4e3dRHp3RM6YBtNgJ5jUvTcQXpqcyrCNR2fBK7DuLsYufxHi7Rahu7K5I0DYzQ/WxKxA6SQKgZ6XsvnnI31aXHsqZC90a8JgaDctci2wOMTWUVfSMdJ+wOCNM5moiPsZ6rCC1rMtWHIzV5Y3gVqI1lOx2V5MMSMMpzZs39DIsaC/7ZmF4/5POoFdn2gn02GB7cIHvjvdKuqRNhXVsKozl3vspV77Iuib6hcza4J4I6fT1LnztOtJd7t6QGLyoCQ7JN6uCWNwUd20L+uwbSzT/vkIr+ud+YCz7lRPmzXEnX7AVlnhdLYzWoOHYSF18Q/e6qznvnfaflBBFe/5xDa3rEGXHjWoZ3ru+RnUBSQewMor3Ef5rc8HTMP9LGg41dJr7vOlbTd6JyWwJpsNU2o/V6J5DnfrxMk4SlZjqzSP47MtZuOBMhLlmy4ATCMB0qgST9c0aosxNIuRvFLdDJywxhbA4vryDOU7L9x8MLXKlNVjuoFRKBlEfLef+KdGWksQvcStzPtKQDyeNZcZ5XUnW515L2bg0FmAc6Vpz7h9OS8zsUIRASxw8gSckkPe011Py/j9OafbZ0bdWUXR0AAopqEcodDC3aWEh8ostEUZ7Tx8ApiO5DKod2DKVKUlSIltZaD5pAvktITbBDELVOKOwdVFupBr9lBv8Q7R9Foksemb43Cyy8Qj/cZGj2D9JTuTAV3pf4/EGg/+DGe4nWYaTwLhOc8lwVoC3VohQEmv0d8ZbtkHPkMCoab2mXnaUkTUnDpM2IQaDMIIyQnhKYuyhLVQo1DYoKAu3IcPbJYTmgmuZSub0gUGbD08/hYmFzZ/wVD6tx0EQQaE34sM8SI/eUm4K0QzobPgjUAq+zLtHdKTd7aAHKIFADvHethOHsObYxHeswWQK58Zx7zg6enspTapksFgTaEmmhfilbq7ZJ80GgDZD2f+UeTODlLGPxviZNoLROO2fdM1FnJYxLZMeDQAWQthvl7DPzisyxBA8nT6A0/pOTQF6eW2OnaxBoA6St0rlyUmn//xhyX0Gg2f+bBzeZltEFPgyhbcxNEGiASJsHcw0ecPU1RvtnsgQCXvu8arTMJkDaeIXj0PrLgkArQNmGFtd7yXcFHes01PrqIFAgCBQIAgWCQIFAECgQBAoEgQJBoEAgCBQIAgWCQIEgUCAIFAgEgQJBoEAQKBAECgSCQIEgUCAIFAgCBQJBoEAQKBAECgSBAoH/4R+q56tSM2AWEQAAAABJRU5ErkJggg=='
p30
sS'version'
p31
VV6.0\u02b2
p32
sS'uni'
p33
V\U0001f434
p34
sS'desc'
p35
V\U0001f434 A horse\u2019s head. 
p36
sS'browser'
p37
V\U0001f434
p38
sS'annotations'
p39
(lp40
Vanimal
p41
aVface
p42
aVhorse
p43
aVnature
p44
asS'wind'
p45
S'data:image/png;base64,iVBORw0KGgoAAAANSUhEUgAAAEgAAABICAYAAABV7bNHAAAAAXNSR0IArs4c6QAAAARnQU1BAACxjwv8YQUAAAWVSURBVHhe7Zs9bBxVEMdn9loQqRBCggIhBykRooDYlyJKcSChnASioCB8NaGII2gQwXdRunMoU5AUuIJgCoQCSGchhRRU2KZCKBQgRAECBWggBZ13mHk7e+xd9r7WM+8Q2p9k78ye93z337fzZmbfQk1NTU1NTU1NTc1/gt31J5d2eu3P1Z2ZnfX2O2pGJdFtFLbX26dTanzF5p3Znrk4td07cePLCyda6kchmkA8Ai4iwCVEuEt3zQUB/YyIhzDFj7Z77Td1tztRBOIz/wlvXsu8aiDhr2HLAvPPBR6NvfCCM+4CiTh85p9SN8Cj4aaaleHR2IkhkqtAHIzfHxVH4H2/q7kvYojkJpAEZP4GJ9XdPwjfqDWEiLTbaz+nrjmOI4gmBdK/dWsCAbyqpjkuAsksg4D3qXsb/IW+V9MGhGWvUeQiEM8yD6hpBhH8qGYphHBcTVNcg7QpCLfUioqLQHwJ/aFmKQnsXVfTjGkjrCouArEA76pZynLns7ljECGNPYbF+avZ7b+lrikuAokARPSpuiYcXdsaO+o45n2opjmcRvggVbsUpqW1F8GuWvPBs5VaA6RGSyBtVRmVs+AmUFmJ4QbB5kq3/7x6prhcYuNKDDc4Y5dugXqmmI8gKTH4TS+pG5UU6fFJsaoK5iMICV5UMzqYwhk1zTAVKHT7SgJpPNA8mzYVKCFsq7kQZMYMXQRDbC8xgkNhQ/StTOVh60z+v8IPw/HvkfCCEaYCcbZ7kMuM9WZ36zBPuyuy5Sx3TV82p/i/5Id3bfDOh7NXbTAVSFscv2RehpQA1lm1IO/Z7PS76g7gk3SvmiaYCTTxdgyi/aWGeE2tISb1oapgJhASLqlZxtCossCjI1CGbZAeg8eXmVR7WXYXowgUmxThgJr7JopABI3X1TQjxj0xwV4goifUCkjw5qn+WXXtIFiVlop6AZ7ZjqpphrlAUsUXY0CS4tnSntA+kfckapxXNyuSEUOiahnzzKr50Spe8hSecu9xr80IRIzfOGls5ydipdM3+15mI2i0Zxz6QTEKVwQpkE96jFLBTCDrPkxlqrZzx2Aag6Q/rObCsFg5UsRUIM6mv1NzcRiXNbazGIJ7e2Ma0+7JzYupQClSX83FwDOa9e0fU4FCoDYOkvNACB+raYbtJcbwh3xPzbjwiWl2+pfVM8NcoPAhCTbVjYLcm08TOqeuKeYCCeEuZySRpCfNX+K0Vx5mlpKXIYUqpnAxr5HM4ctKe9FuuIygnAalP7mJw3D99ZCabrgKlELjJTUHhGybz7zEDd01lcExI5m6x32wUVwFQoIjamZwXGp2tu6XyyLBvSOzlCZZjElbcowcK10CfSnA/8O8B1TEVSC+BB5TM4yCELyVkNARTp+WES8Xk78E0zeKo4+QjqnpgptAYSnwUAsCr8jvoWYa7l1VcyzF3EaOFbF4Zhlk7HKbx/MJIDeBWJyRpcD0Aov2JyeSm7J+KNvVeDRsJ5C3VfmYHTk2e4/hUdNI8W41zXETiC+vr9UMyJkejCh9RGGWtc0S6IurRuQ9ijcHJSYtd/sfqGuOm0DSF540U8komqmZT7CapPiyerdBCbytpguuiaI+Rnkq81zYWOn0X1HbBVeBhLkWc3IawLPdHTP9fYQsWnCd5oVmd+tp3mxkXjmSAnDMWpU0QP6eL721iTkSwXXEvShL/dxHUI4E2rACjaB41n9gYW7kq+RlxirmPNlTQ3CYzQfFZ9FucpS+5tHWGEc0gaaRlQz5M2Z4RVqn1t3BKkQXKB8lYSU+NFr8AZZ4qm6NFrXZDEhf8EfckYQyPya2aAsRKKXk6rxVfqjJMH3mfy+QICKF++qzPtPq+KjBNBYag7ShdoY/xvHhuu3fS0wSwUXetV2oQEWkEC0ufIo5U9XUeAHwD594KRx+kos4AAAAAElFTkSuQmCC'
p46
sS'andr'
p47
S'data:image/png;base64,iVBORw0KGgoAAAANSUhEUgAAAEgAAABECAMAAAAV8YMOAAAABGdBTUEAALGPC/xhBQAAAAFzUkdCAK7OHOkAAAMAUExURUxpcfeTKYVcUoRcUoVcUveTKYRcUvCQK/eTKYFaU/eTKfeTKfeTKfSRKoVcUveTKfeTKfeTKfeTKfeTKYVcUveTKYVcUoVcUveTKfaSKfaSKfeTKYVcUveTKfeTKfaSKfeTKfeTKfeTKYVcUoVcUviTKYVcUoVcUoVcUoVcUveTKYVcUveTKfeTKfeTKfeTKYVcUveTKfeTKfeTKfiTKfeTKfeTKfeTKfeTKfeTKfeTKfeTKfeTKfeTKYVcUveTKfeTKfeTKfeTKYVcUoVcUoVcUoVcUoVcUoVcUoVcUoVcUoVcUoVcUoVcUoVcUveTKYVcUoVcUveTKfeTKfeTKfeTKfeTKfeTKfeTKfeTKfeTKfeTKfeTKfeTKYVcUoVcUveTKYVcUoVcUoVcUoVcUoVcUoVcUoVcUoVcUveTKfeTKYVcUveTKYVcUoVcUveTKfeTKYVcUvqUKPSSKoRbUoVcUveTKfeTKfeTKYhdUfeTKfeTKfeTKfeTKfeTKfSRKveTKfeTKfeTKfeTKfeTKfeTKfeTKfeTKeqNLveTKfCQK/eTKeeLL+SKMPeTKYVcUviUKYVcUoVcUoVcUoVcUoVcUoVcUoVcUoVcUuSKKveTKfeTKZtlLDk0L4VcUp5mLGpNLSgrL69wQ/eTKb94PYVcUpFiTphlS+aLL/eTKYVcUviTKfiUKYRcUveTKYRbUvqUKYNbU/mUKPuVKSstL4hdUfSSKS0uL4tfUPCPKS8vL+eLL/SRKvKRKfGQKtCANzUyL4ZcUqhtRa1vRNSCNbJyQo9hTsZ7OuCIMYtdLLl1P+OJKqBpSJhlS+mMLppmStuGM6VrRsN6O7t2P+OJMJFiTeSKMO6PLPaSKcF4PZJiTeWKKs5+KtKBKjw2L96HKrFwK1pELpBfLEI5LntVLdGAKmlMLbx1K5ZkTMl9OrBwQtiENJtnSpVkTHFQLeiLKZtlLL53K6VqLLx2K39XLVdDLr12K6FoLJRiLEw+LtWCKoJYLUc7LlBALrd0QO2OLZn0Gd4AAACpdFJOUwAB+hr+hgICBQX7AxwY4/CvNKDTAfypDMB4jfhJ5wgf1rPKmjUJZIb16fNn/dAP4DB/3RGkPLYZIoRkiVsv+ONr2JjRwOcVQLreTu5RrrHFXRLtZydWnW0NUMMuu0D81bAi5YGglB0qFzpieXwIpF3qCkP2yNRTS/dfasjaSCbrMQYV2fl6TM1k5Maom4ELzRM8Q2smVovFcOD6kfNB8CvPePo5hfJ2jo0lDZ66AAAE6klEQVRYw6WXZ1wURxTADzzgPOAQEEL1pDeRDtKLGpAmAWzYEWMlYkdNYkjvpvfeZ3f9CReKdyIgoohgLMHkjMaOJqb3Xm5nd293c7PNvE/3dm/++9q8eaNSIcV1TYqG96A6IcFFpVzCCqLj8po4D1Zs8/J6sUk5KKUSgMqVTlbd3RMAkJutmGO32rIOJLozeto8Un8hSzFIs4hcCILupFQnXy3U0+2UgpLugwu19zhDVe8JVZCsOEgu46mVgfdCNeNuSg2eeL0g4JmiUo12XURrcXqloNnB9FJwl98jDz/oTysNbyoOdioDAuZ260/gtk4pyMkPoGT9W6OUkrK8UKDONzbEKEM5378eBTJ0t+VsqLhBPictfTvSNfyDI7uwyLrQ0TL3x3yfCQAt5r93YhimCykeNVZGoGckAiEhDn1CkrDIHUtLJT2sHg+ExXyqDaMkMkLKwVleIiD8496dNKlIwiTNTCAm+PCXFCkqXCJMST5stg2oMH1x0kKqXfq4lGd3BDIrjCMjRgKB6m/D1BGSWdM40KknBi9funR50JaEd1nCtLBCqsLXMQbhFzsschFd3xiWsyMkPHS5MGdSjfW7V1pNptYrRtwWdGg3DLd9ybMRTwlFOpmtmD86LKAfzYhwf3SSKQGsCG1UWKaW/e7IhZ6eC2cQiSP2fGUFTb4ZxWlaHc1dcO78+XPoohzaRWHspzyByp6myo3/5eZmAr1P9rdATu1zSMc0VZVAnhAnIEe9Ct08NgXK5AB8z1HoWxnKIKc5cUC24H0HyXAv8F5mC5qfCBSI+fPdMHEbV8X/pwe4ewJF0n54HxWnqPJS7u6d5KOMY+neR+kSwKICOAerB1AsH7bQoFeK2YRt9VfMMfRDkFpXVlHPOuYJrtMitXf8Wk4F5cEujTc3G9DxQNV35zUyRiWFvC0GI4Qbz1z9vR1Rxs3G04gW0NlLgnJieHs+FXIGzpr+/NnWpm9++Hpgry2o6zjM2rRiR84mIy0yDP7VYWod4HsRnT/G97Wenu9RhXSAytrUJYtZUoalCxGnf2o1/fYdB+Qfm7nZJUz1+tlvEV0SEH1UbWPqyUviGav0sZY3e6/++sunbDC0NRkucMx++aV2HDniHGCam3rak3Rx260hG5rhfU7WGqz3hVefJ0RbAIzUMmuLbeT/K3+OM+O3XqjI8P59NMe+yHo2PerLa47BK9gAPjZdsCt9Bk3S1YVzGndTVj77l9S53OKYJ9gBjpOJ0wU48hvJ3IJc6v0D6Wm8F2MEd8l+0qLytTY9OztvZlDQQ77uTip5oK4h0qKFi1H9f9w429uGEIgYhufkgpCbZE6mQiBDN5U1e+/QelmTcpCQa6eY83ZqXaGMOXeiUBc2H7Ye3FhtgDTINViojk6wIPUWadDttwoF+xi9bTF1TpmMi4V7g1CMOmEdYSXPhJculxHs27SCI8AxeN56y7xQzBI5Ja+RoCky66hA5EjqI68BkTFj5XBm14iMN8MHYe5j5Fy8snNFLKKn0kjvQkdJ0MoJIhZ1MzccnWRBapLFJgm2tm+RSp1rrNiU1MsMEljI/wHh/wy1MNNtqPR1cnqj8Ix0pE39tm5jecTTcq7erpv8fOIqG/kxb3QLTNyW/N6772wJiL+x3lFmZ3NOqt5c5etASaaHR6ZDwtYZKfqkMGce4V8Rs6qcELmdEwAAAABJRU5ErkJggg=='
p48
sb.