ccopy_reg
_reconstructor
p0
(cemoji
Emoji
p1
c__builtin__
object
p2
Ntp3
Rp4
(dp5
S'emojipedia_url'
p6
Vhttp://emojipedia.org/ram/
p7
sS'index'
p8
V248
p9
sS'code'
p10
VU+1F40F
p11
sS'apple'
p12
S'data:image/png;base64,iVBORw0KGgoAAAANSUhEUgAAAEAAAABACAMAAACdt4HsAAAC91BMVEUAAAD3AAB/f3uAfmOKdF+DemKDel+RbGqFdVuCfGSGf2SSi2mEf2GIgmOEfV+el3OLhWaSjGiKhGOFgGGLhF+PiWaOiGWGgWTGv56ro32NhmKHfVSAeFablnejnXunnXLEu6mel3OjnHmOh2WAdk+IgFyXkG+yrIp+c0yinoqXkXN7dVKCfFy5r56/uZiOiGejmnOFeUuXj2ajnHmclG6SjWqbkm2Nhl+bkmeUjm+UimazrYqZlIGMh2ehmnK0q5K2ol6up4PBvJ+vqYeqo4GTjWqalHG6tJd6c1GqoXeXkGrMxrerl1aXhUqypHS7r4Wtm1yjnXWrpoyXkmyrpYOlnG+zomnFsYK/rHmclXSSgESAeFLf2rzw7Nnc17zz8ODq5s/w7Nfp5czt6dHx7t3l4cbV0LTj3sDDvZ3a1bXt6dTn48rh3MGup4fr6NTw7NXj38Po48jg3L/KxKXv69Tq5tHr6M/f2r/s59Hu69bu69jo5c+1rozX07ba1rry797u6tLX0rPd2L7HwaLv7dzf2sLz8Nzh3cTc1rfY07jOyKnm4s3n5Mv28+Lr5s7j38bp5crx7dvs6NXAu5zy7tnc17nt6NHm4MPSy6329OSjnoH08eLh273Qyqrw7tfSzbGQiGO4spL49eTe2bjKxKLLxajTzazXz6718uDAupnk4Mrl4Nfs6tf08N7Qyq2knXra18SemHjZ1b63oVOul0nj05a7tZPh29L39ebOyrPezInh0JLUz7HEvqHy7+rg3MfRxrnp5NyyrZi+t5bl1Zvu6+T18typpIeyrIjz79bo48WnoYD3897IxKzi3Lz39OHm2KPs6M2spYGxq4yYjF7j39PV0cPHvq/Rv3/KtmjZx4XEr2G8uJvEv6W0r5Ls6N6YkGrn5NShikDEsWyagzfSv3apk0XQu269uaXMxqadlW++sqKnoJGTgEOJgl/59uetqI3SzrvYxX2gjEv29fCumFHf3MzWy7/NuX2PejyHgFyMiIPHtXVIa/b6AAAAXHRSTlMAAQIRBg0UAwoXG1UgMSX8OYZpVYZMRyr+saDWRLbh/f7F595zlOzxrcT9yz/7/e9ii3HYfLeurvGVztyZfJ/g/sTq5+393v6ixaP75Ln9/feE0Mr6UOfn+KaZ/lLoBrwAAAjOSURBVHhe7VZVcFxXEvVo5s3ME1qyLcuMMTPHjmM75DAtb94wMzMzipmZmZnBzMzMjIHdjx0pkpXSeKvs1FbtT/rrVb3b554+3be7x/1P7Q/7w2AolA/sd3v7IABw/KQAJBr1+/wRyJAZ2y4cOD9zYiASQCN83vp+cHNsTYnLZqPP2jTtq9Xz/d+WCDpkXz7rwONd5znPrp0+/dO/v/1nIOJt5ECMX7w8ZVfKvVM9u17caK3v62s9/eV09Fv5l57oOtXV2HGq+vjV2nNnbp2tP/tlAOJN/VEBi0s7uk80/viv+/cep2Q9uFpXV3um/vRXyDcF8H+vsaO/u7S7v7vr/kXOrHNnW5/W3Xzat33Zmwo54YvG0v7ujo6OxuU9B2Ztbz18+HDLzXP111a/qQrv/djV2NX9/Hnp7J6qJ9+ePXym7tbh2tr6a4vANwWYPSjgpcbZPSc7L2w/3Hrz+pm+2nN916ZNh4/NJQyFQANwJBxA//bPsm3LZ59s7Orpab5y4NiL+pa6W603PBrUHg/aOAGE/1qWPkOeoG9oSPCGOWvnbAgOBUdrDQgImbH83v3bNdyS5uxnN+rP1dXWebLwbHdxbO/CGcF+Ab6g7+RJfus+/+xDuiipTROP1TKc7VuCJwOvKh4RuDXlwpVLVzprdh5/0dLa8rSlr6XueKy9TcM25IvaY2PbTaJ8aqbMJtVHUaREASVKIIDuLNyKfFUq6KntJS7JS0t7duWD2htnW1vOXH3QQGXHy6REm1tAJJKkbvcREmnPHp5Yryfho44kRAhojNg/+Y8gAFPbjRJWCdVJ5wT9fP361as/H7/YHBFpc+tJlAipx0m8h7dnj3iANzAwQMggZCjE8ghBIkSf44saZhDcTpUZNe0mjeliStDlu5yL55tdEhWTSUggkXgZCoxVQeANHDq0f//+nHCdLlVnVUjdRwSG7InoYRH8etMrRLEVVCPbYRLFmpxarEqpYmKUVo8VhZPNODPGWp6TfCjnUHIqLhWns1rlLEqU3TQT/DWdMN+5IieWupevNdLSaAwGJCCay5RkMq6pqehRU05RanIqWRfe9CgnJycVh8ORdVYMlylPTGzLnjCsAvBOWBtDk5RLg2gUNiNRwNeTyUoCwdyUjGtK9lyajIsuD09+lFNUpNNhyjHRVnJZmYoCxdPfAYZfZODcO7k0DY0mo2CFUVF7SWKMjkzIiAsPTy3CFVl1ReVKD0COtdyKMWMwcgJGZ+a6+XaIPs9/RMaQ3elQGi2XAqUJIihH9HGemHk8a7kZN6RCOK4clxwenlxOYJrNSqZUUYbh4tMOMsKqR2T0AWfmGXIZdk8MkZGsKBJPkcHbo4+L1pl1cQPJTU2pqUVFybhya7RHGSWTqCcpmEToYOHOlM0jbQO+vqGgIMmeZufTIqRSD4KYx4y2Ksk4nTIa5/HXYXTRVivBSjbHSKQkKQnP4gshhmlXEDhuRMYV6U4nxOZDQhaRKdcTpCReDAZnHgSwDqY+RqmMi5MoymLkeLwe76lnttCe3lu9YIQBYgInvUAjYAkhfgJeLtdniN08scKKiSaTowlMJdnMjSnDZIiZhBimGy93U9JoNHuuk/NwJA3jYODM9IpMKV4rSGThE6QJJF6EnCTH6xXRZkyMXKFQxHC5EnmERMGVRspYbhsUbzDYi/dNB169avRETqZQgWcLIL5chSeSxCRpgtwdoVAqyVy5mMmVcCWdNkqkqkTFdrAtMo2hsLCgeC042lhQ/h9RpQQunrL3CFMikRKJFJaYyGJ5blZyVSqJ5ArXVUOhyCJVFovWgnUUFhQ46bunAuNGDXi3jcdUSAV7jxDxKi5TZbN4YiBJVB7uLpeKy8Wr+OzEyE4XViZzyLT2Nnteb/VwJY+8qHxSnMvC3st3yz23Sm0ylorEZAnkcpXLRcSzIll7IaFMa9QaMpOo2IP23LxjCzwRjJqP74faSApWi+W7mEyMioXVsFkqIoUtiDJ2slgCNpuPlUEOe1KFyEmlGmm59rDRCEbaihOy3zFohdJoroJoYVRQtZECPmRP49ts7DSaPY1t1GoMbXfoBU4am59mMB2dNBrB8IvKFzXkxfOjCOKERKgwj16B1WrTGAyhzAhh4zVCrMNBzUzPCzMYBiHjTXPBMW0fPWnBCrVaw2e58FK2oY2+W0TNpNoL7VQh1clgZGouaBz5YcUmZ6GdLZVTIPp6+NgtCb1s6S8P1XaBjRgZn0TnLOGIikUi552Ktor0Nk+hV5joKdUp2WEmBoXlIgpj53jNXxgi4IesIEYiFpJpnb2V8zeuDOJwihvoDbENR49xqis/nvfDw4dZHHqSxlJiM+Z/FOg1f30C7u7K6i3IhCBHRcMnvnBw+vxPl06blzVt2tJFq+dP9/Vf9PG+u1mVeSKt0WKh0rd6zV9UaKX6srogKSlRk87x9AoYanAWgiCIhAMAAgVDjA86uq8ya8l5h7GmBJu/FukFMH43XV1ZwGiLp6rneRMcB4NvVGcf5VyubNc6LDUH/gx6HfBdGBaWpXa2ZR5bGYp47To0K6w4e3fWPpHQkdn+ifcWA9/QEMa5vGtnysoJ6NftaTBgzVFTsTprUVB2Reax9d4A6DVqdfXSlT1LJgCv3zZ9kMHZDZtCwGWfLkhJqfb1AgDej923evLMk7cDRgXwOqGeCKAQwOQlBxZ6AcDAbVXZAeD3L2dPHibgfWJL1c7Jg+jg7KrFcG+Nml/ugCO/L709/r8wQPiJqnYgB2MJ/OLku8DYAOFTrlStA/w/6L8dOgzgfaKq5n1gCOnJyWD0WAlX1fQ3BwBrnjw/5TecRK8TmZeqvkMPijnlxImxDFD+H1yqWgEip3SfeOz3WgYI/7BOR/EqxBCB/uYZwJgMTUmq2fIdPPSDkp0h8NeJ6OM7pbBwx7rBvQQ+w9j5j7ENZdXXf/tsEoD+/OtvNvu/lgDqL3/96e9rhkYBctM3s/zG1JoPGgnCETAUAILwV9BeJ5DoIW4I+MjX/9/+A8CtwX1zfvGsAAAAAElFTkSuQmCC'
p13
sS'twit'
p14
S'data:image/png;base64,iVBORw0KGgoAAAANSUhEUgAAAEgAAABICAMAAABiM0N1AAABklBMVEUAAAApLzNmdX+ZqrXh6O1mdX/h6O0pLzNmdX+ZqrXh6O1mdX+ZqrXh6O0pLzNmdX/h6O0pLzNmdX+ZqrXh6O0pLzNmdX/h6O0pLzNmdX+ZqrXh6O3h6O1UYGhmdX+ZqrWwusHh6O2ZqrXh6O0pLzNmdX+ZqrXh6O0pLzNASlBmdX9+hInh6O0pLzNmdX+ZqrXh6O0pLzNmdX+ZqrXh6O0pLzMtMzg0PEFARkpETlRFTlRIUllPWF1XXWJXZGxbYmZebHZicXpjaW1mdX9udHlufIZ1g42FjJCFkpuLm6WMmaGRl5ySoq2UoKiZqrWcp6+errmfrK+isrykr7amrqintsCrtr2rusOssKKzs5uzur+zvcS5tZW5xc69ydG/t47Cy9LCzdXGuYjK0dbK0tjL1dzMu4HP2d/SvXvS2t/U3OPW3OHY4ObZv3TZ4ebd5OrfwW7h0J3h6O3j5uPl5dnmxGfn48/p4cXq37vsxmHs3rHu3Kfw2p3yyFry2JP014n21X/403X5ylT50Wv9zlf/zE0O5G8bAAAANXRSTlMAEBAQECAgMDAwMEBAQFBQUGBgYGBwcHCAgICAj5+fn5+fr6+/v7+/z8/Pz8/f39/f7+/v7wsFmuIAAALASURBVHja7dXpXxJBGMDxJyXSas2URFvKinLL0KzcDrvdPCqd8gghTexwpcOOUTS04tD9v5uVGWb3I8wM9aYXfN/Pj2cfdgDq6urq6v4XAc0VgL+mhSNGDHvFjEhYXtSIVl3XIwYR1Q1cTSyiwX7BkM4/VtmAHgSfkKAhcdaTCggycoNhYAz8b6Js77iqzVyhkFvHMrGAOLSWd/ZsK5REoY0dh8qtSVcOroHKnV2nbEdaagUiIuiolgbdhwsKOkweS+hAhKUd+cYHwLWI/bac/dZVtoTmPmOP76u2bacz/lBB5YtDCL18s4JdH5dfT6OSqZSvtanwbKiahSIP5bBYoEIo9S3rFDPpBTJVlpewmEZDE0OmOTSBCH64aE95Sj+wUIiEeshx0iElRKw6XDGRcJif8jfpHDlu7nlCBnK8Mrybl4dOlkPugtkwC8lU1kmj8kgFeeio99Fsei6JqCIPSV8kvmweQkxGeSJ3SQwPzSIqW0OoHXEpes5GlEP9Vgg1Im7WoZIsTG3LQq5uxJVv2FtEJMq3ZEN+/d3vjUs6zK+0vVru7GKxw7Cnx7duTv3SAvhH8l8S9Z8RA6huJJ6pgMXCQDVeRx5JfukV/0eCwDQjn5QvVZB1osC1I79EmrXyW1hGA0HpxTLe2CSwXBR8mq8gbnrxK1Y1SDfEtfeUZplbXME1aIUqNFyTEFR1GdfgDFTXOfwJK/owfkQQOmTeeoWVxEf6QaTPNIffYan5UcvqAJETJvFg/gsWeP98xLKsaw0gcuCqW3poPY0v4UqW4pOk4uoCsU43dNtyjY5PzszEjZJnY2OP7921KDqQdKQbjyymF0rOm8RNHuoAmRaTuGMxXXx5hKcvd9w30kE2aZ8bum9RTaCghZy5RA+c5q/YRdPsO2WVtIGytoorbehnHXXHyJkL+56gqdey+v134w9cGrjCfxVKaQAAAABJRU5ErkJggg=='
p15
sS'gmail'
p16
S''
p17
sS'related_to'
p18
(lp19
V\U0001f411 Sheep
p20
aV\u2648 Aries
p21
asS'name'
p22
Vram
p23
sS'known_as'
p24
(lp25
sS'default'
p26
Vemoji
p27
sS'bw'
p28
S'data:image/png;base64,iVBORw0KGgoAAAANSUhEUgAAAJAAAACQCAYAAADnRuK4AAANdElEQVR42u2dL7RMXRjGbxAEQRAEQRAEQRAEQRAEQRAEQRAEQRAEawmCIAiCIAiCIAiCIAiCIAiCIAiCIAiCIJxv/eZbz6z37rv3nDlzZ5+Zc87zrLXXnXtn5syds5/9/t/v3mkMYx/Y8S0wTCDDBDJMIMMEMgwTyDCBDBPIMIEMwwQyTCDDBDJMIMMwgQwTyDCBDBPIMEwgwwQyTCDDBDJMIMMwgQwTyDCBDBPIMEwgY4IE+vHjR/PkyZPm3LlzzYEDB5qdnZ1d4/jx4839+/ebz58/e/ZMoN3EuXjxYnPw4ME9pCmN06dPNx8/fvQsTp1AX79+bU6ePLmHIGfOnGmuX78+k0h37tyZPU4lE48fPXrU/Pv3z7M5RQJ9+PChOXz48JwQx44da16/fr2QED9//myePn3anD17dv4+pNfv3789o1MiEGrr6NGjcxI8fPiw+fv3b6drIH0kkbgWxOK6xsgJBFGktg4dOtQ8f/585WthUCO5olpDIr148aL58+ePZ3mMBHr8+PF8wlFj61CFOa8Nct69e9c20pgIxGTijjPBN2/eXNt1UV8izvnz53cR6sSJEzPbyhgBgVBXTCouOwbxOnHp0qW5B4dqw2uLEunKlSud7SxjywikSb53716rkf3+/fv5wN1fJiQgyYOBDZBykUSQyh7bgAmE244KK03ir1+/msuXL2eDihjet2/fXmgcEy+S/SOPDIM6Xg+VtgwhjS0j0JcvX2YTSHCwRJ7oUZUGKqqk/qIUgkwCUuzIkSPza0DkT58+mQVDIRCe16lTp2aTV3Lbr169Op9gJE1UYS9fvpw9L0lC3KckRXQdCBNtHl4fY0+QyOmQLScQE4jxKsMZ6ZAj0LNnz+aqpyShwPfv3+deHKquzSN7+/btrue+ffs2U2ExbrSfOJQJVBm41CLPmzdvZkbsgwcP9rxOqQnslTagvlBjvD6XmZeqZJBHS4H9FVMhMurtoW0ZgVj9WuWoIakyJi+1fSAYKmVZDwnicO0LFy5kY01SdRjepXgUEiySCBVru2iLCETJBRODeooTx9+vXbs296akcm7dutXp+srO5/JfUcIsQrS7Yobf2AICYasgCVLVoNQDKx7pg8EcYzfL4tWrV8X3yZ1vIxBAzaWeHpLNrv4GCYSkkccj9ZWTTpBJwUU8rS5A3UFEJNF+CCSVKOM85tKQjs6lbYBAJDGlEphgSSG8IHllSCAmR15RbsVjMN+4cWNGiNzzIiKSbD8EAqjUNHItaeQykR4JhCRRDTOGNCuZmAy/xyTnu3fv5qqO33MRZjy2GIkueXm49/slUDT+Y7xIMSMnZHsikLwb2SbyxjQwcGMATwTKgSL6+N4+CCTPMF4jJmRdZ1SZQEgcRnTJJZFy9pAIlEtPSBV2lUB4eYpY7wdInVQakW6R9DSB1gziKLkosep0Frn7kQSQCekTk6BpVBn7CdXCSD097JZF0eouQOKk7r7qmaYsjaoQCBLkyJL+jRvPa1EVmmztwuBnWmEYY0kCkW2ew8hOoaQsEmxdQBrFTQDK7PM/T9Hlr0IgpII8rJRAikDzGgX6mOjU1kDq8Hdew8qHKDnI/U8lk+JDjNJ7VwXemD43Hag6pBLpmHUXy03KBmKV4nXF+Imy41FKxRtfymuVADGQUhAtfg4Tp+vxs5aKIT4Uk7K5wSIiuo7kQkKNLddWjUBSSUSYI4HkEUEgpI5sHw1UURrPScEkkD2XbRQz6RBJn71KZHsVQHoSscvUMckRQErxv7EIIFbbd54cgbgpeGHcMJKnkUBICKQC5IJAEEm7TqW+MHxZ4VxHATwe857oEcVMO5MQa6CRDn2veMjE/5hGtJcZSFPex/+NrYjk0j3YVsnVSyRaE63HcuPlfmMc423hFqtEo21wo2OKId0ezfObNGr5v7DLkKip0b3KYDGyyNp27Y6KQHxRjElVIWpI5eC5KAPPRkACi0gmHksS8RyBO66B4QoRuWa8iWmp6ralHZAekBlCQXq+E9+F7yQp3WXwXVGZ2xA+qJ6NJ5CImkLtyOtStSE3QBIHCRRvuGIu2hiYGte8htUYVRYqYIibCFG9EEyluxCNRYZkjiW86cDmygVlR0UgSRNWnlRarPlRLCiHuO9dakkjVQvczNSVHwu0WLALcxILabYpI7w6gfQlpc54zKrqYpRCuJxRigrAYOU1Uym34HsimVLvld83QaLeCARUp1xKZxjdQMVDlMSbIFGvBEIUo5JKNcoYvm5d1z1sEB0ISNTnrtteSlr5YipUR+1Aolxcg+eIgRjdY24xNoYX2pdKr04gFYMpIy7vKi2FUO4Kwgm8lupFox3cz+hw4LSMgkDoZK0Oap/VmSPdF6aiMaU+IBQ3pOShGXuhjQm1c4C9EkjGnoxnvhSGH8HBCFYMz0t/o87ivnZUHqRycXsZLLYohdZZxrIRAmHgKY+j5CeBQ4iCrVMiA4TjRkT1RfIxtz3I2A1VYSoXOFgCQZi4GlTimtYWpyqK3xG/NNyM3hnXyu1ANXaDdFC8x7UbR1QjkArE0jwYEeO0IaYKxpA8GNG4+VHSkPcp7XE39iImpGursWoEkkGH3UIAkZwNRjTEwA5C1JZyPLGCECNccY5cSauRl/6xj9IgCUTNj6KkeFg52wWDWTob9aZkK1+a9yB5Ygpj04nDoYAFqsWJhK/peOzUXgmxCTgqiKQg2XiM4li/Q9EZpCsVYnGdoVbtbQKxsUTNWFp1Nx67ZlHNC8+pYlFGNEVYeGrYRipEI0RvrBYT6tpvYOviQMrEU3YAYXAvIQk2TVveRiUgadzIWIy4mzd6tIMk0H6g1EcfQbGxEigW602OQNo2U/MmmEAjJRBGs4xwE8gE6oy4+dAEMoFMoA15YSaQCdQZce9+zQi+CTRSxIDsuptLmEAjBxH9WAlRc5OlCTRCxNY22lI1eQLFLh/GYsSmpJTO1MRWE4isskRxrg+0kUdsxVc7BTSYSDQ5NJeztgN1FfeJLTr1aBIEiu6ojx1oRzylqI97tvUEij2GljkGauqI56TFPXaTJZAaMixzSK/xvwSS3ZhrfTw5AqnntGuClkfsEVmzmGwQBGIFqaIx3Stm5EHteOwdNGkCAfoD6YZ06S00ZcStPTVryQdBIHa4Sq+XTic0ylIo1pxPkkAgnm0a98wb/wPVnu7yVf/I9MSASRIoHheFFFpnfINsNd7LkMEulrRuPLr0tWzHnSHdpHisADGOdbR+0WEtfcRMakHtktM4WQyB1CrpGBSB4opSojC3stD5y4bw2fKimEnf0Han/bSkI8xROi6dplNpb+5JEwiwnyw9pCVuecbjUIOGZaDzUWvaCSWob9KqNl3sj5hbMNGQNoHCqtURCSmR2L0aGzYs460p6LYoXkKv62Wj4DSQ4H9ZRgKqCcIqBIpnurJgchFnEbTm5sLBEQggqtuOWVp2M6L6LSOJcigdnpcDqjMSuK0WmUbqXQmEVEkXUOl7xvhZrYK8QRIIsOIonEpbxCDSY8dSJkkVedQXsRKjx6Uod2mFahUvSqPELiNpQ4hFJNK+/xJ5RWCkDQSIDRPiKB3pGfsw1UpED5ZA8QZDJG4wJEBtRe9DpIrHI3BjqRtmtHkpqu7LBeMgMaoq1t/wObGCQNIrZ+xL+uXUI9fOqercYBHx/8fSVXlmInKt3tGDJ1AJbcdGYdfQaka/l+JAqkdSn2tNLh5hJI6K3vS69CgCnQUWh6LrOSkVj8fKDdRT+vk4DpCOEYvqa6Z/RkugklopjdwK5W+SWhAD0uAFpkeA59QE6jKd4NLIdecvqStsPx0qkxbPl0YkvwnUEdgubTe4FANSjKhtxEmNLvaiz1PvSB6nuyZihzGpYKQK9ljqbUHq0oF2SKFa7vskCBTb7KWnHapxJwNJlbNB2jw9bClsjVxDbx1zlRuoJ0mYnHEuw31Z1xtJid0V1RbX7+PckVETqDSJTGDMreUMaLnYudMCIRzudKnaL147JxVQKZrsnISQ/TaE2qfREqhEAAxdPDW1Ic41L0elaGswEgI1oW6zbZv0kAYlG0n722IX1TSfp9zcULYxjZJAOmcjN4FSCyJILgaDy77qeRNxT1Y6kFxcT5+dBichp6RPbdvFBCqAMo+SUcmEMUmxzjrt5B6PK++6p0rEyw28Nz47JoRT1an4Ee74UM4EGRWBUB+xdXBq8EpdqHcOkgCJgLEtCSDjdtFZHjnEqsl0YLBzLYYMc16LRNJnE5Pib4z0KCwTqCdIsuAixxgJEkkeCZOoED+TyZArHfeU8/6uEXHsKqRIrJ6MUeYYHY47R5F6ctuHorpGq8JQSfGA3xgdVtwkJyViIhTvbT/AQ+Na6VHmMTcVI+KSmkSvh3ac1Wi9MFxgSjVigK80iemoccINqkoExThPA5z8bYhltaOPREfgvke1hpRKUwY128FR7Iaqg8ix2Au7p/axTCbQmoAbj62j3JfiQX2fBiQCIZUoQhsqJkegFDKc+z5KCgJD3iGTxwQyTCDDBDJMIMMEMgwTyDCBDBPIMIEMwwQyTCDDBDJMIMMwgQwTyDCBDBPIMEwgwwQyTCDDBDJMIMMwgQwTyDCBjInhP2PgoAdGdcJSAAAAAElFTkSuQmCC'
p29
sS'version'
p30
VV6.0\u02e3
p31
sS'uni'
p32
V\U0001f40f
p33
sS'desc'
p34
V\U0001f40f A male sheep, known as a ram, with spiralled horns. 
p35
sS'browser'
p36
V\U0001f40f
p37
sS'annotations'
p38
(lp39
Vanimal
p40
aVaries
p41
aVnature
p42
aVram
p43
aVsheep
p44
aVzodiac
p45
asS'wind'
p46
S'data:image/png;base64,iVBORw0KGgoAAAANSUhEUgAAAEgAAABICAYAAABV7bNHAAAAAXNSR0IArs4c6QAAAARnQU1BAACxjwv8YQUAAAaYSURBVHhe7Zs9iFxVFMfPfdMpmDSKjSlERBDERneTwsak0F0IbGHhitqsxa4YSzMLFsJuJKRIhKRwK8W1CLIoTNBig91+WEgQBSOikPiFNmrEbuf6/9933uTOzJud9zHv3Y28H8y+c+/MvJ37n3vOPfdjpKGhoaGhoaGhoaGhYfIYveZme3V2xVh5GneY0iqxVv7CDTvG7L011f70O62+o8kt0O7K7PNdsW1jzKNaNYS19pvIdOfGiUSR8eKTyb34Ply+j8RcnlrufMi60OQSKBZHLhkjh7RqJPuJtHVm5rjpyvn9RBYrm+iJS6F7YqTXTMQ9p18cK/YmH1rswcZb23pTiz0osumaj/YVhxg53rXRxu7qMw9rTRAyC7S9MvtGX6PwDXeNPXG0feUIH7TVRW5jZJ6CaEnY2DSRR6Eiv6/FIGQWCI16UE3nPtPLnRPHTl/Z1CqhTZdioNYqhxV5TU28r3Uxrefgfp/gdUt84A3rfffAIOBiVSAyx6Cd1dl3cVmIS7I23e68onYfA69zYLSb7xo5jH92Uat8LuBer6vtGIp16K38QpxdM7liUBaM7J1Tswd6xrPoJotavI2V3UFxCEcwpgta5PufULN2MguED/mHmiw8ppaLK4xPWhQ36qDhWnTgvbOprmVkZHzBc1tqBiWzQJHsvdeLDS4uzNzYWZnd6drWF3CF+119gpGv1HKkBmWIeLTduaQlJ7SaDvSgXhn2t2rWTmaB2DPw4sVEJCPmAQqFlv4Et+prKILuMS2OBL3qYzUdGNLPJiOeu4fYOfcEGRC8TnLFIMaGyOw9CfMCHmu8+slgHFwjJHhjchyA+2yo6YDgd8Ot1hHk8R20rrsvAPALQQpx2b0oAJlHsXGgYedxORWX2EPszUi6TPbOQrCTWu3TNxIOjVzA9VYjbd8V66a0QC75SxEhEYi5D/7Lca3uwcYfXe4c1qKDU5DImue0+C9dN/RUo5RAKs5GFpdKA3FoFb1jWYsHklwxaBBOA4qKQ5BAMp4daMoJJPKImsVIcb2DRikXQx70Ae4wr8VCIBadRix6O3bX1pw/50vAF3ENedhmiHhUOki7lUWRe9HQH3C3v12llXvw54VM7hdn3bcy9SbMySDWVQqqNZVTWqBRqHBtLU4UjpDIkzbqGOVKxaAx/KzXiaNJ5ClOc7h6QPeMn5k8lQkUWflTzcrQpHKB2XtVa0aVuRjhtEHNekA8Q4PemeSCf5UuVj+YPOt8jot2E+H/1YN82JvM3otlg3ilPWhoEb9O0JsmsStSqUAYbf5RMwjMw8qKVHUMuqXXYFCkMltH1Qpk5Ee1wlJi66jaGOQv9AeGWX2R0a1SgZAshgvS6Sxsr8x8nScmVSoQE7a0ffuQJIFbi2OpOkhzJPtMzeBwhxduvxSJWdWqsVSaKBJd5+HeWaYDC1WRtgaehcp7kGayta3fjAI9odDmY+UCES5w8QSHFnPhYhgX1ayso8i9uDW4yarbEsqDkR21clG5i/lkWaLl9ASBdAsiXNtvPwx5zSI+fNppkSEoJjc8i8zLahWIxAex5IwWXQ9JdlHJdLuT+TPxbABa0DtEug9DR2yyUouL+fjryW4ya+VLLebGGrmq5r74ZwfyUrtAJMmN3GTWmMLJJE+cqDkS/q8ySx5BBDLW/KImeoH9XE0HY4uaY3ENj3dFRlOih5JQPeg3Nd3Zxtwjko93NIb3GbwXAv7vahYiTA8a+NBFcxTC0U5N3FcOoUF9PbDshDmIQPjUd6kVU+KAFHdc1XTwsCguzJcc7ucSJQgjkMhDeh0i73YR41AS9BN4kLTnakgDeKzG2QUIFIP00ENKzymyZYOgf11NB0WDu/VOpUVd87KaualdIE0U+yauyIfuU7MYKSuX/rE9jJRPqZmb2gVCQO7FBC/AOpeb5C5IPDrG92OmXtTNahXIreR5pzgYYFnHRSyW0ZBf3RMTgnM6NemGhXY2ahVoz0RH0G028eDs3J336UrrJX2aChVb5PdGRbhTatY8qn4ctQrEbs/fXOAxnfz2wj+G5+c0OYldFKOZ/wMbn1H146g9BvkMulyR474utiQz+sFphfaswTQgD0EFstLqZb1FA7TpyqtqAtO3KAZhHufVn/vlJahAXIaAW7nfidlIcq/XuEUz73y2f3pfn4uPAJbI1GtfMJskbkNAWs5FmYH7Saa/mMYvoOhp/TtaoFH4q5acchTZzUgI6mJVgUbdwMUt8OMRfEeloaGhoRgi/wE7Z8RgppvwjgAAAABJRU5ErkJggg=='
p47
sS'andr'
p48
S'data:image/png;base64,iVBORw0KGgoAAAANSUhEUgAAAEgAAABECAMAAAAV8YMOAAAABGdBTUEAALGPC/xhBQAAAAFzUkdCAK7OHOkAAAMAUExURUxpcXJJQXJJQXJJQXhQSHJJQXFIQGJCPFtAOlg/Oq+Xk3JJQY9uaHJJQfLv7nJJQXFIQXJJQcq6t+fg3tzS0HJJQXJJQeji4XJJQXJJQXJJQS8vLy4vLywuLn1YUKSJhNDDwIRgWXJJQXJJQXJJQYdkXc/AvnJJQS8vL7OdmeLa2HJJQXJJQZ2Ae3JJQW9IQKaNiNnOzIxrZXJJQXlSSnJJQS8vLy4vLzAvLy8vL+vk4se3s4lnYLyppZp9d3RLQ3JJQXFIQXJJQXJJQXJJQXJJQYFcVC8vLy8vL5JybMKxrW5HQHJJQdbKyLSemXJJQXJJQayTji8vLy8vLy8vLy8vLy8vLy8vLzQxMC4uL7yopHJJQXJJQdzS0HJJQS8vLy8vLy8vLy4vLy8vLy8vLz41My8vLy8vLy8vLy4vL1E8OGZEPmtGP3JJQUM3NS8vL2dFPllAOkM3NGpGP2pGPz00M////6qBZfu4Fy8vL3JJQfy5F3FHP3FIQKmAZHFIQW9FPv7+/v66FquCZnJIQHBHQauCZS0tLvq3F/f08/39/HRMRHtQPfSyGXZOR/Dr6vn39olbOvr5+fz7+u6uG3NKQ/e0GKd/Y7mCK/Xx8HVLP3dNPkE6NpZ0XJx3X4NWPMCIKbKNc5ppNNaZIuSmHsqQJvLs6DEwMEg/Oks6Njw2NOCiH4BbVN/W1IpoYn5SPat3L7R/LJZmNjczMvXv7KVyMTUxMK6HbJJjN/26FpBgN5Z4cqBuM+qrHIFdVqyEaJFwWsiunqJ7Yb2rp3lTTO/p5qCEf2pGP7Sfm9yfIOioHc21pdbCtYBXSnxWTtLGw6R8YqB5YE1DPIVoVfy4F4deT696LtK7rbaTe8eOJ62TjY1fOPGvGtGVJOnf19/QxdrHu7mkoLaSeXtiUJJpVs2+u2dVSHVeTsesmWxYSsOmlFg+OrqYg6d0MLijn15BO7yciM+UJLmXgKV+Y19PRLejn9zKvmJCPKmLgOXY0MGjj7iWfoxjU8q4sHxSPoBVQW0/eGIAAADJdFJOUwD+l1T+8v4EAQj+7v3Y/vjkO/z9/gxs/pBgJOsYEP7+/f5/ThL7+bIM/v54Lv0aF/37/sf6zWDdpMz+/vr9/fu8/EU/Hur7/Lv8/Vuo/POiwfkk+bFsrJ1KlPdm0vXdcIo6foxnMh9Z9NP++nE0YjTv0+aR2ev//////////////////////////////////v///////////////////////////////////////v///////////////////////////////////v/JT1gAAAhxSURBVFjD7Zh3dBPZFYeRLFu25d7ABtwLxhh3esf0zsLCAstutmbZTU8k682bkRxpwJas5iL33nAvYGxh0zFgOqYa0xaW3pNtyeZw8mZGkpsWtCF/5eSeY593ZuZ9uu++37v3zgwb9n/73zPrwPj48e5vAeAGRgRyh9nMGbHS3n5TSNg46/8M4x7AjomLYS9h8wAuFkOcZe/p7rUkzN/fY07EL0F6rbAEUAyBI8CV0474zJgPpLwQe0cAAIsX5+9lPmclwDl2R+yUYjjNRaVOS3a15eAAB0qlUo68i5tjplM2bJbUztchTRUcHunKp01tayUNOuY2dmzwqiArYP8b80DjnPDo4fT8tDS+3hyWb5hCDxKH+8jBLBQs5zdvpadjxmL+z1t2uxjgOOCFBNj8rGbinT09PDaGAPn05NeQ3IJmxsbOhLjliPGmQzOXvclyNjKWFM7c8BoQ3zU46n2XcA5kLTVF8mLPI3MKezU5AHKmrXLjv8nUwUGQNWLI6qznxIlSOsqP72nKyWj3dZDxzTC3IJw3ZzDHwgnsvq79q+JSrtLWgW+muSgBmzsQNHcz6DiOYUlNANiqzeXwHezgysABnPgYUUk6lqArfQXtVGZz+OoZ4pgBIO4IK00ZlpCwp4SEh14zMbGzzs1teJ/Hqmg4awDI2SmnB8MURRoggrZIzOpbNyjh3awYpMRn9ZwMpd+MqQan62IBu/+x47LJ5muYtim3sK2QrK3jJ56UvJiy88YjyQnqhFTsNHAiAWwoLMwVZ9jdTaWvTM0AMf3l7WUPijCsPKXxuLZLA6/KOm8TguLbrQKi9WRF5/dXTjBaSDyU8aqp63jZ9cZCyAmllV83Xyy1ZEcYQRaOhWW69N3N13QJ2Muc6OzLhEBAoD+BYF9x8b7MJ9Qk2c4p9blFSToM0yXVtOTIbemLy8I5eD9RhpHNWl1XbpMuIQHbo9nrdoXYulXAGMXbd2KnuvPyT1flJQq0Ich0iqxc+dd0YkgO9sMtA4x7JmpMwK7ntly7kICl9+490EoU5GcK+kxy+2/FAuJfZFGSNolGYdqsnNNn9KLkSJdyDbEGWQlYTUNKKUZ79EJwfnv1QyNJIkF+IccuijqedjS+pL3CFC3QrpPZgkVwU3w/UIK29LoCeV2TsvfJue5t26r3S/SLy8+nw3X2lIhEltNRRpNqCgGjOJktdBqnP2f+okvUPfqBIqldcX61ULhDDyLu5+XdQaTMi6Lckqyipw1k23F6eU1wUTajbmhvqAZLZjcr6CiiEO3O+LG1IG/btu0FdLwl+Wich8bfgJQiBTqMpRqyRUs92dVwuI4CRR3GQ7jGHJ1SqqNBSVkw+pGEuJO3/bw+QOcrhcLqfMk5DshKukABynNfdVEuKdpEUynQdDHY7Kkn2awQtdVgOqSQ8pTDUx8RAuLcQUOk91cj785JvhHtTmc2LF1D9lAjbQv5Ne3RfAh4ntaGswY0WaU1LxtfKZ9VPEERMepIkHlvR94dAXFRdInh6BS9ZBE1TGpkQLKoSI7UECXrjfNEIKUhl5SHpu68Qm+SxID6+360a5mnQDk9u7QnK4UZap+S0xklpa6Ssjz0LnEDZqG072jlPZaf/IICEfupYNOOUUg96IKiWQTI5j00qFl011AL5uMrjIky0NnCwnMea5U67QEFOtvdXSARHCwwLPCUKIv2qKe3t5ER0p5CZteoRBkNQwYUAZsQqXK67HtaQA8ru+8/RDRmhcRFsoRRSHq6/pT05DA6YjxaOjB1z3WCQZ1MkM7eqxTuqv72IAPaimTEKATD9IJrI58ZEu4xFitsYFsRbw+nqRJvSWglVnef7zu6BzkGRTMcxSWpH9NfyM6Ec6Sbxw2sJQGOMFTGVx+gQAV59/pEQLT+qMRLymh/LqB/ZSgjHWLyXXa9GPA8BhWlr8DMZdS9BxJi68Fv7wv6OCcdbOW4JqvmmkKrSO9q0uDyq/oIJUfD2YM5w8JA7Pv0zcvFBHH2rDG3/XQzjZ/83WkxaOgt6WjWvMLF3t8ZIi3bMHu2xeC6vRFk+DJ3bxwo3icgMglCsq/4nyfpapK27EhtBikWi8mMWp8oY+PED57J8hwMmsuDPkx94Kd13rz84MGBE7f+UWGsY2pXl1CfIz6hd11T+xWpxVasIR65z8I5U6e4mF+zKTUugryhnaAFD/eettf8ou3mqz6GGsGhTSDX3xEF0tVcTmr43nCllGdhqlH3cMJPjzUDQYtorDcO8S+/4ppsI8NYnDNv5LjaUi1uYigOjlbt+Mh0143Ubfumfk3V7ofimHimFifzhMLJo0yCfvul1Bu5JFMNoqW6Ghvd7Ejcznd4VGgtDh6jlP7OBFOcMWuqSLx2sSrbx2UASTY9yBA61VU5ABy/WIiD5zuEyNaY6rd/NbLysUgqr28/7O3bv8Vy4XAWq1JlqSq3Q9EscPSoFbSyjPvDLoojHPmpiVh/KBTu2nIUQCiFfsFGAct8ayHg1LfPaK/nSCH+vPovSzwtnMf/biINEppY22dfUDd2VD13Qi9qsZFRdIObNvyYNw5E6MULvbpJyR+qKoVfjKYf/3wkDfpoKGjCAuY3Jn86d4WlFL1rRS5fvvyIH5CCH6qqHv/ePmbpn/5IrWfhGCY5r6VIJqLNfZfh/Ppz9JDFSkfq7Q9CMZLLFhTWykkR7jbc96j7nxjKz/o1Eyd/MHronk2mOQs+pvchwoIdN4/H4zn9eUs1fX0SdfmzdZMXrh3TN2XUaBOCpH9O+M46g8S4EeOcnZ291jOhYEDDbExOHWSrJ02cuPCTwa6OmtgfZJ6NWb166IpHL/zlINPfAD5mQB9avyUI6Z3egwlv/V2D+wEiLXh31Nt/IeGuf2/d2v8Ch0K9KdD/BlcRWCh/KG/QAAAAAElFTkSuQmCC'
p49
sb.