ccopy_reg
_reconstructor
p0
(cemoji
Emoji
p1
c__builtin__
object
p2
Ntp3
Rp4
(dp5
S'emojipedia_url'
p6
Vhttp://emojipedia.org/elephant/
p7
sS'index'
p8
V253
p9
sS'code'
p10
VU+1F418
p11
sS'apple'
p12
S'data:image/png;base64,iVBORw0KGgoAAAANSUhEUgAAAEAAAABACAMAAACdt4HsAAADAFBMVEUAAAA1LDAzLCw2LC01LCwqJigiCQkJCQkIAAgxGRQ0Jyk4MDI/NjpIP0IyKS06MTY6MTI4MTU9NTc2LjI2LzI0KS06MTQ0Ki1SSUw7MzZBODtORUlNRUg2LjJRR0xHP0I3MDI2LzNCOD5JP0I8MTVQRklMQUQ3LzJWTE9oVVk+NTlRR0xSSk1FPD9DOj9sXWNYS1JoWWBIPkJiUFVIQUV3ZmxaUldVTE9bUFRbTVQ/Njs3MDQ8NDhuXGFoWl5PTk41LjJjVls/NztORUpNREZ5anVcT1SCcnd1ZGqIeH9fU1lAODxQRkljVFlFPEFkV104MDNJQEU+NztiVlqmlqFyYWhWSk5uXmN8a3GJhYh1cHRZUVM2LjR9anJuW1/Et7qUgoXEuL3Qxsu/s7mwo6nVzNDSyMy7rbDBtbqgkZaThIrWzdOomZ21p6q4rLKRgIZ2Z27HvMHAtLa7r7a3qa9wXmKLeoB2ZGZzYWWcjZSRgIKDcXPFur3Uys6Nf4aklpy9sbWHdHjCtbi0pafQxci9srbOw8eBbm/JvsVfUlbXz9XFusLa0NaJd3jCtr5COj7Lv8WDcXebi5G5rbSWhIhtXmigk5nYztLd1NnJvcLa0tjLwsisn6bFubyPfYJ3ZWmBbnOVhoxQR0vHu76onKO/sbO6rK67rrO0pqzMwcV+a2+KeXxUSU/OxMq9sLiuoahqW2CXipFHP0OhlZs4MTbe1ty5qap6Z2msnaGklZmtnqR6aG5kVVlKQUaGdXuej5V6Z2tEPUF9bnWRgoiomqCBc3mdi4zFur+woqTAsrSFc3bHvcOHd32mmJyZh4tXTFNjV15nWmBrXmTCt7xbT1J9a3JzZGt5anKwpaqlmJ9vYGjDusCXiI7Lv8JaT1eIeYE9NTl7amzaz9TSys+9srnc0tagj5CQfn9+a2y9r7G0qrCZiY6rnJ2klJazpq/g2N6woKA/NztNREpnV1uNen5eU1oAAQGOe3xqXGaNiIx9bnHJvb+Ng4gxLjAcGxygn6DoZgFTAAAAX3RSTlMAHwsVEQgDAQIFDTqrLj97Us5NjKcvYSXq64qafGttOnLbJKO5x8qy/qqj9ESY8uZY8bzkYOoc8/a4wpnwyPv+npBGh9TrnN7T5maF3vfkxPTx9tD6suP9/PjT1ub9/uhGFogAAAgiSURBVHhe7ZZldFXpFYZPQu5NbgIhghMI7gxQZGBQGZWOtmVqXHV3l7i7u7u7u7u7B3f3kfY7yZrkhrTJsFZ/9Me8/5/n7G9/cjb0f5rfg1hpaGRkqAUAPV2Qd8VXL99++LJQeObwVhMUhETq6b2bQmfdoZZIKZXqhXlmGb7dBEKiUO+kWPl1dXb6A5Y331sQQo1MlqxDoRAo5G81HPv8448y/5T+wDstLQ2Pp6QRqNW9WxEgv01x7PxHqszBEMIDFh/GKRQ3NxZjxHMdSl8bgdKDFs3BA6rskDv8a9ds+XxbPKUbxM2NX3D3n6t0EEg9pLbOEu0FeTMOLeYOpTk4Nbi529aCR0F3d2OxbsNpRSM/nN69e/fpTz777JNP/3z+4LH/wh8ZosWwhlOv0p3oV4O7LSymBKFYN2d+jUpGpRYyGIzBVj8preXo7n3/iV9yeDz7znAqPSg3IMDlqgPFgocODcWCODsLqGxGgXUeOT6eJUhIHyxX9Z9YNl+wnpOZfi2YGJT78OHDXCdStIVtqEIBKkDXO1BCRu4xyVah0YHc+m48a6BGOn5o49u8/l9a/OACAqYEQcRgigVaoVCEotFYD2eBtDWvMTrRxoaEs/MYxrNC/FRDZm8JzEtUNaxhHD0oIDc3N8CFjovmoaNh3srKw4GffZ/Z+KON0t/fn0hKdcDyCYUq37dq2NdFi/F2TiU6BQUFBAU50UmBVmi4ACsez8PhmvpGw20guHL9uos/EZdYzyf4jf9xbh/M+iJjvIdTXVzoTiB0IikRjZ7iY2OBILvtXlyoHRAAA52I8+hmhXjVbjfQFOwvHolhOTdns1yuEulEJQmXqEADvjGW3BjswC/H3Le2SlT6wwJ4FVz8A3V1xneGmpvQmxnD8s46m/OajiPhcKl2HvD6G2+T89DBzncib95oiB0l+V8HW3yFqJwqQVqVYoyaFWyvGqlJq31x9pef7YIT4XBB+TCfF+jhFpL8su4RaALRJSDguhNdiUvExoMuPK+8MCtYUxU5yPrpxYsXlQ5cLrc5kBvKa4y9HZfX0Gjn7C21f1l3jxxtQwRNmBbU2w6oVZ2lJzUFNHCRun75eZACrhG2HsuLhT//KM+jGR9iqSG4AjqU6lDPH1BXdz0x1pkV9FaXq2PS/WoIBIE3H0/hxZLj8qwfWQc2UxKqxfY36wrICjul/xXQgumjMJDNPvDtd7MbsZcjipRKvTJHMv1iCAmseFA94PO4XHzC3fB8uezGo9vRsAAuAGfX3M1K9xv/ev+E0Ywgqq9WpPppvLaqVjSiLiIwmdbW1szG+u54wki4+JYr5n5D7I92SiI4ikpSaiIXfydGWnv+wsSmWYGQ05/5r/7Ojo6uKja1gMAUkC0o+PgEtUgiyZffrGMweeAoEolTR8RBYTEwGMk5uCXHdEbwpCTj9cBf3y/9auvG4+Fl1dSY9IQBQoEfe1IoybcHBTyKQ4/akJRKJQ7cp3oKfJ8ObdHJOTcjyOrhvP7bvi0GoK1Gx/s8W1TVtOqwpnyhUAx42Y171rGhozY4Egk+YoHYNEGNV+33utrfrJgVRJ01+/XFM1lzKaLMssk+XywW508Cvq6wIY6nGLWzsbGxS/QIrKfEE7JpnIsQ4h+zgsrSD6ZpXV0kZLCjMzwp6RYce7mrrO1+AZPMC+WOggM6GsiNRtsKispFZ8wh5GYNQdaeaV4PiUIgtHaUSCqS7O3lTa4vZT43GA3MuHgeWlHPjY5WYNGgtzV3Pf+OgCDjcxqCpdO8HgoB3u9tKSVie0vX5Jc3ZZg6amtBw0AC2BYLHs/KCo+3EKSracXrAbXTdL4AFKAPCxyF8mRAYzA+bV7UQnUro6CowZopiCOT4+MSiqhhl44AynTDjMC9clqgq4dCaevrb2vv6JLfxPj4+GBksmpaJI1Gi/QqL2QASYKASWBIRU/NAbXKUFOg0QPUzvbOS3IZzD9rOvrp0arefk5xRFmYj7SwoIFgXaS+Wzb1ohloaQj2QDMGFLR07NWQHAPzER+vXqJlYLThi/1bTxwoFrVRwVpq7tM8j28BlMa/7lQl2MZpA1AAge9QBMYHE2b5vY7uzH9V5/MDZT7UVkZrObv3fS1oTtZWuq+CtPWnDbrQHlggw7BFSeshlMaAcbCrpY1a6OcVlrRmyVzBCnf3x8abjRHTRUAngeCNjB1W1ncRQsL4NA+t7yhme5VL20QVa3Temku+efx4Imf5rzOEKSwIkz3zFJpBGlPWlr2+fWWRXnd9WsK/1IfmxnDFTtPZX8W6dt+hpGdhyREZm0A9M1nePsTpZ4+0scvEXy44KwDBq6HJ5GeWSU9XQbPR+2BsqJ/TQqOFWUo+RCwo+CLlle9kcnJTseMRzRHgq+dAUMVmizyFH6IWFCxP6ezKd3VtqnA00hBovffclzPUJwJLu7wDubDgSUdnuKWrvKLHZK7gle+h07Uiy6TLO3QXFpSOdYjllvLwngtzBO0dHSc2vinzLH76B2jBbHBPeS60b7IP32WgKTgVNTZ2cR/HM6JiMcHKnNKUjFsRSZJd5ppNXJsV9WTjsqE3veEliwh0T05klYgnK4R7NccIlPHjykqTZWc4FRLHpdDCQRou7xGKJRl7V89ZWU7OZn3z5xJJRg8QLJJlUSUZGY7fzr10RptWQybtnRklKXsWn9qzdjk67npvyfwGRzk69pTuX4wHHSuNiio1nn/kN1VGpTxx3wQtmhWPwRU3nW82nHCvdF+7enGB1s5Ta8/pzBforjLevM0Q+p/m9/wb/Kz3ZwReq/gAAAAASUVORK5CYII='
p13
sS'twit'
p14
S'data:image/png;base64,iVBORw0KGgoAAAANSUhEUgAAAEgAAABICAMAAABiM0N1AAAAdVBMVEUAAACZqrWZqrWZqrWZqrWZqrWZqrWZqrWZqrWZqrWZqrWZqrWZqrWZqrWZqrWZqrWRoayZqrWZqrVmdX+To66Mnahzgo1peIKAkJpsfIaWp7KGlqGPoKt5iZN8jJcpLzOSoq1FTlSJmaRwf4mDk512hpCLm6XbtCLoAAAAEnRSTlMAEECAYDAAII+/z69w35/vYFA02V17AAACg0lEQVR42u3X2ZajIBSF4QiIpUZpN06Za+p+/0fsxJjSYwAhl736u83KnwO6Im7++ydEjDHOuWAslgE2ciYRbynmsnybBIcSnsGk4ElIiOWwKyPfUFTCSf1iV+uhWGHF8XMspjmvEmOIdOzOe0yKsjKGMqyrT8tLED2FBHz8bkApmtqQgRw+WywVjIRi+OlqPOHzEIef0wnPylkohZ9DB1dpI+Gp1g0Mto9QDF+6h0k8hir4+mphko0hDl9tByNxD5X+IQ2j4h5KA0J7GFWBoU43MMqHkMLD+8fl8vEOm73WNcyGEH5cO9cSbD61hkVFQ5fBH1icdQcLbgo5tqiFRRqytIPWPSwUCbk3e7/T+ggbEnLrtd7BKvYOHbXWB1gJd4gubAe70jO0/3IPhIyE3J0WLl6h463T1XBhHqHvTpOFGW1XQ4edvjnDrXSHjuedHpywIpWbAkvNoO/bTo++serpj63e6aVdg3XRMtTrpX4PD4yGMjSLafoaXir6OBJkpLZv4IuTUBZPm00aPqEtuRvwqnzD5lmZ4gUZgJSEKsnxAjGEJCZMVgiXMwAZCcUyQjgxfImc2JxHZccj5B7KSegNocpHiJMQQ6j4ERIkJBGokGNoPkMiZfCd9CalVIDazGdg3ptEz6JCKXENZeSoW4WubHQNleRUkYSubAoJOqdCiGoKzWdIg3c7mkLkq9txpVSapzcZntFXUfxQseTWtymGJ+k8RHapiF4P0RLj1jegZD0kWYE7lVSmI8Kd4eqT0EBkQ0fICEtKjnIsCRIaJYyx29UsrW+JwvATJEQlCoSKpG2kyhmScQHysJs+ici0SkgSMhD5OFWRC0mwMsNduo3kzF+tfCPaP2DtEQAAAABJRU5ErkJggg=='
p15
sS'gmail'
p16
S'data:image/png;base64,R0lGODlhDwAOALMPAABo/wA0nQAhNwZds7LXuQCZ/g+q/wBMzAFlzQCE/2LG4SnG/wBo6hKQ5x+5/wAAACH5BAEAAA8ALAAAAAAPAA4AAARd8ElZjDOlJDBnWSCWAZznLAWCZAXZFU2DBMG6cYlkCMJADxoSYPMo8HyBwY2UeygaSRpDyJQQCIrZlDoEwK5c4SFBph7OB2Hg4SoCaFLAYf2S01u0jju/p3vef2sRADs='
p17
sS'related_to'
p18
(lp19
V\U0001f42f Tiger Face
p20
aV\U0001f405 Tiger
p21
aV\U0001f30d Earth Globe Europe-Africa
p22
asS'name'
p23
Velephant
p24
sS'known_as'
p25
(lp26
sS'default'
p27
Vemoji
p28
sS'bw'
p29
S'data:image/png;base64,iVBORw0KGgoAAAANSUhEUgAAAJAAAACQCAYAAADnRuK4AAAQyUlEQVR42u2dLbAURxeGr4iIQCAQiAgEAoGIiEAgEBEIBAKBiEBERCAiEAiqEAgEAoFAIBAIBAKBQCAQEQhEBAKBQCAQCAQCETFfPVvfS7000/OzM90zu/ecqiko7mV3Zvrp89/dB01IyAQ5iFcQEgCFBEAhAVBIABQSEgCFBEAhAVBIABQSEgCFBEAhAVBIABQSEgCFBEAhAVBIABQSEgCFBEAhAVBIABQSAIWEBEAhAVBIABTSLh8/fmz++eef5smTJ82NGzeaCxcuNOfOnfvh+vvvv5vXr18HQLsunz9/bt6/f78Z+G2BefDgwQaUY8eONQcHB6OuEydONJcvX27u3r27uZcAaMSg6frvv/+q3wOD/ttvvzU//fTTt8EEgPPnz2/uKScfPnxonj592vz111/NL7/8MhqYruvo0aPNzZs3m69fvwZAbfLu3bvmzz//bI4cOfLDLLxz587WWsC1wfPnz5tr1641v//++3cm448//vgG7MWLFzsH8vjx482rV6++fS4D+ujRo81nOnB+8e+//vrrBiy0CZC9efOm+fLly+bSd/O5L1++3ADMPbVByPfzGUtMrNUC9Pjx414V//PPP2/8Bl74GG3G4KI5coOrC3AdXgYKoB8+fLgZsNOnT38HxL1795orV678ALwugLl+/foGiCnmh4kFeDy/f/7Zs2ebt2/fBkA4lD6Ily5d2mgcBo6ZeObMmR80UpcZQdPcv39/84LboAEM/Aq+l8EFSsyD/w7f3WYqAKILQqABNkxZCdP+77///gATEJf4vp0AiNmlweOlYGLa5MWLF5vB0Us7derUd7Na0GBG0pkKRGggBpbva1P9DADgYs6ePXvWec+YlhQc/l9NbcDzXr169Tv/DLN4qABihku7MMh9A4fp8sEDlhw0aDJ8GczXp0+fZr1vAMTkouEcUsLz2oI/58+Nxj40APkMIroYKmiTXMiLesc01YpUMGkyk5jGJSDimZeEaBGAmMF68fgjXREFMGD7b926tTEVqV+DOUPTLBWVYF49WsJ/qy28Q38nvK+9BQg/RBEXf8qX4U+cWi6F7ICWy6eQpylt9/GNdE9dppB7B+5tNOpcZtVNKu9sTLS6UwD5i3YA/N/xYQAk9WvI6OL3dEVhcwgvHwg8RMfPIuLBRORgcrMM/DWF0oe/L+5l7wBiJusBiXraBEhSTYOZqOXXAKe03smTJzch/e3btzf3K83ZNTiAp8wx2rameJAB/DXKH1UBImLSA+K3pIL/oJ8zeMzimr4NL1zpAiBp+27C9T7zIHOCw19TMP2uNUl27g1AOHZygJmd6exgtiocR+vUsuHurGvgMadTwKUkoWetnS2WBtRz7A1AXmNqczIVjlIymDt3M8YJRQPN8f3StvhsNYV7F7xMyNKmvwpA5EdyWWQJDqpqPLWFFIFm7Fzwkvmu6czmJit+584D5BlTEn1tgqMq36e2UEIBojlnKyZbGrW24F/WSilUAUiOKdninG/BzMcBRO0uWRycM5rTM9cWNLz7kzsNkOcn8HO6RCE8LZ0B0DQh7aD33ldnXDVA8gW4yOd0iVo7auUw9hkgQvgaZqw4QB5W9oXGngcqnW3ed4DQOnqX1Mr2AqA+p1NJMCKyXRdaVpdyohH8SG+iK5WQrQpQV4hMeK8ZO1cozeeQzabtItesVkoUVS4RxiMA4yWhUsuEigPkZimXWsffUfLLG9anvkDvY+5KIZQQ0hG1ygk5QfOUfvbiAOELCA6irDZBS8ytaimCotW835lBrVFbI1jQdy7Z+I429z7vnc0DeYW9rWtPL7yrL3qsoH3Iwno0MqeGywkFTVXzcxNmCYAwqTsLEH0/3p7RpgXUqoojPUfegpfH5yiNoMRaydQ+8ChpCkRT17LNCVCpUL5aMdW1UFsrB2UET34B1BRzAzAMosBBs/GZpQDCx5DPgdlcw9p2B4hSzU4D5O0aNGblZifVa4XzrNmaw4Hk8/DFSA/MbcKA3DsRKQavpRTjAJVqtq/aUKbQVi86V7wkJwRkON/bOqHevKYSCuZzzsFlEnjrLQm7Na1d3xsnus3X4aJKnxO0zxTb7SUULpYpdxVzxwqaUhEeoGMi1rJevQ2gvjLSzgDErJV54cV3rUad6vy5aZmz0V39Q/J3llgPNhagUkt9FlkX5mULIGpzqtWAPzV6wPdigOfKxzg8RFyULNYq8jl5x6VahBdbmYrm8SXJaaZUAHWZudriZRlMce2+7dGD+/97ZQl5se9Y8gExUz5L3NETQGsprHpXJQ762jZ6SoXykPt/ewkQ4sucvXYkgOjvXRM85KrWrnkQtZOUzEKvAiAEH8ghIoISQDWWpnQJs1f3xcK9tWseiS9kKFm+Wc0Wd5gvh0grCyiIrgEe7mdtYXqXkDiUa1AS+lVtsknNLN0tjHLE3L5BX+QEKEtrHu5hSi1N+bbSBd3V7dJKptg3WmAGzSmE4X1tpr5dCg3+22oeQN22t5u0A/mybb9X2rz0Jg+r3CeaAVNVm5LGnEKbRw4g4PUSCJ2MU8wW37VtnkhR1Dbdmcrik2sr7fCvdqNxaaE5G8KZ1blGd/JQnrmdUshVFDS1dAIAY/ujMLXqR8L0Fs81rR0gzSQGgwIsA73toHhkQpkDjUPaQO2nc/bOAGDfOrg+IYAYu7Ze3Z3p/kuHFiAfBBrEeKlcQ5xa1L/Dxt/VvJ/bK3quqjXfM7W7kncwtqdazjOmv4bjv3qA8IXIE5G11qbdDHKfc4qmAog0icagtu2Gz+/N1eqBFgCgqWE/EIxpTOP+5TxP1X6rAYhQlMFn0LmGJrUEEINLSI1zi6nRFr5d1WVyIOpIbIMC+FgtQkTG/cyZ31EAMLUtFx+KZ9W9oU36HGrvtyq9K0cVgNKGdu+L7nsZAijNRPNCqY8BR5sW0s4UfTvalxImCQBNhRIN6s+ORunLyvvaulpJz4OS8HSdT9EXXQkgNAnhMPkYZrVeDKaoLUTld0lG1oAHzeq9QNwbWnKO5i20ifs/5IRy+0oiaFLPXdWSIgBJ/fpWa5ghP/SkbxsX10D8HtEIL5BZlkuOqQmt5FpwF4qs7nRjOjG1c4uix66qum84XrNHqQhAvhtrGhL7atGuKnHOhGGigLPNl9KqDoqxNQRT7ABxTyW251NklQvp8Y9UAqpdOywOUG6Q+xqd3IThNHtHIQ506kRjPrQNb43tddUuUXLvHXeM2zYmlQBW6eU7iwGUzkhVifsKpZ5I5AXhA2DbcwVGLV6stRuG1vyXhBU4ZfK7OjP9SKzagUNxgNJkmrY90ZWbVQ4QgsOMD0CE0ybapLOrgxFVP9dqUQZt22LnUHjkR6KFc2B44XSJ3qkiADkkqQ/EIHovdM7hc4A8JM0VB7XSo6v6TGjctR5tqGBOGbQSO8qisZkEgqKvHuaH4O3NcU/Mcm/EyjmFXeuVvLCpIwdywgvW73ZpGPktU0/U8YgH0HHsc4fZjXlnTDbvh+LvXYlXvk+FU4Crvb920TyQv4R0xnuPcVsk5v28Ore0Sz2r+Stn3tLPndJkxbPkzknFiSeMx1dD26GpuqDiZ/huBBbpZ2Ii+9Zy+cTpyhHtJEC+5DfVMv7gzKAUMF8+0xflaHvgIbuBCaApPUZe0cdh7zvMl5+rkwDThMkhzQD0uYOGh67j8sa3vTvy0usyaWGPmeeq2h8en0g+Upv2SsWXMPfVf1yzbbtjl7Qn98hz8JlkjDHVaTvukIvPwaTju/nGmH3axyfOkpuSFgMIm951uIrPHmYoPoSfljNkPZMvk0Yb9PkgfMfUjSfV7N+WLuDz8FnwsTC5XUBhctKuAo9e+/qAvO+n5CaaiwGE+Cl6KQyYAlf/zCZX6fysb1a5lhviGPt+jdtWrGWah/ocQM6zeliei94coL4VuZ6QrVW6qQ6QZ0jbdgrNFVxR60MyvN433ecz8PP0+Mxt2lYF+TYrZtX5mAsIHKCuz/ese27bwL0AyJvjNfNSVYut9/oYgzykZ8i1yZDqs1pLHNixa8aBcMgA92WMpwJUaxPxxQFKI65crQaodLjtkOjDl0MzE/vKCXy+8ko4rNIEYzPJ7oRvA1CuQDwWINfstc9mrQ6QO55zHP7BILpzOuQF+sCQ9HP/YUxpYy0AadlO7daNxQBK+4O2PZAWTeIljqFnkmqjKWVrfdXpmBm8FoD8/pfeCbZaU3265Rx9K2N2zQI4X/Q3putQPpaiH98kasz+Q1MBUsvpVID8PSwtVe8AZzeNtphN+EkAwgD5RXSBs+ydjEPzJG35KDWakX/ZBoSpAMkPmwqQfLglTndcFKA0gTjlGqp93OGU2fSNz8fUxdYCkDL1S299swhA+DHegjD0wvy48zwUoLZtYryepUEg+tPSI7+8zDIVIGXNpwDknQ4ldx5bLUCe/8G5TU/UaasTUYz1UDwHEC+Xf1dk4gk3oJVojbwPJv8XyDB3gMp3cW++vnwqQGnjF99JRKpncYBySU4/QrT0gbqrBsiFyCj1f9p6W9oA8qjMd09NE27ebOWn6YwxAw7Q2PYJ/78Ul9PMOP6Mt/vmqus6FnSpBrJVAjTWh3CA8GuYuZgl/u7gebTl6X5f8CgQGFBCegYX7aLLozSHYGzvtTvu/B3tqBZbtDH35wDlljx5NLtUC8deAOTlDswTpg7No3wTg+19RW7yvKFNoT0D1uYDeduH+x9js9iYQj9DDFAx0ZQ3CCwwTYIDE6qSD4lP/i/QM0H8mWqsPtkrgDyDrOXDaA7gYUCozqNFtN49BxCD5WmBMVV5N5VjWkhlrgQHwKJx0HKYUdIVSnj6We88H+kPcj+YZH+mNZxsvVMA8dJ9L58+JzIHEOJ92WO2EvZIcGgV3H2xrshJz9a1s8bQQ4wDoIz4io++ZcRdAOF3SAvx51Bz4GZ0qA+iHqKu04e86KwoUhoJcyktGQDNkEcaGkH1+Qte5B26onPsEUpDtY+a79JJgQkDfjnVAdAcNz0wlO5rzvfBHZpTGQOQ74imQ+/6Eoh9O3sEQDPkjIYm8/xlt+VMujaBmAMgD92HLE0esq9QADRRPBfTt4zHX7ZnotuSciUA8v0Yc/tN6x7wj4ZsZ+fPtIYzO3YOIK9j9Q26JxLbtNU2fUFjAPK0g7LN+F3cC5EW96/Ia+iBKP5MpQ6R22uAtIXdkFS+/25bqK7iJjmaoctixgCEiUwb+XOF4qHf789U6hjLvQbIK/l9zfe+7Vu6lMbTAX2mcEoURrKPz+9awTpmL2j328ZuAXzoAWKWSmsM2RnDHW7KBr7K1fuKxxyHue1R2mnB2Jvr2o78HJIHK3kS4V4C5GE3qf8hat+3ktExlVxjQPTv90z0lOM43RnW6lxqXvw7GgntCWjcK34fkKF9fTOpbc/SOLQAtW0brJ4dXi4vH+eULkOSjPgfqenACfVlwQCBM8pgCUjVqvg3BpL/09a3NGU/Qkxbup3LNuvqD01T/VySLhEaezFogCENNOXq205miGBWmRhuGrsuGuRUnZ/rJOpDBRAzjvYHN01jZqyywZiF9JCVIRfgYboE4pwCTDqmHJOVttYutQPHXgEkwTfQ5kyYqyFXWvzEVDGT8Y34OUChCdoualQM6i4cuBsAhQRAIQFQSEgAFBIAhQRAIQFQSEgAFBIAhQRAIQFQSEgAFBIAhQRAIQFQSAAUEhIAhQRAIQFQSAAUEhIAhQRAIQFQSAAUEhIAhQRAIQFQSAAUEhIAhcwk/wPtv3QsdWG74AAAAABJRU5ErkJggg=='
p30
sS'version'
p31
VV6.0\u02b2
p32
sS'uni'
p33
V\U0001f418
p34
sS'desc'
p35
V\U0001f418 A grey elephant, standing up. 
p36
sS'browser'
p37
V\U0001f418
p38
sS'annotations'
p39
(lp40
Vanimal
p41
aVelephant
p42
aVnature
p43
asS'wind'
p44
S'data:image/png;base64,iVBORw0KGgoAAAANSUhEUgAAAEgAAABICAYAAABV7bNHAAAAAXNSR0IArs4c6QAAAARnQU1BAACxjwv8YQUAAAV4SURBVHhe7ZpPaCRFFMbz57Qo6MFFDxEEUXbdy4oJQvCQg2FJFPawWUg2a26GgAdFEvBmggcPCUIOsqA3kzEDm4AH2RBc3JyWXTKyF2WCehCcg+IpB/GUxO+rftXb09N/qqtqkoj1g8qr6p7p6frqVb3X1ekJBAKBQCAQCAQCgUAgEAj8r+gV641arfZSX1/fh729vU/IIbIzOTlZk3ou9Xp9GuZK1Iox+m638CoQOvgVzDtRq4PG8fHx+tTU1Kq0FQlB30ZzIDraQePw8PDG9PT0L9I+MbwJBHHuwIxFrUJ20dlZdhbfWYZo70Kcp+RcEU187+pJi+RFoI2NjVvo5Jw0TWih/IoyolrmNDDdhlgRzxtn/ejo6E63hHMWCF7wJrxg09ALfLACkRbwu7dRn4gOxSjhcT/7uJ8tfO5udNiePrEucP04KXHIW2J/FJuEa9iIePN3EPEevPt9dcYSJw8SN987YYHIKMqzKOuqVU687knbGCcP6u/vnz0FcXowhS5VDP0juNfv4VFMIyrhOsUGxf4XGICwn3PNlLYR1gJxesFUjUKninj7p1HLDGuB4LI3pNoBRuoApoHCqHLWGIQXfSz1Ulym2Iti07SQlwwxX0F5Hm0K5RXmPVK1xdjzXQS6KDbNvVS0+FasF+idrkkhrvGqVEuxFgg/wjUoi2fEKvC556TqBawjj2hd8huuRaYRzVqggvA+xkcPLuIy16eiw36A4PtSvSDWlstiC7ESqGz0IN4cFvGfUV0sENIKXG9LrKtATDRLcVmDTgM+rN71lGLkraFtWAmE0XtNqmU0UXyG+13+4f6RarmR3NDLxbsHMcrArOHZ52WM9iuJcL+tPmBPC9dZYAUDxM01Fzhg3fOgApqSA81khOIXxNpS5x8GAJi8nUdTPhJbijeB6Dl5O36IZkzsjEYsB649C7L2uEbFbVxLPeiahHorgSDG31KNgdt/mRZHQv0eqiZbsZmI8OqxBpHxa/yOU1TE9Xak2kK9LWfLwtaDdC6iYCf0+qCBMMvcK0I1fuLn52BWpJTCz0OQ9yi8eKHr7kEr8dLgD7GFeJli6ITKbgmFQfkd1fnUaDfZWQrJgs5/gGNF0a0h61mN10Tb2gsTPBCrKc2lrHcUcdPHUiUM5X+h08MZU4Ai1NMeppHO0zOeVAei6+zokcb5rL1nWxZxH0us4Lr07ibaM2znUSoQLsRN+WvoeDpvyHv/RSgYcyDrl378XRju3fjclBvF/aiNfG8CafTjBYR6GoZbHYxK+uZ3IeI3OPeTvgETuIhj4f0CVXrPbyh6I/51FB9Tqg3cW9xf7wKlwQ9wasxHrcfvq6qAaxS9ibWB0zn37WzyHuW3KVqhQNaLNEIvR17jcxpojDfa4L0HKFz0jRNACoM+fCLNXKwFkpwn7gRGpPIbA/Cn2DR6tNeiZiENTO0JLur4Dtc79byWAadwG1lJbRrXMB/fDEbwDakag+/khXl1XXF/vgPbppfwWAIGAb5lZSqQXPeYYmTxj9hKOAnEaaZvHKPouj8Tk5y+7DzKODyEweEmpxLO6wfhjtQB53+QqhecBKKLQpj70qy8PyMRsQ0Knuf6EKTGqWQyNXzhOsXIZ2Jt9ok73oxANKfOe3jj0YazQJwCMGqxRudMN9K6hm/v8uFBhAsmOSfWlNKn6dPGl0C6o1UjxXmxSbTYVlimG7k4C8THBSysw9LMy2vy8PrOjOBevHqls0B4llrF2sMn+HjPuAKuW6ddx0kg2QJ9iLKJYpzmE4uIZ4q3fIw4CcSIAa9ZQrnOHEUOG5GVA/kA1zV6nWOKr0Xahrz/DnHlbK1BDvBdWTfIioykagAJBAKBQCAQCAQCgUDgLNLT8y8WuiJD6EhKdAAAAABJRU5ErkJggg=='
p45
sS'andr'
p46
S'data:image/png;base64,iVBORw0KGgoAAAANSUhEUgAAAEgAAABECAMAAAAV8YMOAAAABGdBTUEAALGPC/xhBQAAAAFzUkdCAK7OHOkAAAMAUExURUxpcQBXkgBXkgBXkgFWkABXkgBXkgBXkgBYlgBXkgBXkgBXkgBXkgBXkgBXkgBWkQBXkwBXkgBXkgBXkgBXkgBXkgBXkwBXkgBXkgBXkgBXkgBXkgBXkgBXkgBXkgBXkgBXkgBXkgBXkgBXkgBXkgBXkgBXkQBXkgBXkgBXkgBXkjEtKgBXkgBXkgBXkgBXkgBXkgBXkgBXkgBXkgBXkgBXkgBXkgBXkgBXkgBXkgBXkgBXkgBXkgBXkgBXkgBXkgBXkgBXkgFWkQBXkgBXkgBXkgBXkgBXkgBXkgBXkgBXkgBXkgBXkgBXkgBXkgBWkQBXkgFWkABXkgBXkgBXkwBXkgBXkgBXkgBXkgBXkgBXkgBXkic1PgBXkgBXkgBXkgBXkgBXkgBXkgBXkgBXkgBXkgBXkiozORJIbAZShQBXkg5LdSozOQRUigBXkjAvLjgoHRlBXAxMeA1Mdi4wMiA8TxhDYAVThwFWkDItKSc2QR4+Uyc2QDEtKgNVjRBKcTIuLjAvLgRTiSY3QhdDYTAuLTAuLRRGaQZShiU4RQJVjRdDYQVShwBXkiY2QQBXkgNUiwhRggJWjywxNS4wMR88UA9LcyQ5RwBXkgBXkwBXkQBYkwBWkv///wNUjABWkC8vLisyNi0wMS0xMy8vLwJVjQ5LdAFWjyk0OyU3Qy8vMDAuLRFIbAVShwJVjgpOfB0+VBZEYyg1PQxNeARTiQtNeiM5RywxNQBYlAlPfiozOSc2PwRUiQhQgAhQgg9KcSM5SSozOAZShRdDYBw/Vy4vMBhCXhBJbyQ4RSE7TRw/VglPfx49UhNkmv7+/x88UBNHahRGZyA8ThtAWRVFZQ5LdUODr9Hh7AdRgwZblRpAWhRCYS0tLQdRhCY2QRVFZgFXkiQ4RhxpniRvorzT4rfQ4Nrn7wxfl3WkxKPD2Onw9sfV3zt9qqLC17/N1iJgivHx8eTu9Nzc3O/u7UxLSllhZhxYgFCMtFqKquzt7mKXvGJhYR9ObgBVkT18p1hfZNJzxc4AAACYdFJOUwD9CxIDBuNAAg0BUQnl+BYUD/wZ2Oc57icwdf6CLMfw8jZU3Hn2K6dZZcIIxPWradrWsE2Ro4g0YRz7nXM+ILNDtSTpXrjzu83KvoWLjM8eb9iW3eyX+aXSikego3xsLX6N35mulFcNyjWbjcpZf7cNnta6wxP63f1U2ZqzAfl4N4Ds6b/4pGuiEcX75y+7M/gszCjiOeXkKRuDAwAABTFJREFUWMPtl3dYWlcUwBFFRNyC4IzE1G2sdTSuqKmamN00SROTNq21e++9997tfSAbZAoiCLjq3sYZs5Puvfe07XuPxxAeBPv169c/PH/Ave+9+3vvjHvOuQTCsizL/1WCCpnbiIG2me86ZmTQP8FQV59dl7QxrpQCT8LJF9Xn1NXRqkqSA9C7pEJyLnlbRkaG35k4YXmJAJWdFWnl2RsZAJOkTSxKePSaC2mMasb5V113480lURRPHMplEdalwKfaBzgIPSHBH7vAnxad7ttZdYUHVGo18EY0UwIdAFn58e44xHqvOACaFys64f8N5EB8ENPfOxDgGUWNHPifRsYH5WZ5CYJ0gjk2MtgTjQuK8fESxNGaUN0AKAvD4fgVA2+F9654HtENFMUEuIIiN3gNgvoFA3x0VHfAFVSe6D3oLblQD6HDLS5RHlgQ6zUIvNMvmJKiI9paZ1BogvccAPV1YFYKSXUGUbPAUkQnaZahg81OugWlLIkDdbW39KFWKiMuBq3NWRqIZxRrUVBC+GJQ4dbFD0JnAvWIW9FnaL5O4bipCH3iLAbiPFnXUbbjOjbfGXRULreoluQc3L6XbGWE+J9DzQ0GYOGQvGXe/k1Q0/EJvWXEsVyF2ENWY7uACIGFrNJ4CiGsBnauXKVqXrRJVQoDjGC3NRoAx2zmaGZMvRbNXFSzSXg67BKhQDXgAGpWSUxtEIBOdSgV/Y1arXpWJFRjume6y5R+qwGQTohb9A6qqUUqxNmc4UGhSaAcHJRIFN1WG653m3K3w9nE0NjlaGzp283z8Jw9JtDp+6eMxonpJtu9FLfVKvkCJOUsdj/qNXirto+bgUwqlTlERz7JHejKWx19vdBgpw0JxvguEeUelHFfq/19xw4fXLDlfGGv1jVOK4juQPc/odACbEHDwSOfvoeSINDaodSxXWM8J9JteduvlM8YIAz00eQHh48t8EHntFwywMPZONVIHvHFLeJPDZkkI2oeCvr4Qy73sy9/+/OPEaX4OA93A+6pjazMpOKB8vmNPSLRnAYlfTLJ5XInf/39pLFb5mYj02sSQRoeaB+8t4fbTW1IBlx4/wgM4n7/14lOfMxu9LdmLR5oLwDmLnlvF7qy4edvYdBXP/HdfE5xCn0FvYyFa+w4SKM3CgZkWDX85btvPv+iwV1iqgw6UPu8m13y5LOzQslsk/UTdD/8+LVjJgIvvRJsn5Z4aJPuflzZ0m+wcngjJ0/w7VtFOn7ozdej7LV0FR4hkkxdCcu1dwyfYttMohb1WN0Otc2NKnoFr71KWFntCeRbvyIWS9h2yz7yqKjbOtOMqpTCjrE3XnYognE4PRIZp2bTr3/o3gfshbq9W9vEzmKhScsiu3BiujLEOcNDOVQ/Qli6vZsZkZkhEBLlANqM046khjhheLdcjfZNsVaQuAcJdxhErPJko+jzHChmfp+657abkOu1WK/LGReeRjqHxBcJQRXW5ncNXre+xeILn7s0nW3qsZZB0T23I9ejsH6b0ybsQEBVoYTAXRjIH7f5o1ALduzIuyHmsdEOoVIiHB2+E801LAwEPbf/hWcy1xcwEcckIfXUJ/hij4eAh0W9iuaZcSkUnIx2YEXY62nrng4NtZT6gPjsvPziGJbnw8SD+i4DG4mlYLSxK4/wqIcHSYvAItKficbXbgzEKF0iiJluUSbkcrRmJVsbefq5Sz1tFVZek56Tua/SUtZJq+gWThxx6Qc3EjGcaCtYpKjtey+Ny2aR/oWDZWDA8uF6Wf4j+Rt5ef03TlXPdQAAAABJRU5ErkJggg=='
p47
sb.