ccopy_reg
_reconstructor
p0
(cemoji
Emoji
p1
c__builtin__
object
p2
Ntp3
Rp4
(dp5
S'emojipedia_url'
p6
Vhttp://emojipedia.org/baby-chick/
p7
sS'index'
p8
V269
p9
sS'code'
p10
VU+1F424
p11
sS'apple'
p12
S'data:image/png;base64,iVBORw0KGgoAAAANSUhEUgAAAEAAAABACAMAAACdt4HsAAAC9FBMVEUAAADOiRSQPQSPPQSjTQjKfRDEcg6+bwymXAS9chGSQQWfVQq+bw3IeQ/HfBDHeg/HfxGjVAksGARDJARULgVSMgTMghG5YwvIcg3MgRHNhhOQQgXGeg/Hcg15RAyXSAeZRwWoUwjGdg/KfBDIeg4zHwk7HgNjNwiOPQWiUAirWwnNexDGeQ87Jw8xGgaWQgSYSgenVQm0YQtMLAM/IgFuOwm3YwxXLwT/6Ib/4WP/5n7/54T/5Xv/5G//4FX/3kz/5Xj6yyaHVBDRjhYHBgYUFRflszh0Sg18Ugr/1yn/3EL/6pL/0yj/1ij/3D3/6Yn/5XL/6o//65r/6oz/0ij/65b/1Sj933D/5XXwwSP/4Fn/4V362mfTpR3/4Wf/31D1xSX/4WD/65f/42nXlBa8hhX/2CvcjSb/6pP/2TbywyT+zyfgph/ShSPFfCChWgvLnBr/31P41Fr/3Uf/54GsbQ/2wCLcoifsv0LaniHYmx7otzfWlxzYiSO2ch//42z/2TOZTgjJmRrrvCL2yCWkXw3xxCXouT7emBf72lzeohvjrzPzykjTkhnknhnptyGnZhJdOgW1cA/nsh+/fhOwaA/gqS6wdBL201D/5k/MgSHPlhjHhhTDexWOURGXXBNoPwdDJwLWoBvirR7/8Yb/8JmoYQzsvyO0eRLJjxfstB/xyU/ouyLYqh42NjbGlBjPmxrBixb/53q2gBT/7Jz/2zmVSAfUhhPtrx7/2S7Ckhfuw0nXqB3+4nfpty3PgBL40EXdsB/wuyL5yCX41mD0zlgnKCvmqRzjrSrhsyD50DrDdhWuYxHuwDWJYxXyxTX82VH/6V3/6mqsbRxpSQhSSi3/85Pey3m4aw7PhxNcPxX/4DDawVW2kyTYuT29nzSadBaejk5IQST/4UmDdT5BQUJ4eHjZrR/jrCLmuSHXjhTOoRzjtyH/5EDPrCz/8XrUu08xKg+ciTSsnFvu3IpiWTZfX1+Ojo7d3d39zCbw3Im3qWWSd0flAAAAOHRSTlMA/ohWIs07Fgb+rv0vl6+G2XU4D5L966554fXraF3960aNpcNLaSnXxcjw61HWTz3Y1OvlsefOtY5MW6QAAAYsSURBVHhe7ZRVcJTZFoXTkBAjBpMMgRBcZgbGpd097u7u7u7u7u64u7u7u4273/sy+5w/CVR3R3ilWFVUePnWXmvv87fSG663mm2ktUzX0FBXRVtnuepr06rzVEhlqclJoOTUMpLB0jVqr4XrGPCSE+pLhMKUFKGw5FRCki9JxWj6Fmt0eUn1woLEvSNIe/cmFqScCk3lqSyfHq6mQ0qtFwJ9PPoYUnR040hpIlj43tZSnQ6vzUsqKRg5fszV1QEpw93VtSi6sTTxwKkknsrs6fAJwr2AO+zfz6bT6WxHRwZ4IIvzB0J9DWZNZaCDeYRTqbEgKnULG1lQihpLL4LD/CkclpNGeWosjUYmk2k0WiyVzrbM8KEUXTqEHAwmbaFqmFyCeHosjWxhYWED/8iEA2PcQXeyTWqV1SciHnAbGyskGwuIQaVDC4pXFDhUFH+nPcnrnZ9QMHIM5gNvZWISGGhigixosaiEu5fzpUNn8msKby+c0EA7FRXYD7yVlYkdVuCrBlExZy4eOelrOFGJWSQI4OpApcH8QDtva2trb7tAE6tRAwoYsKRnPIeLd+pMYLAUBXCAAAS/bRs4oAjkWLojGLgwPVjSIA5E+EBxBFW8ARQA8gOPDKzHDBjYIEYaFBIMEeYpNDDCJ3gZAFt4B0IFZAArYLJizINsjx45+Z2Kwi9zWbIQnYA2ZgCCBIQB7BA3MA/y58TvKjyo6D0qowbwBiABrmA9agBXoLItfYgG2zPtQzyHyxV2WIgbEAYQwRoJGpjgFaAj4gC7JSGowzJFrxBuEO3KoBNX7Ouz9iaOMBoAbhhjvj1ztxlaQqGCO6jpFgtLo90ZbCp6hzf+d9OuD57R2A0gACoAAextJ1jCitrQlNJoCsORTaWRb/xfwL/+Rx/iIQDmo1CBTH8ze9t/43eV75R7znPX8r45X1pEybB0pFN7b/JPvOD/eQNwMiqQgQsgXmJmig3ktzjnju835w9d8nJngEPvM/7f/zzn37Qhk2Mx78IkFiCR2JuGYAMtWYMP7xQiAxeKDzhsuS7468Vzwe+9+KcAPwGCN7M3tSUMlsoarNQvRwZMcMhgWD45sWHDCcHjXjp7/A2P8tgAlviu3BLfKR++eIYV5exCofhcuQ4GGwSPf7aEX0M5Hs6oyMDId+uFCw89wMGLcuWZACW4d8XHnYI/gZe8bcjR+OFQ3zZ5Az2uiMvtvN/kwWS6XP6FLxDwn/hQvFyc4QsY7W9KzPc8UlPMOytnsHJV+9X09A7RgyaWRxTz8m98/q/3LjszowDH95fY4/ycXE+nip5kkvoS2WewqiM9vDk8nXtBGhPDYrGaHjxsbIK/MYC/Ep/jGeyUU1Nc1npLT3aF7enhYWlh4VdFP/0olYLJ06anMVIp0ID7m5kBjuM7DeRU9HTz2s4tlilgXBkeFhCQ1pzOfbQdZI4F/wkCfHx8bvDAwLpve/a1tFa/ryoXoDktICAgLLxSNHA3c0xA4/J4e7me+YD/cHp991Bt3XsyG/giDwKAoIPx/bu7kfxBMNyMwGF8Poz/4fTh9d0trer9Miv40PgcbAAqhKE1+kuAkyAWDyfwYCc8/vDXbpsggKayTANu3dnmsLS0tLC2SlFVLqQeZYnwMH0MX+8WOeRXnache8P2c+rhzc1tDR3ia/r6+ZIx1hbRHM9xHPEbNw/2Z30k8ynrG7d3dHDFYpFYLK66xgEQUBCHk5sLl8M4Hv894us0NWR/C9Z2delXdYrEXK5Y1PUo5CgHhNj8fIIm8H1u32cDHxexSFnu93DOis8/A4vOqqquazXxTk7BSADnrMPDcXg0fo8f8DtmKinS3Dkr3vmqs4qberKnpqIiB4RgGH4YDwc8e89mzM9QmlgL1Q+SypKLQ3t6TmMBTQwn8K0NlZPyoFlfqre18lpSu7v3EXIj6I0IH4zL0wR+cqnpfXpLvbZ1aKilZdOmyE2RkdnZmEZ4ZUTWAug/lZSXvF9XrV5b67eZkB/AWwcbEL5DA+9/agu9T/rP1VVXVw8iNTQ0xMVV5gG+GsZPU2qLl7ynGZHXj5WXF6GZtWOBxmI1BEzfY/bMGRofL1qUBeyC1TNmqiq9uXqr/wDWuYQYhCROOAAAAABJRU5ErkJggg=='
p13
sS'twit'
p14
S'data:image/png;base64,iVBORw0KGgoAAAANSUhEUgAAAEgAAABICAMAAABiM0N1AAAA2FBMVEX/zE3/rDP/tDr/xEcAAAD/zE3/zE3/zE3/zE3/zE3/zE3/rDP/zE3/zE3/zE3/zE3/rDP/zE3/rDP/zE3/rDP/zE3/rDP/zE3/rDP/rDP/zE30kAz/rDP0kAz0kAz0kAz0kAz0kAz0kAz0kAz/tDr0kAz0kAz/rDP1mBT/xEf/yEr/rDP/sTf/rDP0kAz/uD3/sDb/rDP/xkj/vkL/xEf0kAz/tDr/ykv/zE2MTCL4pyT1wUn/sjj/yEr/wkX/tjv/rjX/wEP9wUHst0b/vED/uj5mIRP7tjWtOfezAAAAL3RSTlMAAAAAAJ8gYBDvj2C/UECAgN8QcL/P769w3zBgn+8QMM+vv1BAQHAwgIDvUN+P3++EAF4AAAJHSURBVHja7ddbV9pAEAfwRbu5ERIiKmqr9n5v4yghYw0QWqTf/xt1TyIY3OyyO+WcvvT3Ni//MzvAzsKe7cj/oH8d5CaI4cBjzBuEiInLiDysxTHWyEHhETaEIfsL4nRCfS46z+WrnrjrMSqH4wbu7CCGHtXzsYXfY5YCVAiYFY5KnN4PvaceahnPyfFRy3dIA6KPycGtHEJD9JY8NOCx7Vw04Fqe7O52uby9Q9mQbde8y0SOSKKM++L9S2xYVn6hLGZa786zTA7CFr523M8zARVHs2jpMquCpGFb/05eS0E6mpWSmQVdY23AVM6roJ+ol47xQaSc0fdM+I1aU1isxxSpP7ZXWfYDtYp1kHy6s0byxZuP+gFBMwjD6DElSBBd42vkvgpqSAI3iqJ46MvfLkd/Mpih2tD4ZgOAMarFxpc/CLog03U0AWFqfuEF2o5SVIqMFwAIZY4q5ku7AGGBCkPjZw3eVy1NbHaCxxXfbKHIrbaU0xY1BvW8ueYxGuITI6iMc8vV4rZOSbgayQ3ZLfC8gNrs2uq1w+WkEh4U84n5GndQMilg7Wq2mI5GI9EcJ7xy8jE8dcNpD8GbEjaUn/ZX2L5KD1vkaTPq8O3eGttTCrBNPp/VWV+/feg0sI4aRw3u7eYBP6D8xZEdnTEN47sgcXfy/22adjstWGerMp1/xoofBr0S4AsxCAD6UkUMOpUqu6A+rJxIlVUQPOpuVvQg2KyoRxNERQ4SDg6h9kKq7IK6UDntShUl6PhEqihHO+4fyJXsD7434RYNvFxBAAAAAElFTkSuQmCC'
p15
sS'gmail'
p16
S'data:image/png;base64,R0lGODlhDwAPALMPANmhAI9oDP3JAGg6AAwIAaOQDf/XAltaEiQjDcd5ADw4LTQfAP/oCsWxc+3fHwAAACH5BAEAAA8ALAAAAAAPAA8AAARW8MmHziEzz+OYKZgmEY4ACEwgSgfTKEK8iEmRIrG5hFPhAKeYwVTYPRIBgzInUCZCgAGzGQPMMklqbiAiJJiAAC9DGCTOg7FoV1653xLVQ+5WSBT2TAQAOw=='
p17
sS'related_to'
p18
(lp19
V\U0001f425 Front-Facing Baby Chick
p20
aV\U0001f423 Hatching Chick
p21
aV\U0001f414 Chicken
p22
aV\U0001f413 Rooster
p23
asS'name'
p24
Vbaby chick
p25
sS'known_as'
p26
(lp27
V\U0001f424 Yellow Bird Emoji
p28
asS'default'
p29
Vemoji
p30
sS'bw'
p31
S'data:image/png;base64,iVBORw0KGgoAAAANSUhEUgAAAJAAAACQCAYAAADnRuK4AAALO0lEQVR42u2dL7QNXRjGb7hBEARBEARBEARBEARBEARBEARBEARBsJYgCDcIgiAIgiAIgiAIgiAIgiAIgiAIgiDMt353re17vXfvOXPumZn9Z55nrb2+717nnDl39jPv//fdW50gbIAt3QJBBBJEIEEEEkQgQRCBBBFIEIEEEUgQRCBBBBJEIEEEEgQRSBCBBBFIEIEEoVkCff36tbt371539uzZ7tixY9F16dKl7vXr192fP3/EAhGo6z5+/Njdvn17lxxbW1uD16lTp7rHjx93v379EhuWRiCkx/Pnz7uTJ0+uRZoUkT59+iRGLIFAv3//7p4+fdodP348SYhDhw51Fy9e7B4+fNi9ffv270JtPXr0qDt37tye9xw5cmRX/QkNE+jNmzfdiRMnoqQ5fPhwd/PmzV2iDLFtXr16tSt57Gfw2VJnDRKITb1161a3vb29hziosJcvX+7LIEaaeUJigAsNEej9+/fd0aNHoyoHVQYJNsG3b992Pyt87sGDB6XKWiAQEgXPKiZ1Ll++3P38+XO0a0FE+/lXrlwRO2om0Lt376K2DpICdTUFWb09hC0lVEig+/fvR6XO1atXux8/fkyqKr1rr0BjZQR68ODBHuIQHMT7mgPXr1//59qoNqESAkEeL3nY0DFtnVXgWoQDwvWJNQkVEAi15SUPMZ0cePLkyT/fYy7pJwJtYHt4yXPt2rVs9gdS6MCBA/LIaiHQmTNn9kie3MYrBA7fB3J/+fJFbCmRQM+ePStG8lj4uFAudSoCrYAtv0BtfP/+vYgbQ3Tax5+UIyuMQGyI3SSKvPpAeoHINKkGXo/qm7KWx2fspwhgikAbgGjz0A2iYMy61z5OhCE+Nqg1ste5ceOGGFMSgay7DDlSts+HDx9263v6CsKI14xtOyHZgrQLkWmhIALduXPn7+acP39+pSqhnIP/j6U5WEiMsXH37t1/rqEsfUEEIqMeNgbbJoYXL17sUR+pgrIpcldIIVvqAaGEQghEcjRsDKWnMYQMud24WG1QWKi7sWHzc5BXKFCFpQzU4OZjAxGLOX36dK8tNEXykyCivcbnz5/FnBIIRHF72JQLFy6sjBPFFtIB+ymkHqbKnttoOd9bKIBAuO3WC1uXQKiTYPMQD5qSQDbZa68rAmUE9oolRKy2OaWyMMBtfip4S1NlzrmW9f5UJ1QAgSCMDQ7GgoG+wCssi1AUz9q0wL4PqEpJoYIIBLB9wqYQWEy58SkCYdAGNbezszPpd6WPzH4HEsEiUGZYQzoVY4kVmxHQw4YKEozesCmlD0DiWImJehWBMoPOh7AhtCKngM2RyoVR8DVXFh8pZ6+NVBKBMiPkm4bkmjCScd3pHkV6zV3oRVeIrVbEvReBMiPkuvCsaoBNwbCw00SgTEAF4B6zahmvwoQPPwlkqSWvWQlEjU9QX6Q1agL2miUR+Tlvh2HoYzP1TUpDmiHBaq12zEYgbm7IcqPCaoup0Lnho+QQBcJAinUnpWFLlVLOWwWBQpYd1YUkqhFWgq5avI6/mYeFKgQSw55k/FxbvVEWAtlODCLNKZDqwH0n0lyiHYSkiRW3QZYwHY3vz2tTMSr+3X4GUrmmB2p2AqGq7Gi6mNjGmGYDwo0taeAT38UWmNkhVxTFEWZY156BYFaS9cXDFk8gG3nmplngySDebZyllPIJVIs3nEMt9hjdGjZlgyob6sFC6JwG+KwE8oMLcH9pJCSSTFpgzlrndQBBbFE/35McHt9rLOMfyTWUQJCZFqjw+qlzgMUQyKYt1lk5KwCxvyyxIfwUhi6SZNVEEOwoXuc7VHJGw2clEEZxSsr4mEop41Ww0fCceOKnmliGhLP3xSeVSZ+g4vrKeXM9ZLPbQBiMsRnN1NfwdLFJti+99Ymp3A9v82FrIenw8voaCEqwE4ubUOa9NP9k8TM3uIU+dQroPHmGLB42QgRWauF8iEDd/7XNvtkQYiHqgwvNk1sz+lq1U4FIP0Td9sflUvVFEQipYkU2NwvSEGz0ojyn5zGGy+4j2Px9NkeGYYwa44HiYYmN+cN7tZ7h4gnkZwX1rRoHHWCQ200Pa7+JZNtXx8qRTyyKQH6oU99K9ZGViDAwPWbvbDKNzbZFsXKkfIoiEONe7E1GrOM+I8pxba33hi1UA4iup3r5qawcM66WIxFbnBFNzIMbEfOy8DzsDSvdE8N+iY2lGWuekQi0JvzAp1Kz1tg6sbxZKNsda9q+J1COYGJVBPI3rMSRc3zHmHuOyh27dtrfjxxne1RFIJ6wUl153Gw8w1iqBtttimpDEWhN+MmppYzepfExZuvwO0ITU7nXtjRGNtBAd9jPlC419EB99NQbatuLhtYQLZpAwD7pq8YCzwFbhhGkDt7X1EE9VKINeSgXNhB20BNPeQl2WUhLEGWeK5jnQxrKxg+EnZqKwTrlAXSlgsIymxvkPuRqPKiOQL4rFHWxNHi7i/HHuVAdgZA41lVe2vBvXy+V6mwRgXrgM9q19NRPIX1yGc9VEwh9bz2QnCJ8ThCstD1peHxzHgfaDIGAnZ0ImZZwBIE9BK8U+69aAvmpqa0fS0maxOfWph7p1zSBYk9k7XXSQ0IXpQ07r5pAqC1rC01x5FNuxAaMlnTgy1btN5hS0TGr/Epy13EOSq8Fr55AxEBshwMSKUdZw9iSlTSNJ08pBxI3RaCYFIJQtQ4BZ8hCbHwMXmeJ6rkJAhELiRWu0/ZSi03E90wVpJX8dzRBoD4S0f5T8uxBUjMc8RCbqYgkLf2k6GYIBIhQ23IPG7GlenGKk533K21oEEiNyAvF9zWkaJoiUECqnSacS4aq4Mmec7YzpMG+wZbp64knFJF7oNbiCRSkEXMLhwwtYO4OG0twDmLRLoQntF+7g/dxfRolKfwaMvaX+h6aBGqbOtIsgcJGkr0eQqTUQpLZ8by40mGRPuH3qE0IAgmGDNCyKwyuKiEtIQL1gDQHG76feTxjL9QUAc8WEsCLIZCVShjTqAvUFhLAF2hNsZBkFOC3VjWwOAL1AXcfQxe1Rw4KchERjkktCJE6/yKos9JakESgTBLLe3S416sMbN812mrttgi0Ap4IQ2uw/fCnGg9SEYFGgM+ID50mZj2/lk81FIFWwKdHhkSzMZStO0+yVwRaIPw0ELLkQ4KL5Lbs+wgoikALhLdjhhZz2aEHGOCtVUmKQBOqL8hS69FNIlAB6st7bagzEWiBIFK9n0Cgr45sffiDCJTwonxN8tDCLnuiTq6hTyLQxKB6EXsGUiBpMI6xVfpOxsEeQh2lyi34vT8ApWX3fREEgiTktUhiUopBcA9bZt2SC7vIi5GEDUlRzkAj2BgrYONa5NZEoApBucQYWXRc8tTR3kOz+Eg3pTIqj+HEJAkSic2lXprie//vobQUlQch1ylM81IulHPUWji2OAIR/SUHhTGMBwUBIARqzUsDSjdsyQabHVM9vC9WtI/tZN9PzTNlsSReY8eDtxSZXrQXhjSITb3ArvFeGa/zqgwpg/2DAW0lThj+SdwI6RaTTpC6BRd/sQSCFF6a4Gn5ikF+jnVRoPJCVwf/7Ut5IM1iRfV8Lme/i0CVgQ33G0pxfEwi+MgyhrM/88IfAhMrHkNK4dZ724i4kQhUGfycQaRJyrjl99hPGMDEgWLpDO/x9bnu2D/We6s92LhIAtmD7YjpbOoZ2ew7a9XcQq7HjB/soNJbl0WgBNjkTZoHLWz6opaTFEWggkBHKxIN+6b17LsIJIhAgggkiECCIAIJIpAgAgkikCACCYIIJIhAgggkiECCIAIJIpAgAgkikCCIQIIIJIhAgggkCCKQIAIJIpAgAgkLxn+josUPPjbrpQAAAABJRU5ErkJggg=='
p32
sS'version'
p33
VV6.0\u02b2
p34
sS'uni'
p35
V\U0001f424
p36
sS'desc'
p37
V\U0001f424 A small, yellow, baby chick (chicken). 
p38
sS'browser'
p39
V\U0001f424
p40
sS'annotations'
p41
(lp42
Vanimal
p43
aVbaby
p44
aVchick
p45
aVnature
p46
asS'wind'
p47
S'data:image/png;base64,iVBORw0KGgoAAAANSUhEUgAAAEgAAABICAYAAABV7bNHAAAAAXNSR0IArs4c6QAAAARnQU1BAACxjwv8YQUAAAPrSURBVHhe7Zo9TBRREMdnlqvsNNYaKz+h0AiKWhg/KoiWUhptLLQw8SNqNDGamBgtJIZCaAUrIViaYOMHEAvvjMRY+FFa2GkFO868ncNDD3b37du9PXy/5NiZd8fd7n/nzbyPBY/H4/F4PB6Px+PxeDwez38F6tE5YXX3XkDcD4SbAWkjEKzRtxrAOX7vJxJMYdfMuDaWCucChbU9p4HCk4jYq02JIIDPQDTNJ/SkTGI5E4je79pA1DGCgIe1yRoCqvKfyaBr5po2tQwnAlG1+zhHwAhHzTptcoIRCoLBoPPNsDYVTmaB8hKnESIaw2DhEu54+02bCiOTQFG3qrzgL9mkTbkhOQqJzhedn6wEMokYwrVsHnWRc5LCkfSDD0NF5qZEAoXV7lt8OMivLXFdiS/iFR+mAIMvXM0O8edPRO+4g3/jdlEiJY4gFullXOnmpPo86Jw5oq5Bog2BHqnrjKJECvQYCyfJgaiqrADRdbUWkQoU+38W8M26qpGdK8kF4gqCuNC/0sUGXbOv1VwK4axaTilCpMQCCXEiSVVTcykI69XKgzMy1FDbOakEEnQs8j3ylkJh5Z8uZkQjOqCuc6RoEOL9ZW9ORlILZGg68ZSThVNhtWe4frKSoHn6MSkXYT6QEzIOk2mOuk6xGwclqGitgLv+Ra6id9V1gl0ElRWCy0m6mnwmad5aVQKZfESVB+ouIoKEte4LHPmjfHwHVPlKaAa+sdh2sVE+GecjZFdIV1NjJ1/hNp4OdRm/AaKwd9lhSQOWAvUMS0JWt+2Q6RCPwvepuyJ2XQzpo1rtCULiFQErgZDgk5pthyybpKl0dgKVdIE9EUSP1UqEdRXTZY22wkRPyhWADGUe59RoH1JGj2AtEAI9U7MtkAm2zfqRvUCchyRk1W0DgkE1UpGhiwk0qUap4Xw5Zrt1lEkgxIV7/OOykF5apGvJlpG6qckmkFkbwqfqlg65eTxmu5FlPy1jF2N5gvmbJY6ioaxjtuwCyd1BuKNuaTB5x8Guh9VktRlhrWecv+yYui2Fq+tE0DntZJ06cwTVQZw/t9xifpG4FEdwJ1DMjkcRROXcnTiCM4GEVokkRYJfstM6oE3OcCqQ8EckmNCmXGFheNJMfS4ScjOcJelmRE+B0BX+EeePx5hpDk8+8xKmTq4C1THbwwj9zdaG01KUMHUKEahO9DQa9rG1Nc2+mslpBB/4ZAt/wLNQgf4melS4YztbZ+vRZSLETIKDmvitfD5RaKlAdRp3aiXpcvdJtONQBM6r2GrDCxSDFygGL1AMXqAYyiEQwi+1SkcpBEKChzLhVHdKjx6Px+PxeDyelgHwG6A0lVLU7UrKAAAAAElFTkSuQmCC'
p48
sS'andr'
p49
S'data:image/png;base64,iVBORw0KGgoAAAANSUhEUgAAAEgAAABECAMAAAAV8YMOAAAABGdBTUEAALGPC/xhBQAAAAFzUkdCAK7OHOkAAAMAUExURUxpcfzCG/zCG/zCG/zCG/zCG/zCG/zCG/zCG/zCG/zCG/zCG/zCG/zCG/zCG/zCG/zCG/3GGvzCG/zCG/zCG/zCG/zCG/zCG/zCG/zCG/zCG/zCG/zCG/zCG/zCG/y/HPzCG/zCG/zCG/zCG/zCG/zCG/zCG/zCG/zCG/zCG/zCG/zCG/zCG/zCG/zCG/zCG/zCG/zCG/zCG/zCG/zCG/zCG/zCG/zCG/zCG/zCG/zCG/eTKfzCG/zCG/zCG/zCG/zCG/zCG/zCG/zCG/zCG/zCG/zCG/zCG/zCG/zCG/zCG/zCG/zCG/zCG/zCG/zCG/zCG/zCG/zCG/zCG/zCG/zCG/zCG/zCG/zCG/zCG/zCG/zCG/zCG/zCG/zCG/zCG/eTKfeTKfeTKfzCG/eTKfeTKfzCG/zCG/zCG/zCG/zCG/zCG/zCG/zCG/zCG/zCG/zCG/zCG/zCG/zCG/zCG/zCG/zCG/zCG/zCG/eTKfeSKfu1H/zCG/y/HPeTKfzCG/eSKfiiJPu7HfzCG/eXKPeTKfeTKfeTKfeTKfeTKfeTKfeTKfeTKfeTKfeTKfeTKfeTKfeTKfeTKfzCG/zCG/3DG//EG/eTKf3CG/7EG/7DG/zCGzEwLyssLy0uLy0tLywtL//FGy8vL/C5HOWyHfrAG/vBG2NVKvzDG/eVKPG6HPi/G9SlHykrL11QKrWPIjMyLzQyLqiGI4lwJnBeKb+WIfS8HPe/Gzk2Lu23HM6hH0Q+LYVtJ3diKNeoH1ZLK/W9HGFSKkM9LUpCLFlNKzc0LkhALLKMIvO7HJF0JquII62JIzs3LkA7LeSxHey2Hb6WIcabIK6KI39oJ2ZWKo1yJsKYIaGBJMidIE9GLN+tHtqqHuq1HT46LdioHk5FLJx9JDUzLqOCJFFILKSDJMecINOlH/mkJPqvIfu0H/u3HvqyIPmpIoRsJ9CjH2xbKbaQIruUIZV4JXRhKOGvHoFqJ6WEIzk3LsqeIINrJ5h6JU1ELHxmKJx+JLCLItmpHtn8hvYAAACUdFJOUwDV5wPyYQsBCPsY8QX6+UWnAkL8HsAS84H9i0kHsjURCY8NXPej674Wqd3oYH54IDM8koN66RQbyOIZ+Ntu4XIn0DpLF/W5yk0j7cYhLlGV2SQ/18Mr6syYBJPmT3SbsQZYG6vOpLZqza7CN2OIMXwwOLRIh2hmZZ0scCJp/ODU/cT0VKyCMSMUDB4B7Yk75VKmuVK2tcr/AAAEqklEQVRYw+2YZ1QTWRTHQQkhJoZAKKGsSDN0UOpSsoqEal97RNeuq9t7Zatur2+GJCc9hChKr0vvWMFesSvbe+87ySQIk8nkRT/tOf6/5Jwpv7nvtndfHBzu6I7I5BKQ6hEbm5w09XYgznNpD4Tyi0SRkREpnGi/pFvEBM3bKmKDm2LmJDw80X7MRPc1ToAoQeCDdHvNKZwAyCSITrXPO4EhgFxc/nQ7OCsKrXEwLfCDX96qREChBVNgOTNnAUo9OgmO47+cmgMYK4OgQK7TbIBASOEKmKIINzyLoBLEOmnpKgjQdINB4sGD32kpSI5xNjluKw32lJxQVH29T2ydtHiJLdBzRdhjaI1Mozj0DUrhp8VzqSj3PfPsyy9gT6n3yzUa2VE1lceXubpZoby9bu3GF1/61PAQekCmUBzeK6GMnSghjAzz5nvvbkgrLi7+yhizkm+rm/Z32sonfnCqwSrn1CWZef4mzlsfvlNs1Ge7cFJl/T4E2EyoLYGbn49f77iUKQg0mbfzozQc9KURhOURShYzMUKkc7n4r4+vqeu98cHG9zHO7s93UVhQ+slPww2djXt0ulIxgqolY791r8doyHa8viFt9xcUIKTseM/Zjoq6H1trT/59daB+RCu9icpfNMbj69a+9gqVT3TNtRXdMpVcLi+Xy1VV3fqBztGlej82LngB1C1EKta2nzrww891XR1n+6+oVH2XdeZbkY+MA03NthEosQSVAJ2ucWiwvbJLpuw/L7XwEV77awCcxIgU/bdHIas019Em1jgQazWAV6depbhutihmfCun8+A5Ym2vSvOPqY4mEDs5DR4kGelWNp0xLY3jQgC5M6FByFWN6togHn/v2cTiTS6C5mhPKJXHTeHnOFts+qGwIOlAn6LpFO4iUaZlPwlmkHycZCeQjFxTKNsajDXCiCaZUxamW4bn+4NlhCaHIM29CmXHRTz42Vlk3X+G5SJ+OdQ2okMRc4UiUunw9R6F8tJR3FAB+WAxRWRZ9X9caPn9SElDqVqNqlGdtv10RZVSU3ED5zBp5GMFy9IkZE+9vqrvz7qTp49V1lxu1bfIVMoLrefwdbHjXawNEY4kIRo61lUtLy+XXdFgTUQua/nrRiPO8Xk6wNqmRA8mSUpEOnSkVn/pcLXs1/7etpqLjab26MOhmOFY8QxAmgNl5/b+dqb5/LBOYu6yk0MpZ8GA5QzyZJaimLPHJJW3rxf1xu01IwQmudNpLjbH2ntENjFCThzEdOPmymdTYtj3B8MNbg6TMooYVjHe/O1Z8GPynAxPJ3JOdq6XfScAL3fepoixdnHZgoJ8AAoyb+GM9HE+EK7n3IUpfD6P5j4zbHYOABG0ILtJ27kgJcmBjsl8JW+rDxCGb7PzgMMKBYzNhHc8CrBVbvGwD5SXDmYlEy/6kvZ7K76JevxVQx0VsgGPuIgsTwyUCHkmmccEwhxebsbdYNo24jd8J2Og1c5woBhjuJ2wV/iEALFihNidlIWQvskdbUq+ZIeVRD9YJ/tHeeIoHxqh7z1ksPQJOw7KXq7zl2Esz1jirh4BmAn+doWeHrboqag5FlfjnvS7rT8U/o/6Dz16x78SdLsUAAAAAElFTkSuQmCC'
p50
sb.