ccopy_reg
_reconstructor
p0
(cemoji
Emoji
p1
c__builtin__
object
p2
Ntp3
Rp4
(dp5
S'emojipedia_url'
p6
Vhttp://emojipedia.org/hibiscus/
p7
sS'index'
p8
V302
p9
sS'code'
p10
VU+1F33A
p11
sS'apple'
p12
S'data:image/png;base64,iVBORw0KGgoAAAANSUhEUgAAAEAAAABACAYAAACqaXHeAAAf80lEQVR4Ae3YeYxl2X3Y9+/vLHd7W63dXT3TPT0LOeRwaI5GpExttERpGEqMExnOgsSGYSVIoCB24KyWkShSaMR/GEaS/2Ihli1HiRM7SCwxJh3LiWlREWdIWaS4zIicfellurq2t931nPNLUQ9wGgPOQklA/og/wBd1cdFA1T33LO81///2z/wzwh+wP3HleyWl8HBli+/GuodH4t6bi+4U4sbJumEdh+NF6P5JTP1TIaV/DAz8f0j+xL0f5g+CGPtAYfy/vuOKT+y77LGdclZslTtkxqChRVPEuJKgiXVfc9iccL1ZfOlIh/8Y+Ee8wRC7rbG4h9bo1p6fNoOG1VlsXwVO+QPkknX8fnT9qqyM/88eGV/+M/dN9qdbrmBkYFxMGY12sSroUEMakKxkiJF1v2Jvadh37vGX+vbTL3TLjwG/DnDaL2TLjX/6Wr71U9vGXB3nU6zL6VJgEdrXTrvlNxcx/sOg6dPA0/w+uUIcv1cnw/LSZVf+j49NL370/t37uDDZpzIelwayvCAb7SDAUAuiA6aYkjQx7gpGJHIi4nwxT/0ngR8GiLH4y9+zdfk/umgsuUaq0S5VsYuK0nSrK+tufWWp/OhxX3/yteb0c8dD/fNBwq8Agd8DF0zk92I1NPe8q9z59KPl+AP3T/a5Z/cyVbmFRWFocFmJywtEBKGHdoWxBrUZVkDilBhqWhHuC9Pv/eL8+uVVX1/4/q2r/+H95Yxda8lFGc0uUVX7pBTom4JmtEW0GfXQ5w+1iyduNqdPvLC+/flb7eIvAZ/mO+QM37mjbrn36OTSpz60feUDe07YzyvGZUUxHkMcUBNwWY4d5QgGYyNRImIF8RmBQOyEUVGyLXA5hvzKMH0MX/4L92eV7Bdjpt5hY6Aqp+RlAaHHaUaZbWNdSUwDO92Y3ZVjT8L3vZDS3/tGffaLjXN/Dpi/8xnAd2benfkHRvu/9If3rz1+besilSTy0ONNwBUZkhwxtRiJWG8QYzGmwIQG1YRkFlWHtUJ23rQouJBGXBlGf3ySm4/vlyWzsqA0Bk0GX+RkuSNpD0WJqWZYlxFSi9EaUqB1lqvjGaO8+tMvNKv3HMbmjwJHvAPOivCdmIr7uQ/v3vPxqzsX2Jvs4kik+hgZaqyNmLJCZEC6BqMDJs9RHVCnoIJYgczhvCNYyMQy9Z4refUTW67YmfmMwgreCJIV5EWJ85YYwJRbuGKESoRVQ9ecIkXOxfE1LiRh3tXszI8+/MXTV//WndB8Ahh4Gw5R3qllt/zIh2f7f/6SE3YKTzWq8Cajt4q2S2gX2PEYa6cko4j2iFOkcJjOoX0HMiAm4ZycZ8hipHCGg7LYyY2nsBbvwJGw+RhfeEwKSOYx4zHiLWm9ol+doGXOdn4Rl4+JYWDULjAOmlQ/8RtHr/4F4JO8DZer8k4cDrV/eLz3Xz+8e4+dVRW2W+JkHz/dxleefi6kfoWVCJlAbzFikG4NVnDViGGokWGNiEXoMRLxDrKg5IbzEpm3+PNsSrjMYi2IJvAOk3uIPWF9BoVjMtnHFxOiUWJXo3h2asMlb3kwr/7C0+3yV4Cv8BZcq5F3ovLuX33v7sHj9+5eZq8ocRrQ+gyZTXBbM1zh0fWK+ctf4vpXfglvDJfe+8e58c3PsFof88AH/xTbuw8S6xXi/GZ2aEAwGEkYIg4lyzzeAiRM5jAWSJsBMFZJTY06yLYukI23QRTamtStNn8PiZ3pNg+KFEdH+peAT/AW3MV8zNt5dnHdPlRt/dmLhWc6KRiNd7Ei0NWksyPUG0w1wvpdvvKFX2Bx/Xl2K/jK5/4rrjcdr9dwaD/FJ574D4g6QIwQB0gBRNAYkBSwxuOsILFFxGC9Q3RAJWGKDJHNtdvaxo1n4B1pOSctTohxwIwnTEZT8j4g2RGnYfjxL57c/CHgH/Mm3FnqeTsppfdtIY/L6hS7miKjCj+7iE0T0nrO+vVXiEZxk11GO9foqy9ijTKuLtPJmn605p57HgMGJF+jQwUaEQYkgmgPacAYj9GExoAtRjhnIbabk8QKGloks/hqjJQerWtSu0LGJbndIccSU8B2a2bScLAeMzsz/95bDsDMGN6OjrYf25lsO3GOenFKlsAh+Ev3YIo95jeX3Lz5Asm8SFDDsR3RtDWP/OEf4ccuQPv817jy2CV0/wbiDjBpiXx9gMWAEtHYQ+qxZIgOCBErCUktAOIn0K8hJcxoihQe+hZtaqQakZUjEEcMA9onXDeQ9z3jNHDB+4/9Tr28BrzMt+GOh5a3s51V5Xg0YXt2gWo0RjXQHR1ihh63s4stM3rrOF2e8MwLX+T48IQiA3/86/yRP/pulq/NWfS/wuRd34XceATFwPoVxAu0PYQGSQMSB0waEAPogLZLpJwgVmDoQCziDIQObVq0zHHlCLxHJSKdwnxFWCxQIlU15eK4HT3ftx8H/irfhvPO83aOmsVr81XByhfsViOK0TbWWIauId28gc0t41HJqs/RbMKLA+yPoXp/T9Cv4x4pcO/Zoz26QbH3t+CbFzH3vwdzeBO7OiFer9EYIPWQOgweiQE0YUQ3+0DoIS8gRbQZUGcxVYUUGWoV6h6dz4nNGoqS8rwtV7HXDUyWJz/4pgMw8QVv57CZf/a59eI3d13+oRyga5hu7ZNP9oj9ku7kFl19Sj/UvPvgfqZlwVahXLg6pS2PcT/ssNVHWP781xju/x2ymx73vQl3b0/zv5+RiBATpB4JHeKBZDazIvRQR1QMYsfQD4goUhbgHRDhdE04WxBSgMmMTC2hH8iHQJbnTPPi3bfblQUib+AaDbydy5Pd5na9/FOvpvCr22KvlDFhFnOsGNx4ihYL6uMb9PWSaZ7z/u0rdHScvHBCfiEjvx7w2W9Q/nBHuN2xbp6hfOYQ+3APJicFRfS80KFDjQjnGRhaVARcjhltAQKhh6ICb8EoOq+JdYeWBdZ6jDGEbiCFQDIgotiUdiXGHKh5Aycx8k7s59U3bq7XH75Y9f/zzmjrB3tjWK8WjOJAUU64fOEK48UJIxF8itTSM39OWD7Qcvi0ZyqHTEpLce822QdWpN1buO2K0b+8w8nP1+iwhsxv1rcxIAbtapIqxuWgCl0LWQHWwBDQZUsKCaoKmxcoiSEOpNiRGAj1mm6xoO26ph9C4Ntw/RB4M3UXrk796N+obPZIIVYuZOWtblH/5pE5u28027lqnUHWa3xj2c4rtncLvCgy9KzmBucbOFtQ/aGI39sizj/E+iuHFPsvcPqrpxTfs6a40BJTh4kDGjqSGBJCUgGxGJtB6KGp0XIMAG23eXgMVCWUGckose2J8zXDck5zdsrZ6RHzIbJAni7zUc+34cp8xLdz8+TOx98z3vubV8vtC1NfUJ6XWU8hQhFJw1kNRukNeAelN+TOkSRhiYy9xdQTVk9fJP2hXfrpF3DvusHoux9HXjjFPtVw9tSKYfESTS2UmhN7S0Qx+q1AXAZxIHUNIg4GjyZBbYS8gDJDMyG1HbEZGBZrusWSOjSc1jWHQ+KOwmDML/Am3GAMb3R4cvTog+X2374vH033Xca2K5jkFXk5wVmLqBoTezR0hK6mrRsa7fFOKb2ldIJLA7aPjLuGYRURlFufe5Jsq+FgBuPvXtH/puPWzYDmkSKDIQiGtHl4Y5AhR9oaMIjxkAxkAlWGktC6IZ4EYlCGEOlCoBVYROXOMPBq1+pz65P/1Br3D3gTzhrHG13Ot/7KYzv3Ti9XEyZ+RGYNloRPAxkJawWXOVImJCcMPQxdpO+WnC7XzCVSeENlBXPY0N98jnC4JO4Znn3mS7zygvAAFbq2lHniNA4MqacLgqieBxiH2AYVh4hBVKAwmxkQlCSOlCxRznNus3Sco+t6TromvlTPf/13Frc/acR8lrfgjBjudvvk9g98ZPeBj9073ePyeIcqG2G9J6WeMLRo7H63GHqMRrwozhsy8eSS0dPTtg2LdsWJDngLpVGapwwvJeV3mkjWwVaVmGZKYQSJhrN+wPnNaQCyme7icFgkCRIEDQZcIvlvVZCsJ8RAGBqGpHR9z3G7bK8fXf+l4+Xp31gujw7rGLeAM96Eu310m7vNMv9vXx5PZHs6oawm5HmB8wXWOEQTGntSv2ZoFoRmjvYrJPZ4jVgjWG9w6vB41n3HultzEjoUJUUlNAN3+oGzMqdUg0EpxXAUoDAdEUXFwNChxhGwECD2kaFpCGKJahmi0oZAUEAFcKgKIYV8K4Q/baT8t8bjS3qahtdu9ev/qxnqnwFu8AauMMIGrIbV9JLd/9Eq9ZQ64E3EunRexHqLsR5RC52hyDypyAltRmwW5w0kjUBCRMECVhA1oDAf+vMG2hBYxMQ8RLZcJBfBn6cIt/rEQRZAejo1pGFg0DViHJBhbIYYTyJDbInPx4yyMS7LEVuQMISkspWCb2PkcmjlrF1c3Rf5yaf79oO3YvejwCF3ccsw3LUh+O/aKUcHzhpCWNGvgaFEsxxx52UesRbtewgNogPeWVyWE1NB0A7TCQNK0kgg4onkkqgMjAxApE7KMkXa84yxKEouwo1eMPTkISK05CajcCWlq8hchrEW4wucn+Dz87IRGEdCUBHEOmJM2KFHU0+KHQWRyhouF5P3n7XpPwf+DHdxpfVsgHW8//L0Avs7B4yqMdY6jHeIy4kaSaHFRJCkCBFhgBSAgIjinCDBotaQDDgBK2ABD4zNJhVYhsQ6RlQBgaBKm5SjIXLglZGz5xlKZ8mdIfMe6wt8PsJmFWosmgaGFBhEiBLQ1KMYos/w3iNpTKbKdoxsrefI8s6ffL45+S+BW2zgcp+zAbmNHxiVBaPJlPF4F5+XOO+x54kRSBHRhMQAQwv9GtoVqRVUAkk7xHmIDombn6IOVXteoE1CaQSDMo+RoyEysgmDsIiReUyURimMoTRynqH4Vs7jvcU6izGCEFEUfEaWTzHlBHwBxoP1iDgUJaZIGHqafo14z3FsZi918x8C/qe7jkHLBpTaXzOxxdKDi5jSYgqPeI+xBgOQIrQdmIBGUBIiCYzBGAvWgLVgHelbpc0at+eJQG4EK8qzXcuAsmstIJzFSNKBkQEBjGyy5v+9dsZgrEN8Ab5CzrNZtlmaPkecR8WQwkAYBkQ3We0pTWRswRM/yN0D4IlsgBep+m5NvzhmIOF0wDKFlKEiaFIIAW1bGDokRvDZP/1FKWaIZpjoMcFhjAACgAJGDDNruOQML/cDX60DE2OpjDkv8e5C2HU5lbVkxmK/lbjN2jfnOUeWZZiyQrIxmo/B5ygCRFKIxBgImjZvP3QMQ0vXrRm6FRoaXOzfxV2ciz0bUI1nNisnkFcEEfr1HO2bzTGY5RhrEXOetRhbIqLIsEZTiwZBBATYXIAKKAYVA+d5sZTG8WCuzKywiEogUYly0RsOvKeylspZRi6jdDl5VpBlFSYfY3wO1iCiGCeYqkSyCrUefA4+IyEokJIS2o6uXmLqBZ3NKfuWcV7tchd3foMNSNZEX07IJ3sUo/Fm/TuL9Rm2zDHeY6ywWQYNnJ2Q6hXadxAVFQvngaB6nljEekzKsCZSp4gTy9VcuOwTA4ogCODEYhASghGDMw7nMpzPsTb73WuTl5CNUZ+RUGiXMHSoz5A4wshmSSRrEHdeWSCFw+Y50Tpm9Zrc38m5i8t9yQacDes7QQIpN9hxiasqXJFjC49xBhToB1gFdFWjfYRihMly6GoSEWKHdo5kM8QVSAiICSxCCxi2nCETRTShgBEhnRdV6JIQECKWiCCbfQXjMzZrPMNkGVJO0WKEGoeKQ3wGxhKGDm3XpL5FUw/Oo3mBZh7JLOINIhK5ixMRYOPO8uwL8+PDf7GZbRPKAmsSiR5pLYSEqEERACQrN29EB2iWm1ngPAlDsjniI8SBZDPOmgbFMXOCM4pDERKgGGSzcanQIzQJonjEZiSxYDeJ80hebN62KGItmxlRwGgEWYamzTfDfnVGvzhiOLsDYYC8JFpHkEiS1HEXlyQBG8vY/YPXzo7/4sH1V2257hgVFd7nuDzH5iVutnPeBFNYCAEWa3TVoH0C60nJEI2DfITGQBTHfFBCskx9gSfiRM5TVCNCwrDZIwKCV8EmYThPXAHnJePBF6h151lsWYEvUQENPaginCcVUlXYyYxiNsbNtmlPj1gd36KbH9N2LcPQU6fhDndxdRqAjYd37v3SjRB+7RT70W1jyYoxthwj0yl2toWbjjCZgVWDLnp00H/631N61pGSQfMJqhAxLIZEGxLTYoTXAUfaHImAajwvYMSgGCIQsDgV1iHSRMNo84UHFQNZiboM1bQ5BaoJKhZVSDHCukaaDqkKtCwwk4LcHUBWkozj5OaLrObH1EP7PHdx5ze421z5KyfiPnq13MFtH5BNp/hpia1yVCCdtGg9IFmBjDdLIN3pCE0i+hJNlpBWrAelHiKjYkwhbI5U0c3xppsZcB4oIIYAGFWMOHBKmxK9OJyviMZvNsFyTBIP3YAZKTKrEF9AgtQPaNMQlzXMlzAao0WOKUqK6T6c3mEeb9AO7XPcxbVvGIAc/v5zZ0efeWD/vh/fSYFCEqHv0TZgWgUFMy6RkSMNLen1FeFoRbIFOE9YDTR9YtE25HlFaQWfAs5UONHzBAOIJlIcUE0gm82OMCAIZA4dAutBKWcVKauICYzPMeUMDYm0ajEuh60MJiUmjdDRGF3XhPkcTpfoJJCsIRpD8hWNKxWbfZm7OGzGGz3TvvLTj63v/+hBs1f0cUmKDpvlm5Nhq4TKk9YN8eac2EV0PAMJhNWcdj2wqJdY56nyEZlGnCreWqwoRsCownk2DiRNKIqxHpLC0AGGIquo+0CnBusrgnhMMyBTj4wqNEZiGzFHayQZ2PaIy7HWoWLpwynxeE4qPF3sWcXEadJno3Nf5y4uOscbfXX69fumJ7hH7SXqMpJNZhSTDDsqUG8YTmv09QUqFmZTNPQMpyd0y5ZluyZJYjTeIjO6eXjn8YAxghEBjYgqGgcE0JRIkshMBkMgdWu8WLI8o+4Gyq0C9cVmc1z3uK1dTFagUUl1jxy3iHjYGaGAhBIZ9QzrFf2dE85Sx+31nNe7+q9Xtui4izu/wd1+bfqUG2f+Z7+cPe3+7/g1ftz9CKnMiM4wDD3xeoeerNE8x1QZaVEzrGv6PtCFgRCWlKMJmXe4FPEux2cZJiWsMYgAKJIiGgYwQooJYkAN+DIjNiWpWZEZoUmbjbSsKrAZoTfIOmAnHrE55IG06uC4gXpAZwXJAJknZSPm4Zgbt2/y/OLwxY7087yB60jcTWv/0dl4/MHqkvDL4de4Xx7g0eH9tKsGdyfAskZGI2yWwaJhaDqCKNEY2u6EvMjJywIXEzYb4asJzoLEiLEeISIYNA1IGFBjMSlC6Il9h3WefGtMshmpWeNEaNoaP/O4bEQUh8xbqHrMTg55ASYj6po0X8O8R7c9g0Z64CQEXmrW+vL67M8KzHkDJ1G5W3Eh/Wu7VzJ2t8csVgN/9fB/46eGjPeme1h1Z0g5ITMGs6oJ6xbrLB2RF5ff4Co92WiGM4IxCTfewpYVEgZM4RBrIA7gMqRvIEUkKzczYehIviW1NSb35NM9kmxmRxMG2m6gKCz4HA0GPWxwJke2PBgLowpVIZyuiTdWNEXi9vKMV5Zznl4d/2zuys/wbbjclcDGk5ee3N65VP7YvY+OuHxtioSM6y8t+etP/x1+9PBxPuw+yNiNSXUg1i3Ge14KN/ibx5/iCQ54ZPYQzjlEwU7HuPEWRgQxAalGICBDD9aBOEgBxhOkD5gwYDWh8yNICVtW+BiJXYeNgbZeYYttcILNPBoEPW4xmQdn0QTJOnprWC9r7tw45sXmiN88fPEXMp//Rd6Ey3wObBgxPzDbzi9Odyp29qaMpmMOrl3k1oMLPv/013j2xiEf6r6L3WabdVzx28OzfGr+OR6IUz544ftR7zEItqhws31sOdq8/UyRyRg0QduDEXAeug4kgyJHhoDLMlSFuFwgxQibBMccnxLzdoltOjA5qfIYDHHZYVWRvQqNytD1rPqW15slzx3f4LdOX/7FpTY/xVtw89AAGz6zPzLbK5jNKsqypMwL3KhgMppyYX+PW7fO+PydJ4nrRLPqeOWbt5F5xk/sfAif54hxgMGMtnDjGZJ5JDgEC1UFKYHxYAwYYN2AseAd9D0UGUYhNgEjDltNkbrBeWiHNV9cPMUT5oexdIjPkAhye41d9sSZo2lb7pyc8uzp63zx7NVP1qn9ORDlLThVAeCrO1+Sict+sPAFuc9w1uNdRpbl4C15VrG9PaPvIqtFw63nj5mWexw9e8p9p1uEkHApopMJppqw2ZyAXtGyQKoShgTRQOHAG8CDEfAWkgXnkFkOq5ZUrzaDlo9Jy1MuuC2+MHyOG/WKf9P8K6QhEkgkBTnuMGeGtYs8f/rac18+fvE/8c7/8szNeDtuls8AEMt9o1H27oyCtChorcU2go4SLrdYb6jGntjX1Lc7DvbuZ7SzYPXyEblkxC5ixxVmNEOKCsTCkFB1UBSIz4AEmYBzkFmoLIhA5qADuojMCsz2HrEe0EEx4y3iuoZly2PVNf47+6t088gfqz7OntvHiNCagZvdK/zD0y/yVP3bL1Pxy7xD7svVkwD4Qh7dvjcb717LmN2TU2Ueo4Z+AX2MGAurxZzFSc/Fg2tUFxPt9WOaPHCmHVOdoq5EbI4aS4ogHUhZYIsCrIOYwCjkGTgLBkgRvEfHIzit0QAyGaPFmLg4hdkIO5rRLDv22zH3ji/xwrVn+BvFde6tr+DUcRxOeLV9naWuKDp94uRW/18AP8s74OqqBqBw+feNZyWT7RGTvYLxqCRzBYIjNMqt5465/VzLAw+/h+l9gT61TCYVfs/xW6+9yjX5IEksMQqxVySm88D4DLUOxUJUZDAgDkSgA3qFykCeoz6S2oQWHh2NCCfHxNMFmuXY6RaunrB7b8ajH72E95Z1c8zieMCuDe+b7GKLPY5utDz/22c/feul9d8GnuFtOIIDoNzxj4+nOeUo23yKcw6feYjCndsnxDbn/kcv4kZrxFoshvEs4+rVbb72+g3ed/wg70/79CFi+oAgwObfSQINihkgBQEFEwTtgVZhAHVCwqIhkpJCWRKLKf3J6wx5JMsnLMrAeGsbczLCb0f2pMQdGMYHDmyirQPO1ixeT9np9eG/bdrwBNDzFpxGg8XMMpO93waPtkKoleSVPvUcvjgnLSZce+QCq/qQUFvEnCdKVlouHkxYvrvnMze/wOTWjAeba/TSojHhxiV+SNAmjEmkZQBvkCQowACpTUifUDFoVGIdSSSiQspLGhXkZM3xLPBP7v06559RuOfKNuGk4OjFU8qLA0Od8CNFgsWHgv1LU9r3xY+8+MzZnwP+Mm/BZaVDAw9X4/xS5j2ptbSn0B6uOX5tzf6lq1x7bAZFDW3aPLxJGCJWlNGW5+q1HW7t3+F/cL/CJ258lMfvvJc+h1RlyDBALZjNdEe2ckxUpFe0DmjY3IdEjOfVAykkBhcJSXFmxqF5jU9d/j/h/shs4nHTltGW4PMRfmQJazj+6prF2YryonDwrgoyZX40/PuHr6z/e+B13oSLDeRT+4Gdg8Ls3l+yf39BagO3nqkZZQfc864tZLJEg2AsqFHEKqhiTMKXynhqedc9+5ii438pf5lvfP1ZPtZ8jEv1mMaskXWDawxmVOCjw7QDdAltWtQIDAMaIXY9Q9eR1gFxBhrla/4lPv2+/4Pyg5EHt+7BW4sxAm7AlIZk1+y9d0S1NeXolQys4fhwTn+q2MAlJP0M8O/yJhyS8M4/Wk5yRpOCetmxviXc98CDiOuI+RIrCkZBIiqCmIQQUI0Yn8AkRjPLfQ9NcPnAk8NTfPm5Z/kjJx/h0dP3Y6PDWk+1PaZKI5x3yDoST1aE3KGsQZWsF2QdqOszXh69xpPbT/GNyTfZe8Dz4MOXmLiMcBZJGhEjFDNHfSwMw0C+r5SLgB0Zip1tmrkhs2tSXH+Ut+BSNBi1DxEtp9dXOC156JEHmBwMHL+2RGwOBBRFZSCpnmdIv3sdSPTEFAjRYdzAbMdw9Z4Jr84X/LXXfpHp4f5Xv7/5oad2qws/trfauTIbTcjUwWJN0EQocvqjgaSxOe5vl9d5meeL51hdus3eIzkP7l6kMIZyYvAukBaWOAxQGlwV4QjqeUcxETCWw5eWaCasQ02fAuUo/3u8BVeOcojs3XnujGq4wgd+6ArFwZou9sQYCalDh4AmZUg9Qwj0QyTQEeNA37esVi3h2LGOK+bHa5anHWEp2CH/+8d6+pOfKv7u7e85+eemsnj1B5z1j/sg75PQM1hzJN6/bFRevq23vvpk/Ecfy3f05y7OdvYuFZ6dSUk5TegS+rYhnxoky2mWgbwSQuoJWOYvN/hxYHE78dozK9Z1y51b3WdPj5u/psS/w1uQH/zEw8Q+/MZ9Vy593yOP3cd9311QbkMcBpa3OrYOJmjeoUlZ3FnRzS3jS5Y+1oQhsFrWHL3cYQvLfH3C6WHHnVfrry8P038TTfhFIPIdWC26h8q8/PNbl+yfvPjerNi7UpFTMtqD3csVth7RnPVMLmaEFpoTz+3n1gwSWBzFZw5f6j/TD/3fBT7POyBP/EuP0C7tz+wfjD65s5+fb3rbFDNI/UB9GpnsFUTTEFNkfdIwrA35lqGLa4Yusl50nN3sTpO61xarxW91TfhMDPFXgQW/D806POYr/p2dg+yPbW2N9/MKtq8UeEqaO2DLRN8I67P06tEr4X9VCZ/1hf8ssOI7IP/8T76P9jTP1bRPEOxjs73qIV/pOIWYD7W2xdQNQbuQQlq3666Nre1NpXXS/jSldBxDuNUu06tZnt0Eav6ArbqTA2f8x4wxP1BMzIGzrg9rv0gyfMXn2W8Ysc8CZ/we/T+GTXmz5CA3RAAAAABJRU5ErkJggg=='
p13
sS'twit'
p14
S'data:image/png;base64,iVBORw0KGgoAAAANSUhEUgAAAEgAAABICAMAAABiM0N1AAABa1BMVEUAAAB3slV3slV3slV3slV3slV3slV3slV3slV3slXTrZ93slX0q7p3slX0q7r0q7r0q7p3slX0q7p3slV3slX0q7p3slX0q7r2sqR3slX0q7r0q7r0q7r0q7r/zE3/zE3/zE3/zE30q7r0q7r/zE3/zE3/zE30q7r0q7r/zE3/zE36vnz0q7rVraF3slW2r4iWsG5/slvdrKfsq7TFrpTNrZrkrK2HsWKesHW9ro6OsWimr3v0q7rqWW7ueIvzprXvgpT/zE2+GTHtboHzobHrXnPwjJ7saHzrY3jynKzwh5nyl6f8xGjxkaL1rbPufY/xorHSUGTZYnbiTWPUOVD5uYrBHTX+yFvnVWrtc4bFK0L3s5/+ylT6vITfcz/BIjrqkKDtman9xmHgdIf7wUvSUTrfb4LJKUD2sab1r6z3tZjfSV/7wHbMLUTcRVvPMUjXPVPaQVfGJTzEITnaZz34t5HCJDP6vn3niUPwy/jLAAAALXRSTlMAQICvv1AQACCf72Bg378gAI/fzzAw749QcM9wQIC/AN9g75/vII8QrzDPcFAe8ILbAAAD7UlEQVR4XrzW127bMBSA4TyAIAUCDBeO1aRyU6ppH+FQe3hm7tG99x6PX0lkKIvksZOb/neGgQ/ksUhr5X/WdxzPdJyHZHVBK6tLsgYuXGUaN4TubETR7c31MtKFVrZxA2hzK6raKp2ODXImuS50/27EurfecUHN7VwHIv1bG9FVD5iDSThEjB7Ar0h0uQ3aemQxZNQLeBQ1TUFfdxFEPKg7iuY6QiQLh0gPWNsn89JbdEkqJBzexTx0oh+Ti0IDrshTii5qIBiHo5bUR6A1mG8qQ2lGKQ3nIUcPWdDq3WUD1VsraNUMmjw9NIB274Xz+BkA5LRuCE2mFrJA7g93/sZ79YJY6TJoTYG2n1fMy1dxHO9CSnmTZZAJqvRxOv35Oy7bh5zyoMnuek5fgVzQthdXncMOdwqQsg0JkoU8HFfj2H1SS08TDo1BybQWQEE9Wz8A2K+hvSFzsgDU3D4O8Z1kI4Dzem/IgngGClEqpBdx1QGfEFIH+9WokFK2pEP+AcklDFIe7ERIBbyuoDfsfKB1BWS0oFEmpIQeV9IppcMA8MgVRNyWlCZUdFhBH6rVBZDmPvsmO8tb0Bp6aCeCOhVDSgqhM7epJyDLBamRzzf4iQ1JyYe5BCSmJBKXx+e4TAMNpfuyhFCJ1h2zIcllKsSyPAT6UkJfVegMgYgHCPSNTVtugkA9UGOH9UAL7YAechQlyAvK+h7/qE9bWDSTnoEesmQm9TPN7x3MQj9JklA5LgR7IMOMKgWA5oojot5saj4OefpDGwwFkM2SRsLPv4FfI82lGEzGOVcD/ELikN2ac+MknF6yOUd/1U6EI+4gzUMonX0dFGTNnS1BiXZjFgJBKDsgpp9ir7gCUv+PipFm/DuKY5cOCsEoDGeSzBrKzoBoXiLwcvXxtk0Ad9BHXmuwAvXycJEXrSX50rQxiB9avDSTZ2T+K5VeeiKEoSgAW8GeQWRBICToThezogOUGR5qYuIjuvL//xvlMekD7ozEs73ly+G2jLHL37hTgAsA2N6f29IgfaqbzISRYIKgtkR1enn9/tDknQn5PeT3Fa+f1iU3HBc95PVkUa5ypOEkmwHaiPVSZf3YACEcpb0FHE5Ate6EmCAejHBjfFrWtNTqjoMjhPhoN9VkyX0jxI5yDoXmRFxB8LVBl+f5eLAgKsnOchSEUCylk390FARvWSrnTlbbjoJoqWjt9TzqYw8wIVoSdSUpRqSYQ7SUbG8ebvvVZG1nMAHDMoRUAfazjZPZwOOgIDB13F6DLUUMoCFwx3aixZHrAych4CowHEfrz7xktMMYICEVX1FJCjOcMRuhISAO3aF/ykGFhv6fH5rih5dpsusVAAAAAElFTkSuQmCC'
p15
sS'gmail'
p16
S'data:image/png;base64,R0lGODlhDwAPALMPAP0CMqoBBcwBEOKgAIwABscKKZgxBXIAAOwnVv40aP9Qh/0SRbVYAvNEcOQEIQAAACH5BAEAAA8ALAAAAAAPAA8AAAR68BESRHgvaI2PGQQACIIjktfBDEwxOguSOJYUrEbhIEpD1wdH4WMgNBS/wAETAAwHBsQiQDgsMZICgWghYLGlmMGQANAuGBMgoSjwGiLHpQlYKBLadXmUESUWTn0xCwJ9UiIFGAIiC4lNgCJeEmpoFSSSHRNXHV+dGBEAOw=='
p17
sS'related_to'
p18
(lp19
V\U0001f490 Bouquet
p20
aV\U0001f338 Cherry Blossom
p21
aV\U0001f337 Tulip
p22
aV\U0001f340 Four Leaf Clover
p23
aV\U0001f339 Rose
p24
aV\U0001f33b Sunflower
p25
asS'name'
p26
Vhibiscus
p27
sS'known_as'
p28
(lp29
sS'default'
p30
Vemoji
p31
sS'bw'
p32
S'data:image/png;base64,iVBORw0KGgoAAAANSUhEUgAAAJAAAACQCAYAAADnRuK4AAALpUlEQVR42u2dLdQPTRjGnyAIgiAIgiAIgiAIgiAIgiAIgiAIgiAIzhEEQRAEQRAEQRAEQRAEQRAEQRAEQRAEQdj3/e0548wZM7vztTu7+7+uc+b4fPb/PDvX3vd1f8y9e50gFGBPt0AQgQQRSBCBBBFIEEQgQQQSRCBBBBIEEUgQgQQRSBCBBEEEEkQgQQQSRCBBEIEEEUgQgQQRSBCBBGFrBPr27Vv36NGj7vv371Wv+/v37+7du3f9tW/fvt1dvXq1X7du3eqePXvW/fz5U8zYAoHY3L29ve7hw4dVrvf169eeKAcOHOivG1oHDx7s7t692xNNWDGBPn/+3G8kv5ZuJtZmjDjuunTpkhiyRgJBFqzP8+fPux8/fvQbf+TIkWwS3b9/P4k49oK8ueTnZ7hw4UJ3/Pjx7ujRo925c+f6v8MSikAT4vXr1/3mQRxuNr/ft29f9+vXr+RroXX42lwCQb5U8uMmhz6Tn+vx48ci0FSANKdOneo3Anz58qUX1Kn48+dPd+zYsWzysK5du5b0mRcvXoy+Nu5ZBJoAREEvXrzoiQQJ0CKnT5/uPnz4kKx7SsjDMiSeylW+f/9eBKoNtAI3F93w8ePHvzf7+vXrSa4E3VRKoNjPhOxEb6nXx9LykIhAExDICGdu8qFDh7pXr15FX+Ply5fF5HE1EBvN94BbwzLdvHmze/LkSW8xsZK5n5Hyc4lAkU/zgwcPegFsu7WcHFLpMi4GDYYb9f2f/fv3Fwn1VJ0lAkVEYVidy5cv90+9EaYnT56MNvclFsEswm9AJrxUjI8trO3Zs2d7l/nmzRsRqAR2JINwtrVFbFmDzajlvmqQMXVh7XIiTxHof+C+cAmHDx/uE4n37t3rTpw40T+dsRbo/PnzRRvI57OBb9++nZ08axLYiy1loHnszDNahMx0rBZC5JZs3o0bN/rr8GsrArEgsAiUAciCC8EKoAmMSEUHxaBk4xHFxn3USAXUILIIlJkAJBdENd6+qTEgvC7dNDLgLcljxPWS3dgiCUR+xdYiCGlTSScyiwFfk7tpJC9BS/1jryUXXxdJIDaQsBnykM8xmeWhqIScEeTi686cOdML75zNonpuQMFzCQSq3VC3ExrIgAo80QhheciU00VYksizl52DoUOxNXl4IKSBCsW0uZn83gVPZ2qj2FAnok3SlMr6VAt3LgIVZqXNzcQ1uShpFhtyX2Dq7HNMLgohLwIV5oNs92QEbq18j73u3LkT/NwWq1Yv+E4TCGB5zE11ozBTuR9bZLIRxWgchLnP7dkNXugq33XIjvP9TJ0fssksAhXCjoZMiSGFQJCFkogNWiiGen/cUgiFVZrcjEZC3PN3du0Ka1hag+N79Wk9EagAhPD0A/m6BGNcGGTwAavk1p4Alsglj0tAYMjC92CL79zoje9z6ZpnlQQCV65c8ZYaMPW5bam+XBEkCiUWXW1G1OYr8GKdUsUy2fc1diauhkA8mbaoNQlGnyuKtUAx2WqI6wNWBrKFTorEkgdNtzars0oCAbsvB62AFYqJlkLJOFzj2Nf6zoXhzrhmaOM/ffoU3bCGhuNa1PzM2TFqcWtpKlsVgdgw3JebZIupvIfqST6XNZR3AoTXkCQEWlRrRGKQSXmgyrB7nbEebCRWaCzpF9JBQ5v99OnTf/4/OsWniYxFq5mXMt0IqoVVjshssvCUsql2z1BKc1bo7BiWLuUoNa7OjepqLXqgljoxZJXzgehOtG8w0VRMRAbxXFJQxY8pawwRmrB/6qy1+RlFoEqwcy1sHkTAEtlZa9/i69yQ27f5MWfXaVqbq2ORlMESx800JxARDYcAKYqSU0FD8CtPNX8/5P+xEnaJgWtxk0Pnt3wtG8AlnZvt9n3PLU5qLLE/uhmBEL9jUyxsnUN63020uee10ApYFPTCUHQF2eyozE0oQsAQIBbCdqynGstkZ89rLJ+o3zkCscFYmBzNYOpRrh6yQ3vIxmeMfQ4kMCEyZLKLq0N6w611Yb3MaDweCtfN8GdaUoj2SvuWdp5Apruw9Elk0+wEn90zZCyRsTBkm0MuDRKZ6xCa45ZoIgtFPGZWERYMwvjqY0PAepVEajtPoJq6AatDCG7AzbWtDZtsn61H95B4dN0KVgH9FVOHQoNAzpITo/a0kZwHB+tI+WYpYf1sBEKvTBHqUksyN9MlEb/3DcvEcmB5IASLTY2ZfsbX1dg4SFj6c/MgxBJ/EwRic6eKTnBFprTA0+lqDf6dz88ZkTcFamarsUqprnSVBHJ7bGovSEPYb9wELsyXS8GNoYtaPrlYza2coZ+NQLnntFIXROVm8lQOnaqATLgSoioWm0qkxNeTIIRkU+gMyJ0zyWxstRraORuBELFzJdxIMJrNz5kP7eaEfDqK62PxqMzTDYBbopRCdAZJ7P+P/iOPFTPkfG3nx2YjEFZhzkEF5IxMiE6+J7b5PraxjJ+ndIRM7dVintCsYTxJwCkiMSISXBCC0k4q8rTbiUesIJue8z34zuQjyltP72hd6pg9E43Z9wncEs3jC9NJLuJasDxsvh2BEbH5ckJDAj20OaFqfovVItHYpBbGhtfo2gv1K6cA94Y+oRwB0YyoxlJBQDTO2HSMWgM9RaBIYCFqRCJLeV1ArZnUpcukMTZPoFpP7JJeFYDWkgaaCbU0EIXJ3AQaEQuua6g5PhWthzG06J2enUC1x8alTG41Atr0IeF2cl/n1CLbPrTQbZvOA00ZtRC+25X3UCLTDuHJEw0dmSFz7us/mvPhWEOrxyYIZLdwkIUmI4w1ILLiz24HIbWjoQKk3W+d+hoCOw811+Lna9XeMTuB0B4tdQJWaKwqb5cbzMCFWNQ+2hOT7Sbn1QpNRPRYT/GUk9/HyIMmchvsU9pAarxiwbaopAhCJ02WMAqmCYGm7A0aithi+mZ84XiK0K5pgcii2xl8Ep24ZBKc5MCW8C6NZqcyyAXNNUIOixd7s32HE1Oe8pplmiX2QC+GQEZQ5xY3UxrNUiyIfdYs9bWXNQMEIsA1zAtaxMlUcjO8ocfUokjI2UIWgmFF0DBsMIVQIqUY4nHdFIT0xliaANQ8NNBSGK+OQDmRXIwQp96W2gcdckEkHYc0FL3YY4Tm2vZcxS28wXB1BCLfEbMJYydMgzdkREuhh9xuQ5KOsfkfuhXRWSGyxaQZRKAZyGMazezNRlMg3kNDCmJzVLhXyJRzdNm4VD6LYzm4Pdw2ERdEXOIAhU0QaCgfEtvyYWYBhfp73BOuUyw7NN8CVkOg3BfIYS14snnajcUI1cBqvjZh6ETtUodFbZZAMdPHct/IY2NsLEytlVKgFYEqoPbpB9/YX3eM8JTLHXIlAk2MKc5S2d17iOuaNaw5erlFoEiQe5nqIB7hNFHZ3J2ErZq/dpJAsUO717REoBlBFVoEEoGyUfL25aUuaaAZgcBtfdph196DurkojIhpqqkWLdaaXii3mUw0PT305dQeneu2r9YYAjq21vx6p9USyICaGL05nFmvMTrXfU/p1APEccdrfLHcZgg0VfaYXmbaKKZOKK7hTcw7QyDEaK22V3PEuXQQ1VgJZW3tGpsmUK3jQcxENKg1QdW8jdCMiqFBfkuuaxMEqnEK1H2twRYnh4hAAZS2X/jG1mGN1jqrRwRKBO2hJS0VPj1Cq2kNYV5zbIwINGFIn/PagDH3UqqDUl+XKQI1BBYjttTBsZoY10LLaYlAJyWwK9jbwg/BhjNoKiSqOR+G1Uk5LkPjfW7WGyEuAq0QNJ8xKZ7ICsKgkcha57oTznClkoic0pJf0y0CzQwImDJR1s4piUDCX3c2lqEmcrNfgCcCCf+A40C8Acicn0dzkYsiJbArYbsIJIhAgggkiECCIAIJIpAgAgkikCACCYIIJIhAgggkiECCIAIJIpAgAgkikCCIQIIIJIhAgggkCCKQIAIJIpAgAgkikCCIQIIIJIhAgggkCCKQIAIJIpCwcfwHsr8o10jij0MAAAAASUVORK5CYII='
p33
sS'version'
p34
VV6.0\u02b2
p35
sS'uni'
p36
V\U0001f33a
p37
sS'desc'
p38
V\U0001f33a A hibiscus emoji, a pretty flower that can be used to attract butterflies and bees. 
p39
sS'browser'
p40
V\U0001f33a
p41
sS'annotations'
p42
(lp43
Vflower
p44
aVhibiscus
p45
aVnature
p46
aVplant
p47
asS'wind'
p48
S'data:image/png;base64,iVBORw0KGgoAAAANSUhEUgAAAEgAAABICAYAAABV7bNHAAAAAXNSR0IArs4c6QAAAARnQU1BAACxjwv8YQUAAAYcSURBVHhe7ZtNiFxFEIC7+93MYT0YIqgIXoy5KLgIetCLIIrOEFxYMEQFk514WjCngII3T1myJ3c2FzV4SDDIjsE/lKAHc1FQ0fiDBIUI/h0chT35uq2qV2/2zTg/r7p7XhLpD2anqt/89KtXXV1Vb1YlEolEIpFIJBKJRCKRuMbQ/HxFsM+eu0PZ/BBMYxEmcicMLRRHAOc+c0p9qrJs3bz86Dc82jhXzEB2Zes1rXULxB2jjKfvnOuZzfaTrDdK4wYir8ntm1qr23moHuhRWXawaW8y/NwI3sZBtL4b38taYzRqIGXthpdxGHwvLM03WG2ExgxkV3rPwXq+n1VvIG49bg9vPcXq3GnOg7RqsxSOUcsszZ3GDBTDe0q00vexOHcaMRAF57jMSg2i0YwH/ZPfw9I1R9Q8CAMxi2B6/bXZeOw91pTr9CAxjofutgZz5/ThYVaV2WytsRhMsIHIKNo9CHFhMMESp9xleDpjuu2jttP7KFYcAkt/bLqtB4qd0T1BOdII8N3vKKtOm5PtV3nIiyADYU6C2y6rk+G6Cl7b4ZEg4OTX4M9u+LyDPDQRKFPOQpmyxKoYLwP5ZMTOqe/g9TeCGBRg8XPAYy+N89hJ0Hsys9+nTPEK0jrPT0kzYnw9XPm/WfVHu10S4yD43ThnVkWIDYRV+Lg1Xwc4sZtZ9Kb8DFg6XQzU+KAlB1U/jiPkMbCsQRyM4Zxp7kJEBrJH3nqozrqfN2CcUxBXjrCqcBOA0RMoo7FgF9urN9uLzph7KVgzMPeWNCeTeZC1B1iKCpzEZTwRPHF6oFzsgBPQn7MwQHfbL+L7CmMVYMwB/REQS09aUHm+ynIthEtMx034cHdz6iicxC14ItgUowfKMIbHaLnUAL0bLP0Hq8M49wNLuCstslgLkYGkgXka6Cm4DKYldXgMlwt6Bg8VjCt8rT0Mf68rlGGcVntYxJMQxU/RNh8rG+YYImqh2s7W29XdC5NFSBLPO6f/qiaqzrqnq8khBOaN0fyrmoXPonkDwbJCz2GtNhRcbf4+72LUp1ZZ9hKWGODZx3nsA3jehgd60jac3L5xHiMxkHibD0arcyyJ4CTvDAVwrZcpVmEQhmVIY7BjwdgSx7ElMMytE5bTztZfA5EHQe3zbWAc6sPVu57lKBRLSP2CuxgPEZSSOPcuqzsIPVjoQe4rFvyo7CahYKFaXDDdoTg0QrWTUAVrQhZrITOQMSdZ8gIm9yOL3qBh3MoWFL7q+MCbtbuJnitM7Ftn2TpLtRAZCK8KBMKzrMrRejdL3oxrb0DgfqZqEAroWh9jdQDtnsKCVR6ks+yFusnbKBATdrEYmwVt9CvoWeRd1l4YjZU4Z2lqgYgNRFcgM/u9jIQFo7AWqsKeMTnRw2PF8eGWChauMGfWRMg9CODtdS+6LKiibbP4sYInef6fZTMDzI2KjF24tEpE2/w48Kpqmy+DR93GQ/ipN0BcwFsz45pjfcpZhBMuvsdeAHH8Zyr1BXjKT6yDI6lLo1u/D8EGqkJLAG8vz+g90/IUdvjq5GDUAbDq+dA+dJVoBqJq2rr1WSdRQkYyenVSvlJCRpe2d7EnVGl7hBDFQD4nwRQ1lTGvjxqqMLg9gE0uUKV97D6VIzOMX4c4Bqp7d2MKuDy0U7+SrNUeLkq9wfoM+0qsehNsIA6eF1m9qoDNYJ/v7lXitc0PEbJtzxncXVn0JtxATgWXD/NiKPXwJNxA/3PCDaTV7yxdfUSYW4Qlpn9mKRhK9GJi1ZcseRNlm3ed3p/wFHTPnSjuhsKsphSkNUFj460jVr2JEoNgMp+wGATUUxchB/qN1TCcOs9SEHGCtDaiLt1EnPoQlizemQilT3c8IhDFQNxp9Pr1xABYXlhk0o3Ecql5406EJoglcTwIwG4dpvesisB4gf9mwKpiWdZnYqj/E6HNURLNQAjWPjDBLqu1oKpem0PVK46ys26VjgkAQ6/5tFWnEa3dUaX4IYFdLW8HjwO9BgPptBMqugT5sVkVPXkuxMEY1fsoczFQCbdBwEjuLh5CtuFrv6dYIwBv94x8DnUNnclOx4o3iUQikUgkEolETZT6F0D9s4H2+OEhAAAAAElFTkSuQmCC'
p49
sS'andr'
p50
S'data:image/png;base64,iVBORw0KGgoAAAANSUhEUgAAAEgAAABECAMAAAAV8YMOAAAABGdBTUEAALGPC/xhBQAAAAFzUkdCAK7OHOkAAAMAUExURUxpce1sMO1sMO1sMO1sMO1sMO1sMO1sMO1sMO1rL+1sMO1sMO1sMO1sMO1sMO1sMO1sMO1sMO1sMO1sMO1qLP3s5O1tMO1sMO1sMO1sMO1sMO1sMO1sMO1sMO1sMO1sMPnPu+1tMu1vL/3w6u9+Sf718PiqIe1sMO1sMO1sMO1sMO1sMO1sMO1sMO1sMO1sMO1sMO1sMO1sMO1sMO1sMO50Lv76+PKVavvay+5wNvSUJu98RvOcdPzk2e1vNfCEUv749fq1Hu1sMO1sMO1sMO1sMO1sMO1sMO1sMO1sMO1sMO1sMO1sMO1sMO1sMO1sMO1sMO1sMO1sMO1sMPu9HPaykvCFU/SmgfagI+91Lvzl2/zAG+1uM/738/ShevCFU/3v6Pvh1O50O/fBpv7z7+5xL/zn3fWvj+1sMO1sMO1sMO1sMO1sMO1sMO1sMO1sMO1sMO1sMO1sMO1sMO1sMO1sMO1sMO1sMO1sMO1sMO1sMO1sMPitIPjHsO5xNvy/HPCCTv759vKYbfrYyO52P/nKtfzo3/KHKfSifO5yL/u8HPrSwPWphvCIV+5zOvCIWPrXxva0lf759vCATO1rL+95QvGOYPa5nfahI/e8ofGEKu91Lu1sMO1sMO1sMO1sMO1sMO1sMO1sMO1sMPelIu5xN/CAK/vbzPSWJvzn3e92Le95Q/zn3vnLtvB9LO+ATPjDq/Sfd/vg0/GOX/KVaO9/SvGMXPzl2+50O/3x6/u6HfKTZvKJKfvd0PWti+53P+5yOfa0lfGPYfB6LO95LfGMXPu5He1sMO1sMO1sMO1sMPKJKfaeJPemIvKYbvekIu53P+51PfaeJPGQY/e5nPvi1vOfd+5xL+5zOfOSJ/KZb/mvIPekIvOOKPWdJPrWxfjKtfnNuPa2mPjErfSlgPmvIPmwH/KKKe5wL+1sMP////zCG+1rL/zDG+1qLu1qLO1rMO1rLv///v/+/u1tMf/9/P/7+vzBG/zEG/mzH/CIVvnRvvOhevOccvWsivKGKtFK8a4AAADpdFJOUwAOCfcE8fsB/v4x9fw5EOsXHv36/v3+AuWHoHfbvCWW+/7+/vv+/Cy6RURc9BKv0OguzT2O+/76+f78/Pv8/v3+/cdmmGk0rQUUxN5YmYlhgrbgTP75/fn6/f3+/f35+v78/Pn9//37q36z48sLINg2kn90jEhTvxntKFD++/3+/fz6/v37/fv6/P36/vv8+Pv6/fn9+vv5/Pr6+W5A1F8h6qgj+vr2/P36+v78+/X7/fP38/P9+/j5/fz9+fv6/P38/v319/uEnL5r8fv6/fb49v338fn4+P759/X6+vz3/fn9+/39+/r9UyRNiQAABiRJREFUWMPVmHdQFGcUwOGOk1uKcJ0mTXoTBITQFARREESqKE04G2DsPWIbC9iw9x41do29Yk/viek9MW6/C9xhTdy7vba3u4fATGby/ri53bf7m/e+175vraz+j2Jrq/m18QwOibLuOkUWNdDVdWB0YHC6B49X12tYV1GC6fkgIbx8HqgV7pSer/Te4LkF86IEszn667lBoJmIcge/Amd2TL5IFNmnPkLngYDGAUGnXR1zOF58EFAQAtrnDNHYN4VPB4FBnh2CoueApQkJh07e9QUd8ggPovcxcEB+/R5ni5ghM2tBhxEo3NR0ZWupwinX08YLZBZu2jCOBXOC7EHw6+9RGIZR+FvCvVkFHiCb2L8zkY0TMklrdsICWEN6499SBZhtD7KTMlg4r9dr9YqTTbBW2gNKQYuSxrJO7g4k6INRJAhGR0gtgniDGDkTa0m14lAhqgM9GWMRJHJkjliWTv9oxAId6CNf7Q0lovnBMXPQHDtGkLUhhRuXv9WkjdzDowrismFDNQj6VK762McM1CucuVO4GnJYIf0QfowSrDdjCdKty1t8ykokqrc/RahRC2WJmqNJEscmfPJ5AEySbqmXpCTJISj+IDW73djaiXWtyWOACIjVkLY+UjTUSB4kQxD0TAw0fNZgsCpIwFqvmdQlUNx5gsLtP/liLd7lrQToeEXRkovexSTJIdOT7JoMaxQ6h8IBAMX2Kyg8KkGK9R8L6UVVgWu1Ybkxw/fHTJsXSK84QR8Kp2HcbYyf0A6jhdcArGKAjtPvxCbSIr6QNKwuc6Y5apiIArp0/Xoi0hiAwmjqHaRhaauWIylZg9DyO2cvFWTWMJRJA7aVKbYXEun0gy+2tkrDkccBCENzGk4luVHV+KaL8s3YI8IkuPCaoqxGA5oPiDeKMTqJmgjuQlNl9dXf5NDvKcCP7ZqO0oht9idA3v8UfVl0wYfeUCipGWjaw8q2aZa3qhI7mkqYtGC54mazPm69FyvpPdx0QMlC64wanxWj1USsx2FSovES/cQXK9LH7fBmOsiJ2lAKJhk0CN6SNJKoimpsOdEK0NRY/EU/Mm5J1Th9vYUhJhgbx7xsfcSEl/z6P10KQf73sB2Eb+j9u9g9uRYkP/1dIqC0ZFHPqZEGv+Lmxx/p7a/S+CaWBjxGH6fuwOPKdb6pk9dtAMxALsbOxIkx5CNybLShIn5NQbY/vP/nX1JsXKvhZuvYFSlUkEO6IQH2mIyL1xava1bpQnQBBxt3jOHjfnp4q0ZTfsMsB7gZugp2TqMko/jBIt178ZUbcRz3qfTWGdT6bNW2n6vKm9eYOddX11SGUgqNH7fsb70fY7c8f/FHjcTg1y83xdXn1/qZzxfuTDKHppjeRBKJPqYyrImqn/avWnJETuSWeuVqRInRU2kCuacbT6nXyq+qvM/UGIwipfmU39O4LcsIG/srGWaTlw0dBErPFx/EKwg71HIjbVkxsVj8U+uS5WcwVpAsx6yHYGAbkY9Vq0rWG02aX6bRAJtutzBNy6lk2HbSFG2n1ccXb7yhNoIkC5Vk9SBMU3couW90o2mQxOeVQIs+e9TxEkh1FWcf39mBWpCdC12F4ErlWX9IdXikJjEXrvZOLsbYQTnk/nQgn1GLnVsEHU5cTZAub8C/OdZmwSCy2GS5zGrEL9k/CReXqKHysxiCsHMiQ2VkB0lneaBt7RcpINKyElp/zoJbYUEzZLrmOJ3tGaXmfeXCEyv9WO3JfrfAuCthWSODi2UH2VTCiCgZy0akc/IedaZNjOjc6zwHXRpGzDWb15P7dArklufBJbqNh/sQ2hYiys2lh/kA5QnZQPWCA0Onuk4LlDHtjuwy0tMcTJ/OcueyuhZi+UTjmUYpwxmsoLAZHZyNdhlHpHB/ODton2NHpyzHWt3LTtOdrSaHsYGyOj6M9pznlbV79yzXaKKaD+SzcHpk2L7KmZrj7MzRPmg9nAWUGd7J8/X7IsYjSMTezh7UZ89i4LgwZGGH4khP+B7utl35eGA33jxykzytuiTWwRNi8kzs4u6UdeMTi12Qvl/VTeN062ONYELfSB6vrt51kK1VN8V5cnCIXXi3Mf+xvAT+QCdcw2F5qQAAAABJRU5ErkJggg=='
p51
sb.