ccopy_reg
_reconstructor
p0
(cemoji
Emoji
p1
c__builtin__
object
p2
Ntp3
Rp4
(dp5
S'emojipedia_url'
p6
Vhttp://emojipedia.org/pineapple/
p7
sS'index'
p8
V324
p9
sS'code'
p10
VU+1F34D
p11
sS'apple'
p12
S'data:image/png;base64,iVBORw0KGgoAAAANSUhEUgAAAEAAAABACAMAAACdt4HsAAADAFBMVEUAAABgcB4CBQEAAAA7PQwECAIECwMXKgAJEgMaIgMFDAIECQMAAAAoRBhIgx9EfhwAAAABAABGih0sVRgAAAAjSBE7YRo2ZxpEeh86bxtKhh8+cRxJiSJKjSAIBQIAAAAqURSTZhEsWhUAAACEUAtqQQ0AAACBRQtBcyNSjyN2Uwx/ag9ZjyeGRxAjSRFnRAsxWRubZhGQXQ14UAwqTxVBdh4nTxQ2Yht3SA92TAtrQQssUhhAfBmDWAptSAmZZw5HfR80YhpCeR6ZXBUgMQlxSAsDAgAjRBN2Rwlxp0JcQQcuYhmPXQ5rQAulcRVDLAYrSBE5bh1DfSBYjjZbkDQeOg9gly5gPxgtHAZYkCcybROiew9znj5QgCSHWwurgBlJaSVtpz8oTBJppC25iBijehVVhiNZhSMwLAYvUxE2Yh0nTREcNw8/cxwkRhEuWxUwVxs7aB5KgSJPiSwrThhHfCiafw09ehrAnRG5oRSciQ/RshfAkRE4bRp+TxGRcA4tYhNbnTFFdCSwjg+ohw26mQ+XbA+PZAzfvyrQwxbBpBUgPxHRuxd1TQo6Wx2aZA6AXwzi0iHu1kPdzRYwahPQoCrftzWuoxR3cQ5Yjyg/bR2pmA8mVxNSjyKTihDfsRtvUQp7WguhchH13i7cxA/nyDmncx62jRDJrBPKuBTVqSG4mhvVtybGohKNXRVlRwlrSQpjnzOGXBBBbyxmVQlGRAudZhuKbAviyhrSrDfDjyDQkhrElyzzyCvNnRLsuRWwmQ6ofRSKVgzZyyevfRTDwRzGniHAtRjr1S7BrBSjbiOflxLptSfioyPcvR6FfA30vCDlwCVKmR1XqCKYWhDt0Ba0gQvsxyK7hiBuYgxUeTGQlROrjhCseye1jiTWoA5AhBb/5EIPHglYmiQVLAq9fxeybA21rxTqwzTEggh8gxBbWxbBhCn70ioXTgGwhhtZRAjHlRnIqySbeA2yvBfZkQ7Pohtss0IRQwKEuTqgoxPhtg9jaxvuqxJidRCEihBYbSw4AAAAanRSTlMAEC8nCAsQAQUCGhUf/hxQQHn+KFNDPzMmWKSxwuFKYtvEezYmZ25P7oD9/OQzk8xlZZHy8oTCwBnhn6z5/vXpmNXTMnV+hKJBNOzu2+qoz7P04/2vt0uNoc+O8GDuw9urdIy12+K6+uX+pLHWAAAAB2lJREFUeF61lQVwG1kWRVtJG2RHdmzHCIntkGM7iTNBcHAyQYZhXk4LmZnBzMzMzMzMTGFmHIRtJd5sTdXuqLNVeyXVl1R9T9/3338S8H+SjTf6fzOavVlst1jrFqN3B2zdr7sz6OKCNgWMrY3fHWBHcUABgHXsbpOzgJs3AKCs35XgEPWpHeAm2nDkiI2LAYDa9qd3BZhHFXmZO/K3YdwOuAFoR8gKuRUNwokBtLO4SOLD3II5cA4FeOMdAeQC7beaf/FneyexmG7JJNCi95ubn8fbWtkiawVa1zt3ursEgsRiyoglEaI4OB+Mc3LbjkIWAGVubma7hUylkzHkKMsRy1A8xdIHb+lOtoHZiGS27lMviT+JekFCw4QOD4fi8Vf40XyJo/UhY8DICCHCmSoh06klNK3oiohMGcaSo6NctBsA60VIAIb2W/fv/1ICETA0EolAIEJxw1goygeLPXvkQwP9dqsN56hFP/xQxCRiQ0NDRSIsDse0jKVFi0RErNZa/90PbTvg6PA3r7/7hMaGMq8Mj4zgtVoin0jwF+EhrIv+XQRN4JD22/lMS34sHy96dCWKSNBi4ReRQicSNyBqA3qds7OT03noHFUsZj66xCfc0GoJWIrYP5b0oS0igBlot/+gO5lEw0DMR9g48rVrODyRKiFhaVbGKERjbedMhY8RSYu7hvv++6jrhGsSPDaaRNOSHD+zBxHNMXwIDmzbQiqh0/FaygiTRiHhiBABOoFwHs18ond7e+8+UUIt+u47KtkyVBJNir5O5uNj3Z1skMyTzXYbAGVlZWVn6ySGCRARIvlHSWgiLUQ/6GiHZJjRC0k+OxFLporpOJoWImm1Wlzs2R0gCCCWuc/BrechLAneTFw0hY/D+ftjyzy/Pr1pFTKInYO52UW6pATC4G5cKoqj0TAlPwfej5yVSz//y+lVCAAowNiJQr6EhaPfwMdh/C9M35+OfCzNy26f5Tz+ehOSM7nu+vU4Ct2fgLvBJOAwJdPNU5Hs2Zj2B7mzs7ym0/rr+Cgu7stvvLe77KZhaFBZYZn/3bvzYf09EUN13Nz2DMZXKH0leHmtMwNQbqiLJVrMtEDpOVVRr5oLz7rtW5nV8ayGx3Bd/8eAY9/qbgECx4q++UfZdPLdnPkcjib3akhlmqrtdkdmvfzxvvcBJPrigs2pJ/c9x5+VV0dEdE2kBgWHB4WkVHLlz8L+ikIC+OgiuE+R7CnMCbvT2N+fdbujMmUsJDitMyIibxyuQr9Qx4CTrZPpAwMNg/LO2iHf22p1akhweLAvN4dRcRJRBvRXyuowzqyUFx9RPZjZldsS5KsO6lRPhD3mPH8PEcC1tLVPlp3DvjcTkyfvr6pNCVFXpr5oq0tgPf0c0Ua6JlW0MhLmXsU0NLA4Hargq6ktaSltL7K4mvk5VySA95TJFT9z+hJm68IGWTPqzoc/ddSmhaR0BrFZYU2bEADWKvOTIxkynjy3OzwrxjeL3RPRlhKSUpXmG6HJSF6rH3DUo/yWsOayVJZ7py4vU6Xi/piZpVZ3BgcH+XI5Qle0/k5ubL6lmEyvZ3A0DXJubfpPHQ8nxrLUKVfHgqoyGAoEEXYlNitaR2tkrLyYezPs3oYu1dydoLaQsdSWO69YPASt/CDJI7G1b3D8VTbrt5mYxjxWLly/OqWl7YUvt6t23w79u1hYXJo0/rIpu/tmTMLEkFyW8PAqtzIcHoqxTE1tk/4IO3YGJAUEBE7FZ//SODQ/nzDAybjM8g3vhc/DBDv7KYIIu5r3lOcHTgkZGbNDtQ9UHC67kdPT1dDQUpUWweIpVusFrD9ekC8QCGvqpc/zVA8HM3rLazQ9bHZjf3BwFpch3ISgD2VPRkeVN8ufMgY4cl58f1+fnK3KnfmxcoLbLhMe1Q9YdbywsCAwXTCZIUvQxP/6W/0v9Zr0KlVXJrtnskmB5Fd+tV++oEB5s++utLY7J17DbpQ1tofnXq7OiXyuOAkiAIAb/fITEwMDlJGzD3jSuvAh1kBPQublsByG0OMDAIne31y+pzhAOQX/OUk5dVXd2fEaeXx8Ly+5aScKNiAqwi+xWBDgWcOTRcp7ewel2ZMx96TjwnxkAXQjVVD2RBCQVDOXnhHJ4L2UtT+oj6kXJiENAHfiVEHiHmVpYHp3WAUvJ/7Xe09fyqqb9qwHEGvt3sT8/OKywIqmipvd6QMMaXKgQvDxHxiMdNKt8EP3AX10s4egPGn0VkDp/aRRZXK10M/vY7Tugv/kRKPRxq8FggawDA0NTU1NV28u9BMUFjcHlBYrAksVgs2rDQxA+Bo02ugt5N9enRG2mZgsWbJ48aKVK5cuXb7s0MbCgoLSxGY/P7iYnbuWL1q8xMTU0MDgNeP3fnDBrTO/9i5bsWKNxeHDn5w5tXevx97jZ858YrFi2fKlOoShoQEIE36XfiGA6b8QbxlrLGAdtrBYs0ZnX/nWvwBYQMCMBQoILmzAm1Jg1oLgt0t08Q3fboLRf+sBjHsTakGg7vlGaJ2MXrdJn4wQfP1PAw0d8225nZIAAAAASUVORK5CYII='
p13
sS'twit'
p14
S'data:image/png;base64,iVBORw0KGgoAAAANSUhEUgAAAEgAAABICAMAAABiM0N1AAABCFBMVEUAAABckTtckTtckTtckTtckTtckTtckTtckTtckTtckTtckTtckTtckTtckTv/rDP/zE3/zE3/zE3/zE1ckTv/zE3/zE3/zE3/zE3/zE3/zE3/rDP/zE3/rDP/rDP/zE3/yEr/sjj/rDP/vED/zE3/rDP/szn/yUr/szn/rDP/xEf/xkj/yUv/xkj/rDP/tzz/xEf/yUv/uz//rDP/rDP/uT7/zE3/ykv/zE3/x0n/zE1ckTv/rDP/rjX/vED/uD3/yEr/sjj/xEf/ykv/sDb/wkX/tDr/wEP/xkj/uj7/vkL/tjv1yEx7nD5mlTyjnTjrw0l7mj3WrTyFmDlwlDrgwUq4rkLMpDag6JbYAAAAOnRSTlMAv+9AEN+fMM+AUGBwIK8Q75+AII+/EDBgQK+/33Cfj4/vQEBQ74+f34C/769Qr79Av8/fIL9w789g579aUgAAA0tJREFUeF61ldd64jAQRmXABmNCCyG9b++9SHIttGR7e/83WUkWLhvxZQTfnovoKif/FE/QahottCFN6SEbeuqtBn8ssrGIcNMWIWRrUxGxRCDSRpvBFCNUEz8ZTrfWaq4tIhZhmKzxJuGVrodBlrSbLFht7VZZuchosacjW1dHcBpiTh1SxswaRWpQUdsyuaDWdeoVkcM3ixUIbbhjFhkqogZLqLcKbYMoaGUtM/RWUaEyeR793ewQNTWkC1scFQZqdAzDsIErJa+HglHTzJJpLNOWKlNXBu3Awjg2j98lK3FAGousRiOPaMJq4LvUIrcCHVm93rZlU5VYSIu2pXDpL3ezbtujFSZ5J+EXYPOvxALMDNht2zYAIhiNTg1QGki0olGf9rd1NLYqz88v368x5+hgb4zW/k5+/KE0xTkDQDBHofn8O6Q04YbAn2HB6fjW629YdtcwKp35inHkL7jApzSMsgp3obfNsUzpucZLYpdSGuGMPQSmOWKub4UHT5kn5JJZJE1g6sYvHAe5aebTaVZiyN59HdMQY4/6UVGd6DllBLg/hnu2mSChcvY5HvNM2HsAFw2yxiS4QuC7mfoS6un1WV8mlHpcML8qVbgQwtdQ0R0ZIJazT2JcZk6PgaL7OEdVoufe7cFEO5U/T7PZL9Kiwuk9mAjjNChaPBeVxSzYovDvAkUJnaRYOXvJDkyU3mxMsiwx0oiEJ1TOvlSh5ybipYnHSx2ARJFPqXC4kynOmS2bf8XePkTUZwHS5ewnuEJ+Ui51xh8y0aLiib0k697sGPTtS1iFrph9ucKpCOufAES7pQCi5wsm/CeZe4gAPEjVsy+YJSDRQ6/6W8zjitlP41z1CHRHHnNB+XwkQu1Rdx5o7fZQzD4pBRBR3NLVfIJAHOF8vRUnJWbaIUy0LxpDZaKiwmytfNcPniIYO/xC+yJHucJoeTVpD/6PJJ7O5Ozd6EaJzxCU02UGKte7IGXuC7Bo3JcdZnXMxXovShU+R3Du5Bc6DLISXT9XvUAanClmLzlDWgzKoiu+VnJwLxHSNQWlSCGVs381RrrsnYsLLQmyEk96SJ83h9TFFc6P0XpcvC1r+sMeWpvtdwfvQ4/V9WHwEf1H/gI3mLWKj4ZMjQAAAABJRU5ErkJggg=='
p15
sS'gmail'
p16
S'data:image/png;base64,R0lGODlhDwAPALMPAAdwAAOLAPfKB+yzAQDMAPzVCdKJAMtwALmkAgBjAP/fGP/qR+eTAP/eJVyIAAAAACH5BAEAAA8ALAAAAAAPAA8AAARN8MlJq02BBFsT0Bk3YUGWJCKgnoDonGdGVEWBADBGCUWjFAJVYCUBFhYKgQCxIWgkyqiSYZFKD1UlcDAwcAZKsMCAtRi4XLLocTCo1xEAOw=='
p17
sS'related_to'
p18
(lp19
V\u2600 Black Sun With Rays
p20
aV\U0001f334 Palm Tree
p21
aV\U0001f34c Banana
p22
aV\U0001f34b Lemon
p23
asS'name'
p24
Vpineapple
p25
sS'known_as'
p26
(lp27
sS'default'
p28
Vemoji
p29
sS'bw'
p30
S'data:image/png;base64,iVBORw0KGgoAAAANSUhEUgAAAJAAAACQCAYAAADnRuK4AAAPP0lEQVR42u2dLbROWxSGTxAEQRAEQRAEQRAEQRAEQRAEQRAEQRAEYwiCIAiCIAiCIAiCIAiCIAiCIAiCIAiCIOw7nj3Ge+57prX293uc/a095xh7HOf7de96zPnOn7X2VpeWtoJtTfU//Pv3792rV6+6P3/+JAUJ0GIGNKdOneq2tra606dPdz9+/EgSEqDFANq/f3938eLF7tixY92JEye6L1++7HjNr1+/uqNHj3aXL19OShKgv+3s2bPdnTt3+lB25MiR7vjx4zvC2aVLl3oPBWjpoRKgv+zGjRvd1atX+z+/fPmyh+XRo0f9748fP+5/P3ToUP/z2bNnSUoCtNPu3bvXXbhwYft3Qhme6Pfv3/3PgwcPdh8+fOgBItSlJUA77MmTJ72AluF9gOXWrVv9z+vXr/ePE9oIYz9//kxaEqD/7enTp32IkiGiAWffvn39T7wPdvPmzf53wlxaArRt6BrAcOF8+PDh/rGTJ09uP/bmzZv+sfPnzyctrQNEmCGzIjyhZYbs7du3PRhfv37dfkyi+f79+9uP8TmEMDRRFh0bB4iwBABceBOEci0FF0AKVZ8/f95O2799+7bjteggnou1onkM6IC0VfiaAoiFJ5tisSkOHjhwoAcCQeyeBnv//n3/utevX++AzzMzGcVEnnv+/Pnc0Lx7964vE5DRtRwCm9NAeBK8D1Xkjx8/dnfv3u0XEZi8ngNQLCzhziHh9dFu377dP3ft2rWZIdShkaZCmKvGlABtgAEHekbeBI/AwrKYV65c6XWNAJLe0WIT2qKpsEj/rGbACrS87ty5c93Dhw/778cDysslQBtkLJp7FCCi7qMaD9pIzwsmPEWp3qPwhheraS+eAyDSfT4P3cT16dOnFNGbasDhOgc45GnUviA8KaUHgJI9ePBgOyRFe/HiRQ8eqT99NbQVIYzqNb9nFrbBhtdhYb2uI1jwGPwktOmxM2fODIKIR4nwSKTTvWe+iM+llDCVlL/5QqIKgXgGGZ14pfsApNfw+BBAnqHh1fA8EtYKW0CVdaDGBDWhh/EMQCEVpxMvgHhcNSEEdsnUzqBPJnjwPJQKEOR4G7yXMroEqKGUXqAMXWRNDkg0wOJ5CpNAqMo0ny/AqPNMsVLdvAdSlx0I8D5kTFyk2YQmQpAaqISwkvBVyCPcoXF4PSBhiHFgitXrBGjDjAyr5gGAxQfGotGiIGuSuAYwN/XIdOlzgI3nWq7zNAsQ2gbBip5RrwrPQCpOOCE9pwDI4hJq5IlKlWYZryc8uejGszg8EtJoH0Kf5ob4DrI5vpfvVzVaF39PMrUEaA+Nohw6RcA4NCwsQlYAxIvX6LnoYdwQ1HwmVWcgITXXZyCaVWgECKXslAlq30nxUt/b4mTj6AFiwfiXDRwsAnoDWFg4FrdUOSa04HkoAOIRVDx06Gg91ExZGu/3Dr9CFVpKukkXfy9ENpBT5SYs0iZRewPwW5xqHD1AgKJF4l8zIYMwREiSIOZC1NY0EEBpH5hnXrXXE2o0F60qtMY5uFwTCRzBwfMA7sJcIyOpgfbIA6FH0DuAwmIBFRkREACGFpTFJKvCQ0S9ASzA5xAN7bbAQ/G57r3wLApXfJe2Bcn4PP1dAIeRjhTRG2DAgQB24VrKpjCKfWpjEF6Gwooq0AJGAPI+ny/iMzQOgt6ZUjW6qToQXodFFyCab2ZxWXyAIpxo06Cyo1k1JIEhwR7hUXjE+0zB6zRfSCSsROE8dJVmgDAX0DXPoxERMsNlRl4ToJGaew/Vfygo4onQJ4QkD094JTSMD+NrkEyZm8/2AA9pvcY8pjC6MSmAMNoM8kToIwcA3QQw8iC6mKmWdvKuvRcgCZWqRRHavNOfADVmLDY1GHQRVylcEZa8J6YheC8gumfSjLSKkngfPBghzi8AxOPh+VqsQk8CIJlGMIZmlPFQsV4EVO5hEMmqLAMSAOHleB2CnLCHt+I5Ks8qJPK5LZ7ysdWy5yGd5l8/i0k4I4UXFLUtOp5Vlbb5KIPjp4qceKihYiEAkg0S9uL2ogRopKZdGFHfuGehFTIPRFSjMTyIvI+0FZ8ZRzkId4h4QiclBACTaJ9Ve0qARhKu1Lzkz4QdNT8dKIR1TZs4RMCG5/C2hmpMMSwBk4Q57+PPVMyZR+L70FotDZ41CRCLhWeIcKBxYtY1NN5BO0PCmjDo7yUcxdQdjybPRMsleibAaW1qsUmAgAftAwBkXVwq8gGVhydCy1ANR+OshC48GBABHZ6HC9FMphXnf/QetFKpN5cAjdh0KFTMpghjhKaocVjkmvk8kLI3PAseKU4q8r1oHtL3OCMEqGii1kBqEiBVmvE8aBcWTTsr8E54DiDywTQ/0iVmcxLAGmX1XhpzSngf3h+PlNFMkMMsQZ4AjRwgQkspndbIq4tthZuakcrzGtJ2DJAQxoQm6RpNS+qsRS9K8mdpI2CcdXZRArTHxgJpkfA0hBtqQCyyoOExnvOF9vDCc3gwdJTOTQQ8HsOLAAphikE2dBGfQ/gi5OH1CHOARX3Iq9rxUKsEaOQgac+XzgpCB0mfAIOn9p41xeGz2iVxXaspyQibwNRa36xpgLRVh5+Cg4VWeyGKYIqPSrNViFTW5Zc8kgqDQ/PVrVvz4xzSLdEzRXgUygSROvE6L9qNGo/eh0chJBEapzjS0SRAGnxHzKJlqAkBBOFGjzs8PKeTzaR1AMpnrQURn+2zRNqtqsp2TiQ2YNI4hBppoNoFDGpH4E1cE/F+0nBBhWfyfprvVKVZq9BY8noJ0IYYi1wChYYm6biLaF1+qobrG0oBfB5g4F18yL42aKYaEXWnBGiD60AqGuINSiJXh0HpdZ6+K3Sp8lzq7GtvGfqH9F0NU9WM/P0J0IYZi1qCJhbwKASWjrbj/Yy7KrTVAOJ9scPv51RP4TZRk5hIJLTgGVhsFRAZNvPqcG2xS1OKpYtQRigkQ+PPrR+uORmAfPeEF/8iADqeDiFNpqW7+cTXkZ0hqPFe2kw4tDUoAdpwk/ClsqzDoAQCwjjWg4ZOMQMSnyb00Da1sxEnARCFPcKWn9LqtSIyJYDSsL1rG4UkpeZceJwaQEODaQnQhpoOz/RDFBDXpNqqPOOZaHPomF6e96lBhDfNU3kun3TUkTPzHNaQAG2gEVYIUQABHKT3gMOF99AhmfOYTutQfahUE2r9tgaTAwhA8BwKQwy0s8DLptd+5Is0VCxKAtGUBHXzIlqTiCz6Oga5gIhUnWwNz8ZnxlAGtFM5aKF5gDTSwaLvZqkg1oqG5qwToA0KYRLLuz1q4Tdy0dXy0XaTAEiFvn91OmrceFi6+2ECtCFGP0ve51/N6KCHYm+s9WnFZgHSUb21O/Cs2xDU2oToV+u3C292IlHeR/e0WDbjmiflB56488KvWQP3CdDITAdAUadZdi86aTo1n9IBCkOehzpQhIkMLW/7vSFGNqS2Q2236SKfoVM4SluSgcIHyNRUBbh4kn2rXqg5gDTDjJhd5Rwe3RfMu/EOUYQHYLwjH0dIeH8CNHLzoffa3QcXMR2L54JYdyiMgjk2Un3/vKrTLYaxpgDyc53XlT5HiPAkUeOUbnXp9/go7XxNgEZoOm1j3QW8CNEseDDC2RSysWYA0uwPV+0AzVVM95n3iw2LNSvdr3U3+3EJ0IqmwqHmf9Zp6J5SnWcoxacWFV/fYoO1GYAkakvjq+uEJ46/1g7aLO1gZewjARqpaZxildYFaT8iWb2zkuchlKGJ4h2BBBE9OJ+jjvvIEqCRmhZ0WQHtMz14GEApFQlrdSIgonpdOmzTU/kEaISGp9AiMba6KkDzZltD2RkgxWIiVwI0QmNwSwu0yskYNYhqqXrJEwke6lClLdGt3Xi3CYC0x30dqXKEiNA4dCxdSfOgw2h7lI7Jy3tljND85nJD3mJZiOhzlbbrsP+9trMVTaTSgl+t7ZlvAiBfqNKNdnfDEwGCex7moYG3pol0rTKflADtkvkpZOtcoAiRNg5S9fYBejSPBuiHhHWLu1ebAMg39607RJQgckCAJ+qaZXpnCdAemg9/7cYQey07wwvVvg9PWDp8qrV+WBMA+eIu2/FG3wztXPVmrZ+hOGQ0W4fOVEyARmJeMV5mjFUhRwNj0fxghXkPU6h5rQRohObDW2Rki4YnD4GcSubN0QgPeium+HHf2VBVOwEaoZHZrLIbNIpeNUeZ6XF4SNvptJeEtSCa1RJJgEZoLJ7fWHcZKzVHvTEa77hcqhOhvyJYfk+yBGik5s1UFm3ZY1xKfS2l6qXDGWZ5G1ossaOfAI3UPNSscjaPD+bPU1sqQaRxEEyHnidAI7d1VKNrk4S17GwIIGVnGcI2xJgDmmfYvWYIZoeHsOXhDE8SRzHiHaD9QhNRO/IMLwEasXlHftG56JiFkW3pHmD+ODPNgoifHp4ABs8XhXVmYRticRvNvHM3sQ5EyHENFVsSQESoi9mWwuYsYa07PydAIzTXG4v8S5enqW3TiZ7ID04oVaNrEAFqTiSO2HwCcNEwRi9s6BiXUorP77XeW2lfGMfOtGZNARS3E6/zdkt4jphR0fYoHfuC+X1V5bVaPPq3KYDifeCXycZKRgof6zl+2EJM8XWXQ38dB362aM3tM/FDv9dxPqE2G7onQV95OMMTubbxIf/WbwfVHEB+D4tV2hqlOo8L5lJ2Jojifcb+1UGfCdAaDDHsi8d4xzKHLQCPe56SYC5BVNrK0/K9xJq8a3Mc/iKU1cRuzYBFeor0u7Y3bNYQPdXtVg/YbBIgjFHTeMglC7norQdorALjrPfpVNjSxen1LVuzB43jQaInAqpFF3So8IdnIURGWL2Y2bL3aRogjDGMUnedPeur3vqJVknpprw65Kq1DYSTBEgepLTQ1GmYpV5mrzqhrXa/eL6rtf3vkwZIoUY3nitdpNk0OePCI7zRP2wGROcwXTh0/g8Z2DpuapcAjdSAZChjQstwayhgI3Obtc/dxzY0gTg125rafzDaJN4YbpUrjn8kQBMJaWRpeJra8SyzLrwV/a2phawEqGDoHNLx2G0nNPEY2gfYCIEUDhleaz09T4BWgAnvRAlg6t4lAUpLgNISoLQEKC0tAUpLgNISoLQEKC0tAUpLgNISoLQEKC0BSktLgNISoLQEKC0BSktLgNISoLQEKC0BSktLgNISoLQEKC0BSktLgNISoLQEKC0BSkuA8n9B2ir2HwFKKiwVt26oAAAAAElFTkSuQmCC'
p31
sS'version'
p32
VV6.0\u02b2
p33
sS'uni'
p34
V\U0001f34d
p35
sS'desc'
p36
V\U0001f34d A yellow spiky pineapple, with green leaves on top. 
p37
sS'browser'
p38
V\U0001f34d
p39
sS'annotations'
p40
(lp41
Vfood
p42
aVfruit
p43
aVnature
p44
aVobject
p45
aVpineapple
p46
aVplant
p47
asS'wind'
p48
S'data:image/png;base64,iVBORw0KGgoAAAANSUhEUgAAAEgAAABICAYAAABV7bNHAAAAAXNSR0IArs4c6QAAAARnQU1BAACxjwv8YQUAAAXOSURBVHhe7ZpNiBxFFMerZhbMQQh40rCKEg8JGYPgYXqMIKKuXjbJwUPED4Ju0IgXLwlEdFHjJ3jxIgEFRY0EROIHKDsRL2ZnxpvZCSqohyQHLyqBeNud8v9ev+6tqenebMJU9e5aP+hUveqq3en/vvfqVU9UJBKJRCKRSCQSiUQikXWGljYYzbnmQa30A/jN1xtlLmmj57tT3Rfldk7r29Y2UzMHMG8X2caY37TWH3Tv757iCYEIKhA/9ITZrQZqq9FmK4S6l28YdVYP9EOdBzu/5PNq5jN8uh1y/wv8+zuufzHveDYvBME9yIa9SevX0d2MqwfvSGg8aSdduo3rPDzscGeq8ymNV0GlAhGtudbD8Kbj1EcYPQOvugGf6gWYFyHOwSrFIerSVsaFjy70Jx+b3AJR7sC1CR61HcOT6M/Co46ls6rDqwchVO6DV+zHQ98qQ6XJFnPPobmRDeQkJO4G94Whn2XUtfjkl0Ik7pq0Y4dCB81REWcbLsopTdiPoG0nc8mwdxj1jfSIz6VlkKs+RtOWtU2IQ8l7i/zso/K7vBAsByWnkkPYvR6Xh8vo6SW9n3Yl8hDYbRrE2HYaG9nNUnrwnA97U713xfZK8CQNzzmJ37pHTN7CEU57qcu7l1F/Dtmp5zEQ5hMI86iYQfAWYmXQw6NA/E5M+hPtgWhvc9+oOXyieepKCObikJChxSEq2eY5dOqGvIPqH+IiwoprIDfchPNIxDdJPyjBPYjgSlir18QkNiPXPJdXyEY9y20K1UOHpR+cSgtFhNHL+ARUFBK5F8G7fuaRNVAsVloookj8HkViHSLdDXMT2n9wJbhasGMlTdgi4cixiKPG7ehfsxbEISrJQcSg33zf9Hdx4uXXHUa9wqd7rSZtcWjOYKH5DvX/N6TiJGbQT37KRCIoJ9lVMYvDc2hu81UZDkrwJE0PCk85IiaKP/Vl7bbucuEokDhGLX2FD7hThmjuAcx9T8wgBA0xc7a1F6H0tJiM1mo3vGQk17jipJg3B2fupAQejLACGfMSDpjXiclg7G+MnRDTwnwtnRxeW1tKq+5ABBNosJDMuB7B4tRqT+odnZNsU1hJTqo1es/jSGIXkwzCs8WeGIhgAlHusB+4UByEFV8riER2tiYElSRpykNF4mQeZpQ6o1V9WjdO00u0PLGTOCQajW0YKLRw0bcSOZmHENTPtnL7cksANzlTYrfv+yJEiE3zTmWJlHmG6zk2NDYUbjvnO3wD0M/C/X1GLc7KkDe8CkQPR+KIdZfrBcYs7SsSJ4NFwhwxGU72+c/U96StP/wKpBaf4lYSsu0FBBL3W0U7VQbnHMwRk7GTPQS8xfeO5jfEjG4U7VZ01OD7oGw7dxOyfdSw1xgzmOZBT/gVSKubi3cr/YSdk1yRRsThnKOPFK4xymuihpf6g9y/bCsn3HNY5iUj4uQ5p2ANchKFnZhjx6tAGUXiZJQdVglXnIyV1oybENs8oqBYHMItATLKxCHK1vggiECQaOTgOYQ2fektUzRmc7n7YyJIiBHZcUHMHDch21zNmnHj1YPsMMh3HYui3eqK11glw7oD56U/3FxBXlH0CpXm5eewK1iDMf4mdl0yWGi2Cx/YPXha4mTXatdAIK8e5LtQ/JEbZ9cZOXgW7FarXmP0r9x6wq9Ag3q+e8kDz4jJwD5UJE5GyZr8sErHGNRDQ2e1ceNVIPqr4yH4f39xcnUqXno4NwnblKyx3kzqH9LWHwHqIH2iYOcpPHjarGqNqb0hQxsHyh+FSVh2Kkm8hTucuyYEwQpFgh7QzjnjOKz6pvpK+moOq074+SRADkrRauIYfVshZo7sVCOhs4I4nVDiEOEEapw+p7Wepa1ZhpZZ5cEz/TpoYugdtW+CCUTQyzN6w2iLVBYuFHYUfmJyzUMCZ9+IbGgQPjNlu5UbbulY86+QXzevCegto3QZEgvXPF9u9Rz4f3REIpFIJBKJRCKXQan/AOx+vKgox91/AAAAAElFTkSuQmCC'
p49
sS'andr'
p50
S'data:image/png;base64,iVBORw0KGgoAAAANSUhEUgAAAEgAAABECAMAAAAV8YMOAAAABGdBTUEAALGPC/xhBQAAAAFzUkdCAK7OHOkAAAMAUExURUxpcai4RPzCG77QRvzCG/zCG/zCG77IRP3FGvzCG73PRr/RRr3QRsDSRnmDP/zCG/zCG/zCG/zCG/zCG/zCG73PRr3PRr3PRnaAP3mDP73QRo6bQb7QRr7QRvzCG/3CG/zCG/zCG/zCG73PRr3PRr/RRoeTQJakQrzORr7QRoaSQXaAP/zCG/zCG/zCG/zCG/zCG/zCG/zCG/zCG/zCG/zCG/zCG/zCG/zCG/zCG/zCG73PRr3PRr3PRr3PRr3PRr7QRr3PRr3PRoyYQb3PRr7QRr3PRnuFQH2HQISQQLDBRJSiQpakQr3PRoSPQIyZQYCLQPzCG/zCG/zCG/3DG/zCG/zCG/3CG/zCG7KhML3PRvzCG73PRr3PRr3PRr3PRr3PRr3PRoGMQIKNQKe2RJSiQr7QRoCMQL3PRnyHQHmEP77QRr7QRomWQI6bQfzCG/zCG/zCG/zCG/zCG/zCG5GPOe69IPzCG/zCG/zCG+C3JaOdN3yHQJuqQ4WRQIqWQb3PRr3PRn6IQL/RRrDBRXaAP32IQIuXQXuGQLnLRr3PRr3PRr3PRniCP5moQ5imQrLDRXyHQKy8RLvNRoCLQKa1RH6JQIOPQISQQLnLRn2IQKu7RIGNQJimQomVQa+/Rb3PRv3CG3V/P73PRnR+P/eSKb7QRv3DG/zBG/zAHPeVKP7DGveUKfu7Hfu5Hvu4Hvu8HPu1H/iZJ/eXKHeBP/qsIfiaJ3aAP/y/HKm5RH6JQPqvIfuzILzORnuFP3eCP/mlJPmhJfmnI/ibJ7bHRXuGQKCuQ5yqQ4WRQIKNQKSzQ6y8RHR/P/qrIvmiJPmqIvicJvigJbnKRo6bQYqXQZOhQnmDP4yYQbvNRoOJPbHCRbTGRYiVQfidJpWjQvqxIHWAP3V+P4OPQJ6tQ+e5Ieu7IfTAHvmmI/mpIqa2RJqoQpekQqKxQ6/ARYiMPJSSOcCoLdm0JpyWNvC+H6aZM8qtKvu+HPeWKPifJrbIRZKfQoyNOoGHPbijL5iUOOW4IvOXer0AAAChdFJOUwAHJFqg+/4BBQL8CvYO4fkW2ZF4D/n0v/3uGQMWHPXw4+A+d9oRVgzQ1E/6Y1ftB9NsOpfJnH01ZrpxtFBgxGQ4l+AepiAmzrExBCsR6V4ZiV1PCqdfzBIt/uXCV5yrfcducUzgerl5M6fo3EY5I0cZ6b+tg/f9hOjniG7A5MFGoD6cbYn0kubS6mzXLfW19CPq85DsrpTT3/HLp6aGhNITQg96mwAABgpJREFUWMOdlnVcVFkUxx/hAwQcwJUGJYVVsRMVu7uwe21dt7u7u5NXMwPTPQy11FDSDEiIgC12LLJu3Pvem4FVkDueP5h77+ed7+fE754LhvVswVv2zEz42L3biecbEa/7xUYmYPbZ3I9I0mPWVqdAfh81LX5pf5IkfafaCVq0DbqRg6Y7sVHNiPcgWYv3tBOEhWznPH23zMVcpkZyG3LQNMxuc/Llnf2cIjbyS3LWPPtBnvFW7/6kzbY62A/CNnuQ91r/CAxzCJy379ChGSFuyKDAmPtAvpvn7ZgTs9TX1/fLT5f03TDP4ODgKJDDzPsjmh4J87xTVPv1skUPprjP+HCmX+Ssg9vnbHOaQ/ZkTGV7QeaAZUEP5ji8/UFdOsNwrR7Uzdu2SjdWa6gBj7r0kZbDY+/V1rQV56Yz3SAN5hPGdH6dezGDIvrmYFjQwncDCEth5/lKxsZpJKiMfG5zqZFoIQKiXZAuR/T7BEVlNrbzqMqqFoKg8oxwV1xIEYT/iiDEvi9e4A9cNY1GNsE2DQGMKshlGJZDzF+OrKDZkATyOdHAMJdSoTOwi2R9AVzqf436PTAkBO3yzn6Zc25tr68ieMswV7Ohpf62xy82Nuab2Uik1wJYZyozT28FERruqLaOqbtkrv3uCBLI/dWTRC9mrjNW5fkvWNjXXYvaN3VaxI63dlu6O+v1lHV58kSnhRr2bV8Fd0+YvhEImmHutNpcqbyaovwCGzSTaBm2YmifnX/lQk3nRXN7cUO1FUSlngeXpqG2Kz4EDjZ015sDYPyWwgwbx8jqu77QStb/vARJ2Av3zh8G/G29agOJgpCYfA1/8uMRVD0u33vAlgZVXUnWX6gyNzC5BRzc8svckGB3RFT0F7aAzqcXFRKUvsBImllJUY0/LD0Y89NipOwCnXbzFwNU6IKFYlvX1p7J6YipM3Z+f7hvjMvnX8V6MPm8jjSpfGlaMvM4jeYXV1lQBhKYbZ+Zi4obaqxF6ioX95OaSiFxMGzJrv0H8lpb9b1cEYoKWOaC+vAf3v8O1dtdIz7ZGYT+OA6Nnu/fM4oK2GnXa+v64oa7PZAo/TMvudjDcZs0GL923fJ/VAml+evqs2sS7QGNCcNx4Zlb/2SA2lIlJSXwr+bu9aun8STBQPRXH3vkKRxYkvDMtb9vXrl8/Pjxy1dubrj175mUJHAcNhEdtFaA4xwqBb9x+tSpU6dv4CkpwiTu1HkkKifxSc5DKBSyMCHHgDtoceGooFWhrINI3iwT4TZTpCkN3GqsK2LrnTnHbDWt1tpIynKJpELOLr0d0UCO3vBr6R80sORjPEmpgludEq4Fw9FAI2CpFYCjypHQyVxMkAO3KpY0Hik3Vx9YWBOdnCW9bdLRKpiOuIL+M1um0KroUsgd5YUkonFsCOfSxOBHllUqg6DsimZIkJeZ4E8ckpQch/C951rHdUpswLudClaigB4fDB3w3oxFTUABrQS1NiilXa4iqbRLTmI5TNUH5b5NAR9qJTqTmHeVntWpsmTWTWlyE8jSGaVtA8H3zaDvZRxJXg4FlKPkVUnTFWI7QOIyNS1htShtAjJsSqZzoApkOTTdAYNDBuEiZROtBr6GUjo5W2FoVtFNClx0llaX3cZRQaO55iiydHJcqJSotTBFpY7W4qJsXRp/bVGKPSKU748CpCY9p+Q6Jj8HqmRQ8DVHav+YOKti8O6CgvqxTiS0W3vUm5ePXKuVdVOiorksjdd33BgU0Mg17MeGY2pw4U02Kco7gCRKpWxMo44ijZHhAvaaSth5ZJ1soNrQOljFjx+JPthMElpXps2hk01cPDlgjphAUKUgu9ARiK/j08DzrATOD1kHqybcUEGrmkVCkG45aNw4L8Th7zgKjnq2sIosdTMoi7S8ScnpFKhBMBr51V4bauu7WAr1KFIouiQx2Qv5gVzt06/XeYQPCbfj7U907pU0eJIdbz+GefmE9sx5YrQrZpetnuTdE2fdKjfMXlvvM+ReTNhzjthDmOvECZteEFgh/Z7fNHC9G/Zw5pIYPmX85HFhYesmj50S/sB/1f4DirvaruCTZUoAAAAASUVORK5CYII='
p51
sb.