ccopy_reg
_reconstructor
p0
(cemoji
Emoji
p1
c__builtin__
object
p2
Ntp3
Rp4
(dp5
S'emojipedia_url'
p6
Vhttp://emojipedia.org/tomato/
p7
sS'index'
p8
V331
p9
sS'code'
p10
VU+1F345
p11
sS'apple'
p12
S'data:image/png;base64,iVBORw0KGgoAAAANSUhEUgAAAEAAAABACAMAAACdt4HsAAAC/VBMVEUAAACBrkZ9qD+HsU4HAAACAAAVFgYaEQQPAwAAAAAAAAAAAABtmi5lkCgxBwBlEQFpFQFkEQAIAAAAAAB5pjt1oDZiDgBwnTV5GwBmDwGLtVQAAAALAABwFQBFBQCOslBzpDNbCgBlEQAAAABxnzFEBACNJAJ7HQJQCACjxHeRKAGNtlc9AwCIKwR2HAFlEAFEBACbv2tNEwWLrVRxoy6hw3VWex2GJAM9AwByoy5XgB2Wu2ZgiCVpEQCFr0t7ljxyXB+Gpk2hxHSkxHm005B6EQH/dkDfQhLMOQm+LQSEFQHkRRf+ajWkJwNXBwDqSBvvSyC1JwPpTxrDNQesJQO3MgWbHQKLFgGRHgL+bzndSRn+Yi71WSTSQRClHwKUGQJyDwHZPQ7JMgbZQw7IQxSwMAXTOArpWin/czzAOwv/mWeSul+Jt1RypjH/wZ//uJGGJgPZWzR9q0H/onX/qHr/sIX/yaj/hk3/i1z/k2T/kGD/vZj/8d3/kFi+SiX/n23/f0P/0LD/tIvSWTOfSSL/mm//ilPeXDZyGgH/q4F0iCqLLAT/1bj/gUh/eSx3pziCsEn/59C3Uy7rZz3/h1vJUCn0WTSuPAeTLwV9IQL/WzThZD3/fFCuQhj/e0P/4sr/69b/9uTuVzF5TBzISB/lWDLncDObNg3PUyzQUCH/3cOGRBKhOxKHr1D/glT/ll54HQGYv2iny3/9hUeuXy++RB2OYSX5mGyVPxRuPhW+XTjEZEL3n3nWcECwSCRkVRXYeE661ZfyTyX/eU3/ZD7/YTn9tZbZWiiXKAP/cUf/hVfzZTScLQP/ez/1Yj3QSRzycDz3eEHVVSy6SQzFTBC+QxLYTiPqi1/xaUG0Rh/7Vi9qDgHxpoX/bUP2Uir/dkr/ekjbai3wgETNXyX/2b3hXSy4PQ2+UxvUWBrmZDH/++vlmHX6Wzj/XjvZhmBxaSDfVCl/YSf2i1VZbRanPg5+Mw2jNAXnUiezPQqpMgViCwHgTyLvXy//aEHIeVNFgKTgAAAARXRSTlMALEAUHmwBBAs+XND+/hSgylcqTFn6aBsc7KkzjT96CuGKt7CW483VSPe848SRt9/8xPWCe1/iMqy1+/e9esbK7veR4Nti7XvXAAAIHUlEQVR4XrTU1W5cVxQGYM+MFPdiJiB5PMlIlh0rauNaSdQaqoCDfZpDw8zMaGZmZqYwMzMzQxHUtc/MGTlpmlqWui7mbn3nX2vvPUn/d6XTgECwRECwmZ+LANa6pQHJOzJy+SwAOBnsJQEpZEpS7mY0SMbSIqwjWUmCDBYCti0J2B6C5JtTYAR+fjICOCw2m5W++BPIxqGZDQlY/HwB/AqzcRwnsoWsRQKsrAFhfBncLYIk9p6BrKzvoLbiOemLBOa3xj4m5OUn52UN7MkTLEOD5Alzln0J4LBzc1PYnKT0rPkBevucXbxtKVtxISdhc74ACNZlkGRIGs4WsvPm58MpAORIedv40kWeJDsDdXcTeH9//+7dP+J8dhInO8TjkvmpBQWpacv/A0jbwCelRHc3QeB4P45n5+wIhYTbw1wuyft+/E3Q692ZueoLRtpGsZckvbPjjY2vvDy+tJvo3umVSqUhLkmS4f6BgX4iHHRvKvgXInltn2+E5M5+sE9MTkTtnYDww5BGSnK5PB6PK8VBwIlX5e5Nqz4HLM8sL3vv5Y3b5y6hejk3OQQGN9wt5W2ZHR9vhHqzCwD+B3HftbX/PIXVK6F/yNs4cWl0amrqOtSzl38NjXUGpfwt78bt0ejE5GTUHiQI6ZtWX9+1FZ8KX63s871/NDQyOSpTWA8e1Oko6uD1Z7TgfTfbOROdsFVWVtpmRggi2NUFwtpPgBVuX9eje9Nzox4RpYSiKFp4OdTZ2djYORa12SQul0RiM44QfPsMZPjt4z2scotbq+9Nvx1VUJb7HR1+i5LSiayeKRDGxsbsUYmrubnZJbHZbMZgyG6sbhW71yxfuMBNsIBHd+5iHspfW1dXV+tXUiKFXCaTjV6am56uLDxZ0tDQ3Pz6bFtb24x3xHilq6z8oyEK3L6fzt1reSvX+SP6+np9xK/UWT0yB6pRbVHVkRv7n5c0NL++2N5eXGwPXjFWd/mYCEyAUhTAaqnV1z99Wo8AhdyBaTAHKNqj+478eQCEn19fPNXUNDxiN155DxFSE0BqPICMul8H/U/1tRbK6jFhWq3GIZM5NEVVt27sf4GE35FQbTfCFnzuzASQCQHO37nbq1DW6qG/vu6+UuSRYVq1WuNwIKAHIsQEOsKwkY6QmGH1GjEKMGgS+SN0gA6LTgH9TqdaizkcmBYBN2ICPUQTAHAQ19bHgfVwh84danHKqQ6YIDaA3KR1QjFA1S0U4cVztIb2mABrZJZQEJ/AAxPQR0CJPKZeg0qlQgCmoQEmAjrL4uJiNEPfCuYWio//ggB0Bnp9BBYAAxhUgwEEYJhGfbSnKjYDLbgkiDBWl5UzW9wIK3jcMoiJLHCJIh3oBE29zkEzAjQQAAG34sDJk4WVcCPbAGgtXxkHvvExQEckAguEBUAAs9kccBo0GhrYtwCgBZihVZwAykppwKqEZ4BugAxDAU4AoEZAEUyAlhgDLl8urAQAbTEBHC49/7jF3AsPyW9BbwBt0HyCBrQLJ0gArk+A4wA8OWOQ65T0G6IDMICWDsD0fx74OgY4TVadDvXHA5yoQQATYP+BFxXPGUBylgY2xoFvaeC0CpMrFB7ohwBxoKdIrY5fggMVFVevlpR8BDD3YAMCHpwOGEwyaId+A0wQA44WLei/efNmybEY0FY8DC+6gHmMx0svtD9oOUPfO0wD/aoAADU1t6t6emABKH/FVejfu7fhj2MxoGkYHgPzr5Z2uPTCqUNPzgScsDKDwelUAVAD/fuqoJh+aI8BhYWus+3DD+E5/sC8xrJfH6Il3FY5oVRQgYD571bLnietKI7DDLzahFpITBvRpDVaY2htXOrS8SJcRJDX6wvlyqtsbl3dm04Mpk3D0NCBzc+gbcRIozaVocbCcm9yNyYoL036+3PAa0pslz4TDM9z/uec5EA/cMjmp+V9Pl8z86GbyynS18LFXuP1Y0M/oJ9pyN+KUu78DbkMBGq1Q1Aln5b3eb3eZjPTVRTpqJiUW6UdOkPGk8bPi+IRRoCZJ3Z3BwG6QPJ95Lv9zUzmo1SvFC5SZWFffdif4xQLR0ruvFbLOxwOnB8YBDAA892g06zX8abQAPyNR1U/15ALRUk5O4e+vb3tyLNClQW+/2D60tJ6B8DPpjwCx3bAuEcXiRHOztYACl/yDlCtYgcIHMCHjgAgP+Qp8eKERsUw15ILKCgnJyfLy1RgHB/TEWAA6CCRSESjUfitssANXhP1FFCQlG4XCRpijbi6YgPA3yKgO52BEDagDqBeBAqVupTJUELl88amz93T0+m0E3rfH5yAugkUkqdI1JHobqhsHniXIJMdjwcCrtWgJxzhHtwf+oMx09iTkTitVDq47c1rDvzurTRcEHC5VleDL2MRjn7chwvlFoZA4nR9veMf0PS7E+l43AWYHo7xYvshGcOFUiMly9lsMhmNJnr07g0+VCIIHcv3/WGMT3eQSIVC2WzAyYgCJ/ZNLoDOc5crk5pb0L94u1Mqe1qIAIwcIODDDofDsZ7ensb+b2VidJ8XhHDYA4KASinoJEd40lcWtZq/YRibFzmej0QEIRZDiIAOm+NE6PZZzb8wjo22L0VR5DgKCcTAXli8XdcTBmAEs3fnV0C7jRIHxJ5tn7QYjQZCD/6QmWk2a7WWcZPJOqKzLdqnnwF0wMK03aazWk3jFotWazZjDTWjrsx02NBttqmpqTvX4IvNptONWE1osASbRB1fHQERGgKdEV0ffMTy6vrMhq4fOgaUGMYh4JDG0Pw/fgNzO14+F0R3VgAAAABJRU5ErkJggg=='
p13
sS'twit'
p14
S'data:image/png;base64,iVBORw0KGgoAAAANSUhEUgAAAEgAAABICAMAAABiM0N1AAAAn1BMVEUAAADdLkTdLkTdLkTdLkR3slXdLkTdLkTdLkTdLkTdLkTdLkTdLkTdLkR3slXdLkTdLkTdLkTdLkR3slV3slV3slV3slV3slV3slV3slV3slV3slV3slV3slXQP0aZhk93slXKRkd3slV3slXdLkTKR0eXiVDXNkWEolOqcE3ET0iRkVHQP0a3YEqKmVKwaEu9V0mdgU+keE53slV9qlRyQUbGAAAAJHRSTlMAPOaHAFf7H/bvztvA/q9wnFev5u/AAIfb/vvOPB/A73Dm9pwpZEoSAAACXUlEQVR4XpzPQQqDMBCF4W6yDdjEZzI6bRqP8Lz/2UoGpFQsNP6rWX28uR1awoRL3XDIiZxSSy8ErYzuqMySeiGTOH4xiUzoh+AyWT+vTJkUvQLBk8z7e4UkCy5BkCatdmomWQG4ubIlsfwPrbRN+zqO0GBK8K5rkdLyAKJBamvmpfc1VFrii7Qjxn1hL5R4moRVe6Dh/tr4o+35GN7t19uOmzAQgOEaLDuObXF4hgESoAm77Ps/Wx0OkxSzJtrxTaX+N777NAyJhPlOv/i2VFsAqOotUF/bHlztdRBndgRJI2Cuuf411KUBrHKHykKQNBaWVgbrYFPCvoVSZH5fRq9+K1mzD0mNo3czcOseY30t6B28lNyB5Amf6oHU99aRzYcThmZ4HDX4icKD0Glu4+WzhbX2a7y4o6/HG+xkC4Q2Tt/d12UgXIHrY4SAhFACfijN2+lgX5KvUAmBqut0DNW+dHqBmIVQwzxZC/uZJ6QhWIPHfmyFGNBSK6SBWDZDEqjpGcqBnJyghA6VEwT01APKIELSQWUMKHPQOQZkHKRiQImDTjEg5SCIkY0FwT8I/Yesg1SsH2QSA9IOMjGg0kFpDKhwkIyyawfF+PvrCSrpUDpBjOwIPkH0ZzMLlBMdKxeIC+pAK5QTB0KINlLOn1BGcJT3MUp5MISkoHxkIeQqKAtC6Odv7syfEEXS/AUiSCX3oJ9INuc+hDe/9xNF4E7LTu+vWYZv2ebNcbLD6zpTx4wtQ/d+LDugRCl5GMLY+futJykCIQhLtfARoXMc5hjCWGoStXBCJSZlPNAffIZMbNM/bJcAAAAASUVORK5CYII='
p15
sS'gmail'
p16
S'data:image/png;base64,R0lGODlhDwAPALMPAP+qQTpxAKgAAP82AP8BANkBAMkAAPxaB+oAALclAP/8nfECAIxGAN0eAP8ZAAAAACH5BAEAAA8ALAAAAAAPAA8AAARY8MlJq702hb0vWQy3NQhFfIkmNsVEDHATMAWSkMbzAvzRnMCFQUA4ABQKgAN4WhSIAx7gsGQ6iS9YlYkYMr/AwvCBAIfHksLiiyg8KwaD2x0XXAT4vH0SAQA7'
p17
sS'related_to'
p18
(lp19
V\U0001f34e Red Apple
p20
aV\U0001f351 Peach
p21
aV\U0001f33d Ear Of Maize
p22
asS'name'
p23
Vtomato
p24
sS'known_as'
p25
(lp26
sS'default'
p27
Vemoji
p28
sS'bw'
p29
S'data:image/png;base64,iVBORw0KGgoAAAANSUhEUgAAAJAAAACQCAYAAADnRuK4AAAMeElEQVR42u2dL7QN3xvGbxAEQRAEQRAEQRAEQRAEQRAEQRAEQRAEawmCIAiCIAiCIAiCIAiCIAiCIAiCIAiCIMx3fea33rOeu38z58zM+bP3zDzPWrNc594759zZn3n/7r1nr7KsNbTnS2AZIMsAWQbIMkCWZYAsA2QZIMsAWZYBsgyQZYAsA2RZBsgyQJYBsgyQZRkgywBZBsgyQJYBsiwD1F0fP36s3r9/X/369csUGKB+4Jw7d67a29urjhw5Uv3+/dsUGKDV+vv3b3X16tUanDgeP35sAgzQan39+rU6e/bsApyTJ0/W/3758sUEGKDVOnXq1AKeu3fvVidOnKjdl2WAVur169cLeIh9Pn/+XH+NO7MM0EqdPn16ARBZ14sXL+qvHz16tPH3IqMDWKzcvXv3qmfPntXv+e3btzoGM0Aj09u3bxfwnD9/vn7tzp079f/JxjYZoAPMoUOH9gXpcWDtfv78aYDGpjNnzuyzPvEaA70pi4AlI57iPS5dulR9//59US4A2pcvX9qFjTVtP3jwYD2wQBM6fvx4fWzi/JcvX67Pz/vgrtCfP3+qmzdv1lZnDjWmyQL07t27fZmXArRuBvbjx4/auqRW58OHD9WxY8fqYH2qMc9sAHrw4MECIGIhBYjXhsYkZHFHjx6ta0nhFhHBOa4ReKYa78wKoOvXry8A+vfv3/8B9ObNm97nxMJgvTgHVghxbgLoAwcO1PWlubVGZgGQKgC6ceNGb3iIdQ4fPlxXtkOR1fG9TWZ2BqhQgCIzozqtlmmZAIbYButDTSeEFcPycL5Xr161BtuA9eTJk+rChQuNqT7nJiCnNzc2CCcLEJlQDJAOOgF1vE7c0iYGnHgmUvQ4iH+uXbtWxzl83VaUBC4C7PiZPgdwL/tsBmgHYlBjQIApROCrMDBYWIWIbahcR+OV/9+6dat6+vRpDRSvh8UJS5IOtE4XSa0M8D5//nzfwXkBkqA8zh0HsZUByiSC2XBXxCdhhXBb2lxddjCwy1xjgMTPMdjEVQoB8RIxElCFuySLA5r79+/XQPE7nJNzAF4KEeeIMoEB2oI+ffpUV3uJHxgsCnjUaMiINN4AphhEBiR1LUDF72Ot+F1ewxpRAsBS0OMintHe2rLjypUri3QemCk0amW8zwF0BmjDApq+A8KgRoFPA+A4cGNYBtzWqnNhLXBfkdXFQdwD1OrScF/p+/BZCLzJ7igJADfNWAqguF9g5lx8FruwNcSFJQsidsEScGGjCtx2YEFwCRFf6PcuXry4sEScl8yo7Ty4D4DiIA7SuIrPwPf5GhABQsFB/E5bg1UP4h/eQ4N9Z2FrCkvB4Ec/a8jBwKYWIiyRFvywRjFLUQ/toYXra3qfphQ+nT6LywRe4h2gBUDcIZ9P/0Zex7LRUzNAA8VARSbEhWcwsDwPHz6sLy5mnkHjDufOJRAFNgYGELpAh/XQgccq4RZ16iugrQKoCR4sX0zjIIaKqnWbcF38jsZX/A28P7FX13qVAar+16iMtJrMhhiAuzIO3AiuZ1nLgAvOfGeAINPhzk/rOXEAZdr4jDT89u3b+14nKNa4CWvSVLGmKJi6sz5JAe8b7jGCec5rgDooCn0MFBdxmTXBOgFUV3NPHIXVwpox+FHX4T20ARppftOqjQjccT0pxHwOLE6TxSCT4v3bDgDR8/F5sED692Jhh4I5C4AYAMw+EHFBGey447kLsUBNMQ0WC0s1JAhloFIXE+/RNFjR5ceNdkkAAGpV0K8xG9aSZCFqP7hILTnwM9uYjju5IBrXEvAwoGohcDnEBk0FQX6WeIhB4K4fEj9wDjK5obEHlgT4o57UdvA+WBmsWpOl5abBjQMrcV6aCBigFnHXaQtgWSWWi8td25Yu4wZxV32qucROQ6q/gMPANsHAa8RWWFf+vqY5Q7gy3FRanwp3ndaTSigwFgcQgxcBr7Ygurg/3AWWq6kXxaDgHreZ1UT2ldZ3+Fx9ZyjyOymI+n9gKmHuUVEAAYteMJ2K2lfczcDUVK3GWmGVthGQ4rpioIF2yMQ1ta5qdYilgJ+YrZQps0UBpFkHX2/CUnAOBoKMqskykYlhOTZplSgzBLhAtM4afMoRWoLQmQUGSETQq62IbW27gmVqskpN82+Ig2iC4vq0LgMUnIPMry1eAkjt3GNNh0LKZ1b3xbUyQMlARRDMhdrFpgeUCchwYlDSVD6mqnY9iHd08r4mBGFBCJCHTrjXPhwwl7KvUXaAuCvJouLiMHC7EoMZg6/C5Qztv2F10sEl2A1rROo+ZNoqMY/GQ6V06bMDpFNMuVN3uSQm1o7pxDFckqbR6fQMsjhaDdRo2qrkWIgmlxhLfzg/Af46bp5zlDDRLCtA3Kk6CLG6c9dxV0wd1VgDq9QlSwNCel9NMBEn6dqxyDSj849V6pOKY601oO67smRyAHEX5ryjAiCsCu8dg4Ob6ftZsJyk8E3VcTInBSVaNvFefVowOk0EaHWJ0ewA0qkT9JhyZX5UdBn8dCOGoSLGwbqoVQLOdOoHFpefwa21LQtqKhGoi83d0sgGUGz0FNYnR1YRAGERote0yQHBimmCEG5NO/bAFs1SEoguBUItD3Dtcs5kzAaQrttKZ/7tGiAGMeKSbfSXOH86GR9Xh9UDGEoI0XjtAjDAqBUaEpCPHiCd4kC/KCdAZFXxWbaZBZLhpR16UnMAwDWR8XVNJpbNnJwFQHohc23CFABFfSV6TduuexG0p9VwYqGYL411WVVt1gSEGCrXtNcsABHvqAleNWd4WyIziqyJf3cdS8T017ai5LJGrG7ft4nAf1QAcWE0Fpi7iLtw42kJYJkVwuWlc7tnA5D2mdKJ63MX7pzMjXbKMrfE97TBS0w0G4AiWFy2LYq1Wur+csVBWQBSU13qcpUxKG365uiNZQFI5y+PcTlvKeLmU4ByLPnZOUCYWU1dS151WbpiOkocXZYajR4gzR6ov1jrSdeM5djVbOcAaf2COcrWetKKfo6prjsHSLve8fwKazMA7Xo+VRaAKJgZoO0AlGNKjAGaEEA5mtIGaEIArbMQc5QA5ZoHNCVpV79pv6LJAaTrm0hBrfWk02ZnARDVUi1+uZA4XEyD2dReAqMBCGkrI9c8lilIt8HZ1nNgiwRIp2N6Osdw6TPRYnnSLADSLjJTW61hSvdQzLHhVBaAWKWgf7g78sOkfTDWnc1mPlC6XW7p2/mXqLQTn2tlRrZVGTqtFZjm9JzRTUgfW5Ur/skKECsitIaRc3HcGKVr2WJ17awAQrpE122NfjefTqhnLVkuZQVI18e7rdFduiwc95/zOavZN5jSNeOlbeNfotJ18bkTkOwA6d7KfZ6kPFfpw/CIIXOt6i0GoDSYZsai1Sw2H9VrlWtTiqIAQvocCIpjpWyiXZp0r6F1nuUxOYCwQvrEwHV2d5+qdEviXCswigUI6WR77q6xPPJxF6JomO4cW4qKAQi3pXsGlbalfy6xjk53Zi1hY80iAUK6D/KuNx0vUVjh9GHAOVZejAYgpHN8133azZiFRU436GRD9NLKHMUBlD6dpst2b1O0POnz7Il7SsxOi3xiIcuf06f2cUHnEFinzw7hYB+gUgusxT4zFauTQkTzdcoQ8bfp5lscwFRyXWyv5AtKrUO7zuHSSgskN5Wqp3tJj8Hq7pV+YenYa0wUEAHXVPpmbBSVPqwFtzWGivzeGC4wW7fpSg59yBs7Uoy19cHnpp+l8LDkiaLqWG6OvTFdbJ0HowcWCrdWylP8urqsdFtf3HXu7vpkAdIMLY2L1LURdG7z0d7rir4f9ZymZ8OPcVrv6ACKQcAa6SMg04PncFHJ3sXzV7um57imJvjbnnBogHYg+kJMstLl0unBdJFcIOFWWXKcPmQlLCafbUyud3IAaQ2F2Y1NA6VWCfexi/2UiWXSh87pwZMHp7CgcjIAqeifpdXc9Mk4fB/LQEyFdQKqdeMmgCArBNI2i4jbnVJrZpIAqVVioj4Z2jLLpCk09RcGeJWVIg4DVOIsCn7L4rHYkbakaRgGaGAGR6ugza00lQdwe01HUxbVFONgjYB4qosFZgWQWg9SfWIUpo90gaHrQXGT82LFxlbTMUBrAMXiPLadYfCBoAtUWDIsGtVkCoNjzqYM0BagokcFGE0HgbfXsBkgywBZBsgyQJYBsiwDZBkgywBZBsiyDJBlgCwDZBkgyzJAlgGyDJBlgCzLAFkGyDJAlgGyDJBlGSDLAFkGyDJAlmWALANkla//ANXY3hYG1TC0AAAAAElFTkSuQmCC'
p30
sS'version'
p31
VV6.0\u02b2
p32
sS'uni'
p33
V\U0001f345
p34
sS'desc'
p35
V\U0001f345 A red, ripe tomato emoji. Looks similar to the red apple emoji at small sizes. 
p36
sS'browser'
p37
V\U0001f345
p38
sS'annotations'
p39
(lp40
Vfood
p41
aVnature
p42
aVobject
p43
aVplant
p44
aVtomato
p45
aVvegetable
p46
asS'wind'
p47
S'data:image/png;base64,iVBORw0KGgoAAAANSUhEUgAAAEgAAABICAYAAABV7bNHAAAAAXNSR0IArs4c6QAAAARnQU1BAACxjwv8YQUAAAUUSURBVHhe7ZtfaBxVFMbP3W0eS2sQ4198qBVFMRgL2dQHi9RYUXBbK2ofpFiK5EnEYp+sqH2SghTUomJBH6qgxryINhZtCyUbsGpFQUr3QVLFFFkb6pudOX5n5myzCWP23tnZ2ezm/mBy77m7mbnnm3PPvZM7IY/H4/F4PB6Px+PxeJIoTZZelUPNXDFaLlsiYQy9FBmG9lY2V16P6jmxrAVaIE7MnGEzNjU69ZHabaeg5bIjQRwipvMU0g9q5ULbI6h0rPQinFqH6j9MfG56dPpQ/Mn/Mzw5PGaMeVvNGKZfTGi2T22Z+lVbciEvgTbiSkMwb8IxB2ePw36z8kDlWPSlBkpflzaj+BTHmqhB6JA4Qq45SMV6Gle9I2pgercyWnk2qisQqIJiOLZAB8UROpKkkV8mcOVH1Zw2gdkpAiQlZRzbGyNNIoyZ15uCWa1DFxryj1IWwsK3WQvZFoFGJkeeQqc34BhALrklamQ6g5+zuOJJcXiBSBolXORJWDIMY5heQ/sRLvAONrzRkNmA1vmhl8wMfu97lD8hOvfFTenJVCA4/Q7O+BCq804mAUHkrkO8R2DVHZZoaXR+BpFyctF3FjOD85zF1F9Vex5DgzjGW103ZSYQxPlZq6eweKhyyJfEwF2/DsVdqGxC2ezuNwfi4udRnO/LpCSfNbnloJGvRm7DUNmNKz4Oc+kIS2YaEfWBzTIhSzqVpCUZ70TVRihZFryPfPKC2rnSEYHqWAiV+6PFYjIVaPzatfdhqh1iQ7cb4ptxepmGo6kYVJnoGxMEh8p/zV15XNCh9zx68gTM+YSdsJj87Ib+GwuXaR86fT/MK+dFYsK5zW8GjyJhITyx7c+LJ/SzlmlZoImr19xNxeIOOPQMztavzc04EKyig4/9XjuvdoQ8YkiZlGcmrumXKfs5q2sw1fC9wxQERxpvRhpSCyR3s3gZHSbaE7c4Ik4Q7S9fqL0RNyQzMbD2YSwBD6JajxhXEm+GLakEkqGEBdwBrFFk4dYqVYj1VtBHn9SdiIbSv7zFRDOeGY2+1QKY/b7DMN6TZug5C6R5Ztwq1B0RR6TMSPiFIGKRn7a5iuQkkN7Zz9viQA7IDQj7zFaX4eb0BzPJOd0qjiB917xpjXUE6WwlD4HdTxAM2c5u9hEkU3mv4OCLyxDbqmUvYO2LlUAyc6FIuw5ZjqxTn5piJRDWPOu12jPY+mQnEJnrtdoz2PrkkoNWJCtXIMP3am1JfAQ1YeUKxOaU1pbER1ATbAWKdihWInYCmfCs1noHE57W2pLYCRTwH1rrHSx9sn+aH+g/h6JXHjeq5dlavCXeBOskLTsSWu16XHyxFsgQ94xALr44/cm1R4aZ9fASrCMogulDrXUvjj44CRT00WHZHVCz+0DfIx8ccBJIdwP2x1b3wcR7XTcQnffFhImBq47iV1ve0MsXnizP/v2gGta45SAlWGV2ddlQq0Z9TkEqgSRMZZeyK0SSHVUT7nIdWnVSDbE67dyGzgQRJ8V2cyOpIqiOXBizwmB9T305IX2SvrX6rlBLEdRI9P6OoVfU7CxML5cv1DL596nMBBJke5qLxTGcdLc25Qqesd5b/AZbq2QqUJ2Ub52lQyaKjN4mS6ItAjWCNdOTuMw9yAmbsnozRPILznUctdNY23yszW2h7QI1Er+2Fw4SF26FuRpD4k5jeMmXy5nNHDopL6lfkr9slmcvfhF/4vF4PB6Px+NpH0T/AfLP6uH9hH1LAAAAAElFTkSuQmCC'
p48
sS'andr'
p49
S'data:image/png;base64,iVBORw0KGgoAAAANSUhEUgAAAEgAAABECAMAAAAV8YMOAAAABGdBTUEAALGPC/xhBQAAAAFzUkdCAK7OHOkAAAMAUExURUxpce1sMO1sMO1sMO1sMO1sMO1sMO1sMO1sMO1sMO1sMO1sMO1sMO1sMO1sMO1sMO1sMO1sMO1sMO1sMO1sMO1sMO1sMO1sMO1sMO1sMO1sMO1sMO1sMO1sMO1sMO1sMO1sMO1sMO1sMO1sMO1sMO1sMO1sMO1sMO1sMO1sMO1sMO1sMO1sMO1sMO1sMO1sMO1sMO1sMO1sMO1sMO1sMO1sMO1sMO1sMO1sMO1sMO1sMO1sMO1sMO1sMO1sMO1sMO1sMO1sMO1sMO1sMO1sMO1sMO1sMO1sMO1sMO1sMO1sMO1sMO1sMO1sMO1sMO1sMO1sMO1sMO1sMO1sMO1sMO1sMO1sMO1sMO1sMO1sMO1sMO1sMO1sMO1sMO1sMO1sMO1sMO1sMO1sMO1sMO1sMO1sML3PRv///+1rML3QRu5rMLzQRr3PRe1rL+1rLsDKRe1qLetxMexuMP/+/etwMb/MRcHIROV9NO1tMOGENeh2Mse7Qcq2QL3ORrzPRO5qML7NRu1pLNyQONiYOsDRTsPDQ77ORvKTZ9mWOeKCNdKkPO1sL8W+Qu5wNfGMXexvMc+rPu1uM96MN+Z7M7zSR9adO9uSOMm3Qe9+SsPFQ73ORM6sPsuyP+nvwcyxP8HHROOBNe97RdSiPOd5M9SfO9abO+1vNMu0QN+KN82uP8a9QtzmnuSANPv89OlzMvzo3u5yON+JNud4M/nNudWeO+tvMfP23NiXOfGPYcvZbPzi1/718cjXZdCoPfj67MbVXsPTVfnKtPnPu/3w6+Z6M+1sMeCGNvKSZvnSwNvlm/728tnjlcXAQ8TAQ/a2mPvdz+54Qci5Qdvlms3acvWxktqTOdDdev3q4cTCQ8bWYPCIV/CGVd6LN/Wsiv3u6NCpPr7PR/739NeaOv3v6PKXbPH11/jErNGmPfrYyfGOYe/z0el0Mt7no/3r5PKVadKkPfCDUfCBTfrSwPa6nvWsi/jGr/759+54QvnMt/OacPSkf/zl2vazk//7+vOgeu51PIgjyKAAAABldFJOUwDU5dIBAgT+BQcT/PQJxejO8hsp3DNz3/itCrhppXYNnrb1W+9fvR8mUYfALghsDw48V+t9IrCETBDCMMsLrJR+QzdUol1GLSSpGETWmfGyT7RjHT+6hXuYip3iOuAWjnnZSnCQS4nYTAAABUNJREFUWMPVmHdUE3ccwIVIJhD2BlGGAgVZlUIY7tZRUbGttXvc5QYhJCSEhFkEBGSJbbHKkln3KIpb6+jUtra10+699573u+SSC8lB7vijr9/H492797tPvvv3/f2mTPnfiYtQJPbyEguFLpOB5K0Jycl193By8nC/aeHNqxfL0qeyp7jJVofyPCEEskjAbe7hIfPTWWFmRgU6SyAIU51XQ1YiSIm++3qhoybJYnkEBULU7cMdBmisCPxz5juEmhXrT36AqEaUD5ZqIDvifOu1E2ISQ5wExtWqxioUH6aZRvOXwCN5AqWuWRJgWlvyfhUMo9+UUN9iUL+eRo1ME4+D4cfwzD/fW4vCMFxPqIFhkLrVoB9sOkn3vGQJs3nxCVLzOvVJwIHrKxFVw5W+bR0Xi2F8BLPyVPQsBo4ozNW8COvtASB0x8Hqsh4YxXEcRYv11iAo2puB40lbNACTot2pxVHjI/rOobHRs6sTP4HkYKRUbm5C8ysq8mEYhynp7Eds8mDOUlvQSilSWYmpGkYbP+kbHCzbCp85fbomn6Lg2raDthxIcpfbWI6Mh+hG6gc7e+pwYAt+4svPT53qet1IwstLH1Yh9lJzRcQYTno2hDUozZZUHD0sB/IiCaq7vN5gF0OIx0zr8rqPyMPWAa3Jr/k1XSRH/jQAKQcMCBMHkqRZdSpfsrw0o7UwGaP8Mx+RnMMnKohoXdJVQsziQ8+BoIWm+tKNlF0iDITf3bVHLt/TdZS0rHxntZoZJEijga6LpAoD0Zx/qA7Y9squZ1+qqTCFTHllHJWcLF6aNodW4pptpHFb84k/KvhoTzvGCJJEWRSipTR2QAnbCvpauwZjcngo1VHiQ2lv1Y1UReA4naTsrt99yD7oHqoN+EpplhmaTKDazg4lSkPhcOlm+zq53mvkTJ1Le4m1a40aXG5Q7b26oxil1ELxWsbYJRhBYnfau9Y28ku0VIdBCKbRN5b2aKvKy8urHmnrZXT3/cacnEd3tZ5sQ3itHjH1V4PuierR9fVXda2MyQ1li0jQLTTOF90k5+KjFqcRTQVBiP/jZFIw2QLcpls+6m8jkhGv6t6NQGzEIwuAbvAxc3SlREtVdjB0DGbhTQOgxUYXFRQqEF1bx3Dfgb0sMRQoBDxuHGr5cLsCUqs0JRjEWjKAaS6x4HHTW+fe+/TbAoib5MYTICGoj4I33ia6z8ebOILW8kHQgomnwpeLCNC+LRxVCgMuysokPNT8GOiHx1sKOXECYsheROz2iheeB6CiDQ9wAvl7U6CCLfsmAzImdlAcAL06CZDAjxxRRYEEaPsxEvQkJ5DU17ij5RA+2v8UAD3DzdnZpl3bD+TRcyD8H7zJBeQaQ3X+GUQeHTlOgI4RRcJeoqkREFS/Yj9IpO+HuCi0wDxfgU2t8MhX8qIfuSR2YKJ5V0sAw/mFDT/98AsHy5yTLPu1NzlAKC4ohiDWJEkqnzbzrSPfDf3965//sCWtupM+0ySlAC+1nJP/9TtL0HJf63E2HIB++1kuf5xdR5LGjDm/3e5M+Oi7P9iCVoSMPVbyU0Hgvj579rONLDieYfE2o/FS0CYLmpsVrDgiO9O673JyL2HBifQT2T0/rHRmFy+fRXyG42cEG5Ikbg3jedsl4g6HOSmxeeMdiZdlOoaZkbuMP8GpONzTAUxw8uwJD8ZByXEB4/vGOXSBYxcI4qhcqYCRMt1PJnL4DiLL1y+QF2ljkE/G2kWyLJbXIsK8pIi561a5ZzqB65WMwBtTo+Z5J3K/7xHO9vLyEouE/Mnc+Px38i+Dkly0hCsoyAAAAABJRU5ErkJggg=='
p50
sb.