ccopy_reg
_reconstructor
p0
(cemoji
Emoji
p1
c__builtin__
object
p2
Ntp3
Rp4
(dp5
S'emojipedia_url'
p6
Vhttp://emojipedia.org/railway-track/
p7
sS'index'
p8
V488
p9
sS'code'
p10
VU+1F6E4
p11
sS'apple'
p12
S''
p13
sS'twit'
p14
g13
sS'gmail'
p15
g13
sS'related_to'
p16
(lp17
sS'name'
p18
Vrailway track
p19
sS'known_as'
p20
(lp21
sS'default'
p22
Vtext
p23
sS'bw'
p24
S'data:image/png;base64,iVBORw0KGgoAAAANSUhEUgAAAEgAAABICAIAAADajyQQAAAGk0lEQVR42u2ZeUhUXRjGb4uVGu2pbShSWUQTFaklYjIR42BoK5WWRWWrlW1Wttle2GKY7U04JURSYSu5NAT1R6ShYUGFlEbRQhvfVGb5fT+8NJ86o7NqjpznD3HunLnnPPc97/M+77nSv80UkiAmiAligpggJogJYoKYICaICWKCmCAmiAligpggJogJYoKYICaICWKCmCDWmMSePXt26NChJUuWJCYmarXaBw8efPv2zYmJ/fz588yZMyNGjJCM4OHhkZaWVlFR4WTEysvLDx482Lt3b6le+Pn53b592zmIVVZWnj171sfHR7IMbdq0ycjIcODivn79ylbPzMzMzc19//69Y4hlZ2cPHTpUshItWrTYt2+fPWTevn2bkpKiVCp79uxZ6+YDBgxYuXLlnTt3fv/+bQuxgoKCsWPHSnYgLi7OkrmrQ6/XE+2wsLDWrVubvX+vXr1Wr15dWFhoKTGdTqdWq3nqkt2IjIz8/PmzWT7s9ry8vJiYmPbt29swS9++fVetWnX37l3j5yghd8XFxbt27VIoFJJDgVpqNBqWbpLS06dPN2zY4O3t7ZC5vLy8YmNjjx8/npOTU1JS8uvXL8mS0NsDKgQV7/z5848ePUIDyJ958+YNHz68QSdtaFL/Izo6+vXr16dOnXJxcZGaDdgk165de/XqFcUjKyurbdu2zYHV0qVL165diwVbt27dli1b5s6di4Nxc3NzblYqlSo9PT0pKWnr1q04TBzMwoULL168iJR16NDBWVmhtHPmzJk6dSrhIsdmVWHFihXTpk1D34lbly5dnIwSlRD1Q9ORXRKseiWlukDvxYsX/F9UVOTp6ek0rFq2bDlz5sz4+PiJEycSq/nz50fWBN8uWrQoKiqKDblgwQKz9rpJgAJy7ty5UaNGhYSETJkyhX04efLkkJoYN24cpWz8+PH8HxAQcPnyZV9f3ybNCnd/6dIlw64jwXbu3GnSdkAe2ph3+SOVAIPbRFm5urreuHHDsPSrV69C7Pr16yaJffz4ERe7bNmy6qZ+yJAhTY4VFnb79u2Zf3D//v3g4OBt27Zl1o1NmzYRtFu3bhmu4EuGDRvWhFh16tSJXEIJCRF2293dnRVjcJH4en5FplHcyDHMZPfu3Yleq1atRo8e7e/v3yRYsaa9e/fCx/8P6AXxuJiM8PBw/7oxcOBARiKbCGNQUJB8kR+iK3Z2gw4ATe7jx4/p3mf9AQYqMDAwNTWV6jzLHI4ePbp///4+ffpgTQwXT548+ePHj4iIiL/Gilbq+fPntVSBjmjMmDHYwu/fv1vSODOS5KTi1bpeUVGBQfkLrPr161daWlprNe/evevateuFCxeSk5MtPBEoKChIS0sjaFeuXKn1FU0xSduorAYNGvTmzRvjVc6YMQPBwHN8+fLF8tOOxYsXo4fEX6/XGx8cxMXFNRIrFPnDhw/G66M7bteuHX/RcauOcXQ6HcQoYlQ2kwPoehqcFV7p9OnTPj4+3jWBuPfv3x/vx+PfvXu3tzWIrgKdKHbsyJEjxgMIGurSgKxCQ0ORLGrxxo0b6YVpGeXrPXr0WL58eefOnZFHFoH0W9sK4Lw0Gg0qP3LkyAkTJsjXMZk4rz179lAnSTbytkFYqdXqEydOUEOhcbgKeAtD30W3z8QYeWqaDTcnOdF3ngudATu5Y8eOXFQoFBQDSoJsI+kJkBkGOJIVcswExMq9JujwWZBSqWRzUtBmz56Nk3C3Htx5x44dtJ6snvhs3rwZP208bPr06QSWh+uwA6abN2+i4+vXr0+sCZpIMoox8s6k84dYovVgCpKTAlhSUoICYdDY0sbD8CVILq4S2g44YKKe8JxMfovN9fDwQCep1JMmTWJlNk9EQFAIgpaQkMDHAwcOmDyok0s5TQPNhO2seDyy4JokhkLK+pGTk0Nyk3V2PkRknXtSS9gdKBBOsi5iIC8vz7ZTcYnQGyoJAUk3ApKFoKlUKvYPgvbw4cN0+4D5kDONcLEAiofxGIqeYVX37t0jIa1jVVfnW93LDR48GI0qKioiXLRVDnkh9unTJxIJC+Lr60siPXnyxKwj69atm3UHTPUjIyNDfu2AYGDnHfiyb82aNZR77sn9kUGz44uLi6lA5g+YKFaWTH/s2DHD6Q2u14HEcKGG5KEZtfB9f31vbeQDJgunNxDz8/Oz9h2fWdB6WkUMvHz5kobDNCutVvuPxUAwcqvATtA7GmVlZfLN8/PzLV8ScTPNrZnhP1fzt/xNxgRUAAAAAElFTkSuQmCC'
p25
sS'version'
p26
VV7.0\u02b7
p27
sS'uni'
p28
g13
sS'desc'
p29
g13
sS'browser'
p30
V\U0001f6e4
p31
sS'annotations'
p32
(lp33
Vplace
p34
aVrailway
p35
aVtrain
p36
aVtravel
p37
asS'wind'
p38
g13
sS'andr'
p39
g13
sb.