ccopy_reg
_reconstructor
p0
(cemoji
Emoji
p1
c__builtin__
object
p2
Ntp3
Rp4
(dp5
S'emojipedia_url'
p6
Vhttp://emojipedia.org/potable-water-symbol/
p7
sS'index'
p8
V518
p9
sS'code'
p10
VU+1F6B0
p11
sS'apple'
p12
S'data:image/png;base64,iVBORw0KGgoAAAANSUhEUgAAAEAAAABACAMAAACdt4HsAAAC9FBMVEUAAAAANZYAJlkDLqgAQIMAQpkAOpYAAAAAAAAAPpcAAwsAAAAAL5QCNrkBIWQABxcAPF8AQIsAQ4kCJ34BJG8DG04DLqUDLKYAM4MAQYoAQ3wAQnoCK5kDK6QCKZUEKZcAAAACKZEASooAQocARJUATYYATYgAPXcASpgAQYAAT6QAYeUAXuUAYOUEVeMBWeQCWuQEVOMDVuQAXeUFUuMAZOYGQtIAY+YGTuAAaOYAaecAS8UAXtgAUcYCVuMDTdcAY9gGTt4AWtcAW+AAVtcAQ8EFRtYEPcoAZ+cAAHsAYeEAZuICV98HStwFUeAFP88DUt0DQMUAAIsqc+gDStFNgeu+zPeTqfFtn+99ovACPboEN8F1iuyZo/AMPuAAL94YXOSbuPNfjOw4cegMXuRvb9J7ku1IdOkhZeZdhOtUp/Bdq/AZhOr///83l+7A3fgAbs0DeukwlOwciOssj+wAaMXz9/5xtvEYht4AZsBgrPAPguuVxvPMzPBpsPEhiewAV64Ab9oAdOgAbedPpe8PfupRpvBjrvAAAMk7me4wkux3t/IAcedZqvAAb9QCAsP3+/4JfOklj+zb7PzN5PkAcOcpjuxIoe9Lou8AWa4Aa9pKouuGv/QAYcUAddsAbucAALYAYLgAYbwAAL0ATOHV6PkActsAAJmamuELeM0mi+wKb+cJduhCne4AAKbI4foAFNgAANKBgdXY6vwXgOpaqvAAb+dWqPDp8v0AdOQAXcgAX+QAaudNpPA4mukmjeg+mu632vk5mOMAVajm5/oUfc80lO02NrUAbuMYGKXU5/hBnesAV7Smz/UAW8csj9sAbOdzs+eizfAAaeO8v+8AYsgnhusAXOQAVsYKfuVJSbjb2/UVh+sAH9miouArK8ADV+QCWOQAXuEAZuZkr/BFoO8AJ92urufd3/oVftAAXeQAaNmuru9paeUAYuV1ddoPKdonJ7lXV8w2NtSWlt9FRdT8/f9krvAAZebt7vsAYuYAQeAucBglAAAAK3RSTlMA0gTS0NLSJh3SIQ7R/WIrCNzQn4BK4tHBwm5F2NPGvhXJT5XOJCuR+7f+706xPAAABfdJREFUeF7ckkVv5EgYQFdRJ1Ju6T2lk1uGkv5pRmhmZmYMMzMzMw0yMywyXLbcENsdT8+e9x1KJX3PT3JVffO/oqb+RpNA8O1XEAiabtTX8AQq6gSN4k1jylgeIGyKGwV1FaWBa7WNqXaVjOjf/lCW7X5CpmpPNdZe4wbqhZsdMuL0/CYePeguw0EUv3l+Ssg6NoX17MB1YUpFKLVzwbnJ6GhZopNA0ioJVUp4nfX/IqOM2OiWr2cVev0fZdHrFdl1efcGITOKmHOoE6v8G5GoB4bVDsfrsjgcahj2RCMbfpW47uL+hO2EEsfhacd/ZBrGcSXRLizeZoNY5lfgsE9dCmzHzC9JzA6XDnwwrvDLxA2FwJUjQnnsgWCG2aSLojCX2+x89vOzcZJyYRS1lpxlBMhzrCSOrhQCog7/ihbyTV8AYR+dnZ0BpzPwDkXRp06w6ex03nJBF4YP0q74O0SFwNVmU0Zhn2VIaH7T6XR9fRPge8CvE319Ot3tXx4nGcWuyJiarxYClc0tGbXVzpAI/4Ve5n04wShWdaalubIYuNNy6Fu2spHzBObYwrLvsOUOK7ACJTlkI8FIBF/vzgWi66ORSHDSwzGgFU6Asib4WB4FATzJN7JSnIA7+YaHx0/GQGDsbZhnlnRzAtLE8GUod/4styQ7l4cJKTvQszq8xoM+mAvIIZ7Z8GoPN+D6OlhYQ2rCWF7gBBZ6VtewUtzhUFegjSbwXCOlB/GltpG2pXheWFvtWWACJgTbYSGVkLE/u544d9E8P413ff/KQobugf3iQN7BENNFoHrB9MDNIJXMjLWN9O7vThTf46OH+729vSOLMbAn4wXtgWmhmgnMS9zSAnFkMfDw9hZ6mcUQWGzxnOWWzHMDpEEazyOxjD9FeSE1YAkN0JLUQLIDJ+l5M4kM5DCEun5A+ZmaoisG2kJI83z6hBMwm0OIAYC0/ihH+bHZwGKWACcEdFagKhfwxrxDtinEdus79AtI6IDXZhsCai5QVQzcT+95ATGLpdXb+uLzlwIIHbi3dGaZoe299H0m8IkOxGIzrWdLf//zKGdr797NBguB3z1TQ4ODg/9WXu+sbXNxAIeTFl4ZubELviRDkjqzJEu+qLJlV4qS2k4TX2Lnfu39NmTtF9DaNbOXQDt1NC/kjBk6GhxQl4IVQQgqaAzGXXqsI7lSKL48YIPN//x08GD4pzUY4IDcOD3tBX65AqdQo9GQm50z9BO8aavqxjb6J9lS24JAKzoBA0Cuwzk4fSdQb0D1ugwAcWKihVgymXq993Lv1YtkLKoyOmmwHS0NmnU06wostuR6jyw3QRoFdIVR40K0R2jTjEJS6DyQZXNWbi26A6Zmswn4tNbhDIokEwpN06oK35hEAp7nWE3jAYAzMuQMTD5ZbDURAAC/omks1yVgQlcQnSSpLte7AA9gAWktPpl0BACiqb+fP782/T5jznXTOUWh8ysrPM8DiyuQXUvzpsT1t1rtC1SrffuZJBGKMAyjd97EI+m1rDuA6McnfccCQRAUfBkQCwM9advdgGZRLj5qWkfrsB8ulK6BcBAMwG81B2cgk11lLdz2O7LLsl3y/TbX/QsWTB22bzWbcQYMDiGPvj4zvT1KdN04F8MVWLoiLNThieWQND9DhMkwCJerJXfAtmUHtghXABoYOKcsG3Zggxro3BF4kHm6rJMW5hYFbhlyIH35aeaBHcjBQMISv0GBm3hiIBjIOQOKTbhEgUtBGcwRmMmJRaZvBwV2mCGKYm7GCgT2N4t03y4K7NJDFDf3A1bAN7W5LqhjEtY3p3xWAJ+titH2mKJidRa3ApEgvEJUiI9BiMILBCP2suRfqIrlWHQMsbJYXfD3Vyc8FC6IUjI2sqQkFsIhfMLmxXzhQl5KlZMjKaekfCHsw7wTfR4sNH9QyZdKkpQaQpJKpXzlYD6EeZw7H475g3NThcrjEVQKU3NBP4a7Nr+HOIb5fYFH09P3h5iefhTw+TEMv7N83vNgY/Gg5zt58dEDuPffy3Mk4hlBJOK8/R/a1x+WvnTmsAAAAABJRU5ErkJggg=='
p13
sS'twit'
p14
S'data:image/png;base64,iVBORw0KGgoAAAANSUhEUgAAAEgAAABICAMAAABiM0N1AAAATlBMVEUAAABVrO5VrO5VrO5VrO5VrO5VrO5VrO5VrO5VrO7///9VrO6Vy/Rgse/V6vu/4Pn0+v612/jq9f2AwfKf0PWq1vdqtvB1vPGKxvPf7/zn2ibSAAAACnRSTlMAYL8QAEDfUO+AOe1yPAAAAQdJREFUeF7t2N2KwyAQhmGTTEzyjfn9abv3f6OLUNyygYmLQxsW3zM9eEBzYsb4ipITKouKiAxRbTkxW3uoYYUaMlWrAbWV6SKBGRgFqTM2EgIAAbJGAvoBz4beQ6/r35IIDQh5Aq/rP0EQUoNu7zua/mXLn//SUIbu+zBBbIyB3ILzzqG7ZxQgB6hADjrQCiVoUYJ2KEGLEvRAdLMIjQhN28piIvT14/TMCRBCjpWgVQvi/wvdLnK0Gc/mBEjoA9AYDiPsRkB9uF5h9z2Q/Fj4IJShDB27IpShDGVIfhUvJ5CN/QFxolMexz7bhGOYNhYrlAZRVms0VusM69qGPESUNj60XUVE3zgo2fTja3DPAAAAAElFTkSuQmCC'
p15
sS'gmail'
p16
S''
p17
sS'related_to'
p18
(lp19
V\U0001f6b1 Non-Potable Water Symbol
p20
aV\U0001f4a6 Splashing Sweat Symbol
p21
aV\U0001f4a7 Droplet
p22
asS'name'
p23
Vpotable water symbol
p24
sS'known_as'
p25
(lp26
sS'default'
p27
Vemoji
p28
sS'bw'
p29
S'data:image/png;base64,iVBORw0KGgoAAAANSUhEUgAAAJAAAACQCAYAAADnRuK4AAANv0lEQVR42u2dHdQVbRfHB4IgCIIgCIIgCIIgCIIgCIIgCIIguCEIWisIgiAIgiAIgiAIgiAIgiAIgiAIgiAIgmDe93fWmvXcz3nOzN77+p6Zvde6pHM3Z87M/9of//1xdb2LS4R0/ghcHEAuDiAXB5CLA8jFxQHk4gBycQC5OIBcXBxALg4gFweQiwPIxcUB5OIAcnEAuTiA5ix//vzpP3/+3L98+bJ/8uRJf//+/f7WrVv99evX+8uXL/fnz5//z7p27drm8zt37vQPHjzonz171r9586b/+vVr/+vXLwfQUuXbt2/969evNyC5dOlSf/z48f7AgQN913VJF9fl+gDs3bt3qwHV4gDEi0OzoFFOnjyZHCiWde7cuf7u3bv9p0+f+r9//zqAWpXfv3/3z58/35iaHNolxTp69Gi/t7fXf/z40QHUirx//37jlxw6dKhJ0IwtNOPDhw8XYeZmCSB8DMzDnECzax0+fLi/fft2//PnTwdQCcG3OXv27OyBs70OHjy4cb7nCKRZAIiQG/9macDZpZGgFebkcDcNIJxjVHxOx/jEiRMbcF69erW/cePGJmq6d+/evxb/hq8FF8Tf8n942bnu6fTp0/2HDx8cQDECSceLShkFARD4IEwh/FCsfP/+fRNVoTW4Ni8+JZC4ZutmrWtR66ANYh/+kSNHNtd58eJFErBoBWb66dOnG1IxheZE07GZHEAKgXCL0To8bEDDAydd0cJmAEwXLlyIBhOmvIXf1CyAyC+FPmR4FcxIy7zKly9f+ps3b0ZxVlAXJbXpLADELiWBGfpAyXPNKWrBp8EPw8SGalkIVAfQ/+XHjx9BvA4aB0d4zvkltCURHhxQCG/06tWrdQMIlU4G2/LgMHGkAJaUmCSSw+EO0UaPHz9eJ4Bwlq0q/OLFi83Z/5SCRoFqsIIILbYqAFnBg9bBZ1hqOcS2SSdis4IIonMVALKCB1+HNMbaBK1ijUhrgagYgDA/FvDA5xChrVWoOLCaNPzDRQKI0NVCELID12CyNCbtzJkzJhDBvC8KQGgR7UMgPKWy0OUfgX22RGk8w7dv3y4HQNq8FjYfbsdlt1y5csVENpKTmz2AHj16pN41MMou00J23lISUsKHzAYgiEINy4rmKW235yyWSgUSsLMEEMjXttRofB5CecJUyESccRjsGovvpvS0dlbcAqLcmj0LgKje0/w4MvCSoJ1C8kU5F2RfzSjREpiQ/Seamw2AyBRrSDBApiEeWwNPKykEQKHliSjFnQWA2JWask7Mm6Z2B3PRcidF7fojCue0jHWuqsakANJEXTx4NItGWu/EYMBCbYF91vbu54jKkgEItlnTqWCh21MW1S/RjA1a/9SpU9XyZckApHGciaIszqf2wdRarRCfUCaaUlnMXeqSmCQAgvWUbDHaieIpiwC4VsGDA9tSspeacG2rUHMAwsuXbhz/yCrscNc+etGE9mz0lGF9l0J9StqH4vdQ3iSkwCr3osCtRYFw1URlKRnqaABp8jMxM3EAHo43EZmFNT527Ji6AVF7Te6h9ZwdrUMlycUoABF5SUQfLTs1BGdxLqF4SsHP1ETDIS5FcgBpeB9MnAOorGgIWCLc6gCSnDaiqFqyZgDx2zW+kJbQzQIgvly6wZKVcQ6gf4smY88g0moAwpOXVGTNjPXaAcR8IU0AEVuaEgwgKRNcu2ty7QBCNInt2KgyCEDwDaUpc6tQR6StHyZShBhscXxKjGgSrbFmLAhAaJdWnWf4Dex/yKgYuKNWhhaUcqZjo7EgAEltJrXMF3Y/dGzK/kUHxFK0kSa9EWMtzADCMZZeUg3zhS+TchintXKgVaFsOGczohlApCWkasPSYqnMa7nLM4dApeTM0JsBxMy/WvW3uwSmO4XZGqvim7sWouxW2lyYuWIAkvif0mGxJlsPqPGP8GsABCQo1YSanNESDkeR6qp4DqEbpUv9wkq11GrUMw9mqm5HM2JvCTyRJjcW+t7MAJIIxJJVelM7i5IFjfaQarlLdHfmFol2iSEUTQDiYbfiQFO2MGXbLZqDYvPWylFSCr16KZo8owEk5VfgT0rJFNOMWbLY9CnCjSKyuQubLVckZgIQai53djcFvxGym8byRjERSivCZpIK/0I3vwlAmIWpm6AzoJRMlW6GOL5jbUmE8ksQqceOuvXsAJJYzZJ5pKk+tBAAjUUqSwGQ1OULwLIDCO5k6iYYDDlXAI39NqJOfhcL/sja29aKSPRL6EYxAQgfJ3WJJP9neEGWNRXChwBIkzPaBhaZbHwH2nxIp7TMWkudw9Ae2QEk3URIEjXHAIUQAEn+nXYWDzuda7V2UJym9dwBVBlA21NICI1bGZTuAJoZgLYnmtUGkgNoxgAaFtRDraFUTQBIapt1AOlOia6R4ZcABBNfPYwPeTBTAIId5nPrChnnxv+xfg+5v9AD40pP5JfCeOrBswOIcDU1DzQFoJK8Uozg3wAI60nNqfrTNSIN6yrCA0nViCEzc5YAoP0C0bi3t6cGEs+0hEhlOCSgswNIGvgU0o2xNADtB5L2kJQSLeDSPXCv2QEkNRSGDHFcKoC0Zn9gtXMOA9eUc4QWzpkAxI9MPQto6QBC8I8kk5azcE3qpImZumYO/qemgYbY0TUASAuiXKZMM4AztIXJDCDqRqZyQdaE4loAhOBcT73EXNWPmjGEoUy5GUBSRt56I1MAwjcYm1eIyqf+qEQGnO8ggAAAVAFwz7QKwYsBcss9TG3AmBc5JVJ7M5oxtJXbDCCpwt9KkMUy0RBgOVtvAIhUzcc9MAlDAyTpABnY/pQCMCTTGdMMYQaQ1IulOYUnJYByjt6lStFCDPJbNGUcU6YMcKUsBdE40EwzKQYg+r6mdpCVEk8FIPyvlNWCluMlrR0hAGQKmClHCWsK5WI0eFAKVurmtFQmpkympurLn+oTS3UIy9QhuqE9WrtE0/odk9wNApDkSFtOsUmdjY/NdOPDpSgmk7QhAUDu/jqshdT/T6ASE4gEAUjqdLT0UpEFR4VqlzT3L+ZYBSIg6YGTlMQ3YhNN5Zf4m1BXINUMZ82Yv1itHQQgXpB0vFCKGcS7hIIs6UBfAB5yXegBKXu+H5xomTEQadpkxlwBxtWkEE0ursqQTUQqUMpxuJk2FLa2NiPSXOUxpnaK5ZUmXkw56rGCoy5t8hQRX/CdYnpyzyCeEilJaam1kSKVKTU/FVFJnNjUbygRfaXIv0XdqaTycxJ8gFM6kUfTKSvNVsQnknbpmEmVMtxT9VWxzLn0blIdxBt1p9LgIhzenKkGadjDYErH7oFdKhGFmk0w1uQo1dhM1WHnjiSxECneTdSdao66zF0sNcWn7I9q8FWG0BofSuNgwqFoHvKYP8gGqgEgiafTRIlFAKQhquB5cmohwmHt4XKWxcbQJjZDJ3vkAJBGK6eMkqMBpBkjm/uUPzSh5tRiy7I44WMAklplcgBIcz5GykFgSQ7dlUoUSpzcA0hTzYrmAVvud4rSKAkgqekhR8lIEgBptFCJg2opvYidGU1oax0UKo2aGVspeSDKjaXOi8GvSyldqgtJWgjSqsQRCHxHyHnz3B85vBBNqWkbti6raA7bzVHlmQxAmhMMQxjiGG2ENpE0Ep8TkcSUgtQGkPaohxxDULuUF5Oy9NZMfSphuizcCN89LEwIxySkAHRNAGmjUIKMHBYgKYBISEo7np3CC12S1ASQhgdjUXKbQ7rUF9RMuWDHtDbBa44A0hy7ntt16HJcVMOE8jdLOdStBoAstEXOcTJZAIRvoTkJp/TRUEsReBwtXZGbPulyXZhMuGaHEAEt4WTAUoIjrMm0D8nc3M+2y3lx6WyxYdHm4iILVIM278fflRinlxVA+DiaroDcFYxLEJhmqcHRetRV8wAaQnvtD3cQjZstacJYTHdw0wAaHoAmT+M+0W6zpfV5argDXakvItWhLbmgwL3kyYctR1ta7T08t9Kbryv5ZeRstFNNqWvJObWrdYHnsdQ4wUjX4NW60l9I6YcWRJi9EvMDWxI0CL6gpbaJQKWWxu5qfCmNfxqicX8Cdg1+EQSsxVlmUbpS09x3tb4YzWJR0aQ+cnW7tqB16BCxluXi89ROB3U1vxxAWAriUeuo91rnTeTSxpo65l3RVgtauat9A4BBk3zd9o3IRM85GYu5wvENqeNOOf5l9gAaVLjUmz42mo1C8jkBiQ4SfmsIcEigthZUdC3dDGAIfbCYtpbDfkpsQzXOkBgtUVM+awAh5HAszOt2YTxRCRNVWyhYQ9vArFvIwLGSjFaj0K7FmyIstQ643AUmdi1TZSmhLWHmeMmYGKoQpBlG2siz9fLfruWbw9HUZvM1Zg4TgqnDVBIBxpg8NBwvl7lBAIYW7lTdsVxHOzbYAaQQXlKO/vdhfAvaAgCgsShP3V44vXyORsC8hhwyZ0lJtOjrzBpAg1ljV8Z2nra6AOgcj3bo5nbD+DLwINrykNYXGmfODHs31xsHSLQQSS3VLS60KH5TK2fKrxJA+wWfgYRrbLicc+E30WpNmcZS2pkWA6Btwg4w4fDmdHa10RSOOdPRllrb1PULFvJs7HgSjzipOR1wOCuiOXwanH0I0SVpmlUCaIy/gewjGctIlCFE5+UToo/VKUEj8DlT+GG7GSSBpqOAfS1gcQC5OIBcHEAuDiAXFweQiwPIxQHkMmv5H1GPCbEwDiebAAAAAElFTkSuQmCC'
p30
sS'version'
p31
VV6.0\u02e3
p32
sS'uni'
p33
V\U0001f6b0
p34
sS'desc'
p35
V\U0001f6b0 
p36
sS'browser'
p37
V\U0001f6b0
p38
sS'annotations'
p39
(lp40
Vdrink
p41
aVpotable
p42
aVsign
p43
aVsymbol
p44
aVtravel
p45
aVwater
p46
asS'wind'
p47
S'data:image/png;base64,iVBORw0KGgoAAAANSUhEUgAAAEgAAABICAYAAABV7bNHAAAAAXNSR0IArs4c6QAAAARnQU1BAACxjwv8YQUAAAPfSURBVHhe7Zk9aBRREMf3nZUEjBZ+i6ASk6iIhYXaSkAsrCysBLEUa4vkqiS1YK+FjXYSQZGgleBFEAwqRiMqiMEvJHeidrnnzMu85e1kEbydWVTmB3sz7+3dzu1/d9/Om5cZhmEYhmEYhmEYhmEYhmEYUjiyIkxOTu7pdrtHqZk55zpjY2NXqanCxMTEae99PzWzRqNxb3R09Dk1K9MgKwaIcilu8MfPU7caGCONSd1iiArErxz84YPkqsFjSN49iPgdBFf0EbmB8fHxY8Mzi2eHH37dS10FBmcWr/1m3zS5KxhqLV7AR5qaAR5bAnGBgB9kIwNzh9Zd7vrGjeFW5zj1BYZm2ldc5k7BvotcJNo3giKl+9CPwqXjHcFjV0ZDoNdkI7vxA062zzt/C05ufrDVfjzUaneg+wztG/F+1TSeOAgzBdsC2/cMf4Mb+tjnssZT2L0Vv5PAY1dGQ6AvZCMb8MP77DNaOLkB57ID4KzBduazb8Fm2RY8cbAn0A89Cfib8Dti7nD/bTDrl1s5PHZlNATCq5+yEz+c8/cTMQIg2qxrLB3xmb9OXQn+gXNL+8C5udwuEPv2k43w2JURzYMikJt4cnHgXGg2m9vQxzEIHrOTIMhquDJ3cWwKXwJ62QdxXoAZRB+BnEv8fFQEgjdXG16/efKm8ccRdiE6cCHWUlMMjUcMeUU2gNkuuWJg+kBupBBTCi2BPpENwNXdTq4kA2QjhZhS1CIQsIOsJCF9SPinBJolG9lIVpKQPiTwmCKoCAQDNCaBKRoChfQhUhJTBBWBSkocfLyQYDPZgFZZResRC/kPuXh1+/nEsipwzHyakcaSRk0g4APZQMnEsmdK0oZCLEk0BXpCNsInlj0Dd0yehBI8lhiaAv0kG+ETyyrkk1aCxxJDU6B5spFdZCXgb0UeSwxNgQqpPwyqm8iVgAukMs1A1ASCieMdciP5rFuAQtpQEksMzTsIeUk2UDLB7AlMG8hFCjGkURUI3jYfyY1UThhB5MJSUkkMUbTvoNL6dEX4K168Dp2iLVBpfboivDIgXodO0RaotD5dEZ4uqE0zEFWBcJ2c3EhhgtkjfWQDJTFEURUIl4FhEM3LEOkEs1fgGPlSMx5beqmZo/2IIWL16ZKKgFqCGKlDILH6dElFQKXMmlK7QECV+jR/RP8Lgd6SjVQpv/KKAD+2OOoCwaD6jtxIFYEKS80lxxZHZcWTw1dAwTSXW38GCHIOjOpSM6cWgWD+9F7iFZ8CQudr/prUMQYhGjVjtTp0Sl0CvSEricYxV1CXQN/JSqJxTMMwDMMwDMMwDMP428myX5gWTAUgHtJlAAAAAElFTkSuQmCC'
p48
sS'andr'
p49
S'data:image/png;base64,iVBORw0KGgoAAAANSUhEUgAAAEgAAABECAMAAAAV8YMOAAAABGdBTUEAALGPC/xhBQAAAAFzUkdCAK7OHOkAAAMAUExURUxpcQBsogBrogBsogBsogBsogBsogBsokOIqABsogBsogBsogBsogBsogBsonijrQBsogBsogBsogBsogBsogBsogBsogBsogBsogBsogBsogBsogBsogBsogBsogBsonijrQBrogBsogBsogBsogBsogBsogBsogBsogBsogBsogBsogBsogBsogBsonmkrXijrQBsogBqogBsogBsogBsogBsogBsogBsogBsogBsogBsogBsogBsogBsogBsogBsogFsogBsogBsogBsonijrQBsogBsonijrXqkrQBsonijrQBsonmjrXijrQBsogBsonijrQBsogBsogBsonijrXijrXijrQBsonulrnijrXijrQBsogBsogBsogBsogBsogBsogBsogBsogBsogBsogBsonmkrXijrQBsonmkrQBsogBsogBsogBsogBsonmkrXOhrXijrXmjrXijrXijrXijrQBsonmkrQBsogBsonijrXijrQBsonijrQBsogBsogBsonijrXijrQBsonijrQBsonijrXijrXijrXijrXmjrXqkrXijrXijrXmjrXijrXmkrXijrXijrXijrTmGp3ijrXijrXijrQdvo36mrk2PqX2lrXqkrXijrWSaq3mkrXijrXijrXijrS2ApnijrXijrWCYq3ijrXqkrXijrQdvo3ijrTmEp3ijrXmjrWOaq3ijrRJ0pG2erBt4pABsogBrov///wBroXijrQJtonejrXairV+Yq2mdrAZvowBqoXGgrBBzoxR1pGudrB9+rjSEpwFsoj6JqFCRqV2Xq22erC2GsprF2wdwpSqApkmOqQlwo0CKqGabq1OSqiB7pW+frB55pRZ2pAtxoxF0pDqHpw5yo1qVqoi71HKuzIa50/H3+sng7Pr8/TCItP3+/keVvNnp8UOTu9Xn8LTT5F+ixe/2+aHJ3d7s8ySBrwRto4O30k2PqUKKqBh6qxp7rDiGpwxyo2KZqy6BpjCCpht4pDeFp2Saq3OhrSN8pdzSDtIAAAC1dFJOUwAPDBr+/dwCAQYX8nAJ/AMjNwSgLUbZ7Im19Jzp6hWpBRHfrZkd5yB299U+18eB3gklJ5TUrLCyCFLtKg4vSqXLX4zKVXjmWyPbhlWu5WLPOhNlMZGjNvPDD/f5+EIzP+9YeWg10pb7Pk35enE2fuLzBm7B6II5HFvuqKH9Yl65wPpyQb5PvVgoK5/G7TJ9pwzGPJecuR5QfPEcdFbLy/vp4a51pUpmv4ezvOySGOvxnoW5p6x/R8gKAAAEH0lEQVRYw2NgGAXDFtiocnFSwRi5HEkTZ2lRIUrNUVXm2woEakHslJnD6cSyFQzEDCkziMsBYs5WKUvKDGI2gRrU6Ajiqtu5xNuQZRCTPNQgPh6g83hSY7YmVKmTaIRhXLCABYOgGtCUHQcObDXRC9FtBJspzERKILtIsiWIi5k7CXNv3bH/6Jn353ZshQFZWxIMsrSC69v65OzLN+/OHoWbxB1PgoOE4cbsOPpoOwh8/AATkREh3iDGerhBB148BBv09hxMxJ6EMGKShBu07curx9u3P33+bMdWPik1Njb/NFKSJrsEIoi2fn394N79M7u2uiUFWAsIMJOWga1hKZqFBRj5O4Bg69Y2RqgkryIJGU9EJdVNhi3Cy8WdDeYycW1IcZDdolsVy0G875jjco0U1Rk5TWEGsWiAxb1AxYFYMEkeZJTQMpaTRBhkYycglygD5qiQElTseXxbdZhzWGEJUVRbXCyiEsJRsibBINv8rVs1a7nkpcDukcljckJEZWMi8ebwSoMKNR1txUwvY/s0jVzFZKR8s1WP6OBm1NME62DLTmHkZORlFgXmXyQgTWwg2drHwDNXqrOzgw6KMVu3mlsQV8RqsG3FD5SJcRG7aAMfAXO2GhORuoWC1LYSBDxEuMdRHKd2KXFoyFlpEzYoTgmnOWLuASEQT5sxkVI6ogNWoH9UdcEJO5awg1JkcBrEZgSUF1TxMZUQJBzUHEk4zWGRAGtn5yUqCXGaI3Ry+6dqIpljxkxS80MHppHPTLRc3bIK5lMlCZLMYQiAB5EkFzjrCvJIKyv7qCTbktiwsZOCmqOZCU9YnJycpDeP3KENoq1uIgwUAUeYz/KNKDEmcM5UmEEzZ88i2xiFpauiLm2DGnRn/tw6A/LM4fcriV65BOai1csLwmeQZ1KY77qiSCNdaOkuvbZiYfh0sgxasbOUn4FBQC8iNdXfp1aOgWFZTXUhOQaF1tSBaUUBw3JwugmLmhdJjkFrdlZHMsUFhVSZmsob8wQoFm7cuYisQKqLjtq8RaYRmtMqN21Yv3MxWWFUFr57999L/w/tB4I712/v3bMz2pssgzz0j5w8vfPfkVN3757ad3DntZOXF5SRl6yLjxy+8efk3n2nT+/be+X271t7PaeRl7BDD17dtm3XzVuHD9/6vmvbthtHislM2qV7foEyyDYgAFFX90xRIM8gv6wT2xBF67afO105yDOoueDTLqTC/lJNO5m538P31EWEObuu9GSQWxp17zuE8NvFvZ4eZBpk0H/wOtygbYf3TZxApkEcfbs/74KZdPzYnsn85BaRvZ4HTxw6Doz/rce/f7tWkkF2Wcvvrb/78oVj588fu/Bjj68f2Q4Cei6sSz9r587dO9P1QydRYA4on3S0Frm6Nnl3KjAMYQAA3HvjwAW7Bm4AAAAASUVORK5CYII='
p50
sb.