ccopy_reg
_reconstructor
p0
(cemoji
Emoji
p1
c__builtin__
object
p2
Ntp3
Rp4
(dp5
S'emojipedia_url'
p6
Vhttp://emojipedia.org/hourglass/
p7
sS'index'
p8
V543
p9
sS'code'
p10
VU+231B
p11
sS'apple'
p12
S'data:image/png;base64,iVBORw0KGgoAAAANSUhEUgAAAEAAAABACAMAAACdt4HsAAAC9FBMVEUAAAADAAAAAAAAAAAAAAAAAAAAAAANDQ0XCwsAAAAGAQACAQB3cGYAAACRcGMOBgIFAAAAAAB9Z1oQBgKCenYdCwQFAAB0bGczEgaqWS9nWVF+eHNyaGKJg3+Hg399PhyEf31sYlsqDARuYVeUj4piVEtAEwdlV01HIQ1JHQpuYViLhYGSjImJQyKnWTGqXC2AenYpCAMxDQQgBQFjV02oViitXi5nWk+qWTKsXStsXlRUJBCmWTBbNyaRioeoWDBGJQ90MhtXGAmqVDBCDAWqXDNoKw8eAwBuYFWMMhOtXB2EZU9yZFuvopf+//+xpJqooZ1rXlWil49oWlGuoJWqo59vYFViVUtVGgh3aWCknZmspaKKfHKllou5qZyEd26cjYKpmY1/cmmXioCThnuSgnWdkom5s6+Ne26MgHeqTR3c2NbPycWrnZFGJBBCEgahk4lZLBirYjmHSCiJNBXi4N9xHgm6ppc8Ggs6EARuYVifmJSFdWmOPRr19fXCr6Glm5JNFQaTUi6mXjS0ZzyXRB2dWTKwqqaeSCFSLBatnpOak5B8bWNnJAxeIQqzrKlwKxLEvbj6+vvGwsCDb2DW0c5MJhLQva5lV05HFghiMRl9MhRyPCDCaD2snpXxlFqrOxSgOBO/uLSFLRDm1MbSzsuVj4x7QyZqMxz/iz3knm3DYCfannWLIQjwzrtTIBOPSinfcjPtnGOCRCW4WDG7VyGVNxuuXCTjUBPQooC9raCzopTNuavGtKWyppzo5uXq2Mo7FgkvCgPHc0Srrq2sXjXggUzZiVriyLvwhEyPiob/lVS1SiTOg1Xu7u2lVS+BIgvLwrzWwrJeUEb21b+dUSzFgVhzJwxhEgXucynNUh71ZRzqXRq3rqPNQQzYxbbWZybw8PAjBQLuwa7Td0Xdu7G+ckm8d1GeXkDn2tL8gCzEWzbJt6vSZzynRSn6qnK+c073//+lUi5mPB6LhH8YAgGAXVCpWDKAPyKoKAujqKXt3M/wfC72AAAATHRSTlMABg5aFAoaAQIDTiMJfRIrPDIdRVtwdv7e5aMxTKeG/mZz5eTo7NU8oLqQ7MX+9c379Jy/1i98u7JL8OSO/Nr7ZcD2ZOmd8ujB7F7dHMOXXAAABhpJREFUeF7tlVVgG0cXRiWj7Lh2Yowh6DBTMVDmFTMzy8jMzMzMzAxhZmZmKMOPL52VFDeOW3md5x6NNPPynb2zu7qDmso/vP3pjvc2Ojtv+PDf0/lwwwbnje99/s771gYE6y/pAmde5ZepdH9sQBCc8mtTk19sYlxc3KFJfA/5wsQlJsb6NZX7BM83INjn6Vno6dXVXA4s3WX+Ccn9FY+fxAPH06exTc2lPoWFnp77DAmCPQtTfLqa4RriDw0m9784fKy39cjDA5cvP4lP7O4rL/VJ8QyeSZDS1dyd6Bt/oOKHky++P3bixx+rDh8+cuTUT76X/JAJCkt8+v5SENsE8imFwUtnFHSVx8bFV7wmeBy3vhncAyBYYUBg89Gq1Tt9fMq7zwy1DdRUn7x+reVE77GenoenDsRfWlRaunP7Kgc7NMowu8KikzTP6uuPPnp09MGDzosXL3Z2du7d+0ydk0Rl2aNmZh2LKldH4rT8PAkOd1qTxW50QyBYEEbIKjgd+RpAkJfEOu6KQLAwjJCkmSbIzd2Tw2Ydt0IgsE8jsPP2TBcE1LLD1qIQ4NrIItQG5OJeI1ItZ6ctQCKw2sVisfPUBZpzgJycHHjSFKjhh5C2GIWEBXy+UjhRBDh//vydO+cBRUXjQQKFQmSLSOAGhSuE40fr6/e+pB68FVECRb47ChFW7kRiukSI3c3j8UZHR3kAfKWMDxGJS1DIWEMkQnyxjCQjgaFDpmQSQ0OtEApsPyCGMjmCaBIpWg9JIgIFrEEhZQmZTGRyxN7AAEtIMjG8AVAAUqy2wQa+ROatRawUQeRi8hIUclyXF9PJkEgpFshkAomISSymF7ugZoPbcjqdHAqKEIs56aFk+gX6u+aoWbFyG51eTITCJcp0IplOv+AC8rPD1gXUQGQq+fD1l69EvQH2TsVkiC8i0skuqDfCdhkEC0KLf1v8Rnn7ZQQlOV3Jp4nYaQsxs45bgc5GDYNEEg6Uxmaz1rrOMm+9jkUgsLM4HLGUX5tFoBIaF79BXl5AkkqkpIC8LAJhlgZQPyErT31PrhArbuUGaORUArKOPNlX4XzAPZwmXBp+Dhe5p0FOpYatxSDewDIWIQnkI3EB4dJ8NS5SayCkLUQqACcDuxY+nIBAkR8A5tzTDXL4VEBcAIuaUwD6cq1EKlUIajUNBeoGOXiqCEuw53M4At5330UFBUVNTEyMgml8PEoo5XA2IRO8S8uXBt2Bm/L/9cB9uUioyKetRNYRabR0scfYWBBox1EAHi9obCyVy4HIyP5VbjQaTSTw4HKFXK43gOsNZiHXW5JOo7kjauo0GlPKTRVyPYSVHkKPlwgF4RAt1BqB4CsaBHZASa2kpApTUynaD6DSmwPRIDcEAncIEgkqsViKB4WCxVNSsWAJvvhoKQRBM3Zm6/d3MCGIL8DisTrw8MDjwVQpYUJO335j+Hx9x3kozonJ5Hhj8am78fjdIA2ggCUWXykIZzrlDw1tfNuAQKVSJf/LaVNjNBYL53eDAQALCh5PDTu+ycmvpqb6awOCkED/mpP9l0d4t5IOTuF/B5NuBY2cahtQRTC+NCC4v98rI6Lt2vOWlhNVva2t7e3tIyPt7a2tvVVVLS3Pr91VZe/7/felBgUhXjGZVwKvdlTfHr5588aNG8PDN4dv377ec7etui6QEbP//oyCEkZmdkbM1boa1UDb3Z7r/63ur+7oGKyIPxNxJSOTEQIMfycwB8AVAAPD6+oV/4RklWqgpmMwefBsYFli7PoykC/RCjAYjPn0NAZjYYHeDAtiGDFejIwy/4iEBJX/Wf+IusDAbD+/RdmZjBitYKsp2sLCAmMO+DMN4mi0qencLfNhQYlekJxcpxf06QReIZu3OpoZGZmaotEgo3PAJnB1EDcyMjGbY+mwavWKzz7RCRJeCv7Tt+iL7StWb3Gws5ljZmICG/RFTNaPhg0mwGAzb+5cS0tjYwcHR8e3dDg6Ojo4GBtb2s2dZzMHCIz0AmB45QZawA4jrUMrsbMEGj2WlnYgDNJm+jRan56Kdiu6UgAmADM98NpIn9RdWZs28Dx193USDMBcy/TkH6PWOMFTqGDoAAAAAElFTkSuQmCC'
p13
sS'twit'
p14
S'data:image/png;base64,iVBORw0KGgoAAAANSUhEUgAAAEgAAABICAMAAABiM0N1AAAAY1BMVEUAAAA7iMP/6Lb/6LY7iMM7iMP/6Lb/6Lb/6Lb/6Lb/6Lb/6Lb/6Lb/6Lb/6Lb/6Lb/5K7/2ZX/6Lb/u1T/sDv/w2T/ynX/v1z/tEP/rDM7iMP/3Z3/t0z/1Y3/zn3/xmz/0oXYDnwTAAAAEHRSTlMAUN8AAN/Pv6+AcEAQIO8w31OJ1wAAAclJREFUeF7t2MeOwzAMBFCXdYpbJLf08v9fuVCMxXgFRxyuN7fMzZcHSARBytGvxNmJThZ/TRNNP+KTKvFLKNNB2UvopMy7If3R3nbZyPLyIw2Z1EuUekk4ZyVCaw5a/xe0EaEtB21FKOegXIQKDipEqOSgUoDY+iepDG3URQOkv+2cgCoGqggoXSkbBJD+bDkFlbUD+uNseufUpQyhSy5zzgX9QUDlykEGEhyDGyKgdFdPJd+pdxwEyb+nvoHDQZBkBxApwdFAkNofp4WjgVC7bnS6sV5lqoQgPUboAUcHQTo45wCHh5DK1W5w0ODqVQHgITSLdZD1GkMLFVOoWAg1DmoWQltAi45W1YCEy5bKD0gsv+gAgqRvEUCQ9E3rQfqmhQMIkg4q4BgHGVGKhHOh1wQpkpxz56Du7Ev8OHIxdnCMy2C9gU0PyMbuj172FgskPbINmCllFCM7x3R8NWvzlF5r4PgSvdZUY81fZmAXrRxDaDYdziYvo9djIFdyGU0wqefTc+txOc6yQA7cwl6MfRqKEZ4QuGsbhixuW3hm3cLQDV0iPPzuYeiOsglQG4Za6imacNBKhMa5EUwnP9c//48+/4/+Vv5vqhr2BTmHY3IAAAAASUVORK5CYII='
p15
sS'gmail'
p16
S'data:image/png;base64,R0lGODlhDwAPALMPALdXAEGU/1ocBNJtACM/wgA+//CPAH1SOJf4/o85AGBkbX6UqNv7/be7s36wwQAAACH5BAEAAA8ALAAAAAAPAA8AAAR1MIE5h6VTiMQx5YnwAFrTOAu6CEDyPEZyMAxi24cxvIPb1DcHDPCKPRSOgHKhGPJcR0KB0HSOXi9FofqC9rKOArNIhLkUDUTB4Wgayr3DL1AIIITvooxBL9QROTsPcQsEhocHA0QSABYDOo6KJBobGzIgIRoRADs='
p17
sS'related_to'
p18
(lp19
V\u23f3 Hourglass With Flowing Sand
p20
asS'name'
p21
Vhourglass
p22
sS'known_as'
p23
(lp24
sS'default'
p25
Vemoji*
p26
sS'bw'
p27
S'data:image/png;base64,iVBORw0KGgoAAAANSUhEUgAAAJAAAACQCAYAAADnRuK4AAAHY0lEQVR42u2dLzR0TxjHNwiCIAiCIAiCIAiCIAiCIAiCIAiCIAiCcwRBEDYIGwRBEARBEARBEARBEARBEARBEIT9/b573vuefe8+c+8s9s4zz3y/50zxntdeO58788zzb2pNivqBavwKKAJEESCKAFEEiKIIEEWAKAJEESCKIkAUAaIIEEWAKIoAUQSIIkAUAaIoAkQRIIoAOfX29ta8vr5Oery8vBCg72h9fb3Z19fXrNVqSQ98BysrK82vry8C5KuTk5PkwcmPw8NDAuSrxcVFQpMbc3NzBMhXs7OzhCY38J0QoC7sH0Lz71hdXSVAvnp8fGwODAwQnD+jv7+/+fDwQIC6hWhzc7O1dLvG6Oho9HDgbyj6G7Ea39/f8xjfC+3u7kYPEP4GOhIJEAGKUfV6nQARoO/r+PhYnJTn52eVgwBF4rFW+2ULz9poNAhQKCHYGAtAHx8f4rNiFSVAygDSGHh0bWFnZ2cEKJTgXHPZQNr09PQkPiteAgIUSK+vr9EAdHNzIz7r3d0dAQopKWdI46S4tluNsCcF0MjISBTbguvE+P7+ToBCanJysmNSzs/P1T3n/v6+mG0Yu6IHaGlpKYrsPQSG8885Pj5OgEJrZ2enY2K2t7ejAH1hYYEAhZYUzkASujZNTEx0PCdWJQKk8HQzNTWl6hnh2JROiwcHBwQotCRf0NDQkKpnRHKcdAK7uLggQBokpb9qKsgDKBJAAIsAKdD09LTqt3tvb6/j+QC91mLB5ABCxUJ+guB30aLl5eWO55ufn7fw1dsA6PT0tGOCcGzWorGxsY7n29raIkBaJEXlYUhr2CJgi0knsMvLSwKkScPDwyqDqlIMDECh8wgBUiTJ0wvjNbTg1NTupyJA/wuZffmJgvc35Db2+fnZ2ko1G/gE6I+QFiHZGre3t6q2LwtJZCYBgnA01tSUQOoyglJmC/4fkwAhD0iLwYqVz2IdmGmA8GZLGYohJk1ybgJm7T0PkwYIkurlETaosj0KPkuyx9B5zZrMAYQkdWnyqmoRh1UQmYbS9mXFeWgaIGhtbU2cwCryb6QMSQ0uBQLU5SqErl6SDdLLig1kALhaE1vI/UkGIEhKocAYHBxsFfn9tvA7XW354Hm2uPqYBggT5mqBh1Xi6OjoV1ceFzz4rJDOTAL0Q19MUbd7xM9+UhkKSFEBUvQZ1vw+SQEEIe+m7CoBVEd0k16KGBdWMNdpq723M9q6EKDI5dv5fmZmptVFwyXAgK6psKPKfhdOXVZSNpIHCCsGivh8IEJ+tUu+vwPe8NibJhAgYfWAM9EHACla7urvkx9IXy1axQhQ5NrY2PjWzTiwecr+H7IBYu+2QYA8hHLooqsUpJNTUU9qOC3h5bbq6yFAOcHJ2O3R2+WYzAZKd6yfuJIHCMa0lKPs0zlVKh2S2rWkYjwnCZCUeO/bdg5Hcp8rOHHEtxh1Txog2Ca+vqCi1jBlTsl2m8hq8DRJgKTuYPmBujKkYpTZMdjK4A4oW41gpFtKnk8WoLLjN+wWlAR1e4JC6KPMnsJ2Zt0mMg0QUktdx3X8HP6enx69AV9RaANNQC2fzkyncyAPx+Ut/s3tBYnyRYFVC63skgMIjj0XPL3YVgCR1IUji/hrvraSAOWEtnfStgJDuZc2CbZMqZQ5i/QToEgkHbexClxdXfX8s13lzFbzos0BhK1EWn2Qx1OVXA5LGNTW4mVJFBYiN7rK5C5sk67TnzUvdRKlzSFuBXQ5LxF0JUBKJTVXwHaGIGrVwqlL8lbjZ5aci+bbu4SsinDF39hgSqnxLL3xWTcMbB2okqhiZNuU60QGY5oAKZMU88JkZnIVGfZi4LMym8xlTFtJfTUDkFQx0Z7bHGIFyj7Xsk/IBEB40yXfjwZj1ZUNUKVfigCVSGonh7iUBrnKgazYQSYAqtfrqi+dk+wvZC3yshUlko7Lv9l946dyhTYsROhNACR5nzVNjrRCYiA9lgAFFmJc0uRk3meEMUIOCFkA0jMiB5sABZZ0ZypWpL9/YEW+H9eApGs5tV4OnBxAjUajsCOrBoAgyc1gIckseoCkqDe6tLavUCFHJuna78xjTYACSvJAa2wrJ53EEOYgQIEFh5zmI3wmV1uZ2GNi0QMkBSs1Zv0hhcO3Dp8AVSQU7EmTktke0nVLVY8sIwBHeot3h0UNEN5eaVKyjquaAJKyJdthJ0ABhLe3aFvAWw+DOuTInImSvwoDpdEESJETEQOOO23CqujbzIoAVSRX1zAIhnRVCWRlA5C4tlsCFFAuw7To30IMbGUug58AKQVI2wrU+rINVmhEDZCrc2pow9k1LF7GEjVARb2bYxkEiAARIAJEgMwBBMNTCpSmNtA6DzlPBKgLIQXUp6l3SkNrWxiVAPl2lE9poPKEAHlKQxBU22iv8ydAXIG4AtEGog3EUxhPYWn7gSgCRBEgigBRFAGiCBBFgCgCRFEEiCJAFAGiCBBFESCKAFEEiCJAFEWAKAJEESCKAFEEiF8BRYAoAkQRIIoAUVR3+g9VwZlOrf1ALwAAAABJRU5ErkJggg=='
p28
sS'version'
p29
VV1.1\u02b2
p30
sS'uni'
p31
V\u231b
p32
sS'desc'
p33
V\u231b 
p34
sS'browser'
p35
V\u231b\ufe0f
p36
sS'annotations'
p37
(lp38
Vhourglass
p39
aVobject
p40
aVsand
p41
aVtime
p42
aVtimer
p43
asS'wind'
p44
S'data:image/png;base64,iVBORw0KGgoAAAANSUhEUgAAAEgAAABICAYAAABV7bNHAAAAAXNSR0IArs4c6QAAAARnQU1BAACxjwv8YQUAAARMSURBVHhe7ZtPaFRHHMdn5qUlJVSJAQmmTXZdoYdCrVVBD7vrJo2CKUqx9VDPRehBaKWnHtST4kEKHkoPQksrhUJ76U1JNpuFnhQDQk9Va+wfS9EY7Un3zfQ3b7+7zcZI9iXvN48n8zlkvr9lN7x83/x+v5l5G+HxeDwej8fj8Xg8Ho8nY0iMLBRHi0eVVIcQsqCF/ro+Wb+IMHFYDSqPlS/RMN6MmDDiXG2qdhxR4iiM2UWKR1AscBs0hzGzcBv0O8bMkvkU00b/BckCq0HcF2+RRmbXIO6LtwQi+AOSBdY2b6FWbyA5mK9N1jZAs8Beg4wwVyE5uIKRDXaDpJCzkBz8jJENdoNoK1CFTBxjTA2SDfYaZKE6dJ+G/maUDJS6N2YmZ7YgZIN9BoEfMSYGpe63kKw4MYhSIfHdttLqJ0hWnBg0MzVj69DlZpQIF6rVKmd3bOMqxewsOg25VuZp9nwBzU6AkZ3bt27/lsvn1lHx2I2XVsvZ6anp76DZcTaDLLpHf267D8LY2EUnrZxPInSCU4Pql+p36K/8EGFc5gMdHIV2hrMUa2FTbSQ/8q+Uci9e6gpt9Me1as1J51qMk4XicsQ5r6YC/wN1wvcQOsVpii0mTlcLTJBUB4xNajPIUhor/Uor4gLCZbGFmbYUOxA6J7UZZCFzbkI+E3qP3celRqoGZQFv0AqkZlBxb/FVGrrpYqnVH0tqBsmGPAy5Ev32GT+0c1LpYpVKZbtW2u7uuz1Em9eB3hqtxB3jfAbZ1ApV+CXJOCeM/SpUF6Cd4nyrkc/lz1HrnkDYZnxH48b5Y48fvL/nyd/3H8qFm3+qpY9zCrnNOUlblWnETnCaYsWx4hEl1FNHpZ8deTw7vlO/iVCExjw4c/GFe5ev9Dy1iKQV+CgO4JzgbAbZ1JJGfkWzp2NmLDXHoqTsLb2hNwwN6Nn69WAQL0fQJncTzaJvELLjzCBKrU/InHcRRixnzmIKQ2ZwGZMKw/nhu3O35p6fI1eseY41oyYrmdPCvse+F2EEzaJPIdlx08UaYj/9bHetbs1psdQkmokFW88QsuLEILrj7VPEuOa0sJ/56OCT6wjtN0c60pULdoPsopDu+HaEorxNb4SMzcTusA/Smn4IqcsKu0GhDPdARmudF3vEJoSx6esVm7cWwv+/DxSKEhQb7AbRnd4HKSZ2hQ8hV807u8J/IOniVQWSDRc1qL1jHxnUL0GumteGTXtxa4SJXcviwmqQrT+QEX29ch3kqhlYb16GtN2s4/dzwGpQKMIhyIi11J8Wtg5BRpQqpQOQLLAaJJV8C1J88HbjF8g101GomXFRgxLn9bxZgOy4CRyw7ubLY2X7HP2E1YMDemF0m07kzk9dU0N376n1CE9xPq/nNoj/v32YDcpkirmE1SBjzJoXhl3wCkYWWFMsOiRryMO0mm6vXZKEbsAj02O+T+Mw3+PxeDweT8YR4j8YXUGdZZiWBgAAAABJRU5ErkJggg=='
p45
sS'andr'
p46
S'data:image/png;base64,iVBORw0KGgoAAAANSUhEUgAAAEgAAABECAMAAAAV8YMOAAAABGdBTUEAALGPC/xhBQAAAAFzUkdCAK7OHOkAAAMAUExURUxpcYVcUoVcUoVcUoVcUoVcUoVcUoVcUoVcUoRbUYVcUoVcUoVcUoVcUoRbUYVcUoVcUoVcUoVcUoVcUoVcUoVcUoVcUoVcUoVcUoVcUoVcUoVbUYVcUoVcUoVcUoVcUoVcUoVcUoVcUoVcUoVcUoVcUoVcUoVcUoVcUoVcUoVcUoVcUoVcUoVcUoVcUoVcUoVcUoVcUoVcUoVcUoVcUoVcUoVcUoVcUoVcUoVcUoVcUoVcUoVcUoVcUoVcUoVcUoVcUoVcUoVcUoVcUoVcUoVcUoVcUoVcUoVcUoVcUoVcUoVcUoVcUoVcUoVcUoVcUoVcUoVcUoVcUoVcUoVcUoVcUoVcUoVcUoVcUoVcUoVcUoVcUoVcUv///4VcUtdZi4RbUYRaUNdYivTw75RwaPf19J59dvbW49pllN95ofzw9YNaUNdXiv/+/4ZdU4xlXJBrYv39/cy8t4lhWIVbUcKuqJ9/d4dfVcOvq4deVI1nXfv6+Z18dINZT/Pw7tljkvb0893Sz/z7+vz8+97T0YpjWeyyyYhfVvHs6/79/bKYkpp3b49pYJJtZPn395p5cIRbUPz096CAeNDAvfn29oxmXLukn/Lu7a2Ri5h2bdtsmKmNhuqnwuPZ1/33+YlhV+vl4+/q6NXHxNdajObd29/U0rGXkNjLyOTb2aeKgvbz89fKx9ZXiquOh993oeCApqaIgcq5tJZzavLt7NPFwdlfkJNvZvXW48Svq9hdj/77/eB/ppBqYeSQsaGBeeievOaZuNTFwvrq8Pnj7L+ppP7+/t50nvbY5Mq4s/74+vvt8+3n5fXy8bihm8Wyre3o5s+/u+DW1Off3ayRiqOEfbuknpVxaOni4PTx8Jd0bPXU4b2noc69uu3m5fPv7tdYi66TjNvPzOKGqu64zsGsp9ZWifnl7fPK2vTS4LWdl/DC1Nplk/HG19tpltbIxfzy9vno7+67z/TT4OOOsOPa2PPN3P/+/vff6fPP3txwm6SGfvXY5ODW06iLg+jg3qOEfDMY0g8AAABddFJOUwAHCC8BAwX+/f5zFMfz/M8CIFnp3DfhW4n54/vagFQR6tRI8PgenbF99W5hS2QoPE80dhu+V1Gqpu4NjCrJORfFlcI/Iq70JnngGl1xmtYuhKCDzLqGaeQjM5CUavfdbNcAAARQSURBVFjDrdh3XFNHAMDxM4QMkBBWgQQEZAtKcYSpIo6Kdlm723u5F4ytfU+CEIQIFBABZcgQKHtY696j1j3j6t7L0kX3XnaPFK2l4Lu7pPn9C3w/997dvQ93AAwqIMKToc7T3xkIJPEJYazI10ciAHl5MFbl4SUAeTNW5i0AuUutc6TuApBDmnVQmoMA5OjkYvkxosryiy5OjkLTJhqVwphqFlCUmcGkjBIB4cbLM59Pp2itQT4G4HKSZ74AKVqxTOGOhaIUy1bQQFvK1BospFGXbaCBnjOFxGChKZGmizTQM1ygAxZKVhX2UzhLni682Q0LTZ3Mrc8nQ42b2IkBWEgSxxY8RYb27EY3ibEQiJBXr6OYfYMCv4wAGB1p2kV0LvUzCVMIUGgQt201Cdr8EpviTIAk0+TVG0lQiUF6qxKQni3Y+HIp3slfX+cRS3JA4kxUs5G00YzzREQIRAejFj3O6duJAqeTHSAKk5pyMA+X32ySJY2ggMA4V9SUJSjl52QbU0MBVaNVqClv87Wd9DezkV8MnQOUGhWqeHGdeThT2tmeYfS7HtAmjg5i0OP9Tw5hzK82ZyJm/nQxoO+W+EjEtOatHOw8m/MKQi5hNwCrSoyaLGOZgrXLr77kNVUM8k2dJALWNuFGVxln+Gf6ludks+qRY6cCWwr1D6w7/NhlaIMBqZzmABtzjErgKpcMDGgb56ERA5sT3c4VDGyXvlo2XmK7AxzjuNrXBr6tVey0/zEg4ODHbRqYt8ajnOsMmxllTKo0N+vyWsxjZOGxto1JnHzHXUb0zpU998hOjkmLcLPBmXGbJ8NmV15d22+1VLDSoNkTrJ2uua4Mm9uwt/HfHaK/uDSXlY7UjLDGmXOfC8pYmNU35NO4q5ZBCT7O9I5buBTVPGF5qvqHBncQ9p4+zMriqd9UaLiU+fM3MzxZvmP7okEdP3vJXFJgZOIox5Q4T8q09MLzny56lNcNiue/6DgJe35BsnupPgHK+0PQ73vghWP7eO2QdNpDv8Keo8hlLg2U7Ida/4AXvrP82fD4n3+CnQuQK8VrkiTJutfAruPaa8ef+dF8Llc2W0keUFpdux5+c0ArJB3periBDSIOSTxeVvYl/PoMLwRpD3wOs3J9x5KggIns0nRYrhVu63tdva1oZiIBik1Ap831h7YKQ7qij0s/4a4bR4DuVJe9C98o0mGGxHcsPpEdMomwiMLQ7pWwHOdo+R3nezJREvEVta8+eITHQbq2U/oGNhy/uu/2K2xeVb8dC72976PSSm4+/st0TzA6B0+1YR9Nq3sf9heqkvH/0ai7T8Bvi/6zWYf1QQfMypjlhYW8FU0l8Ie2zx7EVXRs8d5udTQWGiOv/h5+dXb/A7j2fwhLmhT4+bccRTuLi/WkircYFLhN8vfhuKJqIUWvm3CH4yvHdZYi/HHdbhcIdrvSsNsli92ufSQ+vva5iALO/rZfjf0F+nHiaAySdrMAAAAASUVORK5CYII='
p47
sb.