ccopy_reg
_reconstructor
p0
(cemoji
Emoji
p1
c__builtin__
object
p2
Ntp3
Rp4
(dp5
S'emojipedia_url'
p6
Vhttp://emojipedia.org/waning-gibbous-moon-symbol/
p7
sS'index'
p8
V592
p9
sS'code'
p10
VU+1F316
p11
sS'apple'
p12
S'data:image/png;base64,iVBORw0KGgoAAAANSUhEUgAAAEAAAABACAMAAACdt4HsAAAC/VBMVEUAAAAjIha/ozgfHxWYchEpJhAgHhG2mi0xMSaddxQhIBMiIBCbdBMcGxAmJROtgxqkhR8bGxGdcBE6NyO0jSCfdhMlIhCmhR2lhx4iIheifhebeRRSSySgfRmvjyMmJReUcBl8YReuiB5vXB1XSRZgTxiWhC0eHRMeHhNJRB2WcBGEdSr69Mf898f58rTx2Wv687n79r379rfw1GL79tD24G369cz8+cv14nL69ML26n7y3HD48K/68qTv4YT48Kv79K317Knz5Xnw4or17Iby5IXu2XT799X79bL475zy5o3u233464Hz3nT8+MD89Zv//LTy12PszVr785f48Jj48bz16IT79Kjy55n9+cT066P07Zf996X37pTv4n/04nf//Lz15n327I368ZL9+bD57Yf043z/+6X/+6spKib//cj45XL376Pu0V7//bjt4HT06JL02mf25Hb9+tH//cD67Hr5743++Z303WnnyVv89Z/58Z/m0mvcyVzm2n7nx1L9+bf//K/78Ij78o3v5JLx33z553j+/Njeym/cwF3895L7733r44f277bRyn3u0mf06p3Gqz7x7I7r1nLf0GDBmSa8tnns54/nz2Tw5oPRu0vYxVTk13X442f9+KtPUVw7PUdRUVAjIxxBQUb13GJFRT9lZmjx1Fz//cP//dTU0IhwcGpFR1LjwEliYFN4cFRoZ16gmW2AgHA5O0S7sW9AQkzh0XH//c79+97NvWk7OzpXU0ndvULOtFqgjlFKTFgzNDBWV1z++ZfPpy9fWkuomV3YtkGMi3ZHSEzi3opbXWIyNDl1cV2CeVVPS0HAqli2nlTXw2fdvVamonTNsUpBPzDfwFCFgmXYuFKUknTk4I7c2Ig1Nz+vrYGIhWyJeUbtzWGBe1366G+1pl8uMDVrZlORhFd3eHBhUzC9uoXDs2F2aTyajl3SxneSimWypm3DvHK4mzvRsTynoWlrYDIsLS2lpH+ZmHtKQijGw4SrkUBvZEqehz6Bbi2RezNcSXGsAAAALHRSTlMA3PrRET4R1/49mSgobWXYtzNo3vaYhGaX9oQx027O58vL3rNlktO3t4Nkv+/LdiQAAAlNSURBVHhe3ZdVlFwFEoYhspmQQLIRIBACrLDW7u7u7t7j7u7u7hZ3d3d3V9zdWZezdbtnwkTlleo+93Q/1Hf/+qvqylO/5Jgw+YUXp09/442//Pb3v5v4qycFTH1pUlt/UWdn58Wd333x4b53v5z7pylPAHhhUn9nSh9DJGpv77l1clXzd1t+/OrsT3Ofe9z0cQMpfe1Op8ktlxtNbmC82fz52xuvrz8y83EQkycVNSqciYlcttVkzMnJ0QYLHD0nV/3z7b+/c2bduZkTHwV4sT8Fsnk8q4wns8bEwicnnx3ouQWEm5tWr9t99ZmHOw+nN1l5Mh9BRpBF6ny6srKYGJdWixA+/9vNTctOLVw68yEdmTpuW6NjONaXqcETCKWZyT6fLqRBazTZTgLh+KfLDi5cGjHlgeW3Ddr4sszM+BUaOgqtWaHBA6FMF5NzSJvv7HkTbNi0+hRCeIARL7cNVvIJhHg7Ck0lUSh2DR4AybpkEBHrym4fkXBq/omlEb++b/3jBisdMrydSkGhKADYTqVQ7Zk6XTIQYlxGU+OohP0ndkXcz4dJ23r4OAIaTafQKSQUKmMl1R4fn+nTgZUxsWUuo/PWqu6QC/OB8PR9+lfEaW0iyNBwegqKgqJn1GRs3749PlOHOIkA3CEXkBr2r1l84Jl7DLhSXMmVaeyQCueXolDSjJUrVyIEX3JyGZhwyOgEF5Aa5s9fs3jXPTZMKhRy8U0Ee1iAlIKi1tTUrEQ0+ErLYqGbLq28EWwM17B184G7inhloNFppZs1mtD5SVISvWZHiGBH00t1ybqY+kP1pjE1LNgV8ewdAOgAnycDAXTogFRKQWtqduwABslu18BAyaxsebBCdLI5VAMAQMKcOxZwQGnj42QyBAAdlJIopB0Q0gxqfPyK5Egeu6AgUd7eDjVcfmf1shDgdMRzYx0AASwCAU9HofCQLCWRMnbUZEgpJPBghS+SzWbL5e7UHhiFy8fDCha8NdaFqdACB9uKM4ODVAoljKiRktBUKkjwlYEAd7ZI1IfM0s3VBxEASIj7eSdeKupzs628piYgZGTsIAGDRKdK6XiowR6/AsctCGZnByzOxuLmt29+umwEEPH8zxWkeGytiXx+k9mMyshAg5FSNLiBx1DhX3KmjwcFBCzl9aLi5u6bmzYsXLMVAG8dGH97C9pS+my2Vi4QUFQqCkenk1B4Ah6H4WJwdDQexlnrDooq6usVbzZ3b9y04SAoQExYNLoRk/sFtspUFsHcZKZQSXQMDk+Bs5sxGC4LCPjkZF2sK6f+kCnA2dbcffn6hlPz1yAuno6bODpFRYJKoduKwWFwmngqDmPG4ejwG4NhYej0JhY7Fq5LOZDfXlz7dTf0EQBbFyCA0Vl6sdMj5MiNbBxcAOx2DIuFweAgzGYWxkwnYBzy4RgAVIjExbU7t2w8HgZsfuv0X0c3anpnI0fIt3IxGF8pAW9mcQHBZYGjTU14PABSU/NdcFlTCVKKv96yERTsHwH8cQQwr5DD4VQ6uFxeZCR4x2Jx4apuxrGaWCxI5zvFYrHJ6XQzALCqGwAHTyxeEAKMv72JHk6qopJvHS7VlOJx0A0AoNAyLovAkzv4qQpxitejsEQrPcXQhesAWHAXoNOjtDlTncbhyOHSSAIPw0108NEEWC4Zq7W1VWETV3E4VQJGn2ewecvG6xtAAeSPAcwrSvGkBgImrQsCILpSvoOFJ/AIGJaDb0tNrRRzhApltEjhGQQP3gfAVgTw0W3A9CKs0JlaUa+1uvJdkaWRsexWPo5ntVp5vMRWhUIhFINHSrVIwQkDFi5GBvH0R3F/GAHMHsB2WAIVRqM2X2vlDbsKKh0OLo/NY7NZDhvkVwmFQmU0wyJWbtsZBoAFCGC0ja/0F/ZW+aOyjUFrfr5W6zKB8EQr7HABF8kHAEfpEYkEVQD4FgFsDVtwe5Amt/X2KsWi8uygMWg0WoFR0OqUy1mwxfJshZADIfEzBAKOsnbnt9+cWbdwxIJFo6M84fvOjmKOWBUVLC+XG/Ot2hyXPNUmVMgLEk2mKIXQo5YolRYLjEEYAB6CAADcvr3MG6gtlghUjKio7Ozyinyj8VC20FbJ8YjlbpPTLfJHd0hS0qM9KYO13/34zZkjJxaDALBg/M8XlGN12yQChoUhUmWpgsGK8vqgUKmEwt0BUSDAEHkKJTSyukqy7eKWo+9/vPAEVIAIeH7Mbb2oqFCZLhAEGIyo7PJgeUW5UCmRSJRuEUMkViI/vTRmVUftzg+/CgFCAhaNuc1PG6ir7WCSaRY/g6FC6miIEkdLOiQBqDy6o6NQLUiIZkoKEcD6ddDFUA/G3lr+3HaprhBLo9HS/QyVSpWV1dBQzvBWCQRivzdd0NGCpWVlMVsKL35x9JP1YEG4gjueuGYdu1HXu4RMo/kRQpSqQdXQ0KDo89Ia/F6amsmsqq5WQwXnj579ePeJsIA5T42NGW03QIJaTfN6Lf4EFQNEREVFiSxZWapqP81bpSYn0CRIBWehgrAAmKKx8Zv+ukImMxdEhOtgVCOMrA8gVNVwSPCqW2pHKoAh+iju1bufj7qu5WGxadhcNZkW7RX4LQnVfgbkfTCUUF09lDBEY0p6687vgwpGBNzzlDP7h5Ikoh4L9aqjvV5vNOhISEhPTyAnDA2l08i5+paivUgPzi1G8sN7dFcRe0oMy/VYCRMQajIiJJ08lI4cyGQyM43YG+rB7qWbYQughffGhFl78gxEIhbLTAMzmEtyyV5yLplGJi/JXZKGJRoQAWdBAJIPW3CfeLkLNLQQiXqAYJfkpqWpc3MBBJGmJybl1Z0/+sm/dy/dBR2814BRI/fk5RmSWpKWE/V6JhYiDQm9Xr88qffi3gvQgnO7Th+IgzV+QEyddWxticFgSCJCYPV6+OrTsFg90ZBXt/fCvvWIgANxcx7y6jFh2uFrJSWG95IgiMTl8IUgJiH55/e9G85/+uGvP7O7QESewfAeQFpaiHBIMhhKLu29APlHzl09AP17REyednjP2hJEBgRyyCu5dAPJ//Kzc1cjnobyHxkzZh0+tmctAinJy8u7du3GlfMX/gP5/7j6amj+HwcxrSvEWHvt0o0rV8Z9/69Q/sznnui1b1pX1+HDP7Qh2f/770+fzX1+ypO/eM6YPf21115/Pfzi+QuO/wMWPL8z1nJ2+AAAAABJRU5ErkJggg=='
p13
sS'twit'
p14
S'data:image/png;base64,iVBORw0KGgoAAAANSUhEUgAAAEgAAABICAMAAABiM0N1AAAAt1BMVEUAAADM1t3M1t3M1t1mdX/M1t3M1t1mdX9mdX/M1t1mdX9mdX9mdX9mdX9mdX9mdX9mdX/M1t3M1t3M1t3M1t1mdX/M1t1mdX9mdX/M1t1mdX9mdX9mdX/M1t24xc1baHa5xs7Ay9O/ytHH0tm+ytKsuMCZpq5se4XK1NuGk5y7x89jcXxcandhb3uAjZeTn6jI09rG0NfCztXG0djBzNSmsrqfrLRzgYuzvsaMmaJldH55h5HL1dxwo2C3AAAAHHRSTlMAIGCPv9+/r4BQIABQn9+PMO9Ar58QgO9wz89g1NKcDwAAArFJREFUeF61mIl22jAQRWWWFGwMIaWQtpJs9jXr0v3/v6uxsJAnL4MizuF+wD2eN5I1kjhCVKtfNFXB5LdsfGp14oRHJAztgXFYJmv5Srd3GSaK6n31lvlSGlcr/rDo6rN6j4e13JPGHxJFA8VxJ63qi1807CueF2saXXtE0VcQoMnQiI+J2pAxbxp1eNGQFzxttN48uZwKrjnR4IhHGwrTrTOlVRF4pjP9ymxKRBtt2BSrYAkmKyKeZ10yrop0iVmZEkxGRPMZ6wPPjEitJeTkRLWyLl1h+m5ptDjZoaKo7PusKpph2MqwkI5RTER2HWoCtn/Pw0/p+GZFLiAQrRTDj8Jwk2U3hallRa4w/CLkkNKf7BVXnHCd50XIXUUkUyu6shoIm2ViSzPEpcj+x7D9PH9lhXQviqzFLWxc2hh3ldiI6qrKGBY2W5ujZ0R9RcBN669tVIjaygPbN7JRhO19KHNJ4xZJ0y9YjXOt8/GKrEki6iYi8nvuc23I76umJe2bqPm/x3iMqfpNt0T0XdS9ojEuLUy7Jy68otyJcuVYEFFD+LPWFdi2dYU6VfRLEoQKL40XPWr9GBC2E213WbbbHkT/bPX+9lPRNjNsQeRfkFS0yww7KM2/RagoK7GiAM4ggtKap4rmJOyu3SLhLEj7G6LOzGYecNPWuNnMA/xGImXBAQbhf2zwq/Uc1/yvNhkwouCff5spLfg4SvqesPHYxAMSjmxsP8y6/JEdKQ8w6+IQAWMNgsMOVpbioIXg+IWVXcLox6AJ0LO0MoyGiFZkZCfDaDIMEb2NukUG9gARO7BDcZ6w2SuEoR3QfvZS44kJZt01BIQXP4c9pmDW9Vz8wGQPTti07FUUTCAi+C/HmBOewHBdP+cDQviTxlkfWcKffc7/EBX+NHb+xzok6PnwP/G7BWW451jcAAAAAElFTkSuQmCC'
p15
sS'gmail'
p16
S''
p17
sS'related_to'
p18
(lp19
V\U0001f31d Full Moon With Face
p20
aV\U0001f31a New Moon With Face
p21
aV\U0001f311 New Moon Symbol
p22
aV\U0001f312 Waxing Crescent Moon Symbol
p23
aV\U0001f313 First Quarter Moon Symbol
p24
aV\U0001f314 Waxing Gibbous Moon Symbol
p25
aV\U0001f315 Full Moon Symbol
p26
aV\U0001f317 Last Quarter Moon Symbol
p27
aV\U0001f318 Waning Crescent Moon Symbol
p28
aV\U0001f31c Last Quarter Moon With Face
p29
aV\U0001f31b First Quarter Moon With Face
p30
aV\U0001f319 Crescent Moon
p31
asS'name'
p32
Vwaning gibbous moon symbol
p33
sS'known_as'
p34
(lp35
sS'default'
p36
Vemoji
p37
sS'bw'
p38
S'data:image/png;base64,iVBORw0KGgoAAAANSUhEUgAAAJAAAACQCAYAAADnRuK4AAALKklEQVR42u2dH5QX3xvHB4IgCIKFIAiCIAgWgiAIgoWFhYUgCIIgWOicIAiCIFgIgmAhCIKFIAiCIFgIgiAIgiAIgvmd1/zO/s7+bnfuzJ25z3Pv3Hne51z4fj97Tp+5n/c8//80rcEwA41dgcEIZDACGYxABiOQwWAEMhiBDEYggxHIYDACjcTv37/bb9++defjx4/t+/fv/+98+PCh/fr1a/c5f2tYIYF+/vzZfvr0qX3x4kW7t7fX3rp1q718+XJ7/vz59tSpU23TNFHn4sWL7fXr19vt7e324cOH7atXrzqCGYEqwJ8/fzqp8eTJk44oGxsb0QSZevi3IBYkffv2bdUSqyoCffnypX3+/Hm7tbXVnj59Wo0wQ4fvcvPmzY7MqEEjUEFAZTx+/Li9cuVKMYQZOlevXu3I9OPHDyNQLqCesD2m2C7H59y5c+2lS5c6FXf79u3Ojnn06FEnxV6+fPm/8+zZs+6znZ2dpERFMu3u7nZGuxFICXhEm5ub0T8WxvKdO3c6chweHnYG9VR8//69M8SvXbuWjEzYTO/evTMCSQFjNObtv3DhQnv37t1OgkiqCuwupNccSXjy8Iw8qxEoERDvvJ1jVdL9+/fbz58/q39PjOMbN24klUg5nqMaAuH6IkGG3mzsCGwT3lpc99zAXkoljThIt1+/fhmBYnBwcNAF90IXy+f8WCV6MgQrUaGpSIRkRRUbgQYAGYjhhC4TrwlDuARpEwJGOu56SvcftVbaC1MMgfb399uzZ88GJc4SiOOq4SkeY+hwRyVJo+wE+vv3b+de910Y9sSDBw+KtgNC4HunlkQc4kclpEiyEggXOOSa8/YeHR0tPlqLOpPIxXF3uZO32Qj05s2bXpWFZ0Wof0nqagi45CEVPcfAJri6KgJh7/S5ungveDE1gnIPqWQtL+QqCETiMxTzmJNiWAKw56SStLyYVRModHkQaw1ALROKkCIRsbEqCURUuc8tzanDc4D0jGS5CBUFVRGojzwYgHhia0TfnSyNROIE6lNbGMtrJc9xfEi6zJYapkUTqM9gJqq8tuJzH6gpkq5+fPr06TIJhMvqc9UhT211wXMgEaV2j2TqQ4RAxHHOnDljkmcEKM2VJhAvslTZbHICYddgHPtaXZZQIJUD1HZrtBpJZPKTEojEqC+3hatu5AlLbI1uEFqL+I2KJVCf0fz69WtjSQFSSCJgm4xABAN9RrOGK2m2UNyhK6UoAhGe96ku+q1Si8yaodUcSSolVS1REgKRBNUy2moGyVAtKURBWhEE8qku/huRbIiX5D4PVuqkyEE2cx/Y131Ab5ZhGrg7LQIRl5urymYRiNIBSf26RhDu0Bz0QOVnFgKRDPSVaK6tNEMCKXvKxnR5zCnim0wgX5Y9lWG2doSqNiUOnb2qBCKf5Uofcl9MrTDMB+kgTQLh9EzNUU4ikM9t16yCMzVWjlsfTSCMPNdtRxottfGvVEhXLPrOlG6YaALdu3cvuSVv+BdMG9EmEB3CogQisuwOrzTpIxdUTDkmZqwtFJs9iCIQww3cfxRvzCADjWpF9/AbixHI7WeCsbU3AuYElQzaBGJ4ekwCfDSBfOUG1LAY5EAdVY4xxDHDPkcTyJejydWPvRYg3bXtIA4eYHICuSPnyBrXND2jVDCeWJtA/LZj1dgoAvnUVwxLDdNBmqFkNTaKQL68lyVNdUBjYA4CEe9LRiDXnSTvZbEfHVC/nINAqM4kBIIoriE3J3triANdvLmWwowJ0QwSyBdSt9SFHnwvsNYZ0441SCCf/VPrCLpSMTR0PacdNEgg1/4hF2atOroYuyskhx00SCB3SAKEMqzDlR8jLIIEosLQylbzI0dO7PgMjeJpYl1IM6D14et+0TpDu8ua2C++pGVotUBqvnSKtp8ggahzjhVphvQg6p+LQENVikEC+ZagWARaH5qTO9zDXtjJBHJXOJKlNehDu83HnaY7mUDuuBEqEg36oGcrF4GoeZ9MILc3aUicGWSA2ZCLQJzJBHJD6EREDXmQk0ChwsEggdwkngUR10mgUNtzE/OlaWk2GIGMQEYgI5ARyAhkqJ1Abh/81taW/ZIrJFBo7lNUHMjc+HUSKFQTFCQQfdJWTJYfvrqsRQQSNzc3/xkLa9BHzlTGUP4zSCC2u7gljgZ9aG3z6ZvWMZlAvmlkNgNaHznrgRAikwnkGzdrLT36YApKLgINbR0IEsi3FJbySoMu2Hmai0BD03eDBGLPpo20yw/tweMxC3uDBKI32rcDzKALzQUs7jk6OppOIOAOODJXXh+uN1yKCz+KQL7CevPEdJFjWuvYCtRBAvkGHFlvmC7c9vJFDVfwtZSMnV5lmI+caYwk412oh3Wz8mOnVxnmQ3sBXfIBU4AyjpgaEUM65GprTjbiDvhWHAzFBwxpsLe3l4VATARJRiBfZ+RQjsSQBsTdchAI1ZmMQMDtUuXYXnh5bGxsqJMnpgN5NIF84XRcfIMciAKXrL6iCIQacxsNkUoGOfiS2SWprygCAXdaB4eEq0EGOdZexta9RxHIt37Ikqt12T8HBwdyBCKoSIItNmNriAcOSo5RLrF5zuiluz5j2vrF0mN/f79o43kygXgzfMk9k0LLjv+Qrgo1ECYjEPAN37Smw3RAjaBOSpc+kwnEA/r2N8QaYAY/WPambftMHZ7aTH1In46GVFZsNh8MsSipcF6EQPRLu2vAreh+PnzlMyWt+U5GIODbJWbrMOdBu3xjTNGYGIGAbxURksk2Oqe7T6nD7IO5q7tmEwjXz+fWW9lrPAiFaG0nRE2mKApsUjx43zYZ88ri4OuAybVERZVAYHt72+se2nKW8mI/BClTbZ1MRiAi1L48GbW1Y4qz1w6tnWCYG1MizuIECnllSCfbsxofEsmxQC4rgUBfDcvUUPkaoJU4JRGeGo3E29SXCJwT8aw5cOjOopQ4VExIaIFG4lIwCH1F+FZH/S80RregHqUWBTZSF0OMwWdUcxDZhv86HtKeF/lJSU+4kbwgirP7BgNQML52SNc8Q86YAvniCAQouu97y9a8QpxZk5JRZ+5cY55lo3FZ1Lf0ZZhJeazNxed5JWf+aJFHjUCADH2fJMJDWFMdkWTQkE4OzUm6jebFMWuoj0R4bWuY+EHCVGpglDZ51Al0bFj39TtxsTVPP8OVdmdOplzPneMFbHJcJLmYUPCMkSY12kW+OUspDtI7V76xyfk2+lqlTyZhUXkWMAyfnZ2drPZjk/tiSW+E3FlqZKSiqFqQGpIAKXNL6qaEC8ZDC/WBY3jjuSxRrVHjnDreQ4T/8PCwiOdrSrlo7CLE8dDcPi5uKUTCIUjdYUFpTEmDvZrSLp15jEP5IYzGUt7AUKwnpeThTrib0l6epsTL5w0b0xuOJ0ditqQgJN8ldWMgzkbKKsLqCXTSNhoTN0FNoP5QGTnfUL5vytqeJUjaogkEIARJ17HDlvg7ttvwY2r1plEusbu7m0xlUYLBMy/B1iueQMeADLitMfUzRLYZR0wRGxHw1D8IlQYpicOzQZwl5QUXQ6BjEHHlkvuK1YYIRRacHx0jl2HpVApALtIAIYLxGYNGWT9JHY9vOsmcHBbfZ4nxrsUR6OQPis0TimZPlQLklU4eqapBHAUIvOQ28MUS6CSQHqgpd899iYfviLSpZUh7FQRyyUT0F1ca6ZGbMKhaPES+U42T/asjkAviJ/ToM7cIlUGHglQpKeEEwg5UWZL/WsPcyOoJ1OfR8eMyGweDnIQtKQJGq3CI5bh2EP8P9cPn/C0SDq8QomCL4cqvcaTNKglkMAIZjECGGvAfowYPI3XWGAUAAAAASUVORK5CYII='
p39
sS'version'
p40
VV6.0\u02e3
p41
sS'uni'
p42
V\U0001f316
p43
sS'desc'
p44
V\U0001f316 
p45
sS'browser'
p46
V\U0001f316
p47
sS'annotations'
p48
(lp49
Vgibbous
p50
aVmoon
p51
aVnature
p52
aVplace
p53
aVspace
p54
aVtime
p55
aVwaning
p56
aVweather
p57
asS'wind'
p58
S'data:image/png;base64,iVBORw0KGgoAAAANSUhEUgAAAEgAAABICAYAAABV7bNHAAAAAXNSR0IArs4c6QAAAARnQU1BAACxjwv8YQUAAAUZSURBVHhe7ZtrTJtVGMffFqH0Ar0BRZCxziHLNufc1HiLS9AoXtAY48yMGR/2wcR4/2CWAJ+QxH1QY2Y0fnDxlpFIUIyyMZxBp5kziiFTpwg4BysbK6WlhXYUbD2nPGjTCZznfc/7vlTOL2nO/zn9sOS35xzey6kkEAgEAoFAIBAIBALBSsMAo6Yca3vsuVJHuN6UO1uad9mcNT83bnZYLubA1ylGg/Z4Imm4GIubAoEpW//IhL11554334OvNUMzQVRKhXviWYd1ujxTBgtnJ5zSO8du8ZF4hHzampqaulJfqIzqgno/3XmwzBmsK7WHbTAlGyJI8gVdqZxMJr8iQzsRtT81oRKqCaIds67kQlO5a9IJU4r5/g+v1P3TZqjmAVEvqdVR6FZn4ffP7+/bUHZut8sWNcMUF3JzEtKPf66Fah6DwUAn6mpqahw9PT1H52f5wbWDulvrb99Ydq6NZ9dkkr7MMiHd1Gk0Gl9oaGg4BVOKMcKoGCrn2sqRTjXlUDZdMQrpUkg33UskfdTS0rIRphTDRdCCnKKCaRNMqUZRQQTSolTzlKRYkJZyKN7icUhLwk2SYkFXV4x2aCVnga2Vw5CWpDqRSLwBWTaKBA0cva+fx/UNlpLCMKSlIXvSjubmZkXXSbIFnfh412vrPf6roNQUhn3oH4ikJ4mkWijRyBZ0pWfscYia47RGITHTDCMaWYJ+6XrguNb7TjoOC04Q6aLrSBc9BSUKWYLKnKEbIOoG40adzm4YUaAFnTz0UJecu3HeaNVFaEEua0T37qFYTTOQUNwFIzMoQfSiUO1bCVYspjgkFLfCyAxKULkzJPuvAW8sefgOIsvMTpZZI5RMoATZ8uPrIGYzXhiZQAki/2sOiLrjtk1BQrMFRiZQgvS89snEnDcLCU0VjEwwC6KPUCFmNXQfgsgEsyBrfvx6iFkP5t4MtcT+RzAvs9UqiBkhaBlWpSDMy0ZmQdvrPnwU4qoC1UGxeG4SYjbTDyMTKEGTMfM0RN25EC6EhCOZTA5CZAIlKBIzD0HUnfic7EdSP8PIBErQxJSVHhTIdr6EkQn0u/ngdzvmVsITxb4za6TOvmugYqa/sbFxA2QmUB1EGY8UrJhlhoXsPx0QmUELOu13PwFRV3xB3INNImfSaDSij/ChBd25690vhgOuMSh1w49/odsu51gMWhDljN+9T+9rosXOCP0X0D0vQ4lClqDbHv7gVV/QMQCl5tADnUjel3uoSpYgStUdn1WPR6yy3r0oJRyzQFoe0j0/kHsvWW9VKbIFUYbGPG/psdSC02yCYGnVQykLRYJufLD1mcExTzeUmjFwvgTS0hgMhqeVnldUJIiy5Z722lO+0m+hVJ1Q1MK0QZPu2UcuChWfzFcsiLKp9pObtZLEcpNK5ZB9Zy+UiuAiiLIgSe09aSSw+F8wuueQD3HDRw6FmyAKlXRyuGJ/KJr/F0xx58TgekiX0E/3HCLnRai5oMpPEeghhyqP/8Da4sAamOLCaX+RdPD4TVD9C+maA0TMHii5wrWDFqC3I96aQ5Vf/1b1/PnJQtnviDMZzbj/ImI6yeduteRQVP+1D4Ue+LzcGXqkuCBSYs6blfVvkr1NeuVwbWqfIeU35PM6EaP6T6I0EZQOPaFmt0S3FpqjRazPleiedjbgGuno3fY27z1mOTQXlA7dq9y2WGp5EGHbU5PAzFzOrzOzpug279Bew+Ze9IFEgUAgEAgEAoESJOlvJA+8ds4uk7QAAAAASUVORK5CYII='
p59
sS'andr'
p60
S'data:image/png;base64,iVBORw0KGgoAAAANSUhEUgAAAEgAAABECAMAAAAV8YMOAAAABGdBTUEAALGPC/xhBQAAAAFzUkdCAK7OHOkAAAKIUExURUxpcS8vL5h6JS8vLy8vLy8vLy8vLy8vLzQzLiUnMHxlKC8vLy8vLy8vLy8vL9CjHy8vLy8vLy8vL8GYIaCAJPO8HOGvHva+HLOOIi8vLy8vL9KjHy8vLy8vLy8vLy8vL8SaIHVhKC8vLy8vLy4uLy8vLy8vLy8vLy8vLy8vLy8vL7OOIvS8HKiFJC8vL/G6HOSxHe+5HC8vLy8vL8yfIPK7HNioHuCuHuWyHcmdIC8vLy8vL/K7HC8vLy8vL7uTIi8vL6eFJO+4HC8vL/C5HC8vLy8vLy8vL/W9HOKvHS8vL9OlH+q1HdyrHuCuHi8vL+izHS8vL96tHvS8HLyUItKkH7mSIvnAGy8vL0tDLC8vL+i0HfG6HNioH/C6HNSlHy8vL9OkH6GBI/a+HPK7HOGvHuCuHi8vL+u2HaWEI/S8HC8vLy8vL9uqHi8vL96sHi8vLy8vLy8vLy8vL+ayHeizHe23HPa+HOSwHS8vLy8vLy8vL/K6HPa+HMCXIduqHi8vL+GvHva9HPC5HMabIdWmH9qqHsufIDEwLy8vLywtL0U/LXpkJy8vL/zCGy4uL/vBG/3DG/7DG/7EG/3CGy0uLywtLy0tLzIxL//EG/nAG9eoHkM9LfS8HFJIK1pOK5F1JWZWKvi/Gz46Lve+HPrAG/G6HDw4LsufIM2gIDEwL31nJ450JnlkKPvCG+GuHuSxHUlCLJh6JW5cKVhNKy4vLzAvL9ioHtOlH+KvHZR4JbaQIj87Le23HDQyL6SDJLCMIk1ELGFSKmpZKcyfIKeFI3FeKEtDLEQ+LfC5HJZ5JbiRIuu2HcSaIINrJ/W9HNSlH+m0HUZALdCjH5x9JGhYKcqeIIVtJyAda94AAACNdFJOUwA6Cfjx6RIHAgECLTTYRjn+8nMKBPKF+QsFCErTkuZoDAWx4PfJQX3Eebcb+QwQ67PRn+JF7U6Hqzv7CuapahyYEcQs5tskp/eo7ljClIx1uU58/DVCGPptA1S741XfaGRiBfjxfXiFbQ7zi56fs7kMygm2ycsN0J4cBFPf/Shjjabu1VAXfY/g4+PJsG2F+rAAAAKpSURBVFjDrZgFW1NRGMc3tiEoIIhYpITd3d2Frdjd3YXYfd7dUhyKlEjY3Z3Y7ddxY8577ti995w97/8D/J7zxnnLYtFVyMEDhw6fOH7kWLrtaFpG6p5ka+gOC7ea7s7Zu39f9pdvP37+KnM6iVu2pIzEndvDuDDL47ftygaPRFm+8PvPdy+KkPSEldYmzJiBo8evAFWiq/Tr55Jc8k+O4VG9mTBZXTqMAD/JxZ+KKp0+1KhOEeHmnP7d2wtQU/LHwrKTPhJJyww1wYRNGZMHASXmPXyrknqlRhhy6s+ddQX0JJXf+m8dIZEzDOLXaHEcGEg684IiOabX0uU0aAhgTCpQrSMx9XRIsWYcN+nVc4pkD0xasGQhmEr6UEJZZ0/OChCv+YuAQaU3TqsgkjShJqjuHBYOiI9f5lKkhDr+nKkzBSYQyOXvKONI33Z+CTRxGjBKeHCHAtn6adOp5xBWDkhXz1GRI5GDaU7bkQIzCMSntL+jE+kciI9T2EHSfc2THFaqqPbgeBCA8p7QGtBYDX1XhQck3ztLB66zmgLjuB4EYv6bU/STWvo4rTsCn1yvaXeTFr4q162NwgeS7mpsszfzcmqPFThfJFYV0f+ENPeW8NhBwK1CjZNaeVNpch+Fl+N69uQ2BRo6rBo0exI3SK54RDspJsrDCV8mcFsmXrtOJ3f0vOouv5rfRWJVgcbbSz3eDlnLD1Lyb2pAqzy/JGUTPwjOX9aEbY1nsEjZHAzooga0cYMbtGVrECDhkga0fh0mCM00NGejhR8tIdG+CNqnxSsjaIUNrdSiFX/+diTrtCO0BonXstGGCLSxBm/QQhv98IZRjvG4wnA8xhvY2VeISpMVAm2pwVuz8BY/vFUUbznGW9fxDgiIJw28Iwvi2QfxEBXEaewvlzLdKxm/HG4AAAAASUVORK5CYII='
p61
sb.