ccopy_reg
_reconstructor
p0
(cemoji
Emoji
p1
c__builtin__
object
p2
Ntp3
Rp4
(dp5
S'emojipedia_url'
p6
Vhttp://emojipedia.org/badminton-racquet-and-shuttlecock/
p7
sS'index'
p8
V687
p9
sS'code'
p10
VU+1F3F8
p11
sS'apple'
p12
S''
p13
sS'twit'
p14
g13
sS'gmail'
p15
g13
sS'related_to'
p16
(lp17
sS'name'
p18
Vbadminton racquet and shuttlecock
p19
sS'known_as'
p20
(lp21
sS'default'
p22
Vemoji
p23
sS'bw'
p24
S'data:image/png;base64,iVBORw0KGgoAAAANSUhEUgAAAEgAAABICAYAAABV7bNHAAAHQUlEQVR42u2bV2hUWxSGE7uxxRa7YAfxwUrUJ7uIgolofLCiIiIKCioiihW7Ym/YTWyx995774bEiF2wd7H+8i2Yy9zjxBf13pnJXjDMzMm08+21/lX2SYSc/dIiHAIHyAFygBwgB8gBcoAcIGcOkAPkAIUPoKdPn+rUqVPasmWLVq5cqYMHD+rdu3cO0M6dOxUbG6vIyEhlyZJF+fLlU65cuRQREaFs2bKpYcOGWrFihb5+/Zq5AH348EEdO3ZUVFSUunTpogEDBmj16tVKSUnR/Pnz9fz5c9WtW1fdu3dXzpw5VbVqVR09ejRzAAIOJ1+mTBmlpqZq6tSpunv3rjZs2KBDhw7p3r17mjx5sp49e6bExERVrFjRPCpr1qwaPny4vn37Ft6AunXrpjp16ujBgwcaOXKkHZswYYI9P378uIECHB61ceNG9ezZU61bt1b//v2VP39+tWzZ0iCHJaBLly4pd+7cmjZtmrZu3WriPHPmTL1580bJycm6fPmydu/erWvXrmn//v16+PChli1bpmPHjun8+fMaP368ihcvrubNmwelLv02ILygRIkSBmrXrl1av369bt68aaF09uxZnThxwjLYyZMn9fHjRw0aNEivX7/W2rVrtWPHDt25c0eLFy9W9uzZNWLEiPADVLJkSfOMJUuWmEccPnxYe/bs0b59+5SWlqakpCQdOHBAL1++1KhRo/TlyxfNmzfPjvGac+fO2Xv79etnmgTQsAH09u1bS+UzZswwOHgQXgGgJ0+eaMqUKZa98KpNmzbp8ePHltHQI15LFuP49+/fDVCTJk1Uo0YNex7ICNvr16//p6H4W4BI4YUKFdKZM2cM0NKlS80jOI6XYBMnTtSFCxdMrNEkHpPhgIYXIc5Dhw7VixcvNHDgQMtuiLrXbty4obJly9rf0auQARQdHW06MmfOHBNoIKE5eBDecv/+fQtBKmoyGK9B0G/fvq2rV69qzZo1dgzhxvsqVKigpk2b/vRd6BNwfDfeGxIhxo8dN26cPe/Tp48B2bt3r4UOXoM4k914TIgNGTLEQoj2A726deuWtSRkOsqCsWPHmmAj6P7GZ/gDatu2bYahGFQiHRMTY0AoBNGIbdu2Wb0DEJ+H4E1HjhzR5s2b9f79e02fPt0yHYLMDc/ivQsXLrTHAPCKNcUkVToZs2vXrlZLkSmDHlCnTp3sx+IdhBb1DveE36JFi+w1Y8aM0aNHj3TlyhWDh54g1OvWrbMsR4WN93369MkAIfzcey0uLs4SAt7HoviSQlADQngp9EjZNKqcPD/89OnT1r0TMoQiIYIOkeEIQ06SIhJoCPnnz581evRo8yyq8lWrVv30XQULFjTw6enpFpaEKN+F2ActIFadHowOHhCTJk2ykyQd4y3AINzIWoQZzwEBEFZ/+/btJvKUBBSWeFSlSpUMoNcILzQN7+M9lBC8H0+k5wvaXoyUjm706NHDhBNvYXVZZbSE8QbA8B6gUcfgWRSSHEObKA84eT6LghGggTyI43gQxmcSnnzHggULrNwISkB4AwUelTJpvn79+jbyYFVbtWplQAgZwo7VR6TxALyFECHjEZroDp0/s6RAtRBjkrlz5xqUV69emQcBGbiUBm3atAneeRA/lBUuXLiwZTIqYwS8UaNGateunfVfrDTiCijCCTjcU1GjZZx4vXr1zBsJOX8DMsd90wKyI8LfuHFjDR482D4n6CeK6AG9WbNmzSzEgIbesNLoBMd4DVU3/Rf9GSFFaFEHzZo1S0WLFlWOHDksXP2NzwBQ7dq1zYuYTHbu3NnCLKRGrgg0XtCgQQNbZUIH7yDDXbx40QAtX77c6iGKRjIdFTeZKD4+Xu3bt1fv3r1t4ugdyhHGlA7oGE1vyA7tyWaEVc2aNU17aCMQVgo7VhxoFJZoF+GBHtWqVUtVqlSxgpHshrdQW4Xd0N7fGL0WKFDAdKh69epWUTMHQqMItw4dOtiMGu1Cr9AUn7cw6AdsWAPyjShmz55tkJg84hl58+a1VM7jIkWKWJ3kNcawhFvYA/IWlb5KGFHu1auXVeGlS5c2MSeL+QzvwfsIw0wDKJCRvqmDEHYG+PRtCDdlAXUPRWemBuRv6FO5cuXMq5gvtWjRwsTeAfKEIfUQkNApboSlA+QxWgnmPgg5rcv/pUVBf3UHjS69Wd++fR2gjIwMhyfR3DpAGRh9FyPXv9WUhjwgxJv+rlixYrYj4gAFMDr68uXLq3Llyv8qKh0gP2NTgIuyqlWrZlNJByiA+XZguTHBdIA8xhiE/g1AtCN/84KHkL3KlamkbzqAcLNb4gB5jImlL9QYzjGldIA8NmzYsH8gJSQk/PH9+pAHBBC2e3yQ2HpygDxGaDHTBlBGe2qZGhDGxaGlSpUySHny5LF9fwcoQGajXwMS12L/CT0Ku39mIbzYfGTP33nQLxpbp0Gum3eAHCAHyAFy5gA5QA6QA+QAOUAOUNjaD4mqjySZ5IqHAAAAAElFTkSuQmCC'
p25
sS'version'
p26
VV8.0\u02e3
p27
sS'uni'
p28
g13
sS'desc'
p29
g13
sS'browser'
p30
V\U0001f3f8
p31
sS'annotations'
p32
(lp33
Vbadminton
p34
aVbirdie
p35
aVgame
p36
aVobject
p37
aVracquet
p38
aVshuttlecock
p39
aVsport
p40
asS'wind'
p41
g13
sS'andr'
p42
g13
sb.