ccopy_reg
_reconstructor
p0
(cemoji
Emoji
p1
c__builtin__
object
p2
Ntp3
Rp4
(dp5
S'emojipedia_url'
p6
Vhttp://emojipedia.org/black-right-pointing-double-triangle-with-vertical-bar/
p7
sS'index'
p8
V711
p9
sS'code'
p10
VU+23ED
p11
sS'apple'
p12
S''
p13
sS'twit'
p14
g13
sS'gmail'
p15
g13
sS'related_to'
p16
(lp17
sS'name'
p18
Vblack right-pointing double triangle with vertical bar
p19
sS'known_as'
p20
(lp21
sS'default'
p22
Vtext
p23
sS'bw'
p24
S'data:image/png;base64,iVBORw0KGgoAAAANSUhEUgAAAJAAAACQCAYAAADnRuK4AAAFOklEQVR42u3dITBtQRzH8RsE4QZBEARBEARREARBEARBEMQbbhAEwYwoCIIgCIIgCIIgCIIgCKIgCIIgCIIgnDf/N29n7jO4Z8/uf/e/c7+/mX8yZszbz5uz5797dlsVIQFp8U9AAEQARABEAEQIgAiACIAIgAgBEAEQARABECEAIgAiACIAIgRABEAEQARABECEAIgAiACIAIgQABEAEQARABFTOTo6qtbX171KfqcIQE9PT9X+/n4RAyF/58vLS3GABESr1fIq+Z1iAMkfvLGxUcRAjI+PV4+PjwCyBkiq2+1Wn5+f5gdidHS0ur6+BpA1QFLLy8vVx8eH+YEYHh6uzs/PAWQNkNTs7Gz1+vpaxEBoTTYBFABIamJi4u/PShiI7e3tIh69AwVISiasDw8PRQyE/MwqooEFJDUyMmJmwtpvIKzO3wYakJuwnp6eFjEQc3Nz5npFAw/I1d7eXhEDIfM3S70iAPXU7u5uEQMhvaK7uzsAWQMk1el0skxYfQdC5m+3t7cAsgZIanFxsXp/fzc/EENDQ9XFxQWArAGSmpmZSdpwbDIQrnZ2dgBkDZDU9PR0MkQhgKS2traKePQOFCCpycnJJG89oYByNRwBZGTCGgOQazi+vb0ByBIgN2HVXCGPBcg9elOt9QHIs7S61jEBuYZjirU+ADUojW2ysQG5R692wxFADUu2ycacsGoAkmq329XV1RWArAGKvUKuBcjN37Q2pwEosBYWFqJ0rTUBaTYcARShpGsdus0iBSCpzc1NAFkDFGOHYypAUisrK1kfvQBS2OGYEpBbMI6BCEAKbz1NEKUGJDU/Px/ctQaQQsk22ZOTE/OApKampoK61gBSLJ9tsrkASY2NjTVuOAJIuWSbhXVAbv52c3MDIGuA6k5YcwNyj96zszMAWQNUp+FoAZCrw8NDAFkD5LZZPD8/mwfks9YHoMQlDcfv3nqsAaq7wxFAmd56vu5wtAjILRjHfvQCKNIKeS8iq4DcWt9PiACUqZaWlv57M7MKqN+3ZwDKUN+d+WMRkCzL9PtwEUCJ/zf/tCfHGqC6e6oBlLBJd3l5WUQfyGd9DEAJSk7T+A2PJUDS8PT5GhdACfo+db5stQBodXXVe3sugBRLToSt+1l0bkCy1bXJVyYAUnwU+Oz4ywko5HQ2ACnU2tqa93bRHIBinA8JoIIfBdo9HgAlBhTy3VVKQDHPyAZQpAahzx6anIBC90ADSGEraL8ejxVAsv4W+8Q1ABk5QkUbkODROL0MQAq7C60BajqxB5ASILlywMKjwMIJ/AAK3MdjFVCTjxsBpAxI8xTUmIBSnmIPICPnMMcCJD2e+/v7KlUAVKMODg5MDoSFm3wA1KdBeHx8bHYgvm58j/lWCKBAQLHWilIAinXMHoAiAZJHQcp5RAgg+b2cV2ECSOG8w1QDIT2e3JfxAujLoyDlPRMhA5HzdkUARdoPnGMgrFwSDKCe6na7RTwKZGIfY+UfQBEBpejxxBiIVJenAMgDkO9pXLkGQjaB5ejxAOgHQNbmEb8NhLwVWronfuABhRwGnnogctweDaBfAOVoEDYdCM1NYABqACj1Nd4hA6G9CQxAnoCs4+kdCCsNQgD9A1TCPELS6XSSLt4CqEZkkTHnQqNPSkD+XeQma/mg0qe0br9uVYQAiACIAIgAiBAAEQARABEAEQIgAiACIAIgQgBEAEQARABECIAIgAiACIAIgAgBEAEQARABECEAIgAiACIAIgRABEAEQARAhACIAIgAiACIAIgQABEAkeLyB+CFoZb/okUeAAAAAElFTkSuQmCC'
p25
sS'version'
p26
VV6.0\u02b7
p27
sS'uni'
p28
g13
sS'desc'
p29
g13
sS'browser'
p30
V\u23ed
p31
sS'annotations'
p32
(lp33
Varrow
p34
aVnext scene
p35
aVnext track
p36
aVsound
p37
aVsymbol
p38
aVtriangle
p39
asS'wind'
p40
S'data:image/png;base64,iVBORw0KGgoAAAANSUhEUgAAAEgAAABICAYAAABV7bNHAAAAAXNSR0IArs4c6QAAAARnQU1BAACxjwv8YQUAAAE8SURBVHhe7dqxTQNBEIXhgwooADkjJXcBzl0DbbgiWiCjFSqgAzPPd1h26nu7ezP6P2m0e8no/IfWTQAAAAAAAAAAAADwtJxb8BLzO19X0Z7dfL34iXHsfch7zGG+rvYR49ildzrfjJ4f9ryca3zFuCI5d1k4AknZSK5AUjKSM5CUi+QOJKUitQgkZSK1CiQlIrUMJOkjtQ4kqSP1CCRpI/UKJCkj9Qwk6SL1DiSpIo0IJGkijQokKSKNDCSbjzQ6kJyW08G562J0oO+Y43xdzbnramSg/x/k+L/YuevOqEAp4siIQGniSO9AqeJIz0Dp4kivQCnjSI9AaeNI60Cp40jLQOnjSKtAJeJIi0Bl4og7UKk44gxULo64ApWMI45AZeM4vMbokzeHfYxj11vM583oGQAAAAC2Y5r+AAMOaYfkeJfzAAAAAElFTkSuQmCC'
p41
sS'andr'
p42
g13
sb.