ccopy_reg
_reconstructor
p0
(cemoji
Emoji
p1
c__builtin__
object
p2
Ntp3
Rp4
(dp5
S'emojipedia_url'
p6
Vhttp://emojipedia.org/black-left-pointing-double-triangle-with-vertical-bar/
p7
sS'index'
p8
V715
p9
sS'code'
p10
VU+23EE
p11
sS'apple'
p12
S''
p13
sS'twit'
p14
g13
sS'gmail'
p15
g13
sS'related_to'
p16
(lp17
sS'name'
p18
Vblack left-pointing double triangle with vertical bar
p19
sS'known_as'
p20
(lp21
sS'default'
p22
Vtext
p23
sS'bw'
p24
S'data:image/png;base64,iVBORw0KGgoAAAANSUhEUgAAAJAAAACQCAYAAADnRuK4AAAFYElEQVR42u2dITCtQRSAbxAEURAEQRAEQRAEURAEQRAEQRAEQTAjCKIgiIIgCIIgCIIgCIIgCIIgCIIgCPvm3HnXjOv///vv/rtnzx3fN3Pre+e5n7dnz56z23IADWjxIwAEAgQCBAIEAkAgQCBAIEAgAAQCBAIEAgQCQCBAIEAgQCAABAIEAgQCBAIEAkAgQCBAIEAgAAQCBAIEAgTy4O3tza2urnp/Hh8f+TYQyLnn52fXarW8P9fX1333w9vf33cvLy/m45QYDw4OEMgSW1tb7bjl32uZp6cnNzY21v5fHoEM8Pn56VZWVr7jtizQ/f29GxkZaceJQEbkmZub+xG3VYHk5zk8PPwdJwJl5v393c3MzPyK26JAJycnbnBw8EecCJQR2SGOj48Xxm1NoMPDQzcwMPArTgTKxMPDQzsJLYvbkkCbm5ulcSKQgTzCskBra2uVcSKQgTzCokAfHx9ucXGxZ5wIpMjR0VFhHmFNoNfXVzc9PV0rTgQykEdYEkj+3qrcDIEM5hFWBJIC4ejoqFecCGQgj7Ag0M3NTc/EHoGUl4KJiYmgmLUFurq6qpXYI5ASnYPGUHk0Baq7K0QgQzUeKwLt7e3V3hUikNJSMDQ01FgeDYFCEnsEMrwUaAkkJ/9LS0vR4kQgI0uBhkDSFjw7Oxs1TgRqyPb2dtQvJJVA8ueVnfwjUAaBvr6+oi4FKQWqahtBoAwCSR4ReylIJZAk9jF2hQgUCTloLOogtChQ7MQegSIsBU0LhFoClXUQIlAmgXp1EFoSaHd3Vy1OBKrB5eVltAJhaoE2NjZU40SgHpyenibPI2IIJLvCWNVlBIokkIwYa+QRTQWStpH5+fkscSJQCZ0R41yfugLJfPrk5GS2OBHIyFIQIlCMthEEiihQ2ZSoRYGkg7Azn45ABgQSeepOIuQWSHaFORJ7BKqo8eTMI3wE0qguI5CHQDKJkPKsKKZAOXeFCFTA7e2tSXmKBFpfXzcZ558V6OLiwtxvc5lAuUsKCFTSkhE6s6UtkGzXreVoLGH/sVDzqbOE+cyrI5DyLkz7ADI0iZYiZ+pGNgQKrAP53JyRcxtvpVKOQAXEGgrUqETv7OyYEB6BCupCFo4I6pyFySXfuSVCoAIkYZ2amuqL0/jz8/OslWkEqjgby5mw+vQDSUFUu2MSgWq2diwsLJgXSLi7u8vS2oFANSTKsc0P6YmWqZEmdxIhUMKpDO1tfmhTvXZPEwJ5oNlK0WSsR45plpeXEciaQELoXYLag4VaSy8CBaBRK4o1Gy+3h6RcehEoEJmGSFkrink7R8oxZwRqQMo+6tj3A52dnSWRCIEaIkN9KRLWFDeUpTjrQ6BIxD4hT3VHYuxLIhAoIjFvxUh5S6ssvbEKjggUmePj4yi5RuprfmXp7X6nFYGM3FQvJ+RNDzc1LhqPkb8hUCKazptpPXUgBUeRAIEMvtbTJGHVfq1HRodCll4ESkxorSjHe2Eh+RsCKUnkm7DmerFQBi59ll4EUsI318j5ZqrP1TEIpEzdE/LcrzbLNGwdiRAoA3Wa0yy8G1/n1UUEyoTUiqoksiBQJ3+r6nBEoMwSlXU4WhFIqHpjDIEyU5awWhKoQ9EdRQhkAGlO6841LAokyON6CGSQ7oKjVYG6C44IZEyiTsJqWSBBOhwlf0MgY0jCKtOw1gUS5DE7qWv1hUDy2ykNW76ffvgiykT6y3G2HAACAQIBAgECASAQIBAgECAQAAIBAgECAQIBIBAgECAQIBAAAgECAQIBAgECASAQIBAgECAQAAIBAgECAQIBIBAgECAQIBAAAgECAQIBAgECASAQIBD0Hf8AunamoDKycwoAAAAASUVORK5CYII='
p25
sS'version'
p26
VV6.0\u02b7
p27
sS'uni'
p28
g13
sS'desc'
p29
g13
sS'browser'
p30
V\u23ee
p31
sS'annotations'
p32
(lp33
Varrow
p34
aVprevious scene
p35
aVprevious track
p36
aVsound
p37
aVsymbol
p38
aVtriangle
p39
asS'wind'
p40
S'data:image/png;base64,iVBORw0KGgoAAAANSUhEUgAAAEgAAABICAYAAABV7bNHAAAAAXNSR0IArs4c6QAAAARnQU1BAACxjwv8YQUAAAFNSURBVHhe7dgxTgMxEEbhBfqIji5H4Bb0OQPX4FLUdByCC0TUCFHRIJgfG4na9tgzq/dJIzspRtlXpNgNAAAAAAAAAAAAAC7q2era5liuv8427+XaRXtH7Fnu1ub73+hzrzub+3Ltpl1dv+mynlHogZ7KtduQXZEChYsjUQKFjCMRAoWNI6sDhY4jKwOFjyOrAqWIIysCpYkjswOliiMzA6WLI7MCpYwjMwKljSPegVLHEc9A6eOIV6BdxBGPQLuJIx6BHuo5wshdTTwCnWyey7XbyF1NPALpXfKoBxu5q4nXn/RuInkFkl1E8gwk6SN5B5LUkWYEkrSRZgWSlJFmBpJ0kWYHklSRVgSSNJFWBZIUkVYGkvCRVgeS0JEiBJKwkaIEkpCRrurZ6mBzY/NSR2//3mxafdo8luv2Ws9Wf7u+bD70BQAAAACEsG0/PXtwauMvZrwAAAAASUVORK5CYII='
p41
sS'andr'
p42
g13
sb.