ccopy_reg
_reconstructor
p0
(cemoji
Emoji
p1
c__builtin__
object
p2
Ntp3
Rp4
(dp5
S'emojipedia_url'
p6
Vhttp://emojipedia.org/double-vertical-bar/
p7
sS'index'
p8
V720
p9
sS'code'
p10
VU+23F8
p11
sS'apple'
p12
S''
p13
sS'twit'
p14
g13
sS'gmail'
p15
g13
sS'related_to'
p16
(lp17
sS'name'
p18
Vdouble vertical bar
p19
sS'known_as'
p20
(lp21
sS'default'
p22
Vtext
p23
sS'bw'
p24
S'data:image/png;base64,iVBORw0KGgoAAAANSUhEUgAAAJAAAACQCAYAAADnRuK4AAABnUlEQVR42u3SMQ3AMAxFQUMLM0MxlEAxlBRCBy9Vek/6u2VdHGlQeIEAEkACSABJAAkgASSAJIAEkAASQBJAAkgACSAJIAEkgASQAJIAEkACSABJAAkgASSAPlJVncwcr7uvvAegl9ZaJyLG23tfeQ9AAAEEEEAAAQQQQAABBBBAAAEEEEAAAQQQQAABBBBAAAEEEEAAAQQQQAABBBBAAAEEEEAAAQQQQAABBBBAAAEEEEAAAQQQQAABBBBAAAEEEEAAAQQQQAABBBBAAAEEEEAAAQQQQAABBBBAAAEEEEAAAQQQQAABBBBAAAEEEEAAAQQQQAABBBBAAAEEEEAAAQQQQAABBBBAAAEEEEAAAQQQQAABBBBAAAEEEEAAAQQQQAABBBBAAAEEEEAAAQQQQAABBBBAAAEEEEAAAQQQQAABBBBAAAEEEEAAAQQQQAABBBBAAAEEEEAAAQQQQAABBBBAAAEEEEA/A1RVJzPH6+4r7wFIAAkgCSABJIAEkASQABJAAkgCSAAJIAEkgLxAAAkgASSAJIAEkADSL3oA5rb6McapKSwAAAAASUVORK5CYII='
p25
sS'version'
p26
VV7.0\u02b7
p27
sS'uni'
p28
g13
sS'desc'
p29
g13
sS'browser'
p30
V\u23f8
p31
sS'annotations'
p32
(lp33
Vbar
p34
aVdouble
p35
aVpause
p36
aVsound
p37
aVsymbol
p38
aVvertical
p39
asS'wind'
p40
g13
sS'andr'
p41
g13
sb.