ccopy_reg
_reconstructor
p0
(cemoji
Emoji
p1
c__builtin__
object
p2
Ntp3
Rp4
(dp5
S'emojipedia_url'
p6
Vhttp://emojipedia.org/mobile-phone-off/
p7
sS'index'
p8
V740
p9
sS'code'
p10
VU+1F4F4
p11
sS'apple'
p12
S'data:image/png;base64,iVBORw0KGgoAAAANSUhEUgAAAEAAAABACAMAAACdt4HsAAAC91BMVEUAAADBRwvATQwAAACkUgzASwzBQwkAAAACAADbQAnWPgi/Vw0AAAAAAABFFwCXPAiZSAu/Pgl/JQTAUQ3MOQidRAm6WA2iSAugTgy2PAimMwfGPgmYLAa6MgegLAdZGATUQQpfGwPSQQi0Uw2vUwydSwulUQ2oUwylTgysXA+bSgr/dBP/eBT/iBf/ihj/hxf/fxX/hBb/kRn/bxL/jBj/dhP4Xg//fRX/gRX/exP/bgT/gxb/cQr/r3H/hw7/XDv/ggz/dgj/egf/9ff/nUf/jBT/k0T/fgzjaxH2eRT/cRLrWQ35ZhD/iyb/iRP/y53/hBD2ihj2ghb2hhf2fRXkZBDjbxLjYA/2cxL/q3HcUQvzWA3/jQ//qVn/z5zkaBH/eg3xZRD+ahD9chP3XQ/nTQv/fWX/z6f/ghb/hhP/mEb/lDb/bFD/jjnhWw7ybRH5bhH/WTb/fib/XwL/0rH/vYf/3tv/SwD/0M//xLr/PQT/qXr/SCz/lX//kFD/s0nDcRL/oy3/qzv/v17/sUb/oSn/tk7/pTH/rj//sEL/pjT/////niP/xGfrlRT/ulf/myH/ulX/9ef/x3L/mFb/1pn/lxr/w2P/uFL/wGH/mhr/w2XlkRX+3Kz/pzj/793/zIL0mBT/y4j//Pv/tUv/tEb/0IvdjBP/vFr/vlz/sDz/qzT/wmC/ZxD0nhrYiBb/y3rvlhK1YxD/mSf/vlf2jxn/+/b/+O//uEz/4Lj/qkv1lRfjdRP/dTT/3KX/pjb/05P/+fL/xWn/yHj/9fD/o0fbgxb/xmvNchP/u1T/6Nj+vF//lBr/nCXPgBX/8+H/wGjjfxX/sVD/t1n/5s78uFT/hCT1kRj2skv2xHfjehT6rTz/mzXQeRT/o27/oDPighXXehT/oWr70pP/w4X+mRrfghb3y4j/2LLvpjHztlX/4cX2jRj/pmb/byn30JL/tVX/kBD/jRj/ul3HeBP/oVDgjQz/xWf/Xi3/x5P/hh3/uXX/kCXRod6mAAAAK3RSTlMAz88Pyc/PJh7Rz88IGgRWMsZOz7oaynnFtovUco5sP+JA46vMsNTdt/unD2wZ2AAABihJREFUeF7c00Vz40gYgOE97C1VM6mayjj3wMCfFDMZmZkZgszMMMzMy3jYT654bHXovu/FUrf6Uaur/MP/q17T3f4fr6z/rqn3XOB6/50qjuO/XhE8Ur3Tf/0M0DdUxbdLqdTvV5ZKlbbx6lAfsvvhwnbKr77/cP/t10t7e//De9Wf2i4M9xrefwsv+Sv3AtZYc+6KmjFr4F7FX8Jvde/hNl5Siy/nrGOOZLh8aeGkY8w697KolvDbXedXWFaLgZFpm8vlU/64NMXnctmmRwJFdbnw/SSvDT72Rxw75bwyD62gzaMp+fKOI+J/PHitfYKF5cpRyJZXoBVXfc1YPQ9LkPK20FFludA+R9OqvxhIUj6fT8nniKVxJC5XV3xIVDJQ9K+aToGB5+rDAOWCA6gT/6zHJGOx0F/cqM+FRE0/VJ8PnAI34QvCGY/Hk8m9k87rkFzzIGXC8A0328CbyIZCUZQnm5TObyxLoSkbkTdtoOdZRPNkMpn0qPUCIEatZZA8WuRZTwdgqXQ6vTYvXVRyNI1Esd3ABJ3WNI1duRiIa0hpeqIbEDSLxaIDzfICmm0HgIQFSRMMAG9xu93xXUkaYbE4UnZdB9xIFr4L2Jvg3SzLJlpAnEWiYQezAjrq5if2ugCShVfRHgDiZ3aAhWdndxPoKEsagTiGYcIGABiNQa2FrUAQBCHRuu/YcNkF3HhwImI0TfM6QAs0ncgStRqRTcCYsFU7jaNp8vtNEMPEkwc3OgAjQOQvAAi8IJiP7S9e2I/NMCZ+fnLabzkh+KTdEkkzBuA1yfN87gAAnuTN9nUJWrebeZKU2gUYmG8X5sjXRoCBZ0UdgJ9Hi1KrxUciSY60gTFC7ABRjjEADaeXAeCbDgTlV7AgFALhlRzUAUc4Cu3OcDDfTEb1DmSvs9EBJhtOp9dMEDoQFGX4T3/kuI+S9E4WgwDsywRBMESwNc8xcC17vU5nY7IDfNp0QpvjAMxwMiyNynIUGJmbAWDcubW1RYgisw8AY65t/qw/vvnpDPDTEgBPGfOhJC3I8oIkHcIyAOxfpqam/iU4HVic+hP62wj8Vxmd+6aRhgEcxhk5M4vAFsiN7yQtzIwZD+GeHTBmwJyxTcKCSYgDPuL7vpJ0W02z1bYu+BNW8mpX2cKS01iUkatIblJEilwEKYWFi33nAIYxMvhXoAHxPu/3wYOPz6gSJABnN+UYAJXSnxUA/vj9EoAxIQ/1FwULpDf+H6US9ezjg6bAOANXOPL5juAKLiJ6xktVODzh5+X+vRuAH/Hg8PCA57dz3CYA29fxePxTgmAAOJl/CV1SjcDzKUpoRgaEv3F/H152fPYLAJZ8HMcuEiJwVmZmZmYooannCqAsAn4RiH055cVOl1gRCHAkieMSAAsoqXId6GwEykz2WACOsyyZiBZ53s8K8wDACYtKoLMKBCeJMiRvoGnmJlupZG9YkrRE4f5LCQmIfYm/vIYFUsRkUAHgNCQC0XEavsqwLLuI4yRJwkOMpgkBIHCGYehqeCNA1ADx61KklHNrKwcfgUHXIxRAR3CSJKDEWxGAJ5ithTvm5ub+k26hjJwMdlSBV9MWHGJlQA6Xy53zvMeHq7NMv1ICJCQCJqdblfM7ABypTgkkQ3YLxAUAWN74VdXGLs//5rOos4eSTYDmtQIeJkMjCy6X607ApWphJJR8qADsUE4JxLM7pwrAa1enBF6kbCOQEoh7vV6PEhhRZ0u9qAKGJsAH3wK3OdYCMMhA72rKYYNy0fqh3+8595aLNeCn16bOkVrtlYG+9JrZIeSdrwFnc++Wd2vcuc1xK/Nauk8GjOnXb8xC1otzvtYYX9cCXvOt3rxOG2UA6w+vW0XBfTF/wqsr/rPivj1vXQ/3YzKADMARJMHkXrnyNHYVMDWbhwMMIDKgQw3hiMkq5Xaqc5ustzNFwgZUp5HDhp+EI6OmezQaCT8ZxjTVENT4CISJdoEJmH9kRBFNLT36uKeQiczOjrbR7GwkU+h5jOo19bowFB3SFjKZfP5pi/L5TKagHUJRrEujSAcC2j3Yo/2lZdqewW4U5nWahrr06L3Sw35VCNY+gCGaZukQPdZGekR5+v8B+1EPNlDeyoQAAAAASUVORK5CYII='
p13
sS'twit'
p14
S'data:image/png;base64,iVBORw0KGgoAAAANSUhEUgAAAEgAAABICAMAAABiM0N1AAAAUVBMVEUAAAD0kAz0kAz0kAz0kAz0kAz0kAz0kAz0kAz0kAz3rEn++PD0kAz83LP71aT1nir6yIb1lxv2pTr96tH4umf////848L+8eH3s1j5wXb6zpVGo6ntAAAACnRSTlMAYL8QAEDfUO+AOe1yPAAAAa9JREFUeF7t2NuOwiAQBuBqserMcOpZ3/9Bd9lOKsQgDRITs/3vJoEvkgFsqFwOR3ojx0MthKiEODX0ZpqTg85UIGdR1ZcS0KWurlQk16opAzUVcUAO8aDSKYkh6odE+m1QOyQDmyCVhuQmCId0NkHD56AdSg1kaIcy8n2Qno0x4AEaOHapgdO+hGD078Xw2pucZLu1vr2A7sManBcIw5vy9iinOKSebtjgBLnFmEcpYxAP6oy5TzyRoW50mYkh/CuVjUHaW5FZf7t/ZzM0JrqmeM5D6vMg9MdYV8ksCJw4U9BAhm68jRjqXNlGIG6sXaHZldrrGgJDHBmDDIsc4DX57Q7b3+ZCJoQw1v6e1+IfDevto7sN9xFQBGq54d4ux7z2T0/tV3mQ8Y+0ZCAHsugkY4lI/zkjZUC8dVzGsVvaonOh8NsNW8qGaMbV6RaH0Nt6vP9lGiJruoXp15nhRDsNCCmILYBgpG4pCNh//gcZZv8+2qEv/fLfIdwEyTSkNkGQhvTHHhA4WuELRgKloGOpR5ZDqWcf0RR6iBKnQk9jQpwvZR7rhKivzXvPh+I3P/MeIcInfpsXAAAAAElFTkSuQmCC'
p15
sS'gmail'
p16
S'data:image/png;base64,R0lGODlhDwAPALMPACwspmQnYwAAaAICXNhxp2xv/xYXbf8AAFwAPodr5bJMcTEUZtFRYZs/ZicAVQAAACH5BAEAAA8ALAAAAAAPAA8AAARU8MlJazVjGGOnMECIdc8AFCggkCZaqKQAJDTgUEf+CAHhA4hHTnfYBRSiYFHI5DECAYFSUizyFIuFlMm0BhqC8LRrVIS3S65gEQ3fOud4bPMxrCYRADs='
p17
sS'related_to'
p18
(lp19
sS'name'
p20
Vmobile phone off
p21
sS'known_as'
p22
(lp23
sS'default'
p24
Vemoji
p25
sS'bw'
p26
S'data:image/png;base64,iVBORw0KGgoAAAANSUhEUgAAAJAAAACQCAYAAADnRuK4AAAIJklEQVR42u2dIVAcSxCGEYgIBAIRgUAgEBEREREIBCIiAoFARERERCAiEBFUIRAIBAIRgYhAIBAIBAKBiIiIiEAgEIiICAQCEYG41L/17tVlbmZ2Zm93b2bv+6tavGNf7m7nu9me7p6eqR5CI2iKW4AACAEQAiAEQAgBEAIgBEAIgBACIARACIAQACEEQAiAEAAhAEJoIgG6u7vrvXjxorewsND78OFD7+npCQoAKFyvXr3qTU1N/W+np6dQAEDh0swzCNDh4SEUAFC45ubm/gFoZ2cHCgAo4gsPwCPb3t6GAgCqDpAcaQRAQdKKywTo/fv3UABAYfr169cQQBsbG1AAQGFSDMgEaGVlBQoACIAAqAX9/PlzCKDl5WUoAKAwXV1dDQG0uLgIBQBUHSBFphEABeny8nIIIEWmEQAF6fj4eAggGQIgq37//l0kS1dXV3uvX78eyoM1afPz872XL18Wq7yDg4Pe4+MjAOWkr1+/9qanp1sDpsxmZ2d7JycnAAQ81U2fqWsQdQ4g+TkpwjNocuYBKEH9+fNnqGAsRVNVZFdKaTsFkJzV1OHp2izUKYBUmpELQIIdgBKTluu5ANSVUtpOAaTEqGvA+jGZNs3nj21ubgJQalJi1DVgyoO1Lc0yrs/TlUrITgHk+8UDEAABEAABEACNQff390U5at9ciUkAmnCAFEk+OzsrNvu9efOmaILw7Nkz6wDo9aWlpWJXxe7ublGuqgy4a8A+f/5c5MjatLW1Nefn0Yqx6ff/9u3bZACkLyoQZmZmsonj5GBtzHJjBej29ra3vr6efPITgBIE6OjoyPl46tvz58+LR9nHjx8Lf6JvCsK9ffu2eIQBygQCJJ/F9aVVOajntxznUL/p4uKiUhpDs9+gc1637e/v//N+qgVq8v107zoPkCtjrhKHUZ2+Hz9+DDWQGucvVD+ENleCSp90GiDdQJu/o8dSnfUxWsUBUMcAchV7NVXW4IvBAFCGANn8nqZ788jRBqAOAPTw8FDsSjC3FDe91UWOuFZyAJQ5QF++fBkavLa6o/rKXAEoE4DM5aVSFCFSQyj5Mrox/ZiRnHCttPS6/h7ie7lmId8NVmpkMPZUxcxUhg8gwTbq+5k+ZicAUrTZHLiQ1rqKoZSlNvR3XVe2gnOtynw32Jw96jAfQObsQSDxPwkW84uVBQnlXMfcqDJn/Pr6GoByBUhJUrM2ORa4ECub1Wz74gEoA4DMgdMjx+evmKu1mG3Dely69OnTJwDKDaCbm5uhL6V6n5jVWowJEpdsrV1SBkgztT7fKKaEddYAaalu3kS1XHEpJo9lM1+7Olt/xJQBymXfWKMAmdFnLad9wcY66oJcj7HYJuPjBkhL8qr70XwzcVYAqW7HzLi79P3791oGSQPvklny2lUfqM3WxY0CZNbovHv3znmtntd13DzVPod+HgBKHCA5gqGDG5I9DzEfpPpbKEDy3/QYqWqxACncUfW9zJVrZwAyb6TPMYwNHlb59Znv0eQyt82tReaPrzMAmT6Hb1lZVnoRar48m3mjAShxgMxVlc/BrcsH8DUOB6DMAIpZIQEQAAEQAAEQACUMkM+J1gbCOgDypTMAKDOAzIKwvb0957V1Ncj0nf9lRsaJA2UWB/Idsa0gYx0A+c5A1U5UItEZAWT2LPRVDtbV49nXvNJswglAiQNkBgf13y5pf3sdN89XmWgCDUCJA2SmDnzlrLYjuauYsvqhgU0AShwgczeEBjDGZ6pypJLKYm2yndicMkCq6anapcNXtJcVQLaKRH3BphxpnwOt1iqjACT4zZWP9qrFrMSoSIyUbU+YapNdElyjVCX6BshcwscCZAYo+xseY2JBAFRDLKhsD5dtoEedfSRl6QEoQ4DMpXPZOe1quBBbXK/rXb6PJJ/ANrMBUAYAbW1tDd1IdRIrg8gM+rlM+8/Luny4HGIAygAg21ntapoZovPz82KQTYdUuzv0umJHVWbBKgCpOG5wpaNVkppG+FZDAFSD9Ggxd6dq9RLSWcN8DGlQ9P/FtMPTbOdyzNkXlgFAtoBim63+fWeIxQCkH4HZhV5thn2d4gGoJqn7qm0A9YhqUmVbhfCBMgHIFapXME6tV5qQBqusvxAAZQSQZiGbL6JHQ92FVprZQs7dAKCMAJJ8S3MNpi/NESI52Pp3QqPZAJQZQFpJ+RKmGngNqlrAqNlC6CpPoQKFBsrO3og56sA8pqCOXJjvqAOzjyQAOSSfx9YtzHUemO2wFcVgtApSeqKtI6LqWIV18VjwsRy2UnY4XIpWxyMMgGqU/BXfiX4ABEDBy+0m+gMC0IQA1Jf6KaqgTH5FlZogZfljnegYU/5NsPdNzr5KdAdfM62sx7XPAW/qEJrOAjQorcAUN1JFo9rkyYk2G0iqXFaRZg1UP682akls104TnFiAqsoGkFZxvlmib5pNymaU2Blo8FoAyhSg0IHqN6gMVYgPNHgtAAEQAAEQAAEQAAFQmwDJ0Q09a0sWejaX4Am93hbnAqBMAFL8JqS7u5KjstBu8P2Eaui1AMQjjEcYAAEQAHmkNAgAAVBl2fospgqQNlwCUGKquq9+HKbD9QAoMWkTYQ7wKBMfu7ESgFpSDrVFvlOLAGjMsjWSSsnKDgcGoASUcqlsl2afzgKkdi+2hlLjNj1efX2MACghqYOHttYoF1b1LPo6TO+tBlj6LDFdRQAITYQACAEQAiAEQAiAEAIgBEAIgBAAIQRACIAQACEAQgiAEAAhAEIAhBAAIQBCAIQACAEQQgCEAAjlpb8x2SIiX5I8swAAAABJRU5ErkJggg=='
p27
sS'version'
p28
VV6.0\u02b2
p29
sS'uni'
p30
V\U0001f4f4
p31
sS'desc'
p32
V\U0001f4f4 
p33
sS'browser'
p34
V\U0001f4f4
p35
sS'annotations'
p36
(lp37
Vcell
p38
aVcommunication
p39
aVmobile
p40
aVobject
p41
aVoff
p42
aVphone
p43
aVsymbol
p44
aVtelephone
p45
asS'wind'
p46
S'data:image/png;base64,iVBORw0KGgoAAAANSUhEUgAAAEgAAABICAYAAABV7bNHAAAAAXNSR0IArs4c6QAAAARnQU1BAACxjwv8YQUAAARBSURBVHhe7ZvPS1RBHMBn1lMd0rXQMOgWKhkUQmmHCqSIhFKhKDpm/QdB0D2IokPHfl0LIhXJiH6ABeXWxS6h4bklJV3tUKd2+n5nvyvznu+9mTfuum19P7C873fem3Q+O/N9O+tLMAzDMAzDMAzDMAxTZ0g6JtL5YXG3Ug3XlBI7qakqSKl+CiUmZ3uzV6mp5jgJ6sgV3sGlBymtOlLJ/pnexmeU1pQMHZNRsouiDUGJ4h4Ka46bICm2UPTf4bjElhWFJZS6QlFFUFL0SSGPUqr/fahD1ymrKV6CZnuanPq50p4rPARBZyn9qwS5LbH/GBZkgQVZYEEWWJAFFmSBBVlgQRZYkAUWZIEFWWBBFliQBRZkgQVZYEEWWJAFFmSBBVlgQRZYkAUWZMHrzz5KiU8UVgQpRQsc2koZUO9/F6s6MYJGW7LDYHP/4PzSJWpKhU//ulliODgp5V14Ry+OtjbfoWZnfPvXhaCx1qZ+HBylOO1TDbIsh1Ldf6y1+QalifgKyiuhHhmvl9Suwdw8D0350hl9bs48B69A3ygG5pcnYI2vDhBxlRSWo1FiqSiLTylLBH6OnXANinp+pz1XeIEPIOCAv/Rkj1GzpnNq5YSSagJjKX93zRzY+lmfIMp9KY2vQSAExVCqQXFxNSVWTqY4NPRt+Q21JOI1g2IebloMHVcxrw/LQUDOLwoTQRGuM6kSchAvQfg0BoUanCEwyEMY4xFzfYLAGULh2r65wgX4xY9QasVFUqXkIF5LrOo4fA6KW27Q92Ol5CB1c5sPEzeTKikH8RU0jg9RlV9YtKGtfKfKY26eN+9UeOcyz0mhhqHxB51ORZSkAOuUg3gJgoGdolCDRRgG/hZjPIaLuHlXg/gchZqZnux9eOsnKU2NlqTEY0oDrFcO4iUoXIQRKM6bzaOJeT0+c03hKiB1E4WpGdnedBiWVh+lAaTKnKfQG68iDQOag47PIfiqG6R+hvqkjkuMQ7F8ryMpdkDn4yBuF6YOfeEit80qyskUMyPwM5qpaQ24BHGWUZoaL0FVx0FQpByoOfCLvobCdppaNOuR5FekoajCTDC2EjRbCGgLbjWCRTiwTQn3dSFODtacwYWlMyiEWjUwC1Lt3Uy8ZhDeeXRxNUjcasCHQSXkPYwjtylTy9Pwru+lFAYbP4OS5JgFOe22JA6vGRSWQ8RvNYzrI7cpUs1SlIirHCTqI4DPTPISBDPqAYUaujN1lzLRHb5Tmdd35Aq3KdTgtbg9oTSWNHLKVEKS1xIj8vD5YwGDwPIgyl/Lrvk6tURi3/ASG9vWuE9kGl6lkWMStdyAmwPzS5cpjsWvSJdow8FFDhAwzoXlIIl9wwx8X5lWUjyhNJUcZM1Mwv6O3wc5CYLCO0dhzVgdZEo5ZXz7Oy0xfRdS8hZcvRH/LQr3eYGtjAkuN5xRlKZmvf0ZhmEYhvlHEOIPXRtyK8nay+QAAAAASUVORK5CYII='
p47
sS'andr'
p48
S'data:image/png;base64,iVBORw0KGgoAAAANSUhEUgAAAEgAAABECAMAAAAV8YMOAAAABGdBTUEAALGPC/xhBQAAAAFzUkdCAK7OHOkAAAMAUExURUxpce1sMO1sMABsou1sMO1sMO1sMABsogBsou1sMABsou1sMO1sMABsogBsogBsovBsLgBsogBsou1sMO1sMABspABsogBsou1sMO1sMABsou1sMO1sMO1sMO1sMO1sMABsou1sMABsou1sMO1sMO1sMABsou1sMO1sMABsogBsogBsqQBsogBsou1sMO1sMO1sMO1sMO1sMO1sMO1sMO1sMO1sMO5sLwJsoe1sMO1sMABsou1sMO1sMABsogBsou1sMO1sMO1sMABsogBsou1sMO1sMO1sMABsou1sMO1sMO1sMABsogBsogBsogBsou1sMABsou1sMABsogBsogBsogBsouVsNH1sZgBsojRsiRlslwBsogBsogBsogBsogBsogBsogBsogBsou1sMO1sMO1sMO1sMO1sMO1sMO1sMO1sMO1sMO1sMO1sMO1sMK9sTrlsSfpsKtJsPX9sZe5sL6tsULNsTHNsa81sP+1sMC8vLwBsou5sMC4vLy8uLiwuLwBtpC4wMABtowtchAhhjik2PR1FWVw+L45OMOFoMC0uL+dqMABroVY8L+9tMPBtMABsoQBqoQBrokE1L69YMPBsLwZvpDYxL085L8VfMOVpMEc3LwNuo9RkMIC20dlmMDwzLzMwL+hqMHRFLwFsojcyL3Gty0k3Lw1cgwpchQBtpq3Q4VU7L6VVMJ5TMEU2Lz00L3610LdbMD+Rur1dMMZgMNJkMc5jMTiMt5PB2DAvLzqOt+psMSotLymEsXuzz4BJMLpbMAhwpTozL0mWvYa50wtyphV3qlaewmlBL9xmMLNlQQhijxtEWAJpnRxce1M6L+BsNwtehzJccjFtjHhsaKjN36tXMKFUMHhHL4y91Wanx0STu25DL5pRMEiVvJnE2v///21DMIq71DGItIW40uBoMMdgMLfW5V+jxQ10px59rG6syr3Z51Cav6DJ3D80L+9sL0FthOZsNNJsPeZtNJ9sVTdtiZVsWsxsQChsj5xsVwRsoC1sjZZsWkWZSVkAAAB6dFJOUwDKK/w1/fM86vcT5RkBFXMHzeUi3ur2UEAFaPsPAXCjpWF+utzTBPEfCTI5S/Tr4kMvAtgLKD6/PRSQEc7uyO/gdOMuQTpgemlIbjKQ1B61WpxTv9UN2/5k4O7qHyrp6zn5V2DGmCMaaZ99F4WXsCV39A7B97Vw9Pa7iah0cAAABEpJREFUWMNjYKA9UNPki03QEU+WAoJkcZ2EWD5NNZIN4fXT4Q8MDomM0xVbWgMES8V04yJDggP5dfx4STGHT8lXrAYCJkMBhFMj5qvER4I5Csw1MHP2H5gPBAf2g0zqffpkSy+zAtEm8SrBzanp3XN9DRBc39ML8uCzRw97a5iViPUdn2ANEpgOBhBTd+7aAjRQkFgnaQnV4AJzQYSQFpEGsXPU4AUc7ANhUDNOQJpB51txgvOkGNR4uQ0nuNxIikErq+txgOqVJBnU0lSNAzS1jBo0jA0ykSmyQDKorgEF1FU3rVotqk3IEAFvOXllc/Piks8XgFrAYOHaPiRwcVndoitXoyJY4EBDFtMYI9dMbtYqIKitunRmyTKwSXUHZ/cggdOnGi5u/xLOiQDyJpjOydCvgoNpPevmgEyq66xFCFbVLl6yr6MLWaRKWQbDHEd1ZAW1tZtBJqEaVEWEQbIBtlWooHYd0HdQg2r7IWAvYYPyVavQDeq5BTOo9vmLWSCwbWtHA8QgVmNGCMgRQAvoLFaIdlZ9VWPOT2Bm/6wpdRCDJmyeMwUMPu6GGsQWxAMB6GGdbgMxx9iLSSO/rHwv2Pk997qhBk1d1F0HBtVQg9TNcKQgAzaIOa4gjnb0f4iT1lfDDWroBgJg6BMySA7sM1Y5SBYR/f0L5Lv+rQu7oV6bOWcFEGyEG8QWIJwGBBqS6AZZgZ2gzwTNaxN/TgOF8Y4NEIOqZs8DA2A8wgKbWwUEVA3QDZIHG5RiCatFroEja/scqEHAZAUEE7ZthBkEBdKK2A1ixGkQNBoxDHLD7jUnQ6hBf/+AvPYJ7jXiXQQNbEdoYP/7CgrsCYeOQFN2zwIQOD31CNwgPW4QMPbEEf0OnpDo/w5W3H8fmiD7D62dCQIbdsNjTZEJBEwF0A3KZoS4Vd/dW8O0oHAv2DuzT3WjpqNuwulI1h2aRar0VEWkoVlk60ZYFpk6A1rOwV0kgatwTLPByLSzl3RXk24QQ5AeuknrZ9SRY5CkF0qBVFt1Ywq8YCPJIAZJNxWEMdNmr5+CKGpJM4hB1jDVQRpi0KUzj2cgFf6Lby6CVWvdM3d8Axb+xoZ4qyNJJsXcPPPSyoofaNXRBkQFuRtcHZlKEqwgjWQE2DEqyDqkmpaYCnK0NTJqEFUb7M1n27GAc+dA5NlmknpHE4Hg+NJJvUBq0uHDIKp36Zv9J4AMkvtrk08c23R0Kaj/uWkTqEc7d+eul8snkdPxO3z35O3DNTWTjs1fPr+3ZvLrXR/evSfLoON3DmwBuejo8uUPgC6afvLtq+Ok9SCdoZ3j6XNBffSaSUAApSHiQs5EGmRth79Pa2dN7AACPzM+c5j5iR4eQRrSwGKOAgmDI1z8gvbYjbEX5OciadyHz8XDx18wTCheVyyxpiZRTDdeKEzQ38fDhY+BZKCmGRqjZSEuniQllSQubqEVE0rGQBTpAAC35ZM7w1g5YAAAAABJRU5ErkJggg=='
p49
sb.