ccopy_reg
_reconstructor
p0
(cemoji
Emoji
p1
c__builtin__
object
p2
Ntp3
Rp4
(dp5
S'emojipedia_url'
p6
Vhttp://emojipedia.org/keycap-number-sign/
p7
sS'index'
p8
V745
p9
sS'code'
p10
VU+0023 U+20E3
p11
sS'apple'
p12
S'data:image/png;base64,iVBORw0KGgoAAAANSUhEUgAAAEAAAABACAMAAACdt4HsAAAC+lBMVEUAAAA0RlwzRFkAAAA6Tm42SGE8UncAAAAAAAE1R2E9VHw4TWw2S2QAAAAXFy4AAAA3TGcyRVY5UHItPVEcKDEAAAMjLzwAAAAuP1IzRmU0RmcyRmQ2S242Smo4TGsmNUMxRFUfKjknN0kUHCQ1R1wXGyM0Rl08Uno8UXU3QmM0RmAvQWQ6UHJDWXo7UXJefp5ihKNggaBfgaBegJ9ff55cfZxmiahZepZNaIdjhaSMp8Bdfp1afJpJY4BWdpNPbYtcgKBKZYFZe5g9U2xScY9FXXuGorycscZlh6deg6R6mbWes8ZOd51ZeJdHYHxBWHJRep+nvM/E0N3e5u1vkK+8y9pUfqKBnLXP2uSPqcBUc5CTq8Jmiqxaf6JYf6JtkrV9nr1uk7dRbpJzl7lojq/d5/Fuk7azyt92mrt6nLyCosGPrcqgu9by9vmUss9/n76lwNqat9L///+jvtiBo8Nylbd2mLmAocBskbT7/P1VdZpqkbaGp8WMq8iKqsqRsc5jiq3S3+pqj7BZe55qkLFoj7Rli6/o7vSowtucuNOvxdzb5e9ljbKivdfV4e3f6vNwk7WIp8WIqchiiKrD0uGZttHv8/fJ2OZnjbJchKjl6/Kpw9uWss3q7/Sfutalv9mRrsrD1OVXeJyMrcxae6NdgKNHX4Z2nL9Pa5Guxt6XttNkh6erxNqWtNC5z+Jni6uFpcSRr8tflcKXtNBQbI2hvde/0OBXhqxoja2DpMKTsMxTcJVrkLL1+Prh6PCeu9WVssz+/v98m7lpj7JOaoq0x9jz8vaOsM1hg6WduNRLZoVhhaZkhaZhhqhaia5tncZVcpZbfqJnmsTM3etmiqqDn73s8fa6y9tPgKmov9RigqMlS4tEeaWkvtlFXX+rwNanwtpdgqXZ4utliKhoi63x7vTw7fMtWJMoUY+xwtT4+vymwtphgqFBfa+JqMemwds/eay0zuGjus6nwds4dKpoi6lbjriVss5QhbPr6/I9b59zj7YlSoqbtMwnfQidAAAAL3RSTlMAz9AJyc/PJh7Rz8/PEAQaz83Qtk4nbyHANnlVqbTFi9RZjj/iQOPGzBcdK937yQe3OsoAAAXgSURBVHhe3JNVb9xoFED3oepDW1VV3pomeS3vXzJ7mJmZIczMzIxlZmaGZWaS9rse2+NMVpP2dc/Tse718ejz+JP/F/tLyyp2fLoNOyrKSvf/Z+BAxfHLc+TqtpBzl49XHNgSOFz+nAz1N/uDWFVRsKC/uT9EPi8/vDlwtORsqDatfNGYaom1FyHWkmp8oUzXhs6WHJUGjhwbuhjF6zQOTaySSRWBqYyhpTo8enHo2BFJoHzoWtrTvh6YGG6Nv/yqCC/jrcMTgfV2T/raULnk/Ab6m7wNzHCnPh5v3YZ4XN85zDR4m/oHxJPce8gZHWSyz/Q/fSD6Z1lmMOo8tFd4/wOvIslURv/dB6PPpJKRVwPC/6GU9A8GxkydH4FpLDDoJ0v5QJkzrepWmz4Kdfd02lnGBw6GIoaker6QTI4C51EnDZHQQT6w65YrYVJvYeTGzMzMbS3ovO828hsjkqkp4bq1Kx+YzXRswXensrKSyVxCmhhhkKdOgPNkZjcFfB2XCqk3nDIajevqBHKtzIhokI47fJJAn0uVMBTiG4ObmFmkid5G8Oy4ZJxQufqEwM4+l9dQX0jvAgQatZwz4N3gAgavq2+nEAhFaupnC/FmISDzIdVe0ICPaSXj+ppISBoY1xbijaGAQ+1D2pvgjsMALjC+KdDkblspQOVzoMD938BrkkZEy7R03uZuygd66OWVaZGVtpMIbwZuSnWhizZ3N3hAhfSkuLVM90gCti4VT5fn12+An7mXcOJ77iILfgH8d/c0v2fLB0p6aLlHxDz/AyCLcU+VgU98CX4HXGYW9uR0T4kQcNKE2fMtj3nDWARHjZvb8pgJ2pkPvGWpqWoe2+tiAY07tzhFsW/zgZuTGEHZpnLYiv+C6mVuiSKwyZtCYDcECEKuUy4rEefqEAstEHi9wLkGPJDzKbSkkxMEBHaLgbt2liBYglLobDYlrkAQAQj8QyGV4xBwqKwKwKZTUARs2+/mA6tv1jCWZTEMYy1WBY7rdDjVAJ9iNVKd1QOt+0pch+MKqwXWYHntzWo+MBq2YznsWFWVhbJiNviWNxQQwB5BIGCxUpYqzC4uhkfzAXI0aBeILgJPuac+WLyOeLoA/ughGlw/YxcJjpJCYB95lQ6v5Tjz5+fA319A4N4T8M82wP96AvpwTSBMXyX3iYErS2GexR/fcTggcP496Hmj6H+w0bDA0hUxsGfu8WSQp/mcsRin/UGBycdzeyQBOsc2AcdpPy2wKfD1L0s8zQ+4wCkhAC7Re7VLAv9WUuc+bUMBGMCdWMiuVMdCOcjGzZrYiZ3DV3zlIhdHodBD/Ru6dawYWCshUaljpUwMLAxdWCoG5CRbJrbUWYoyIXnve6kdG6OW+Dd9y/f5+cmyNZkNLFxR7Ng2/HlULBbL08/od7kIncO88zfvvx07WOpqwRm4oU3r0nY2GAx6nV/wvPURyKPxPcjXX0AGhpcOy6Rv3IFM1Rp6DM6uQen0hwnywYePwN6QHT5mVTOzgVCe67Ne7+uw9LpnsqzV2IF5t8b69bl8aDbAFKqmi+1UpldQg7nxFeaHrulTLTDugMGkLzzMxitYetMFuXdwCnO5duGXZgx3gL/rezX2QOe+XgPx3Rh+k+f7t32/O/6fA90RvMNvVVjqlKc/ltvC/wYWZWVS8Dg5mt5hKQ3y9+nb7JYKT0wUedEeCMs5Ku1BH25XKtuHdBoqwlwH2Y/KyWHnBEITDrhKJ0DJl/2opuCcINoSU9QkIColtqL2wHJbY2gqIJrR2sv2QEyV+AwdUIaX1Jg9gK8IIpMJiBGFFdweIBKqlOOygXA5SU0Q9gAaT+oaz2VTc8tyvKYn4yhiw9e3WprCcPP2OUbRWlvrOOIgsNiGLokKMydFlPSNGEYgMyS2mWzL0rHYzD2rKR5Lcju5iZGIK7KEYYmwqguGkX+GYQi6Gk5g2FIE8UDBQnx1LRp68axQdG01Dvoo8kiExAIhI4gfis9fx+3H+6AEic+BJLz1P4gXR4hF9HFCAAAAAElFTkSuQmCC'
p13
sS'twit'
p14
S'data:image/png;base64,iVBORw0KGgoAAAANSUhEUgAAAEgAAABICAMAAABiM0N1AAAASFBMVEUAAAA7iMM7iMM7iMM7iMM7iMM7iMM7iMNHj8eRvN3C2uy20ulsptKpy+XO4fD///+Ftdra6fR4rdZgns7n8Pjz+PudxOFUl8vNLrywAAAACHRSTlMAYL//ACDP71kzCuAAAAGOSURBVHgBrMwJAQAgCAPAsQf7N1YzwAU4fEUNsPzATmuo86McjZ28qLWgjdKKAnciQktuO2awIyEIBNHDXkSQVkH4/z9dpzhMJSYLW8tpM3V6l34xacpx+Ieij2hxqw9v3oIqinZnb3y8+NREyV7J4ACOmujE8AUufxHx8AZeNZHHsAdHcNFEPHyAnSa67L0pQ4Ik4uHauEqiZMjSto9oB5KHHfBQRLx9ZkHER2elBQ6Lgo9IW1p+sE9jotO6SUOiaN34WaI4JFpnPVG6rJOrjm2tFuRoiwJncCyIW4bPEXef2Gkv/0wiQ4ImouGlcZVEyZDE9ZVEPLwDD01U2tKI4+9EaYtIbkfmwT6MifrH0c4hkVeaxiK9svoTrUOielkvYWxr1ZVXIlWW+E7tb01880M01n1NxN3fub6a6Nn9JIjoo4HqK4me3c+CiD4aqPuaiIc9eBNEne0LIkd8aqK1bZxEVRPh/Rbp88R/SSJ0d6ef3vPzx++HfETTLlmmXftMu4iadzU27bLuzozrw29q02pO0Wl9PQAAAABJRU5ErkJggg=='
p15
sS'gmail'
p16
S'data:image/png;base64,R0lGODlhDwAPALMAAAts/gBd/GGj/4S6/v37/aPL/wAP1Fhv6Ac86iJ2/T2M/ydN6NTP9M7m/+rm+LGw7yH5BAAAAAAALAAAAAAPAA8AAARssIxJKz0jgQ2S2okGGAMQmAjTAAhRBAFpmotTIAchwHIQ5oPFg6BIxEoIwYDhGjhsJRnq4QggbLAj5/paEAYnLcw7wBGzpABmKGFKFFqAkFhrhIy9VCNQA2/EXjc5O389PjMaWTEHBo2Oj48RADs='
p17
sS'related_to'
p18
(lp19
sS'name'
p20
Vkeycap number sign
p21
sS'known_as'
p22
(lp23
sS'default'
p24
Vtext*
p25
sS'bw'
p26
S'data:image/png;base64,iVBORw0KGgoAAAANSUhEUgAAAJAAAACQCAYAAADnRuK4AAAMIUlEQVR42u2dL9RNTRTGbxAEQRAEQRAEQRAEQRAEQRAEQRAEQRAEawmCIAiCIAiCIAiCIAiCILxBEARBEARBEITzrd/91rxr3mPvc2fOmT1n7nv2s9asZeHec+6c58x+9p/Zs+ocjglY+RQ4nEAOJ5DDCeRwAjkcTiCHE8jhBHI4gRwOJ5DDCeRwAjmcQA6HE8jhBHIsnkDfv3/vXr582T148KC7evVqd/bs2e748eM+Co/Tp093ly5d6u7evds9e/as+/Lly/YS6M+fP93z58+78+fPdwcOHOhWq5WPGQakevz4cffr16/tIBA3eufOne7o0aN7fggkOnPmTHf9+vXu/v376zcEgvmYNh4+fNjdvHlz/aIePHhQJdKhQ4fWc//t27d2CfT06dPu2LFje0iDyXrz5k2xN8AxvOq/f/9+TSgIoxGJF5j/2wyBfvz40V25cmUPcViFfv786U91Jvz+/bt79OhRd/jwYZFI586dG6WRihPo8+fP3YkTJ3Zv7PLly93Xr1/9CTYCXmJWJEmHQi5WrNkItLOz0x05cmR31cEmp+okzBpLKXb5woULaxvu499x8eLFNQHQOjzssabn7du3u8+qr015FtUJFJMHwfzx48ckr4ylc0js+RgeaBhWeR76379/s8Mpp06d+uc7eR6pJCpCIG6EuAMXRzQPKXt+JLZYYj+f5S1DaLMS1Ro8gP69WF7v2rVrWddjPpgXac7igXTIWT3C6o83LBHz06dP9gSCEKwigQBDeufDhw/rOER8owS68NYQ3nOBh9SfQEvdhqnuXy9Ve/CyEvIIcy4N5jTn/jUSsShs8pZXpSaDZQ+7qoHgVSzcbty4sRbccwPPQxKUuWIy52FJJjtVL/bvXVrNgiAeeh59YDWkFY7Vz4xAXDTEFzBLGhB98TLLStQKnjx5Ij4Aq3vExEjXe/HixaTv1NxzVvccYS29TENzMYlA2OUQQ9AEHCtNuBHeFuIRLYE3TJp4q5gVeSnpeil6Y1PsTTNrOSSKn1f80mvPdzSBWOI3/fh79+7t/h/+3CLimFUs5q1AiEJynce6433PFv0jkShVXENEKWqtmdjRBApMJS4hgSU5XJwodKtBNWnJxiuzgmRqcCxKpi8kEvE7UzWnJPJx94sRiIkPLJXEJtooTBQpjdz4RC0wodLbeuvWLbN0guY1lb6OFN+BqCkrHZ+XiE6srwiBXr16NWgbQ1wFU9By/otlWXqgYzyiXLMfD9740kBWSKZoyNnZpA2p3ypCoJAold5UWJprd+cC9y89UKvwAg9vij4pcT1c9RRHRvIWJTM2ikChtoeVSCMXHlrrkAQtw8rkSh6OZdCS3xEyBLmrEPEqSR/2A4vZBMKGaq4uCj5clJLV1iFNLn9nhRD26OedSnhgGgjgSm55CvpZA2l1ziYQSdKQK+kD0oR/s5yUUh6YtBqwglpB0iSkEObwNFMqEaUcYX9hyCbQ69evVXsYckqWD6EUiLpKBKJMwgKkHaTrEaW3hhRgTAkuShqxb/6yCRQ8F0njhPLVnMjnXOAepQdqZXprE3ZTXGdTjkv7XN9jLEagOMYxNSzvHlhZBKuRazqrEigOylFy0DrYiybVwFh5YFrOrUYZS9CtfXe+KQLFQbLWgcCXSiosQw+1Pb4YCGaJvE6gwhOKE2AF6Xq1YmVOIPfAnEAtQZoYyyrE2jk3J5AxtJoZq2K32h6fE8gYUoie8gUrSBFdKa/kBNoCAuGBSaF9EqtWiPsD5OajnECNQYqJMKhVtgBxHul6KZFgJ1CDYE/V1MLzHLx7964qYZ1AxtAErVX6RUthSLVUTqAtIJBUk4MmsvLApF2vDIt2c06gCgJaSmGcPHnS7JpSCoN7qAknUCFouzBK74oI0HZhaFtknECNE0iLCFvsiujPSa2cmxMoAqUV7F1n8yJmZmrbW609CkFEiza7/caicdnI0OeIETG/5OZKlAYvkkBx25glj6G+A06gAcT7y5Y+pB2hTiAnkBPITZibsMWIaE1A8/c1BXSKYI9FdIkAp7vxBUBjAGkSyVVZIG5vEw9ycbXhBCqA2jU5t2/fNtEzTqCZoLWytUJ81EON1nlOoBlyYPt1G48TqDAo1ZAm0Kr13hyNG5xAhqgtaGmLK11vrkajTqCJWNo2HidQYSxtG48TqDCkoJ5lEVntxg1OIGMPTJo8rb/1NhLWCeQemBOoVQItqROZE8gA2q6Iqcddt+LxOYGMIW3jsbzH2oR1ArkH5gRqlUC1O5HNkXNzAhkiHArTHxSp7QePzwlkDKnNP4O2txaQ2ukyuA8n0BYSSDuQ1qoNcXxCY43zV51AxlhaJzInUEHg9UiHm+AlWQHvrn89vMBWnQkn0ADm6EQmtc6r2YnMCSSAsyTop0zyk2umDunM0NCbMOd7UodUcx2O/cz9Lvo1EmoolW5ZLIG08yWWNEocWrxIAmnd3Zc4phaiLZJAWlBuiWNq/8ZFEoi0gKZjljTw7Kb2CFqsBiJ+QhqASZRyTPt14M2xhwznoUQW3934TNQ+HbB2zs0JZIza57PXbtzgBDKGFJMhhWFVk9PSPngnUAHUPp9dEvspZ5I6gRokEGZKmizMmgXmOP3HCWQILyJzAm2VoG2pE5kTqABqn89Odl+6HtUATqAtJFBtQVu7cYMTyBBLPM7SCVQQ2mk8tFuxAKkWibBWp/84gYyhNXayErTaaTxzdSJzAhkJaCtBqwloq8YNTqAZBLSloNUE9FydyJxABgLaUtBKApqykzn3wTuBCgtoK0GrCejax1k6gQpBiwhbCVqtlS+7YZ1AW0ig2oJW63w2ZycyJ9AWCVqtla9V1eOiCDSHiKwtaLXD8KwaNyyKQLXbuc0haKUD7CyrHi30WrMEqt3ORKvJsWqtq7Xytax6nAKtRqpZAtVuqFRb0GqtfNmG0yI0B6MpAsVbkemTUxO1Ba22baiVbTwpei2l7UxVAsVHCiBep+6mzIHW2MlqV4R2nOXULcgWQNRL+jClT1JVAoH4lD4Ce3N7YDXfaMuqR4vVMqVTbXUCxaYEQVnDI+Ea0gRZdiKTCNtCJ7I+sALa8eMpL3h1AvW7lNZYhbyILF88p8arqhOIyY2bIMB+692ZpCpqpjC01nmtpTDQYxLRGTQfTUF1AoH+WRG8mZamTLPxVhFhLaYydyvfGNQ/UcairT6pFZqmBNI0BjtD+8y33GTHm1/zbC5pxaul91J1j5YXDD0bU+9VMoHFCDQkGqXuGFZlFRA23guPJ2iZj8Ikx8KUlEYrFYibyJNbHy41ai9GIIYW6+lPclwrY1FeurOzs96RSiCvRkcMSMvKR8R9zmOcYhBC0MIL8famnJVSOiprMoHiwq0hu0+4XysxbWnX5n4AEXcpudtP9OaszBCNzxQnUJzz4q0fAsul9oMwc628vdsKVkJWdc3bilvm5b60WoK6bwKzCRTXlqScg6U1Owg/jDQEydBWmjG1DlYRHiKN1zcRJ0Tkx+QEtaM7+00qRpUPhlgPPyBlWZQ8paGu7rxVhAN8/D/Y78a8bDJT0kmJYxPKcVpq6OjOUQSKj3UksZgaP1lSp9W5By/j2OQupNN0VF+EjyJQvLzxpanHGWGz8QT8Adu2CCaNM/aIKQgiHZOlHRwzikB9gZUbKGQ18ibi5QdmjpDGFGjFeVpuc/QWirgT6hiVHzw69E6ubfexNyzCilMimEksScveo6ekGN6qFFNZUaZ4UkwA3gXmERffxbM8KJvFKSGlUjIMgukakhdadcNoAhGF7tfF4Fq2uCvBMS7vFYcCNG970i5AqR8PJslJtF0YitVtOuVx8jZSqSs8ar2lHoEOHdpJ03FN19CznEwg7LCUMyGx59HldoEE0Y5oyHGOimxk1zpj4F1R5upoCyTBhwrOckpwinVCGLKjqPup8QnHdGAtkBcpOTQ8vhQtW7SVxqbEKQKbZJyL7LrADJFykg6hmUKe4gQCxCg2MRxhhv2lAIxgIm+Gk6oMCAZCGDxkiKAlRYfKbHKehUkzH3SPFtH00eZgdRqzNdusGxSBJ1aZFHvrY96BxzxWo5q3E6O0VYoV+Wgjj4apmyIfqvWjo8aE6kOvCWpjxZlKnOoECiCqSdyIpCDuvWfi7bUNFgAPGI1TugHEf+FJPMlVVMPfAAAAAElFTkSuQmCC'
p27
sS'version'
p28
VV3.0\u02b2
p29
sS'uni'
p30
S''
p31
sS'desc'
p32
g31
sS'browser'
p33
V#\ufe0f\u20e3
p34
sS'annotations'
p35
(lp36
Vhash
p37
aVkeycap
p38
aVpound
p39
aVsymbol
p40
aVword
p41
asS'wind'
p42
g31
sS'andr'
p43
S'data:image/png;base64,iVBORw0KGgoAAAANSUhEUgAAAEgAAABECAMAAAAV8YMOAAAABGdBTUEAALGPC/xhBQAAAAFzUkdCAK7OHOkAAAJPUExURUxpcfqrIvzCG/eTKfeTKfzCG/eTKfzCG/eTKfzCG/eTKfeTKfzCG/zDG/zCG/eTKfzCG/eTKfeTKfzCG/eTKfzCG/zCG/eTKfeTKfeTKfzCG/eTKfzCG/zCG/eTKfzCG/eTKfzCG/eTKfeTKfzCG/qrIveTKfmhJfzCG/zCG/zCG/eUKfy9HfmhJfeVKPmhJfqrIvy/HPqrIvzCG/zCG/////eTKfzDG/zCGvzCGfeUKfqvIPqsIfzBGPzBGf/++vzEI/zJNP/01P7jlf7rtvzCHP///f///vzHLv3NQ/zEIf3WZf/56P7xyveSKfeVKPzBFvqrIvzDH/3be/zBG/zDHf7df/zAHPy9HfmiJP/+/P7mo/zHLP3VY/mjJP/++/7jlP3bev/45v3beP7z1P7gif3VYv/9+f/89PzGJ/zFJfzHL//99/zMPvzGKv/34feXKPu3Hv7uv/7oqv7wxv3YbP/12fzAFf7eg/7npv/45P7hjf3MQvzIMP/77/7tvfzAG/u5HvqqIvigJfmnI/y/HPiYKPmkJP7lnP7mov7z0v7prv3Ybv3XZ//55/7qsPzLPf7dgP3QUP3Zb/3SV/7uwf7xy/3PS//78fy8Hf7rtfzIMv/xy/3NRv3UXv/56f3egv3QTv7yzvzLOv3MP//z0/3SVf3RVPqxIPqvIf7xzP/01/7tuv3OR/7vwfqsIv/01fzIM/3ce/7fiP3gi/7lnv7op/7vw/3fh/7suv7jl/7no//66/zEJP/23f3RUv7dfv/+/f3adfzJNf3XaaoW/7wAAAA0dFJOUwAF/v7R+fkNDdE3txQ3xhTz8729OR11dcYdt1efyZ4MydIM0v79zv1ZOc79/fn9zvk5zlf1hnBRAAADxklEQVRYw92Y91PUQBTHz3LYO9gbOvauIeyeJh4e4SAIXgVEyiGCUsSGYAMVK6CAXQGVptgr9l7+MHeTezlvRiebHL/o97fvTN5nXnb3vS0WC1XMxNFjOVMaO3pijEXToglWzrSsE1YBZ9RiLhLdWDFc5YycylkHmucsXcaPGKOA1li5geZBWQsG8VHTKGfA9Ej+K2szTzRzAAHNmhExh589h4CGxEbM4ecOpaBhEXP4wZGBbgAnUtC9Tf0EOpXXT6D4PbuZQAhjpAg8CrNEmSfSWUClZWUVdiI56GW7Kk/ok5MMIJTzur39TSJR402ReHytMVGVowSSincz/Jp4bUecqvJbAgUVBW1cVZkGWscAEs6XBwNvKxmhgwC6InOGQB3fgoGflQzkvQD64DcEEl9BYCUdE9TWAP4tMgJCcisE7qO/Ihw5BH6/wAoSBUFw5VyFwMPECtUXYch2fKkmHjOAPJ2pqam5hU0A2lJM/Xtn0NZ25BK7E+mCcHfVeqJ8CIzLpnZ9NlhnPrWtpUgPJKZsjNPX1WSsmxETKC0Z/Xsgsd8y6tnKAKrM0QWhT98djkAzTHd5c8BB9AAIW89SGyj2M6xsJEni+XwIfIwlSfLXA2ivnSNeQoy1hjtgPT6soTEerfYP/tZqGUBIy6BSVtrlNljXL7EhkOeRVvt+ZSah9rNDtc8CQsldWu0rXe7ydRj7TlYQFjHGrpZdADrnIr56f1LQHmohXmQASRcLvF5voQM6f1J9oddbUJAI3KaiQu+LW7IuCFVcYViNu1qwLig5jQG0MUXsLxD+f0H6Y1TyTun8WowzicoZbhlmjZOOkM2m+CwE1ga+ZmRkHNB22WcHiL1QLLOsbLo7XoDAhjaXKAr2o9oeJ4hUrLUW6j5P7HTfz6mCP+sTws5+eiCPlsE+Jcmd0Hy3XzIEQhUwJs7DSKn9Wtj3ew2BcA/UfvYlOhyuc9vhzNUtGgEJvZBB+V2agdCnjX0NNgJy/YR18zGFgJBHO/UdLUFhIJ3DqHC3a4Oq+gql8xfdUW1DgRT+pd7x2F/zI0FRqZpAqeoSnsvh3+kf2JV+S4S0O4Aqc1cIXWX+7VKTuedUvIErTWad7c8gn3v3mePH4hl17PiZTX8G+dzkHnc6r+7+Wha5804TgC0MFBvi8Hx6uo1J6ep82X67HKvX9SDHsGyh67rygOB7ao4TJCkPCJaFVs43zyyH55fAk4Zl5FTfyuWmOfygKHhksYxabT4fqvnD4QEpenyUeUzU+OjQk9aUSZPHmcOMmzxpioL4BdU7AWJbdVnRAAAAAElFTkSuQmCC'
p44
sb.