ccopy_reg
_reconstructor
p0
(cemoji
Emoji
p1
c__builtin__
object
p2
Ntp3
Rp4
(dp5
S'emojipedia_url'
p6
Vhttp://emojipedia.org/keycap-asterisk/
p7
sS'index'
p8
V746
p9
sS'code'
p10
VU+002A U+20E3
p11
sS'apple'
p12
S''
p13
sS'twit'
p14
g13
sS'gmail'
p15
g13
sS'related_to'
p16
(lp17
sS'name'
p18
Vkeycap asterisk
p19
sS'known_as'
p20
(lp21
sS'default'
p22
Vtext
p23
sS'bw'
p24
S'data:image/png;base64,iVBORw0KGgoAAAANSUhEUgAAAEgAAABICAYAAABV7bNHAAAKu2lDQ1BJQ0MgUHJvZmlsZQAASA2tlndUU0kbxufe9EYLIJ3QO9Kr9Bp6b6ISkkBCCSEQUOzK4gquBRFpyoIuXbBRZC2IKBYWxQJYN8iioq6LBRsq3wWWuOc73/73zTlz5zfPvPPeuXNnznkAIPcx+Pw0WAqAdF62IMzHnRYTG0fDPQJkACFVDigxmFl8t5CQAPCv5f0wEouUWyZzuf417H8PSLPYWUwAoBBkOJGVxUxH+CRSW5h8QTYAqARE18rN5s9xPsKyAmSBCJfNcfICt8xx4gL3zMdEhHkgMbcBwJMZDEEyACQRotNymMlIHjKCwIzH4vIQNkPYmclhsBDmI2ycnp4xx1UI6yf+I0/yP5jBSBTnZDCSxbzwLchM5MWe3Cx+GmPNfOf/+UhPEyL7NV80kCeZI/ANQ1rkD0JVqRn+YuYlBgUv6lzkixaZI/SNXGRmlgeylwtzWQxP/0UWpka6LTJDgNDfMdxsesQiCzLCxPl5aUEBizqHTRczO8srfFFP4nrTFzmPExG9yDncqKBFzkoNF68hj+Mh1gXCMPGakwTe4m9Mz0Jm/r02JuP7u7I5Eb6LOovt6bXIbF6keD38bHdxHn7a/Pme30N2mo9Yz8oJF8/NFkSI9RSGX8hiTn52iHhPgC8IATQQB8KAJTADudns1ch5A8Ajg79GwE3mZNPckBvCptF5TFNjmoWZuRUAc/dtLgaAt6Pz9wiSx3/XyjcA4NWN/Nvfv2v2yD62GCFHPue7pi0JgIQyAKdHmUJBzkI+9FyDAUQgCWSBIlADWkAfmAALYAMcgSvwAn4gGESAWLASMAEHpAMByAXrwGZQAIrAbrAPVIBqcAg0gCPgOOgEp8F5cAlcAzfAHXAfiMAEeAGmwHswA0EQDqJAVEgRUod0ICPIArKDnCEvKAAKg2KhBCgZ4kFCaB20FSqCiqEKqAZqhI5Bp6Dz0BVoCLoLjUGT0BvoM4yCybAsrArrwkthO9gN9ocj4BVwMpwJ58H58E64DK6FW+AO+Dx8Db4Di+AX8DQKoEgoeZQGygRlh/JABaPiUEkoAWoDqhBViqpFtaK6Uf2oWygR6iXqExqLpqJpaBO0I9oXHYlmojPRG9A70BXoBnQHug99Cz2GnkJ/w1AwKhgjjAOGjonBJGNyMQWYUkwdph1zEXMHM4F5j8Vi5bF6WFusLzYWm4Jdi92BPYBtw/Zgh7Dj2GkcDqeIM8I54YJxDFw2rgBXjmvBncPdxE3gPuJJeHW8Bd4bH4fn4bfgS/FN+LP4m/in+BmCFEGH4EAIJrAIawi7CIcJ3YTrhAnCDFGaqEd0IkYQU4ibiWXEVuJF4gPiWxKJpEmyJ4WSuKRNpDLSUdJl0hjpE1mGbEj2IMeTheSd5HpyD/ku+S2FQtGluFLiKNmUnZRGygXKI8pHCaqEqQRdgiWxUaJSokPipsQrSYKkjqSb5ErJPMlSyROS1yVfShGkdKU8pBhSG6QqpU5JjUhNS1OlzaWDpdOld0g3SV+RfiaDk9GV8ZJhyeTLHJK5IDNORVG1qB5UJnUr9TD1InVCFiurJ0uXTZEtkj0iOyg7JScjZyUXJbdarlLujJxIHiWvK0+XT5PfJX9cflj+8xLVJW5L2Eu2L2ldcnPJBwVlBVcFtkKhQpvCHYXPijRFL8VUxT2KnYoPldBKhkqhSrlKB5UuKr1UllV2VGYqFyofV76nAqsYqoSprFU5pDKgMq2qpuqjylctV72g+lJNXs1VLUWtRO2s2qQ6Vd1Znateon5O/TlNjuZGS6OV0fpoUxoqGr4aQo0ajUGNGU09zUjNLZptmg+1iFp2WklaJVq9WlPa6tqB2uu0m7Xv6RB07HQ4Ovt1+nU+6OrpRutu0+3UfaanoEfXy9Nr1nugT9F30c/Ur9W/bYA1sDNINThgcMMQNrQ25BhWGl43go1sjLhGB4yGjDHG9sY841rjEROyiZtJjkmzyZipvGmA6RbTTtNXS7WXxi3ds7R/6Tcza7M0s8Nm981lzP3Mt5h3m7+xMLRgWlRa3LakWHpbbrTssnxtZWTFtjpoNWpNtQ603mbda/3VxtZGYNNqM2mrbZtgW2U7YidrF2K3w+6yPcbe3X6j/Wn7Tw42DtkOxx3+cjRxTHVscny2TG8Ze9nhZeNOmk4MpxonkTPNOcH5Z2eRi4YLw6XW5bGrlivLtc71qZuBW4pbi9srdzN3gXu7+wcPB4/1Hj2eKE8fz0LPQS8Zr0ivCq9H3preyd7N3lM+1j5rfXp8Mb7+vnt8R+iqdCa9kT7lZ+u33q/Pn+wf7l/h/zjAMEAQ0B0IB/oF7g18EKQTxAvqDAbB9OC9wQ9D9EIyQ34NxYaGhFaGPgkzD1sX1h9ODV8V3hT+PsI9YlfE/Uj9SGFkb5RkVHxUY9SHaM/o4mhRzNKY9THXYpViubFdcbi4qLi6uOnlXsv3LZ+It44viB9eobdi9YorK5VWpq08s0pyFWPViQRMQnRCU8IXRjCjljGdSE+sSpxiejD3M1+wXFklrEm2E7uY/TTJKak46VmyU/Le5EmOC6eU85Lrwa3gvk7xTalO+ZAanFqfOpsWndaWjk9PSD/Fk+Gl8voy1DJWZwzxjfgFfFGmQ+a+zCmBv6AuC8pakdWVLYsYmwGhvvAH4ViOc05lzsfcqNwTq6VX81YPrDFcs33N0zzvvF/Wotcy1/au01i3ed3Yerf1NRugDYkbejdqbczfOLHJZ1PDZuLm1M2/bTHbUrzl3dbord35qvmb8sd/8PmhuUCiQFAwss1xW/WP6B+5Pw5ut9xevv1bIavwapFZUWnRlx3MHVd/Mv+p7KfZnUk7B3fZ7Dq4G7ubt3t4j8uehmLp4rzi8b2BeztKaCWFJe/2rdp3pdSqtHo/cb9wv6gsoKyrXLt8d/mXCk7FnUr3yrYqlartVR8OsA7cPOh6sLVatbqo+vPP3J9Ha3xqOmp1a0sPYQ/lHHpyOOpw/y92vzTWKdUV1X2t59WLGsIa+hptGxubVJp2NcPNwubJlviWG0c8j3S1mrTWtMm3FR0FR4VHnx9LODZ83P947wm7E60ndU5WtVPbCzugjjUdU52cTlFXbNfQKb9Tvd2O3e2/mv5af1rjdOUZuTO7zhLP5p+dPZd3brqH3/PyfPL58d5VvfcvxFy43RfaN3jR/+LlS96XLvS79Z+77HT59BWHK6eu2l3tvGZzrWPAeqD9N+vf2gdtBjuu217vumF/o3to2dDZmy43z9/yvHXpNv32tTtBd4aGI4dHR+JHRKOs0Wd30+6+vpdzb+b+pgeYB4UPpR6WPlJ5VPu7we9tIhvRmTHPsYHH4Y/vjzPHX/yR9ceXifwnlCelT9WfNj6zeHZ60nvyxvPlzyde8F/MvCz4U/rPqlf6r07+5frXwFTM1MRrwevZNzveKr6tf2f1rnc6ZPrR+/T3Mx8KPyp+bPhk96n/c/TnpzO5X3Bfyr4afO3+5v/twWz67CyfIWDMewEU8oSTkgB4Uw8AJRYA6g0AiBILfng+Alrw8AhDf9c5+b94wTPPDSAeAhzZBBADAYB1DwDHXAHQQfoSSD8E4QhXAFtaiiuizpWsJEuLeYBInYg1KZ2dfYv4QJwBAF9HZmdnOmdnv9Yhvv0eAD3vF3z4XLTmFGLF0+ZooDRn01z7z/Ifajz87lpJAM4AAAAJcEhZcwAACxMAAAsTAQCanBgAAAGbaVRYdFhNTDpjb20uYWRvYmUueG1wAAAAAAA8eDp4bXBtZXRhIHhtbG5zOng9ImFkb2JlOm5zOm1ldGEvIiB4OnhtcHRrPSJYTVAgQ29yZSA1LjQuMCI+CiAgIDxyZGY6UkRGIHhtbG5zOnJkZj0iaHR0cDovL3d3dy53My5vcmcvMTk5OS8wMi8yMi1yZGYtc3ludGF4LW5zIyI+CiAgICAgIDxyZGY6RGVzY3JpcHRpb24gcmRmOmFib3V0PSIiCiAgICAgICAgICAgIHhtbG5zOmV4aWY9Imh0dHA6Ly9ucy5hZG9iZS5jb20vZXhpZi8xLjAvIj4KICAgICAgICAgPGV4aWY6UGl4ZWxYRGltZW5zaW9uPjcyPC9leGlmOlBpeGVsWERpbWVuc2lvbj4KICAgICAgICAgPGV4aWY6UGl4ZWxZRGltZW5zaW9uPjcyPC9leGlmOlBpeGVsWURpbWVuc2lvbj4KICAgICAgPC9yZGY6RGVzY3JpcHRpb24+CiAgIDwvcmRmOlJERj4KPC94OnhtcG1ldGE+Ci6krdMAAArJSURBVHgB7VwLUFTXGf6Q5SkbRd0oUJ8UQYE1itQn6KKxGh8QxqlokUTHgbYZLYvRFFPbalJbTCZTwKSbtJaMnaU2aCuKs46NmixNhdqNDgaWUTBoZ4lChbooi+7i6b0Ley93790X7C6Pepllz+P/z/n/7/7nnP+81odQD549NhEQ2cxxIaOrvRW6e3fxn9ZWtLc/xBMXeN1D6o+QkNGQhIdj0sQISEID3VMsVUo/ATKhuV6D86fLcUr5Ls7WDS0jHB+bhM1bspC+YRUWxYT3V8kekOkm5vxjIDUqBUmV+hGRSDQsPhPnpBKFqoYYnFeSQ+lDx5yxx47Gi/hZ+hocqXtqk3x20lpIIyYiGJ3Un7eeYHN993Q1OFtZZ7PSCbHboTz5LlIixTZpBDM4cNmI1JQdtGEtUpJboCRVWh3RG20wezPZaCC6Bg0pK8wn0kBhC89ValySCPapDUR1MFUAHCk5qFSTtqEAii0FjG2kqqxAEKgV+eVEb4vPKt0OQG2kLFfKA2dhtoI0OFu6VWWDEjU0kZJcGU+PRTklpM0JgWwAZCSqfD44+WU1ThQ5NEm0qgIeSMvkZQ47b0GAmsrzrQqTEqXGGbyHJjgWqfTaMpIyhts3ZSu1lmzBbz5AbWqrQqSkTNvfQVKwzkFNNDapOPr5BciIqsW2SFYAUU3Lqt85qNLZ5h6mOS1qbnNblGO7qXEAMjaUcZqWPcZhik2v2Pw+tkQrPPL0AchAyrJDGYBo07tgx/SGN0CU9G1VJG0C2x/N36oU7LBZgKz6nvUF6mGPgSMFNIq+Pp6UqHR8x44BSKdiR64Rbz0W5KysKLuswZLDfI/qmX+YUKM+y0xFotdkIVHCREduIHQOvp/Ozs2uf3oVJittewAy3UblJ/VM1gurE8CyMckjMBCIuS++wuh17c9/g7aLiZoDPQAZHqDuATtLT0ycxqUawbGIuYmMdt1P7qHTyETNgR6A/AAx9aGfUf5rsWD6/4f90PoGRsRjc2934uMrhl8vDnQe/fT2QdxUv36uM/YUOdz+sybTbTiOmqYOjgJmKEz3dOhg6TgEno50dbTDYN0zioIQKnbfurIrOug7ucKYLchw/wYq/utKMe6hfWq6hX3SSZBIJJxPxJQfo9Hk1EKnewSxU0pvHxRgh8RzWaNEEkjnBPEq+PbyeRjn68NLH4yE3j5oMKqm6zThsZ4dPS1SGPSPLcFB/x5kgEIRJZvPAyFaFg/x0DAgyyjGk9FrCZLnI3h1iSVjBraXxSux/wmDbEGAn0D3JwLX7ei/egPn9BhAhDta2pQ0ImEpL29p4hRemlCCs3UI8Tqb5iGAbmN3VABS5EWobmy1Kwsx8jvkx0b76LY3VuNDeRrEE+Uedwc8AtDD+kso+nc31MV5WBIdhriX5Tjxz0Z08gcsBEyOw7IQtkceJUpG3OQxAqB2obH6NORpUkiil+C14gp0PSjGp9qHArTuS/IIQLXnT3EkrD9TjIzF0ZR3nIaiE5Vo7WKdQJF4LCKCWYB8fJ/DWLEvw9/d1YLKk0V4WSJG9JJ0FFdwt5fPnLrG0Hoi4AGAmnH+6HlBWbsfVyAvQ4awED/kHC5FfasJvoFjMSGABcjXfyKeGw08aa3HyQI5AkLCIduUhzPtLKh9C/+8SIXbApbZl2YgYbcD9KjhMxyodXxC6Oi+LMSFBSJNXoBrz63Bod9/guPHDmHVlJt4f3cWgsPisOnNYoe6GdoP41wtd4LpkMkFArfP2+/WNbpQPVB9cTz+rlEgUtRjRenf24jXo2a5VEb9DR0QH+MSj7PEbgcocsN+mEz56GhtRtOtOmiqr+DyxUs4WqEWlEn+0R4GHJpglGgG9h97C0WyfYL0yesyIEtZicR5UsyKjkIE1Te5XYk+NXuobBHEkimIpz8LVuPVXfuhMHXgm9tNqK+9jn9VfY5zFR9DXR+DmEn8xbnAyZGIpXzFezOTkbp2ORYtTEZC3ExMC38e4kAPidwHFE6QXr7X1yiY/TD/4FSiEd5DY1b63RXQKnNJar6KWG+2qH+dSTJ/69o5nn7LZNCQrWHs/lih1RkE87bPYADUpikhvr6+5k+2Qk30Twl5atSTqpJcJr1QfbffejvN6AAgt49iHPO0ETE0ncbyJTuY3KOvyRBKrfP6BYZiyQ525MpbsQql9Z4boRgB7AS8DtCT+9XIWbwRtVZLvHvP38E3l37OFfVpLbYlbMXFVmEfiEvsmZhXAeruqsdP5iejtIXr2U1PPgS5LBySpB/gvWTuCiPtXG6IycP1Pt63Z6AQLtWLADXj/ZcSzXM0a1He/M0PITG7QRJs/4BtYhY6es6V/tI70HVbUrz37SWAOlCaI0We2sDTLHnXX5ApZYf6kJhMVOyN5dF9rd6HtG0fo8PLrc0LAJlw8a1UZB3lb5vQM/cDP11v5eiJINt9BOtD2fmZBa2rpTuw+ZfnePvnlnxPfHscoOoPt2HVAbWg7JsUhUgaxwciYHwSflW4XZDn3C/WIaOwWjDPE4keB2hM2ExBuYNC9+LtrHjBPDoxZss+vDFN2GueExFsk8/dGR4HKIaamz288wV2xnKV3f9XOabarX0qXlce5ugrid2JS3ceYv9G28ByGNwRMXucfQ4SeW6qoSeqwkyzlxyXWmL2nB17uwaizBxn5sksUJE2ytt2++PAk+55rUF+zOkO+oSDZzYVxFi964+4s3Qb7k5KdnLfKxAb3/sMk+TjkTIv3B32YLcMH98kzJ0cyqHh2j2V1W2owS1dF+ZFeubwQPi8FLiiqr8kHimePO1meARd79Ukerl3tJXaAr1AHb682cZBcSRH2r+6DPUjVkOrGVDvzmpgFFK+w7r4VyrZ43gs68gM3bh8jlFsysIUzGB9VnN6rwWJkbAmlSG8rDhD7Tcx0REcoDYYlP9g9Jv13QWwbs1ME4tatoIhfKw/glK1/Q0/hngYB9q/PIGDdewEb+VKAZ+NHTabyL5If2ZlMXxOARl5tzRYbamj9qRQFszoO3pcLmmwXtqkyJmD5DRrQ1kuw0Bf2s0tb+pb4ogKt1zgXjPNLBG+FsUBiIKIyKexN5ppp7HKS+vTXkXfUMNZhw4am020AtZDy2QFECHWyMalKZy6uuhVBQdUmZ4os8c63VJ4AFF7HJR7P4ZTAH11cWQYEn1JmXt/1ZEBCABEvZ4+czPLDwjEpRWShuF88dCoI4ps7j1cugtRO7jyJQwQhZGBut9pffc8QJxJyrXD7+6qvuECyfkW27daXrqyxnG7sAkQ3cwNDeWc+52WgjMLyoluOFiTsYWoFNyRuUcH+h6uY3BoDOwCRBMYW6oE0ReJqB8XKFGRprahh5RRryMXlAWCL5cesdQCF+doXYUe5367w9SM0j2ZeOVIpaDfnLR2O9LSXkRc5AzqxDy12tfZCSN1K8QbRzH9zLdPjOh80Ipb2q/wxYVTOHJcWM7FO3+HPx1+FeG8NQxBtcyJzgHUy99cfQJvZG/B8SH2czi21evJ8Q3KwB/Ovo0tSVMdkfLyXQKoh7sL9ZUVOPbRB3jHxpvi1TJICUkZe/Cj7CysS4qB1TKP0xL1AyC2bFNHK7TXNNBcpc4AXdHgZs3XuH+jDnWDsBIwe3YSpkujkJC4CIlzE5DwwixIxC60JVYtTmhAAHFKGqERZrljhOo3YLWeAeQAwmcAOQDof0+TDrdJdrsxAAAAAElFTkSuQmCC'
p25
sS'version'
p26
VV3.0\u02e3
p27
sS'uni'
p28
g13
sS'desc'
p29
g13
sS'browser'
p30
V*\u20e3
p31
sS'annotations'
p32
(lp33
Vasterisk
p34
aVkeycap
p35
aVstar
p36
aVsymbol
p37
asS'wind'
p38
g13
sS'andr'
p39
g13
sb.