ccopy_reg
_reconstructor
p0
(cemoji
Emoji
p1
c__builtin__
object
p2
Ntp3
Rp4
(dp5
S'emojipedia_url'
p6
Vhttp://emojipedia.org/keycap-digit-two/
p7
sS'index'
p8
V749
p9
sS'code'
p10
VU+0032 U+20E3
p11
sS'apple'
p12
S'data:image/png;base64,iVBORw0KGgoAAAANSUhEUgAAAEAAAABACAMAAACdt4HsAAAC91BMVEUAAAA0Rl02S2Q2SGE7UXI0R1oAAAAAAAAAAAE1R2E3TGc7UXQ4TWw8Ung9VHwXFy4AAAA5T3EzRFkvQVItPVEcKDEAAAAAAAMjLzwAAAA0RlwzRmU0RmcyRmQ1RGE5Tm0mNUMxRFUfKjknN0kUHCQXGyMuQFM8Uno4TXQvQWQ3TGw4S2o6UHI1SGg6UHJDWXo1SWdihKNefp5ggaBfgaBegJ9hgqFpjq9cfZxkhaZff55NaIdZepZjhaRoja1oi61miahmiqpZfZ+gtMnEw9cdQH9khqZbfJtmja1Ze5hPbYtMZ4Vdfp1IYn9WdpNTcY9ggaFoi6lPa4pKZYHE0t8+VW9rkLGLp79bgqRdf6BZeJdef55KeaJnfaxUfKBAcZtniKkfUY1DWnQ8UmmXscjZ3uhae5owWpB5lbGKpL3t6/LQ0uGkrMrh4es4YJZXhay9wdWGpsV0mLpuk7dmjbLu8/iuxtyDpcR2mruOrcp/oL+2zOBrkbNskbSkv9lZep1TcZSlwNrp7/RjlsJ9pMd1o8mMqsigutWivNfk7PNtkrXy9vnA0OGTsMyjvtiXtNBHX4aKqcdli69Sb5KFpcPd5/Cbt9Kgu9aCo8J/n75VdZpae59egqWowtv///95m7uMrMl8nr77/P3b5O5/ocGJqMeKqsqXssxukrRdlcJ7nLxoj7R3nsKPrcpQbZNni6uduNOIp8VafaJhh6qpw9ttnMWGp8dQbI6Bob/D1eWPrsyvx9/S4O2hvdeRr8vm7vX8/f5xlbeDo8Fqj7Bkh6esxNv09/r2+fyswNTI2OeRsM1qkbbV4e1nja9Vc5eZttGQs9JliqpFXXxwk7ViiaxrkLJhgqN1mr9Pao9NaIyivdiFqsyfudKat9JqkLHR3utLZIZXd5xnkLUuZJeduNSlv9mFqcldirBpjK2SrMZliKiYs81zlrc3c6Q/c6OUss9ojbA2XZefutZHf62mwtrq7/S+x9umwdtTcJXP3OfM3Oqnwdsuap/Sdrz7AAAAMXRSTlMAz8/Pyc8KJh7Rz8/Pz88EGs/QxrZOEidvIeM2eVUaxovUWY4/QL7Gqyu3xt2w1Pun+qvo2AAABWNJREFUeF7ckkVz3EoYRbPIznZSWduOl2Ynf000zMzMzExmZmYOMzPn8SJyz2gkjVNje/vO7uu+96ir1Zf+XzS33Gxru3wGbW03W5p/W2/tvvFk1CoS/VUXkcg6+uRGd+up+vXeA6vQ5ztaTB3WJbV45PMJrQe91+n9zr673kHUtbYeVUt+1kGijq6vudBB792+Ttr3ewq3LGHdSkQ7az+DWW1kRRe23Cr0UM/QdWcQDUlWp7iMIf+PuviHGNypVUkIHbzTRbk/kw9NYPZJgdjvHzoDv18smLRjCdRnqt7k1QaP5bZ9SyD+95yIBVv22xZPw1Xi/5t8zxjRe+I/z434XpTxzGci3kNLwZJ7vGx4eQEMy49zlkJLRdDhQSfGnYYL4RyfQD0dFUG7N+tgOKdPI3hpcDqd0/gHT205GY6st70iuDKwWcKTtaiU94el6XRaKpXv4Y0aDKXNgSukwKj6RkfpVN1PyyenZjFMvf5iWLpXG1AZaYIN5YtahuX/BAhWuVJZTUK5QROwSw9pOBzDe6sBCrNyGT1SYpOCpoHNhGOXhkO2F6CDyekZR2JzoIkQeLPmXSONCZk2UEM0R0vsmrNeiiBu/EwjN15uqXVc7lbFMP2KmjDGKQIhCiX1VNivVkBnSx9is0PcSHmQUSNJCBUSggbhF6Z+hgpzGVQwPftkiq+DSRsCUwU984uwgRA83ebM5KnE/gYV3QiYFA/AESJGBSUyw9l+ShGwFDSY6pPG3IN+MJnz2rIAjAQsUnDNs424FHGSfiYGzpwfASPEXAGC9xAZUbiQbc+1quANAkP9JLY8NheJzEnMYNHMGqncgY2MQDDyhhTsFDUIHIMgGwGUfI+TBAv9se/lNx11VbehGIxoijuEoHGnmEIQhMVZqMI5Acy28MeHAcBauLrLwuOp4k4jIRDt85AT4Ix7jM6CDf1vt9y3czhgyZ2BQZi3LyIF7441eF+j0SDzcDDsrjIW/PRJV+5r32bc7nAQnsdjIHz8jiJYesTXlOHz+bjlA8wKBoMZ9+vnYS3RRz7gXXybCD5aIgXWpUUen4BHcMh7/vWPQBn1ggWsUWKLS1ZC8KuTOudNG4zjOG4SxXazYHGHKfduDtstmKSXXd8YMCFAc4c0vZe+gc6dkjVKpXZhQypDXgAMWbpYKWMVKQtFUfdujZQH85i4Avez+vf/Dh6e6WOOLv4YVn+3/fwluC9cHw1/LtLc8bQVYDM/h9Wr26/B+ce9o+/FO4MMawUmzshGa0j998ErcP/p+oJu3dUgzyasQKdB2xWrb9+Al2jv4oh20ugMAiKlZ2zo0tU+eIc+NzM0YN/olNgPTOayWys23avz2/s/xeYzS9e22crmJq1Aoqc3IN1qE/z9g6eQzRVoo/cSUCDZ1h/CNgu3gf33TyCtE2iit5NWwJOSuVXYSfPLqYO1Ejzi5JTHCjBsD7K6sXbqHIBXLDMISDzJtQd6G+eOgcMSNOJIXuoHpiSe4u4PcN8KjoFf6/CI4qUpWwBCHj528qLzr0BeyLI264+cUCwsK+T7AV8+HSddi6fzPhDwK+X/CZQVPwgETDUWp1yKx1QzAAKzOxqTiLuUYLSdWRAI7uZqyYRLyVpuNwgC+JyiMkmXGFWZw0EgFDFyabnywIWKnM4ZkRAIoGG/qdXkSmxsFbmmmf4wigD4YlTRBEYeNyAzgqZEF3GkD8WCUVNUBZ4ZCy+oohkNYihiIbClZSMvamo5PVJZ1cS8sbyEEciAdwbDIj7DVC6l1AjSpWIavgiGzXgRCHpTCM8vBDz3RvIEFubDN/coYuMlMFcILzIMxccP4CjiBA0R+BiIEHz+F+Y4gzDUgxYaAAAAAElFTkSuQmCC'
p13
sS'twit'
p14
S'data:image/png;base64,iVBORw0KGgoAAAANSUhEUgAAAEgAAABICAMAAABiM0N1AAAASFBMVEUAAAA7iMM7iMM7iMM7iMM7iMM7iMM7iMP///+Ftdq20una6fRHj8edxOHz+PvO4fCpy+WRvN1Ul8tgns5sptLC2uzn8Ph4rdac16IzAAAAB3RSTlMAYL8AIM/vi50ITwAAAWZJREFUeF7t2MluhDAMgGHWsbOH/f3ftMwFt7KgtZNTNf+dTyYERUrzru2goK7tz5q+H0YobBze0PCC4l7DCY1QobFvWqhS23R1oK6BSv1D6AN5Yx2euW2aCyAfIlJ20UJTxJ9lHWSR5bwC2hAlUvM4Dy9LoQlvWmWQj3dQkkEBqT39UGcRRI+6FQAMUThJoJXG8fBuIclKoMDWNtMiSaDtGohmVEGJb5tCaCmcyNKbsQ2aNV8tXJC7IPMrxEdynuQrL4Lg2FLK9Mx+OVvRKZJVPy1vZf+sDvKRDaSDEjkWCqBMTvQFkEHqAD20xNLjiC+0Az3kHVsgHbQhtYAeskgZ0EMTUgH0kEHKgh5akUqggfgGcl4PzZF9eCnEN9ACeighlddvCSGLd8UggQ58KAig/QmKf4c8PjbXgnylV9sFa2SeICOA4HC38xwggGR9oA9U7ZKl2rVPrYuoaldjNS/rzmpcH34BKo2U4gmFNgEAAAAASUVORK5CYII='
p15
sS'gmail'
p16
S'data:image/png;base64,R0lGODlhDwAPALMAAABN9gAP1Pr6/kuO/IK6/wBe/Zuc6ziB/A1v/xtK6ZzH/wBm/x56/7668FRy6Qxn/CH5BAAAAAAALAAAAAAPAA8AAARjUJFJK3WEob1638gTEEixAAM1mEsxIqchKI6sPO0LJILQAg3BoeAiFRISE0A2yJEWD+KJJyS+PJ1EkGAqwjrHLcvr0Qq4HnIBeCaOX+FeheGEJSwTejFKBPj/fQEOAYSFhoYRADs='
p17
sS'related_to'
p18
(lp19
sS'name'
p20
Vkeycap digit two
p21
sS'known_as'
p22
(lp23
sS'default'
p24
Vtext*
p25
sS'bw'
p26
S'data:image/png;base64,iVBORw0KGgoAAAANSUhEUgAAAJAAAACQCAYAAADnRuK4AAAMq0lEQVR42u2dLXAXOxfGKxAIBAKBQCAQCAQCUVGBQCAQFQhEBQKBQFQgKjqDQCAqEIiKCkRFBQKBQCAQCASiAlGBQCAQCAQCgdg7v75vuGnuyW6STbLZ7XlmIu5H/5vdPDnfOVnpFIoRWNFPoFACKZRACiWQQgmkUCiBFEoghRJIoQRSKJRACiWQQgmkUAIpFEoghRIoL37+/Nl9+PCh29/f7549e9Ztbm529+/f/zu2tra6J0+edM+fP+/evn3bffv2TVkzNYFYhIODg+7p06fdvXv3utXV1e7y5ctVxqVLl7qVlZWs4+LFi9XmHzOuX7/e3blz53gT7O3tdUdHR/Ml0O/fv7uXL192N2/e7M6cOZN9EXWEDUiFNEXyzoJATPTx48fHu9R+EUh048aNYzWBimCHQLDcAyl39uzZqot0+/btIu8SMlDDDx8+PN6ofe997ty542//9evXdgm0u7t7QmVAGlTWmzdvsu0AH/78+dPt7OxEkYe5IvpdsqcM1PLHjx8ntU+Q+u/fvz8mFITxEYkNzP/bDIG+f//e3b179wRxkEI/fvyo8uHYVexA3+JCKmwDCMYi//r1S/wd5gvZmTuiP4VI7HLf79cEc+B9z58/L85zbW0tyUbKTqDPnz93V65c+Tux9fX17suXL9U+FAvu221IFj5iqvQ7PDw83hixNhxS7d27d014TWwKJJL0DpALiTUZgfjAFy5c+Ct10MmhdhILjyhlx966detYgsSOoYXE5kr5XXeMcQLGPhv7CgJg67DYqaqHkIRZK9c2ZS2qE8gmDzt9SP8brwzRWdvIXdJA2iLlWXTsvthwyrVr10QVH0qiLARiIohpY4j2WfbGuJXYz9+yyzC07WDe0Oj7wBsbG1G/FTtSFz5mXnwPvov0zeyB6RAjPYz0RzJLxPz06VN5AkEIpIghQJ+9Q8TXNUYxZvHWMLxTQARZUinEOmqBUEEsgba3t5M3KyEP882lwTeNsTt9JEIoDNmLowmE3WLEHnrVBxbUXugHDx4cG9xjgNcgGcw1yWOQIo1CbcS+90eSSb+NQdy3HpLnKkk4pF8xAvFQs4CoJR8w+mwxiyTKIfmItbgvTNh+KjfZ9j5DBpsO2zGH5+lzz5HuMYa1JM371msUgYzngzj1GXBIGlvv54qJGMnnejixhmRO4DjEemhsghxzxgTwqbUYEtnrZW963xyTCYQLaR7gM7bQ82N1vk90u54b/1wiWRgLn0rpG33SOzbyjP0jPSPUuIaIklngU7fJBDJMJS7hM27Nw4nklrY3chJ0rEfqC2T2ueKpTkQoiZCMoTanJN1x97MRiGim+UhS5BLbyOhkIrc51QpSxlUTPKt0bi0GbJhYKYQnl9Mek+I7eMAhgUf+XrKpJHstiUCvXr3q1Y0Etoxbnzv/ZRvkZrBjWoJE8qGRexNgVkiSMFRd4n2FkDyJQCZR+ujRIzEiHat3Y2AClq1KHwPSMbXdeheQxX0GrnqII8PahaixJAKZcgckkY9ceES5gQ53X4qF4sNjc6FOWyk5ffHiRVKeLCfQDu6GC5VCbEpJirqbNZpA6FDzY656whA0D6VkNTck484X0ucjpSYac5E9Vo3hSeaeM0FV6fuEQCphcQ3xaAIR6zCegwtIY/5bicXzuah9MZYpJdLVq1ejpVButc8ml4gcUolobFl7uIIhmkCvX7/26kPjXqPGSiClUpAcz1TBRUIcsfOlTCM3pABjSHARG3dI/UUTCHvDp69N+WpM5DNGn6dmvkvMJ6fKdeupa8xjKMfl+zvX481GICz7ocj02ABdKoGQQlPADqZOOVejNWKfU5VAtodUwu4wtlfKwDidAna6JyYqXePb4c43RSD7Y7WyGPaYwphOJX1uBwSDWXrOqSIQJQVjCDT2/FPOhas9VyXQiMXwxayUQKeMQCD1NATu/xRQAjVGoJT8UolyktIEyi0tlUA97mjtLHcNu60WkU8dgUBsOgPSTQXzraZWt0ogC7i4Uq2KFPuZkjypkegSVQxKIAGcIMAmcivnyDRTdNZCWUfKUZ8SxXFKoAFgdPKRKCeZ8lSGC6msdGjENjdQAi0Udm3UlPVASqCZwtSNT52JVwLNFFItzdCIOYqsBFowsMNiu8H2nf5UAp0ypGThc5/IUALNGNLZtamkjxJoZrBP7YYO6XiUEuiUIvY8WEhtshLolIAYTozxTBS9RqGbEmih0qe06lICLVj61GwIoQSaAaQjxL5BErhmzk4J1Dh8Xb2kQYK19tUHSqDGIfUV9F3mUvPaByXQDMAp3JCsO5WGUxwtUgI1DOyYkA4cuOtTXv2kBGoUIb0QsY2mvqlHCdQgeN8h1TXUvV8JdEoJxDGhoa70MTfeKIFOGYGGjha1RB4lUGMYupmnNfIogWZk97RIHiVQIyDa3NejEW8rxy1ESqAFEojUg3Qhm02eFrwtJVCj6DtKjUprVfIogRpA3/Ec+gy2Th4l0ISgZ3NfbmvslZ1KoAUTiPf0eVyQp0QrYyXQQghE7spHHi4vmSqrrgSaSazHvU5zzuRRAlUENo109fWUxWBKoJmAhlS+BCn/fo6SRwlUCWTXfc2gUFutXGKnBGoQRJl97YO5cG3u5FECFQQlqb7SDMgzRXd7JdCMCOQrSSXvtRTyKIEKYXt729tmrva5LeJOLIwZuZ+vBMoMX5QZ8kxxUa+drCWzn/vUqhIoI2g+LpGHe15rSx4D2wMscWOhEigTDg8PxSPIU0keAzt4ubGxoQRqEb4o85SSB1DpaM8H20wJ1BiI5RAQdD8GLvyUkgdQQ23PiR5DSqCGQJRZKkflHosWrkXY2to6Ma8SBWpKoEQgXZhnq+QBqNDSV3MqgRIAQTCO3Q+wubnZ1IUsdlezkKu4lUCVINUy07+5JfJgm7mdy5RADRBIenFsjZbIAw4ODqrc7aoEisDu7u5/XnpnZ6fJ0ML6+vqJeTJ3JdCEBJKizK2SR+poX6rtrxIoAHQAc2uZ9/b2miQP3qF0HWapY0JKoIAP5EaZSQkwpykHEoXvxaCrB80419bWxHQKkrNUUFMJNODJxN7N1eKg12LJDaYE8qiClIttWxwEFJVAFQmESy5Fmec6UHFKoIoEclMAcx8lL15RAjkI7Qw/p1GyUYMSaOClljCoC1IC/f8hpVIGIb2Z5zjoZK93ploEKnUMeCkelzuIDZUENUazIlCJoihC/0uUPqZKoCQw0GdFIC5fq7WLljBKJVEN3KrHJgl0dHT09yFkmUvYP0slEO9WEqhIqctaUwQiKmw33J66WF3xb6pHUv2rq6ttEQjYJx/29/d19RoA5SyS1KMaoDkC2WWknIRorQLwtAEt4OuuH7LBqxOIgq7YSSrqG8+MkL5H1QnEGSy7qAv2L6lNypzQd5crvY9So/5FCQTcSjtOf6oqqwuOavddiBdaqVmUQD4rnk6mLvNLnTZQyHZP34V4FN+FbmhJBWYjUF8cQcqWl2gaoIgjT2ydOGXBxQjE8MV6sHsk658JTdkJY8kgmy8FDN2DizHmhFSwN5pAeFYhOS/uz5KMOHTzlHeoLxF0+PA1SLcz/jEdZyEaf5OdQHZKYagME3HpeyHU3Jybd7cA7E2k+lCSmf8eu2nx4kJUYDSB7NoSnydmo++SWl6MvBnJRHX3w4AUYRFpHBFSnZB6j6uvcI+GoKMIBEyshxcIEYt99265HgKkZFcRDtDxv0ETTr7LkJqSruJMvQRYasgl1XolEQgX3m6XEgJqUny34OjIP9iMqXeauV3T+ionkwhkizd+lAh0qM72XSugI89AK5CTDF0TyXgmUi39NpLQRRKBXAMrNlCINFpqeeqUAzVHJ9oxkLqb9OU2k49Q2H0HU6x849Fh78Tqdh0nwyJInBzHgogl+bL32FNSDG8lF1ORKGM8KT4A3gXqERdfjWd5UD+NU0JzqpxhEFRXn3kBSSUkE4gotNvUANdSE6fzRF/pB86Pz9sedQrQTmvY6Qol0bzQF6sz7QF9GH2MVOrBjLWuOa95wHdrkV3T1beWowmEHpZyJiT2NLrcLjBBhhpUhDhHWQ6y2wlWe+BdUeaqaAskwfsKzmJKcLJ1QujTo1j3Y+MTivFAW2BehOTQQrv5Z22lMZQ4xcAmGadGdl2ghkg5Sb0Zx5AnO4EAMYohhmOYoX+5mYZgIjtDSZUHBAMhDB4yRPAlRfvKbGLWokgzH+weX0RTR5sD6ZRy1VSxblAEnpAyS+2osbT2Mqk2avF+dJS2SrEiHW3k0VB1Y8yHaj15qTGh+lBrgtqQOGOJU51ABkQ1iRuRFMS910x8edsGDYAHjI2TuxfjPypsbFIOoTpmAAAAAElFTkSuQmCC'
p27
sS'version'
p28
VV3.0\u02b2
p29
sS'uni'
p30
S''
p31
sS'desc'
p32
g31
sS'browser'
p33
V2\ufe0f\u20e3
p34
sS'annotations'
p35
(lp36
V2
p37
aVkeycap
p38
aVsymbol
p39
aVtwo
p40
aVword
p41
asS'wind'
p42
g31
sS'andr'
p43
S'data:image/png;base64,iVBORw0KGgoAAAANSUhEUgAAAEgAAABECAMAAAAV8YMOAAAABGdBTUEAALGPC/xhBQAAAAFzUkdCAK7OHOkAAALTUExURUxpcfzCG/eTKfzCG/eTKfzCG/eTKfzCG/eTKfzCG/eTKfzCG/eTKfeTKfzCG/eTKfeTKfeTKfeTKfzCG/zCG/zCG/eTKfzCG/zCG/eTKfeTKfeTKfzCG/zCG/zCG/zCG/eTKfeTKfeTKfeTKfzCG/eSKfzCG/zCG/mhJfzCG/qrIveUKfeTKfzCG/eTKfeTKfmhJfzBG/qrIvzCG/eVKPmhJfzCG/qrIvy/HPzDG/y9HfzCG/eTKf////zCG/zDG/zCGveUKfqvIPqsIfzCGfzEI/7rtvzBGfzBGP///v/45P3LP/qrIveSKfeVKP7eg/zBG/zHL/zAHPy9HfzDIPzCHP7z0vmjJP///fzEIfzDHv/99/zFJv/+/PeXKPmiJP/77v3TWf/++vzFJf7oqv3LPvu5HvzMQPy/HPzDHfzAG//55//67fmnI/u3Hv7qsvigJfzMQv3WZvzGK/iYJ/mkJP7movzKOPzIMv/23v/9+P3NRPzJNv7jlf7rtfmiJf7jlv3SVv3dgP3TW/7y0P3beP/88vy8Hf/89P7prv7z1PzDIfzHLPzEIvzJNP3PS/3Xa//23P/34v7wxv3adf/99v/78f/12P3Zc/qqIvu2H/3Yb/zHLv3dgf/23/zKOv7kmf/78v3SWPzBF/7vw/7tvfzCHf7yz/7wyf3hjv3OR/zKO//++f7npv7mo/3WZf3VYv3ad/qxIPzLPP/56P7rs/3Ybv7suf7yzfzDH/3Zcv7z0fzKN//44/3cfv/23fzLPf7hkP/56f3bev7df/3df/3QUf/+/f7egf7ehvzFKP7fh/712v3MQP3PSv7xyfzJNfzMQf7vxPzGKv7mof3RVP7uv/7wx/3NQ//77//++//12fqsIv/66/7lnv7uwPzGKPzGKf3egv7hjv3dgv3MQf7ilP/88//9+f3adPzHLf/56v3VZP/12//67v/z0v7moAdyLGkAAAA8dFJOUwD9t/jR+fkNDdH+FL0d88bz+Dl1vR0Ut8Z1V57JBQzSyQUM0v43WTn9zv39/TfON/n++aD9zlfOOTf9nn41mCIAAANASURBVFjD7djlXxRBGAfwUwQDECQEVMTu7thd5vR0FzwQ4U7gOBCkQxFpCenusLu7u7u7u7v/BC/YAG5lZ46X/t7eZ7737E7szIhE6lhb2rYnkNLe1tJaxKSvlSGBHEOrcbQzuD+hT/JH99Y6xjaEYQt0Z8IwrGVHDTTGgOiFDnn0a4d16KR27Cfq81weCzFVOndXQV276O1g3XqooNYOejizNA7Ws40aaqu3g7XSD8qnHX2hfa7NBIV5QkGApChKousXx7l+giGSImK3x8SEJskosvGv7vNchEGkPLEiofp0ZKTz8ejcM/LGZc0RBEk2bctYPBuvi2/y1tSGkqNUwKMByYmzzjg3XkcC5KA+NLlpCHjvzvHCG+TA3lIACUlWpC3CG2ftqXA4iFyd7ovrStQeEgpK2YDzZHOZBAI6epjPwX1XkhBQ+C5eCN8SC4RDkpRkpuEO/6eXuZB/OQXxjkDWM00rp6qdhx5mXixy4oym+VBQyWt1o3NrQmWqGUvevc1CTktImHFEZfvjXvcyFdpGVEAUCx2DgoDsVd6DO2TdewWBG1loOQU3RZKylexfKxIYaMG69VAQASjOtPI+yECr9pNwUL3hkFjJQNEyAh0CWcyy5MPpfWiI/HiDKejRfYAMgbeFzIB8GUASqBAofv+FebDrCoAKgeJ3eUzXpylhV0jOkvvhM1NPhhJ+zabf85tPBbRTcDUQEIgQlRrEdPz3XBkg0CAALj1m+v3nDzkg0CBSef4kM1Wry4GOj7+guQaeBNXSTu2fMl3bCCGQ5FrNc6acyppSSkIHbmSDm+k+jPO7Ijh4Gp3gEiiIvMBZ739VOXMSxA4CIZ/s6U5836OiGc0EzfwPNTNEXuHdReR8g6roVuFUnnxVwG1GvafwRA65PQZ8QdmwNxGYI8Q/4853qHFfFuYIUY/7UrFuyE3qFx8S4SgwESHxrrohN6nqHBfnKZ0kKFLPOBUgrgc5sA6GubiIBcVF219izuFYe1yvc6AjZo/r9iPVzgs0p07SXCCI+hgQwwegOhg2kL7SEBnbuI0Yhexgg4zoSxbR+LHo9agzZCh9gWRhYoTOGJlYsFdapnZm5miMuZmdqYb4C4vNjlIiBM0YAAAAAElFTkSuQmCC'
p44
sb.