ccopy_reg
_reconstructor
p0
(cemoji
Emoji
p1
c__builtin__
object
p2
Ntp3
Rp4
(dp5
S'emojipedia_url'
p6
Vhttp://emojipedia.org/keycap-digit-three/
p7
sS'index'
p8
V750
p9
sS'code'
p10
VU+0033 U+20E3
p11
sS'apple'
p12
S'data:image/png;base64,iVBORw0KGgoAAAANSUhEUgAAAEAAAABACAMAAACdt4HsAAAC91BMVEUAAAA3S2Y1SGAzRls7UXI4TW06UXMAAAAAAAA1R2E8UngAAAA9VHwAAAAXFy4AAAAtPVEEBAkcKDEAAAAuP1IVGyM0RlxDWXc0RmcxRGI5TWwwQ1QmNUMxRFUfKjknN0kjLjojMT8AAAA8Uno4TXQ0RmkzR2c0RmA3QmM3TGw1SGg6UHIyRWE6UHI1SWdihKNefp5khaZhgqFggaBegJ9fgaBcfZxff55jhaRNaIdpjq9ZepZoja1miahafJpkhqZZe5hdf55fhqlMZ4VPa4pKZYJIYn9WdpNTcY9cf6BihaVoi6ljjrA+VW9XhKp4lrCxwtNoi6wdSora2udZeJeLpL1rjKvJ1OFtj69fhKWIory3xtdjhaNRY5f08vYrYJQtQ4AWQoBRfaMkWZA8Umlyj62AnLd/m7ZOfqiUr8dzlrWTmLk+UYq+vtM1ZZOdpsSIp8agu9aGpsStxt1/n75uk7Zzl7puk7dtkrSCpMP7/P1Vc5eBosDK2edskbTk6/NZep3B0+SlwNrp7vR/pMdnmMNqkbaOrcrU4e1RbpHf6PGPrMmwxdqat9J6nLyXtNCjvtiJqMdtkrV2nMBae59ojrRTcJSowtt2mbt4mrqivNaQrsv4+fvv8/d8nr+kvtjT3+tli69ljbGMrMmKqsmgutWBob+Pr87///9ae6OMqsipw9uduNNhhqlPa5F4pMqEo8Fum8Vqj7A6daeWss2Rsc5nkLZwk7VrkLKTsMylv9nz9vlnja/c5/BegKOCo8Lc5e7p8vhWdpteg6by9PhTcJVflcJFXXyYtdBxlbeRr8vq8PVni6tojrGPrcpliKhIYIZbfqJqkLGlvdRbi7Q5cJ9QhbL09vluk7j+/v+mwdtNaIy4zeFLZIerwNZhgqShvddQbIxhiK2ZttGev9q0y95kh6dmiqpGX4aEqcuFpcPO3uxoi62mwtqTt9bz9vpokrtsmL6pwdjj6u/Z4uqfutaqvtGduNSUss+cs8qnwduUs9FIeaOVn32yAAAAL3RSTlMAz8/Pyc/PJh7Rzw/PCAQath1OIcA/4/15LsbKi9RZjnJsH8arOlkdF7ew1FHdpwLFKvgAAAW5SURBVHhe3JNFk9toFEVn0d2LVCrbdLwN428Ty8zMzMzUyMzMzBBkGOZZjCXL9if3lJNs5+ye3r2nnkql7/5f3Gh9wuE0fQEO50nrjf+sP+JcP3umc7vnGuJ2656dXec8ulS/92BBJx2fed7NHWgIt/v5zLhUt/DgXt31D0+cbXHhuWhSomiIZFJ0Loy3OU8est7j7uP2i1hYdsAfkejHGqKXjPAPZOHYRfvju4DgfntbPKEIRk/RgudTQzwF9DQaVCTibe33a/07m+OuZGgMHZZ7PIUv4PHIh9GxUNI1vnmn0r/WJIg59NqI/K+vRB7R6h0xQdM1RnD77Uy/cdIqP/5q5NZJY//M29uMoFUXc0RR6/A3YEWjjpiulRHcmo4HZLD1m4Blgfj0LUZw0+kyGeGnlyjd9BSG/ZHhyOUdjJpczpuM4OqWuhiB2VDFvztU8xRd71IRf/06UlRvXa0JLP5f6/CbulSfZZKpqakPaMe8EoZTdXsLS9CX+p1NKjP/MpStoO1QmeoDfYAgp9YUTSyKGZUoC3D0UvWiLqFR5yqCKzl10vSChaXrQ5bNsYMdMSXVuSsVgdNlW7SALCpRpscPVm7IJFmZRZvLCQosf4Bk3o3QrZVX/tRP0SPaoFWyIhZQIF1DeodAlIVyfzERCGgSMnoI9mnASC+yJq0IWqSjvKFlEKWWvtqYpIZ1jYQ27CTByBBvVNpSEUyPYoF1gAREf8FQIEGPkKgssIGZADY6DQi8eRDIwqcaEhs9GcKysgBihbwsAcnL22pAASPFDmTLGwwGx76e6n+/DAGRPI8EBR9xAoEAkAkKHvS+f3e/p+dVlkI0AUYQAv9YFTQLVu2HhBBB3teBOH78wQEr6H7IMFF7jgiJQ/uqoLkm4JIk6cU6S0wACMOz2TLBX/7Eyisqg3lLcS4gmHsjxkkSJwkzlk4L01UwbIURRHd7fJ1peomZCZJKi9/MVQXujUE7juN2ux1f8vrCWJVw9Ycc6d0j0ljY512iYlR4cMNdE7zeFtvLiMXikoUgfD6f2WzGfp6d5TMK4x4+QK+Z4PZrUNAtBhmkBy6XO1DydP6mKBt4/3DBUHdN8G8lde7aNhTAcVyJh5cifMZ2htz5B5RK1qtvWT4k+azTOvd99L720q1TOnQvJNB2ylIonjIEU2hAi42poZROQR6cJZtNIdChqixbz3bA1mfSg5++aBBv6JDxVk5RpZTs8/+HUulT9UNdCbx7XEImFS9zONQOJPwVxGlq+55sP3PaPFefnCjeV9GVP6EFJKKYR1Qy6/dly5mz5vns6S8lcB1GV0VC0gIXRS8q3FBeSFXzyvEqf6wG0FHxAgmQST8qvKwE3vxd8cu84cyRGkBHSbIdGJaowMIVIpxt/j37mRWvdyW//bV5qa19QTYLAUoabgWidDlZRIQXm7fYq92Xe3s/dze3lFPdf4lskmU6qgVcteQlIlBunChebO7sPH+m3qt/vqObZM2lBTwsE+iwKn9C09ZW66m+VAugGNbTChg80F3uVMiedDl/tBooo9zQY2gFIpBgap1Ws787AvWHhXINxRAwogWCJHO7A5P4sdjQAsfZpUL3ggx2BboVEmvr385fHx29Xb5+EL9A6r2BWIjccPcg4nHmrmyJjpPuHhtkKKYFfBRxI5KOx2mSuBHlawfGuRxF6EbluHE1YBH5eYrUiZrnRYsamBgTIE3pRENhbEIN2A6iQRetkysYPbCpAeskx0OXTpDnJq1qAJ9JR30se0cHlvVF0zO4GjACuygEITs/MBYGBdEOjJhqzuHkhBAcPABDAud0zGEtOLA5RYkPwQGFeEl02gCOtZmBw56OSQKf8/WV4wUplrY7gBnTmEYBmDWkRS4W8fQRiXFi2jALwKgJQxjlApiathhu9WWwTE/J41Ej1sFkBrqYTVg3fAQMbATHbmLEzdaRvqxmHP36f9hSlLPZFNwjAAAAAElFTkSuQmCC'
p13
sS'twit'
p14
S'data:image/png;base64,iVBORw0KGgoAAAANSUhEUgAAAEgAAABICAMAAABiM0N1AAAASFBMVEUAAAA7iMM7iMM7iMM7iMM7iMM7iMP////z+PuFtdq20uk7iMPn8PhUl8tHj8dgns6dxOHO4fB4rdba6fTC2uypy+VsptKRvN3U54CQAAAAB3RSTlMAYL8AIM/vi50ITwAAAYpJREFUeF7t2MmOgzAMgGHWsbNvLO//pkPnYBSWqjE5jfofK/GJREoq3LxqO/Wgru23mr4fRvWwcXhBw4963M+wQaOq0Ng3rapS23R1oK5Rlfp/0BeyQibY0tNqHkBGIuxNjgt5hDzPgmyAU5IB2QQXyXKInLy1FPJwHdoyyMJdvgxaYQ9Dgj1dBs3EpGVzrQTKFUH04HT8AZYSiPZaW9o0HmRO60gciF5JKEozIRVDCPH8igAP76OJdv8R5MiByIei1EAFxYUiZkfNcSEDB4cJ5beAdooNTfnRt2xIQpZ2XGiFPHRMyKaTxIOU9TqXUjlELUIiUJ4P5Xck8iAqkBTLoMXlkCBoLoCsRICUUY6g8DlkE93YexxIXixi4UB48Sc2cyB6JtHiDHI2O2TS8aiIz6EZKFyNUsYj7NnPIQdvkiVHZLp30JRABm8hUXb64/3CyiAl3jiFhxbhnOdc/lYemcD9OzIZNS1PPmqiD3/Nwn4//O77QtWGLNXGPrUGUdVGYzWHdVs1xoe/+THUZ6fl/nQAAAAASUVORK5CYII='
p15
sS'gmail'
p16
S'data:image/png;base64,R0lGODlhDwAPALMAAAFa+lKV/vT0/KjL/oK6/wBj/wAP1CxS6Axt/ht2/wFp/7Ou7Zeb7FFv6Q5x/wM+7SH5BAAAAAAALAAAAAAPAA8AAARpcJBJK20kIVe6LxtiEAhwWFNSACMHBHDACIPKkiD4HHSn3JzCj0cAABS/lucwoNWEQI9i1RAIECulr/OYBbKEoAOr6AoCgELL1AM8Fmcw502T0aZARSlACSCQaiRGK0aFhAYNBoqLjIwRADs='
p17
sS'related_to'
p18
(lp19
sS'name'
p20
Vkeycap digit three
p21
sS'known_as'
p22
(lp23
sS'default'
p24
Vtext*
p25
sS'bw'
p26
S'data:image/png;base64,iVBORw0KGgoAAAANSUhEUgAAAJAAAACQCAYAAADnRuK4AAANZUlEQVR42u2dHZRWXRTHB4IgCIIgCIIgCIIgCIIgGAgGgiAIgoEgaK1gIAiCIAiCIAiCIBgIgoEgCIIgCIIgCIKB+67f885pnbnrnHPPPvd83Xn2f62z1vs2M89zP/5nf+99NgaFYgY29BEolEAKJZBCCaRQAikUSiCFEkihBFIogRQKJZBCCaRQAimUQAqFEkihBMqPnz9/Dh8/fhxevHgxPHr0aNje3h5u3779b929e3f170+fPh12d3eHb9++6UNrSaAfP34Mr1+/HnZ2doatra3h8uXLw9mzZ6utjY2N7Kvm9ceuixcvDjdu3BgePHiw2hxfv35dLoH+/v07vHz5crh69epw7NixIi9R1/SCVEjS379/L4NAXOj9+/eH06dPH7oRSHTp0qWVikA9sEMgWO7FZ588ebL6i9rc3Cx2T6H1+PHjlcplox4/ftx7fSdOnFg9++/fv/dLoOfPnw9nzpw5RBpU1rt377LtAB/29/eHZ8+eDadOnXI+QEhlxDvq9MuXL8OfP3+8m+Dt27fDvXv3Dt3P1Lp+/frw+fPnZvYJUv/Dhw8rQkEYH5HYZPxuNwTCKL158+Yh4iCFfv36VeXBQQak2/hhsSPv3LmzeqipDwxAuFgice+QdM735QCb48mTJ15pfOXKlSQbaaPEyzt37twhUV7Ta0FtjHcb/49nlfM6eCHcW6w0On/+/OrZtAabGInkskMhF5urGYEQ10ZlcIHo5Fg7CbWGKEUvX7t2baXDJYsdFPKQpJ8Xu1Lsoznfh1qEANg6cyTp+/fvneqd98a7qE4gmzwYzHt7e1FeGS8+ZOzpCi+kK5KQl47dJw2nXLhwwanqY0mUhUBciImvYBuELHtuEl3sYj9/yy7D0LYDeVPL93AlnzFncb3SF4+6kHw+z8XnEJiF6SCRHkb6u+xFiPnp06fyBIIQRn1AgJCdQbSXOIR9oXhCeGsY3ilAio1vns+rDSLUkvgWLyjFQ2OzYueFVDbPVGLv+UiEUJjylmcTCLvFiD30qg8Er+wHjDc016hE0o13JR5PK0htItSHVO3YwGu6deuWV8KF3kfMs2Qh/YoRiC81Hg9qyQeMPlvMIolyYKy+SInMeSFz8erVK7EqI50zF6gtn3sukcYQziVFQ+9rI8eOQ5z6XhySxlwIu8UXrEsh7/hmeYiIXVxmxDgvp2YIgXuTOgRcc46gKiaAT61JSGS/L3vT+95vMoFwIc0X+Iythw8f/vsd/jsnjOqMWTyUXMSdgiQ2lNtmw7Nl47i+I9a4hoiuqLUvJJNMIMNU4hJT4pwodG4gZSQvidhSDRKhylPiQjnTFy4SIa1jbU7X5sRey0YgopmGpa7IJerF6GRSGrntEj4/JWZC8K002OnS60Lt5cwNslFc8R084JjAI3/vsqlcXmMSgd68eRPUjUaM49aXyH/hMqcQiBdV2sjGM0q5tpiYiwR8nksVhZwdG67YlsvgTyKQSZSSnXZFpKV6t4a3E9pFOYEkSbkuYjs11Cmueowqd0lSlxpLIpCp7UES+ciVU6+PwU5IJZDrmnMj5bpyuPOuIK+rAjNGCrERXC79WNWKCYQONR82Vk9Y8OZLKXkoBYkHFutNtCYQ91QCBHBdbnkMxlkD1tgQFxOIJKkJxY8BaczPSta/pHg6vUugUgRik7skSUwloiskMRYMYgJRmefThyYyjBorCSKmqQQqXZNjS2jJQlKUgivAGBN7wsadUn9iApnkpcvGMVV6pZOZvKSpzHSJ3FPJEENJyehS+VM5Lt/fjSVlNgJh2ZdySUPXIVkl7TKXF9rSjXdpDXuRfe+KQKgG8yWUHNSAL2zvqw2qkWhNDSSWtBmN3Tp257sikJ0bqwUeOno6VIfDy+Gma2XpiXa3TGVI1OraE8iO/pJvw1g0XZn8N/82t+9JCrt0pbUHpgRaIFyxk6lVouVYCbRA+KK3oUURXGkogRaCFAO6RmRcCbQQ0LwoIU+o0k8JtGaACNLgZg3powRaCEyNlMT2qRVaUAItAJTMSgKHNYv9lUCdw47CxyzGztSEEugISR8M7dpQAnUMV6Iy1HLcovFRCdQpfO3AvraiVkOmlEAdgvKV0ICDFj1pSqAFkSe2lIQyktbj7ZRAHcE3lMnVCVqyTFUJtDBg/NKPFmPzQLCW01mVQB2BrgZqvGMm3NONwu+2HDGjBKoM7BMeMIs5OHR8QIKYYd12eSiVkbVKeZVAjR8mk0XIhM89coF8FlHllh6WEqiy95TSDuSbQk8QsbWHpQSqCCoGc48U5vOQRAxHSB0UqgRakAqj/4pi+5jxusR68KhiD2tBJTLGr0ZfnBJoYSDjTlwnJgZknk+uYaJKoCMGbJ/Yw1aQYrVbi5RAC3H/XRNNfZNYW8aHlEAdQ9KJytSSFl6bEqhzSOYVMdSgtkpTAi0AoUNfXGeHle5GVQItDOTMxufChha/W0sSKYEWAjPiTyKJahwDqgRaEFzHJk0dw106l6YEWhBS+uMJByiBlED/ID3Hg0VwUgmkBFrBPqUodhHZLhUjUgItDNJO1dKHwSiBFoiUuqNch88pgY4AzJkh0hV7mo4S6IjDdUZFrC1U63w1JVDHkPTMj5frED8l0JqB+T+pBMp9dLkSaIFIPXSlxOBxJdAaeWKmQTGnHaQECuxyYi58N6u3rgh6z3o4lkoJNALfRfeDq1uCZGYv7cWx419KG9JKoNFNxXSU8vJaSySeUQ8nKyqBDkA/l+QlMBChRr1NCQLlnCGtBDr4/JRedlqQW6kzJVBHBIIIqS+DiRtLIxCziJRAmcDYlDmTNDC4W0BanWiv3d1dJVAuSGuNXQXsLRAzlErd+AoESjlGUvqwSoCAYOrEDw0kZnbdl0Yg6npSr5UBDjmhEmimBGqhwlKP/zajgZVAGYFHModALYzoOeUcuc+3X3sCMWdnDoFauPGUZKTaP7nLWteeQDTepbrxSJ8WgcRUF35rayv7tWggMfGF8DctJqimnN5cIv6jBLIg7bVC8rQav5vSnWoIX0JaKoEOvJrQruZndIQy8Lv1kEuuIYVAEK8ElEAHcJ0MyMvqCRS5xU51HSd9S0EJdIC9vT2nFMrt9s4B86Kl5OGeSg6cUgJZcE0CI2XQy+k4sWOAa24AJdDIpXdNvyBx2boC0TwbyeJQl9JQAo1AptqVqKSrs5Ukko64Y21ublaJUSmBPK6yyx7CgM1ZTxwLyCA1mmuN/FUCeYDt4Ds8Be+sxKQLFzjySUKe2ic4L45ANVMHfK9PdfDvkKzk9TBEQRJ1xuapHeBcHIFqD9LGeA71YNHgh3ud88XxWbFHHZgkaatDeH3J6G4J1OKUGqQMdUOh88D4GWEAri9VhfA9PIPYw1bMyYYto+PYhIsiUMvjrpF+ZLSn1Ao/xxZhoBMGOYE8n6pDwpHkpERD0u/e+pAVA19pSVcE4gXY7mlrsOOlnpGRUsSUzEo54RByYuu0bGq04VLvMVWaVQlkjzPhofdyligSSSo5UhcSZ3t7u/n5YDZ8LVGo1a4IBOw2lpyNcTkAoVFD2EAS+yVmFAsxHZ5Lj6c3+04Siqm7rk4gu4yhVG1LTs/NnA+PqiM9MpVFR4qhDvgbYj9zjPFam8YX4ojZ4NUJNC4k700KxXpZqCB7LeFob4nxzEK1dUeg8bHasL8XQ3LdgBPh80Q54CUG1QkExuUWHDrbsyo7isAWC01HI6janEA+K57ppGPmM9dHUc/uYdPmmEPtUoHZCBSKI7hC/BTFK9qSRyJ9AI0JxQjE8hmXvtqYlp0SRx1T+UBTBSAxJ1zzjWYTyG4zDuW86AZ1GXHoZmqbFflAKmYqUEqIIsbzsr1RV1hjNoHsnNfOzk7wd0MF5qi5niK2SwT2JlI9Ju8n3bR4cTEqUEwgu7YkZqI6JAvdGEE8Anrq7scBKcJLJPodU4dEWCWl38w3UmfcOZtUPmhiPdxAjFiMHc+ChwAp2VWEA3T9v6gu4LlI83mkWVKbFX3T1cZaI4lAuPDmA0kexoCalJTMtq60xWZMrUHytWZjE42N8CQC2eJNcsoeOtvVXaor30IrzKkHhyBEqmMnhyQRaGxgSQOFSKOUBjxd06f8zG1rwh6VjB5ObqGwx62kWPnGo8PeqVGrc1QXYREkTo6prsSSfNl77ClXDG8jF1ORKHM8KR4A3gXqERdfjWf3opQEp4Ruk5xhEFRXyLzwDbFIJhBR6HFhVstjBRTzECr9wPnxeduzugBdveCtRsop0hGK1U0dwTm7jdQ1eg5rXXNey8DU5DdsotC7nE0g9LArZ0JiT6PL/QITZOps+xjnKEsju2+OM94VZa6KvkASPOY4zpgSnGyTEEJ6FOu+lwFQ64zYpkvTtRFjy2YdpTGVOMXAJhmnRnZdoIZIOcUe/hJLnuwEAsQophiOYYb+pTWGYCI7Q0mVBwQDIQweMkSQHjlFDE7yLooM88HukU7r0tV2IZ3Y0FIUmwZF4AkpM+ekQV11Fh5zqo1afJwYpa1zjn7UVTaPhqqbYz5Um0dHjQnVh1oT1IfEmUuc6gQyIKpJ3IikIO69ZuLL2zZoADxgbJzco5D/A1l/pt8pHY7LAAAAAElFTkSuQmCC'
p27
sS'version'
p28
VV3.0\u02b2
p29
sS'uni'
p30
S''
p31
sS'desc'
p32
g31
sS'browser'
p33
V3\ufe0f\u20e3
p34
sS'annotations'
p35
(lp36
V3
p37
aVkeycap
p38
aVsymbol
p39
aVthree
p40
aVword
p41
asS'wind'
p42
g31
sS'andr'
p43
S'data:image/png;base64,iVBORw0KGgoAAAANSUhEUgAAAEgAAABECAMAAAAV8YMOAAAABGdBTUEAALGPC/xhBQAAAAFzUkdCAK7OHOkAAAJnUExURUxpcfzCG/eTKfeUKfeTKfzCG/eTKfzCG/eTKfzCG/eTKfzCG/zDG/eTKfzCG/eTKfzCG/zCG/eTKfeTKfeTKfzCG/zCG/eTKfeTKfzBG/zCG/eTKfzCG/zCG/eTKfzCG/zCG/eTKfeTKfzCG/eTKfzCG/eTKfeTKfmhJfeTKfeTKfeSKfqrIvzCG/y9HfmhJfeVKPmhJfqrIvqrIv////eTKfzCG/zDG/eUKfzCGvqvIPqsIfzBGfzBGPzCGfzCHPzBF//++/eSKfqrIvzDHvzDHfzFJfeVKPzAG////v/+/PzBG/y9Hf3LPPmiJP/34vzHLPmjJP3bdvzCHf/56fzJNP7jlf/9+f3cfP/66/3YbP/9+P7vwvzMQv/56P3PTf/88/eXKP/99/3VYv/++vzGKv7lnf/12/3TWf7gjPzGKf7z0//99v/33/3UXf/z0vzKOP3XaP7npvzDIP7kmv/+/f7eg//77/zEIfzGLP7rtf3MP//89P7oqf3Zb/3SVf7tvPy/HPu3Hv/67PzIM/mlJP/34f3bd/7ilP3SV/igJfzKOvu5Hv3QUPmnI/7ikfiYJ/7vxPzHLv/01v3Xa/3OSf3LPv7tuv7yzf7hjv7jmP/45//78f3QTv7uwf/12f7xzPzJNv3TW/7givy8HfzGKPqqIv3hj/7np/7xyv/45v3NQ/7st/3bef3ZcfzEI/7wx/qxIP/01/7tvf7yzv3cffzEIv7rs/3ac/7lnv/23v7qsvu2H/3UYP7npfzIMf3fiPzMP/7tvv3egv7knP7movqsIv3RU/7oq/3PTPzIMP3OR/3df4bseqMAAAA0dFJOUwD9/v3R+fkNDdG3FDfGxhTzvTn4dVgdHb05t/N1n1fJBZ7JDAXSDNL9zjc3/c79+f3OzvkTgIj+AAADpElEQVRYw6XY9VsUQRgH8DPAVkBEsLvb3eVGZ3aBCy9AqZOjFZUGKSUMDCQERKUUAQMLuwMTsfWP8m5hy7t7mJ37/rrc55l8mRmNxpmgedP9GKL4TZ8XpBET4u/DEMfHP0Rwpq5nvMnNzWuHnSlzGJ8x5M6GjfTkGTw0y4fhyKHIVWPpmQuczqL53vQrciftyOJlDmjpQq8deskKBzRhudcOvXKiE5rktUOP9w66KTg4EBsGOYPewCDk+u3pDlyIhaVFN+y735ZkXk5qN0Lw3+eTMXgQC2zH32XlU3zM8c+PR0PlH4Se2osBAfb6UF44Jcv+3uo4ZaNMZyNGhUBF8cFD1H9Jq9MrpXOjQuBAfTflmvK6OEXfdKN2TV8fTrlL4j5WDm0fDQLGL5T7HGxk1UAMaNvjHjK3cOqg0q8jQ21O7E8ZsEhSViNUAzGw6BI/5f0v/1y8FZUjtS+8GKmCGFh4mqKexV6ECACkvyyNfT2jDgL6ltN3o0a2BWtrFaFjnDrIsZSajeJwxH0jhxiApGVsKBGhLkYtJB+wwQHBsbQhcgjZXpsFaCAKkkLI0PNF3L/mMgNh10DFr64r0nq8OgjJIPbTz3j59k8CDBkUli4vA3uG9ORQsqyIDJUqChsxdC1VWbVVQT0JEmTJK+RIIdR+VFG1i0nHCBjtKfLqXdsMSdcRvHWjKl+STuQC0pUNkPFvuQglJEHyvQa4Pmk1dVaoggAHZMMKj+wSoQJp1+IU/9wWu1TWGHA9S4TyG8LUtMgenvGxQ2wUypYGidqnAkLpjq6YW2OjIf/vEOZWUUQQqOzkf5L85GHUK44x2MpkyzsjGx/iPguTZCl4UN+XqTje1B7BHmz2RxrlOZ2PsacftVk8O/sf4S9IUFniWboQrWKLsJWZyR6c+AZVm5Y1Hk5065THcurKCDAU9rvp3r1Y9TUb1vQVmJVMQm+DgaBms3H37+RlSEz3hTcuB20dXhmBTM2Hst6r99LSal9U5VQfcDn6YxyPhVYhYCxKTU3t+K2HyIXBOrDLSi1CCLLuPuFdITBi8nSpMb0/GYrPhJpua91DVt3emCZTKGZMTWd2uIesOsc97nyMbhtWdDHnHYBWAS2XHJqOiNBiJWJ4vrSyy/HwdX3EUR2tdF3nHxCs38mcEYl/QHA+aVjXkTo0PU540tBMmWPduonYocf6Co8smqlbyNvjzOo1wgNSQLAvOeMbHCA9ac0OnDaXjJk7LXA2T/wD1G8HQGTePvoAAAAASUVORK5CYII='
p44
sb.