ccopy_reg
_reconstructor
p0
(cemoji
Emoji
p1
c__builtin__
object
p2
Ntp3
Rp4
(dp5
S'emojipedia_url'
p6
Vhttp://emojipedia.org/camera/
p7
sS'index'
p8
V778
p9
sS'code'
p10
VU+1F4F7
p11
sS'apple'
p12
S'data:image/png;base64,iVBORw0KGgoAAAANSUhEUgAAAEAAAABACAMAAACdt4HsAAADAFBMVEUAAACAhYwDAwMCAgIAAAAGBgg9QUYAAAAAAAAAAAA3PEA2OT4SFRgRERoAAAAAAAA7PkRUWF1vc3eWnKUAAAAAAACBgoMAAAACAwQoLDFrb3ZDQ0R9fX9CQkJ7fHyJi4uIiot1dnhERUeSk5URFBeQl6BZWltNTVORmKCIkZ1+g4qUnKejq7WxuMKRmaWFjpmWnqmyusWrsr2MlaKZoq2mr7q6wcyut8GeprKjqrZ0eYGBiZVcYmiTmqWiqrRiZ25pbndXXGMdHRx3fohlanN2fIRPVFtESU/S19yHkJuFjZd6go1fZW1scnthZWsnJjB9hZGAho5rcHhVWl/U2d3Cx8yPl6Jvdn9YXmeIj5lNTE0lISB6gYqLkpwtNlaLlKA7P0UvLko7SphEVI10e4ZMZ8E1PXFFVIVIYJh/u/dad7RWYLIzOGhbbcpDRohrm+XT2uPj5umrsbfM093Q1+Hh6PHIz9ne5e4yMjLHztfO1d/b4uvf5vDL0dvEzNbZ4Oqwt8DX2t52eHqcoaaJi43p8PnCydLV3OahqLHAx9FISkrl7PbEyc6mrLObn6OKjpGxuMG0t7vY3+kYGBgoKCjCytTBx8/5+fq6wMr////P0NK2vcbAw8a5vL+ipanj6vOWm6LU2+Xc4+3X3ufn7viOk5mqrrTq7O4iIiLN0daDh4yPlZ2Kj5aSl53n6ewvLy+TmaDR2eK8w8uxtLeutb6yucF5fH69xc+LkZp5foQ9PT5naGnLzdCZnJ68wMQlJCVDQ0STlpju8PHr8/zN09gRERK0u8PU1de9w8xgZGdAQEEAAADIztOGi5Q3ODm+xcydo6s6PD6epa/e4OPGy9He4ubZ3uIgIB6Eh4h8foBSU1THys3P1NjK0NWCiJH8/f0xNDdkZGUrKyza4elkaW9pbXKZoap0eX5PT1BwdHh+godbXFz19vdFRUZKTlSnq65XWFi2vsl8gIfY3OA/REm1ub7Q1dstLS2PkpS6vsJaXmPU3Oaqsbvc3+NhYWKnrriKHXyNAAAAKXRSTlMAvQ51CHP5ARwM+fmoBXdO+TOe0GBVahhx7+tRSyKKlqSLYqirvfYrvbwnYd8AAAbrSURBVHhe7JFFb1VbHEeBkDBi0DbpoJQiL8jHO+5y3d3dve7u7u6ou7s82YfAvdxCZ2/YNdqD9Vv5J/vY/8sRRxxRUX3h3F+A85UXqk8cJp2ura77YdXVni4Tzl5WqCz2QCBs2e1/dfGwwJl/FNbI5+lA+6iif6+iPDDydFf1yT7QeN9AjRweeH77iWo0FLLOzlGGK7/eX1nVYu6w2YIztm9mnaXq6vE/cqkq9q+ss9PnkyFmXayqsnRDDcJzRrU6lTKm1OMpHKI1nj+goSFcsoxGNbBIHqkpBtIeluQ44/j4uBoAjCh793dYNgEsAJhzHMl60sVAjCZJLtpWePimYG2wFnp7lQ6cBHCkRCKRAFsACQBLI3JPZgRPOlb8HSmAY0vNhlnFjnXn8Zd3roJasqWlmIQYnhYIHtM6RKmDo5PzTggvC7QILEtihqUX/V3WUVXXrOFW2sgCREcS4mc6MhkEQTLIlJuJJ0WRRJ3zOYhkWaHlZ+Bko1sUxUReORjJ2MP2TMRiZ0URrLUYETS3D6xnx8ay8PSQGfGgkDZJhrtCHBi4G08VA5okIBGN4jjHcXg0yjmSSW28FV02Z+Re71jT5t9vt+BsU2itg2agOJkiJV9TCtR7tBJfS2jjcYghgiv7Xj/Yw/CmPL9hupaFEZ0exaD4d91TXwykl6GDtGIo3WmR+/03/X44FBmMhK9PmEzyrH2lm2ewVklZThcDPW3YARiGF4KxaWk+purLOZ3bdx6lF66b8llkrZtAGclp6ykGGnxMOSjKC77Y0LOs19/ePJn7SFFU8/D23vuJjWuw0qyneRRIvoZiYDHIH4AQZnTK7CbsHZzMUUurfXOAVVef/cOCPFBv09MEcIKLpcAUUQ7t7pb17MNbTS+dd3Iu17ALQA1TlMGUX1iPPHitF2iCmCoFbtiEMtzu/9qtk5g2DigAwxE0pU2bhgNRmnsvsQ0YY7bxjldsjDdssNm3LF3FjVMESYQA0YhIroQERDlVMzLUUWOVpWlskFWp1mDI4KUlgGILb1g2YLMEZOMOJAwZwoVbD/1OI72ZX2+Ww4wPIWPJSteSXW8274Kgu9QNgkbQtvubCBYNj1IKe3+6e3dgBQsoTN04veODprr1pMj5oLTD3QGCoExmBtGSMWJ7AS0vjSJ/FvZ2d5sUWICQGMcbzPtRsRcXdQW9Zq8eBOtbbtfLQHBX32efFsE7YwbKUOH4eIKABWpThTiDQ6b5NXW8S20/XMDd1PL1rZvfysx6r81ybwdeejhLyt4cLEzVYgEuaRNnqCjFiD2PJ0eMdrcRdNffvtXyzXdNNaB3SuexwtBjAkLJ29wkcbEAvycPJ5vCNADPXc4R4xR4GGj5vu2Htno0YAt6IAd0n+9PFeXl9fCxAIAU4ZhSyERIveB8NWXzGs2g7GbznTvNshq9NxK8BzmWxwAiM1FUhABYoMpPwUmQ/BO8R85kchEt6MGapua2ZvQOjOZw37TVsUwAcpAUheKvwgJScgFOSQ9Zy3vSHm//uyOIfsNmPfoaa0C91+4JbsOOOSVXQ2UWFJClWEDJKMFhIkStNOSKJ1/ZIot6b+kR0Gv26O6hC/xMJxj8xcwShhILsDXFOAiVoeVzttEvadq+qLP0WSyRSCRoOQhvDC87oBhdYSBSi4s1bCzAm6DikTXa2uqASySK/2NfPDg48Hh+R20En1XC0LZKuVLH8FOpdTwswBKTcYiMfK2EHX3sgqyVDyx9G+EDVFgXHnEuQValClip0xDJZDELC5TTcvA0DbnyKo5grxKGRY9CwT5dMKgLv1mYWah0jQp5XFpZviYnh1aOBejyfLyGG2J5Kzuq2lvqV8PW4fXpN388g9p/QT3cqq6qpZU1NOTny+lYoFpyA6+sTCznSsuF0XWrY+5XtLGzY7WKnDMz040CHiCh5ZahJ0mqsQCHm3uKmCavBdh0YWNgG+6fm5tT9zugLudIxUsBS9oqoYnF6DlcDm6D0yvk0iSt0nJBozAwv6d2wLDjxX3fyy0Or4orP1wAv0E5jXgaI0dTJ1bw0cTWVpTuU/pUwkbh4eUr2gYNg0FEvfcQ2U9JpzGZPYifYZglAOwKlSAajQr2V6V8hVZDnEeYTCYJ9ZSNBQLIQPYHOk2JVM/8E8OsIsYHAP4kYWV0jIyQEpTOzqP5ABI4DlyN+ibXCB+KxSaBQIjNW61AsVZ9ylCAPxl7N1yb9EWvvAtkvRbQWatnYLFYFXT6PoejUnE4+/v0vypYLGxGF7y+erzBV9cvZX58lsxLhz576+g482R0/fPjDa5kXUxPv3iW9CNfvHV0/N7oy6zjQEbatU/O71rayb/q5Y/Szu/TyxkXTmSc34X/jv/9C4DwVfoxrW7NAAAAAElFTkSuQmCC'
p13
sS'twit'
p14
S'data:image/png;base64,iVBORw0KGgoAAAANSUhEUgAAAEgAAABICAMAAABiM0N1AAAAe1BMVEUAAABmdX9mdX9mdX8pLzMpLzMpLzMpLzMpLzMpLzMpLzMpLzMpLzMpLzM2PD/Cxsj1+Po2PEDKy8z///9DSEw9REhmbnOPl52tt73M1t1ESU1SWV6ZoqijrLMzOT6FjZN7g4hITlPCzNK4wcgrOkUzYYQ4d6g7iMMqNTxVqcWZAAAADnRSTlMAj/8AEIDf/79gAFDvQKYzFtkAAAHBSURBVHja7ZfdkoIgGIapVBS131VjUdNK7f6vcPkZlwwbaGA62O05YtB5+r5XBQIfPrhksZywWL0IGAfLB/6GyPMDaEEYeQghgFCcQEuClIlS6ICYigIXosQDERSsN9s7NmszwW5/OOx3dOCDEAqER5rMRNRDTSwmME5tH/iSd2d5ccScY5FnE9GB801HT0VwhJR4QkkUEZSip62RCitURGlNiubDrk94llM9DVuK5qnHaBoCOaQZZ6hJohO1Z8wo2slkgRnn1lxUc8+FwAfIhZtqE5Hsq6xnrpSiO0MRz7mAsxQ8cTMR4fXAJ/CaiJGoYvmM1V+7fqD03XXsjuVUmYjI3U/euuGXTrmuEZUyoFs/3NHfZEylXpRhSis9qqnFlEwrytnzFUPZ17Q79nbkGpEovBE5Dwoi8YY1rxUdRZSyILUkworWijBFjHpV1Mt7XhANM5iLMlci+HaR67DtH7/DF9L9J+L+o3W/jKgLl8XCZr3U2i/+9tuR/QZpv2W7P0S851ijO2gZi3RHP3OR/jBqLtIfjyUggE4Ige9GFAEvceEJEECxC1FKRSi1jimJERVRotCqLV/8FXXBR/TfRT9RTNmLg2Tv4wAAAABJRU5ErkJggg=='
p15
sS'gmail'
p16
S'data:image/png;base64,R0lGODlhDwAPAJEDAABGdACJ46PQ7QAAACH5BAEAAAMALAAAAAAPAA8AAAI4nI+ZwKwHhJTgMdGCgxFPEGhV54UBZl6acLIRKLosu8JqlL6hWl9wnPqYREPRbzdoKJeVh/OpKAAAOw=='
p17
sS'related_to'
p18
(lp19
V\U0001f3a5 Movie Camera
p20
aV\U0001f4f9 Video Camera
p21
asS'name'
p22
Vcamera
p23
sS'known_as'
p24
(lp25
V\U0001f4f7 Digital Camera Emoji
p26
asS'default'
p27
Vemoji
p28
sS'bw'
p29
S'data:image/png;base64,iVBORw0KGgoAAAANSUhEUgAAAJAAAACQCAYAAADnRuK4AAAIxElEQVR42u2dL1AVXRiHCQYDwUAwEAwGg4FgIBgIBgLBYDAQDAQDgUAgMGMgEAwGA8FAMBgMBoPBQCAQCASCwWAgEAwEAoGwzrMz55v9lrN7d++e3fOevb/fzDsol7lczj77nvfPOWfnMknqoDkNgSSAJAEkCSBJAEmSAJIEkCSAJAEkSQJIEkCSAJIEkCQJIEkASQJIEkCSJIAkASQJIEkASQJIkgSQJIAkASQJIEkSQJIAkgSQJIBGpl+/fmUrKytB7cuXLwJoFnR7e5s9e/Ysm5ubC2r379/P/vz5I4DGrg8fPgSHx9na2poAGrPwEA8ePOgNIGzWprKZAuj58+e9woM9fPgwu7y8FEBjE56hfLFfvXrV+X3fv39/533fvHkjgMaki4uLbGFh4X8X+d69e9nv3787v/fNzc2d98Z+/vwpgMai9fX1Xr3Ep0+f7rz/48ePc7gEUOL69u3bnYsbyvsUSwOLi4t3fs/Ozo4ASlkEswS15Qu7ubkZ/HcdHBx4QT05ORFAqYppqnxR5+fne8mS8EJMW+Xft7y8nL8mgBLTjx8/cg9QvqBLS0vZu3fvejFaGr7UnuKlAEpI19fX2aNHj3qv+TQ1vF7ImEsA9aytrS0z8DjDOwmgBHR8fOyduizY4eGhAIotAlJ6WoDy9evXbH9/P3v79m0eMK+urnqzLitGx552ysuXL7ONjY28ig1UFB3Pz8+TDLZNAUTswkAeHR3lrQfgYKAZcILfvhuhFoy/kWyOv5mbYnd3N/v48WM+HowNVfWZBOjv37/Z6elpfrdx11Fkc17jyZMnpj2HRaNwSVz1+vXrvK7lIDs7OxsUsmAAUbb//v17/ocQxALHixcv8rtpFjyHReOmZMqkacwNSznh8+fP2dXVlT2AoF4XLQ0jRDA5henipGEkIAKoZ9dPIdKZ1bLAtBayqBkUoNQGms9LEE86TXBfN7CUDghS9/b28kX5KUMVcvF/UIBSyaSePn2ad8+7BJNcBMCz1DJJHiDrg0lGQikhtMg+UwJJAE1RnGP66bPSSxmDwieNU+sAhawTBQWIqcFiE3PITjjVYt+6IEsW8kYKClDVephYRo+s6WARDzG9uf6aW+ND0EzlnGmq6Z3Le1kbi6KZbWVYGjTK+5PgAQggYdVg06wKL0tVd1Ithb6eVYjMAkRKnAI89IvYhtw1FQeQuqouENHOsVa6MAuQbw3y0EZzsQoeAl2mtdA1HIAFlqrpzFJsSBNWANVML1W1HY506fNC8t5V6TG/27f5MIaRKQuglsersLWG14e4u5keffLtTxNAJTE9xBoYMqeqeGfIu58UvsoLsqxCANWIjCZW89MXg5BlxShuVm2bph4Vu4dGximASkZPyqeYGRD70izGiaF3hyQPUJX3YeVdzAvFVObLBmN7IdMAEYcMPSAsOi+rapvx0EZV21rB1TRAlPyHHhBS5JDeB/AIdt2a7i5LVOj+++Q7lGrIOpkAmlAUm+YOp4oOjPwNVKnZKYIBU5tTXQGwOA40V33TWCyAQp+eljRA7J3yLfRqG2MACY1U3xk/bQzQ3KFSrnRAM9bS4jvTAPnOIRw6+2r7GVi/Q2M0RK0IcN3RMe5ATzybT6TTAqgkGotDDobvHEJ2srYd0JAtDhc4u6JhVeGu7ecMZaFPTUsaIN+SCuKXNu/BlunQjVW0vb39n1fypfNkjzEAotQigGq2p8RO393RwcWamK9HF6voahogmpaxF4eHal24LT+c8Nom4HV1FgE0hRio2DWgUAAVWxFtMjsHEFNZHUDEIjEAYjuTAKrZ4x0quynHLZPApGbEVzxWuQ/nOy86Vk8s9CFXSQPkaxX4DhXv6t0AoG67DtuGHBBMEcDnTiShPGBpaYdpgKiBDDkYZDp9xRZ4MgClVED5v+5n3XZn5xVZg1SscPsUaw+daYDyN4zcGOSC97UYvcr7AA2v82+37roIl2+dkrVlJjMJENNKOb7g/30sX6WyTJZJ/aaYldG4ddMRgTMnsRWnO18vLOby1pBnAyUPEOZ7lECxygtMTHVdpzbexwXWfOVO5sQvd6A50OBZitlX1eq/WFXoJAAaYvH6pN4OMYibcpzLxjN1jTt8hUtgov/G78HbFL2PL96oejyUAIoUHBJ3+FYkusCXz8O04irlXVYDMvVMykKp7zDFYb703fdQlti1s5kGqKorz8V03qC4Zwuv4CBygW/TKaxqhWEVTBZXSoZ+svQoAGJK8D2Bp3i387ncFETg66ZaCoB4K4zGqvs+XwGPADnUyaYxVyImA5CryMbYD+9TsbDItOKWgNDJL3bieY2f5SLjaZjuMKYtji7mtS7PWGUatXDcsXmAYi0YZzqqqnGwcrH4c9RpnMcCFj5zk+Cfm2NaTSpGDmWhH8M5GoDqHqvEoJVbB3gDUnsXYBOI450o/JH2k91heDa+hyfi9WmmMt8zVcdwtMvoAKo7YKFcIS4vKgMaIKGuhJvHWCeNVwMgN921reRSUrB07J15gCycEUQnvMpVExB3iUXwJk1FXcjKqRzJAGThjCBXBa47swevMg1Ivo2MPsXalz9pF68Aarneue4BuwBGXYg+V5MCI4F2E4CIlax5nj5O5hg9QO6ua1q+Z8ohKyOVd4dssl2b71HBbXJgJ7Wnods5AmiAFJ8WQ9WUFmoxnbXzEEOWIQYDyG1nsfoQFbxLSJCYIkn1rXqdJnv1TQEUa7dB29YHHsm3VqepSPEBJ4WT6fs6mWNmASof0AAIpOfESkxF5ViH71H/oaXBWp6ue+gF0IgAmiUTQLJO5rYcmQaIAp0ulk0LfTJHLwDFOKVMJoBkkfbRCSBZtIMVegGIIp1bDiGzZSGW5fYOkDRbEkCSAJIEkCSAJAEkSQJIEkCSAJIEkCQJIEkASQJIEkCSJIAkASQJIEkASZIAkgSQJIAkASQJIEkSQJIAkgSQJIAkSQBJAkgSQJIAkiQBJAkgSQBJAkiSBJAkgCQBJCWvf0Sn/sF8WqR9AAAAAElFTkSuQmCC'
p30
sS'version'
p31
VV6.0\u02b2\u02b7
p32
sS'uni'
p33
V\U0001f4f7
p34
sS'desc'
p35
V\U0001f4f7 A \u201cpoint and shoot\u201d camera, used to take photos before the popularity of smartphones. 
p36
sS'browser'
p37
V\U0001f4f7
p38
sS'annotations'
p39
(lp40
Vcamera
p41
aVentertainment
p42
aVobject
p43
aVvideo
p44
asS'wind'
p45
S'data:image/png;base64,iVBORw0KGgoAAAANSUhEUgAAAEgAAABICAYAAABV7bNHAAAAAXNSR0IArs4c6QAAAARnQU1BAACxjwv8YQUAAAPYSURBVHhe7ZpPSNRBFMdnRjtFqEtlUTc7BR36C9FBD1FBBpsSVAcDK+rgsTCQLUqFpCKiQ4HhoZMg6h6KTDrYoUsEUYduS5ei1mJViC7iTO/9fm/ll677Z34/57fK+8Aw783+dvfn1zfvzcxvBcMwDMMwDMMwDMMwDMMwDMMwDLMekNQ7ZXRHYmfNvDgjpDlBQ8UxcmJhgxhp/577RiPOcC4QiqPmzbiU8gANlUtGS32x7efsW/KdoKh3hqU4SJPSagwFJt8JTgUa39pwyVIcHykS3tR0iOsIukK9NUaY82Q6wZlA6c11e0NFD4GfgZ9F7qoTOkmnG+tPGqMuSCn2gdvkj8aMETmokB+iqH6hBEo3Ju5Bd833qpZQ1c9aoPTWxE14921yq53MQq1osYkkqxzk5YDC4mSMgdCuPppsq59dklY1p8jywTkvzLlkNrfr9PTMQQjplmoTyghxmMyKsBNImiNk+UgxlMzODJMncL5D0n5AblUgpakjsyIiKvN6ioxFgoKtZaIRyKj9ZC2C5Z/MUmSg3QeRW/9rRtyi12LFqoqlGxtew1uPkevlIK10W76UlrUh9fKW6EtO5x76A4XxtidCDsCdJmjIEjMJUX2cnLKJJoLg5pVRUygcNqgYn0qJg4KWEgeBpP9M6IWjcSX9aCKoEpZEG9Lb24vnQjgl90DbCO0ztJFUKjUBvYe3tFA1b+wjKc4IqoxHS8S5C90wRFwXtGaMPGid0F7Ba4/9qyDp/577CBvVbnKd4VYgiB7YGw2R54kDQnRDK1iCYbwrKJI33RwnbqcCGSlG88v9/v7+3dBdRbsYJFLwaHaceic4jiDzniyhte5YKXIKEFgyLF9zrSZOBYLV7A8ykS3UlwMm71iII0nb8Id657jNQUZuJxP5RX05fKUekJvIcILbCJLyEFlCKfUcFn9z5K4IXgPXPiEXkMu2NauJ2xxkRHv+sU1PT88X6GAPVpKndK2PEZ1kOcFxBHmPbRb/QFgp90GEpApFEo5BG4BrbtBQ/hQz5J6sMtxvNTx0azI7+5Icb02EZR/MfGX7i9MqGDlj2+qb8cGh661GPALhTl7qjqBIxQgvDrJ29mLeVIOvfoFTptijZHwNr8GTgnDi2BPTFAsA0YRbEFxl5xeS3nIAKh4m9eiEcRlBRr4jKzwgAPyXLsO2YxCjChvaOBZp1Fjes5VAWmmnP0GJAtt7thKIznPKWcNUBUaIweAZVCVYJ+lkNncdv5jcqsUYMaJrxR1yK8YqSQeBhH0WkmqblG5/t1MaM4ni0CEbwzAMwzAMwzAMw6wXhPgHCSF23X0r7qMAAAAASUVORK5CYII='
p46
sS'andr'
p47
S'data:image/png;base64,iVBORw0KGgoAAAANSUhEUgAAAEgAAABECAMAAAAV8YMOAAAABGdBTUEAALGPC/xhBQAAAAFzUkdCAK7OHOkAAAMAUExURUxpcUZTVy8vLy8vLy8vLy8vLy8vLzAxMS8vLzA0NS8vLy8vLy8vLy8vLy8vLzAyMi8vL1p0enagqi8vL3ehqy8vL2KAhy8vLy8vLy8vLy8vLy8vLzAxMS8vL3CXny8vL26UnHGYoS8vLmyQmC8vLy8vLy8uLmyQmGyRmS8vL2yRmS8vL22Smy8vLy8vLy8vLy8vLy8vL26UnXSdpnCXoHKapGmMlGOCiS8vL1x2fD5GSERQU2eIkC8vL3KZonCWn3Kao3WfqHagqnafqVZtcj5HSS8vL3ijrUDA5////y4uLnmkri0tLXmlry8uLgBsonikrjAxMXeirABroSwsLHahqjQ3N0HB6DIyMztDRHCXoDM0NWiKklRqbkxeYkNPUm2Sm/39/Tg9Pv7//0tbX2F/hniirDlAQTY7PHWeqGyQmD1FR2qNlUZTVmeHjz9JSz/A52+Vnllyd3SdpmB9g1JnbHafqUJCQ3airE9hZnOapBKEtiWax4OrtFt1ez5HSTy85GOCifX392SEi6GiouLi4tLS0vn+/zw9PfL7/V56gXGZokvE6VBQUARyp9Hv+Pr6+wp5rB2SwUhISBB8rxCCtAZ3q76+vlNTU9nZ2uzs7IqKilFlaTay2115fzGt2Iqutyql0Vx2fUFLTj+/5uz5/fLy8uXl5YzY8GFhYXByc9z1/EZGR37N57jP1MLW2n2nsCafzC+q1RqOvjg4OEhXW5CQkHp7e8Pn9Ovy9Zfc8YODg9zc3OT3/Lro9gRzqQVvpa3j9Nvn6VZtcqjFyzm643fS7jY6O06t0s/g5kTC6Li4uExMTKusrVq931rJ663d7pOUlOj3/KPf8YCAgFpbW2jA34jR6Qp1qDqQukKt1Ju7wpG0vNPh5D/B6JW3v3bG4svu+ReLu7HIzvHx8cvZ3MTExEajyiaOuzWlzmNjY1teXysrK4q71DagyrXg7ySDsp/I3LrX5eLr7WLL66Th9JmZmWtra57R5WpqarCwsFeewZXC2MvKydTy+1BdYMPbiP8AAABGdFJOUwAHf+MUC/wDlwEt9SZP3xxaDvmS7tgezqpEssRpoic1rr2KgdNf6UV2bJFzZzxT8cC71ZqI5S4W7FKSprTJ1dZXr+LSziBUyBJyAAAICUlEQVRYw+2YZ1QbVxbHTZVNMWAMMeDeE7c4ySbZmt3NnjfMm5GQhCSEJCQhECogFBDFdJveDKJ3U21jwB3bcSMuibsdO+7ehPRenGR7PftmRgJBBLF282H3nL1f4Ize+73/u/e+N/fOjBn/t/82c/NxdfshMCuCfx4SvGDpmhVBHl4+rk6PNMeVMjeW7TOPBZ6AwwEAuLt7bnBZvnGef9Cs6SlOi5yDH0P25Dx/5/nr13m5uiGi24rlgANEIqmYB0kSQoo423s60iwPfxc0iEMvDtw9n3cJQMQ1SA4UZegTCradbZcbeiPPS8XTk1wfDwAAis+rVFq0OKBWp4lITp5aSBAEm82O02VKlLLySIhIU3EWBaOVpYZyvVKpl6l7zmYYeuNVUh7iiDKSCMxqXIItZCfSJLuaWOsDAOT1pujYbHptguBiJoletiU3KnWLcJyDcbECwxaCIrk4+wYt8nKdxPFdCaA2qsJmBjKaiP7YPjIla0lVAdJEUn5cGRCy1MM2wkEuAOYVcNn0xMnGp8zCUcaKIYDxMnZiHkARhBD5ff54XvmEAI4xIbMnQx6VwJ+M2ff22105OfuITXxMuMVIux+RuMqeKLkhTyWFYMPjVk0sZ3eokfEzeCQJVInsiZycvfnm/KNn3vpwTxem10AaBEijhM3GhDpTUkovAC7rLCCvACDu4WZGUqPI5Akgftdb0bjFLubo5AyHI07VWXzPVio4YAGzuVlrAFSYiMx4ksqZbRNAb56JjrGCovfsU+ZRi3FEZ3Vc6wh24nmOiwdzvDYCXg+B8XO1PJ7oUBIX42amWYfl/PbVPXsvnvnd0fzoaNz8Plst4qA8TxZyx+OI9uu+gtnZbKhRomgJ9Wp1golL8AvkEmvw+Js2oYjty+l6kyLuzRG2ozQptwkI2hrS6Ewnp7cnNAhpOAo/G1OmiuIlxOQM2ISI1BCJUZVig8ESeymnzaTjNh/A9jjmB6EksT0SkN8B2WS2LJE7lq86faoWjoOcASeZ+ZFQx0sBlXBTg6hDYjG1XKEFzLmmQSx/MBaqKMjk23Qgq8XFCkgGYwXNBEBtBTGJm/doIEt2TgOKlJl0Qsz+yZseVM5l5jAgIFbFK2JTk1MKEiS6NIpIcB8RpMlQK9NQ+C0ggI614AtQ+vlAVGpueTkCJpn4cVR62BDtgiAUaxQZybkK6y8kHBq4Wlz0flxmZlJCSrsi0miQR20rkCkzhdQlSV989kCUCHL8OSTrbrSY8aOvsjEuNY2flGsE6CTyRBojtWe1TC8xxU0BsjFSdKQFN7d+2FWRRjC+I4iKKC11XKlXAuDxpMiJhzTge0AwvbDlctvA5wpjryFjm5K5sdmmWNsxFJHzfaC6tltXpIIvBAIBKYBiVWyBjsCIJLkUTG12QUO300mBQFo61NycXioWkFB0SCZkzqYjIHF6Ok8g3nrrr8U7W1uLiq8eqUMR1MhV0FGQaBiC5sKisfvVfOJGHYSQAxwE8Xhw+HgRbmsxxQPi6fXYBcHhwnw0u+TkuyMjI9Vv0Bf2B4el0FEQ4pgR5uV3rl0KDQ2t/H1/dQki5R8WO+oj3mHEGXwnu3sz4oSOjo5WHtuOSDuOOAgid7XiePWFhu5Q2jr212Z3nDuJSCe2ko6A4PBlpOdC434a07e/Jiw8rHH/OaQpppDnCIj8bAdedqfmPXpfEQdeCQ8LCwuvOnAM+WnntJK+s7VCHD99sOpABC3oIMVBpPcq30Wv2eMOgGBpMV52raqBFhS6OcsCqn+tH0m6zHt0ENm8E6/ODq8NnQx6Hfm7uHTqwEl/6jQBJNi1A7+ZFZ4dwZBqLaCDfdTeiq5MvTf5z2jQ0jHQZ/n43ZowCyiio552dk3H6KXT03rbIFlM1zXzeTaKdjeG11oUhXZmVZ2qajiA/vsDUjQlyJBEMKAfyy0HQHC7lQJlvfaShbS5s7uT8nzfTRxvSbfvI44iiZizli5rAp/KNaKCGtWWQyfwYw3h9/tft5IiIih1ox3Xcfwj+zckx6gnsF89x1Rsy/gVBcmp8l6euAkfqT31DT5SaSUxwj6txvE/2hUE8xII7MVnLTVk4BLq9cxOUAmOR598UPV3vKTfFhTRfaEM37FLYI8TmUhgv141Vh4/u3hOXByWdkhQ1xJzt+H+UfzkuXFSRGfWn3G8aRja5XCxub+06SX8Vq1+YvGS37jDNvPgg3tfmvHt/ZdeolkRfd01H2/HP/gTybyEbG9dqFUT2Ny1rElNFovlEwJLm2JOZ9d8WYa/ca2vErl6c+fBU5+8jA4/FViOSGGMVInEkDFSi4rAOavt9ZO+nmRzS8mx7Ht/+/ab+w8ffppdm1UV9sn1mJimdKp0lianpVXoE1NyUc1v1Gg1FOcZu32p20wAd7WUnH5Qf+9U/bcXvw4LD2/8+CHi1FEbk6amEXQpgGr+NFNFgh5xnvCz37T5bATw9kfmf+7+Kqux/uuqVxq+ujuI518dojgrf7Ls6SVP/Wju3DlCPlVboIJkSg7qg58EZPqNorLBm7vvXLuz+/ogbi4+QgdsuTdrBsvvucCFq9Yue+bpJS8g4i9W+03d2HrNc4e8rYf/0WouKyuLNu9supVO9VLu8zwm9Hd+gQsXLgycttd2dXYBJFnaPNDW1nb8L1dEAkrObGdXx78WsBbNRG0gKSCRCajqy/MxZw/Wv/XhwcljTXDA8+5Ur7lhdoi/t89/8BHDyWedt6+v7/ogL7dZ/6vfc/4FVB2kudMMwR4AAAAASUVORK5CYII='
p48
sb.