ccopy_reg
_reconstructor
p0
(cemoji
Emoji
p1
c__builtin__
object
p2
Ntp3
Rp4
(dp5
S'emojipedia_url'
p6
Vhttp://emojipedia.org/satellite-antenna/
p7
sS'index'
p8
V788
p9
sS'code'
p10
VU+1F4E1
p11
sS'apple'
p12
S'data:image/png;base64,iVBORw0KGgoAAAANSUhEUgAAAEAAAABACAMAAACdt4HsAAAC/VBMVEUAAACmpiCkpCA1NTWlpSClpSSmpiCpqSmlpSAvLy+pqR6lpSClpSClpSATExMnJycmJialpSKnpyIUFBQ4ODikpCClpSCkpCGlpSClpSCnpx+hoSMICAgaGhpBQUFGRkYMDAympiCioiGkpCAYGBgKCgoGBgY/Pz8KCgpHR0cEBAQZGRkNDQ0PDw9FRUUcHBylpSClpSClpSCkpCCpqSCkpCC8vCQNDQ0sLCwwMDAICAhOTk4HBwdERETHxyU+Pj4SEhICAgIPDw80NDlQUE8KCgoiIiIWFhYxMTExMTE5OTkHBwcNDQ0rKysgICBBQUFDQ0M8PDxtbW05OT08PD48PD9TU1WkpCCuriGvryKvryFvb265uSKuriHGxiSoqDt5eFKQjzSVlXCAgIomJiY7Oztra2teXl5sbGypqSGuriK5uSJ6eoOSkiJkZGV7e0V+fi5oaDDCwSONjSNjY0h0dEq9uyCHh3F/fzq8uyqVlY9SUlJ7e3tbW1ubm5tPT09eXl6hoaHc3NySkpI7OzuYmJhvb2+lpaVoaGgoKCiDg4Pn5+cjIyPQ0NCFhYWnp6dgYGBjY2N5eXlqamrIyMiMjIwbGxs3NzdycnKJiYnT09N0dHSPj48fHx89PT0/Pz9YWFiIiIiBgYGwsLBtbW1ISEhMTEypqamWlpZmZmaLi4vl5eViYmJXV1agoKCdnZ3Ozs6tra0sLCyjo6Orq6u3t7d2dna+vr61tbXV1dXDw8O8vLwlJSV9fX3FxcVBQUHMzMze3t7X19dUVFX////KysqUlJR4eHiVlZXZ2dnAwMCKioqoqKjHx8fi4uIVFRUyMjKXl5dERESRkZFKSkrCwsLg4OA0NDRubm6Ojo4vLy/t7e25ubm6urp+fn7j4+NDQ0O4uLicnJx/f3/p6emvr6+qqqpGRkazs7P6+vq7u7u0tLSlpSHr6+v09PSAgICysrLS0tJFRUUSEhIGBgYODg4KCgrv7++3tyRVVWSGhnt+fmqysr90dF2Li5YgDu5FAAAAe3RSTlMAcxJGJw6IBBcQCmS/2DEGTx2hI8Uzr3zJ6S09ZCl1bchKUpb5WHwEo8p05vWW5HpX80Optfn91Ycc+N9Co/lRi2+3bPLjsvG10/isU+/NM/U9w5ArfsWNztfg8uz75ePmi+b9wuXirfTp7cP0eMlVz8jXc/Cvwuam2vdToictAAAJo0lEQVR4Xu2WVZhV1xXHBxgGRoGBwQaSYlEsQCDWuFuTNO5Sd7er7u7u7u4y7u7uPrgkqX7d5xKSuXAfSh/61PWd1/U7//Vfa+29c/53sa78re077j0Nojgv978AbFq1tWh7MSBAcc+2dVkBG+7fvTl/Q1ZA7qq8fcdPbN23r3R7mlG0/kZAyaFTz+x/5u67nz5ScvsN/z9auCqvsKwAKiV32w5A2L76esCug+1CBT1OGero73/uvt0ZgIKyY3uPflP4+lJA2HpdFSUPtCtAskg5j6qGGS8+/+zGFTLW55aVr00rKcstgBB5gLAqE3DHJQWlQ6TqQiHIYpmYjECltmz8ugFr16fzykuLP/jgnTxI/NbTp3dk2JD/VDt9CK/qMqrJ8Ga5QDIttsMmAOIaAcrfW1T87vsnT375Ti7QtOM6CSXtQko/PjWPQgxQzS6nC9nNDHJgqmdLviIAys59pSf+8OcPH374y7fXpovYvhKwUaig9CtVACCWEHwkU4vPhaOK0T3P35d/TcXRbXmln/7l048AAZRfdu/pe1YCDijokIKLKLRMgPSx/H6/yUewwi3VE8+t+crIvYXb/vgPd+izjx4++fa6nLXFp09nNDHupYggADsomMKQTIDQ4kPKqWK2EX/fhjSg/Ngn/6qtqkV+/OHJnwAfizIBd1HwQAFoApsrQDpJLNNcC8nnQuI0CZ5jYstmAFibu/OTzwJNAevvfvP+j0EDtt6TAXg0bhzqwCu7jADQ6cL4SCQMxjWFJHR2M2Vs1PdBGetWb/qTXUKw/vVXP323qCCn4MSODA8OKRCqITx+wmjnWhuQLifGCWUTkC4kQa7VO7qeyMlZ/fu///PJauOvS08UAxM3FRUXZ8yREI0ewisngIJmXCfS5UKacThcA8HldDoJ1nq78Y3XfzH2t4/3/vbnq/KOHwcV7CnavnUl4HGhQysSKVNGdFAjx5kJZpxcPijHdQJDW1iYBqre8V5393vl68v2FG7L2wkK2na8qHAl4FuKHqS6Q5nqQcuoVjkO1y2wSiSCbjMAzHk8fud0cwvpZ78ES1G+Zw80wuV5+0o3ZQK6CAIwCAaEWKsRyOUCDZWpscobkBiSXxde6EbGYuY3gZMF0FADBwpXvXU0JwNA79KEYKLUPIKYoGqaJUztOS1TAgFYnrBHTqpg+Lnq7369ncf2FhYWXAcw1LcOdqgMaj33HJXJ1I4lpqnN8jokpkWHsXoilUtyHNfxBABADc0tO7YHzFImoCcYcBvx8w6yDD6tPQfncseoaQVzZk0YO57s1OnqxLBHrm33zrU5mfE4vYc714frv1htEQfhcHh9sB5O1cgbXBiJJNZHcxNm+SG/nHf49auE1TccqnfQe+AtUixMCeMMiIPBoEwWhAMFnYSEIDp+RurCVNQmYywme0t6ObOcyYfoBrif/wVJhEKTiWIoZHCtBicQd/Ntw42+umRtLb/pPEEGA0ZmjdsUEKDvC14X2sIbIA4MEAFAkCDjWm1fYP2S0Whvb2hU56Jy5jdmB+xSdHHn+NKzFQaHnczj8fQAwCSyu6Ntw5ULVNPk8sKsx89y4hLsw/dnBTwkTMla+NLKmk4DmmMhk3kDQTgaIQ9hadjwuTqTDxxyUy4fi4XUsr+dFbB7v1JMSl6QDp/VwwDBQiYSUQ5JONIWWZ6G4wabJc2DdS5TOBbAjDnWZAPk3y3iOXvd0khNo9rBZnN4nBRM66+tcuvGLHBuPTdBFXSyJpPu2hEC8c6st9/jHXZCrJbBaKwZQSHQFpjIWI8JuZP+MQSwBBiiaSBNtl6oivBnJehbswEe9SLkYb7b3dpXU4dCT3jn9Thd0wgGXq22c8gDQWoda4QvbcRipU2Y4IP5WQAvxlFUT5Rfm2waPium0FVsLUbn75ShgBw7WQx8HOVfqMJWVmIrwoP2W7IANscv1vuWkq3RWHSxT+mtFg86p6wDPQY1qIeoNftjfEakEQJEoj5uVgkv43mdC03R0OhIRY17wsEVNMMt8yqYA8EhagmeEMiHBPT1YRlhuT2bC0c6EBrTaGwkMDIaqQnB9EE9QiUywtR2IhU5G+K7pZCAvra2vqqoL5itEbspqPopXSC8HIiFoFZUo/Dei6hqNpE5pYu1VkAFYPv62sbHKxlhK+LGWXh1C0VlsZJmdbrw5NJoY82okhLH98DQIN+zFL0mAOTb2qqiLuIN43irGq0cgtWbSSaPbiE8GQBVeCnzRnBXI+fCoWStW1qFBQCQb7NVVni0T15n4y0IOJM8pGSfMzt9Jv+sbuG8u0ZarVLrtXW+2UAsDbiaT6PRxiNLOPYjGYA11dyp8y4YxWBJyAlOH6llzm9qWpzhormDSNJsOAaVkAbYbLQZGg2bdGbWkH+Y1xCtZMhFQwZ2kNlNgK42jFM3vGgak0/5/OGlXn5FGgAJmJmZaavwJx5c2YcnYGPLtrNnmogU74Ran9AMdteZweU0Falh1OEwJt1IU2vFhasAkH/mjE0alqhfXwHYgpZXnF08WzmHoFOUKDsRHGaSZqvA2nx+cdhD8HnCwASojRAA5J+hVcVw6JUmvGIxS8/WLM4wkEYFvb+r2q4XcxNj09PT3MHIIoPEOj/aC5lwDTBMa2wyc1buQ8rS3Wsbps2MJ5u7hEKvaB6G4PD00Nk6QMTQhqOe5bQEbGXb1RJojaGGDICKo2E1MbA2W2NgLCVsV3hFKgPKgUCz7RwLmqgDYOBC2sZx2wwIW2RyMONQwCPGkLoooxHbWNsiSwmvtCviQ9CLy2BEwWAwlN6PxfIhHyOQjyAakyQ46jsrACKYeNAX7q11u/kBgj6l+PzylXYhPe7t6BDhlaqUEo8g8BnJJjANDGkkInU3+a2cO1c+yF+a5yRwPt1kLLS0gGFyVPQrly9/fvBSuzD9+qZ4vRRKSowJBBbAkI8Elv1TTPIrr64cpKfxMN45MDItJhaGoBGrlfFLlx946MU7Tj1w5dKl9nYAEgJnlBYqrgEHXg6JAcThzG3cODSh5sGZAuhhwoTrEQZRvP0FAN6w+8BtL5x66uDn6bh8+QpdCU449ZN33nLdKt3+PdG82kKsB7dyUMxjVxvw3v0l3wz65pKHDux67K7HboO+XQfWZLmadr+U7r3FYuGg1bCeCRHlSM7NxUZKB3iqG3p6DPNdKnwH/VDOzcaaU8Bxejwep9MVwoNHbjr/1td+IINTmZJm8Lyarv/Raz/MvznAGxa43MWaXQ6MjobPe3ydTPGbN0V4tL8H5kCD/RHLZGK9ha2uRqle3vyfAv4f/wYBk6b+DFWZtgAAAABJRU5ErkJggg=='
p13
sS'twit'
p14
S'data:image/png;base64,iVBORw0KGgoAAAANSUhEUgAAAEgAAABICAMAAABiM0N1AAABRFBMVEUAAAD/rDPM1t3/rDNmdX//rDNmdX//rDP/rDNmdX//rDP/rDNmdX//rDNmdX9mdX/M1t1mdX//rDP/rDNmdX//rDNmdX/M1t3M1t3M1t1mdX/M1t3M1t3/rDP/rDPM1t1mdX/M1t3M1t3/rDNmdX+ZqrXM1t2ZqrXM1t3/rDNmdX+ZqrVmdX/M1t3M1t2ntL2ZqrWqtr6IlZ6ZqrWAkJqZqrXDzdSqtr6Zpq6DkZqZqrWZqrXM1t2ZqrV3hY9vfojM1t1mdX+ZqrWZpq6/ytGfrLSsuMCmsrqMmaJse4WMnaiAjZecrbi5xMvG0NdpeIJ5iZP/rDO8yNGzvsZ5h5HCztajsr2Dk52su8STo66Wp7KAkJqGlqFzgo2JmaRzgYuGk5zJ09uTn6imtb+fsLqzwMm5xs52hpBwf4mpuMLG0dhsfIa5w++MAAAAQHRSTlMAEIC/QJ/vz0AggDCA77+fIBBgIM9Q30CfMGCPcK9wvzDvEN9wMM8QYI+PYFDfr6/vMDBQgICv79/fr99QQGBgR+Bl7gAAAylJREFUeF7F11db2zAUgGHFcZw9CSGBhFCgFFro3vPI2Yu5R+ce//++sWMryJaOcXLR7we8j3QkOUD+R/GYUS4+rTO7Z5UMRaaCgnvjgtNQob2rVQITQ4FKODjMllamn5W9tByZtpmQpzSfTg1Lry4RvEgSldQCtdPSqhOIDQe0kbNmHAgbUFI8p7eUqzDPL8I+rsgVaUV0dg80ShFqcXyJZsbShttZfk7dFTbHE04yKTlrSuacDJRP6VFRqSiTFmOhsH3y7M2EnE4GqDhtVXTy5poqoiUVgcpKZblvwOi8AoZqQIvOBckhqqncUwmzLRlmkIcUBglLuKW4fZI8tAVwiEnpLJlTikpmtDtzSfbd4q5SCQDaFCtfBKMF9kVJGqQBcZ+mMgA0UKgBo16zWx4RQXcBoI45HbDaIkbGXYxZe+Te2xoAPqQe2LHPboiQnGvYYNS4PhQzz908tbAb2kagFtsagyrmRTDfHWsOzNreDpTZCzaHHA8QAVT3dp5ZzyUQYW9MAEEbdZoHrR5NEawSYEtqcRu/jUpg9QVzrOavA213PB2qLSFQ1ZaacoeVR6AFsPuEOp5jWgfx5pjDp0qhDLAOvB1aINLWgPVF7rASUqgM43qeDtWiMmgZxm1/NJ0adtvTRFYRxg3MgeMPOYqNmx84c6ZYErSMESEOuqQbTqld60kQ/OAU4CU0/C75k+Rvt3TDj4S/OK5mB2Hwj0CRlwa4hEA3j3ipfjjZkG7e7zuk7TYCqXJH1799Br5Wxzd065U+7NgpDQ79Qi91s+MjcFTzN6NHulXfJdWFT0WTbOy+zqR9cNb8eO33/0S/0ndw1XJSWhZZEOvrZzfV/MQ5kgnd0fn6P8BdvcGG9eIhcmR8X49A1KBZq9UOni4TSbqg0z8grjpHZL3Rhf3eFzB3GYOPiK9/us/NvVrOEKzHXV3e8T1FUaoLirJeIl4l6PtLCXN+8jdBrt0qpXRn98O5Uzk7+en8Gw0vSkf92r340O0OvbNu9/Li/Y7oJwzvNvqV91E2L3XyWeJLSsv/5fOZmhIwKZVMUDTBbzCfiJKJU98lRm2q5L/0D2KFqb3bek8RAAAAAElFTkSuQmCC'
p15
sS'gmail'
p16
S'data:image/png;base64,R0lGODlhDgAPALMPABAbISFujhCc9iBLXkRLRp7392T7/zvb/B6BuA5AZ1Rzc36Bcr+8mUeitTm22gAAACH5BAEAAA8ALAAAAAAOAA8AAARk8MkHwLwXhFDxTULISQkGhMKBUIGJpIczdNcQpE4wDF7QBAcOQmWZABMIRONgMBAuAYdggDAUroziY4BKKK4FA4+yAAkQA4XjcBgvGOWEvLKTABj4BUE7ARDgCwsKfHZ+FTQYEQA7'
p17
sS'related_to'
p18
(lp19
V\U0001f4fa Television
p20
aV\U0001f4e2 Public Address Loudspeaker
p21
asS'name'
p22
Vsatellite antenna
p23
sS'known_as'
p24
(lp25
sS'default'
p26
Vemoji
p27
sS'bw'
p28
S'data:image/png;base64,iVBORw0KGgoAAAANSUhEUgAAAJAAAACQCAYAAADnRuK4AAAMYElEQVR42u2dL7QNXRiHbxAEQRAEQRAEQRAEQRAEQRAEQRAEQRAEawmCIAiCIAiCcIMgCIIgCIIgCIIgCIIgCMJYz/HN+l7v3TOz58ye2Xuf8/utNevzce8595555v2/995pJGmCdvQRSAJIEkCSAJIEkCQJIEkASQJIEkCSJIAkASQJIEkASZIAkgTQX33+/Ll59uxZc+fOnebatWvN1atXVxf//+TJk+b169fN9+/fdYcF0P/6/ft38/Tp0+bs2bPNvn37mp2dncHrxIkTze3bt5u3b9/qbm8zQO/evWtOnz4dBU3XdeTIkebWrVvNly9fdOe3CaAXL140Bw4cmASPvy5evNi8efNGBGw6QMQ5fe4Kq0IM9Pjx41XcAxQvX75cxUHEQ+fPn199TZ+L43t//folGjYNoD54Dh8+vLJMxEUx+vjxY/Pw4cPm5MmTnSA+evQo+vWkwgEi6N2/f3/wZl+5cmVShvXhw4fm5s2bzcGDB/e89vHjx5vnz5+LjJoB+vHjR3Ps2LEgPBcuXEhmJX7+/LmySkePHt3zPmR6nz59EiE1AnT9+vUgPFgMbvpc5QHcon0/3CeWSvWkigAiXe+Ke+7evTt7nYk4yIMEuLu7u8nfj8CdhwULiOukEPrq1SsBNEW4jq6M6evXr4u5UDI7DzKp/7dv35K8B7WoU6dOBX/PM2fOVOM+iwKIFLwLHqzC0iLY9lnboUOHVmWCKcKa8Tr2NS9fvvyP5cPqvX//XgCNEQFyF0BUoXMIt4br9Bkh7ZGxtSO+npjKvg7uq7U2/Dvv1Vo+ICrdEhUDEK6hr9qMa8sprJFvpZApUl+KESBQtPRFzFBbhSKozToFUIRIp/taD8QFuYU1un///j+xEdAPBdgURK3LamtZxFpdwsK1X1uyKysGoFBAaW8Upr6kWI2sybu0UH2K8oD/ve7duxcFa1vopAEsgAbcl894CF5tgY9/n6MGNCVTIyuzP/O5c+f2WBVb0yKOGlPlbl0mryuAehR6SqnH+IJiiaYcy2PhB3wb17SWFXjG1Hhwi+3r5o7/igfoxo0bewAiOLXBZKzpzyGmAGwCwJ/5O9RaUWKeMQG77dMxLSCARsQ/1EOIAchcvIsoVfystn+H9SB4bgHivzEtEdy5HT+5dOlS0RMCRQDk4x8+tFb2pvBklzy3w833D4N3b30QEePZ7+d378vUBFDzdzg+FP+E0lkuZoBKFtbCB9c+OQhBxIPB8JsFj75g6coOEIGl/5Db+KGNB+xTTMOxdPmaFjGetSwUEH1fzycMPDg1KDtABIgeIKxSKJ1t3VhJ6byXB6EN/HFFFiLinDZb42t826aWEdvsANH78QB5QKj+2n/nCS9N3HBit76aj4eI6rRvj5B9+QdIAI14YnFXoaKdTZOJI0rKTHzwTBbZVbPCBfe1bKZ2+rcOIP+BYtpDopxvv26OAa91RIxm027g7ppbstYWC0WBkIugmwepxlns4gDq6nlxU2wwnWu8w4obbpukwNA1cEa13ZcrcM21KztATP7FABSCLefCQN/CwIJ0Bb5klV1juhQbBdDEGxHjwhBZix3syjHiQYBvg+WhFguW004aYnVsnYjYrubVH9kBevDgwZ6nsk8+FlryCfZZFBlTX4OUr7cjsVgpRAJgsy+sbq3r9bMDBABDabwVVVzbaGQuZ4m6EFbCzgBhVfoqxbgzCwlVZps5EivZNg2glVzfKhag0CD9kEn3hbe5l/sQw3hohywGQ/IWjlBPi9/TBuF07GtbWp0dIN9x962MrqfbPr3ERXO5ACrlPvsb6qrbwXncU99yJJZwl14kLRognji/4iHmQ/Q9NFxEanlL15dpWeBspTkmQLbvw2dBbUkAjZAfgYidAbZuImVADdS+vBBTswHq9mHAao3ZFc1mdrGzQwLoP/l2RuwIJ67BtjiIU6auXiW4tcEvIFAEHBKtC/uzME05NsOzQXoNUwfFAET/xwLEjYgNJv089ZQKtZ8q5OeI6U0BrW1nrLuKAtc1BcKtBSi0KmPMAL13ZdSWxor3s6tAmNmJ6YqTelvopmZSti5WQ5GxmHVhflMFtqeLFfGCn0ceM81HY9YG8kOjpzZWssux+R2mzvHwmlTYS1mRWw1Afi5obJvCu8HYAqNdi95mc7EFPdubA+BUgS8W2daHSu7SFwNQqB40disVDyGZVF8tybs+gIi1ILalQvAeu0Y+VnZJE69falZW1O4cPp1fZx2Yn/ALpd9YGD/APiZgZejfxilzLHjEldk+WqlZWVEA+floPsCxIvC1bQfgsA1PMiZ7YwBgzEoPn67POdjmFxSUuEqjKIAw074qvc7MD0D4sgA3nhtiRyuIM8ZYD9+7WmIgzBY013mgtgog5DdgYnYmRVAOOL4hOmZ4Hctl03xu7BKNTwqMFlq7Zk4AdbigoWU+sfKDXxbKMek2N9FuDrX0cmMbc1GwLKljX+Q2vxTj/GZM68jP5LSWZ+wNsHWZrtGMOcXPayvdJW0yUSRAjGb4yvS6FVm/WcHYpqtN13GDS+0U62VbNri0UhYeFnvUAZXoFFYIUaOxcQSBekxGY9sKsd8zpxWyMVgpsVCxAIX6Y1NuoD97Y2gbXXvQiy8F5JKNhYCphFio6NN6fCZFIDtFdl6nDyJKB/brSumK47asJS1hp5KiAeID8wehTL2ZfjcxILK1JuKvFKMZS9SFSmi0Fn/gXKgoOHX+GYisheHPgOlrPSlPBkoliqEpkoutAQj5HexTbL7tIWqtUcrRjLlkWzFzr0jZCICou3hXts7QWCiwDh06l3I0Yw7ZIfzc7Y1qTm32rizVFnC+Pza0PUsJ8tX6nKtaqzo33q+UsLt8TRGxjz8hEfdW8l49NtBPYY23AiBiEn/EAK2KFIEudafQgbylbsFi55lybn9cFUCIrMPHLX2Th2NjLW6Gh4hhrtLWrdsaWc7tj6sDCIWORhgzhN8nrFnozFYsX0krJPxnkGtfxSoBQn6bl9SxAMurfSuFJz1mkeES8ku7c7VaqgXIL39pr5Q3mFqRP+errUPlTvP9ria5ztOoFqA2ZgkFvil7V4ASOooTsLhpuSrVHqBcBcWqAepKwefYJsVvxWetUY74g7ViAighRL5S3QbWKS0ERcfQ+1Az4gYumQn5eSkBNFF+aGyueKU9Uz5kjSjuYRmWcGvedecaOdkYgFDXLvDc2NTThLRWQsBysUByzi2I/a5mOU9z3BiA/OmGoQN8SfNTWgcsm18A4Pc5Ir1O+Z5+xerY7XAEUIf7CnXVu4Le1M3H0JnyfoUtQf3UanZXkZPjpHKpeoCISUJZGDUiLE5oh3ieWOaLUwe99ojL0MX74mZxf2PfG+j9FjitZc15uk/VAIXWffkufVfm1DZiU8dGWBnA9UuJQjDRd2O2B6BCy4V4LVwgFsaO4fqNP3OqaoBCpz2Hdsvoy5y42OYl9fYswE2h0a5ojbkAD+D9jFLo4rVzV8SrBagraO6b4eFp7rIMuAIgm6NhCtBYii4rss41x55EGwkQ6TAfPrGDvfw8c/v0+q/zF+viu07OsbuUDW12vq57o06ExQv9/GPgKWWrl6IBwpoM3ew5L4JzWhhzbSAFBMRLANtVUwo9JCVtRF40QH2p8dIXN46Yi0wr1eYKxEkUBZl6DDWFQ5Zx7LZ/Ww1QX0qc88Iq8rNxQ+lJMUKCyyN+IvvzRT1uOvEK7hgAsWrUo2JjIlwWdaQSD2KpCiCmAttzRue+psQoKQNlmqRLbyezsQAtOQ2IeyHgHarnbCs4AihSoervHBcWjwwRF1fLQSsCaA2AKAUQzxCTUDei875OfQdgSBJSB+YCqAKAQqIfRZCM26PPhguyF39HWYIUvCYLI4AWAmhbJYAEkAASQAJIAAkgASSAFhRlecr+fZcv4tF4HPqe1Jfvx7FL/dD3CKCZwaH2ETvDXOPFMFgN551WCVDXCs9NvGo6/70agEID8Jt6lXSmxcYAVOqIxhxX7h1UtwIgzgdbOjBeKuAWQAsAtEkfsk/5BZAAEkACSAAJIAEkgASQAJoFIHpLDGJtwuWX5ggg1YFUByoNIGaItwWg1Bt9CqDm34NsN/li8eE2dOYXB4j1VuwyT08s57r3OZfnsAByd3e32QbtNJIkgCQBJAkgSQBJkgCSBJAkgCQBJEkCSBJAkgCSBJAkCSBJAEkCSBJAkiSAJAEkCSBJAEkCSJIEkCSAJAEkbY3+AIfGm9MNZA36AAAAAElFTkSuQmCC'
p29
sS'version'
p30
VV6.0\u02b2
p31
sS'uni'
p32
V\U0001f4e1 Also Known As
p33
sS'desc'
p34
S''
p35
sS'browser'
p36
V\U0001f4e1
p37
sS'annotations'
p38
(lp39
Vantenna
p40
aVcommunication
p41
aVdish
p42
aVobject
p43
aVoffice
p44
aVsatellite
p45
asS'wind'
p46
S'data:image/png;base64,iVBORw0KGgoAAAANSUhEUgAAAEgAAABICAYAAABV7bNHAAAAAXNSR0IArs4c6QAAAARnQU1BAACxjwv8YQUAAAWPSURBVHhe7ZpNaFxVFMczcSNushIXERFBI35RIRURISaIVtqFbTFUkAbjSonBlS3NBJEkRcWFpFXcWLC6iCl21fqxKIkuRDSLiiAGdWcW0lUWLk38/d87M0xm3pvPc2cmen9wOffc9/Ly7n/OPe/e+95AJBKJRCKRSCQSiUQi/zsWFxdPqpi77yiYDcLCwsJbhULhlOq7u7tbmOv4q8Vi8aLa9gPBBLKo+Tj19oJYG5iL8/Pz59KW/iWkQL9iRhBjG/sbkTOaHKhgPwgVRCCG1kcIMm2umMLf2NnZeZn6UerDaXMKQl0dHBx8fW5u7hdr6hvcBUKcQ5gVRBhKW1IBiJIj5ia5CfNCpVAWae9y3mLa0h+EEOgKHT9sbhkEeIbOf2VugiINc7xKzFWi6c1mo8mu8RDlGtc/nTQ6MmjWhaWlpfswj6deDTNmy9ChlzAnEEW5KAGxJvEvWyTWRZHI+dOUUcop/FftkBuuApFjTlZGQyW0H87qtKKKchBRzluTGKGsNNHhW82WOGDWDVeB4FGzeSyYrQGRJMYUQmm+JEGHKMuKEvnVmHjHU6+cwy6lnh+uAtGhMatmwvFROlY0twZNIMk/T1UNOQ2dz8xNwNdTcpkyxLlXKW/TfELRmJ7hh1uS1i+qmzY3F/3SiPBYoyTM9fYkewmBOU/be1gNQbGJfyzk9MAzgu4xWxf96uSqD8zNhWg4YpGRILEoX1JNxJHQmLOh506eAt1itiF0dIwIaTh7RqTTlSJV8WE31nSeAmku0jSINNNolY+IhzjvWXPLINqWxDM3KN5PsZago8s2d6oBcZTMVyilfFMG0YaVo8wNSk8FoqN6Cl2uFEl1S9ALOm7NCZZ3EjimeVXwRW5PBTJGSNrvqKIhJ8HU+eRILZ9wvDJxzyBS5jzJC8/H/Do3XHceVA86rrnP3dVRU4Lj35B3nlBdkSNxrH2b+myohO0ZQX+YbQs6qfVUnjhbzJ1eMTeZddOmeVFpmJ7Ny2Wd4inQDbPuIMKZ6vmO5kmYTdU5Pswwzdy97BQ3gbjJIBM2ouNC3vDhfx7TELO6ljHuSdt1P4gb/FO/prkdQ+c3iJSD5mbC/6xe4kx55iPvp9h1s178ZTYXBDyHkKvmijNmXfAW6GuzLhAZmuusN0rA2oFEpGSbBEY8h1qILVfXYWZsIsBrREvudkblUFNeambHoBm8I0h8ataThjuMNtTKj36eam8kBzrEXSBuVIvI5PHriTqtCEEkbdLnUd625dxJzm24r92IEBGkEH/fqu7Q8Wk6/mNW5zUES1FkPGe2bYIIxPi/xo2WkqY7iKS3tBpyWcm4cvO/vGfdLjeZdWV8fPwLOnGvuUHg+jdTHpmYmHie/1dYW1v7Qe3Y3/HHOXanzqH6D23fJn/UBu4RpBU5N1bzHj4gI/w/5aYrFcPue7PiQbNt4S4QQ6vuzDcUiJTsWSPSujWVuMtsW4TIQX+b7QmINEZJvkkyOrqfEAJV/4I9g2he5cmW7CG1i3uStiR5B7/iw9bUdRBGK/wlxJlNW9onyGMebjObCR24QCm/PfVEUaNlBuK4fEbjvhbTwpJp/ndEUObuoKATem1zu+1BT3Ju3h50U3ANRcznlEuaLCaNToRYrJb3i+tBp2bpTDLRM1H1juwBygH+vpnFrhawP2F/9oqWLHq2mqdze746q4brZC5MufZ2N96olvDeUSzSgdxPXKrh3PtDv1vvFO8k/aTZpmBY6aPOvsZNIKJH79FbfS921Gzf4hlBL5ptGuUqDUtz+xJPgZ422yotDctu4yIQUaCvTXPnPfXQsNTwNLfvcBGITtZ8w9MiHe/8hcJriNV8w9MiLX181U08c9B/EpeJIjmk3puGZrjBrLorn9RFIpFIJBKJRCIODAz8Cw2dN0Z5b9INAAAAAElFTkSuQmCC'
p47
sS'andr'
p48
S'data:image/png;base64,iVBORw0KGgoAAAANSUhEUgAAAEgAAABECAMAAAAV8YMOAAAABGdBTUEAALGPC/xhBQAAAAFzUkdCAK7OHOkAAAMAUExURUxpcS8vLy8vLy8vLy8vLy8vLy4uLi8vLy8vLy4uLi8vLy8uLi8vLy8vLy8vLy8vLy4uLi8vLy8vLy8vLy8vLy8vLy8vLy8vLy8vLy8vLy8vLy8vLy8vLy8vLy8vLy8vLy8vLy8uLi8vLy8vLy8vLy8vLy8vLy8vLy8vLy8vLy8vLy8vLy8vLy8vLy8vLy8vLy8vLy8vLy8vLy8vLy8vLy8vLy8vLy8vLy4uLi8vLy8vLy8vLy8vLy8vLy8vLy8vLy8vLy8vLy8vLy8vLy8vLy8vLy8vLy8vL////y8vLy4uLmaUni0tLS8uLi8wMDIyMmSTnTo6OiwsLDAxMWWTnWeVn/v9/kFBQfr6+v7+/vz8/NLS0maVn6KiojQ4OS4uLTI1NWKOmGeWoD09PeXl5aeoqENDQ2iWoJycnOfn509PT0dHR+Dg4DY9Pv39/TU6O/Ly8jQ0NPb29vn5+Tc3N2RkZDg4OFdXV1NTU3BwcHx8fOrq6j1LTU1ma1yCirOzs1BQUPj4+OPj44+Pj8LCwioqKi4tLZi3vqSkpNjY2GuYou3t7e7z9MnJyYeHhz8/P/f5+tbW1tzc3GCKk5eXl1l9hXV1dUpKSkRWWlt/h1paWjM2N/T09EFQU9TU1IWFhVBrcb29vUZZXcfY3DpERlR0e9rl5/P294qttYGBgbzQ1Pr7/F1dXUJTV0leY1NyeUhdYThAQWWUntra2svLy2SRnKGhoZKSko2NjZW1va+vr4uNjUphZlVVVTY2NoODg8DAwEdbX3p6ekxMTK7HzMXFxXykrOLr7e7v8GVlZaG+xGFhYbm5uTxHSj5MT4KosPP3+E9qb7i4uHagqZGyuXCbpdHd4Fl7g2qPl7PKz8/Pz21tbaWlpYaqsmGLlKurq22ao2ZmZlh6gXd3d1d4gN7e3vf392OQmnNzc+fu8MDT13B5e1JkZ5u1usTW2ubt7+Xt7kFGR1+Gj2+RmOrw8pmcnYqYm1FudG6Kj2dnZ09eYlFvdmWLk5ubm4WLjI6ancTMOLEAAABIdFJOUwAZbikO/fUBBPrJ6AYu5kDspuGx2aF6zn/dHgcKEDjTIuRdxI/WUVi7EyS573FjI9yDtk4YrBWS/jyvRohUMoQljDcmmZM5aF1R/a8AAAZ4SURBVFjD7ZhnWFNXGMeZIQEF2aAgILJE3OJeHfaec08SSMCwZMoWCGUIsqeKIiJ7D9EWUasg7lFxL9pq3QOtonbvXdveexNGyE0I+qnP0/8nHgI/3v2+ByWl//U6Ys5aOpqQpYPGa0DGqdot09c00NbSsrKwnr1k5tRxr4RRs9XVY0E/vn+Nb40/n8dDLAPdCWNH7pLOfAbk+HYf+/XprbKq3375+eQuAZ/HMjZRHZmP5kZWbH5LWnoAHtj+6PC2TSuwNmH9+mQBQAbTVUfAUTZksaPSSnB3HMcfbNuCiVVbX3qcjyxUHBTlzNJVB91VuA+OuxVc+gkbrFUHkjgsRx3FOGZz1PnNJaQ17Y/ubMGGKDtHAPScLBXIINOJASoDKE7BTi9MSl5NAsgy0LcdNRxIR5t9tYRwC8dDz7RJc7C4l4mIy4eTVZjyOc6ObN+npD2427qPaThYriv/xZV/ujna4+VyNFRY7FOdFOfceTpOW0PexY3Y+b9a5prIBU21YcekUwaF7qTjYM9+5/29AtsW2pxv7yzPICN1WEkZ5PL+e3ScrA8r0B+Xzpx7XufHmmMmpxSNAXe7yKBv6AJd2BUE2b5/BgQ01rAh4x3Z/WLHgFE/kClz+WiTdOK9W4sQBIDtf7WFixIuQ73lsjijDAHspjzDzwzFeBY3hJAYQmyUH1++uv40miGrWywNAHsvxbmxYwimIycSISDWvZVnhZhnzwmWkwznbBkAfEJ59kAy1NkHKyCCkENhUEi9qImfoGmqMnJG/Nj2QBJ0yXMw5mUmBwEUmxQiAq31EH3fO3LuMqaMEIlBoV8MYFKCj5MY7pqwrlgAIYCJuX3Rz4FWi2nHq3UfqKA/RMKeai4CkBMR1pETC6FrEEAXhX0fbq1AC+lMcjAQg9qvf94X5AMkBkbm9GaVEpyiVgHkB/cbG30I2ljS9YceEAXbbaCKDuQhVNRQ79W20hXC+LCjAEVkD7jtXcSaQgMarU3UyB7J/ihcs2bt/jjMQ8TZcBrBQ9EDoNp7PF0zehCsIwrS5dP+yRgXnkLkiOJwS7PCOFDgPbgugvmmS6VBqlYEaN9DHO9cJznSRJzNteFJCD3JGvzJBgFjEU3LmhKu1dxyHwoSc4RYMBcmNkn8CWECb4l0dZsbk/WWJuGamANAlxBLqUbo8gUJUPRJ3mzpIJnNJzgw9bnkMKI4nPIUDMuIhdz7Q3p5JV9TesAxlwGRb27nBoaIx3rSnhcER/gYSeSe0pUTpjQXwRQWSdrrht/4rn9G3yc48CL5+02JEB4auqAKXcdMkga9oUWCotJ9Cm72xSAjiKjshF5yyibzhuSe1H5akLk11d573PA7Ys61EAR4u0gOdqE6L6/8mWIgjYXUAIypaj9M5d+zieQcF5kR3RCUmSu95hK16LpNZzJF2h1w/VsKdDCvn4Nh4XezpVd4D9dCmW6QOFK+cRvFSySDy40oxOTI8yiaoUY3kiYwKJOiyg5TJZnSk1HsKQ8kfMybSDsklTVFeyL19g5MEdULGHb0819kEgC7v16hAMezFBhYyjgf9UUgzlc3FQCtzkRzZB1K87TFpC8vDMvxOghkXzdMIxYFgtzWjcOBzgrmTpR9b5nrikyC/OQO+ZyOamQ8Sc5t86ameDPDpCtxcjhbE5DWTLnn6Ft9Ox4Fbe6VnfnLaJhDcjGxlaDYJpAUnEKLqT2SCSc7yT1tmROJHhH0G8XdtT5b6rqN8+5KRGNU5J/IqqYAJZxNgLAfFbG5Kdxj0D2a0tQVAuE0u2EOZGJMxh7BslvjYb9VKD6i/OW1/cW9qzZ45wavTYrnQXX75cNd7NMBjCQm67vB30N2HwoihPhBkRWZkSEniK8h0J6uPOwbwgTAoLuEB+dvN/sOoMQ0RHnMmK3DHP4xsoAB4L1wDNsZ2FlWGQMkWJTG6NuqKfQIJdqWk1zcts4Fd+9MT7vqy/GDkE1KxLFYYKbge208cSbB00d/7Ax093HHA6oaT6Xui/H1jYmp4ZMg/VEKcpQ0ZhI3QD6I2t1Y9jCg080n1C2gJP2zD47VRZHHKENF8Wetxjx7YgKw/fg1+1IrT+1JO7a3ua4lxh+QvmmZqCmNQLNUjKmlCyH088vP9yOjRMXZUJF0SQ7vCbo2DIlkqWvbm4w3Uxq5mJY6Km/rW2taTLPR1HQ0NFo0Wk3p1aWh5jxW1dLZgfk6/xz57+tfpzB0sU8NjYEAAAAASUVORK5CYII='
p49
sb.