ccopy_reg
_reconstructor
p0
(cemoji
Emoji
p1
c__builtin__
object
p2
Ntp3
Rp4
(dp5
S'emojipedia_url'
p6
Vhttp://emojipedia.org/notebook-with-decorative-cover/
p7
sS'index'
p8
V793
p9
sS'code'
p10
VU+1F4D4
p11
sS'apple'
p12
S'data:image/png;base64,iVBORw0KGgoAAAANSUhEUgAAAEAAAABACAMAAACdt4HsAAAC9FBMVEUAAAAIAQAHAQAAAAA6AwAAAAAEAQAAAAAAAAAAAAAHAQDRqUkAAAAEAAAAAAAAAAAAAAAAAABCCgMAAAAAAADKnjsAAABHEwEAAAAAAADEkiMAAAAAAAA3EwA9EwNEFgKfnZtBDwCjbAVkQgQOCQBEDAJJEwJOGwC7fwUAAAC9ixiJXAa1egS+gAWWZQY/CwPDhAtnOxY7BQE9CAGOVQM0DwBOAQBUNwJwSgaBVge0fgqrcAQFBQU4AwHGmC5gMhB3UyZqPRZcKwpONACWkopkY2AODg5VIwR3UCZIEAU1AADitlnitVbit1rhs1PlulvgslHfr03drUrmvV3juFvkuFjfsU/cq0betli+gyLIig/LkRvcslTYpj9LOBvVoDXaqUPPliPTnjBGNBjXoznRmiplTSjFhAS2dAzHlCnsy33uzn7ryHLuzXrtzHrpxnTsynu/vr7pxXHNzc3tzYDpxG7tynXuzX3ryXjuzoHowmrqx3Xk5OTR0NDty3juy3THx8bow23pyHa3t7fmwGjuzoPDw8Pu0ITe3d3v0H+8vLzs7OzuzHfKysqxsbH8/Pza2trg4ODq6enowmy6urrrx27V1dX////mv2bqx3DqxWqIaTHlvWONbTN2XC+RcDbkwm7mvGHm5ubw0IG5ubnmvmTFkTa1tLSura2CZDCCd2NxWCzvz3v39vR7YC5+WCjcz7PXx6PYslm7m5OndWLdxInTwJLx7eTx8O+dZlOmpqWgmpFaRSGPh3p1TiHGlDnjvmjowWh9MAB3Zkf5+PTAiCrjw3PhvGSXW0C5iSxrUylpHQHjuFzkyYfs5tno4dHVvojf1dTOtbKxhHXqw2bGrKi0jYJrWD1XLxvBjDCAMQCuq6NVQSDmvmWdXgCEOxJiSibnwWa7ubXju2DeuV/kul9oTShQPR3ku2DSqlDnv2HkvGKHOgGSTy6oagm1fByLRSCuq6aPSgB2JwHo4tLJnkTVwsCENQPUx8bowGTkuV6UeHKHBh3DAAAAS3RSTlMAEw8Y4QcLAgEDIqkrUyYcNT6wMB6wOjlMRLxHWHKA5/5P2Zdo2s/b8121vu37yqH85NHDoWP0iqW2uON63LDX+fnrYvzYj+3hu/d5G0qKAAAIAklEQVR4XszSRW8dVxwF8KaKumh3kaq3Mi3sLK3YTXZtkyhS4aMMMz5mZjIzMzOGmbnMzNxN/3cS1wvPWK266dE82NyfzhndZ/5HOXD02f8E1Lx58nDdwYaGxvrKihrbc//+/LH19U/u37/UPnT89SOvAtX48qH6iqO25/8hYDs28eBBNZv3LVefGh4+fWlkvKWtZeI4UFW1tY2HKitstv2Bly5f/pNNDg4m82yQ5/kgm1w5NXx6ZGR8qKWto2NoYv3IycNVdbVv1FfW2A6YAS/0X3zn3QuzM2wwGo2ywQRfTKfD6bSDHVhZG243nLYOyMTEiROvVdXW2fYAG4pEffTztz98t3TvrsORSCR4R7GYDmcy9m57Juz44PEKFNpx2loa9gJNdwouiRqlpze++err2ZnfwuliEdVAhr07G4vFshme/X4NHFh1cO8EvblAuFyueJzE8c7P0aDbt8L2TAYAIMDothsJF/m1FhNgw1sgJApjnBQlueIkGcGNQbMzv8Sy6KiRDNRy8I7giFkDL0FIEgXnZYpCCiCk6kWDLty+e3MxloU26HzCnYi+Z9qgSVKcGCZgEMoICXNG5UiPMWjp3q1szJ7m3e6g27faZgooFCMAIKiygOE4hbqQOAmJ9PQIaBC825twRYIDq0MmgELoDIYxgiDIGHypOC6rOCVHIriMk1BlFI94py/+usRG2YHVcbMGhMIwaIAAUQWE4KoMHwDgD0nGXfHRnukfo71RC6AJBOgPACQAj6oKuKBC4AsnZSruco2e2877oklTgOaMCmgDGHAoEArAR1VDgUAoBAQOQhwBeQtAVADAMHjm5gxBCIAQACGEfgQQXPHOR70WQD8n0l4kQCZLpbHJOWgAOyAqNAgFQrjsBGDbAnixn9M4WtcZyEKqZGRx8ioMMQYIaAtskBDQm1xtNwForYnzwgqFOVPazcLU1QCqoYZgAinBBCvgYef7zRyn6CAAEB7bNaZU2IAEgXK6rBs8zP2uiTBCURDgc7uzO8BP6E0IKlwNyik9afCWGeD/QvOINA3vAYDoIL+YGnta47oAwQSZcUpOaGAFbLZqGg0daC8A7sFgwpdmgYKcQfdCxWRGIaTNfYCuLdjAcTQHQNFdHebzvoFiIgaAca/hhhBEkzVwdrMLNiCCRs1TKceyI1idWE4CwDCMLGCMIhWIp8DIHuCVs5uflbdEkYPceNJ8LBVjEwODACgYhFF0olDYfGQJtHZ1lbWcx+PhPFOlnaTCbgQwEEXfAfLmwJdX+vre9ucQIc5fL+0GAF3xKoSuEM3ieWvgwytd5bKm5bZynpyYE7n5a3/XUFB0eIXNd85vI+BT0wZ/fNxa9vs9mt+TA4MTPeK5qQUArs0rtA4hRFGzBowGfX3l1j7/lh96gMHBIwJyA64G3C/437xvg7/qJJffNqoojOM4TmzLdmzZCknjtpBm0QetWBT6oLDhsfGMHb8mTlITx3UorJCQsjGrqF55wSZZjNBsLHUk/ohuJhJCgrvsCmmkOs6FK48EQl31rvjOncQYOT5ysju/+X3fuawiRc/tdEzsYxwgVCF0GDzQ/e8J8OMvvx8R4NeLAZ7tWqZp2pbTOWybzgGCfEf7+9/ieR0cvHSGL0+PpwE2mc6FbbmWRQzy6LQP2/QDBVnQSbv/pn863aCW456wPDi4ro/AIAMQ+1jHfvvNcKhPN6hpjHPuuiBAAmW4hKC3RY3isE4fgKkRLm0yjTGP9yzPEq7lurYLRgdBDh1k6bQPHMcZlsuIMA1wqumokVuW56EJ2wLEz9EGBf6H/b49LNeUwZcTgPClzdp6jjEuuDewMKCgDwBclQMcp99XBhcCwvMKoAhCcOFh4OGZrmn7ScxOvzPslXtnBn/8DxAORyI+ICeZRJUCAkJ4rgsL0zLtDo5im+aQFwqTAPp8JBI6A1R0KQceKQhkUHXa8ADAwfsqlAuPJwG0Pzdzc7NmaLkK0xmTsjIYCCGFJzn3BBC2RQxbFAqFx34HX40D8P2ZwM2/jWJeg4Ou5ySX5OHRurAE9WnT++gVqtXaJGA+EpoLBAEoGfm8pmlMR5kQ4YOB9DyJLnAO4drYl1VEmASQwMLDrxuNjaKxDkQOwzCSDyTdRApu0VF7vFKtnkV4NRseAaiBQObhX829nfpGiRDkgSiMCSmRQ1AIITljAPgGT17NRubD4XGDt+9ef7q1qxhFw1Bt4A+QAUerOAv29WpeGwFCEYUYdRCNJT+9u3p7a3t3p9XYKMEEKjoIIMmBlIyzCqtqeYrQJcBcKHRGUFdUhNRS/N6tj55u7zZ36oBQI3l46HCXDP/0HBl0fUBgZo4I/jsIESGTAGIlnl27duc9iDRhUioCgSRYxW3QzDoMus8BeDEbHBHCRFCIhWgsnUwtL8VvXL6/en1re2+nVd8oFg1VKgrRtPx66bj7/OinJy8+jgYDIwUQFEIxErH0YmplKXvj3oPV97d395r1RgmtqjEMA4Bnz/65evVKYiEw4wN8hM8gj2AmmkgnF/00tygNRNAITalUOj764eSdteVkLDMCjDHQhhKhQgBBmuzl+3coTbOFXjGN1yfdzx5ll5PjBhdDkOa8kisP1IGbzVar/vrk80fZlcV0NHhe4mgm0vxXCSDXcGBAvvnti7U49scFJhlo9SLIBzjw7Q/jK6lkLEpXjETC44DpEOpVdZJKpd6NJ9OxxIK64RSBiUr8A8MkmqCJZoLqEZ1//18AJ4TdN7TKTwAAAABJRU5ErkJggg=='
p13
sS'twit'
p14
S'data:image/png;base64,iVBORw0KGgoAAAANSUhEUgAAAEgAAABICAMAAABiM0N1AAAAqFBMVEUAAADBaU/BaU/BaU/BaU/BaU/BaU/BaU/BaU/BaU/BaU/BaU/BaU/BaU/M1t3M1t3M1t3M1t3M1t3M1t3EhHPEhHPh6O3BaU/ctaPFkoTM1t3KwsLg3+DZnoLVuLLd2NnHoJbJu7rZ4efLz9TSjXLHdlzHgW3TkXXVlHjg5+zJiXfCcFjNmYrRqZ7DcVnZyMbQim/EhHPKfWLCd2HP2N/Q2eDYm3/EcFVd055eAAAAFnRSTlMAIHCv3+9gAL9QMJ8QzwC/YM/vIIAALauQcwAAAVBJREFUeF7t02dvwyAQgGEnDthuitt0gFf27t79//+sGFBIpLrK4ZMqRbwSXx+dDghsnW7YE7BISCNTEJloLJzqJQfQmWXA9fcgSkSL+juIGuA+n0xlxbFNcy0lBkqMM5kX0Mp3tScNnRPtlIVDcyVRBXW1kxdOlTUUKohp6JnD2s4+lFTviShIWAhIfaqNC9k+9MDhkprJQqZH+EyzQ8ipu1E9UgvIthpzjgKJpzESJFbN0PC4FkstjVwh24veeEvISgjQcIkFLbCg4elCHsoq/mtVBoMy3lgGgqpmqAJB/I/+B/IQ/vXjP0j8LwLIQx7ykIdEjAVRJIhFOBDp4EBMOihQqgrS9OSgCyzoEgkapDjQ1bWFYjdoLZ3XgXIMRN2gNwnd3O4K5GEu0EY6LLIF8nQIHPr6FvqPWaiWGBTaSIcpx0IqGkOgtdxPTKODfgADUO4+goj0zQAAAABJRU5ErkJggg=='
p15
sS'gmail'
p16
S'data:image/png;base64,R0lGODlhDgAPALMPABofHe7umV9jSa6uare2kg4Ra0VHNC5v6lGs6SstxwAB0tDQo729ihE44v39nQAAACH5BAEAAA8ALAAAAAAOAA8AAARUEBhQirjYvAdQU8niBKMzAKgHEkxLBIOANl8Y3GQ8K2vbwjLAoSZyGE1BVeho1HWITGQKynQqi0drjcV4SZ+gBa4ZFDQqg7T6AuAY3nA4m4Oq2+sRADs='
p17
sS'related_to'
p18
(lp19
V\U0001f4d5 Closed Book
p20
aV\U0001f4d7 Green Book
p21
aV\U0001f4d8 Blue Book
p22
aV\U0001f4d9 Orange Book
p23
aV\U0001f4d3 Notebook
p24
aV\U0001f4d2 Ledger
p25
aV\U0001f4da Books
p26
aV\U0001f4d6 Open Book
p27
aV\U0001f516 Bookmark
p28
asS'name'
p29
Vnotebook with decorative cover
p30
sS'known_as'
p31
(lp32
sS'default'
p33
Vemoji
p34
sS'bw'
p35
S'data:image/png;base64,iVBORw0KGgoAAAANSUhEUgAAAJAAAACQCAYAAADnRuK4AAAGr0lEQVR42u2dL0wcTRiHEYiKCgSiAlGBQFQgEBUIRAUCgUAgEAhERUVFBYIEgUAgEBUVFRUIBAKBQCAQCEQFAlFRUVFRgahAIBD75Znk3cxt7kvLsUdv7p5fMuF2uJB277n337wzO1Yp9QiNeQuUACkBUgKkBEgpAVICpARICZBSAqQESAmQEiClBEgJkBIgJUBKCZASICVASoCUACklQGrkAfr582f18uXLkRnb29sC1KZ+/PhRjY2NjdR4+/ZtdX9/L0AC1PvY3NwUIAEaPUtUDECrq6spXmBMT0/X8x8+fKjnx8fH09zExEQ9N0hjeXn5jxCtr68XBVExAOXB5srKSj1/dXVVz09OTtYADaK+fPnyV5aoJIiKAIhv7s3NTXVyclJdXl5WX79+TRBhfZg/Ojqqvn37Vh0cHFSLi4vVx48f098hoxtkgKampqqlpaWiISoCIOY2Njbq6/Pz8/r9b968SXPPnz+vbm9v09zd3V265gMbZIBI44EE6EuFqBiAiIHi+vT0tH7/69ev0xzxTwDET65LAAjxhSjVnRUB0P7+fvX9+/fksnZ2dpK74vWnT5+SO3v37l36cM7OztJrXB1uDXdXOkBNiytAPQbRh4eH9XvW1tbq+evr63qemII5gukSgugmQC9evOgaEwlQCwBhbUJ5PIRlCkV6D0glAhTXWFcBahGg3d3d2oXxmuyKTOv4+LjDhWGN+P3FxUVyYfyuRIAQrwWoT0E0cDSDaAYpfclBtAD1ESCsTFznwXHEDBQPSd8RWQvXAiRAaRA0//79O2VXuCcAahYScV98QABFvMTfYQiQANVxUChfU8qtEVaHuWfPnhUdRAtQywARz+TFw62trbr6HHEPmp+fT/Nzc3MCJEBjHZVn3BdgUPb/9etXcln8/Pz5c/Xq1auU2hM8Y5GAKgqKAiRAaS53W3lRcXZ2tp4HKES8xLVBtADVALGcgSsjzsmLh+/fv0/vwQrla0aAJUAClAYVZuaxLLgp2jZYrqAGxDUuixQet0VcxAIkirRegMzCOhrKzMIE6EEAAQadh1ggrEpYIILqsEC4LywQ8FA3ioKiAAmQMZAAmYUJ0D8EiOULakG4LFpYAYQ6EK6LDyXqQLg3VuD5PZaJ1XoBEqCUWeXBspVoAXpUFpa3duQ9P3T0BVgCJED1YPmCJrJh29YjQE8YRNsPJECPAihvpM8XSSPuIcUneEaAZEeiAHU01OfbekjXcVOA1OyJ3tvbSxaqxG09AtTHIDqv/Qz7rgwB6gNAVKIFSIB6AogUPnaj0toaLizf1kMG5rYeATKIFiDTeAEaMICi3zm29UQhkXMF8209uDG39QjQH7f1uJQhQI9K411MFaAHAUQrR7RzsNYV7RxkY9HOwQmnxECxrYd2Drf1CJANZQLUDkC2tApQzwABB9YltvXwQURTPXOxrQc3RlwUTfVu6xGgrg1l+amm+c1lR0bMG0QLUMfhCvlNJKWPsxCj+pyDtbCwIEAC1JmFxV6wmZmZ1GlI/Qe3Bky4LeDBvVFoBCqC7jzYFiCzMLMwAeoNILKuZhYGJGRdzSwsdqmahQlQx42mnSOysICJvp88CwsrhTszCxMgD1cQoHYAYpE0LJCHKwhQT0E0zfIRAwFTKPqEyM5yYIiJjIEEqGsWlh80nmdhsTJvFiZAHq4gQO0BRFyTH/MbDyNhPt++DGCR0htEC9BfHa6QPzM1OhJLeWaqAD0RQMP6zFQBesIgelifmSpATwTQKDwzVYD6BBAuycMVBOhRQXRuTThIvNszU+Oml/rMVAHqI0AeriBAPQPUPFzBZ6YK0IODaNL2bksZUTxsLmUYRAtQPXBJecM8MQ43mAEo+fuYy58fH+8bhMG/R4D+UQw0jAP4+f8KkAD1PDhNRIBaFD09kU2NyohtSgLUkqg057HNsA+WXQSoZeVZV7S15ke5lKx8WaZbUC1ALYgCYdMKUUAcBvFFaGZkAtQHReNYc0mDG1r64CAIAeqzaMuIms6opPWxYUCAWhJLFqOUkcWmSAFqUXH2YbM6PUhV5raq0ww6KwWoRbE42gyoOcp3GEThNNL4/MsR/d0C1Ke0vnk2UMmKU2f/bwhQCyK4jL3v3RZVSx5/ShQEqCXRFzRKAbUAtSya5UcprRegPojTyQRIgFpP6wVIgFSBEiAlQEqAlAApAVJKgJQAKQFSAqSUACkBUgKkBEgpAVICpARICZBSAqQESAmQEiAlQEoJkBIgJUBKgJQSICVASoCUACklQEqAlAApAVJKgFRL+g/XveIbqAUqdQAAAABJRU5ErkJggg=='
p36
sS'version'
p37
VV6.0\u02b2
p38
sS'uni'
p39
V\U0001f4d4
p40
sS'desc'
p41
V\U0001f4d4 A notebook with a decorative cover. Unless you are on an Apple device, which shows a rather plain and undecorated cover. 
p42
sS'browser'
p43
V\U0001f4d4
p44
sS'annotations'
p45
(lp46
Vbook
p47
aVcover
p48
aVdecorated
p49
aVeducation
p50
aVnotebook
p51
aVobject
p52
aVoffice
p53
asS'wind'
p54
S'data:image/png;base64,iVBORw0KGgoAAAANSUhEUgAAAEgAAABICAYAAABV7bNHAAAAAXNSR0IArs4c6QAAAARnQU1BAACxjwv8YQUAAAL/SURBVHhe7ZoxjxJBFMfnLR9AG1ttNOfZePG89iqSU6O3V1wBomhMhLvqjJrYam00Wh1goxiEQhMXzamRD2CBiTbqRUstLE20ZMY38IC9DRsSdine8n7Jy7x5szT/zJvlz6AEQRAEQRAEQRAEQWAG0BgLptg0lO7Be3lZHTq4/HnhxJXjVBrQat3a/ff395y79pgqQ379/PCj3S4dnuSzypiPUHFP0mxiHBqFEESgMYhAY4hXIOz7bij1p1fgT6wC2UOxG+XV/UaZ+1hiL9TUWswpuzeMNluYshYpkkD1en2r0WhU/YG17VqtdsSuO4/cJ8aYZvdhpkwskBUHAB5getEfWNtIpVIe5gR8ooQlEwuEQixSOop5GpVKOW8oY0mUFqti+4SdL0NROvo0ZSyZWKBMJtPSWi+hSNf8gUsXcO1M7ykElEsZSyId0rlc7ns2m33oDxSnRstKF717aPaWacqSSAKFoTderaA4O6DgOpXYEqtA1s3bAGPeojisz54+U9lBSUIEGkO8AqFRNUbt0iwRxCqQNapOZfWocZxj+Mp/SmXWTKXFnO2zX52Km8ctdYdKbIkkEJrTdNCsYtztm1Uou7eNMrNpNVCIHA7vMfaYVYybaFaf4djDQIsylkTZQSs0jmJ4myBmdSRtGmfbrALAut+o9gPXlugxPIhMmjKWRDqkrUhBs2qDlsms8rYckQQKQ2++ntcFrypmNYApeG1daH4Drb9g+9k3Gnvi3UEAiwBqjmaJYCotliREoDHEKhCUV8GGATiFr/sXVGbNVHaQUzr3Ds3qOl0/syaSQOjH0vYCMRi03Lt+nmGzmsY2em5vV4OBazv02Eyb1TyKsY/yIMNvz7NqVnH32P8BhSFm1Xoua0wxtT+tDgJrpU6ncx5zwixQwpJIh7QVCQ1r3h9Y27Q3rnZdX/UuYRuythyRBAqDzGoJHBg4e67EKpD9ecMaVjKrRSyFHeJsiHcHGXXAGlaaJYKptFiSEIHGIAIJgiAIgiAIgiAIAi+U+g9hslMJwOUo4QAAAABJRU5ErkJggg=='
p55
sS'andr'
p56
S'data:image/png;base64,iVBORw0KGgoAAAANSUhEUgAAAEgAAABECAMAAAAV8YMOAAAABGdBTUEAALGPC/xhBQAAAAFzUkdCAK7OHOkAAAMAUExURUxpcS8vLy8vL+xrMC8vL+R4Mi8vL6tWLy8vL+trMO1sMC4vLy8vLy8vLy4vL+xsMO1sMOtrMO1sMO1sMC8vLy8vLy8vLy8vLy8vLy8vLy8vL+lrMO1sMC8vLy8vLy8vLy8vLy8vLy8vLy8vLy8vLy8vL+xsMOxrMOxrMO1sMOxrMOtrMO1sMO1sMOtrMMDIRO1sMOprMC8vLy8vLy8vLy8vLy8vLy8vL+1sMOtrMOxrMO1sMOxsMOxrMOxsMOtrMOprMO1sMOxrMOxsMMquP+trMOxrMOxrMC8vLy8vLzAvLy8vLy8vLy8vLy8vLy8vLywuL+xsMOxsMOxsMMS9QsS/QsyuP8HHRL7LRcDJRc6oPdmROMW8Qsa7QsHFRNJjMMS9QtGkPeF7NM2tPy8vL3NFLy8vLy8vLy8vL3RFMO1sML3PRi8vL73QRu1rMP///+1rLi4uLi0tLb3PRO5rMO9sL////r7NRbzQRuxuMOh2MutwMeOBNePj4/r7+zk5OTMyMed5M7/MRcPEQ+KENs2vPissLP738YeIiEBAQNOjPMLGRMHHROpzMci4QdiYOu5wNu98R/3x6/X19ldXV0ZGRvKQYVNTU7S0tP/8+u51Pfj4+H19fe94QNqTOcW+Qse7QdWeO+Z7M+CINsq1QNSgO96MN8DKRepyMfe+pO5uMjEvL7m5ufKZb/axkjs7O9XV1frZycfPWP769d7e3lxcXMuzP92OONGoPc+sPdRlMmJhYe7v76mpqcLCwnJzc/SlgTY2Nnh4eMzMzPrWxf3s5IKCgvGLW9bXf/Lv0/79/OxvMZVQMPCFUv3q4paWlvnLtvve0dra2uFvOf3+/vzi1t1mL1BQUFU6LdHS0sDOSvrTwaWmpo+Pj+jks9yPOMa9QsTAQ1A6L/CDUGhoaG1tbWFKQPe6nealhvnJs9bOduTiqPKYbldJQ+q3n/jCqPa2mKtXMPOacfnOufnz8HllXK6urufn5/Xx259TL/WricdkN+y8ipSMiMfHx/B/Srql/y0AAABqdFJOUwAg/zD9Cw0BBAX9hI3q+U/5KN+mCFnuyG3yzRjMFRytYkufk9f3758P93R9j+lv0bqrTio1F7rkwiId88Vo1DdX5ZnZH4NCtLWld0HCGj7EU61jS3NrF8b48xKhY1K7j3T5XhxEfc5SZ4olTK6xAAAFKUlEQVRYw6VYZ1QUVxhdHisLC4pSBREQXBBBQRQxxRg0lqBG03vvM2eqCyyoNKkqiiBFigqKIBGEIPZoJERlNSSiUUk0kt57rydv2Nllh3kzu+x+P/e8c8/97rv3e9+sQiFfjlGLPSMXTVHYW44BGKxpi5951j6cm2OwwTr3dPRTd9iBM2W+ehCH3NNIpETfZzOUy9SxBpy0TTocx1Oi73/ANiD3aYbGUhtwQ2U/+NgjNuCMCzDgkLs2EjwS/tATj48asUCePE7abhMOrIcfdVSNUKAIAxBWl2KGQ+xO81h400iAFiUYYLQ568wJbdylxdQBcydY76A5fGNFB81x8MOp3K8RMe5WSjUqSs03tlnQ2If1WsPPYeGOVgHdfgvf2BpBYymbMVN5RFrR37jb+NOrjxACpYvIIST1HHcXS42F82fJ7dnmOJzS5hUWJX9/qrl8Y2T9Dp250utTsWEVIEvKcYGxscOCxnbUk8OBsIR7ZSw9w9jYoUZcQumhCpekpJo+lsfJ2ikgdLAIBeQpCTTPgz+Suh4XKJ1DInDUT0o2djcmDj1aac5nR5+32JhhmhlLh1Ia1vlEqRszNobVmdPBs7eTSEIfucoPIRj6DQKlc5tQfLTnXwlxRgLdE4EMPbEhR4vASbr4GeMbJ5sxYegllMaavzjGarxRU3E+hgw9MYBUmj7TW5AHQlHPRhh/pCmXsKw01vx9ehcSaMKtyNBzSiMJlef3FzKalWILRapNobdCaaz45/QCBvgvF2cjARl6HG9AKk3/1NFWxowZr5IO/Q1B6HUDWcjGatv1HKFAyTFN1g8Ilb6BVJp+fVs/kpBJ6XOC0EOlVyNxtrybXsMiCKmmGsMKVxih0khCWGvyG/DKxISMnoahH6Y0EoZ+q7e6iwUrRPlwWWg80iCA0e3MQntxb/KJ/YwmWExoATL0UGmkhejyktJP88AycWCn8ztekWCFkVS6+B2q8hSDyKuLJzL0xLo1aEIt+cePsWC2k/hpjdEmJSXRpDD0OF6HVrq2nXotk/GLRbzRMy7/+OffVU25goeV2JQm5cW1W1kQ5IQYIC9fzcz8t/2fV1eZAzUeIiW8qH8bAJ+lqNG4UgMyr1H6nrPvDUERR5BKc17sK2NBiBcKKNAfsJ19FNXxgYkUVJqU8CI3PuJnoZ+zYD/AdP6np6g/TKTQSkMvUjAcSjf066HwGh8P2MLrv0NSXw+S0kkpDb14kgWTZ0ruDnfNVjKg80Q1RfWcxVcRjXvQYYVe3JfBKBNllu0419GA3V+wlqLyISkJpemWDs6LvoFym5rzpBWQ1NZ91VRyz1c5NBKnqht6EWiCLSyPDqE+RlJ7t9ASXqxgwZKJltZZL+/JgCd1oaWZFnvxwiXOi5Os2LBnhmgAm3GaI/W5mFRrcpukF4eX00uQFMOR0reXC0nRH/dyg1rCi+KaFTSGJ1XyQy0tmotKV2drv2gmJsZzpCpLKX13OUYPLQ0lxz/JAy84WP+NxbkTkqo5AEm1GknRxV9yY8ji1QtrOXQnw1RUVlPb3j9jIEV/k3+gQmIMybrT10jqzb+qaK1WW9udfh2A0UtH/HHs4OZjItVy8fLR7/RyqZclFTtI6jScU7/8evXbNi71/g4KW8pA6spvpZdO5hX2wxfIz9vGPyOcX/QFgD1V09eVl3Gtk1WGOClsLQc37vquVABQlikzzqy6vmVQKQBgmP28VQp7KhB6iiulm5fCvnJ+LsgH4twZZ/cfWwqn2NAlrrI3/z+IwUvEwZ+2HgAAAABJRU5ErkJggg=='
p57
sb.