ccopy_reg
_reconstructor
p0
(cemoji
Emoji
p1
c__builtin__
object
p2
Ntp3
Rp4
(dp5
S'emojipedia_url'
p6
Vhttp://emojipedia.org/ledger/
p7
sS'index'
p8
V801
p9
sS'code'
p10
VU+1F4D2
p11
sS'apple'
p12
S'data:image/png;base64,iVBORw0KGgoAAAANSUhEUgAAAEAAAABACAMAAACdt4HsAAAC7lBMVEUAAABrYzAAAAAAAAAAAABqYi4AAAAAAAAAAAAAAAAGBgUCAgMCAgICAAAAAAABAQAEAwAAAAACAgIAAADGxsQAAADLqAcAAAAAAAAiIidsVwMGBQB0azSNcQZ2bTkuKyRZTBqSfyeuraUMCQByaTBvaDp7cDKikjtANAG4lgiKdxnDnwC1kAGNjpKMgDmLfjN6YQl3cEV4bCxISE2zsq6uigGnp6bKuFTj0XLBlwGXhB3LpABsYzBuZjNzazeCdjNGOAF6ZwJRT0SrjgqtlyXJpQWmgwKJfCwLCwtpYTNtZTebmpmfewLHtFi+nRFlZWurmjjMy8l9foRRQQORkZF1b0FhYWGejj1OPwOZizx4cTx6cD7Rvl+6pUfFrTKHdBPHyMy7u73KqQXV08ygnYzuzx7tzh7szR7vzhXuzxzu0B7v0BzvzhHuzxrsyQTtzhvrzR3szh7tzhbtzx7tygHuzhntzRPvzALtzRDvywbvzQnw0BrtywjsxwDwzxfryxLuzQ3tzRnrzBrrygzw0R7x0A+6urrtyw3k5OTmxQ7wzxTtzRuwnzrAwL/mwwHx0Rzb29vPz8/x0RXoxgXf39+8vLyrmzrV1dXqzB26kADx0RnLy8vgxS+4nQqzjALi4uC9kgBrXxmxsbGzokDy0h21tbWnlzLxzgnkyTK5ubnwzg3wzgLEsUXivwLj4+NxZiWqmTO4uLjr6+ujlDbbvA/cwz3m5ubRu0S3t7ecjTi8r2LRtyKJcQ7d2L/Orwva066RfxfOx5u/uJPPyKWikS3asgDmyBnBpgzLwoyXk3ytra3l4tGNgkLVtwvDuX3Qsw3SpwBzZyaShDPDt2+2p1DnyiaioZe6p0GEeC+XiTbeuAB+dUOQimh2aiXxzALnyzLw7+2CaiGgihDUwl/5533l2JH/9Z/XrQBkWiHeyVHKwIP95VCIgFPhvADo6Oikl0aciybPyq+mdwBbPCucjHadegKxrI7p4LD/+L/z8eD0oW7RAAAAZXRSTlMA4QkTDeIGAgEDNicdIhkVPkcsEP5PsFUwQZVc1MA7VP35/Gvmbdv+d7mt/OnG5P2nE09u6Nva9Prwu/zSxbbtYPR/vs7A1ceIoYT8x8/CkeftpYn0J9nzROGpf9DM0d7r3r73/kluWhMAAAjaSURBVHhezZZVkJzHHcSl0zHqpBNYzBiBJUWSZZEtObblxI7DjPoYl5n3mJkZxMzMzDIzY5DhLT1zWydps0k5lZf8a6v2aX5fd0/P1Az6P5qHpz/8PwEWda6ZMS5h5cpVT2+YvmjCf89a9Nj5yXfeeOPVu0eOfH/+kzPGDV41ePXT06dP+PYXBEx47PykPz1Tm7dnyssb3/w14eyrq5v53fnzZ0wbN27V6g3TJ0z4T4CUtDmn3/tzadfVq115pTnNlc05pV0EtIBySkrqZh6Zv4agVv/gh7HsPfSNJV9r3f5K3dGbZ3JyamtrwWiurCBTWXr45StvXl/wGuWUdJfMnHn3+ppp08Y9oGfi8x8ve7ax0Fe8+dD2ku6jl/9QX9mMqayvr6+o2VlwsKC9ojJvysYBDhTtW3kfIGvph2MyRnbs8LztcPqtLx04tH33izfPnKipqCeEipqadkD2Yg62V5ZOuQJj+0rqEu43cG5F8qCRjTvMHhsZRyjf13KAGLp8qr2gvaaGEHYWFBw8WFBQsHPnzor65iv7uh8AnJozaNDIjmqb2ayaVZvZ9vY2hzs/lxp68YUzJ97de7AAALK6pqIC9ipzXi0ZfB8g/fnls7IAKCt0Op1+Z8jtVlXAPGooRA2VHP381LV39/62ILI+p7n2rW4A7s3i9o++Pvn46c5OX26uLNvz/X63273Jts2sqqrDafeB8kr3C5chpaCiOQdz+E4dAPdvw7wpZ89+8KvfHbPyfBVfJNt9/nx/vtPtdthUs9nscPitDS2HtnfD0LXm0tLS3l1HBkcXafzx9ydNCnq9ihLwGr08b5Xtsn8rIA6HavOooGyS+ZcObN99tLS2tPfOa1EAEmJh6yVjIKAowYBF8TYZeZ73+eyy3Z8fgiEHCdjjcVgPnK/dUtu1KxoQnzq740brfqNFETDB4qASVJQmCCmyWmU5Nx8Qh9kGgmdzX96e2q4oBSmLl574UdvJWz6vIkiiRBiSJkkuixZwWYxGnxWGcv1OqLA53tmddzgvWsHj1z5cv65tf6HPGBAERjThF2ZFoVwQFEVTFMXrhRY55HQgjM19W3rzohSkL1m+NnFkY2GoyKgIYRNjEsNMWBRZSQpLErQEA4jGyMu5TtWmvgNAlAJUGU0EIN8aCAgmHQJEIBidaeBYBnZA0STFy8v5bjMsbOndEg04sSIJACjwKlKYEQ0GnTWxIhHBEh4TljCKschPAH0ARFnI+vlHY1LXNRYeOwYLWAaEyIoM0yOGAeE4ndVZodzlrfK7SYhRACrhZ39bNnPy6dO7LmIXOFHsgQGTSWfgQGTChMIymha02p22WBYww56bt/GvRz+7fswiQICBhoA/1sRgRIQqhsulAG930xApICGqiPHr/tL6aafRogk6o8MEBjE26DprMLFEhKQErHa32R3TAgYhkiormkkUdQPLGUTsJrSboF7noAMpVuUSC32xLKQvnvfjxluXUGVBYLGyXzqWsyL0cCaTyBRrsEBDjGHhoaV/X/6Ttls3fLDAYRjyZZIBdDAsccM2FJMQ/80uxM/7eMXQ2aiy1RjQBNbEsQ0cHDRwDAohsmHwwj00xJA5ZpVTz62PjxTJJbCsAevwcSwi4lmOgSKEKFl42bnNEbPKpxb2V1k2agIqgMzRg7BoQKAsnDQYdF1v0Cx8bqQH0YC0Xy6bSBXIRgsAGDTZwOk6g/QA5AAUpSAyCFHA4WhA0nP/+ODJnx5/v/OtgCKIJEIR1hEegzOBtYCwHI41L7ttblgAIKpIiY8vOXf25me4VC2aBAsMB/8szgBFYVdAlcpdvL3arNIL5V+LlD5xxnuTP5100SWgiViLLjA0RRwHBIDzIRQjg01EAb2RYjaxrZVkEGZIGXGK6WmGftTKxLC4VngZIcZWgGt9dsf+1hvYBQn9RfVBQSV16oIhmgRNAUBVW2IB6Pug7eRJn9FF1pOzjDsNCIMBWZJq07NAj/PmGAD6PljfdgNNDOqCAZbBoPHTH6tz2FZBIxlscxMAzSD6ffBEY6Ff9jaVkxJxDSzRj06yHIckGIAkzQIFqiMGgL4Pkp/oCPmLcJiohR4OLUSIDQzJkDMZDJwWpAAVgD3RFvA+SE76RQe5lZVicnR1VBHSRaod2wIWJ+As2J3mWAD6Psh8oqOw8CK5DwwMyQCXGG42OowBNFO5ZLH6yDbGACQPvA8uBjRN6AlzLAYK6J1MGOiBpCkIUXXHUJCclDLwPjAqaIKECiJ9yGeRAT0RLFNOzsKmmAqSUxLjhqfS94GPNyqKpAhkJBEYLAcHOF0IBigghoIkAsic3VjWeskv80aLK2AJKLBSLJEEe0gt0SZYoLvQEgsQF5+V/mzbydYboVDIx1d58U4Bo1jQBHJF0k6xUrFCD9PmvgggeQAAAQDM/uPcR3eUeUJ4JPp8PM8bmxSXRhORBAHFlKQmnAUzzYDeBylJyRFGEgV8b+GXbn9y4XUwVMiwW6280ettanIpAJSjn5LFC8B9GSSmEEQkg/ghmRnDUtfO+fKjYPxmR1mZ6vbn2mVAjF6XJWgp1gVJaSrKdZJtjDxx4uISCSESYj9haPaoMeOJEApxO7fKRUW8lfd6XUpQCxqtflqkWgpIGBJPCaQHEUJ6GkGMGDV1zFcfuX3hwuuwUx0K2YkQoqSqKtfv9qgtfQSw625C5gAhmRLihgORkTaaMsbOWviVubchpKysujqUL8tWK558+e5tNidRkHe1c0FCBggU0E8giPjhWYQxLAL55nhEQiCgFIa2+v1O1UMU5PX2Tpk0bUNaelZ8HAX0I6CCMoZQCBjUDYmEQqpVMjYbeaV19T4zNTuVAhIp4B4jGpKdPYK4eQQQxOrxmD3VLed7t3zrqVFDARhyT0E0JNrNLLhBrsROy+97vzN1bPbQ0RmZwyMhYr4IhLr55MLJ409NHUXWQ8CAg2gGIBHGA5ARY7HBcx8bkT00dVhG/y5G2hwbEhUJgWAmrk0dPSwjPXP4QI9iTuxcM9IwGVidRT8f+f4/AYieSPPpuMrSAAAAAElFTkSuQmCC'
p13
sS'twit'
p14
S'data:image/png;base64,iVBORw0KGgoAAAANSUhEUgAAAEgAAABICAYAAABV7bNHAAADTElEQVR4Ae3cz0sUcRjH8fkDClc81Wnt0CE6SEFBYAllP5BAOnToUEPUQnTIQ5IU0UZRVBQRXaJDlyCKQqNag4IJyaAQRiSkPcRqYAYqA9KhDvH0POEX9fE7s4+th/nOPsF78VDr+mrma/uB9Gr99fP2qjzWhfViFQwcKpp73T7m2aKH/83HAgwyUgXrXAmgFgOT0R7UAuRjkfsIcqTl4kBcs3fXwMSTQzD2ohtGBx8vamj0a9qi10WvNwmpczlAnUk4hBKODNMndq7PH0sQ3VtvP5OEQLmE24o+gWsoPPrLjUPyJUBdcTh0iToMw68k29fYKwEK44C+j7yC8R8zzjQ2OQ3l8UkIv1RsSLYzKZIAQRaAONRwecx6cPOvcQlIofuCjwUYUElAM899F4EMku1KsgIZmBasYmAkQNTU2/POXkl0u0mADE6EgR1IHjzdnMp+vTkK0yOP+FVUFYhwcgYny0Cm3/0HYWJ81CCJgIoWmArmY21ZA6L+9O0gJDFQyHBCLId5FP8DQaEB7uxqhOutjVA60gBT15wDMleSGAhYbQaHAz08kIPCxmYodOyj6GOCWgw0tD89DbQDvNwWh0Rn0soC/cPp6pn/vfRxcxOUz61OJ5Dp3c7Yg3vFbrGpW01QOH6SYxIaB3IKqeZDunxjHZQub4dTZ3qW4vjH4H5HLr23GMtyu9XwbV5Q6fQGehJ3gAbaBUCCfyhKCq5spSdwCYiSAsnfavDoVjM49QTE36yGHObi2RPw7NJu+HZzrR2nXoDkc4cCKVCNe5Ae0gqU8G1egcR7kAIl70EKVPse5D5Qve1BciDdg4RAugeZdA9KTvegqukepHuQ7kE6dyiQ7kG6BymQ7kG6B+kepHuQ7kG6B6Uu3YN0D9I9SPcg3YMyAxToHpQM5OvcEQ8Uxv+XTAWKsLwVqKB7UGhw5oB0D2J5C6MH3YMSgAR7kALpHjRfYAPSPWg+fymQ7kGmkEDsQLoHRVie40hvsSAze9D7PYtwZvsPmyuH48gPaXxjWszMHvS6lQMVMS+p+tmDPuzlt1eIedWih+zvQZ86APq2LMSJsLwYiMrqHkRXDsMJRTgMyMT3IH54Fwevbkr66XdpOpD5mRNgvhTG9BccFSVs41rgpQAAAABJRU5ErkJggg=='
p15
sS'gmail'
p16
S'data:image/png;base64,R0lGODlhDwAPALMPAGhoWVlTMYeHdywmFP7OaOXlkFGEJaKhaoCaNKKnQSp7HMqeTcfIaf/hc+bDXQAAACH5BAEAAA8ALAAAAAAPAA8AAARa8L0wRrj4DgnEOQ3RjGGzAd1HJEiLJMT2pAdhKDgec16d/MAdqucgGI9CGhIpUy6Nzd4Tyvs4HIwso3hyPmUX1GJMHsseAxRCzT4HGIW4XB6QoAMAPCZPeUQAADs='
p17
sS'related_to'
p18
(lp19
V\U0001f4d5 Closed Book
p20
aV\U0001f4d7 Green Book
p21
aV\U0001f4d8 Blue Book
p22
aV\U0001f4d9 Orange Book
p23
aV\U0001f4d3 Notebook
p24
aV\U0001f4d4 Notebook With Decorative Cover
p25
aV\U0001f4da Books
p26
aV\U0001f4d6 Open Book
p27
asS'name'
p28
Vledger
p29
sS'known_as'
p30
(lp31
V\U0001f4d2 Yellow Book Emoji
p32
aV\U0001f4d2 Spiral Bound Book Emoji
p33
aV\U0001f4d2 Binder Emoji
p34
asS'default'
p35
Vemoji
p36
sS'bw'
p37
S'data:image/png;base64,iVBORw0KGgoAAAANSUhEUgAAAJAAAACQCAYAAADnRuK4AAAHLklEQVR42u2dL3BTSxSHKxAViApEBaICgahAICoQiIoKBAJRgahAIBAIBIIZBAKBqKhAVFQgEIgKRAUCUVGBQCAQCAQCgUAgEIjL+/reySy3N8kmKbd5u99vZmc6aa7I6dez58/uyUKj1Axa0ARKgJQAKQFSAqSUACkBUgKkBEgpAVICpARICZBSAqQESAmQEiClBEgJkBIgJUBKgOZEP3/+bF6+fNncvXu32djYaK5fv97cunWrefLkSbO3t1fl+vXrlwDl6Pnz583y8nKzsLDgStb9+/cFaJT4D7tx48YJw124cKFZWVlpFhcXq4doZ2dHgIaJ7SoMdf78+ebhw4fNp0+f/njP4eFhc/PmzebcuXNVAsTnfvfunQC1tb+/PzAS3qYNTlvEBLVChH2+ffsmQKmuXLky8DwfP37MeubZs2cDoz5+/LiorAZIRkHEVi9A/+nDhw9T7fHETGHoixcvznWWMitAW1tbJ17jH0iA/tH29vaxQQiSf/z4MXj97du3zdOnT5s7d+4cG5AsZHd3t/n69evgPaT1YdB5jA1OCyA87OfPn5vLly//EQ8dHBwIUATPV69eHcRDsaV1LUADqi9fvjSvX78evM5zJQOEvn///odt2PKxQ9UA4V0wBsVCvExuMMm2lcZBBNalA4T4Of0dnrpqgAKaNKvi583NzebNmzeDbY2t68WLF0O9E5VrAaoQIDxHapClpaXm6Oho5DNtI7JyszcBKgwgPAt7eXgeioU5otAYRsQrlZzGC9AIEQRGm4KsKlc0XGlz8BzZSW4aT8z1t9esAb0ATSDimvA+ZBkpIGxl/J5tjj9Ku0KdeqH379/nfdgeqsWzFjYFaIogenV1dbCl3bt3b2jzlO0KqPA4aQvk1atXAlR7Gg8EEQ+NW7w/BSg3jRegQguJZF9pKk+d59GjR8fFQoxEmk4BMfVMPKMHqhwg+l/tPwAFwmFBMVscpxTbz+S2MgSoMICo36SeJ6ehClwpRJNkYQJUGEBUmiPuuX379kT1o9jOrl27lv9hBagsgIhtwhhdB8moE9GJTlP8EDFRPMt7BKhCgAiUMcSlS5cGrxEQk2W1U3kCa9L+gIX3xe8ItgWo4jSebQgPNOooR9psxZAYzzS+coBiG8Jo0ZqIBVQPHjw4NhrpPl6qXVSMnykuClCFAKVnetIzv8MOSmGwrjPDuYYUoMIASrchFv2tcSk5ATUnGNO7Y/TOcrdMm6kFAQQsUVGmtpNbzyFeivoRAXdJEqAJxKnDSTvqIU4txrPpYXsBqgggbl5Eih6iLcFWQIU5vAxeiqCaWxxRE4qjILUcqhegMWk8YORcXQYm0vZp0ngBKhQgvE07TceQjHXhPcRHafedtb6+LkC1A9R1QJ4Mi0tz7YCavhlbWBskFrGUAFUIEKCkBsHTjEvJCbbToiPN2K5emQBVABAKj8I2lgtCCh5xk2l8pQClgXBuQzS0tramB/JE4s4gs4qYh1iHoJj+F4EyhUK8DJ37tFbEOLx5MqQAnYGimYo3QQTJ42YkAhVjYdIipFlY5Wk8AJGy585IZNuiUy9AlQOUQjDLjMR5mZUjQD0rPdI6y4zEeZiTI0BnIALmSOOnnZFITGQaXylA6bWeWWYk5p4HEqDCAIr5QM5IFKCpdFozEp1QVnka74xEAZpKzkgUoFOJgZyRKEBTyRmJAjST+p6RKECFAdT3jEQBKjSI7mtGogAVnMb3MSNRgAoDqO8ZiQJUGEB9z0gUoMIA6ntGogAVBlDfMxIFqDCA+p6RKECFAdT3jEQBKjSN72tGogAVBlDfMxIFqDCA+p6RKECFAdT3jEQBKgwgZyQK0ExyRqIAzSRnJArQqaXxzkgUoKkB6pqROA4kZyQKUOcBeeo7bGMEx+nrxDzpZUJnJArQiRmJnEaMTKwNEN4K0cJIvZMTyioGCEUaDzBpGj8MoHTri8KjaXylALFVDUvjRwFE2p5O9dADVZ7Gp934HIBQHIdl5d4nE6DCAAoIuqrJ4wBiTiKxEMsBU5Wn8XGtZxKAAqKSDpMJ0IRKhyu0G6I5AJUoAZpADI0aZow2QExxxduUvmjrCFCmMFj6PRmj0vhaF0dcBGiE6IOFQQiqBejkrOyYkyRAHUqPdIQnwjApWLUvYkUBGqF00oarezYk270AjRBfnpIzXAEP1cfXd5/l6rq+zVEXARoj9nquN2PAYSNe6MqXLpKJritO8RVXApQh6kK47fToaonDFIaJ9sy4M1EClCHaFO2tjQC7pIEKw9T1zyNAU6jrW324Fs1JxJJXNJsF6BRio3aF1iVAE6nrFqsACdBEXqjrWrMACVC2MBi1ENe/ax6OsvyvAFLzJwFSAqQESAmQEiClBEgJkBIgJUBKCZASICVASoCUEiAlQEqAlAApJUBKgJQAKQFSAqSUACkBUgKkBEgpAVICpARICZBSAqT+in4DzlH9JMrdpKcAAAAASUVORK5CYII='
p38
sS'version'
p39
VV6.0\u02b2
p40
sS'uni'
p41
V\U0001f4d2
p42
sS'desc'
p43
V\U0001f4d2 A bound, yellow ledger book. 
p44
sS'browser'
p45
V\U0001f4d2
p46
sS'annotations'
p47
(lp48
Vledger
p49
aVnotebook
p50
aVobject
p51
aVoffice
p52
asS'wind'
p53
S'data:image/png;base64,iVBORw0KGgoAAAANSUhEUgAAAEgAAABICAYAAABV7bNHAAAAAXNSR0IArs4c6QAAAARnQU1BAACxjwv8YQUAAAFVSURBVHhe7dpBTsMwEEBRm8uw4ADtIVrgHnCBQJeFiD0cAwnUHqLtnWjoRF6gEDIJcQWd+W9jj72I/NcJAAAAAADgxMS0/mhTzm5iiM9p/KYK1e20WL9sy3mVjv7E4eMP02K1SGPYPs7eQoxXaWw1KVbq+8/SevIOL73flPNlGsPkbn0dquo9jb9mJpA4RiRTgUTuSOYCiZyRTAYSuSKZDSRyRDIdSIyNZD6QGBPJRSDRGqkHN4FEM1IfrgKJoZHcBRJDIrkMJCRS2nZyG6gvAikIpCCQgkAKAikIpCCQgkAKAikIpCCQgkAKAikIpCCQgkAKAincBpL/idK2k8tAzZ+turgLNCSOcBXoa5zd0+V5fahwE6gZZ/+xf60vFC4CtcWJMV7UlwrzgcbEEaYDjY0jzAbKEUeYDJQrjjAXKGccYSpQ7jjCTKBjxAEAAAAA4B8K4RPavbRFMpyPkwAAAABJRU5ErkJggg=='
p54
sS'andr'
p55
S'data:image/png;base64,iVBORw0KGgoAAAANSUhEUgAAAEgAAABECAMAAAAV8YMOAAAABGdBTUEAALGPC/xhBQAAAAFzUkdCAK7OHOkAAAMAUExURUxpcS8vLy8vLy8uLi8vLy8vLy8uLi8vLx5IYCVCVS8vLy8vLy8vLy8vLy4vLy8vLwJupi8vLy8uLi8vLy8vLy8vLy4vMC8vLy8vLwBsoy8vLy8uLi8vLwBsogBroi8uLS8vLy8vLy4wMS8vLy8vLy8vLy4vLy8vLwBsogBsogBsoi8vLwVomwBsoi0wMi8vLy8uLTAuLC8vLy8vLy8vLw1Zfy8vLwBsogBsogBsoi8vLy8uLi8vLy8vLy8vLwBsoi8uLi8vLy8vLi8uLi8vLwBsogBsogBsogBsoi8vLwBtpC8vLwBsogBtpApeiABxqwBtozAuLRhMZi8vLy8vLxRQbi8vLwlgiy8vLwBsogBsogBsoi8vLwZkkgBupiBCUyY6RBhMZhlLZCk3PgBtpRtJYRRScSM/TSk3PiBDVAZkkxJUdQ1chSY7RhZPbABsov///y8vLwBroS4uLi0tLABsoy8uLQBqoQBroi8vL/7+/w50pwFqnisyNghwpQNomgBtpBJUdfb6/OHu9QNtoxtIXyQ8SC4wMfv9/jOKteTk5D8/PlKbwPL4+7XU5Bt7rAdjkRVQbS0xMxh6q+31+VRUVJWUlBJ3qRlLZCo0OSY5Qjk6OwRmlwZvpDg4ODY2NiOAr8Pd6khISIKCgr7a53qzzwlgjFeewtDk7vD3+iFBUPT09Apfilugw+Xw9vj4+EaVvExMTO7u7mhoaNjY2DExMYiIiENDQ/n5+cjIyDiMtvn8/ajN4D2QubnX5m9vb7+/vwVllUqWvRZ5qrLS4wxchCg3Ph1FWWuqyjMzM9LS0v39/bu7u4m71IK30t3c3JnF2p3H3GBgYKenp9Xn8Lm5uXJyck2ZvyuFsqPK3dvq8n610BBWecng6319fX9/fwteh7S0tIyMjFdYWEKTuq7Q4XWwzevr65ubm2+ty9XW1y+Hs2Slxo+/1o6+1qKiosLCwqmpqZCQkKOjoyZbdcHT2ypwk46otQ9vn2V3gGNjY8PDw5SnsfPz8/X19V2hxBeit1gAAABvdFJOUwCEIh37/Qb5AQP27Q6y8uMRzESM35yA6tX7CS+thPcWJMPRVTO3YnIstv5tGOwsvicYEnfa/ajFatFYx6QLN6+T5Zc9aCDbTkJreznypWImjk7OEObzwrJJYdoKVMIK+N/rq7SauVM8+m/F13Fe/B4UsmoAAAZASURBVFjDpZh3VBNZFMYhJMRQQgu9SReRYgHr2td17V239757Zu7MJJNDDRDAgnTpiAUQEUUsuIq69oa6tl3brn3Xsr338iaTSCakTOD+mZPzO+9+97v33Tc2NmZjcFRESEDkEJu+RoKzGACkSXEv9usTZ34SsPHyC3OmPtcH0FwpOCZNDM2DvGIsduZTrr3l9LMFUZS96+IcUOTWyrEZ0b1FPeEM4kmSQN+iY4qqJjmGYUHDnxlkPcZ+iacjiCJHzMCIzJbiVEwTvsNHPGktZ6g3I7P3QoQgUglMF74jp822qoRhUrZgaZmYQfg+GziAP8opAoTxXq9VgaK6SG6IGjiFPyrBBdzsXMcdPQZQzIAImuawpgTy0sp+rK0QAgbN8ZUXKxSVSCCicN9X6bRS/1QjR1g2g91ERmiXV4Mw+cGc402Is6xhY/beQykcVFD0VIkFfcawOldlaoolR5xmHMXKgnwuKjbQvK3CHMDBZ5gIkVo1OhOH9+NsGKIGRg8wJ5AnCL2C31xYDYoczZHUjZ04/hh1KJ3QO9RwMyQnN5AlDIpWZeZpWgwdqBnXi7Kre9R6qHEmJe8nGAYub70+UF7bkpbDdIYy5YsufRKefXZNd3pBs0xVbKibGMRvBKH/ZBRlsH8u/LaMQ+pq3lCnA6XOG2ycEyHSFIzpUrlc62miLr+hk4Mqy9f5M/WluUaF9kAUhFKUcFuMrvi6IUufdEYLkiemjTcG6i8DR693XkEFqz7IaTGCrsg/srFbpn1avTNaFPFPGAEtEcN415m+t44p8j5TcTtVSads3buS5SxtVLM/qn+tUYTaGQFNFoHXNCR0pQIMQUyCKfn7NQnuL2UPRJT+toJ0ietZ+LAAgHmxKPODxZkZmJGgKzYXrOxOTPnw0S7KO9xQ6Mk+DiLIq0yV6xXMMJREyuXrW3XCrbn0cU+QZDI7E0sqUzFzoaQfjyb12eRTu8gF/gYFG4Ymhw+6WUsy5RivoJdl46frSR8BFxSJRpn/+4m56BLL4EeqO4cnl1MQ78TNzAPE7rNHqlqrFGmtvED0vTJ8+SoKPAwk8gTxB+OQ5XPScov4gFAv410PdoLjJG7J4pJA+J4v49VbRfwU2pCF72inYIyfPkcw3kUIecc1R5HzSow43IB/uJ6ECdM5+5QzO6Vzm3gWDGV2ohPfvYIUedjrW3qoEMTSNNT0LRk8OcSaZnzTpxT4JOgfaMgikHotbs0pgZJEnkdSn+3CP1lNiqM4N67/BBg9K1aVelyhHfeWD4S8uO0CBSHBnJJNcoDQdzFMdbQqr5IfKP0cjl/cCdJRXA+FeyverkVTg2g6yk8jYivrRWeuqW38AtD2UksoMZWKl0TKlCN4VzmAo7vhJHL3hpLqnwsxgme3bkZeXEeBp1/P9UwK1N1fGgsJPiiidC3yIgUu4T1HrF+UmGxfvvTzE6WE0jLpS40XwdbYMuLvSNbswPHOhs0VtEUvXsL/YbwoMHoxyqD+NDPXswoup5hHqc8kM14URpnaGckO9q7ZuPdeHW1+Lt7/E3nR+FUt8QKq/ZTuQj6/R20SVXceT754EhxGmVgexk4ActXtTVrUlm+umPACbcKL3Q5A6ydV/9EBHeoa8oLSmBcLTHixewR4SIGkVj9Gda3dkN4zP+K/LPzROtKIF/W8FBYv1KC+b9OqfnWZmujpxTY0F2Xh5h+eMaMZ1Iobp7QrWnZjqQHpITsXbSWWNuwYN4Qi1/24XLt2rM2vI7he/JfxYn/LSz9CAVCw6odt2vzOXcGU3V5Ec7GeFMfweonYeckQ6uT2A1qprp3QdQ29Z4tmLi4K5vkE9Z/oiFA1N3cka0idR/axoqefNzoXze3s7s4OjFQP7mv9eb2QxuT0IdaLAU5WvPuGRLqJgIQLp9t0pvo9I/FvjRe93a17iwpsXZj8bmjzy/ojN62cnYv2Vr5qJdMDmPzav2Prt56iOtrQXJT5W//Qdop009RvN7Otd5BUx198vGgivwWM1e8gf5YDtX07CaGC3n1EkLg7i5Hod2+3/QTkrnoQxvT6c8v8p9FySa2+eWcns6+EBNv0PuI80YAhaxiOFV40OmCeHw0oPxRjnGz6FgJbGfNsikjo87ctyViPkFAPM9PjfxwXtVdXp2fIAAAAAElFTkSuQmCC'
p56
sb.