ccopy_reg
_reconstructor
p0
(cemoji
Emoji
p1
c__builtin__
object
p2
Ntp3
Rp4
(dp5
S'emojipedia_url'
p6
Vhttp://emojipedia.org/briefcase/
p7
sS'index'
p8
V839
p9
sS'code'
p10
VU+1F4BC
p11
sS'apple'
p12
S'data:image/png;base64,iVBORw0KGgoAAAANSUhEUgAAAEAAAABACAMAAACdt4HsAAAC91BMVEUAAAAAAAAAAABgSkUAAAAAAAAqHBoAAAAAAAAnGRgAAAAAAAAAAAAMCQk6LiwxIiE2JyU5KykAAAAAAAAAAAAvIB4sHh0/LStVQD1HNzcAAABqV1MAAAAAAAAnGxozJCIuIR9kU1FKNzMhFRJEMzJaRUIWEBATDg2Hc3AAAACNd3RPPDgzKylQPDoAAAAAAAAAAABeTElHNTWKdnNXR0QSDApuWVlvW1p+amcTDQ0tIyEAAAAcFRUAAAASCQlINTNZQ0FXR0QiGRk6Kig0JSIeGRmKd3MAAAAWDw8tIB8oHBtGNTNHNzNAMC5INzRFNDE3KidKOTZRPz1JODVLOzhPPTlMPDlPPjtpVlFUQj5lUE05KyhSQD1WREBYQ0FVREBWQj+ro6I6LiwxJyVDMy9kT0xTQj5TQz9aRUM2Ix9KNzU1Li1NOjbl5OROPjtAMzBBMS5RPjs+ListJCNZQT5USkk1Kyk0Kiiajow8LCnKwsHY0tFALitSPDmDfHvo5+ddSUVpVVBGODVKOjZDNjNhTEpIOjfj4uIzJCLUz8+zq6n6+PhcSUQ3LCtZR0RJNzVaR0QzKSe+tLE/NTM5KSbTzs07MjEhFRLRy8pZUE7x7u6AeXjx7++UiIa6r63Gvb0+MS5FOzlPRUOxrq7x7+4sHxy9srBeVVSYkZCimZimoJ/AubfNyMdTSEcoGRdqY2NJQUCMgoFRPDnz8fG6ubnc19fT09P///+5tranoaBFNzSIc25nT0qgiYRvWldhSUVxWFJ5X1qDZ2KchoGSfHlnU096ZGGXgHyFcGt4Yl9sWFSLbmi1paKBa2alj4uLdnOolZGQeXWLdnJ7YVu1pqKmkIx2YFyLd3NrU010WlWTdW9fS0heRkJYRUJjTkteSkdsU05tWFVVQD2AZWB0XlqAaWV+ZmRtVVCEbmuVfnqNdnK2pqJ/a2daQz+zoZ+vnJmOenatmpeJbGeSdG6wnJmLdXCqk46dhoF2X1yijIirlpGRenatlI5UzBjUAAAAS3RSTlMADi7UZAL6EDL6AQsGFDX4+PgDFyX4+Pv5LjH6IUmv+Pj4+un4+k5L+gj7+0D3NE1c+Cv6XX/f5/lOaxFIYxut08483+Bb+lGRxLFkwCezAAAEs0lEQVR4XuzM12/aUBTA4ZLKIrINDwYJEreVQCGElS3IEmSvf9nb7L1X9t6zez2UXsAXyank+9C3fG/nHJ3fm//l1SuMdBE6FcJFYhr/XcbQ4luVxZDRpa1ABpeK1a8q1eJSkNQSwIllmvv9Ao5eJnAtgfmF3fTOp5YdBZjSuwvzWgKYwemQ0399VIBRdjgNmKbAsLUsy/KpJLIdonTaWpStw1oDnmZZki59W9sfgO0t36UklZserYFZe0MUjzyb42PvgbHxTc+RKDbss/8K4DiOKSiT0yKw7N7qxqj5HWAe3VjdY1nB4jRRmKL11H2nSMPkAOSds9wLwsnKmtfY4V1bORGEe8ucdwCaNJBUO0ER0/6ZkXXInc/X66W6e6q7mHK3xno+716HRmb80wQFAqQpECk8ZHrcVjKZSgXO7aly27t5KEQCJhIECDP9lHt+/Izk8Tn3RJsJEND10SWu8BNRgSvRfToQ0A/amHCuiigXZmyD+nag35aIcz8QcfGErb8bmLiLhL8hCkfuJmAgdnMdR3R9E4MBR40p/kJUZGoOJWDls8wXREyWt8JA6uIqgejqIgUDvmjyPIvoPBn1KQH7AZ+MIUryB3YlMHSYOvuuUuuhvp6lDodgYD96zKsdK146Rve7gT+l1llT2goch+Hq1CriDDiinfHGznCvvfGynyAsErIUCSc0pomlymYLRakiu4AKZbVux32363JO7/kUbeyM9/0OTUIgMZ6bzHlumMn/l/eCq3R23bcl6ouLi49vGDe5Pr5umALGb97YcT1hu98K9ML5xNXVU854U50J//4p+B1m6q0DP7u6SuTh3lZAu+qczOdykcgv1o+GhC98/UJwHfYlhMfcIhLJ5fKTzlVtK/DAHocxm5P1F4dhJlnh6rOWqpF7wjD8mdvZMDhuf9AKaArBwDLhMUCwzweCGMvmhD27Fy8FFzsEyr7DAkGfD4YMHmI5ECxoxP8gnowWiUChECCMgGtqagoBSpfvF1LTC7zp1OeJy5IJYQ8uwNjYFaPJeK8YgGicckNRDxGcmJkI2sP+5L97/6RSqWleKvV1b+806Q/b+TPhiUJuCqchSQDBV1YYB401I9V337LZ/Y2N/bcs9vdTNps9qjZfxmgHs7KCI5JAjGY4DpzCUCT53TOzdpbJPJHIZI6LE57vSQTFKNzBj+mYGNBaQdzBwXGapinQHft7p/J+fn19nsP+vqtUCAJygxR7xoUpaNWKAQC1SVAY5jand+fOa+UlVrl2flIYM8AYRklXKCAGhswIKIORR19q5TneUvm0aMXkC8Q8JAZICJUBybXa2fYsb3v7uGIC5QuIlAZisAzqXZvNbB2+YR1ubX0gDKh8EZMENEYLIkfunmxuvmrYPAqYEDmLUSMJWCE5C7nzvCkw449BclZJoN9vsNxi8NtbvKb/uvdLAoD1FpdLHLtct++ANBAymxQzh8TAQIg0KEaGBsSAnQQUI+2SQMlrVsxbagUGVemQUbFQWiV8YLS16w/SY4qlD/TCJ45aN6pX3VNMpR/VqYXPvOGRh4/uKvTo4ciw8JnXoe7TtQ92KTTYrutTd/CB7o4edVunYm3qno7uO//fHzHOYG3Yhw0LAAAAAElFTkSuQmCC'
p13
sS'twit'
p14
S'data:image/png;base64,iVBORw0KGgoAAAANSUhEUgAAAEgAAABICAMAAABiM0N1AAAATlBMVEUAAACaThyaThyaThyaThyaThyaThyaThyaThyaThyaThyaThyqeVjGxcXM1t2NQxp6MhZmIROQRhptJxSXSxtzLBWHPRlwKRWUSBtpJBQBRbadAAAADHRSTlMAYL//ACDP7xCAQDB7/KQkAAABCElEQVR4Ae3XD4qDMBCF8UneJKlWq6P1T+9/0WWXstASXWOGhUJ+B/ggiQiPthiLCGt4A3GU89jgXUrIBWwKLiHkscMfDxnsModDFrvs4RD+cDR00Q2FquY3dRWSQvzTuXLENSSHKo6qkkM1R9XJIY67aIX4w0LGIoM1z5DzyOTdd8gFZAuOiT0UeCYDFYYsVFiCkhIqoQ8KNe3tV9ucDzW3F83pUPsaak+Hbm/+NZR/tE7nsjvqdZ6/JxmgYBCS8Y5s91FoknFApmGUiWYR6Ttk6HoRmQmLKFhAWB+S7bGCgHWRTMv6/LLnSTJMc/lnl1AJlVAJ7VEbNWozS2v4qU1RrXGsONe/ABOtVreNlzWXAAAAAElFTkSuQmCC'
p15
sS'gmail'
p16
S'data:image/png;base64,R0lGODlhDwAPAKIFAF5LAJh3AP/VMtyuAP/qlwAAAAAAAAAAACH5BAEAAAUALAAAAAAPAA8AAAM/WLrcDTA6BYK9YObHrv9BERAAYZ6mAAiWKrwwvLYligIDpIJYvq4xwWCI0wFhQ6LP9Uomi0WntFiIWK+bySQBADs='
p17
sS'related_to'
p18
(lp19
V\U0001f474 Older Man
p20
aV\U0001f454 Necktie
p21
aV\U0001f4c8 Chart With Upwards Trend
p22
aV\U0001f4f0 Newspaper
p23
asS'name'
p24
Vbriefcase
p25
sS'known_as'
p26
(lp27
V\U0001f4bc Suitcase Emoji
p28
asS'default'
p29
Vemoji
p30
sS'bw'
p31
S'data:image/png;base64,iVBORw0KGgoAAAANSUhEUgAAAJAAAACQCAYAAADnRuK4AAAHDUlEQVR42u2dITBsXxyANwiCIAiC8IIgCIIgCC8IgiAIwguCIAjCC4IZQRAEQRAEQRCEFwRBEARBEARBEAThBUEQXjj/+e78z85Zs3vtrr3LXd83c2bemN17d8/vO7/f75zrjUoQ+QAVp0AUSBRIFEgUSESBRIFEgUSBRBRIFEgUSBRIRIFEgUSBRIFEFEgUSBSo6zw+PoaLi4vCxr9//xSoF/n7929YX18PAwMDoVKpFDYmJyfD1dWVAvUSz8/PYWRkpFBx0jE8PBxeX18VqFf4+fNnFti+vr4wPz8ffv/+HTY3Nzs6NjY2wtDQUFWi09NTBeoFKCcxqKurq9nPnp6ewuzsbPjx40dHRypQvJcClZydnZ0soGNjY1lZub6+LrwPYoyPjytQLzA1NZUFlAYalpeXu9YLPTw8KFCZoVTR9xDMuDOKZaa/vz8sLi6G/f39cHh42NbgvTMzMw0F4jUKVGJOTk6yQNKfcD5DYxuDu7e317EdXixZ7L5Sgebm5hSozJBh0oaWHVgR2SH2WOfn59WMxxgcHOzp7XxPC0TGic0yJ8QcJFK2ihKI7ANLS0s1WaiXDxV7WiB2WzELINPu7m5h/Um8JlAa0/twRpRHK8cEbAAUqE0oBTzHYmeDHPf397mvZ9dFAMkI6W6sSIEQ9ezsrOY+09PTDd9HVmx1Z3d7e6tAb1lZWckaTk6MmfDR0dHqqmt0ZsNr8h5c0pPwuj9//mTSpb1JUQKx64uZLw7u+/LyUvd9d3d3Na9F9nojnqQz6OPydoaXl5ffSyBWVLvnLDStedt35EMyykijLTa7KASLg54lfbp+dHRUDQ5lMH18gfhpz7OwsJCNt/eamJjIJIgLBLlZHOnzORZEI25ublp+FscRw7cQ6G1vwsRSbphsgkGA4rMrXpueu/A4ot6vVMTyxbX499vt9VcceVt+FkQ71yT79oRAZAFS6/HxcVhbW6tJzwQ5fmEO+Zptjr/6QNpYhsk4MQOlCyMOHsTSO+VBdmQOybrxEDNmQpprrsPiSks1GY4MW2qB+KKpJHmD+t4MHNp1IrAx0zE4M4oBpTTF4Gxvb9f0GAQ6Zjp6mFj6vsp5D58x/b58l1IKxORS75sJJPWfIHJy3AwEj+DyoDQGll4lBpc+JgaW9P/dSJ/3Ma+lE4i0GXdBcbDaKWHf6Vc+PwvKXGkFQpBUHk5/yRSK090zs9IKlP4CF6fAlDL5hEO+sgqUbssPDg6MpAK1RnpO0+u/UKVABZBu2b/D/0xQoAIFEgUqRCCeQnPA9ZWeLCtQiQTa2tp69+heFCi30fZcSIHaFqjILyUKJAqkQAqkQAqkQAqkQKJACqRACqRACqRACiQKpEAKpEAKpEAKpECiQKJACqRACqRACiQKJAqkQAqkQAqkQAqkQKJACqRACqRACqRACiQKpEAKpEAKpEAKpECiQKJACqRACqRACiQKJAqkQAqkQAqkQKJAokAKpEAKpEAKpEAKJAqkQAqkQAqkQAqkQKJACtQtgfjjfgokbQu0t7enQNIad3d31Ricn58rkDTPy8tLGBsbq8bg/v5egaR55ufnq/OPSEX+cWMF6jHod+LcM46Pj4vtsxSo3Ly+voabm5tMHOa0r6+vOvcrKyuF/2n1QgQaHx+vfgnqsQK1xtPTU3h4eAiXl5fh5OQkk2NzczMsLy+H2dnZbO4oTQMDAzXZJo7BwcGwvb1duDyFCXR2dlZdCevr6wr0vxRkCubm8PAwC/DGxkZViomJiTAyMlKTQVod/f392Xw/Pz9376igqAsvLCxkX4oJYTXVE6gbK6RIIdgqX1xcZH3G/v5+liUoG4uLi9n3Gx0dDcPDw23JwPsmJyfD3NxcmJ6ezn0t99nZ2QmPj4/dP2sq6sJIEyfv169fdQVi8r9SL8Fnvrq6qskSrOilpaUsS0xNTWX9HSv9I1JwLa65uroatra2wsHBQTg9Pc0yFGLWkzXvnlzjs6gUeXFWaGyombC0H0IgfvZZWaITQkQp6Ef4PmQehOMe3Asprq+vs8zw0WzLXDX6DIjXkwIBk0eK5YsODQ1lq5oazYTTBLLim4X3xeby6Oio2lymZYNgtls20l4CsRCM63L9KAXZic/M5yBrdRMWwtvRyvyVUqAY+CgRA3HSVc/DvhikKARlj5+zo/toc5lmC6SIJYRsgRRkJ4JBtuq2FGWn0q0bEZjd3d1si/lREdJMgVz0FWQfpKOvIMvRw5AtkKJeXyElEyjNRjR9sYS9J0nMTJQrMgUPBm9vb7MSUuZdnAJ1AA7J3is5SqJAuXDO0UigtbU1I6RA+ZBhKEdvh32LAokCiSiQKJAokCiQiAKJAokCiQKJKJAokCiQKJAokIgCiQKJAokCiSiQKJAokCiQiAKJAokCiQKJKJB0gv8AQ/lnkUlmnGIAAAAASUVORK5CYII='
p32
sS'version'
p33
VV6.0\u02b2
p34
sS'uni'
p35
V\U0001f4bc
p36
sS'desc'
p37
V\U0001f4bc A place to store notes and other office materials. Primarily used by older men. 
p38
sS'browser'
p39
V\U0001f4bc
p40
sS'annotations'
p41
(lp42
Vbriefcase
p43
aVobject
p44
aVoffice
p45
aVperson
p46
asS'wind'
p47
S'data:image/png;base64,iVBORw0KGgoAAAANSUhEUgAAAEgAAABICAYAAABV7bNHAAAAAXNSR0IArs4c6QAAAARnQU1BAACxjwv8YQUAAAPHSURBVHhe7Zo9TBRREMffPEpj7KQyGhs1SkgsuLOzgMoDTUw0aky0oJJeuKidfBR22kipYmUicB0UJCZ6R0eUqImJBYWRwsRo644zuwMcB/je7u0D1swvgZ2ZYvftf9+8j3lnFEVRFEVRFEVRFEUpGCDXoCyODfQiRkMI5iwYOCLhTCDiT2r0At1rrjxSeyLhYAQVaHFi4ET0Bx8AmOsSyhUSa9522KGeuzOfJZQ7wQRKxIleAcBpCQWBRFomkS6HEimYQPXRyhyJ0yvuOvxC9NBf4qYCjTm4neB8z3K1dkbcXAkiUH20/xql1ZS4MXE6gJ3oGZmZl1AmeDyLEG+3pi2J97A8MntP3Nywcs2bilwTEKfpC/e1Kw7D9yhXZ2+QIJMSSkAsiZUrgQTCC2LEANjHYuaGtfBIzBhOZx73xM2N3AVqjFeGqbGHxKWujyt59JxWeFDmsUfcmCjCm2LmRv49KDJlsRIQ3oiVPwBvxUoIkGaZBun6WOUOoOkjszOJbEBjw6lNPaiNWcvFtrMaYl2sZr4jwIcsg3hqgRqjldf05S6KWyh4JuXJQlwvUqUYTd8viioOwwN5/A4p8O5BPENghJ/ELTRg4aTvytu7B0VRtGVVXFTSvEugddD/gwrkQAVyoAI5UIEcqEAOVCAHKpADFciBt0DWWK6/5F7X2U24NoVopqy13u+Rejcfn1ZwYQqxxJs/Ce9fkvJHAw00ytXZl0nQn0z1oGa4gogRdFFLurfUZnxBnEaAVfES0BxIe55GPZwPFT/Svd6Tt5THwWLbArXCxTS6bTcgHia30wBsrjC2QuKUqrVL4m2iPtb/lBo4KO46a0KQyYUwEhaXeAgIUdr1Fig+yjF4lQajemm4Ni5hL5K0XNtBQ3dyXWd1p0pffMRj8AqZLMI3jmXtFdJ+LsmWEMxz3/v4C8RlVgPx6YR8wQUuY1oLz0Ie/WalSZBjaMz5TWVgg0NBBWqFBOO68xcWjJ6+nGUwbIdYDItHEeE4pXZXa128lV0XaFto9qCG/qYx6Ct5SYog/MgiXpJqkZx5JSkqQmx7FO1ifwjkCb3kjkfG4Z7pL9Der6T/eZa1ZUDfdfa8B8VwOsZrlw3iZUKgE5Ri9SCG1kr0pQab/0KJkxbdrDpQgRyoQA5UIAcqkAMVyIG3QFxOELP40JZHLCfeC0WmMVp5x2sWcYsJLUpL1do58ZykSjHosLd45y5u4YjLNGDvi+tFKoG47sO/aqcN5iQt11ckvO9hYejfNLW9FKLqqCiKoiiKoiiKoii7iDF/AeDokDdaYptWAAAAAElFTkSuQmCC'
p48
sS'andr'
p49
S'data:image/png;base64,iVBORw0KGgoAAAANSUhEUgAAAEgAAABECAMAAAAV8YMOAAAABGdBTUEAALGPC/xhBQAAAAFzUkdCAK7OHOkAAAMAUExURUxpcS8vLy8vLy8vLy8vLy8vLy8vLy8vLy8vL3WfqS8vLy8vLzQ4OC8vLy8vLy8vLy8vL0FNTy8vLy8vLy8vLy8vLy8vLy8vLy8vLy8vLy8vL2aGji8vLy8vL2mLky8vLy8vLy8vLy8vLy8vLy8vLy8vLy8vLy8vLy8vLy8vLy8vLy8vLy8vLzAxMi8vLy8vL2KBiJeZmi8vL3Wepy8vLy8vLy8vLy8vL35/f0paXnehqzEzMy8vLzk/QS8vL3OcpS8vLy8vL4KCgi8vL8HCwlt1e3KZoj1FSFZtc0RRVC8vLy8vLy8vLy8vLy8vLy8vLy8vL1Jmay8vLy8wMGF+hjM2NpSWlk5hZnBwcDU3ODY6O2GAhzs7PGeJkS8vLy8vL1Ztc2mMlG6Tm5eZmURERHijrS8vL////y4uLnmkri4tLXikri0tLXmlr3mkr3CXn3eirCwsLGqNlS8uLiwrKztCQzAxMWKBiDtDRXKaoy4uLTY6Ozg+PzU5OXagqj5ISjI0NEBKTPD19nSdp7e3t3ehq/39/TM1NXOcpTEyMlx3fnWeqG6Tmzk5OTpAQo2xulVscm+VnbOzsy8wMGqNlEFMTnmlsDEyMzQ0NDc8PYCpsv7+/lFRUfT09Pz8/GmLk1BjZ3ijrmyPmERRVEZUV1hwdVNobU1fY05gZHGZokhWWvj4+HZ2dsbGxtbW1kVFRX6nsF56gY6Pj0paXVFma3V1dUNPUmeIkMrKyurw8tvm6WOCiTM2Nzc7PElJSWWFjFJSUk1NTdDQ0Ojo6OXl5T1FR6enp7+/vzc3N1p1evb5+j09PW2RmmF+hG1ubklYW83NzZq6wtnb226Una2trVlyeOvr6+Dg4IyMjFRrcKqqqktbX1dXV5K2vltbW6GhoUFBQa/Jz39/f2RkZLXN07u7u56ennmMkeLr7VVVVZqamtPT09jl55+9xNTi5Xp6epivtWpqaqTByJGcn8LW2kxdYOnw8V5eXuzy84eHh6+8v4attkNDQ3eHi6C/xq+vr1lJLE8AAADQdFJOUwDkA/TvOvx6/v4BBvjdMpcY88VcJcvxIBPV7f4QnPVGHFZ0qEoMbbonLT6TQfn6z/X7iv18N2RO+PH9/dP1r/y45/3Z/vP78/zyX7+B9o2GXvoq/PP9/Pj+/Pz5/vXYoPL2/fv+//////////////////////////////////////////////////////////////////////////////////////////////////////////////////////////////////////////////6mrEPYAAAIQ0lEQVRYw+WYeVyTRx6HBQQS3AAilxwrCiKH4lYo7G6p4skqovbc2nbbvTLvhLwQwlWkSQCBQg6ywYCAHHKEG9siLNByF1CoCN7gffRu976P7nZn3vfNmzfIpzX7b59/eHlhnsw7v5nvO5Nly76deAYF25oIdvVc8X9prKPiBFZeJqx2um1winS0WOYQZQUgyQVCAHhW+9dbKHLdDGDx8HC1kbHhe8UZUhLYrLXwwbbw4JfH5idqjIzPf7HrysIoBHGeFok8doKMz98gCKKqqrYDU4uuiTdO3YM2URaJ9oWRY/MEUfPVwsKOTsyDhc/PdhAdnSR41ZLxtn4VkP9EnThTITVRfLeWyM8BOz0sEDm7wal8grh2RwoQPAT6If3sGjFRTboHWCAK9oJD/3qf6C+G2w9G2EceOhQYccALFvcTHbNSsM4CUUAYnAy/eP8TCLYaR2R9DFD+5/5/myDwtWCQIu2yGvOEyT0QHGDvOYHUHrFQpQcx3zwnrVf4ePr5ubraOvESbqoL+DchcAl1woTut48DCa3Hj4/oQfRGVw8/T58V1kspVjjbrlq3xdc/Ji56p5fX8niQmt7d3S1LBSxovOFkT0+7Htgt97KKjovx9z0YGOBh/pjro3yjveKBGakJCQmp5rcARPe4v/PcBaHB3HXlbwPoFQosZ3OIaTlsADCjePizW7dGp9BfSLQ0QYYSU0GRozSip/tFhYE0LS2N+mAXP3Z9AvD3K1/Mj49fejAFSGX1Czuef+xGPuKjC+9hduUbufuLxxCnv4/pnJ2dvVWIVLxIRhQkIKsv4SXZsaAE5NiZebxWH4mq8WOjyOTPlG+VHfi4Ct9/8x4Jh/sJi+j/JQSb6WBx2ALPXaBuXkHj8zzTnfcRRxfxj7+9Q/HpuxSfvnO0lqjdQQKBKz2D/MmxCaqjp0l4eBe+qv3N/d9evHjx9q/M+fcJhrdpTtz+01+O3iCBlSMtcpHeqaGad5Lw5VO4Nx+eSF4K4WLQrdt/hsBro1H0Ryr+Oj6Qwi/fQxe/e5ttI0aIGBK5HMckJgkTz/OADZ0r693ITkpUc0dKDqNUJD7En1WgUPD5RSUlJZdTTtIMvGaiS0XhrU783iZgR78P/FaTv6ZE10al5FuXiKpLnzTp6uq6DY3Z2ZPpWq228nWawhwT+iwI0XopbBYiEVhlLhqvJqHsD+/mj+nRikog2YRNWAII0TLMkeVOU6J95qKJMSSaOXG+cqgSoc18mOxcjKG9vb2lp/lql3dDnhA/GhOZHq8wojffQiKNmN+QgtFIHoavwBQgUDXQ4IuEtMiejmcrc5GQKZJ4EfgWXUYTSPeT76QyIsfFIiP19bhxUhJV7cTkggKFWq0uOsKhqEAk+u7SIq0E9Qi1yMvLQ03aGhpOjoycV6madLq61tZug8FQls0htyUlcWlRVmaeUDFQ191YVlaWq9XKKofkg4M5ygxI1yorC1cdMr9JpWnSOrFJ9Ph28gFHJJJkplElZ6uPm1KBps9AoHjLGRoakmVOljXO1XF7tMadPF1lEtUrrpdlp2vTtZOo0o2IuZbW1tZmnU7XpOrq6hro6+s72dDQMCORFKnFIjFnjAJsGNGFcxA/mlCoPnJZo9FIioqKCtg1h0pmWnBJSUl0DVHVlhCdKmZEQrGx/MJvRPQz06PZkAuLRBYg/rkWGnsUz+lRrNrs39BUEnOTRERNLBr8jCKhWJJuFK3iwbuEUbSSjz4Ep40wGU2/PDRMbZiGUiMpbJp0TU93lSpEHBGAZ2jRFCVKLhlQNTU11/21vb03N3dShhmSmxgspClHU0HelLyEKB8AJEocyCzMIMlFqZHFXpJ0xCRAoFcOZtKiQKPoBiU6RlIiVbleKX99ETI2SdCcL2s0GObqmq++liIpoMaIDrZ9AHzEEdXn9Y14l6YsoqGE4QgatiKFWIgXNJpNQo5oHQBnWdFeNNjMlDMDteJGv7GAtIjJbHuOCP7gh6bXB1tu3FShRvWTaDQ49byNr4ABDfVozFvEHujNRSKcI6juEolmpg+FyFVdc2tLu6ExNzdTJpPnFBbmlDMoK1VY5L6GFuHNKkdU0Ndzs9vQ25udqUUZUohCBIAE+g1AhwiTIiTIyBnUiWdkcPvjjIh59dMiMRUjbPnRJXpfZJQry9HUGZTLUfmye3sb57pbenTT50+qk9CiZV7ZZj36cbKQ34wfQabNzi0zGNpbWnCEXFWpukZGvFM0mhKJpA3XTZGMSyKiMlsQ9PAYXUfjrDiCBlVzua3tiFqtYHMjiV1sZrGQ+NImsJresgUaZzYW6dgUwQ0eYfWL0AZ+sw8lioonX+jAorMVjMiSFAlvhCCG3iK7CmDxGWzqPwfxGFlgESUlTz8BQCi99bN2QmfO35+qIcZHpVSMfB31zDxFk1TM31NS+tThVBBmPJwGRwMIX549NvHxFDzsnfhQrrGzG03U8G179pTM9L20+6dPtbTHPvmcHs2N1ez5bY0bOh2QFaM7PqiAZX18EdpBof0RPzx827ZtbW2XU0q9n3129+4fNfe03Fy5MvbJF+WDTzxjhw4GkDoY8CJMZxKP/avt0EYUFitB6otz15vw/qh17969sbGxMlmlXP7cpk3PhPHo7Qza0KRyTxbLfZ25h3yPwA3uaEuPjyBZ7BaIwbwhewyxC4u3sXIJDVh85vLZeNDF/WuOHDyenV2Y13ZBtFtc3Fb/0C3rAteucXza2WHJg2yI/VY3ATpkLae+whAIXnFzc9kQs9XX90BEROShtRtDHB2DPPx8HuW7CGvnp21tQ0LwlyqOQUGuzp6e1tbWDg7Lvs38DxEpAofg/lujAAAAAElFTkSuQmCC'
p50
sb.