ccopy_reg
_reconstructor
p0
(cemoji
Emoji
p1
c__builtin__
object
p2
Ntp3
Rp4
(dp5
S'emojipedia_url'
p6
Vhttp://emojipedia.org/clipboard/
p7
sS'index'
p8
V851
p9
sS'code'
p10
VU+1F4CB
p11
sS'apple'
p12
S'data:image/png;base64,iVBORw0KGgoAAAANSUhEUgAAAEAAAABACAMAAACdt4HsAAAC+lBMVEUAAAAAAABmNwYAAAAAAAAAAAAAAAAAAAAAAAAAAAAAAAAAAABpOglmOgkAAABmNgJiNgYAAABIGgANDQ0AAAAEAgAAAACaajVJGABtPwydbDlTJABLHABQHwBpPQxcMQCSYjAwHw4AAACZZjEAAABPIgAAAACSXiaLXy8AAACYl5VtRBYfDgBNJgBCGAAAAACDVymDVSiNdl6vr6/i4uKXl5dsRB3l5eVnSSjg4OB4eHhfKgCIXC6FVyaFWip7UyR9USilpaXa2tqnp6fZ2dn////8/PyYjH+GZ0OWi36mf1OTYSuQYCqhe1Csg1WXZC2agmWOXSiwgk+bjoCeeE+kfVGogVWLWySeg2OvhliugE2glIeiflV1PwaIUhx9Rw22hU6pgVCKWCGjiWyzs7Ojo6Orq6uoi2u/v7/FlmK4uLjJmWTDw8O7u7zKnGjMnWmvr6/n5+fp6em6urrk5OTClF7FlWDImGLFmGW3t7e1tbXHmmfv7+/OnmqmiWnAlGHs7Oynp6fDlGDMnGbElmWdajK+kV6tra3DklqgbDTClWHBkFmysrKihmbw8PDHnGumimukh2f4+PjX19imcjuhbjiaaDDW1ta/jVbGk17Hll/Ekl/Nzc67jVqbm5uxsbHHlmPOnWfIlV6oczumcTeqdj7JmWjBlWTq6uqhazDd3d2sjm7AklvQom6/jlm/j1uliWrr6+vz8/PCl2j29vbQuaGjcDrg4OG6j1/JtZ66pIygn57+/v7Mmmf19fXZupjIyMja2tvY1dLEmWWibTbGxsbPz8/6+vqonZHLmmO+k2HBkV+8j1y8jFft7e35+fnx8fHFxcW5ilb39/fp6erLmWS2jmOhhGX7+/u4jFujmpC2jF6Uj4rKysrT09TDlFzRrYakbzXMzMzVt5bQtJTR0dHy8vK3lW+oh2PDsJuyq6SDcmC0noSKaUa5iFOteEK7kV+2iFWZdUv9/f2vnoqVckqCY0CAYD6xhVSxiFmziVnUpXOuekK/iVHQ/8LPAAAARXRSTlMADrMoAQtVExkRBAizsxaztCToIRRJHd3ks93o6Oiztd0sL91C5lDk3T3+kFmduDnd3eswCe3fn+Njmuqmpt3d3erY7NgoGSP5AAAIN0lEQVR4XpyU1W/dSBTGq6hVN22iRupD1Dx0E/WhVftSJi3Cn2Kmy8zMEGZmZmZmKDMzLTNIO7Z7m9hVutH+bM8542/ud2Y0nrvtg5w8d+bMuZPb/jcnvhoaHx/65sQWDLbvjv/oPfZ+/fDU+fOnHn65930tfvd24e/TPj2QknoAkJyckpyceujosWNfHKcOnz19+uxh6vjnRz87lJp6KPVASgpQwZjkT9IEDrvSDlbfH300+ojncXd3d3//i5fKm68HBl7fVL580d/f393NSqOjj0dHRx/d//tg2q4NBjuOuP5RVSyWLV0ZLmNan02s/gQYWgvf/u2XH9/cDq8Nsf3ViWc3iplirYYpr4lcdB3ZscEgPiGnJVCD46SJNCwszCnrLnMYp1/9+ubVmJHv1Snnvo9MWiQ1Jibix6vj4jcY7Ex0FeOMwYAzJO5eGLRefotVPjEhX+8NTmpxpsbp1DDqZV/Czo0G+7MKJRZJZ9+t32/98RxR9sZQAtY7SOOtvqt9C36DxOR2JQoM4nrszc3NVwd+Bszp726Cfo7VB67WSiI3ppIEBknZSxZGgspZMLpoE2iMG9Bo0ZYVVIuWkHPRrdJGOR2iMjeBgjiDa35DTf53+wUGidnL+GRtiNNn4JJNgGc4gzY3KanoSRAtoW+BcUbrWGSZuZuQKeMGXFtUkwFfomgXLjY1W9LrtkRbraHihxzhDBJ8rX6/O719S7SRJrw1O060BDWDF5uB2tDermz4DwNnrXYxW7iNH08tG5jaqNVqJUrhaRuca/0AoUhnJH8qTmhQ2ToscZqtWyLUp9W2+kRLcLUyks7oypaI9pEBVY9wCQlZrWUFi41AbVhZkbE3jywTPA18ePcS7WQkLVnCXUj0BZjhBXYGCgUSDCqCCgQJjgXhXgWCBWEuwAjy1sHs9JOFIoO4nntlZbWsQSY7SgbK8eXZynz1da79iZvsWXFCg+y8GtONkNFoHIcAMIzAENJLIxSE0HAJTNMIjSAIbeRItxhMhaJdSPQtM46lKFBlMmACIsjYppd9etnOE7bhQJ0M2VQp+hJd39pNlrZwOEwh9B0KApUpBKIQEA5DCAgQTUEQfSfMYtY4mvIqk4RLmMpTadzpayxycMtBK+dDjPU8tFRREagWHud9rkI1uYgClfJQHpr26PU0TdEemNKDjPIMejx6yuPhDcz2exUFD/aI/lC8KgmDPn2HMpbUxfI6kPGgdo2moCpOOAPfooq0mzs6Oi7YQDFP0QU95rkwqLdheg9mwwZtNsym73hLSFWuynuwT7iNWcW4xBkFajv3KEHb0A5yLmvnX8Uwq8kCb/0eoYErv9mAtwFVp9MV3ZbqpqVFUimm0+XadFKdDiQ6qdSGSTmD5/cc8/lVIoPsQolGi3K6tQOcOD7paOAjuDfw3HIFD+SIv8SAutmNjoyMTNuwaSmRO0hIMUI6TUgBBEFgBFEyM/KWRtxhanGJDlNPiyFSi3Z1da2sdHXJZGzCXSxcWGF7PKip3KGuF82gSkUaJkNAJUpLbZljNoywjRFYKahcypaHiTGMmIkZqB2S/B6xwRU16TdfAhhll2IY+UYMqibVAZFBUn1g2IGjGRkZlEJBBYPUGKIALZuAAF4pgmMgIhksjU3lpNeXINrGgMbhRDk9nBGW8ZHvZMSIpWa7AQ+IvoMkVwvusKOrq6sIAkFPKP740RCCUDRI7kAUDdEILF9lMWtItbdStI2+gOkvdzqnrwG4GGvkXFwnvSmfnH8gMqj0FpBL5tnZWYqiQUH4LkSD2iU0DYHK4xAFLpqe5WlUa8i8etFZqPZqHH6UlZ+C68OEvPMmb1WC+A9lft6dfv36dYp+CN39t9Fy6UkjiuK4U0tloFBgkGCAmhgkMfHxAbpuHWdgeMhD8G03JSZ0o8FgUqJYX8SFibVonYTE2qRNI6ZNCAvqShcdcMNKwsK46wbK9MFr1QPTNpFUy++QGe6Zc/5z7p3k5JzfyNBZ4FMwKrra0g5obyDx7LwhNpc83tUtUV0FjHc+tvmoIZ4tTQc+1zUUyVpy0bO8AQEzH/4vQF88DdW19ba3ux5Pcgjm0ZkV397Kk+PvN3Dkd0cO63pi2+XO/DxdFTg+/g4GYddrbPjD3p19Ud2QRfvzaVM8Hn/nO91bWDj1+V7Gr2Movzibil7tiZKThMedAoFGMDHuZOJrXQVbibm5WMMCF3764GoF7Zer628Y08OGMKWnmdRl3aR6Etx1M48bEziKuWdDf+fE21Xkd1+fBdz5Lz+GBwdq9A/0VxmEe/XKUfMPDv8Yob27qycieS2VExBLosGL+Y8V688sXiwUiwW8kMULBTyL49ksDsAKxwtAMfvNUF4KL0IFvwUEAoFQyJdEQ8Ewk05P2n5+s1oNhhGbgSAIO+G02wiDnTAQNjCDFYygGMYfDh7uS/hCAdAk5PEQBGs35tbfz8YqFYqapGxUyVmmMpkYU06XnaV0JVMqU85S2Wl3OjP5Sn45H3HnjO0YwuMJhU0IKhfzpT3jXycmUixbAqMsbCpZslgsqRSdo3ORZVcuWWJZNm1xuVwsC57Qq8j2eI9ULEcRXlOLmK/AmltVo2MOkiT1+m3SbDY79HqzmdRPbRtJvZEkjUZYg8/hIM1Tz8FpHBt90CpV8MUtKCcg7ejuVSo7lUqlTKPpVMs0ao1arYKfSiaTqdW/fUCnWqlSVeN6uzswTgC2wEn0dWm1rYBOd+c6dLpWQKvt6urrgPfXtsAdIorKQYavUCgwTAo0/wspgGEQw4dUOYoi3CFWP2MNHoAA6E0gAA/gUgTAL4b73ViuBmppAAAAAElFTkSuQmCC'
p13
sS'twit'
p14
S'data:image/png;base64,iVBORw0KGgoAAAANSUhEUgAAAEgAAABICAMAAABiM0N1AAAAPFBMVEUAAADM1t3M1t3M1t3M1t3M1t3M1t2Zoqg9REgpLzPM1t3M1t3BaU/BaU/BaU/BaU/gtKf////M1dqZqrXLueYJAAAAEHRSTlMAIJ/v/wAw////UN9Q3/8A1l+fIwAAAO5JREFUeAHt2N2KhDAMhmE1345/bcfo/d/rwrjFDhXNpLK7Qt4jQXgwbY6szqobAqipv06qTt4/CK/oUQbVhLbr+64F1UVQg7Z/1aIpggjdCnWgIgjofwI+h4YRsQTaGgcZNCBpGy1tEEEjkrbDThtFEN6K1//eEeR8WIOgsObdM1bFBxfCJ1DMZZDXQT6Dgg4Kt4EmZoYgZp4OIZZDfDtInkH/CZqXnWYFtOz2l9A1owmzPTptVl5/3u9C5aPZHtke2R7ZHtke3RyarzrsZbfrIf1otkeT3JkOIE03gLzO8RnkdJDLoKdTfFPyk+UbZzUUIqVb/+8AAAAASUVORK5CYII='
p15
sS'gmail'
p16
S'data:image/png;base64,R0lGODlhDwAPALMPAFeE1gELI6Ghdnd3bG50ggFn/v///nyz/wBN4QAtg9vp/+np6c/e5QAiYqy3wAAAACH5BAEAAA8ALAAAAAAPAA8AAARN8MlBhrVVPgKKG0IYDg7SBFzBCOAoMEWCdoqx3LehxHNRG8DgTpb6BYHDnvGYLB6FPOdTF6VNqUTrtKl9cguHsFhcRZjPaIQswG673xEAOw=='
p17
sS'related_to'
p18
(lp19
sS'name'
p20
Vclipboard
p21
sS'known_as'
p22
(lp23
sS'default'
p24
Vemoji
p25
sS'bw'
p26
S'data:image/png;base64,iVBORw0KGgoAAAANSUhEUgAAAJAAAACQCAYAAADnRuK4AAAFA0lEQVR42u3aL1AyQRzGcQKBQCAYCAQCwWAgEAgGg8FAMBgIBoPRQDAQnDEQCAaDgUAgGgxGA4FAIBgIBIPBYCAQDAQCYd957n2PuTuOPwrveMd9n5kdRxDmbv3c7m/3LmYI2SAxuoAAiACIAIgAiBAAEQARABEAEQIgAiACIAIgQgBEAEQARABECIB8MhwOzf39vTk5OTGFQsGUy2Xz8vJiptMpnQOgxRGQarVqksmkicVicy2fz5tOp0NHAcg/p6enMyzpdNr6/eLiwhwdHZl4PG69nkgkQASg+XS73RmeUqlkxuOx6/1erzdDdHh4SIcByJ2bm5sZII0wAlSv183l5aVpt9tzI5QXGIAiHk1VgpFKpcxkMjGVSsVV/whRs9mc/f7x8UGnAWgekFZeSi6XcwHS+4PBAEAA+huNMH6rrVqtZr2vOsf5uqY4rdJURHs/k81mrWU+gCIS1Th+y3S1fr8/K6qFSDjOzs5mNU+xWPT9XCaTiew+UeQAaZRxLteFRHs8jUZj5Wff3t6sYlpTnD7nHJGiOq1FDtDt7e3sn/76+rrRd2nJD6AIA/r6+trou7TMt7/r/f0dQEGP/uG60n/aVOxqutI/fH9/f+PjcS7ttWOt5f4mx6ctBABtOao7tGpSobqo+P1JW6fmWQf03t7eVo9LtdX19XVopsRAA1LB67d0/mlT0Xx8fGxardbWVk02cI1o2zxWbTNsA3kkAWko1/L5Ox2uv398fDSj0SiQHa0aSY+JHBwcfOu8VGcFeYsgkICcxamz6VaD9mdUb9hXu35q3yYsEQZ751tNzxzpfHRei0YwbWQCaM1oevHbqHt+fnZdifbdcU0fYYtGWBvL09OT6/WHh4c5SDpXe5MTQCuiWsKLx2+JbL8f1tsI9q62thW80WrOi0gbmABaEWHwjj7OK9QPUFgf8NK0tQiQopHI2xdBrO8CBcj7GMWye0y7Dsg5za26mAD0L85bA/bKauGB7zgg5zRnNz3kBqA1OtX5HE6UAXn7Y9nfAuiHgHRrQp8LW9OWBIACACjsDUC/BEj3jHahaXcaQL8AKAoBEIAABCAAAQhAAAIQgAAEIAABCEAAAhCAAAQgAAEIQAACEIAABCAAAQhAAAIQgAAEIAABCEAAAhCAAAQgAAEIQAACEIAABCAAAQhAAAIQgAAEIAABCEAAAhCAAAQgAAEIQAACEIAABCAAAQhAAAIQgAAEIAABCEAAAhCAAAQgAAEIQAACEIAABCAAAQhAAAIQgAAEIAABCEAAAhCAAAQgAAEIQAACEIAABCAAAQhAAAIQgAAEIAABCEAAAhCAAAQgAAEIQAACEICCBahcLrs6TB0Y5WSzWVd/NBoNAC3L3d2dq8Pi8bj5/PyMJJ5+v+/qC7VutwugZRGWRCLh6rTz8/PI4ZlMJqZYLLr6IZ1Om+l0CqBVERjvlVetVgPZef8jOs9SqTTXB7VaLZDHGzhAGoUymcxcBxYKBWuKa7fbptPp7FzTedXr9bm6Ry2fz1ujEoDWjDrUO5VFtaVSKTMYDAI7YsaCemC9Xs+a96OMJ5fLBRpPoAEpo9HIqomSyWSk4Gj0vbq6MuPxOPA1W8yEIMPh0DSbTVOpVKzNxV1tWiy0Wi3rfMOSmCEEQARABEAEQIQAiACIAIgAiBAAEQARABEAEQIgAiACIAIgQgBEAEQARABEAEQIgAiACIBIZPIHe/z5TJqjwi0AAAAASUVORK5CYII='
p27
sS'version'
p28
VV6.0\u02b2\u02b7
p29
sS'uni'
p30
S''
p31
sS'desc'
p32
g31
sS'browser'
p33
V\U0001f4cb
p34
sS'annotations'
p35
(lp36
Vclipboard
p37
aVobject
p38
aVoffice
p39
asS'wind'
p40
S'data:image/png;base64,iVBORw0KGgoAAAANSUhEUgAAAEgAAABICAYAAABV7bNHAAAAAXNSR0IArs4c6QAAAARnQU1BAACxjwv8YQUAAAKSSURBVHhe7ds/aFNRFMfxc16lFJRWrC4GBRUUFR0stEGsU7u11UEKdXdQi7pITF3V2KGjCA5upXNrBoWODmknB4s4ly4OAamI+Ocd701Poa3CefemLzTw+yy55y4p39z3kqGPAAAAAAAgAutr7paejzwSoTtMfEy3oojIYsLJdH95YVG3ctWSQLXK6BP3Ro91bJqL9NVFutGKSIm+5mZ5euzMbsbxmLlHJJ3UMVe5nyB3el65N7mlI3UdKlDvuas6ZffrW52+fHin0wZ3uQ7nfYpyDeRPT/onXfKfuG7RqWsPqffsoE7Zpb9/0sfX9+lHfU13HJH5ganqdZ1y0XSgWmXkri7/JXyZmW7q1ND3YI46uvbrFGZ9dYU+zZZ1Uixld/Nf12k74Xpx6s2cTlGiA/lLx32C41tPhyX29Gz67ykyCMmqC1WKDRV1k649G53195WQON7BE5d0FSfZ10mFwW0H0rTxs0Jeur95QreCBAdarowN7bxssihcmYi+tLaKiew/SCa5p2OQ4EApybgugxy5OKyr5vjI/lINxlz0Xxo6ZZb77yDPn57O7sM6Na/7+AVdhUnTdEiXmQXfpHf+rsmi52QfHTh6WqfdsfY+/J7rbtiTxXL1hY6ZtCTQXhETqCWXWDtDIAMCGRDIgEAGBDIgkAGBDAhkQCADAhkQyIBABgQyIJABgQwIZEAgAwIZEMiAQAYEMiCQAYEMCGRAIAMCGRDIgEAGBDIgkAGBDAhkQCADAhkQyIBABgQyIJABgQwIZAgOxCLfddl2Qv/L3gsPxElVl+1FZF5XQYID+Ydoheipjm1BRFa4IynpGCT4YZZNjWdVhW4z83nd2nMaj2MSv00SnukvLXzWbQCANkH0FyI/oCOy4DB+AAAAAElFTkSuQmCC'
p41
sS'andr'
p42
S'data:image/png;base64,iVBORw0KGgoAAAANSUhEUgAAAEgAAABECAMAAAAV8YMOAAAABGdBTUEAALGPC/xhBQAAAAFzUkdCAK7OHOkAAAMAUExURUxpcYVcUoVcUoVcUoVcUn5YT4VcUoJaUIVcUoVcUoVcUoVcUoVcUoVcUoVcUoVcUoVcUoVcUoVcUoVcUoVcUoVcUoVcUoVcUoVcUoVcUoVcUi4uLoVcUoVcUoVcUoVcUoVcUoVcUoVcUoVcUoVcUoVcUoVcUj02NYVcUoVcUoVcUoVcUoVcUoVcUoVcUoVcUoVcUoVcUoVcUi8vLy8vLy8vLy8vLy8vLy8vLy8vL4VcUoVcUoVcUoVcUoVcUoVcUoVcUoVcUi8vLy8vLy8vLy8vLy8vL4VcUoVcUoVcUoVcUoVcUi8vLy8vL39ZUC8vL0c7OS8vLy8vLy8vLy8vL3tXTj84Ni8vLy4vLy8vLy8vLy8vLy8vL2tOSIVcUv///3ijrYRbUS4uLi8vLywsLC8uLoRaUHmkroZdU4dfVYpjWf/+/opiWIVbUf7+/neirDQ4OO3m5bKYkvz7+/v6+vr4+MWxreXc2s+/u/Tx8Pn39jEwMFdvdDQ0NLyloJVwaPz8/E9hZTEzMy8wMJd0a66TjKGBeZx6cpZyatnLyLigmpBqYff19OLZ14ZcUjtCRHehqzg9PmiKkTY6O3airFp0evj6+qaHgPLt7JFsY869uYVdU+DV0vPv7r+qpIxlXLqjnce0sLeemG1tbWB9hD1GSE1fY0pKSsXFxX9ZT0FMTjc8PXafqeDq7ajEy0pVV8y6tt7S0Jp4cKOEfNvOy45nXZNuZauOh8OuqdXGw9zQzezs7GNKRFhYWEJCQnCXoGBgYE0+OvHx8be3t2uPl5itsuTt73p6ekxcX4Gps9Hf4l56gUlZXejh3+/q6Mq4s/Xx8KeJgtLCv5d9dt7e3l9cW3pWTj43NW6UnJubm9bW1oKCguXl5d/f30VFRWSDi7S0tJKSknGXoMvLy+Li4lBQUNHR0a/Jz4eutr7T2GOCibq6urrM0Ja3v2yDiERRVPL3+IacoYOrtFJBPV5IQoNsZ9fi5GRjY6PAx6zBxtjl53uLjnaMkNTf4WB0eYVbUVluEucAAABedFJOUwD03TX6AxoB/dMHzRVL6MZI36JB4u1WhdqvDw4uulC2MSd3cCJiXRw+OxKzC6Zok48KfgbfffSzV/fA8Dd9KyGWigvIo25igL1G1prgFq/P+kXrm6vo0Tr8Ie/jNB7Ztb8hAAAFKUlEQVRYw6XYd1gTSRQA8AAhBVAOkCpIxwIqh9LUs+vdcb3XL8POZglBIPQeWkBBQq+nCEiTIqKe3fPs3lmu99577179bjMbkg1kkwm8vyjh9817+2beLDye+fBztraPCNJ9Ozdm0+bH5/IsjxvsRRIJ3zHEi/56mS3vkY2PxkY9Fh1jMTXLWoLCytNl/qb774vcQJIqFYSx0Q9ZuB6tI5HUPfDgwyQdVFpR67VRilq+eZnFTorGGT5LUlIppKGrDfEXBpUwKnI9trMqDi0mKZGQDP9CQuX4eDOkSOW1JlnD1UYYG4m7Jht7WiHkvSdySohfC2Hz3//+frEsDVKwsXWvrD+NuvcePMffUZOWvEcNttT+poRp/1wCoPTKT+PlEJYPnt47AsmNWMn5+4g0efWqAQDn/pCq/rsC2sbG2n789vt6kiJ/aB2lyOXzMRyBL6pPZT7tgPNKOPJn21/Xf7783VeXxi4+Ww5V5fQTvB0DEizWrIdof17jlD4jhUX7rl9uUSha4r/c90VDURrUtEK0+bZchJyErekaB2SfoSGZIh6FokUhU/SP0lJUjNCc47UUrWdbLnLQigaaZPH6kPU3U+Rdd5hzwsL5bAeAoaelsP7reDZVRpEbzGVmF4Gcqs4JB5R+s0cKm+nu0TmKQWj2odkFWCHnBGDFEC2Vl52ekGRv1kN49502popkG4icmmpgEEOfSSnVyAcNWqpIRRY+VecRHMbtBM9GzsulhhD4/AwJYXPZBU2lZE2NEL7xep3Eaq2AywlBTndeKpgcn76TRu/++qKPFQ1NA5BekKZhRStcjKc3CzlJuzPB1FCfP0UvSjVQNthIkfDsMHNQzQm2NeY4MU4WMBrvfkT3gSZI6WuvJKYw0mwXLkfexeHQffBJn1JKR2Hfq7u2J2kPT3chh1NcALjj3Id9e94/9dZJALKKE5EjCpwECRknuVgNTEb2e2+fRI8iT44g69WTHHRAE0k5BQAvsisJjcMPEBp3sjAdcLwbLcjHwcjAsMRJ30YYe2a3eqD64DsFGUxiNxl2kY3YQgfskBtLDA2eFPkxfOe5igQjiSGHHhgF2I66Ejn8CNupDnE0H9tJfYFJzNdhqjNx0GNF7RFU6TkL2U6QI1rPwVx8J/8lJrEAdmJhzmigyvPwncwuZpN5LjLYqFboh4k5qdhQ9WGUmLWNwc64mTkKiCMH8FsaJWa1xGCPCQNFWulgJ25LM3/gPOnc9xdrjyei5Hgm1pNPRh8X+086zIRurhPS4WNq81DnE6hAK9045hiS5JVme6njSVQg0To7Y5N1Yk0SYmvtFpNO1nbmgz4C7pnISFXVptogNS8JjQ6nhRxT0c1JJ9XkmSh5bQlh5MmzKz5PL3Xv5jxMOtqZAq3lnvhsKbmL4zjJ6mE+cYvAxB2ELXEMNrpAKDGPVaavRS5ivdT7IneBVoaYuzku0EkpiRn5XB3Ed7cze5XVS5KpUnYv8xtPB4xLugkpdUcy6iCxN9brxwJ7ltTBhnKZArm6Yb4Q+TnqpJ1HWRtvVzt2gbThrZfojacrUM9O/AJNlRIqqpkbaer+ZJSYeLUlr7HeK/RrqtmPtssh5gxynWfZC3GQr15Ct64DVQnG7gvmYw1LkmekH2LG/KTpg7emUJG+DSqYvCRiv2n8+0HgrJcIxsHuIG5JYmEHmZZCHXjTDIelfJbj4cebdniF6yUrs2cQniQKt+PNJLzWaUdnqIA3s7hxiebSzF+8hjfTENrcFhfnjrGe/wGgERBsKXH74AAAAABJRU5ErkJggg=='
p43
sb.