ccopy_reg
_reconstructor
p0
(cemoji
Emoji
p1
c__builtin__
object
p2
Ntp3
Rp4
(dp5
S'emojipedia_url'
p6
Vhttp://emojipedia.org/crossed-swords/
p7
sS'index'
p8
V885
p9
sS'code'
p10
VU+2694
p11
sS'apple'
p12
S''
p13
sS'twit'
p14
g13
sS'gmail'
p15
g13
sS'related_to'
p16
(lp17
sS'name'
p18
Vcrossed swords
p19
sS'known_as'
p20
(lp21
sS'default'
p22
Vtext
p23
sS'bw'
p24
S'data:image/png;base64,iVBORw0KGgoAAAANSUhEUgAAAJAAAACQCAYAAADnRuK4AAAHi0lEQVR42u2dHVQlYRjHg2AhCIKFIAiCIAgWgiAIgiAIFoIgCIJgoXOCIAiCIAiCIAiCIAgWgiAIgiAIgiAIgoVg9vw7Z86ZvXvneefeOzPd553f/5yBPefu7nz85p3n+x1IEOpBA9wCBEAIgBAAIQBCCIAQACEAQgCEEAAhAEIAhAAIIQBCAIQACAEQQgCEAAgBEAIgBEAIARACIARACIAQAiAEQAiAEAAhBEAIgBAAIQBCCIAQACEAQgCEAAihRgD08fER9cPweH1uAHp5eUl+/PiRnJycRAnP3t5eMj8/n7y/vwNQ2bq+vk6+f/+eDAwMJENDQ8nt7W1U8JydnSWDg4Of1zc+Pu7q+voeoMPDw09odHPTY3h4OHl8fIwCHsHy7du3f65Pf/ay0vY1QKurq//c2OwxPT2d/PnzxzU8b29vycTERO41HhwcAFAvWltby725On7+/OnaYJZNZ13f0dERAFV9k2V8etTm5qZ5XXp5+ISVtMzLsMy70TI+Ly8vXcEj+yY1mtsdi4uLblx6F17Y3d3df4Z0q1Gt33iQYLfgmZyc/Hxp8MJK1unpqbnka5Xq9xuvWNbo6GjuNeglub+/Jw5Ulba3t02IlpaW+vbc5THOzs6a5694kDe5y4VZrn0/G9XLy8vmeSve5VHuANKbPDU1ZT6M4+NjVyunF48rCoBSW0KGc94DUST34eHBhdE8MzPjOiDqtpzj6urqvxRA9lCE9/X19UvPURBboI+NjSXPz8+JZ7muB9Knyvo0yGj9qniKVhW55DF5XNEBJIXSHYr41i1BGzKa+81OayxAelhKrFoPq+7M9vr6et9BDUABo1r2hGVU//79u5Zzydb2tDtUNBZTZWU0NdFPT0+mwaqCNIFWpW5ubkzDXlHorzbsAcjQxcXFl739oaSvAI6lCC5agKRQ0E6Z7io8LqvsRFDX9QkFoBK0srJSa7pDOTjvhWEA1LIiWOkOrQiyV8qQyk4teARzzIq2sVAGc9rJkVdD1KtNEjKavacpGg2QpI6Hqoq3FEUeGRkxPa6qvT4AqkGK+FoQdVNDpOY/q5tCq1JsvWuNBUj69euXaafIc+tETUlTAFBGCwsL5kNXDKmItra2ouwSAaCAFAG20h0yqhXNthQKVMrjin0ARGMBkkLpDgGWZ/iq68P6u7KJvA1GAKAuFFpF2tUQhUIC8sb6pQISgGpQKN0ho7sT+8lbYyMA1WBUpy02oRbkTj04AIpEoT4txXLkcVmfOxWONc1oBqAObBvrUPY99jQFABVQqO2mqjwaAEWk3d3djgAqGnQEoAZpY2OjEDyxDvkEoB4lY9jq42pCbQ8A9aBQp2vMdc0AVII3ZtX2tHpfTXfdASgj5a9CjYkkTQEo1+5Rq083cSAFGVHDAdrZ2TEhsco/vE4UA6CSpJmLoSZERZqtZkFPwz0BqESpXtma+pqdgi+vy/qtVqnY2pUByJAetpX/UjdFa2WiXHwLIrXvNNWobhRARVqQ8xoO9/f3o51zCEAF1euk1NDf97A5CgB1KXVLWA9ftT1F3P65uTnz34l1iEKjAQqlKTqp7dFQTMu9b1q6wyVAnRisoW6KboY+aQdFy6judEKsZwPcHUBKPWjyRpEGPv3WWi16mdIRmhArz6wIOPp0at8zrxC5AyhryMrzyfv0FElT9Lq9QKjg3kp3CO7s+cnLA6CK1a4dR0ZtuwkbofG/RYzmMozqdgVoijO11h5pNfRY6egGIGuTNtkx2aHdoZiNHnpZBfEho1rGu2ymVKrBzgtkyq7ylhpxAZDeWMtoTW++3mC50dZvq5iUGkp3pNFtfTJDBfzKvXnq9nCzAilIV6R7IrQJS1mj7Vp1fn7e9Xllf5NdrQCoZGn5L1o52O5QBr5uG63oIZvI494Z7rwwfS6s6WB5h7ou6vYSix5y+b1m9F0GEuUCh0brZg/1wdcVZ9H/Y9UQteutJ5D4RQrFYb5qaliRHjPZYzHMj3YNUCe97RrZUvWbrpWx6CdM0fQYeuvdAiQYQrsgtx56uFVtDS6YO+3u0Pl4L0RzC1Ao0mx5O6FZiJ1Ksadup3x47+5wCZBsh27d5TSwpxKPMqQIeaijNeZhDe4AUqDNemCyLfRAQiuCgpK9zjUMdXakRfeCNdbuDlcAhbYX0INIg3HtEpZl1zDLfrFqrBXfSae+hsAXYB5jQW4AKrIDT2s5qQzmdg+4TA8ozxNM+8qyUrrDWrE8Tj1zAZDe9NBQTA2JygNPBVvZktMqjOgsGDKM87yrUIyojDITAGpRaK+LIu6w2pj1kKtKVqqERJ+oULtzkfCDp702+h4gqw4otR2KToivuti96L8f2l+1StAbBVDI8Kzic1SX5AFaNUR17DIdPUDWW1plbU9dUnmK95F6A/3+luaVbsTSBZpn38lO8uDW970NJPum1QNbXV2NZphBOw9TnpqX63MTB0o3emu3m04MECnoKePZW4mHq0i0AnHqgohR+lx7q4d2BxACIARACAEQAiAEQAiAEAAhBEAIgBAAIQBCCIAQACEAQgCEEAAhAEIAhAAIIQBCAIQACAEQQgCEetNfJK/qQ5f4iO0AAAAASUVORK5CYII='
p25
sS'version'
p26
VV4.1\u02e3
p27
sS'uni'
p28
g13
sS'desc'
p29
g13
sS'browser'
p30
V\u2694
p31
sS'annotations'
p32
(lp33
Vcrossed
p34
aVobject
p35
aVswords
p36
aVweapon
p37
asS'wind'
p38
g13
sS'andr'
p39
g13
sb.