ccopy_reg
_reconstructor
p0
(cemoji
Emoji
p1
c__builtin__
object
p2
Ntp3
Rp4
(dp5
S'emojipedia_url'
p6
Vhttp://emojipedia.org/funeral-urn/
p7
sS'index'
p8
V891
p9
sS'code'
p10
VU+26B1
p11
sS'apple'
p12
S''
p13
sS'twit'
p14
g13
sS'gmail'
p15
g13
sS'related_to'
p16
(lp17
sS'name'
p18
Vfuneral urn
p19
sS'known_as'
p20
(lp21
sS'default'
p22
Vtext
p23
sS'bw'
p24
S'data:image/png;base64,iVBORw0KGgoAAAANSUhEUgAAAJAAAACQCAYAAADnRuK4AAAGzElEQVR42u2dLzR1TRSHBUEQBEEQBEEQBEEQBEEQBEEQBEEQBNFagiAIgiAIgiAIgiAIgiAIgiAIgiAIgiAI51u/u17fWtj73nP/nHvmzDzPWie51ut1HjN79uw905MBtEEPvwJAIEAgQCBAIAAEAgQCBAIEAkAgQCBAIEAgAAQCBAIEAgQCQCBAIEAgQCBAIAAEAgQCBAIEAkAgQCBAIECgivLy8pJtbm5mKysrXX/Ozs4QqMq8vb1lo6OjWU9PT2nP0dERAlWV09PTUuXRMzs7i0BV5eTkBIEQqHWenp6yvr6+UgXa2dlBoCpzcXGRTU1NZSMjIz+e3t7ePy+7v7//z+esxxJlYGDgx2dmZmZq8nx9fSFQjFgiaOWU6xdmCLS9vc0yHoEQCIEQCIEQCIEQCIEQqBmBtra2EAiBWhco7/ciEAIhEAIhEAIhEAIhEAJFJdDg4GB2fHzs7l+9vr7WREEgBHI3RfUsLCxkHx8fPz5/f3+fDQ0Nud+DQImhOp1GdTzfI9H7+3ttdKr3+Y2NDQRKidvb24a1Qt/JwbW1tbqfGx4ertVeI1BiPD4+1mqFPDFU4yMx6omm6U6xUcokK9Dl5WW2tLRUV5C9vT33aypA09Sl0QyBEkEjiqTQtJOnJLXR9PX9TE5OZgcHB3+CbwSKBK2iJINVylrv0ejSTGuQgm2VsirwRqAI0EpKpRbNiqPY6Orq6n/5xsfHm/p+iXR4eEhNdMxB8u9Hks3Pz2fX19emiGoTUrF8MzJKvIeHBwSqGmoqVJCb5yXPzc3VOkjVyZoHfU7xTl45FaRLPgSqCLu7uw1HCb3U9fX1Wu9YO2h0WV1dzdV/Fmubc1QC6S+9njz6mhKEeUebvCgXpCV9o1FPIyMCBcrd3V3dF7i4uFj7TJE8Pz83TE62O+ohUAF8fn66y21NL9pl7+bPsry8XDdnFNPqLAqBlHvx5FF7cxnpA2W5PYkUhCNQIGja8Kau8/PzUkdFb9df5SSxjEKVF0irqVBbbZSR9rZNYhmFKi2QXpAC098vR8VfoexLKf7ykowxjEKVFki5FevlaBshJBQ4Wz/nzc0NApWJFWMoHgptM9M7bk8HgCJQSSgZaCUNteseGpqqrDpsxUcKthGoBLTCsv6qrc3QEFBVgPXzqrANgUrAKvbSX3SogamqAyyBtIpEoBIYGxurXHuNNY1p6wOBuow2L634J7TV12+sxkT9PxCoyyjHYwkU+qpmenrarF5EoEByK0oqhlrYrkoAr6ANgUrA20BVQVmIqFw2xkKzygqkOMjaRNU2Rmi5FVUuWlNuSFsuyQnkLeVD3Kj06oNiuAqh0gJ5f9la4oeSD/Lao0OO15IRqF5sEcqFb6qVjvlEj8oL5K1uQrhqSSOMVQ+k2C2WEz2iKGmdmJgwJSq6iL4R+/v7UW5fRCeQpivrRSl4LQvFYFahv2I2leEiUEDoZVlThV5WWVOFVy2gYvuYiKYvzCuXKCux6AX3VS/fiFYgVSFay+UyirZUumH9LJrSYjuxI6rWZu8Y3m63FHudIqFusyDQP7zEoqaTbsZj1qmuGpFiPE8xutM5vN70bvWkeytCHcgZI9EJ5LX6dCv3YtX86CmjxRqBWkDZX6vZUNnfooNpLyseUytz9AIJHfpUxv6Yt+8V842GUQrkjQQ647AoNLpZwXNsmeckBBLe/lhRmWkv81z1ktVkBfI2Mou6YVmipHKsXRICaaSxckJFBLTevxVyoyMC5cDbj+p0+7P60VK9BipqgbycUKf7x7yTyGI/ZDx6gbwN1k5OY1phWdOXgvgUiP6yFa8j4vsujKJGuZgO0kxaIO9wp06dI6TcUkiFbAjUYTRVWVsbSvq1O41501cIBf0I1EG8rY12bxv0DtCM9V6MZAVSvFPEMtubvrhwLjK0T2VNY+2sxrwVXpH7bQhUIl6Zaau5Gq9wLJXVV3ICedOY9sxawTrYQdNXp6+SQqCAprFOTjk6miW28w4RqAHW3lgrQa9XbxTDcS0IVAfFJ50oufCaGMvuxUegglHirxPtxtb5jCmUbiQvkLDugNeBVM0s363ss5KVKZKcQCrlsEYhtSPnwcs+x155iED/0M3OlgB571X1zmWM7TJdBHLQLrlX/K4YqdFjLd+V5U4x/klSIGFta7TzxN55gUC/8EpQW31ibhxEIAPvlPtWn05VNyJQRdBS3IplWnk0mqUa/yQrkNCFt1YrcjOPckqprr6SF0ho51w9Yq0+Vb/vFIEAgQCBAIEAEAgQCBAIEAgAgQCBAIEAgQAQCBAIEAgQCACBAIEAgQCBAIEAEAgQCCrJf+PYeDnUcE1iAAAAAElFTkSuQmCC'
p25
sS'version'
p26
VV4.1\u02e3
p27
sS'uni'
p28
g13
sS'desc'
p29
g13
sS'browser'
p30
V\u26b1
p31
sS'annotations'
p32
(lp33
Vdeath
p34
aVfuneral
p35
aVobject
p36
aVurn
p37
asS'wind'
p38
g13
sS'andr'
p39
g13
sb.