ccopy_reg
_reconstructor
p0
(cemoji
Emoji
p1
c__builtin__
object
p2
Ntp3
Rp4
(dp5
S'emojipedia_url'
p6
Vhttp://emojipedia.org/flag-for-Algeria/
p7
sS'index'
p8
V899
p9
sS'code'
p10
VU+1F1E9 U+1F1FF
p11
sS'apple'
p12
S''
p13
sS'twit'
p14
g13
sS'gmail'
p15
g13
sS'related_to'
p16
(lp17
sS'name'
p18
Vflag for Algeria
p19
sS'known_as'
p20
(lp21
V\U0001f1e9\U0001f1ff Algerian Flag Emoji
p22
asS'default'
p23
Vemoji
p24
sS'bw'
p25
S'data:image/png;base64,iVBORw0KGgoAAAANSUhEUgAAAGwAAABsCAYAAACPZlfNAAAB/klEQVR42u3dvUoDURAG0IBgbacIFna2kliJCipCKhs7C38qS19Araz1EXwGeyHPIIqIpWJhIVhopUS0kmCSTTZs7mzOB9MGNod7Mzt7l1SaEioVXwEwASbAgAkwAQZMgAkwYAJMgAETYAIMmCQD1mg0mipO/YJV9qulqzIGGDBgwIABAwYMGDBgwIABAwYMGDBgwIABAwYMGDBgwIANuq4napkK2BDraqqWGaq17ubqwIqq4/lq31Ct9XR4CiyFra/TNvh8dB52qwwFlhVopV7rqemIhBYGLCtWni4xAloIsF6h8rT1qaMlD9aY7A8rz31Yyh1k8mDdsMZ23TiHwfpZfXknHZ+vb8CKAhvEaCra9CNZsG5Y9Y38s8SI46qwYFk+42F9r+2F30wvAUsN7O8qaoWJOhAOCdapM/xvSyzTBD9JsEGsLmCBwbKgRcEbGbBe0FLGs8KsML9hukRdovswYAmCPR6ctL3w29lVYEWCba7VzBJN64El/zzs6/0DWJFo4zueOCdVlzPFn+m4X9gC5tTUCIE5lxgQrBe07WUnf52tB9Z/7S8O7u2Vl7MLXaL3w4B5A7NsYG6cgQEDBgwYMGDAgAEDBgwYMGDAgAEDBgwYMGDAgAEDBmxYYCrQ/zg3JVSAARNgAgyYABNgwASYAAMmwAQYMAEmwMqcb6BYlW7QvwwNAAAAAElFTkSuQmCC'
p26
sS'version'
p27
VV6.0\u02e3
p28
sS'uni'
p29
V\U0001f1e9\U0001f1ff
p30
sS'desc'
p31
V\U0001f1e9\U0001f1ff The flag for Algeria, which may show as the letters DZ on some platforms. 
p32
sS'browser'
p33
V\U0001f1e9\U0001f1ff
p34
sS'annotations'
p35
(lp36
Valgeria
p37
aVflag
p38
aVother
p39
asS'wind'
p40
g13
sS'andr'
p41
S'data:image/png;base64,iVBORw0KGgoAAAANSUhEUgAAAEgAAABICAMAAABiM0N1AAAABGdBTUEAALGPC/xhBQAAAAFzUkdCAK7OHOkAAAMAUExURUxpcZKSkgBiMwBiMwBhMwBiM5CQkGB7bQBiM2iAcwBiMwFhMwRhNJ2dnQBiMwFhMwNhMwBhM8/QzwBiM5ubm7+/v5KSkgBiMwBiMwFhMwBiMwBhM7CwsJOTk5GSkQBiMwBiMwJhM6ysrLa2tpSUlABhMwBhM5mZmY2Njbq6upeXl5WVlaGhoQFhM5SUlANiM46OjpGSkZqamsfHx83NzQFhMwBiMwBiMwBiMwFhMwBiM5WVla2trcHAwKWlpbm5uaKiopGRkZubmwFhM6enpwBiM66urpaWlgBiMwBhMwNhNABiMwFiMwBiMwBiM8rKysPDw9PT06+vr8TExJGRkZCQkLOzs5+fn5CQkKqqqgBhMwBgMgBiM6Kioo2NjbOysgFhMwJgM6ioqLS0tB1tRjyEYcPJxoeRjCJzTKOvqSNuSgJhMwBiM////9IPNABhMQBjM9MPNP///vz8/NQPNPj5+dARNPb29tINMf/8/P7+/vr6+tra2gtdMx1WM/P09NjY18YUNOTk5PK5xNXW1QNgMhVvRARlNv74+f/7+/Dw8AhfM/Lz8urq6iVTM7sYNDdMM68dNI8pM/TBy+d9kPCsuJzCr/jW3Ns7WN1HYuiAlNMUONo2VEBIM+7u7ngyM+Hh4TJOMytRMxVZMvne5JkmNL8XNP32+O+ntPbM1MHYzVBCM3wxM+BYcfzx83CnjPrh5swSNPvq7fnb4PGxvOmGmOVziCB0SzuHY87g16IiNIksNOXm5mQ7M97e3qMiNP309jCAWSd5UV09M0eObOHt595PaQdnOdQbPe308eqPn9gwT9crSpUnM9cmR+jx7G03M2Kggw1qPVg/MxBbM9UiQ/vk6ONnfs8XOOuLnTBPM6ggNHM1NNnn4X2vl6UhNFOVdf3y9LfSxX8wNHOpj6jKue2erPzw8vbR2I25pONrgaUiNFOLbe/j5OJje2GZfa6ZlXmPfYhqZKtPWe7Z3OJsgqfCs4yum8teb40xOXFVTcPc0N2/wvbr7NtDX9gsTAD9XZ8AAABsdFJOUwAw7PhO8h0C9QR5LgaR+hsMPPz9gu8i4dRSt13WRQ6fxRbL4knBWHUJ6WVUoWI/IxI3fPb7ZamQySDoW8/yueaxJ4hJvYjWa86aEoBE2qL49P3S9BQY3JoryG4Os6kM2msnvttc+vxq8Os/NcIonJ8AAAUpSURBVFjD7Zh3VFN3FMeFDAIkBCJ7yIayy5YtUNxWcc/aPd97ScgiYYWEDbIpe8koFJAhYLW12uXW2rq77bJ772XfSwKE8Ps9zjH+0Z7j/fe98zn33ne/d7wFC+7Yf92MDfwCF90GzqKQ3Rt8/K315mxMiiuRiTisu/TkWG8JlaAoWuaYqF96nOI5IpyDCkJj9MAYbU1y7xCgKsvcYnyrlI2BSUs5ZajG2tzoJO+as00tqA4B4QEOXnbJTwYbbE20tqbT6daJBk6+rAd98kpkUxw0w8oDQmEGUVdFLLYxpFEoZmYUBoP2+BMJ7psd18fGxjo+lBAXlrlHhGpbnqURCMO2W2FLQ7SNW/CsSCKRlOGWIxFloLq2556752KitnvOphB2/GmUzEQ+gbqYHQ4uFARgHwtISRxvndhMnWkgDMJ99SQp6IUlswRntNplIQIGvfwuKUjibqBdqnZrEIhxCz4kBcnW+mr5Y2eDQK3w8zRSUof/jHAtbOEchPuGiBSkJVz2ToQM9NzrpCDBBr8pkAkDjuEh+QcOkoLQTNaUcD3hmNLOVwZ//22ibn8RHDQj3MVQUPlghZgvxNKbWyZrnoGBMqycNCBoiirfx/gYhl0909BwuqV2P+zrTQvXGRJX+SEcwx89+8dfly/Xj9dO1hSDQdPCTQEXdWk77g0/93xXwZ/E60X1fTXgTIkSgtWg7UCx8t6qEGKYuD0LKdQ0gKL6bikIlMbxVoMcwHI9LMYwYVU5D+EOq1qiVJp2vZhUuMnRIE5WNe4Q1p5PNIAc4vX+bqhwN6uF+xRQaV1v46DRAR7RAPJwT258UQct7lC1cINAUuNlVwnxVFcSoDe/u6YcU55rksJIL6qF6+pCDkIKf712s/EfbGgfVLjrVUvADmBFdh3BQ8tt5akawN+TzRh27lT/DbBTgnUq4TKBFZn1PPH1D6sbwMmRxnQMaz4zVAdWilwlXOMU6OfnV2cRoAMH61tw0InGic/ALrVt26TqI8CC7KzgY/yKTlW2f2lqvnQJOwaVm0a4AQvBsRGKHSwlsv39z03K8dMNI9BekmpJgKjAzsZr7cVd6m0lYvvqaykq7WuogYLUwrUwBKv2HSJLRwiRvPQaobVP66BzQOROCNcUPER42T14bFh1Ng/fAIi3j3bjIBl4KoUtg5U2YXsP4SDx2b3cmQ1g7DrYJcWu+yClrSb1iPGMVw1cHNZsACPKo2BQzm5cuOb20K6d/VGukM/Prf7hp6I0VLpPWdsPFS4eG/Ne+BzJGvhyVCjkX224MnGqaaixDypcOQsf2ZFkEzL7Qk+vmJ+eno6dOKYshu4AYSGw0p6ZkRcrL5z/8co3teNj8OmmcCOaW4AZgpCz8r+VFElJxq1iqQcxk6gUZB4j3wBkHWoOrLS1QWQbgCBzm2aTNLWZD4Qc/wS+tIUtmdragmznBSHvyWB6tWJNr//w0p6J7QMJWK1yR9+ZddR85/wgVQOY09AUVv7BWvsxSWlrnQBzvVGsi/ebvR1Hzp+jQp0TIKNN7hMfs0ln7TcBNVszBo1GY5hpHnGHpy4RmUBUoki1cmN5zL1DwnVKm2Lj6Zxyvxc1meoVbhIZ4WlrY8h45NHUPLk8L5WzNs7dbVeIBx10883q2ozlKxxMXZlaB5xrFH7BPfyYd4ilZYj3shgnAzrsKNYq7egIryjjW75Tp0s72nm1uT53M1u92ZrZU831u+OZqqU9ehVb7z8LK02Wr7G3Y96OfybsB1be+XP0/7F/AWMJWSo4DfMWAAAAAElFTkSuQmCC'
p42
sb.