ccopy_reg
_reconstructor
p0
(cemoji
Emoji
p1
c__builtin__
object
p2
Ntp3
Rp4
(dp5
S'emojipedia_url'
p6
Vhttp://emojipedia.org/flag-for-Antarctica/
p7
sS'index'
p8
V904
p9
sS'code'
p10
VU+1F1E6 U+1F1F6
p11
sS'apple'
p12
S''
p13
sS'twit'
p14
g13
sS'gmail'
p15
g13
sS'related_to'
p16
(lp17
sS'name'
p18
Vflag for Antarctica
p19
sS'known_as'
p20
(lp21
sS'default'
p22
Vemoji
p23
sS'bw'
p24
S'data:image/png;base64,iVBORw0KGgoAAAANSUhEUgAAAGwAAABsCAYAAACPZlfNAAACOklEQVR42u3dTUtUURgHcD+Xm3aCn6BVfgERP0FUCxVcSbqudkEtpBYatJmFbkRMhVAaSCohpBdcVErmXEEQNF8Y657xPOf+/vBshzn3x3M5c+6cc/sqCZU+lwCYABNgwASYAAMmwAQYMAEmwIAJMAEGTLIBa7ValYpTx2D9d1dUgAIGTAFTwIApYAoYsFxq9+fBmdWAqblPwHKs6wZYEKhS4EKC3X++Vcsi6snnPZzfDoMYDqwXARYIC1hQsFxnm8CCdV4YsFxy8l2ABQG76Y6rFSzlIIAlAks1EGA1g408blev178nGUyuCQ12e+rtuYt779kWsNwnHSkGlnPCgy1s7l44sPnVb9f+rDszG9n/qbOIaX2nU88gh4D19nfYvww0Yor64dzNQKOnER1WSoq5Je79PmzMbpKiOqx0uIGxtTIXf3UXsGwyu/SlTLDS4Yp8HmYSEgjMrBEYMFj/n+FH74DpMGDAgFXV4MR6fLCmBRi03oK939lrxEpHMWBWOoL/VRtYILBbD95Uhx1g4TZDwALm8Qqw/J48A9Nh3df47AdgwIC5RV6RyZcfq+lX283d46yrgm5Kf7q4c3xB2p9/dXWBgAWt06sovcAEFug2O/qkDSxF/dj/k2Sy4WCVRLVf84YMRxcFuyUCCwTmcDDdBSzFLlDnJQbpLieS3jDci+WvV+LkiOTNEH89MXAMugKmgAFTwNRlYCrQe5wrCRVgwASYAAMmwAQYMAEmwIAJMAEGTIAJsJJzBJHy+bthkLLuAAAAAElFTkSuQmCC'
p25
sS'version'
p26
VV6.0\u02e3
p27
sS'uni'
p28
V\U0001f1e6\U0001f1f6
p29
sS'desc'
p30
V\U0001f1e6\U0001f1f6 The flag for Antarctica, which may show as the letters AQ on some platforms.      
p31
sS'browser'
p32
V\U0001f1e6\U0001f1f6
p33
sS'annotations'
p34
(lp35
Vantarctica
p36
aVflag
p37
aVother
p38
asS'wind'
p39
g13
sS'andr'
p40
S'data:image/png;base64,iVBORw0KGgoAAAANSUhEUgAAAJAAAACQCAYAAADnRuK4AAAABmJLR0QA/wD/AP+gvaeTAAAXXElEQVR42u1dCXiTVbouIgjCKCB6VfT6XH30Kle9d66joyIUWnYESun/nxQGRR25Os4wLlcRBSdIofuSNMmfVMRdAQEBdxBXwGXYShfa0h1a0mZPmqZrzj3fSdNbpUvSJn/+tOd9nvNUS0jLyft/y/t95zsREQwMDAwMDAwMDAwMDAwMDAwMDAwMDAwMDAwMgcei5Ct+x2W6onilPp7LaJjLySdPYLvC0Cfi026eiNRNWqQzuFCOAXcunaENaZw7uNTL/o3tEkO3QJlX34a0pmpeV48XZFTgGQkFeNqGU3jGxnw8P70Mc9o6zOtMljjl2Klstxh+bXmyRtyJdBZ9nKDHka/m4fvXH79gTZXn4lh1LUZao1mWPup6tmsMFDLFqPuRzmQC8oDF6Y483hVJ/hwskUxje5PtHEMEUrbFEovSCJZl2obcXsnjXeDeiKtr5OQTx7IdHLJwD5Opml9COmN7TPY5PPUfJ30iD6woEhvRwFrZHMv2cQhiWeLt45HasQdI8GBmJZ7yygmfyQNryivHmRsbquAVw2eQYLkSMq05ySV+EafrWphVSdyY2cBx24ezXR0CiMm8fBzSODR8jsG9lMQ70zfm9Zs8sGYmnqZujM/C09juDmJMl0deLMtueQIJ5nqwOvPTy/12Wd2tB0jMBO8n09hT2S4PQsxT3nSJLNv+GHEzpWApIFDuSd/p71qsPIuRYC1huz2Y0vL0plt4lX0TSc31QJwlqhocvakwoMTxrtkkhkI59Rglj7mN7XyYAoJYlOW8m1db1hNrcAwRtwKuZZGimqbbwSBOV2WaxkEq65ohtunu4VwCnrQ02fkHpGydDRVnmdb1GFLYn+VV+pd4Te06Xji/nleTBf+vtDyHVPhJmWBfiZS1y1FmYyxSD58tU1ZPlSVb/7BMMfHmxQml1y95auwVcvnBi4PzW+Nh3NoxV3IZ+B6ZwrUCqc3JSLAdIJbG5i14gpuak3KGfrDBJE7XBRYOae2HBmccIL/pMk7ZGsmrLKt5jUPgBetBEkxWIK2h9VeV5kAu8vQjob6FWAMz0pkreE19kUxwHOV15m95dd1+pDF/jDSNO0hs8hav1W9FGv0WXq3PQZo6Hfnv13hB/7pM2/gO0tg/4jV1B5Bg/wUJxgok/Lo6DlYGPjxQhWcmFtGgVizSdF1zU0uhUt8ev+nKfwl7wiyRj7mKVzbGI8GhRVrLKfiHeTcchC94QkE4m5dWimclFeMoEhtApRnqP/DU9pSdwPfhA4LXedeMhHzy9wvoe8AHCO8HMQFs6Ly0MrLK6c+CtTCriv5s74IPPk44j6H2tBSW5nzH0nu+p6mlr4HXgitaSH/nMvr+0ZsLSTB8KiRk6bY2RgJzjxtzPRq2QSNSW18m1uVnL2GALIuV1fTDhAByqvykZDZ8sK0pZMUR8vMa+97wiWHkkybwqqbVMsF6lGYBHf4fCBPoVJUtH4qr6eWY1xqcC+X/famkibM0Fd+JNNatSGds9KaoYNbFDBrZ6qa4Sqw8fB6y7LZFkiSOLKvljySY/AwCVHBPEDgySyMhN0ZiRPhcyMO9RVrxTeaY23iNbS8QB4JLSFEf+McJ9qFJcEGigLQmvVzuvijkxIETAUjVkI50phZg9lxCnEDUbwIupDEydymuFlE3FpfeeH+IrQ6eh7TmKvhlwFWFSt/oa9237jhO3luNHxGK8H2MQJ3FVaR2JYaEOAvl11yKNC4NuCtorwR9RnKbRKyg1+oAabYdqccH8ywYZRXgyA0n6Z/fu27okiiGFldNhSHQckbewguWU2B1QDCToruCFZeRj0vPN+KE3VX472+ewRX1Lgxoa3djZ1M7rjY24QOnzFj3VS3+y5YSPHczHIk5if+6tQTPSzw16AlEi6uvGdzLUibeLBp5+OyRc5DObOFIkBwVpKpxQILE5Dz8/LtlOLeyATub27C5oRX3BjdZDlcbtjW24ZY2N661NOPUj6up6xusBIKmfKpKqxueE4c8yrbHkc7YGquqkbSWA67p42NGSoqBoLm1Ha/KKR7UMRNoczLB+q0Ilqf9BYh3oOQgVZfVNduq7HBXA4WFWK5/ltmpNRuMRIIQBIxCvPyaicETBlXta8DUgXYg9Q0B8iSRbKsvl+UvjPYWvJrEUUAiCLyjSaz09zdLsUxRENYEmk6SH8+RH9dDwSFPdvsTYHmgq1/qmwFB8PuH63BrmxsHA87mdnySxFQ/lthoAN5KgvEyfSN+WHMar1CdDlsLBZ0FSLDuDDx5lCMXoBxjG7QohMNG7DtqxKEABN71thYck5oflgSiJ1d1JvtKeeSogJEnPm3ErUhrtkGQJfWY5/4Ot6LZX4NDib3/NISlruQtrvKKtvmBab/IuHc0NHhBqh4ulXNIt599uxS73aEjELhO0JuWKQvxW9/pccLuShyvKMSzN0l7DzuLq2qrNjAZl7ohAxgpZZ2n24Bww0lscrSG1AoV1zqphEC1JTdIAW6stzbjbwuseMPOSsnqSotocdVyjvzWwwZmfRSj74K4Z0FGediRZ3+uGbuxdNHU0o6PFNvwmvfL8NoPyvHL2yvwjFelUTucleQprqKslrsHZn2Ehv3QihFubRhR5IM4QrKjcABIDCSBoyWVn87Y8JzNoXdx/39y1bGx3+SJTb72OsJCN7SahlsgeO+6Y3jfMSMOR7zx7XlJBN/QZkzS+dwBaD7ORWDGBnqQPyRBNFn7T5nDkkDfn7bSESyh3kNoAAQD0u/BnHx27Z+AQH2NTZPqev9QXVgSCETJORLI1OBz9xz5aVzdTwI1zYE3kGJvjy9B9HlLMw5XPPFasSQyNM9QTsdX/RMPs/CdQKDozafDjkBQA4NUOVyxRyIiZEdxtWVZ4vXj/U/h1+IrgUCzBzAJK2T+e/MpXGNqClsCQS/Sn7JDX0+DE7z0sGd287J+zANwD0NaQzOwMBBBrbC/Bv916xnanxP0QmriKVqTCmecrHRIQhcCGQdpHNv6164qmCvhfPhAf4k/vnwMf3LchE2OFvyPDyuCSiJwXys1RbjS0ITDHan7Qt8FuSATxgIbrZx88kj/U3nBegQmWQWiuAl9OV7z/PrX5/HMjbn0w4YNCtQmwfus316B7eRntLvDnj+48JxTFIvd24ruKK5yWXiW/xZIY90FkfjAC3THsfzDStzY3N5ZF9JbW3BZnQvnVjXgT4l1ggatgSreQCAus4CWCQYD2slGJe6pCqkVguIqPfIjOLL9t0Aaiwp84IBrKwm5OO3japxX3dBzIzsh1Q+nrfjpN0upC1qano+jN/ath0wjpIPzXc+9XYq3EMuWT35G22AwPx2otzbjB5NDK+ZCDxivNVfBgHM/21fNL4H5GmgPEOgy4M/hMF9LHx2CQKR2t6eJHazUG9+cx1EbT15gacAtzt2ciz84XDeoCNMdQm2FZicVewYwpF/8e/8IpLav9KjRA1NGwY+DpYDzVbkku/DXjIO8vyQtn24iZCbCgRr8U4kNW51teCjg6bfOhFhX6zi5qnG+4l8MpG6dTdXohMCp0Y9pi7GRZGP+AKySwd6CXztYi49XOLAbDx24SDz3ApwCWSeF4qrlmJ/diCPuCLQaDZrQ8uxCnLK3Cn/4Uz0JpBsxQ++oMrhoGCCF4qosfbzvd43Fy8dODIYa/cSWErwoJY/GMbEkWP7shKkzQ2O4EGB9Y9LyJFFcRWrnX/xSo3mtoSkQanTXBQMNZiV4nqhI+Qn8zvf6PoProYxqQxPdp5Af+YHiqmD9wr84SGuuCIQa3ZM7U35+Drcz7vQK6G2CZvxQi4pw9yrSGZuWy+de5kc5w3Y4EGp0T9nZqaqGXwXLDBcC3DscEICJIrt/NuA/64qptAKkenVXpWgNaDM6LqvjFQ7eDwLZdwZCje5JOU7cU40bmtpwjbkJp+yrpqcWWpk76xWwX0fLHJRQp8856Xwj0cYCC3os0zS840cqb8kOhBrd47Br4tv/991S/MqOcvokwZHkUj3LzHzFOZO48RGEM0gwmVetenyEb52JGvPaQKjR/sRFcKoUzpzD08XQOyD5eOE98XQikHQ8bsw1w0cCNTwsZm80bATM4fmf14qpTsScmW9WSKw0HwreHlXakembmKhqnRVoNdoXXwuW6FFtEa41NzOG+ID3ftCL1sEIxVUkWMp8i4FSR9wOBJoZgt7oF98vx3oLI5AvpZ6ntorXejyro7jKJeE7+iTQQ2vHXhGK3mhwZZ+eMDF2+ADoXHhyS4loFqjzsjqN8yUfbBDtjXYFWo3ue6pqAU1XGXyzQO8d0ov6+XRcVveTb4G01lK+MFO8qWQgMH6Tb2HM8AMf/WIQtWLvvaxOlnzFtb6o0YdigqRGdzuWNyWvc44zg2+Abs75SeKdIvZeVidTNa3yYUqH/cNgqdE9naw4VGRlrPDTjdWQjPWXUjueL9Jg9KX0sjrLJz4019uUcdo6UUfUqb+sGfStqsGAk8SNy5WFeJr8RNCD6vnp5XDLT+OK1DvG9FHOsL4othr9sKYo5BPGwhFwImVxah5WfXGOzkkSo7gqU7Ut6YNADQ+JPakD6jsw1JvBPxg7ms/gVEuwq/Tw/nSeomB/o49rDfBMjxpdIEr8k/HJWdrm4WphXYr+Alo/FqaI96DDzHCks9Rz3PbhPbe2Zoz5D6pGJ54WJf7Z9bOBMaGfgFaYZ98+I5qoCJygbiwDT+25HvbMpAliqdGgZax5r4wGg94NOVHhYD1CfmRj246Il/B45ynyantqH1qQeGo0nECAVlfoCyqvc+Gsz87SRjOGvgH79MSWYlFVaehYRVpLcV+TOsrEVKPBEkEgDelo5IYT+HFdMT1Hz9C79dn8kfiX4NDL6nLqcXzahFt7PqWqtfywWEQ1+oKUkaSkRTVOuklu1jzdLUA3e1QoEv/kqre4qra+0Nukjh1iqtHdNTJt2l2Jn3q9BJ+oZJaoO8BQLTgCHqrL6kg6f6iXKw9sCk5ENbrnYVXHsTrEF6lIFe/+oKfNeKGZp1gKVqhtReqNV/Uw6sW8Rkw1ujeVekl6PrY6mUr9W+z6uT5kwzm9xVWU3fJID6NebCukMjcaRuZ9mWtmjPkNYPrbn3VFIRnEQI/80MvqLHt6IJArWiw1uk+xkbgxGJPHcCF+PmML3TxFKK7qjA3cM5NGXygmpo2Y7FGji0JOIO/RH4YLUWdrpgMrQjJPcXPHZXVZeNoFBFr24u3jqRqdUiIJAkEP8LrtFazs0bWMQdL4t7/XB70K3+cED4Ve1pMa3Sh2b3RfRIL7tmCKGTSWD/XA+ociqyRufeYVzvk9TeoofTBTWjc2L83Ix8+8XUoHDSxKzcdf51uGXN0MdFVowIvLCO29Jt4+aU5+w9U9WCDL96FUo31VrNdvL6cjUc6ammhmMhQUaDjeHNI5ivKTtDeIFxo+7WXwuG17KNVof2tpEAtwGQU4eV81LqltpBsN/TJAKug1gnPl3rJIyflGrD1Qgw8XW+mCIi683rukjpe3lYdsjiJU5GOyayADc3LKEZN7Kag6sqSgRvfXMj3/bhneuKuSyv3xykI6ZwfcH9yo/IjgudzE+yHAlJDHtEX4b2+U0NfBgE8YQSNVfJlrCslFdR7ynKO3+iDV6MW9dyaqjJJQowcaePdb50g6RS+NgUvhutZzIYjf+VM93ns0NNdsgjWF8cnxioLQkUc5KtaXSR1hfYthwLrwEnJp0xsMB4X7LOArBLALkvIoucQGTOeAHuj7RI55aAFVZ2hCissX+3RCNU4hHTVaKtYMugQeeOXX3ZSh6DbZ/YtBNBcGg+fhTBjKMTWgTNs836eVZY64TSpqtFQX1ISgnCAWwH3CMC6xTqVC0ZTeIaYzmznF2Af8mti68un/HAcEmpNSwsjSS/a3UigSZWxxeV0j3rCzEk/fIE5MClc/8TqSqmutZ5FixO39u4ROa3RKSY2W4oreeFKUWOgIsTxwE5I4k+pLPJPJtNZjXMaESf2+Tx4JljNwFogRpZcm85Q8GtiKISB+lWce8D1rfd0XRgdrelpWd3PyyLERAwFh4Hcx2WcZUfpovz1dE/wBoe2EQDDlP1guDLLtWE+m1c6rW+UREfiiiIECaWzbloaJGh2qBZ0CdbaWoBMILvCL3hicyjskSjwcW9YaTTIlXhARKMB0znBVo8VI65cpC/F5keY6Qukl0OULEAfpcWVoy9DYDnOKcf8aEUjw2eYXwl2NDmYKD1dZBTsDczW34x+LbfQa0UCm7zBI1ZOiG1tkatd6bkcv5937TyAbU6N7WHAxnLkhuD1JML4laU9VQEozXYVBOroXrI7WcpK4rN9HBAtcdmsUU6N7GLhErMGWr2tJCh+c8XxwnfmOH+tpYThQsyihh4eebdcZnUjtetHnKwz6i/i0sbcyNbp3IRE+YBjwBNYCJs22+1nbqLM20w7LzlZV4hI/PmYM2N2p9Kaf5GKPu8oxuJHGuSM27ZIbIsQAtyb6cqZG+xKMHsfrt1fQy/Xe+k6PPz9hogMj4OxWd3OPgGSQuYF+FK8oxFu/qcV7fjHgr/PNeMeR+oDUubzE8dSxDPQkKZ/ZOiVCbCCtqYGp0f13G3AXCFgUGCS676gRHym20X7uFapCOp6u87qHdZ7bHWcmDMxlwdl1cFWcx+IAcX7kFXh+RKhAAq0SpkYHzuXBV5migE5nC+T4uahNhSQ4rvKUIHSGdiQ0fCpTtEZHhBoywfotU6MlKCMQ6xa1qQA/mFGBOa3H2si0pjqkbkhbljLy5gipAAmOD5ZqaiW4gR75HZ488PXgZh/MrMALs6roECRogIohq+tX+D78ObwOXg+zbqI2n6ZtCyCqSV13gt8TfmewNHTgJU3FjQ6kcWzjM9tiOPnkkRFSg0xtywi1Gg1P24yN+XhuyhlKAGj2p6YaNrBj8VpDKxKs55FgLJAJziNIqDuANHVfIHX9Z/SroP9KJjgOIw35c62tltfWt3b9+/RGGvLvhHoQ/AyYiwz3p8NcQPjZoJ+IJajCzwGyQPYLl98C8TsJ49FvKkhso5VlNS3inokbHSFlIJX5+VCo0bCBQBjYvC5kcSOhsQppr/sIqWMSZIqdK7jM1fdxCdMmyeWxfhX/cMR7wzj5+1dzGWn3yJTH4pBq9fNIuE+NNFd+xgvuAiSY7SSWwL8lGaTDQGDoDwaiLSAuZD6xZkA2sA4zk4qoVYQFx3+jEgqojgbL+31Ys8jr4PUQ8AJZ4b3gPeO8wa936YzNhDDHgDC8yvUwSsE3RYQTkNq8XCw1ejohDTxx3tSTEMeNtMNOIPXMNKQ6t3iJ/PWrxPy3r3x67bjlGa47OMXoubxq66O8esV6Xn2XgDQ37kDC2O+Q0H6aWLW67qyZH4s8FMQNaU3FSGP+GmksW3mVbR2vauS5DHzHqlXaERHhDF7hmBFMNRpiD7A08FR3PHFNMo3lE5na9dii5FHXhss+LXo053dcgmESSk+7hUucclds5o1TOM0NkTLhpuky1bXR8cKEKC7HEMkpqh5Aica7lykm3SyTV187b57ikojBDC4L/3sw1OjpG/No81KHeyJPoeUQr3Y9vizxsvERDIMHy/92z2UeNTow0jpYMjoqllobkx0JzmwYJ8N2ehADCSYHxCYDtTidxNGa9Ejd/GJM5uXj2O4OBQKRAA+yhP5K6ws7+mzhngVe3fTcQvk1l7JdHUKQCdaDkGL63d1P0lRolZTlmFy8qiGJSxp3OdvNIQhe05AEwe5UH9XaSJLy03PUIK9r7J8j5ZU3sV0cwuDSxk+GAh0IXr7cM+4p6JlNSNnyENs9Bk8cpHIqe8vG6JmijAqPACjYD8Ymj7qO7RpDJ1bpHh+BNM5dQBCozs9KLKLlBsiuQJLvUI/dSO1K5Li44WzHGC6AXI4v4lRNTyKtufpCOd58jM/Cc9guMfhAJPdFXGbLf8mU1jiksC8OuwIfAwMDAwMDAwMDAwMDAwMDAwMDAwMDAwMDw1DB/wF22gqTBnWcQgAAAABJRU5ErkJggg=='
p41
sb.