ccopy_reg
_reconstructor
p0
(cemoji
Emoji
p1
c__builtin__
object
p2
Ntp3
Rp4
(dp5
S'emojipedia_url'
p6
Vhttp://emojipedia.org/flag-for-Argentina/
p7
sS'index'
p8
V906
p9
sS'code'
p10
VU+1F1E6 U+1F1F7
p11
sS'apple'
p12
S''
p13
sS'twit'
p14
g13
sS'gmail'
p15
g13
sS'related_to'
p16
(lp17
sS'name'
p18
Vflag for Argentina
p19
sS'known_as'
p20
(lp21
V\U0001f1e6\U0001f1f7 Argentinian Flag Emoji
p22
asS'default'
p23
Vemoji
p24
sS'bw'
p25
S'data:image/png;base64,iVBORw0KGgoAAAANSUhEUgAAAGwAAABsCAYAAACPZlfNAAADaElEQVR42u3dy0tUYRzGcdeeOWdSaBEE9U8UdMGFl6LchC0iCrOFkRmWkhAULSqL0jQtTUszyEuWjFfM7MLUKrpgaDZR0V2TpKy8LDT55fseZ6Yhghbh8cj3gYfzzpyZjR/ed945c8AoIa5KFH8CwAhgBDDACGAEMMAIYAQwwAhgBDDACGAEMMDInAHz+/1C3VMNtq/xDXVBAQOMAkYBA4wCRgEDjAJGAQOMAkYBA4wCRgEDjAJGAQOMAkYBA4y6AYy4I4AB5lwubbT0ceDZ49BzfafMiHOAzcF884VxxtstZthcSrevMgKmaf8meVBfGjr/3WdKy4Etevz2gjnznirAnExTulcfh69Z8q7SlLvlhyPOq+c6j2fqcWuGxQxzbHY1VcnE+KgelyTFyIkVNsbI0Cd97O99EBp/CnRLUfwCPc5fHSPD/W8AcyrB5bArx5JAsSlnEg2p2WxJcWKsVCQbUp1i6HMqV9NimWFO5f7lImnfZc+alh2GTP2clPxVpgb8veq53o566cqegd1rSk97LWCzmbGvQ6Fx4JZPegpMqdu55g+sYIuTFsvTQlMCt5tC7zu7fglgTqQzy9Aox5ZH6+NIsyVjbZZ8a7Srzy2LlodHTbmT65GqlIUsibOd61leCZTYy9+rMnN6mfPIeJuNM1gTXhbVVl4dFaB6zcsy+7F6b8duL2CzHTVb1Kx5lGfqWRSEurHHEP9+T+hx8FzHbg+bDidSmrw04jPsQ7UlRQmLQkBqmbyVEwary1grPfmeiM+w0S+fAZvN3Ks4ItfS7F3i7VyvPO1s+Msu0dI7SN92Q7+2PXOB3mEywxxKQ6r93Upt22s3G3JxgyGnE2L1d7HyddHyotSUmzNberdfW3Q12PDH11IQZ2MVxcfIQN+j0JWOwedP7PHnAX08udIrhXH2JmNqckJfJQHMoVxJtZfFrvxseV9lRi6b5/Pk3fROUW3vVZrTvcwwJxO88h6Eajm4VX40h5e9hw3npPXQtojlkKv1cyy/f06pn1fmU+blL869BWEkdcVepZpfnAlg5N/BuOePG0kpYBQwwChgFDDAKGAUMMAoYBQwwChgFDDAKGAUMMAoYBQwwChg9H+BURf9H2fup3VXAAOMAEYAA4wARgADjABGAAOMAEYAA4wARgCbz/kFqkvOGsIRAqQAAAAASUVORK5CYII='
p26
sS'version'
p27
VV6.0\u02e3
p28
sS'uni'
p29
V\U0001f1e6\U0001f1f7
p30
sS'desc'
p31
V\U0001f1e6\U0001f1f7 The flag for Argentina, which may show as the letters AR on some platforms. 
p32
sS'browser'
p33
V\U0001f1e6\U0001f1f7
p34
sS'annotations'
p35
(lp36
Vargentina
p37
aVflag
p38
aVother
p39
asS'wind'
p40
g13
sS'andr'
p41
S'data:image/png;base64,iVBORw0KGgoAAAANSUhEUgAAAEgAAABICAMAAABiM0N1AAAABGdBTUEAALGPC/xhBQAAAAFzUkdCAK7OHOkAAAMAUExURUxpcT92qFCJvD92qT51pz92qU2FuV57lUV0n1mSxlaOwkB5rEB5rD93qVSNwF2VyEB4q0uEt1eQw0F5rD52p1iRxD10pUV9sUeAs16XylWPwjtzplSMwD93qkJ7rkB4qk2GuUN8rlGKvk+Huj93qER9sEN7rkyFuEB4q1uUx0B4q0N7rlGKvkZ/skF5q0mBtJSUlEJ6rUB4q0V9sEqDtluUx5mbnEF6rUN8rz92qD93qT93qU94nUmBtEiBtIONlkZ/s1OLwD93qkN6rZaWlpeXlz92qUV9sEqDtkd/sz93qkiBtJmZmdfX15+goLS2t6enp7CwsLS0tMHBwcjIyD93qZqams/Pz0F5rEB5q7y8vKysrJeXl8HBwZOUlaKiotHR0Z2dnZeXlqenp8rKy2SMr06Guc7NzXaSq6urq6KiopeXl8jIyLq6upqmsV6Ks7u7u5iYmHePpP///3Ss33Or33Os33Or3nCo3HKq3nWt4Gyl2HGp3Gef0/7+/3eu4GCZzW6n2vz9/////2We0XSs4P7+/mKbzv79/PT5/YW244O145fB55S/5+jy+nyx4fr8/mmh1b7Y8ePEm9/s+Ie347TT7uTv+dHk9V+Yy/j7/v37+2qj1tTm9qDG6evz+vL3/KfL6+bw+Yq55MLb8rjV76/Q7Xmv4Njo9/36+Pz49ffx6vr18OrWvuXKp+ejDYm45ICz4uHt+KnM68be86PJ6nat4H6y4vn07+vXwu/g0eHBlejRtd+8i9SlaNOkZceFIdyYEO71+5rD6JC95tzq9/bt5fHj1e7ezenUu+LCluXIotqxecOCKeGcDeunDY275c3h9Ovr63qw4e/v7+Xl5fX19srg9N3d3fn5+ezax+bMrObNr9u0fuG/kMeMQN+6hterb8uUTciMOtGeXM+cWsqIJKTG5c7Y4PPz86TF5OLi4m6j06rM69zo84+64Ozbx/Pp3vTp3+fQs/bu59ercceHLeWgDcqMMs6YUfGuDe2pDdOOFNCMF52+28zS12ttyk0AAABzdFJOUwAb4iMNHtUBAvjyUV0x8P1Jy/RnFfYGnrP+9QjuPXhE2Yfn3BGSf89N+Vl76qJVvwxrRo3I+2NkgycuKgTHuxWr6zh0Iy8sl8GoP7hL/n3do8fV7PQ1U/xYV+e+Ou8ck/txLq73nt/3sLaPP/fi1MThQHbSS44mAAAFoklEQVRYw+2YZVQbWxDHY6QkEIIW0lK0UKRAKdSpu3ufu7vszcYTwkkJlkCQIMGLFYpDi5VC3V1fXZ/1ufvbbEKM3Z7TTT+8d07/H5PJLzP3zr0zc0mkx/qvayTLadnYR8ChRQa7j4+i2s3xDBwlAmJ2yGg7OVRvLzkAQB4wzb7l8Z/FFiMcwPOKsAOTMCOQouABVMrFCUQpnssC6Ww5MErk5oBvO4JGXjQmzHmKxxTnJ51cl81jLZpGdUBEncaa6BESM54jAiYJXFxxKKOpTqFL4ym+7gxGeDjDy53pMjeIEkwfh4geHOTCUGrEwFKFgZixkaO96cxCiYgv4MHoYvJ4ArGYz5ej4osFQGiFAUJNjOdwjEPsEqZSxLM1fqDEQWOGparzTIZG8DAQVOz5I6w5M7xdJDzw0Np8/80JVrs6cSZHDAho+xerF1pyogMUPCIcrkr9xmQzx9HpdQ0RDIC37IO+XGOObR5dQoyTViCFPl+3wJQ9PkpinLxTSRCk27BpCOTnJSAEOlkihRBdfMHRCIqRCAksc21pG4Tq7NrnjaCZmocFwVzZ3qpyAwfSPbfCCPJRYIFgg7AoIFOVXSaFhrRylTE2b6WNIVcoy2xNT8vLS0tv3ZFZK9suRD9FBIDsTFpGTcFuMwaCTj8z2wAK5FiEzpWlqyqqL5Tk5leq1ZX5bfvqCi5UZWtrvqro7KyoqKmuKskvT4KsdOnpZw2g+eEmDEgvrcotz7Ky27qtq14nTcpClCSFsPTiS4aD68zkGmIStmhzi2yMUvYfbGzsPtCVAuHr3CuG5Hadi+YR3FqTn2Rrk7z/0JHDOTlNh77fig86v/plFLSRgh58VUHRcJutB5t2/tS/6+q1K9/pcEEprxoOLpUuB3BtuxrLpuvQ4ZvXjw1c39X7Q0MyLumz19CKS44XgczqVEyThr6ddwd++WPw5/6cT3CDK/qUjjYBY300O7KLsG0arty49Wfz8V8Gb1+9vB+Hk9xRy4xGK7D3fTwO1NV347e/Thw/fuJef++3OC7V5cGJcfqqlBD3Nx4H0vUcuflr84nm3wfu9DbWY5rk7oVBcTxZ79LH/+BvbUPftTv3BpsHj/Uf7sYE5ar0FdfXXw+a/AQ+KOVA0867tweO3TqKudrSur1oMnNC9cm9aQP+zkL1SCYd3dV/tPfygeHZndqRZzhcmln6NvCj9boHHID6nr4jOb05Td0Ntt8ktbVnwkMVdx4CWvjhpQeAIN2PPd2NjT22CZnVpm0BpvtqUiwS24J154cHn1WUiqooKysZuQC2WS2QNFV9qiJNyDV3E5I5NBJp9tqz1laVJVXa9tI9GYj2lHa211RndxTU7cuvLCvbXVZWmVvSoS1tqYW5ltehPIBFIk1467QZU16n3ZOXKQNckxD3t8vO6O/MLYha0lrRb20uYJ6XB5Laa84NOaPOzmgF6G8x7vAhMIxVEBJDkJL99kUDZ3f2SRkXJlTkwKRQZNtWrUQPcYFKxgUEJXFjDaV2ubYVBoQ5Aa76mrTi3RRI3SkjzIEVdJRDeme9Lj+DsDdAkBjvb6gjC9/7WkU8LP4kH5axaC94/xvi/hS7hJja/9kfiAi7k0j3oJlbYx9ird9mgcQ3aqOjxdwUpSDQIgGxZNSsaJpld+wYp8QC8fTC3SpR4lwfZ9sBwo9jg+CLFIXhyEzD9ArnKCXFcmQ6MWeNQCySsF3c4iYOH449wi0pIiWDsiRqamxEmGvYU1MiQ+bEjNPPS2xOIqJCNoNJcVsa6eowEmMscnI3/SFf4T5usTPL0zz2JtA8qdORCc5jfuTUqaF+sRH+08l4Q/EYX2Njy1cGzYlwSCA8p06n8NEFVIz39qfZMzeT3YqRbRMxlofR7Hyf8Bsl4kuCQsl2vyyM9XMLXu408hG8dSSQZ3g+fjn6/+hfWpa+69QYyOcAAAAASUVORK5CYII='
p42
sb.