ccopy_reg
_reconstructor
p0
(cemoji
Emoji
p1
c__builtin__
object
p2
Ntp3
Rp4
(dp5
S'emojipedia_url'
p6
Vhttp://emojipedia.org/flag-for-Ascension-Island/
p7
sS'index'
p8
V909
p9
sS'code'
p10
VU+1F1E6 U+1F1E8
p11
sS'apple'
p12
S''
p13
sS'twit'
p14
g13
sS'gmail'
p15
g13
sS'related_to'
p16
(lp17
sS'name'
p18
Vflag for Ascension Island
p19
sS'known_as'
p20
(lp21
sS'default'
p22
Vemoji
p23
sS'bw'
p24
S'data:image/png;base64,iVBORw0KGgoAAAANSUhEUgAAAGwAAABsCAYAAACPZlfNAAALRklEQVR42u3dC1hUZRoH8BAQvKBFgoTKRQExJYj7RUUCKuSmgqShpSiwQmhl8iQioCIIhDcGERMBEUVSZFHcUlECDVPBuwblNdfSNnerVWu3ff7LeacZGKFghhmDer/n+T/nmzkXec7vvN/hnDkjT4Bbj2pP8C5gMG4Mxo3BGIwbg3FjMAbjxmDcGIzBuDEYNwZjMG4Mxo3BGIxbtwGrrq4Gp+eEwE4PGv3romZLFY6kCdt/NKrcfle3210jA6YKNFWC/RbWnwZM2XCqAOsI6k8B1pkdoMiOUDZYZ7H+8GDy7ozO7hBlganiZ+vxYKrYMcoAY6zfAFNkJ11ouqMSMGG7tK6+1Z8eqkMwZR3ZioJxVSkApoxqkxeMq0oJYF054uUB46pSIpii1dYZMK4qFYIpUgkdgXFVKXjhrMrWEZhK7mozGIN123uJf4QwGIO1m+fzXmKwngSmXdqPwXoKmIarO4EJUwbrAWDaImOYJBg9tipjsC5k8vxcgjJNGgaTpcYM1t3BTtQ2EJYkhu7WfB3Wna/DFiwOIajMvDX48p9XMD9VhMq5SQz2e4ENckyl6QivzHbnm84djH6JTyJMNJH6QoyMJsgso2YbLO0b5JgwmKrA7v7rB3jZvEjTPTX1FJ2lo1p2vu1Y+CaPJTDrcA/sCnWQRrLMqoIPYbDRuE0e683f1nfg5bl5qwiYzPL6Vh1+uq2MjMqxl3l9/et7WBCZQv2ncp5u+e2weBDWLQzEZ3sKpXkU7IuvvhXjtgN1+c491YN1tnpaH+Gd/TxMkW2rIn1X9pVCCdG2nIqQV+OgZucjAxZfUAGtTUPR+O+fkRmbhM1HGrFjuhPOffuA5jf9/R9SMO8dZgSmVTgAaj72qgdTH5nY7s78vvoTmZ35n1tf0ftjp21W6ANMYb322hdBc2XWe3D+Mr0v/FxKvxC2iEbTzbuENdQ1pvl1FPVtm89TEjABaUJsMWzm58HyrVxYLNhI05FR4qnx1CBabt/fatDLzRl6eeL1DDaYQCNEHfprR6huSOzqka/IMx3dpdoklSYZDtW9xecwAUWYGk45iHGbHSgrcw9gwvKDME+aIJ1/qvEWVVkf7wjVf4DZlapSxkM43aHahHx2426b8xcNeVfvQdPRGym5++EyOQxajrrQcVoN2wIbmeUkw+IwkY3qwJR5hHf1ucTuUG3W2X5UXf2D3KTvnW1oxPL15bh8phF6BXoUV1EgIUqWqbtwDbuqLqjuEQFlVZWyHyT9PavtXO1eHDxzBRaZY1quzzyC8PD+Q+zaW4Xs97dD19IEA/3sMOCdUQTXev3z127TtKKy/PFcOHf1SFbms/WPu9oObd1OYHQwe7dcg+2uPofLlz6Cp+8cjA+MQeC6IjzvPgcDYkaLq23LYGjYiastK7tA/Fvh+QM4XFWmOrCuVJUqvwwhT7V1aRi0nQVXa3eMekZ8T/LL7+5TjtTXITq5Ev6+kQQ2LlpEYEJfMjS2jhS5bBvi572sGjBlHrGq+n5YZ6qtq9UV7B+NQxW728y7+c23+PzOQ6oyAevgudvYcbQOL80Iw5Fj26AWotlmHaHChDg4z1QemLKq6nF9oa+jalN0u6ZGL6JgbRoOlYuxUtcXoebjSty6ely6jARMqKzS+iaYD7TECi1tApMsc/LoYWkkaGXFy1T7hb6ulrCqvzL7W9WmKNanMTZ07qrZFY6Pq/c1D2c7aCqJtGqawd5IyycwHX1rDBvsRlNh3o2b19F/sC1O1FZhyduzkLB4FeqqyyCa7oWdjv2gMzz88T1I+kfOkWgjFPoORZzXOJSV7oXDsCHIz/KneQ8f/CSTZ4aPJ6CTJ863mSeJsN4kFy/MmZ2E3KhAVIUa4uejOVj/tA6DdTXHYoZQ/nd8A0Wosqp95Ti0d0+7YB3lzt3vaL0zpy4hY8kKHIsfj8MzhkrBXO0mMZii0TV9HWsMByLrWS1cXChG27ttLXycA5CbtRk6zyURgl54NaU1jNnsAzKv9eYeowh9AStl+TqkvrscmyI8CevmIiP8sD8deUb9GUzRCFh1caMI6+NwK6Q4aiMjyg4+Vi7wt7KnShOgLl69iz6WM+A3LYz6/nMyYRB2FPqzqnHpi1sYar8Y+tax2F5xCk+NWojKoiKEujlQyhKdpWDCVAAbbjqOwRSJUFElC8ZijYkW9QWwtYlRhCVciwlgOvNOUvoEVWC05zz0jWqgaKaYoX/EWcoAhygMmbgWT0c3SMF8p2diZ/ocNH6YjTSnXvhvTRY2DNMgMHmrjMF+SX28GWE1xOjStGmPB+5f3klggS+HYmd2PmEJt6RemJkHsxlrCCvgAx+oF/WG7jIbAmu8dh2DphTjwYMfCWxDajJtvzQnk8BWjtPB53G6lBI3IxSY92MweTNuiK0MmFBhVyomoKmo5f5h2qIUwmodLadnCUuSXjbDCUqShnONVGGSbWxNCcFf09ypugSwiytnMZgiKbDTJ7AVL3gSWpKDOt5rPn+1BqvdVSuDdf3mNzJYkrQGO3uhSQbs60/zcWO/L52/TkZb0VQAG2HqzmDy5FSEMU4nW+NwgDHSh/TBm46DCesdzwCZ5frPPSnO7OMySL0Dg6V9vXVm6Btehz7zGgjsRRcf6fp7t4oI7PsqEfLdB2K7sRZ+qslGqpsrg8mTH3cvwuohvXEpcjQNh0J1fV4e2WY5CZiHKLAFLMgZ2rNOQz3YoWVotDYnsN6GGW3vUa51wdUt7gQmRKgyIQwmR9J8x+DYTBPK/qyXUZgQggUvTGoXTMPJX6a6BCxJrDd40HsaWXoE1t6/JQyLJ4oDCGmfswEqXY0hMtVmMHly/JcL5fzY2bhQ4oXzWS2fLGuMmQbrNc7QcrGG/1+y22D1m1KO+w8eitFer5cZGumJqW2D8NZHDm3Qkt1605AowDGYAtdg+VbaeG9+KC5Wi29DLTzoA+/EV+BX6AvLnYORUT8RamMmtIA1D4EC1KNpPTRKwLQcx0rRltbFYKrVCFwpy8DtikzkP6PJQ6K8Sfeyxr5kH6StSMPcyeJHq+3SLaFpNQW++b54Ls8UTwbOEFfcxqegvn5Qu1iSmKa7Q32rGEzAksQkwYCyLMILjfWHUORvQGBCGEyeX+s9DZHpboELJ08hfEowAsPysLugFK9HhVE0PY0we/dUWla41nKK+UiKc+32PRjOKW1TZWojI6BmvhQDHHwp01b7obTwA9pG+fvvIsB5PGY4jZaiMZgc6WUeL34MvRks8tUY8XmtppaSl1NCYEKVWW0cjpRPPGEYcQRGI5zRdPM7bCw5KJ7uOIBrN+5D0z6b1g9OjYDH1hGULFEpTp86geWxGbh6sQkV5Qcw2zcAr7iJr7+C7L0YTJ7E1YZLwbJXF2PxYpEULCdrPQym68JxqT2m5oVI1xk4q54i9Esqq6WvNR2zpcvMzJ1IUJIIFSbE0sKXhsT9e8SfaPttnsRgnc07dd4YvmgkLBKGYX7kMowxeo6ghC9ACDlz5CxNJxfbIX3xJpl1Cch1E+rPXKK+lkeRzPzWWNvydhLW8viNFOGGcklxCRyz7Chuq/wZrLMxCI6C+RJTVH14SFpZkojSNiH8tWWE5mntTWm97oDQT6SV9ihWZmYhliRspn76ii0o2XWA0OLfWIXIkFgkLIwjOAGMK0yB6Ji9gjdfS8aqxByET1tBfSH9zUJh4fQGzZdne84BGYhLzIOl4VjEv52FjOQt8HMJae6LELsgS/oIHd/85f/NjcNgHAZjMA6DcRiMwTgMxmEwBuMwGIfBGIzBGIyjejBOD/o7zvy3x/lP23NjMG4MxmDcGIwbgzEYNwbjxmAMxo3BuDEYg3FjMG4MxmDcukv7P2h4KTyUqIuZAAAAAElFTkSuQmCC'
p25
sS'version'
p26
VV6.0\u02e3
p27
sS'uni'
p28
g13
sS'desc'
p29
g13
sS'browser'
p30
V\U0001f1e6\U0001f1e8
p31
sS'annotations'
p32
(lp33
Vascension
p34
aVflag
p35
aVisland
p36
aVother
p37
asS'wind'
p38
g13
sS'andr'
p39
S'data:image/png;base64,iVBORw0KGgoAAAANSUhEUgAAAJAAAACQCAYAAADnRuK4AAAABmJLR0QA/wD/AP+gvaeTAAA6f0lEQVR42u1dB1xN/RtvICNb9mulPWgSCWWmlJFVKA1FSqm0p5Y0tfeeGtqbSIhI9l6vTdqD8v2fcyL6C9nv+7rP5/N8Lrdz7zn39/ueZz/PoaOjEY1oRCMa0YhGNKIRjWhEIxrRiEY0ohGNaEQjGtGIRjSiEY1+PDk7yw70j+svFZBYuyE4sc8SB4eNw2mrQqMvUkDAuhFRmf0C4gsbmxMP1eMdxxc1tEVnMyb5hvJOoa0Sjbol/2hR7rj8lnuxBbXQsCnFNLkwjJvjBe5lwdhoUoyInBeIL2iuCUrim0NbLRp1oaDYSfyxBS1PAg8+xpQFvqCbavERj5zpCo+4u4grbKj2DBgzgbZqNKIoOOGv2XGFjdX+qY8IiePRLXje8ehZbojKe4nobITTVo5GdCEHBq2KL2pq8ky4h1Firp8FzztWszpK2EQtTdbWq5lpK/jHUjt9eFo/s4Sihnb7kGsYLOjYI/CQzCsTTBnWIQcGrKKt4x9Ivr7rh0ZnMaSRINB1PgUmbtseg4dkRg4rhGY+Q1R2ewRtNf80lZUwYX5cfuvd2MJayGilfxVwPmQdp3LE5jc/t55n1Yu2qn8AOfryDo3MYvBLKKp/45lwH2yL/L4ZPCSLrY+l1Jh/wmgJ2ur+h0lDQ713+MFBWnEFzU/ji+qgbF4CJh7b7wIPyf359iCmoAbRmfT7aKv8HyRr67l9Q9MY1GLzWm+QksI26AqmSPl8N3A+ZDOfC4jJbb9GW+3/EHlHDGePymS0jytoekwCxzniJoRXRf5Q4LzjxeqpSCyuh1coNzdt5f+llKiwitEvoq9oRGa7RXRue0VCcR1IVbXbsxL8y0N/CnDe8QhRFyQQAArLeG38Ry26gkI7o7Pz0PEegb1EwlOHLgpObNgQlcukFp7cvis0rcYsLPOlRXjmS0uSQ1NqzFKyWwwunG3fdqPitnJtaKZS/f4jq1rCby2q906QqHUsF7lfMo4tL+/BX7vWs42wnlf4k7wS0JuYTGcJiBs2IyyVaWNERuve6Jw3hbEFDXVUspMAjkPoNchpZ2I4sbE/EzgfMinhYnNx7D8JlBPZ2oPiUgfMizj4Sjcmm8EvJud1MWET3I4rqG/7MNP8SSY2JbvsOSqrruJa5TnUZRXidULGe07MxPNDpbhcVYWz565SnyElQExe/avY3LbquMKW21FZdVdjclARV9RyODKrtiAqsyUzNrt3Unxha0R07suwiMyakPCMmqCIjLrA8Mya4KjsmtCEwt5R0Vlv0qKyawtj896cis1rvh2b29jy4bWRCU/nyJtQtz4KccV4DBFy/mWg+ZAV9PMQX1jf7uEhOepfD5jHBvUjm31LN7SEHw64X3bp/PkLl9uzSl9SCx6W9RxkxHWH00msMyjAQtUUCK+OAueSAIyb44kRM1zQn98Bfbht0YvTGkwEbzXPQHVtIxpu3cWN1Rq4yDkHl3jm4Qq/FG4vV0ZDeSVevnxJ8eMnz6Flexird+Zgg1ERlC2OYLvDcezcexpGHudgHXAJe0KuwyniFtxi78LnwAP4pzxCQOpjBB58QvBT6t/+KQ9ButnOkbexJ/gqTPZXUTEXJZNDWKaZDlGFKPw114u6xt8BmP/nSZI+1PqGp/ZT/VeC5pndKY7m4CLz1sjCk6/jMtpJydASlojqkjI8fvwYjr7HMFzEBfRsX+GictvAZF8Bmptfoa7kOC7wS+LsCJ4OHs6NqwvXoqnqEj6ktrZ2bDZMBh2r+T9iY38V07NZwjf5IaKz6Q7+a0CTm7ho2PmzDboPjl2pINXI6/h01Dn74sEmHVwVWkxsMg+e+oZTGxuaWAG6KT3f1IG8tnAPLcPr1td4mZqDKlaxLuC5vVkXbS9r0R25EZ9jYLP4owBE8hbLI4gvaGy0trbq/48GjlfU2GmRmW1hKcV1zWerruFu1QU82maCC1Nnvd/ktxt9d4cZtallZ+6BbrJZjxZitKgTco9cR1vrKzzxDsO58YKd31k5mh8PbVzR3tDYLXjuPayBvGbMHwcekqfJhVJqLCiJWe4fCRzf6IEzo3OQQxqokbnV0LEvw7Xbz/GmtRXX5ZS7guctX1++GW9aWnDzXjVYBO2/uAjsUh6ouvIYbfUNuG9kR3wHb+d3nRsngGdBMXjz6lW34CE/x7HAg1BfFn8kgHoT9lh49gtEZSH4HwUcn3gerqistnQSOMEZT7FSNwfM0+wpiXKs4h61eXe2m1AS5/8BdHnmMrx6/BTPXzZCcJn3ZxeAb+l+XLz+FK8JQ/gWoQY/lGQXeOejrvBot8B59bodybkXMUHc5Y8EzodMOgux+S2Pra3bGX47cMiOgKisPq4JxU2vwrOfU8Dpy2v3/oIJmyYi+Sy1iY89gnB2GNdHADr3lxBart1E66s2yGzpPhJLT7CkYigePqlDy+17uLpoXRfwXBGXQ/Pl692Cp4WwkWy9D2EAj80fDx6SyVACqcZ84phn/d5yg6RRSwkk3yMDY5p2ZRgs4PTxBROejqVbIbWRNbmHcGYo50cAOjOEE/VHjlPH6NlmfaReSPAsVo7Ag8e1aL54FVcXrHkvyYjXG6vVPmks/018RsPsIBhowOnkAYRmIEtEojKZnH5T8k+mf2RWHz9SXbnF3qHiM5+74HXa8Xjz5g2aLlwhDNxpH9tBQ7nwLDC6W0+M3PiVWrGoqWtBw4kKXOSX6gRP5Ug+3N1mjHbCFuqOrhK216LN4RQAacDpypb+FxGb23rpNyQA+dlj8l5XkeDZaHIIvbm+rBZmrwpAXUMrWu/+jfO88z4GEAGI+7ts3ntik8w6waNmkop64rN1xaW4wPc+xkN6XY8cvQjju7Vb8JSU3wHrfDcaWD7B0poHSTX2xjVQhP2XgSc4ceKSuILmmhDCSBZYEdbji2WVcMUDwnZpq6nFlfmru/fE5FUIT+0Vbtx5QXhiDhR4tltlEOBpQW1OMaqmzOwCnpfJWXjT1tatveMceBQjhBxoQPkMk0X5VFQ6jd7gl4AnNHmoRkJx42uXqFtgmbnv63Qutw2u3noOtL/BzXWa3QLo8ixZvH72gvLERGV9oUPYQi0tr1GbX4JzE0U6jzvPKoaarMJupc7L2mboEp/ry2VNA0kP2CXqNmJyX5f8dPBEpA3ZfaC4Fm5R1zFprhtYhB0wTMAezLy26M1uCUY2S9CTaYFPxVYIV/7widsdRq3F3m5d+arJMyhP7DXhbidmn6fAU52Ugcqx09+76Txz0VR1uVvwPK9uhKxaFOjJQCTJpB1FMuv/MQ04721Tg3wyudq2b9/cET8NPKfL241PVt4iJMhTSg09Izbq6YsGPHxah5t3q3Gi8j7iMqrg4FcCZcNkCBLSY/A0uw6vh/W9K+8fU05t9LOwBMJo7s4T40B9aXknIGpyi3F5pgyuSKzAHQ1DPLBwRmPFOXyKbt9/ifyjN1BUdhPZh68hKvUswpIqKHYPOQZrjyLo22VBwzgVa7fHYTkBthnyfsT1+oCBuAH+RACxLvCj1FhoSv/NPwU858+0a124cAH37t2jvKgvEeVpNb/Cnb9fIqPoCqWGhOR8wcRphZ02mdQx9WWnKbB054k9D41790Voq6vHr6DW1jZMl/H5IyPT5I1DdrhGZ7Ul/3jwVPSRuXj+ctvt27d7BJ5PAYr0oM5ffYK0gg7V03zlBs5NEv0YQMO48bexPX41UZl5o5Q/Vr2p25SCcIzqra2t+v4w8FSdHsZ54cKN2uvXr6O9vf2HbtirR09waYZ0t4b0jZWqePP6dZfj25ua0XLjNhorL6Im7zBqsovwLCQOT4Oi8dDeEw/3eOBvc2fq9YEN4e1Z7cOjvb545OJHHfM8Mol6pT5LMPk9zZeuofnqDbx++pxiz/DjYGT/fWqMkU8XvYW0fsu5BVaEd9RgHRgh/UPAc79sZ7+LVbfOX758mRDv3cdYyE1+843AIgFxTVqpWwBdElyMJ34RlKFNJl4vTpMi3PcZqBwngLOj+DvSICSTRvin+K3B3cnvjn/3OpIPlWOmUXxugjCqJokgknUJ+kz9fRKISUwLo3UWg55T/5efuw+XDZX0jsxsD/ghALpw7qk7affUEJKCzC2RLvMTrxDcJ9TL7S16uLFandrcGwrquKNugL9NHfFonx+qEzPQcPocdUeTIPkc3dlq1K0n1mXzu/vbT+JjLNMwmNX49wFIZBsGRoxGL/mFoGMz++Xn3+V6BrF5rx+Arp3+u8DzML+X8KPS8ra/CdVwWUy2o8bmwzu+2w1/v+mVLLxUkpNUE93aGzW1qMkswGXCs/qVAPkSn2Lhg9Dkbb8NQH3ENDAwciSYvEeDXmDrLz//3E2JlBrzixgo+l0AehV1LL85OA5Vfwl99SZUEYbxY0IStdXWfQSchvKzuKdvhfPss4ljuf9R4HnHSn+t/205M6YZW8EcyYK+SQPQW2UW6Nl7Jg0ZePTBIKTamXAe+C588pU8cLoj4orqCG+M0e6bwfPCuu/41/EZbx4o7XivSt5uNmmDnOeSwEXhxbgybxWuSipQfElMBpdmLsPNdVpovnazq53U1kYYvMW4uWYrVSH4TwRNZwUjwY5jl6DXb7KD+ohtJVTYSAzxZ8FAPwJIsxQIQHzZqO81UxUDVGaCnkubKs/1TjoFiQ3B3xSSsAm8jJic9qpvBlCj9zE5ssidrFMmJcX1lVvwyMkbtbmHCI/lJpVmaG9oQntzK5WzevPqNfXa3tRE+sIfIAeoLTzaUa/DwvuPBs6HnDpqJpim/nr7g2wgYJ67FYOCR2Oy/UQI+wtjs7shhgh9AcxsJhgiJ4NRDhwYYsQLRgEtaFilIyC1AnSTv/5GkN2WQSVX9wfxTf4mADX4pyo1HczHiwOZePXgUYen9eYNautbqLKIwrKbCE85C9+YcriGHEN60RXCxe8aH2q6eA03FbdTns6/BTjv+CQLP0azGvyWYN4MDUNw7eWFdb4FpLzngtdAEMzTFSEsaoYJ/P8HOC7C5ZeUw8jtM8ERwIXhDmzovWQ56Ai1t0glHG6xJ76pWWDMbHfKDoo42Ef3mwB0o+zFkstV5/Hk2Uucqvobjv4lkN4SCdZ5bujHbUPluxjelljIqUVR6YwPXXNSWpFu8b8NOO+4gpCWCyaq/nIA9eW2gntUNBbvk8YU6wlY6CaBlVZK2Gpjjs1LlaAo59ypkui5dTFYdxpG+UzC+IApGGbED4YFC0DHuwN0PNrgVzLG2Dnfnkgme+BiclD0TQA6c3TwtEPlj7B+ZyoBGOsOg/L/dGkvdkvo2WWhueV9sK/pwlXKLvrpm/x/cR3SriKL08hkK+ktkuClmHAAzk0Qov5N/Z1i/g51+qk40ls7aNv4Vb+8crE3hwVElqtiuhkv1HyVsX6PHGboC0BMXxiskkIY/kFsaOIybUxWWo9BO4Qw2n8ihntMRp+9YzHAnB0D9bjAvGMaJYm+9VrIJsv4osZXjo7SQ7++ytBg5EiyPXjp1oPdG3oclnD0K+lUW6SR/Cw49qdIHTIccG6iMC7wzsM1aUXc3W5CRZ3J89XkFKOuqBSNpyrRdO4SFatqvfeA4lcPHlP87t/k30kmj60vO0WVhtRkEGo6NhXPAqKo73xg7oy7Wsa4tU4ToTJ66M32qw1pcyxQ2gbPJFdMdxAB284pYNMYh+Wq3DCQ54f6vIXoxbqbuJnNsC8qF7oOmeg9TRPs9twYrD8JzM6T0d9jDAYajkYfGdnvuhb2xQEd8xRT+it+/TgAtNOTfeKKu4s+djM5reAZVtZFZd3dbvpzjGSyIVBtF149fkYZ6b+SHj6pR3/eH1d434/HlpLanzWiCR4/VxO82hwYZDwMo83/Ao/GJARtmoPoNUKIWyeC8dyaVEWDa3gpjlTeAfsCJ4wzEMEQAw7Q8+wCo7AuGMW2ENLH9PvsMeJaydbtmGyG+G9SY7H5rXe0HU/+n462xv6I4++z138/wtXF6747Wkx2kVZ+wti+paTdbbXhzyZSNZPVAz8kM098x3RZH6jsTsZoUQdCHe2D8EpvcCxyRW9eI0rykMf9Je6CqYs3gn8HJ0bvGotRu8YRZsJ6lHhYIUKOExEKwuDgWQd64vt2OmTh8p2H8I4/hrHb52CEMxv6EB4cHeuPy+ORzRGx+Q211tZWfb4aQDF5r49b+F7sYvO4hZS+X+Brt3BJZOm3gYawPaoItXRrozaVECUTpBcFF3V7LFkD1Fb98tNZ/pZWPAtPoDpa72juxs0N26nmRDKd0t7cjBt3X2Cr2UGs3xGPzfpJUDVKgaZpGsxc8mHrVYz94ccRkXyG6hMrOXmbqsO+dOMpxev1kn5YZp50PhJzzqHiwi1kHS7HgeJypJScxiJzPfSaq9SRSCXWmGuZBVYbLIae7hJ4OevhZHQAQu32wGXVUlivWI7ZyoYQWuOJORtCEJ5wCDkny8G+dTX6r5DFIHUxMHCa/jAACa+O7FBjSSyLvhpA0dltKaQl/q6g3c77UOemNVZewHnOOd+kki6LyeCpfyTVPNiZ1qitx7UlG7r9zAXuuWi9fe/zSdnGJiorf55tVhfb6Zbidsqwf/S0HlqW6YT32FUqdLD5+4rFyeZUVWV/QtIO4rND/+/sHaNnM0Xv6VsxdLYmkgvP4O8n1ThRcQV+UUUIP1gCn9hCTFyjjEFGvKDnNOoAESFFxtizQVVtEfbbOiJzvxsCCHsvICQegc6uMEsoho5fCFboJWLGSj/klVUh+/hlTF7kgKEaMui74MelP8iZjNR0+yx4fzWAojJf+YRmPacWWW13SqfBTIGHfdZXG8KX58jjedQBSip0W0W4Re+TqrDxzHnqGDKkcP3Oi0/WJJGS7A5hBH9ozJ8bK0AleFura6g6JJ7FXr8sTcHIrY+/ds/CKNkNxGb7Q1DWG+ySbghMKkdC5jHs3JMIZqmNGO4yEYxzlKi1HiCiDwFPaYzTYoWeRyD0fFNhGJINAcMgKHqlYbqeDwxiD4NztS+lyhYqh6Pq1mO4hJUS4CeDij/W8Dd0r0RM3qu7dF+bXI3KfG1Kii8ZtehOV50CD4f4V4GHLEWtTkrv1ggmI9jv6IGdR7edqmSjYXV8GnVMTFolBvPaQc8+m6p77laltbejofwM1XBY+YFhT0o4crTLi5dNMCHUF6lSfnpgkNMYw/QEwCS9jJBwFlRrUXLBBVy//xTa1iHYH30YzJKKYPEbg2HqC8Ei6ghueUvYxGfAJC4Va/dFYpKyDtRd/aBo4wduTR9MIlTbKCUF9OIx6ywRXqefgKOVtyEo70tpix95g0gqJ1FqzDt0guBXASg8DSqpJbVU7TNlMN+5T7nSPTaMJ4vikdP+j6ZikAZx/bFTuLfLmnCrL+KdMHkRl9ZtpyoJqod73KljKi48AOPb4ngWYUeqZYfsvuhWrRHnJUfFkNfRKQlH8uOhgxdeP3uO/NIbVPnqz5ZGfcU3YtiWmVi5yxsXbz/Bvacv4RSQDknFPThacQMiOzQxwmcsBuhwQcUqGd5puVDzScTo1e4Yv0EDs/xFYJ3tgPD0o+DZGIKJGhsxxVwUDNzbO0IqhFespBeNiPgcaFodxFbjQOzZF4KZsmQ71PenYwYLOlGzG6OyGK2+CkCRaQMXl5+9hYaGBrx+UU0lS3sEHuKuJ43YjxKqr9vwMiMfVwlJUDlmOmEHReHeg5eITK3skG6nz3UrgcgSkXee2K371fhLzLmL2ztlritS8i6ioan1k1WP5Oc/7IK9PGs5laMjwWfmWogBfLY/NbbDyLMN01fqwzU0kwD9QQL8Blim6oeSittYYGKGIb7D0XeLALiX7odrRgUkTWLBtiYWE9fFYPQaSUxeJQDOtfPBsWIlRiyUxeDVPKBn70i1cCzyhH3gIWQdOg1Tl1Ts841GWKA7TPS0sGiVIZg4vv83kBPXYnJfVXxdHfSJIfxkMdmLBw+pRr+egIeMAj8NiiGs4o8rFB+5+ncC7J6OOWprGiG3NRqKOgmUTdNy/fYn1SM5WYzsd39R04QZch9PaifF9tz1wTh+9n73ao1Qny8zCyiDvFMajeKjCuDIorfi47cguNz3p0ojekIa0E/VIaSnARUIXK8XiICEUxi+bjOG+YxGb5mFxHGWYOSygoJuAnKO3MD4JTrQsvPDNkcHjPKagBF64zBFgxf9l3GCged9zRIj2bVrGUpInwgo7vDF0eJohHpqI9xvN1j4jL772uV2ZJFTXd84eQr2/Flj17PFWUgA3TRz7FGc5/KMZZRK6o4aTp6lZvVQYJi/Gm0vXhJ3fgGliuatC6aStORGXp69vHtPjG8+1QpN9omt1oz9tNFKPgvCNovqBOlWGj15Rrn7H0ojsia7tugoGhtbKduImc/u52fdWU2h7xAHVZNUDFNUxBCPkaAXUun8O7+0N1zDs2Fk74OM9MOEStqDcY4TMVmTByMCR2OwyRgwq4iAgW8r5ekxcO/AdGU1qBgnYqSwHSIjApGV5ICCg66YtdQYo/lNMZxLDwysJt90veQsyo7O1T7bvyoa/aDkVOsjNYMvgufmei2qxKPbykPCRX+XHyNzVc0XriCj+Epnnol9nhtlZ1FDp1Zs6f4cI/k6wWm+r+CzsRlSipD20b7gUqqt6OMa7jbUHS7rAlYyiEnaZM33HqL09F0Ik1KO9WcCyAKrtKPQl8sGQ9ZsxmC7CWAQWU+48rs7yzpmb7CArbEjdsorYuusOViktRgLNeUx3HM0htqOAUvISAyxZEf/DWIYZMANVntxQp25U8a6hMI+ZGUn4NSxOPi6miJkwwL4yIhimdgKDOPU/gbpaQHP+HuIzn6d91VqrDUm//azXbaftXfI+ujPpRkeWLt2HvsiOhnnLj8Ci8j7Z1wN4rXtaHUmiJQO3Uk70hN7mZLd6Yn1pMaF/NHiCoGUevr/UhMK2HX11ESzD8fhXRJcRA3nrK9rhqFT7nfHgXoSoR68ZDuGG3NivBEfmMQ3Ue8z81tgm6UXEmLjEBsXAlPr3Vi4cj3mrNHEGIOpGG02GaN8x2CIOwtGhBDsNxZ9F60CE6clxok5oj+hBqcv2Yszp3KQZKeFbGVx5G+RhOfUMVARmYPh7Jqd0e+eMvns1fjCplZrL89BPQdQZGFZja1H97GdUfx44hnUpafq7KVH+DBEU196slNd3FHVR93LBkgphX7U6nyk/A51/JP9oVRTYbeemINnV0+sxyUSNlA1TqW6aLt1+Qnj/crcFe8z8QTQ724zQcuT5zh66g44F3r+nLk8PNbQ1PODjIYr2Hcuxdhd08HAq9ORaRezhJOjM3bb7MKMBfKYI68JvbBsrHWJB9fq5WAxH4+h6n9hqOtI9JabDUYRNYyf7YiQmEKUlZYhIDAOK+R0kBRFGOrRLqiyWYISDSH4TRoO94ljoL9YBoPZdb7qermkgzrmKSYzrO0xgFoiipMbPEO6Bc9zQpq8o+raJmwzTycA9LCL6rok0tHzdVFgIZofPqHu6o8ujgBDQOwp6jO1eYe771QlNveWsi41kOH/PbGe3ulsku7UdDRyvN3HBf51eGjnTpV/vDvnRYFFVMa+ob4Zenuyf+gUV3ri7pdd64xIT1vsMPSGlnMMhiyfAUZOY8ojVNCNR3J+EfwCfaChawSpbY7YEV4ABbd4SGwyAK+GFDg2i2CO0zz03ShOpZmcfLJQceoUTpaWID7cG+Y6mjBQ3YY4I0Uc2iaEMyZSyFVajJMmmxEpPBlreSTANHVXz4Oi7FbUuMKYbIbongMoLN+7NSyxK3hG8+PZu7ZjUu0QrvjctUHQMj/YNZtNbAh1PKEiyI0gqxZ7c1h1O7XM2Dmvo56o6vL7AQqf9cR8v7HexgqKeknENdd0K40aK6qoDpR30oiMYt83tMWjW48w4Adm5vtMNcburaZIj/SFro4dBGX2I6awHEmHLqH47F2UVJ4j3OZjyD9yHK4ue7FmuyWkDPzhnXEaJl6RkFfSwKIxbHC01sUQUTVMFHfGpavX4eUditVb9sHNKxrWO3TgYO6C3H06yNGeg0rjhchYMBaFG+cigoMF/hMHQ2iK9FfFirY7nEBsflO1hsap3j0CUHNIvilZG00uZHeS5/zVx+CU8sBQQfsuVYkNpyo7va77BrZ4Ud1AiNi9n7ywVZoxeE2oQNLT6jIc/AMmp5F18cS+w8gdSdhgLkGl1Pyg7qQR2c167oNJIOeEpcE3/cclKUfy7oKjvhX27DaFnYk1WATtME3WB4er7uN+bSPyT12jpFD2odOISS6Gm4c7pLUdsNX/INLLzmIhnwQse/fF3lWyGMJriCUbvWFi7QaFTUZgZtcl7EoLKK3VRURQEg4666HAdDmO6Ini8rbxyJDlQ9JsDoSM7w9XcRGMZFXr8XWLronuSK4mDJ7fs9ae4NLNJIAucklQi0nmlN5R+bm/CYOto8TywxIPMrF5balih1EqKo1XxIas0Ir94tSy6ppmtFXXdB2Y2UXyTevqiU0x/041YoElyhG4eP1Jt8Z//ZEThPe4kgLQGeL8qyYo/TAA9Z+qj93KO2CsaQCffa4YI2JLreMoEXvIqgVRr0ME7CG6cj+84yuwxy0EVs4u2OQZDa+0w9iy0RB+8huwcaYEJvKvhYFFICoqr+HZsxrMlLEHE5c1HPYmIdQ3CntUFJGkM4eQQqKo0PoLhQpcOKy+CIfUpJG2kBtrWQXRe6phzyoKeO0Qnf+SHAvs0bPi+oDKRSSArs1YRkgSm87FPXzyNljeTv3iWOjRJQr8LDS+o8yUcI3rCXc5mvCavlRIRU4tIwd+U0OnNmz7pCdGNiJ+jSfWI2OW8ALtfQ6jrr6l29ZrUhVXjReA8bjlYPxBrT69WI1grOeEMDd37HMyo5KgXAucUH6iCHeuHYNnQDyGCdhS6p2VkPA2rqHwcHWEhX8CHKKzMGrSLMgpaCMkLAV37j5BM7H+JDc1tmC3bSQmEJ5YdkYJgveHQ3/NKuSZCyJz53TkqbLipp0AilYORs4qQSSKTYAP2xBMYtvUY6/M2KuKTK7e7BGAqt3u85EAeua4v9NVJyXPO/CQhmVC1vn3gbrHT982DPJQ0eZbd190cdk/6SkRtglZf0MNnbJ06T6lMZQTj5y98YpQdWRWnuEHTtAgpdE8sr4m+QwOFl6mbhDyem7dq0Z9YytellUgYYE6+rCa/RDwiLMtQKC9HfLiY2BHeFpjhG0QFBGDw8XpyMhMwsnjeXD0iCIkw27QT9KHqNQW+AV4QdN6P7YY7EVScgFevKjrBM47bml+hey8Mmza5obUpBzY6O7CVukFKHRVQJEZJ866biakz1hcNR6GBLERiJs5AeFsA6AzTRR9WXf26PoXqiZTamx/2Di+L7c3r68b0ZySg+pHjzonu4/7wAMSWx3Qxau5q2PR6cE0PXqG9boJPVtYwpXPLemY60xO0Hg3dOo0Cx8yR4pg79hFUBm/BovFzMC7dD8lon9OuqEjLUIWdvXisKQSleS5hgk6YLKYE+U9fW86YxbfSoStEEDZPg0Uxocger8GjIzMER6kj72uZpjAK48lcluwdYcVtht6YJ9XDMKiDsKGuHnWaJijsLgcNTUNXYFDcMW1angcvA2vxCoYWwYiMy4Zhmra2LZmDUpjbFDhMw9HbOVQvn0yrpsOR9lmFqQvm4Yw1n6IlmCHEOeKHkmhYSJ7qUdjRaYzmn05Gk3XTn/j5LmWhw8f4sHjOnBIuXfJP5EZ7Q8NZzJJSqqu6sR0xKaf63luibBnvCNPUIb09fwTsB61GNITN2PclF3oReWQ/hvzd5hYd0GDjx8XfNSRqS2FWENlFCS5Yt0iSewxU4WCqjGmznPE/QcvqPAB+dShlrd86dJtXL/xAI0NLR9JnivXCWdGOR3D1udgqlwwduwORVb8AShutMRC2V04mbQPF9IMULRHCPnqM5C9dDAKVw7DBQdVlG5bhmDBsTCZO4/wDnuWN3MIu054iTjZwwkdt25fuHQds1d3nf8sqRTaGTSk0hDLN3fUMBM2zN+Eaz9+1t6viNOYE98fSCVE+xDq7L86y3noFA14zR2HE6YiSFGYgsiNYig7GI38lGRY6e/ABOFdlPQ7d/EhAZrWj4DSYee04uKtlzh95QUFpsdPauCwPweGzplIK6xCRNopqO4MQiqhErcp62O8sBWS/Z2QE7ANF+OlkKkrhCTJSUiRmoL8lbwoIKRQnspC+M7mggDHGiqh+6XfQT6BIKGovn3//lljv5yVr7p/zCOi8v86KC1wpPz2+0DigQwqVUEOVSCnjpE1yLTBlR8zP6cC4hQm47TNfBy3WonojbOR7boLR3PSUZyTA1v7UAzgtoR7cCleEzZn5Y1qlF54iucv6vH8eQ0llexiLmGsaikmqJdis2UOUnPPouTkFVReuQO7kGMYqXoYMzeGIzU6GvoqW6ke/9Xr9FGRZo+KeAWU+85C4a7FKFImtIXGFKSJDkWRwkx4T+kHZW7CFmL7shSaMG9/R3I1vZ/Gl5/xdaTtgEfcvS5fQD4eqe1tfol020l3nZQ+DwgDmHyYyp86qPLzCVRzLJ8wA8ctVuLAclZkyI/Esd3SyLJcj6C9NvB1dIGfVwgs7EKgpBMLz4ybGKdRhBEqBVCxTEBCSi4yC0/CzDMT7Gt8wbnaBm4ReVCyOYi5OgnYYOgPlo0ZkHK6hOX6yUiKioeNvjGYOYwxlN8Cp7MCcSrJCFdSliLHRhJ5OoRNpDwJx1ePR/Z8doQIjMYejnEYzf7lmmoy2bs/6W9EZb/O6kFpa/t+8pFA9J2PCLLC8bPvi9yf+kV0lFzwzkdTdS1mrPCnAaa7VADrbmwcz4u0dZzIWjcZ5/XGIXP1JERqiMPDTB1K86Vhrm0ALxcvKKo7gEM9C9aBh7Av8ihSii8innDLs45exlrrdLCuUcNIY270XboTzBrnwax6Cg7BOfCLK0FdfRNu33kIPzc/BNjtwVh+IypDr7zVBeWpdqiIkUGZ5xyk6Aghe+tMHFvBjss7pVGyTQbJq+dCasbGHv2ezeYliCtsbra2Xs38+dLWg69NSHHVl6ejTma5RjTa3xo/5Pwfym0fzk11eHpFHKc9i+KTBrQBDKawokiHEzc8ZXHBYBIBoMmI2cKHeIfF2LpMBqvFJGG20wwB+32hbpYITdejWGlZDH3PozB1S8F4jVz01zqDcTtVwBQ5AH3Np6K/oiuYlY/BzD0eBxKzCMO7FY2NLXB1D4WpthHmLzGkgpRkrZSG9l6cTnNAWSihyrwlkLxDAMWbxHF662JEjGdCLMdQWC6RRm+2L7dE88oGd8xTTBq88vODxQ/22kweSE5sID2vYxV33+e7HLw681T37zzFqBlONLB8gpk5TeEnPxtHjafjuKksju2YhVxlEcSrCeGw/3xE6ElARmgW5szZBFsjW6zQCEA/1TIM0DyFMaqFMHLLxHDtcvRXzcM4O2EwRvVBr0gm9LeeBB5tL1RdvoO6ugY0NbVQnFd0AtOEVkJ87tbO2iuyJX35BiccirPH2ZhVOOYshkO2a3BITRKRE/ohbBQj/GfyYtzbeuvPSlQOa4RmPUN0NsI/C6CwlKELSQDxLAvCgk1hH3SlPqSMZjI/VnvkJHbaZdOA8rnJX6x6cF08B1cCtODHOwSlKsNRoiGMI/YbcMhPGgWeilCUnI+/BIzgarkPHk7hENIpRHDhfbhHnEBsWjm4d2Rg+HpnDA8YQwGoA0R9MWwvK/YmBlHAqWtoRuKJp1hrdxT9Oc3Qi830o2I21tm2MDdxQJrzKqQayiJtiwBS5XkRz8OCRKEJmDGtZ2kb8qnUsfktzxQU3jB+EkB+wVN4SQCJb4hDQen7Qnmynphy2zfr4HTV391n2mn8vnBusjZcxcaj3GIWQkRYKABlLB+JA9vFcDRkMY4EqkN35RIM4TaF8U4X+NgHIDo8Ha3NLWioa8StO89QcfE+1rjroG/4wE4AdTAhifaOgVaIORTcT6Cf1ln0XVMM+knWnyjNsMBgPkOsnSMGW431cNksDT+Zydi/di7CVeUxW7BndpDY+tiOGqG48XM+CSCT7ZLDyYPMvU5Rgb53LT7nxglSpR3kRIxlalE0kHzpiTiT1eAuOhYnTblwVFcMZ3VHIFZiGFK0RSkAlYcsgZnyckJCWIJDzAimWlYI9IxAMyFVmhubKX74+CmEXSQ7gdPHdzgG+45D76i+FIiY/Iagn4o0+qodQt9NxwigOIGB3RyTpHeBT3kzBokYEB6yOdg36IBDSRdy0hvgbrMLjgbaMNi0CaM4NDGJfRVYuDeBid/0ixUP/fn2IKaghvDG6F0+P2ghr6Hl/PX3NTQdD7flwT1dC2paGc1w7gmANOHDPRRHdCfhTrgKLlpwI0qcBUnaQiiLkMblOCns0ViGXsSxw/mMobnRGCba1oQEakULAZ4WAkgJRZkY4T++A0ARBGAI6TFI2RIsPlMJEDFR71Mg0pIC06aDYORyxVS5XdBMX4A1AeJQDJ4HEY01kHDnxgyn2VBQ24rUkD3YZ2YE/72OmLPCFYNm6WKe9wJwafVMjZn7XEBMbuu1zwLoQEHDrTv3/u5ImD583DnIqe7KLcxSCKQBpCedDayaCBUfj7xNU1CsL4UsJTEkLuFCjtVsnIhRwJX4xdiltKIjH0e2/SjuBYegFjZ5VmGaaRXGaB3HVBP5t9KGAJD3YDBtDEffzWcwUN0FLJ6c6PUWRH1CmNFfTxT86y3Qj88U4gRghHeKYZW3GLg2zQGrNi+mrFCDsKQRStLDEOm1F4FOjtDU3oFZTjKQ8JUAs3jPSl4Xq6cisbgePkECXJ8E0JHjj0tv3br11vZxoKQPaQORDX006dMzHsKxE9nKPIT6Ekew8DikENInW3kuCpzkUBSshIowWcwS39plXiI9mxX6Lk8Ds9opMCulYLQb23vj2ZKPUlN9lQl7R7kSzCpuGOHBDaao/h1/D++Hftu5MEDAEOuiRDBxlTimqc3F8PnzIK28A/Ky+jDQtEFWYhJK8w4i1s8fu80MIGo3E+I+c9CLb3ePftcIUReyZwwR6e27P/28jLN3k65evUpJH7JVuIptNqov3QTXYk8aOHpa3M9mhOBNUjhlIoPIWWNRJD8Jscu4kWUjiJIwNRT6aGAc38eFXb1nB2IAAaARyqYYFDr8rfrqg97qGhR4RmlVgs/oAoaqV2CwihMmek5Dn0gSRL3Ry2o8enHtxOglK6GbOB9ydkswV2UT9nuE4MThEwhwD4eHfRBiQ+LgaW9PvO8CwbUi4Jg1E4xTez4ezzniJmLy6Eo/CaCLlQ+8yCbDd3GfWwZ2WK+XSAPG19RjTzWFwaKZSFfgQdEGDiQvGo/oVfw4StztJyM3I9JOo0uNEwOHEZj4dMDAbYd+G4owbpd0p4pi9BwKJiU/cOmU4uaDl6ipb8TJq9U4fuU5kk4UYprP/A5JZMECOrbdGCRoABH15Zgmo4K4uDTEhifhQHQq9ph7Q3OzJQy1LbBAdBFM9U0hwCqMkRNWftVvW6OfRz6srt3eQ3LUJwB02/hq5TmqNbhy8kworPOmqa6v7gGzxO7VC5Cyagwy1/IhbBYBoM2COOIvhTK/NVCU1+hc014c5pAwWgnFEEn05tbBBDkzjPGe2qm++tuxQ3J3Mo6dv4/GpuaPuLCyHDMClmKYzjQwCxpCWE8V8+1l4BrkhfKy4zhxrAxhAfGwtw6ElakvVNYZYqOsNlYuUAHb+BlU2uVrftskSZ+3Y4GZt3Rf0nHm0aZnRUdxiXseNk1SpIHnG1lpkRzy1VmRoz4Px602IlVfAIWBSvDU3Qbu+doYPMOIAJopuNapYIohLxbE8YFNQQG9pylhuO/YTvWlEW+O+obmbsFDcm19E9bvS0Y/iU2YKLcNsvFCWBjCjx1BGjh6+ChSEjMI8ATBbW8EwoOTYLTNgZBA8pAQWoGBbDpf/bvoCXvNN/kh4c63HewWQJdONSxoPZANx3m6NPB8By+Q0sIhU1nEzZuAtE0zkGEjg/xwK6jK62D0PANI7F4LzvVrIaS9DpLOcpi2hwcStrKgZzXCcOXZ6BfJjD4+w5BzpqwLYKpuPETJKXIS20vUNzYhKOcehipWECpwD7aEr8Xa2FnYEaaCQ0cLUJxXjPjIZGSm5uJwUQkiAuOxRloD61ZbYILot1d6qloeQXxBY6Oe3up+HwGo3vsuz98pZZDYEEsDwnfwcF4TOK6WRPJyXqTuWog8bxWUpITBTN8WrJIOmGu3CkJ6C9Fn+krwEa889tzgsZlHzT1k5N6BUQ7smOYrhccvXlDAaWpuQcnFh+A3ysbynYHQd05EXOZZaDnkYPSiSNBPscB0RT0IKGsiMjsIZ0+X40TpMZSfOIGk+Cw42/pBS8kE61aZYwjf95UJC62KoNRYcMJoiY8AVKbAPSy1qAYy2zJoQPieiWWsFti9Yg3i1wgiUUsC6f6mOFVyBHaGplhKbCI5OFxCUQmz5RWxdPNaLHNYiHUJCzBpnRoYuUzAJKaEqdss4JVxE3cePENm7lEY7EuE84FzSC48j7iM09CyL8GSbekYIOjc2ZWrrBeGilMncPrkCQpEKYk5iAlLh7nRfsjIWWPYtO+vMR8v4dWR1jhQu/4TU1sbmzeaHKIB4TuHKajKbEH0komwl+DBdoMgnC8/Daudu2BisBdLV9jC3y8MFubW8PPwh9YufXCqi0DIXRic7jyYoCmDQRIuGLU5Dyt2+CH8QBl848sRmnwSbmGF4FdKwcCN5RioWEZ4bx2dM+RjKYIjc5CdVQgrK19oqZpDS8UKutvdwS1h/8NMEo4lgR0SKJFh2ScA1HJT1/kUDQTfyXyierCaKwReni1YsM4XlSfK4WHnDBcbdxjquaDs8BEcLjiEwqwC+PsGY5rqPMKgnoq5QUKQDxOGqPpW9BdwhKRqLCZtKsTgdSUYIXsA2jaJ4FZMxiDlM+gr9d7UYJd0QVpaHry8YuHtcwCLV1hjFLsmhk77scnvNbvyEV9EuPLu4mO6z4flvj5qHXCJBoIfERPiMkcfgueu3I+Lp08jwNkTUX7R8PaIxMmjpThechT5WXkwc7HGQn0p8Br8BQknHswwEQWzQIeLzSjgBmaFQxiscgYD1xxGeNJRGHsUYqBCMei53g/JGi1ij5myLhCR3osxInY/xQki5yiGZD5DTA7jp0tcY3LaEskhQzQAfH/v2fgVqpB2UYayqwVOHDkKF1M7HMstRlRAJCWBwgIT4WAVAFtzLyhqbYd8DCfmOnFCQUUfw7jfTxmj57QDk2QMBqwqBLcKYTivyQKj0K/NDpAZefvQa+SDWZoCY0fxfHrweBY8I3KqqYJqGhC+oy5I2BgyAZJg0xfBTCdhHD6aB/U1arDQt0JUUAxCAxJgaewFR6sgHAjPgsVuT0hpS0JsszAUZbZCnF8GU7g2dUk10LNbg4HXEQw8jr8cPHtCrlJP9Qk+wCb/+dLW9NbdpJHUj3cPDQjfpb7MMHmFDsau2ooZPjPg4uuCbSp6sDVzRnxkQqcKK8opRGRQPEz0XLFplR7WLNsK2XlKkJq+GNzccgSADH7r7xjAbw8HUvIUN74KOTB11Re7MwivbyMJoLHiHjQg/IguDQJIkxbpY+16E5gauCDIOxqJUSkI9Y2BnakPjLa7YIeqBRTldbBs3iZsWEmAaKUBJnBtQO+pur+3soCwecgEanxhfWvwAV75HnWoBif1l6Jqo2WCaQD4kbEhQhUxc+4ExwxdKK2zxHY1e8yYqw1R8e2YL6UHNkHC62LTQD+OHeg1lRyAYPZbr5dlxj54ELZwQlFzQ0gSlvZ4WplX6F/cVG20Yjxt43+agW1MAMqAUE+7KBVFP9WIYNN/zPVNmu+NgLTH5LDNl75xXHO+amKrlpbmUBJAstszaZv9B7LginBE5LxAXH77/eD4Kbzf9hC6vKamjaa0aPSfFnZYppmOuKJaxOa+OuMVxDf+m58nH5vbcmPnXlo0+o/ppuW2xTb7E1SKIiqrLdXHx5uZ7nsoNrftiE3AZdri/gFMdiKTnhY5xiU8fbCNNZ0VA933UnROe4JXwn3aAv/HeY5SPGXvxBc0vghNGi5D96MoKoveIyLnJS0a/V/t35/mAB3nU5TKislpK/MO5pxI9yMp8uBrIyoazWdPW/D/GIsqRHW46EWNr8LT+llaz7PqRfejKfQggxIJoHFzaNHo/wqTgUFD97OU1CG8rHMB8cMF6X4WhaYMkiRPRM6GoS3+v7xPjccOq/Vyqacyxxc2NYYf7G3S40cYfCv5BE3lIgFEGlm0Tfh3ci9OayxUTYF/6iNS6ryJzmRI+uG2zqdop7LVEBJAy2nR6H8d9+GypYDjc+ABpa6ic94c80tgmU33qykmt6lxk+lh2qb8S3iY8F4o6OUhKP1JB3BycSLowDhput9FMXmt13fuPU3bnH9yqQiHNQRXhsPA7QxiC2upYGB0NkN2YEz/BXS/m2Ly2kpsAmnR6H9eoZoNpsmFQt2mlHowHClt4vObnkZlMbr6h3Gy0f1TKDob8V6J9/+BxqENxop7EndeBBappWK9YQE07Y5B3/UMLHwvUKWXDqHX4Rh+k3ol/0++r7/vDHXcht2FWLr1IEQUojBZyocKqv2TA6YM7JbUwO8lGmmUG06WG1OgKWyuj8lliA9LHSZvbW3Vh+6fRtGZ7e6Rub83Gt2bAAvnkgAs187ETpfTcI+9izhCVJML+I5j8+vaYvPaHkdnN16Ky2Msi86tLYzIqs2LzGzIiSJeo3JqCmPzUBaV3XCJOO4RefyHn6dG2GY9x97Im4QqOAsVixLIEeebtSEWnEsDMHKmK3UdvyqpSdbikN6vknERzH0vUtdGXiM5myc299WdqOz2gNAkZjk3t4R+dP9kCj/YSkWj+//CaDQJ1onzvCG/IxuWfhcRnV/zbpPfxOQy3Y3JlUyLSPe1D0vl2+gTtX7WHje5cdZ02V+V/AOdDr2pffoYvxhv0bAURYWIjBOGUdm6vtE5M3JicodfjMlrqSc360OAkU+tCc54BreYu7DyvwQ9lwpKhZDSbLl2FiEJU6hNF1GIxnT5MExbHkxNu+VaGggu6UDwygRR7wutjoLExngsUk/Fqp052Gx2mPiu07ALvkq52+R53p0zrrDhVUxu6xkSMGGpvZS9Asaz0v2bKPxgm2JHNNrzp4NmipQvNpkegvdb15PYwDexuWMqo7Md9gUfsJS3t5866lf+duud3kN8I/j5Q5JylkZksmyJyDxgEZm1wy86RzopNpfrSHTOkCtxefRPupNmPWbiN8bkNDXE5DVdi8l9VRyd0xYWmUFvHprGsNY3loXfWuFCH7p/M4UkM80nfyifbMhPAQ7ZpEaqCjdCLVGgKWpuIRYxMyKDSc15/5Gx/5Z1Ulz6ZJCRs+P4iPg37G7+hsKekTLiodkyc+MKls2LyxGXis0TkSTAMtcr7ukcN79XomExC9jM9jwft2PpGya6/zLtDxvDSW4sKXJ/JHAmS/pgu8NJxBbUdERIc14dC09l0rC2njmMjkb/HdLQUB9MRaO1f0w0mpOwB8wJb+idBxGd1cvbO5yVh7bS/2GKzWtuIA297wEO6wJfasYwBZyClseRGYOMHR3/Gkpb3T+AYvKar5Hu8zeF1kX2QtvxJOVZxBe8fhqe3tfAwGDkANqq/kkAym0rJhvqvzbwRVb3k6WSpGEcmcHoHBAgNZi2mn8gRWbRO8cU1GKQQM+a+ckCbTKm0VEqiVyfKIGptFX8g8k7nJ8noaihnYzOfqmnSFI5CZG51YgrbKkOPcC8mbZ6NKIoIqPXfjIyK7s9o9u0Bpnc22p7rEPq5L4p/q6GNBr994hM1EVnM6aQALEOuAwJpXgq3cC60I9KSpLDqMh4TkR6X6fPPpCMRn80iBjCkvtsi8lruf//OaLonFcVoQdGL6atEo16AKR2Br+4fgLBSW0KoUkMcm4+I2hGMo1oRCMa0YhGNKIRjWhEIxrRiEY0ohGNaEQjGtGIRjSiEY3+ifQ/uI8CuTSEyi0AAAAASUVORK5CYII='
p40
sb.