ccopy_reg
_reconstructor
p0
(cemoji
Emoji
p1
c__builtin__
object
p2
Ntp3
Rp4
(dp5
S'emojipedia_url'
p6
Vhttp://emojipedia.org/flag-for-Caribbean-Netherlands/
p7
sS'index'
p8
V939
p9
sS'code'
p10
VU+1F1E7 U+1F1F6
p11
sS'apple'
p12
S''
p13
sS'twit'
p14
g13
sS'gmail'
p15
g13
sS'related_to'
p16
(lp17
sS'name'
p18
Vflag for Caribbean Netherlands
p19
sS'known_as'
p20
(lp21
sS'default'
p22
Vemoji
p23
sS'bw'
p24
S'data:image/png;base64,iVBORw0KGgoAAAANSUhEUgAAAGwAAABsCAYAAACPZlfNAAAExklEQVR42u3dP0gbURwH8PgHFBTc2pSSlCoZrDgoHaxU1EVQQepgsS4FcRTBSZwcHAIFwYKL4lAoCFVBN0spqIuC7VCLkAqmFExsbVWqGGxM4qvvICExuX/J5bzfve8X3tRL0r5Pfi+/9+6gDoaQigNTADAEYAjAAIYADAEYwBCAIQADGAIwBGAAQwCGAAxgiGXA1tbWGAadIYGFdyvIDBb9I2Rl3Xn6mhZY5OClkFDz732s4JFXGmTARK6qOBYZMGBRANurEhLp93EoDcnyYLGzJSGxng8vKWJZEgxYVMCwBNIBQ1URAcO+yksHDK06ITBUFSEwEZdBo7BMB0teBl0uFwuFQlgCrQh2M729vczhcEjDrjESyTwwmb1VHIuPuro6ofdVlgG7ubfiy19fX18KVvJwOp1sbm5OuH3V7YNlqCo5JLnB/z5YAk0AS24qdnZ2UhA6OjrYxcWFcjc1P88KCgoSr6mpqRGyscg72M1WfWhoKAVLbxobG1Nef3V1Zft23TSwmycW/f39hjQUPp8vJ3Q7VZVhYJmOl+ITPDg4mPOkxGKxxPtNTU0Jj5U1mNxphdvtliaXd4NqOX3zVjfaycmJcEtgTmBKt0Gqq6ulSV1YWFD9h4d939jeXRfz33+oebLiaNFo1JbtuuFgSlh8EvX81nCs+Ah9+KjpNaWlpdL78y+GqFjawDTcCW5ubpYmk0+qXjA+tCQQCJjagOT7xCIvYFrvBMcncmtrK29gyZ/j9XqFqipVMD23QBYXFxW/+RefPqcBqQ6nO+N7ra+v57XKrNBU6AbTeye4q6tLmsCmpibNFaU2Igc/VavMTq16VmDZ3liMT+DExITsNT8eP9EFpuXzNjY2hKmqjGB6MzY2lnISsbKyout3S24En/VoAuOjrKxM9XzSTlhZgw0MDKSdsG9ubiq+xu/2aAKL/T3VDMZHYWEhOz8/t+0SaFiF8VxeXiYmbmZmRva6YM8Lw5fEyclJS98GsSQYT0tLizSBnZ2dhjUdV+Gw4U2HVfdVpoNNT08rTmL016FusO9VmU8zdnd3swKz8r7KdDC1b/3evQf692HX49+X7bT3am9vlz6nsrJSqKoyHOzw8DDrs8Rj7ytNr/F4PInO0G6dn+lgPOXl5dKE7u/vq1579m4x62OpYDBou87vVsDC142Cripzutm/7a+arh0ZGVF9xkMELEPBeMbHx6WJLSkpUb02Eghoes/V1VXFL4Ldl8C8giXfdeaDA+byeADfFMth2anzu1Uwnvr6+pTjo1yPvY6OjoCVTzCe0dHRlElfXl5WXyYjEdbQ0JBy7JT8SIAd23TLgEkP2pyesuLi4rQDW7/fL/05f6iG/0a1tbWlnREODw+jqswGS87s7CwrKipSfES7tbVVQha5qbAMmNyJe0VFhfCtuuXBamtrFR9bQ1VZDCxeZd3d3cCiAsa7SCyBhMDsdFNRGDDsqwiBYV9FCAwTTwgMjQURMLTrhMBQVYTAgEUEDEsgETC064TAgEUEDCcWhMBQVUTA0FQQAkOrTgQMVUUIDFiEwLAEEgBDq04IDFiEwLCvIgKGqiIGhkHo/3FmCKkADGAIwBCAAQwBGAIwgCEAQwAGMARgCMAAhgAMAZid8x/zdbnhCDxQyAAAAABJRU5ErkJggg=='
p25
sS'version'
p26
VV6.0\u02e3
p27
sS'uni'
p28
g13
sS'desc'
p29
g13
sS'browser'
p30
V\U0001f1e7\U0001f1f6
p31
sS'annotations'
p32
(lp33
Vbonaire
p34
aVcaribbean
p35
aVeustatius
p36
aVflag
p37
aVnetherlands
p38
aVother
p39
aVsaba
p40
aVsint
p41
asS'wind'
p42
g13
sS'andr'
p43
S'data:image/png;base64,iVBORw0KGgoAAAANSUhEUgAAAJAAAACQCAYAAADnRuK4AAAABmJLR0QA/wD/AP+gvaeTAAAWf0lEQVR42u1dCViTV9ZO2+nM386003Y6nfm72UWta1ulat1RkS3kC1IDSRREENw3FJAQ0H/aaetucZnaTVtrqyEsAgKCgAphRzaRNSSAWsWNRZFFOfOdC/ijRUxYk3Df5zmPjyZmOff9zvKee79wOBQUFBQUFBQUFBQUFBQUFBQUFBQUFBQUFBQUPY+EyZufy7NYMzPfcoGowGyZeaKZ7CXqFYrHIt14/8tK3rKvy/j2dyqs50OblfPt75YyS2QFpp++Tb1E0SGKTDYPL+M7lpfz50HGZDM4OWI8hA/+EKKHj4PUiSag5omgjL/gZh7XZyr1FsUDyDWXvF/GX3i5lGsHkUPHQuDrw35nx9/9AIrN50IZY38j19T7Deo1CoJ8rvekcusF15UseTDidESe+yRiHy9jxFDKW3SQeo6CU8RdY1PGd6jDyBLGRpjOyNNmGZNMMZXVxRnv/Qv14AAFcJqfKOaulFRY29/Lnz0HQt4erRF50KLZ2ggL6yLuShvqyQGIHO7hF1W8xUFIgqxplhD85giNyYMW9MZwUFkJaRobiCi2khqzxbIaOy2F0XStiNPekHhlzIKrMgE8Rb06AJBpvPMFJc91H6YsrHdOvGfUZfKgnXp/EkljhVx32tIbMuKM4/6gtFq1RM04VmLUSZ84W+uU1ZEdGzSytRtbvJV62RBTlYXfn4q5i53VfMcSjBTnTawfqe901c7NZEDFOBdSbxsQsma5DS3luX6mZhZcRuIUmNpA7KiPe5Q4bZYwdhqUs++Ra/LpcOp5PQUWsefMV48r4S7yUTPO6eV8nFvNg1xjKzKK6A3itFnYO++TOkjJc/EcWE7nHH0qceba187OXvFRscVaU5w4l/KWORdaurgVch0kJYy9tISZ74NG/s5dtE7FuC1VWTs5FljNn5dvvsymlPGYncedPzXHdJWR0urTIaenCd8IHLbnb3HGzX/opY/9RPjUz/+eZ7Z2fKHlcnullfNmNbMoWs3YV7cMO+cB6jmJHxmThe1N4rQ3jHDs50gwSKKET/j5+WKLldNLeItWqRnXfSrGKUbFOKrK+POb2k+ae9IwpJfy7RvVfOfrZfwFKhXjkK9mXNLV1o6nlDz7KCVvYaiaWSpjW+kfVbz5Pyh5878rsbL/poRnv7+EN/9bFTPv+zLG9RB7VQcpGftoFbMoVcUsUKn5DnXt3wcL2EJ28XDoiR2RNkJgT1ry+Jn4ee4mz9r1D70njGLSpleKLJeJWOd/rWIW5rCLea/N4SqeiFyhWVMtIGXCLIgfM5XUBlHDPiLzH7xqsbMIfmM4EcraG3YtIW+NIsNEfG7EkDHk/2GKiB05AU5/MJm8noKtCdChqezrY7eTyb5X9jRLkk6wiM1nrYD9DEVmn0CJpS0oWw0HmGjk7+yf2GbjlY3Pz53BI5859WMTotvEsZ8Z3x8/V38Q5mHDwhz9W8xd7qS3RWMJ19VbzTgll1vbE8LgtoNzrOOTx82AGNbhoX0Y0gecsUTGi0HFuATrDWkSJ+54qcRy+SpSNLZGGIwuePV3VyCjpr2lTzJlazCHW6FGoc/qNHFwz4rKatEPbKSpa2tRMayH0QjTr3aydbhaYL6a0Uni5JmunqDiuYRji4rpCQvHnhbFqHXdyHCVXZdS3qJvdSvimHw6vJRxPoZpCqe/SWxNc4wtZumi6Z5hs6BmHC9v4mx8st+JgycClFaLt5dbOzRixEHi9MT8hlrvGXaipBY1XzOxX8lTYOluzjK5DIWxs1PMSftMF0j3DTNDOSOGZK+vvugX4qQb7X9WyVu6D+ucIrO5RGehC6NflrBwKQQcDT7fD1rOpqEqxikHo07axyY6I5JR02IuNvpjyD4dD3K5vDlUXjGkz8iTz5WY4VkjLJJjRk6gi6GnXVh5UCjU1taCv78/BPhHresT8hRaublU8O2bcKZDtRw9FhLXboDme/cAceLECZZAoad6nTxFVms8yF6SmQyZQdGF0FMRcRYPGm5WQRtyc3NB7h/QFPpLzcu9t1uOu9oTW77s6Vxa7+ixhY4YB9UFRdAe165dI2ks0P+0Qy9FnnVLyluPk1Dy6K8Fvz0afos9DQ+jubkZQkNDIUB2XN7z5OF6csut7e/iFgVKHv2ewJf+fATZAh0hPT2dTWNBNXEHBv1Pj5Enx9RrWBnfsRoHoFRV1m/y5O/a90jyIC5evEjSWJB/kkUPbb+QPaPiO+WUsq067bb0nDw790Lz3bvQGe6yjwcGBrLd2PGve4RASq7rDiyaqc6j/5HnXlMTaAKFQsGmsZALbKh6ontCoamPUQVb9+AWDLoQ+lswKw8efmzkaQ+VSkXSWMiR1HHdIpCKt/gEpi6q9ehvq34xIrrTmqcj1NfX41iDrYOi/tVl8iQb+71ewZ/fjNsx6GLomb32HsSYWkNVXj50FbGxsWwaO57d9a0Z3BUM1j50n7KezbbYLjlL+q8HFOauoKCggAxXQ2Tqrt2YEw/hIYEed9s0aroTdaKmmcOVM4r7s63uoKampkWVlp9c1cWRxQozJBDd26MH2zFGTYCCPfuhsaoaehKRkZFsGgs/2cVTFOvfRwLFjZ5IF0lHI07YqI8h97MtcPvCJa0LZU2QnZ0N/jJ5Y9jhqhe1P1o89fO/I4HwxCZdMN2xgFeHwonJs+H89t1Qd+k36E1cvXq1ZY+Q7LRYawLhjRzVjH0DHsulC9f/pAkdPg5SFq+GSydioLG6BvoCOFwNCQmBAP8Tv3Ypjan5jio8I65PYZ3Yq2hDH7L3/v/xNtPV78F+1uC3RkHUdAvIWCchpKmvvKqVGNhTSEtLY+ugwKo82Yg/doFATol5MxmdIUfA/w4l4ljUVHM4bS2CZNdVbMv6KVsHbIXibw5C6aEjUHY0AC5GRMGV+MR2poDLcWegIiiUfTwQVIdlRJ3F2VDelzsg0+v/IG3lekhauIx9XTHEWQkgaooZSRVYoB4bMoa8N9p9Qt4nYvdIHvTmSAgfOxViTOdA4sKlkPPpZkKY2+UVcLeuDvobFy5caOnGZMmztVeiGecAvBtFv0QS9k9cQIW9C+Tv2AMXwiKhpqgY6q9dg7u3b/dK0diGe41N7OLdgabaWvJ+ePXfvnARbuacg8qEJLgcewrUR+Sg+vkoFO75Bs79exvkbd4F2Rs/h3Q3L0hf7cmaR6t5Ejv3xQ44v2UX+S5I4ktRsXA97SzUqtRw5/IV8l66iKamppbhqjxyt9YEKrVy2oMb5vsqz4cbTSNXYSm7MFXnC3TWqQMN8fHxbDcWUsbhaDlcLeY6SbAT67U9QKQVnQCpy9zYFBMPDTdu0tXSQSiVSpLGjv2aN0YrApXwXByRQMc1/B0GrY7TsrWG+kgANFy/TldIx1HH1mL+/nIIlEf5aheBLFaa9qQaHTRoJFuoLoWrKWlwr76BroweISYmBgJkIRnabWU18RmNBDrVTTUa6xsshm9kZvfInIai73H+/HmMQs3Bv17U/LfG4oy2vdwtNRoHfFPN2Lb0pMa74Sh0E1VVVa0nV2OXaalGO9R3RY0+xtZNedv8oJF2UgaD8PBwNo2FRWqtRmdpqUbHWnwC1zMyqccNDJmZmXBUFlTv5/fi85oTiHFSaKpG43mxzA0b+2xWQ9G3qKyshC37j4OtZ6qt5mIiz1muiRodynZqql/8+2VeQ9E3qLhcBWKfWBBJMw5poUY7736cGh3x0XS4mphCPWzAaLp7D5ykATB7WRCIfBKvGxmNfVqzc2FWzl6dqdHRxpZQU1xCPWzg+PHYWXhr9hYwEn4P4o0JYOuRNUMzNZrruuBRanSsuQ3U/XaZetfAkVd8BT6Y4wdvm26FwRY7QOhzBkTeqTs1u6mC5erZHanRp+eIof76DepdA8fNmjqwWHKQkKfNLFaFYhpTakSgbFPJKKJGvz/pPnli2MhDyWP4aGi8Cys+C3mAPGgf2/9E0pjdqvOjHkugk+P3/I2o0a2/Ehw9w4qmrQEA3M761SEFqXseJtB7Vl+ByDcehF4ZEk3V6DuoRh8fMwVqSpTUuwMARyOyYbD5tt+Rp82YdZFsO5+WrKGY6Fh6zmIuXEvNoJ4dADiZVAJDLLY/kjxoU51+xTR2T7ii/FUNCLQoIee7g9SzAwAxySUwir+rU/KgjbTeS+og4YYM18cSKObzvf4R4RHUuwMg8mhCnjaz8TzJtvPJYY8lUIB/uB9urKYw3IIZa57hvJ0akwdthqs/W0wn1tmvhz93SiC5PGID7gVpbGyk3jbAVt3v50QYarldK/KgfSj4pjWN5c7plECB/tEOSCC8YwOF4eDazduw+ovQDlt1Tewds21g630KhN6pBzolUHBAkgkS6MqVK9TrBpKy0vMuwkyn7+CtLhCnvZkuD0ZVulIgmPvUIwkUIi8eiQQqKyuj3tdzVNfegW0H4rWudx5l48Q/kDQ21z1v6iMJFCl77iUkEN61ikI/gdsxYlOUYOZ6oMspqyO7P1yVpG3pNI35ywLvZGVl0ZXQQ+Jk5F0AF9/AHiPNw8ZdE8bWQUmFnXdi/seUSUlJdEX0BPUNTZCSUwGLWOK8Y7a118iDNtHhEEljonWXhnWiBYXEx8XF0ZXRcVxlOyvc/CVw+6XbBbKmNozn10IgrxSPRxNIFiaLiKBqtC7qOL9drYHAk3ngsjEIRlt/BYN6sMbR1PjrT4BQmprQSQqL+ErX1Gh03s2aO3CpsgYy8y9BdGIxHI3IIcLYtgNnwHNHJLG1X4Z1aG6bj4PH9giQ+kWR5+/6KQEOhWSCPOocRCmKSQooUl+DC5er4eqNW1DFvtftO42kruiv9hs/Q9mlmxARXwiffR0H/JWHYCh3R48Wxl2xac5HQOybcHfOktpXHiEmhnn2pxpde7uBXcgqOKEoIovtyl5tuFPuI9u9JMcPMtlCnNjdsI3//63ZW8lVjK/5JmsomI3k74Jx7HvNXvQDcJf9CML1R8hmKyTg9oPx8ENgOiEedjrJ2eVQUFpJiIfkRsHuRnUdsZpb9YSE7e1WXcP9xyuv34KLV6pBdeEGJGaWQRAbWXYfToR1W8Nh7trDMM3hG3jbbGu/RJnObNScfS2bzLyyFnacwgKi7JFA1dXVfRZd8ErDGQ0ulLHjt4Qob+mY4x4gXzvitRC6Ra390MYPxs7dQwiIBEAB72GbKP4PeQ4+F7/nm/dfQ3e/74Oq9Fb4ZEMM240lB3dIoCD/M7N6W41ubLoLyorrJAXxlv8Egy22640DqW2FmYvlIPZJuCUQVDzz+3GGLG9Eb6nRWMfIInPAbt2vvd5yUus9G2v3Xctw1b3w96p0/OE3XuxpNbr8tyr44ttTpI7BcE8XQb9tBH9PSx3kGSfsuBOTBdXhAfvuAo/I+u6JZgvTr6jjDcje/+TrlkOH7mmWjyDQsZLuqNHYgew6lMAWirupww3QWlv5e4Jllf98hBYUeqYrajTqJqhbzHL+vs/UUWp9a0O5u8jeIJF3+vFOxMTjR/EmQ9rgyvVaWPNlGHWyARtO5PGYj9g38bZgXd6IR+9MlEfu0lSNRtUUN2mjvkGdbNjk4blFsORRNNp5qviP21zvgZ1YQ0PDYyfBO39KgCFd2GdLTX9siOXO1sjDksdDbfPY0xlB8qj5j1OjUY533RRE2/IBUPPgAFXkm1Bv53mRr9EJ1cBAxczO1OiS8mswy+k76mADN9y+MccjGmueWyL3VHON71YWdiR3OBJIrVb/jjw5RZdhvN0+6mADt1HWe2GuVyyIfRJvCDzLpmh1x9a4oEEvIIHy8x/8OWlFZhkYCfZQBxv8qOJbsJOeBpFPcoXd+pJRnK5A7h98u70arTirZllJFWVDt0kLfia3dBFLkzMEayte6/Lvycv9jxW3qdEYecbMpaqyIdu75tth9tKgliGpd0qgYNnLf+F0B3JZ2OnY2FjIV1bCmE8oeQzZhjO7SaeF4wmhJHsThwNPcroLuSz8yGFZCEyZv5862YBtnPgAqXfEPoprQs/zXE5P4aefo3e6/vskvEOdbLDiIB5Xbk1ZCsHqS29yehILfBQe+OIoYVOHG5bhPaAF2KL7KhqFG876dHrevauw25AxDwmEm4eo0w1HGDRfGdJytkuanCV00/KnLbWBrce5GfhGeG8Y6nx9H4RuJ/c6xLPtbNS5LfI6u8HIVcOfMOgqPlmhGoYEGs8WWXQR9LQ1N9tG7vVMFGXfhGaRd7rMZnnpIE5fwETwwl+RQJMdD9PF0ENNB4mDx29IkSxNTbB1PzeZ09cQSRNvGbvI6KLoieGNwTFVCSRxbcRJsnU/b8npL4ikSUVmK4Lp4uj0Qb9t5JgNFsdkBLEx4R5uNxW6Zc/i9DdEPqmnrNaG04XSuRS1DcbYfguzlsjB1rsl2oh9Eq+IJOnbBGsrBnN0BSJp2q94j2BdvOpQXhjDXnkTHX6C6YuOgsnSADBbcQy4a46TrZe4g67NeG6R5N/xcZOlgeT5eK8b1EPwrDeKaroeZfCG3/iZMdIQ5ZiQRlEr9k49IvLIsRYI4I8cXYNQkrIDP+w7/VwQ4jmkKWwxb7Y8mGxwag3V903kE98k8kn5TeSdkCeSnlWIpGeiRZIzkUJJfLjI+0wk+btvmgIfF0tTLuHz2/9/csbJ+xSZB+ECzXT1J80D3hcQ33s440c6mr76vkhqHDEYuxwlxLdjP9v97+qdrBJJUr4WemQzAsFrz3B0GXYbEt37Q43Gq23Kwl+I84h2gc5j21CxNFMtktYEiSTvfCb0crcXrB85Ubii5lUOJ0/L4Z/8CYHjmH8K1hqPF3rtmWsnmeIu8v7zXqF3ZbhIev4c2zzUiDcpmh8mmUByCqzdowDTOkazWUsCSDRDsmHXM37eARLVML2Msf0GPpy7Hz5oNdTT8N+xXhk/7yCJJljw4k288bUwamK7/cDF4atoEEuTMpAwIq/0Bdauue9y9Al2GxL6TI3Gq26Gq+x+6ylCwngXZtpJ/rHNzlPGn7PkpVf68rtbO6a8IFh7ZLTIPcVcJF25UOj9oVQoeWafyLtOJpJWnBZ55+aLfdKvdBTNNDbUZqSKWpGPolDknRTLRpcfRJI0b5Ekw1awNn+0q5HL0xx9hq1Heq+q0bhhG69esu+WpCJFvVCaEir0OuvMrIh/VV/8xDCDn7NacvQ1OzfboXZrnh9r414zWeBVO1246Y6xUHJtlkh6eabI58x0gWf0FJvVinFi9+ohjNOxVy0Gm/+JY8gQrC54rzfUaIw2Lb8KHE+uQqE0KUHolenCXVr1IofCcGBhAc/3pBqNBSnWNa1tZ43QO2O33Rr1cOppAwbmaCz0ukOc0Tb7wHL18dY0lXjZzitrg/Ua1QvUuwOBQGyB11U1GqV1kqp8kThJlSLJ2XU810vPUq8OqAiUEsOsi9Ba+MLd/UTw8k28I5SkfylwVf6VenMAQihJ+xK1GOyYNN2gTQ7hE9ErNcLO/cq71IsDGIJ1ZSNwt74mddCE+T+CHf4gh2/idbFntgP1HkVLGvNK9+usG0P53WRJQOtWyZQYm5XFr1OvUdyHq+vYp4WSjAAkCMr4KNnjuGG0zX/YWucQ+VFWoqp6ZX3RKxu0KfQfmzbBk3aeZ5eKpEnlD8jxm1COT0q39cw3o16i0IBIzU8K3DM/FHoo5tqtT+Zbr8ylRTIFBQUFBQUFBQUFBQUFBQUFBQUFBQUFBQWFLuK/eOvfpzzW03QAAAAASUVORK5CYII='
p44
sb.