ccopy_reg
_reconstructor
p0
(cemoji
Emoji
p1
c__builtin__
object
p2
Ntp3
Rp4
(dp5
S'emojipedia_url'
p6
Vhttp://emojipedia.org/flag-for-Ceuta-&-Melilla/
p7
sS'index'
p8
V942
p9
sS'code'
p10
VU+1F1EA U+1F1E6
p11
sS'apple'
p12
S''
p13
sS'twit'
p14
g13
sS'gmail'
p15
g13
sS'related_to'
p16
(lp17
sS'name'
p18
Vflag for Ceuta & Melilla
p19
sS'known_as'
p20
(lp21
sS'default'
p22
Vemoji
p23
sS'bw'
p24
S'data:image/png;base64,iVBORw0KGgoAAAANSUhEUgAAAGwAAABsCAYAAACPZlfNAAAEzklEQVR42u2d3WsUVxjGRdpeS0EUUlKWri6mBrI1GPFC9EK0KlRCrVstFSqbBLRtUnpRIX6kBkMTk7aUzsYGS/3Ekkoao9iqbVPoRTX0vraXhYLgP1BvjnnOcmbPjLO1Neu6S34vPJyZ7O5ZOL8873nnnV12gSHqKhawBAAjAEYADGAEwAiAAYwAGAEwgBEAIwAGMAJgBMAARtQMsOnpaYPqRxbY7ytbUB0IYABDAEMAAxgCGAIYwBDAEMAAhgCGAAYwBDAEMICh2gN279cWVAcCGMDQvAP2z60scOoJ2MnBNcCpdWBd+U1mfDBltm9dbW6dyZjeQ52mN7/UjIwOA6oWgH0/c9P8MdFkrhfSZuxQY+SxS4W2yLmeI12b1ZGeVQCrNrBTkxMlGEERxPmmtPlzZdZqIlgfHn+9Lm1uf9sUef54sAVg1XzTt/I7QiCS3OafC5B/PjL8WXhcyDeawdEAYNV8Uznkp+UlKP2rnrOVoY79cao5Y8fJjpL7BpY9T0p8EnvYlQNpC+Pijzci6c+H9tuKZquzqbTp6ztCuf+kq0RVg98NF/ewchIkjW7/is9x50YzwCopOeV4T4M5sSZlj+OPq1JUOT++OW0mX8hE9i45S393wOJSM/RCa9q8u2SpfS3AKiAtthY0aExFHCIQToI51V1ylJPOzxVeM2OF7oj8uTWv5pdbAVahNpMv33l+0RGvGn2pKgyG2sPzpLmvl3EhwP5vRTib7sJF9RwWVn07G2zK3LxokU2BDtjH/UctKFWTt9//xgT9Q3b0gflzs4dVuKvhL7QDFk9/rjp0zz+d67OQpH3b2u0Fd3we50CAVRmYg+YDG9nba2b2nwqdFXcYwB6TPu/oNH/lSpWfCgSXEhfum7KgNPop0deHO7uLafGD4/b86tG0TZV/d2bNzNYXrfsAVqGS/u5AtESPl+6+uxww6YeW1oir3OjaWG4+gdN7SPobwOYIzHdMuZQod7n9a/GuY+aZjkmrk+s22E5IHFhSStQ1mS7CATZHyQFuodVmSirrtdjuuG3LapN7e4cdk9KjA6a06B4XsPngrqoWHYLldzrijV4HTs46eHijHX2ovvT6iTeKwL5qbaPoqJTUNnKLHG8dJQH7Odtknn1lwN6k3LP2VdvFEGjtVXKQu+2SlHaT2l4Ae4Q9TPvKv+1h8dEVHp9ubDQX22dBdRXbVoIpcHEwLiXKcfOhEfxYgamx+7DrsKTRAXPHb+ayZZ3kgOmeGQ6rwoVzOWBqWalgkRbv32adJ5eVA8YeViEpTWlB44v6MGB6ncarGzI2JQ52NoQ3OP37aZq3670egFWy+etuRsabv+WA6dpLztJr/VSojwfo724OfdoqaW6AzcFdT7V/ZNZ35c0nh18yT+85FxYGvxzLJAIbze0yN8c6bHWoFCgYAvfly6kH3LXw9cA+rottCWBzlP7rV+SH7MKqm7H2neEHnOADc3vd5d3b7Xjii7HQXf5Ft6R/Ajv37LyCpWOAVVn6NJXb74JgYF5//pBvrwAMAQz9d2B8f5gvpSOAIYABDAEMAQxgCGAIYABDAEMAAxgCGAIYwBDA0KMBQ3X0O8789jg/bU8AjAAYwAiAEQADGAEwAmAAIwBGAAxgBMAIgAGMqJW4Dwtg27Oz1xPcAAAAAElFTkSuQmCC'
p25
sS'version'
p26
VV6.0\u02e3
p27
sS'uni'
p28
g13
sS'desc'
p29
g13
sS'browser'
p30
V\U0001f1ea\U0001f1e6
p31
sS'annotations'
p32
(lp33
Vceuta
p34
aVflag
p35
aVmelilla
p36
aVother
p37
asS'wind'
p38
g13
sS'andr'
p39
S'data:image/png;base64,iVBORw0KGgoAAAANSUhEUgAAAJAAAACQCAYAAADnRuK4AAAABmJLR0QA/wD/AP+gvaeTAAAj90lEQVR42u1dB1hUx/fdpZelFykKVhS7YkPYprFEEysggr2b2KKxNxI1sXeUrlTpVZCmoiSANFuIvSt9Qf0ZTWI5/5m36N8kFkBYQd/9vvNRdmF3Z86799x7Z+ZxOKyxxhprrLHGGmusscYaa6yxxhprrLHGGmusscYaa6yxVvd2se0mjbt9p/W7Z+swtpA/eVCBtZcuOyqsvdcuWW3VLxNMdqsQ2z+5388OL1Eptn9WLpwYWixY1YIdJdbeaIV91llWiMbcrhSPxo2OApwz6YQ8PQucMeqAa5Y2qBCOJERyqCy0WcxnR4u1f9id3vM7V4odi8v5w5FvaIkMdbP/IFe3DUqth6JCZF9xr+fCZuyoscbYPeuFfSv7OUjKbYcxHudN5HlFIvJ4hWgUSgXOB9mRY41TaDNzVIXY4XFp36+QQzzMu8jzEjc6CFAhHvO4oIMrjx3Bz9TAecEtFk5Zcb+f/fOiXoORrd2qWuShOGvckRHWJTbTRrEj+RnaLdt9OiSjiqIkuN1FjEyN5tUmD0UmzxwSwQiUi9gw9tlZke0CUYXY8SbNtC616lUj4ryOW4R4FSLHMthDnh3Vz8BudHXRLhNO2EdDFtU7p5tY1po8FL+ZdWXCWKHNXDal/5TtuOi4Qgl/+iwiekup17ne3hZZNQxZb8IpzRaoJNmYRDBhCzvKn6Bdab1buVQwcWq52PEq4yl6DsJpw3YfTJzXcc9qACRip0vsaH9Cdq3XtxblgvHrJWKHYkqc4t5f4nzTznVKnJe42LInKslr3OyzxJId+UZqoRzI3+47vWeZ0Gl1hcgpt5LpW43G3W5fMK2I+iDOS+TotGZ0UKnAaelnNugh8pe6zDK91mtmjxLBjIG04ywRTZxazJ/4XbHQYUWpyG5VmdBuNUUx32FFicB5Ublw1uxykdOkQoGdc6HNpFES4fwBhTZ2/Fu9Z1uVCla1Od9zeLOMptt1j3NeKNTT2+ZesnLRL+LP6lVoO3V8GX/sJonIOaVC7PCAaXgS0tB6zuU2vZmJrU/ivA7q4SSicb98kkS52NZbo4g/XVgqdJpXIZy4r1zodFQicrxRKbZ7+nqnuS5BPYBEZP93hdhJQoTrjXKR/YUK0fjcSrFjWqnQPrlM6BgnEU4KJY/5SsSjfMoEo71KhHYeJUJ7d0JYz3LhaO8K0QT/cuG4qDKRfQqZnOwK0ZjrEpHD43+8DhGwxb2HME3PArNuNSoE1iWuWFijYvDXz7I2DGvS+IVjt+UGxbaTx5aJxrlJRGPPkcl8/nLAaeGLXqG3OotwtW1fXGjRA+dNOzOdZtr/oVctzSyyeOZMoex10KwlW6sl0weiz83Xb8v8HQ0R9H8UmHcj/88Kl4gmoAN6tV1fJtu5SV6LFuruduvPiFj6+vSKLe0zFGU2w1BmOwzl/wL9HU2z6fOKeg7G3e5fkPcsZrrhtG5zvmkX5JHXp+/rYxDm38gnwvzycjNkeRhMaZSkudtrukWpwHklcedZlf3sGcLQZQd3uw8gk9mHEZCydOmfG34XGuLMQS5yPDWiGw1pCqxddEuFk+eVV4lGShp6ddOr/7ShJTuxMkK2sSn+jJTHjXBCIC/5R3HuLmoNmjh0zQrRMT6VYvvHL1NU6tZZD/MRwDODZLMq8AsH9xM5hEAcZO4zGdYgiVNsO6O3RDguobIqPNHlBPkG7dhJ/Ii4MV6bIQ/F83Qu8nw4yPbU8GxQxKEFqnKhc0xllQi+3KYPThExy07gx8X5XoZ4kcZ9RSCKKyHUCykVwWWtXANIvzdplPAnbLsvdvibepwrhDhZms3ZyWsAON3WGH/FyP+DPBTl8VwmjJ1yM7f+qOQptJ03uEI85hYtjN3sKMQpbdbjNCTR/Ie/4n/IQ/H0hJRA2Z46P38U4uRauauVCyfvo+GqxHooU2dhJ63h4JRhUzxwU34jeV7iQhAX2V4qBR+hAbjcQiJyOke9Di2YZWqYs5PWkMij3xT3XVXeSR6Kohjihbw5L7LcBG1kRp4S6/mD6F4jKpLPmXZiJ6wBep7qkIfiybGqMOauu0gm5Cnjz552v5/90+I+Q5Cjy9ZyGhpympnifweVqkWelzjvR7IxT9W0+vc8/FlLqN6hLYcszRbshDUwnO3WBE/CFGpEHoo7UbStIff0+Nav9euNPKWCmUulOwL6NZimIIv/rzBfHaWLZ8ncGpOH4n8pL9N5wwn15Hlmz6qs2k6SwZKnYaXpJqYo/UEdSOfUijwULwjOHCA6yIMXXufkKeIvGFrZz/4ZXS3Hep6G5XUuDtJnGqO1Jc7ruBFGvZDCw+MuLip1Rp4b1ovaVfRzfEAboHWxK4BF3eBMByNUbFX9IK/zb1QmSsNYjof5l3VCngzrUNUKkdM5CX8E2zlvKC2JdsYoWcXD8+PcOiPOq+bqSQ7TXD3loeFWN+m6cPx2KprPmXZmJ+8jIlOjGX6zNkT5RjU8T6174ryOy8FcZHuq3AXA/SDy3LJdZHWf6B66dpedxI9DmnwLY9yersX0sV6kc+qVOC9RdriqqOhq0fODCCQRTkyihxadaiy1HrWXBwg0I+KyGSMwX33fSAiTbdQUvwsMULhIA48OKuHFSdmQ5nX8nSZdZJbrqf1j7VcQWm83vS+2e3HZok+DGdws7WbIMzdBgY0hLg3Wx/WxOszVWfi9Bkpd1BlUbFPFA1dlVO5UeYUH+5Qh2aLKPF6ymjxvrTruztHEranazN9fHaGLy0P18DvfgPnf9KqnlVzaR8rUaoZMzSqQ95BZWzKqvUbmqs9CX4eS5eYEbeZ9PfJTxDMantJlT5p/4/dAWlRUP1v7lYSCKcOo9vnQjfy1JQudwAsiA9yeocVMPr0anx/j4sWJ+h04GiboVU9f58UJLvOaf0XL40moAkPEiu1SgjKEJUQsWqyBe/M1cWeWFLdnab36/s5sTYYYFOUb1Ji+FCXJn1HyeJ7G/SjepboorGquntrTq3YHc9JNeJRA7zs2ra5qGdlNmjKEKVqigT+CFKVESW+4A/yp4/FRblUY05tXy6rz9EGUQPW5toeGiCvD9BgP8yyFy05cA8M5P5qN8VJrvYuCEui3Zl3rvgDW3ghFS3l4miDHTlQDxu1I2p2X/zt931CdGhMov9tyA0ogeopDnegaEqZ+62PIbCf596JuFg0TD5OrmqvuTZxqTCB6kGOF2P6va+1sPljfnO1qhPt7letF0/x5nIOL5Ep5dIyd8PpIKE4foCm95qFahbEKkeMNuh+91ouaaId4jXq9epynJJNJ81NCWaI8O+n1gOthNIwp3C9wcVGqeSFR5JRxz2pgrcIVXZdS3xrnWbocJMlKWL2+F9x3WuLRURU8PKqGv9KU2MmvI0iOSMNYlluLATUmULnQOYLusqiR12lqKu0Q1+OHogQ5F9ocSe4tkeJhjo0/9sa6tT2R4NYUR/YbI25fC5wPNUdJkjHKkpvg8TFllgy1vUhPcpHnTUjkobmnFqsPnfbSBfPVP+3B4I0b1+omVMmhKKEJfo9oRYjSAWleaiRskSskmYPoPQrw2mKEsiPkeelSPXTEVR0+G9sh1V0LCftNkenfivxejSVFLXDpEN0zpnKLQ3RxzQgkdFpBM7H3rQGiIevmZO160zoPUnk46t0WyW6ayDigBff1ZnhMxPNT8nqSEHkk/MCDv6sYactVcGWTCu7HyOFODBdBO1rjr5MKBEQMBiogZk8zPEljvVFNUVrVXM3Y36VbzQjEHz+JEihX7+33YcjUboYSIpTrrbF3QhHxri2RHyCHZzTrOiaHg5stkL1FCUliHYQbG+GAtT689gyGl0gbEXrGCDcygu9XWvCY3gmpA3WRPYOHkkMKiN4lj4LwlnjxC1tGqJlkqOrOe2mvqVk1WjBj4Luq0XTfUeVulfoVcUlaOPizIR4SMZc7Vx2xHfXha9UWO780RJi+ESIMjBFo0ASHNigRAmkhtAn5nb4xvHtow2e4JvM9fU4oIZX3fCVk+LdkTqRgiVHD5moAs+Unt4Yd+e86va0aTfdaP3Cv/3BQmaqDwO2ELCM0GCIwhGlmCN/FivAYyENAmybwn6oG1wkqcJ+uDF8nLfh0N8bBucrwGK8CP2ttBBs3QaCZIdzHqyM70IwlRC1wL5p6Ie6LbFdB9e81lmvhov+manSOqSnTHZfFG396Uh4pnm3hNkwDgS0McIgQ4eBQHtzs1OA1Wh0HrFrAs29zePfShvcwHry7GcFH2BKe5Gf3wTwc7GUEz/6W8F2hgIR18iQjY8lQG/yRKl0jlO1h+E1Nq9F/vl6NpmHrfz6yrbM8SJFHfhAXbrMU4TVCD178TvDuqY39Y1ThNlEZe79VwO4FCtg1QxF7FyvA7XtF7CI/75mqhL3kcfdR6ohcogjJYe6bl2+wXf/qNVd9aTamlljDYiKtRosZ8tBFUPddP04WQxd7/+4jhwgSmlxnK2LfakKU9cqYtroZQr30ELRBDXvHKePQFnUcctfExDWtEES+HtqlhcA1crif8obsIp6LU15cHNnBZTKNZydZkrwLtyLoIjP5P7N2z9WsPoHEzr/e6zEQmRpmKNsgmzrKXydItvWWhWNPSPoe96M8QnZrwnuTGtbOVMaa4cr4UaiGrb004dpdG/uIgHbtq4ndg9SxbZYCUvYQz/Prv6vYHMQvVcJ6Ww2sEalic38N5O1m2yHvjARJVdnYfgOH6lejRePCS/oOxZ1vNWWjecjEZpCJPLxYCafWK+FJ4n/DTnkSB77ruVg2XBELrVSxzJKH5c01sb61AXYPscY+BwE854nhu2UY4g6MRE7USJyNG47zcUNwLmYg7qdqMP+nIpGD1dMUsOQrFSy0V8KFYJYk72uu5jPnKWr6V59AAqc99yb3lMnqQLq1NnWmGjYPV8GK0YrY8KUKSmOkBKJpfP4PyjgxjaTyg7QQ0lUXgS0NEEBEdbCRNJ0/ZNYSyWGhyMvLRy6DPGRmZiDg4GYcP56EnJxcnMrOx8U4PuORrkVzkBJIQFLUJD8O0gKkzVmWLG/HtVC6yExRQga0ereFuDWevzzPTV4m+oCGlUgigOc4KGHlKFW4r5ZHUTyHmexbnooIM2nyKpX3b2qIDQNV4UMys8iqWg+tC0Xu2Y20lFRE+vjhSFAQDq3ZjF/mrIP7hsmI3OqB5Ih45MdPrTrajYPonRy4bZAiYhcJnWksSd5Zl0uQZmNZ7qbiahHolLveRPoHT47JxkVeDOcgypWLZH+iUQ5ycLYqrFRGyyGMhChKlABCnh1Wmlj1pTJ+INrnJz6PIVG4LvFGixYiITQCid/vwonAGASu3YK78/xxYrM/ju0MQkZiGn5J3PLKoxZEtEH0IReEHFyB4D0DWA9UjeZqrjc9iEpzR7UIlONpMoAS6GGybEJYQSgH3pulHmH3Gg4uV51zQ7VReBc9hkA+zfWx0lEBa+0U8cMYRaybKo+DxBNF6DWB7/DhyMnPR2JoNH5Z5Ia0yVtxebYX4lbsRZzPIZw6lY301AD8cVyq6cpSzHEqI42EukxEhewlHkiVJUo1mqs5nipXq0eg/Z07UgKVJ8im/E8LfaF7OiPcbylCAvbg5pHu0jSehLEjg7WYXpd7B11sWc3Bj4s4cFlIsICQras2IkgI87GyQnZODqIPBOLk+oP49Zs9yJ26B0ddD+FEfArSohKQ9WsqipNaVO0+kENWejRDrKhwP5SktGJJ8h6UxEnDGOXG+0PY3gl69MmFMVwZuUgStlIXEwF8GrFx8fg9frDUOxECpc9QZwgUaNQES8bqYs5MM6yYp45hjiPh2VpHqo0s2iEtIQFHwiIRscOT6KGjOLnuIH77/gDSPcKR4hHCCOyzoT1w00ceF3YqIWHHHCQTvRR2KBjXjvRlSfK+MstxaTp/dmOzFe+vRuMFN9tT4cmtCBmlirRxl2RPMqkzSExKQWb0FDwn4etxKhd5a5URzohoIyzg94D1qB+wfrE8+oxej21dpE3Ug8ZNEbxtK8m2sglOIT48EicXuCLv2/04szYAmem/Iu/0aQRNnYKonjo4LNQl0EPc0CYIG9oCR2a1ws39isxrsmR5O67s46F8wJisaoWxbE+V6zR9k9Wbu5HMR8bJNJIV7YK/swiHh2kiqps+/Cz0EEzIQ0m03VoLS+ZqYNVceayeL48NX6lgl7E+PIiQ3mJmCQ9hfxz29kbgyi1IX7gfyTv8CZH2ISMyGblEI0Vu2YQoEvaSnHiInWyKMCc+op2aI26gDuK/1kb6VB6eHme79m9LdgpHdaF3Wnp+sZuLSTWEtNov9CBqWXmgiz5NET7WFtFdDZAwTAsx/XQQ2dEAfkaG8CcECjE0wvqxilg1Xwm9R+/A+KkDsfobLnY3NYaVYD4UHeLQXbwI2y26IsY/ACdSj+E4Se0PLdqIk8GHmfrQiSR/PExVZ7TVrVhzZGWeRPqxY/BxWQz/AfqI6q2LB4fZfWtvQvEKHnPDHNpoL7GdMuP9OsiTF0Z3KcqC2QU/KSN+tCZibPUQMrI7Di6YgCt+hiiNkGNwqK0+QgiJNg9RxUY7Hib1nowVVnxs66CFha16wfG7oTCa6IXpy4UY1XcEfB3GMqKakiYxNg6p8QnSAmN6PEpTzFAWJQd3C12kxcYwYS/Y1xd+nbojpL8mnrNk+W+SE6zIbEOnvdGyvl+jTOR8+P0eyIO3m+b+9f3mHh2RQ1QHAyZdj1y9iGRGpxARFoSUxZ1xgwjeZ8RbJAzUZrROKAljwSTr8iep+wGCXbr6mN+yN4bOGgrL8csxcMrX6DJ8Eba06gSfKdMQQDFtBgLJ18DZ3yLg2zk4422K0nB5BLbQRyj5+deTJxEdE4u0bUJUxrDe5z8JzlEuzvcwerUyg94atEI85vHZzn7q79FAWsuo6n56or4r0Vwk2mnAo4keDm/6mfEUMTEx2C8WI+ZrDfyZxkXELGVs7aqF7T00sW+EOnb11oTvCkVsNtHFRjNzaI8MwKB50zB43hSojwzDHhNjxAzXROo0HpIcNJE8QQPJzhqI666PtBk8pr6Uv1ANocaElN17wX/RUmSG2DGhlCXNv7Sps84/z6M27lgVxqaPfE8I05sgrUbXfxgrCZPDyalqSN49G/mnzyDCzR3+rdshgeggWg1PJ+8j+nsVBAm1EbNBEQfa6yLOiwsfSz149udhquVQmDtsQOcxMzHAaiY8Wush5kttJI/TxJHh2kgcpYXja1QQP0AX0V/oABnSEkHO1lYI7v8F8WwmCG5pjMx5aniczIroV0tf1vKYXcb/3ExhztwLrlzofOA9IczsC0qgBzIaUDqhlxKHIG7jZoSYtUSohQkK/eSZnti5QA6iflCEXxeSfrvJwdtcH3H75ODbQwfRLkrYY6WFrUbm2GDSHm7N9RE0mHifb9WRRAiUPFUDKcTrJDlrImUWD0FtDZiaBkPclBYk80tFgrs7PIViItRNcKSfNnmcJc9DL2WcMnjzwVq3uohRIXIsDbWH/NtD2N4uHZhqdLyMClXE0yU5GSKUaJygbj0RvG3hq1WDd6IJgXbL4YCZAUMcPysdRP2ohMAvtBC9XBkBX2nAZ5Q69g/lIaK3Ho4MJV5npBaSJhEPRJAyTQPRbQyRNEETIa0NURgobZU8OqqIrPQ4ZBMhHRXhj7Sf2uFARx38feIzF82HFJFrZvrWXTm/mXVlwthtm7n8tx/1u32qrqyq0VRnHSVZWIgRCSVjHEkKnorwQ/vwKE1PejWkcBC+j4OD7fWIx1FkPEzEfBXyXB5CJqoh7FtV+A3QRNgKZcQSnZM6Rx2pdDfHEm18uW0wUr5XR8psHlLnqyPS0hAF25RfbV3JO7YDOTlUd8XipCuf6CU15rzAz5U8f0Yr4LSl8bvPeNJsgUrRKEiEEza/R0gryqQa/SiJiziBDhLHaSMjPZbxCBFhvihJtagqoxMPRAgUKNZC+GxVhI1XR7AjD2GERP4k9Y7drIADHYju2aSI0A6EQPPUES/UxVFCmKjJekgmISxxtBZSSDiLtdLHSfI4DY1UwP+WPA15eaeRcCQZWVHjZLICoaHi7zh5nG5vXK0dyfesBhAd5HjpPQRSvnY1pP49EG0hZKxUxuFhPGQe9WQWgUVFRuBGYu9XHirJnYNQSpwRGohaogx/gRaiNinA21IX8a7y8O2si/CfVOBl0YwJVVTzJAzVYUiTMEybycRSpvAQ20MfCaM0GSFNSXQ+sjMSonYgKmQHYg9OZ9Zhf7aep5rkoaC7dug9VG5Yu7R7u5D2Ukm/ECSjBfT0kMdQLk6nLmcan7GHE3Au7utXlersA1yELyCZmECbCG3icdrpIc6bZGLka/x2BfgTQe2z1AAB38xFrLUBjq9VQUw7Q8SLifAWEO9EQlfaOvK7rvpInMRjCESJm+7DQcBOLvwJfDbL4VrE50eePwKUkN/WpGYHaui0lqbzwvFL3tHOUA895yu7tJZO6NnYrxAbug4Hdg9E+C5dPEytSvWJmA9cqAQ/4mkSPEgmRrKtuL3y8KPN0Z8U4c/XxtbJgxC4cyW8vxyIyOZNcHy1KlJm8nBsuSqOrVQlRNJFgKkRrvkqMN7n0TEFhO83QJg38VLkc8b7KiLBR4mpPX02i+ZdVZBj2rRWZ0HR+6hIRON+eUcI09wli2r066l80j4ugvdyEElCVvwBDvKC5F51yc8fkIN7Zx0mlfclxIlao4SgQVoI/U4ZXsuFSAl2Q9TsoUgN+AmBc+cjqIMlIlobIbaXHsKaGSPAwhCZP6i8Wqr7e6QR7BZuw5B5ezBywSaMXfITJiz7AZs3jcAfaQqfNHFeEP1XtFSDOeegtoeJXWlrTb3Qs6t9txi+uZjoob5UFtXo108eSz4oj3BvdWz8uSUWrhmJGcu/Q4xnd+kWHYLSGDkk75GDD8na9s40gttcPoK2/4iA8FA4bFkN5wVTMXbtd5i6+2fEH44n6f9O+H87BMmrDFEUJf+PanNhoiZmrViOr+dvx5glrhi/Yh++JGSatnwtihN5n65YjpfHpS/1/1MkrCleNldLbadNfksxUXs8JdDjo7L5YPmhxpiydBFGLNwF52V7YbfYFV8t2AvX7aOlovcfZOOiMkkZtxNa4kK8CKdjRyEjagKOBo9FRuQYnI8dhIsxHVF6RO2t63z+PimHjKCmOBdhhHDPzti5XYiAfVbY8PNgXI/V+CSXZNBT/fNam9TRWd/mKLP5GmUCp+g3hzA30/7SarQMPiDxLsd822HQnD0Y9t1u2C1xw4SlS7Fx0xD47O5ORDbbYvig4mCoAnOriA/1Ov/GjQ58VIgdHmVYb1f9D4Gy3Dq0l2U1+lK0IQlb45Hi1wZ5YUZ4cIw997AuwtXtmVrM+Qb1cXD8+aadmTBW+KaqdPrPy3RkuTaahiXW09RRXSdKgSEOPb+yPm9ZkadvwRComD/G8c1hzEPx8a0IdkIahcY5QXThLhVcHqqPLD3Z3O7qTJP2DIGKbCYNeUstSPmqLKrRLGpZO0vj4oGbMm6M00FeS5M61zjVSeUr+9k/L+i52egttSDVkxcCG9iVRkMdGbg/IxTwwEMZ5T+rMfcTvTtHC7emaePqKD0Gl4e/G3SxFHXz9NZNRct4KFnLg2SrKrOU4ZGfEvP/nx/lMgeJ0tektZOPedYiff3nR+XwyFeJuTnd5a/0kdvMVEoatY9w23HtVszaoDLh+Pi3FxM91EPoIUMf0y3T5QWUJPRUWFq/ONPRGKf06Q3hzOrniqP/U8OM+f9ZOs2QTQQoLfWf62GEAr4hroySku/ON1ooXs5D2Xp1PNivwpD5Sagi/oqV3huMuT/YiSrynXyNhK/j9cdOSP/mWbIcnoQrMMcJ0s9NL4wrhPDnejTBKYOmMvcyb+vIF/UaTL3PH0X8ue3fQSDNnTKtRpOBfByiiOKVPIYsueamzDlFjeFe7v8mHkVeC1PktzZhCHi2ixHO926C36z/H/Rn+thpAvpZ6d/Qv2c+M69hftZX5BE7/F3M/374u1cmemksqe9qNCUNdcs0/FDvkqHB3ny3oeJ18hTaLBpVjQ2GOuPqqxpNaxSFizTJlcmSpjGAap7i3kNo1vXnPf7S4dU76sXTtB9TjU6qI+Kkc/CEhKjrY3UZHcNOTONAjm4blPb9imgeh0eFtpMGV/u0skzX7pZ1VY2mxLkyQu+DOsAsZA/aNKW3gq8Uj6kotF1qW6MTW4/vcNGWVqM/YMF8nDyuOeiyxGmEOGfaGRXCkZCIne7c7juvI6c2lu2p9EdtqtHPj3OZ+7tnGzdlJ6MR4lKrXsTrjEaF2DHvjvVK01rfTz7HU/lKTavRfwQo4nzPJuxENELQOzXd6iRiWhTlQufIgg6hPM6HWLan6okLgdxqrzmhK91k1YthUbfI1bOoyrTsn5cIZri4cFzkOB9q2Z684LPVWBv9d4K8dM0JOxGNEgVm3Ri9Uyl2KC/izx7KqSujp3NKq9FvJ9EfgUrv3ZDGooEWB7Va4nYXMROyJCLnX0imZcapS8vx1Fj8rmq0ZIsaso1YodwYcb5Zl6oU3eHvEuGU1eCEynPq2rI99J2l1WjuG0+uytRi9U5jLAze6dZf6nXEY8/cs57bjVNflutuKpZWo7n/qCgXfqfZYBt+LN6SYWm2wBULa1SIRjFV5VLBpGW5VrmKnPq0XHerdpRAZfHcV5nWvQUseRoT6Lk+F1r0QLntMOp1XpQLx4de77vInCMLy93orvX62mjW8zSumg4lDt1+81Ik37Oe15cja8vxVHp0M1xa42HJ0wg65zqtmVAlIQJZSpxxmXdsvh3C+ViW7aVyuWCZFhHM7OQ05DBFe1dUHNMWBC0GSoQT4u9az+zP+dh2cU2rtHvW/diJaoikMemEGx0FxNuMqMqqHEvKRBO33rFe1prTUEzSb9whuh6kIQ5gnp4FzpMr7yKJ9Vfb9cXNjkLc6doP96wGMqvnKOhJEi+/p7+nj9/sJCTPt2HOujnftAtOG7ZjimoNnTD5Bm2Z90w9Da0cU9JUiB3+JxFNPFTInz2ioEOoEqehWZlw3Hb6Zj+m/qGDR/chXWrTG7e79EOp9dAqV233ChViu6cS0dgiidChoEI84VeJaHRKucg+sVRgn0C/0p8rxON+LSePS0ROhfT5r/89cwULRqK4zxBCsv643p6PS617o8CsK84YtUeubhtkEmEqKwFM1+LQFsM1SxuG+C8JI9U1Y2+UiZzdigXTh2VYZ6hyGrKV8Mcupm+a1hFkvZjpcps+oDcBpufyVQ3eC4lo8s0K0Y9RpYLo9YW2cuOLbZL7XOw228SF41ij5h840dyCDoeM7lhn9yrlN7crEeYsLhd6uZYJVyZIRDN/I5P0kL7eP0hGSEvFaQkhcCF5X5TMNIRQb3aZkI1mPb+bd2O2/dLwcta0E3O+8lmjDlKYdGR+T73m7+bdGc95xaIPrlvaMi2Fop6Dpem2+P9fs7Kf/V/lYqc8kkW5lQomT7zV87uWnMZkJQInZ/pBaLiob9LQUHKNDObL1JMRg6JvTpcJgrYW862Gn+28ylCWn/14177ad6w7dCq1tRssET6ZXCo6uqpM6L5PIvwpVCJcdKJcNP2CRDyu5E3erAYgF8WYhxLxmEvlwrHHyoVOPqWC8StLBRMd7ljP6ZRrBUVOY7Yimyli+kHplVRfC7bp1UuvaukV5/Bnucg5rlQwZerFbmNMGss4xeif1DjTRWx6t1eZxc0+wd1v9dlsU8b/SVgpWicq56/pXy5Y1q9SbC8stB1pe7vXlB53eq9rk9/N0SSBA2XOp2zXbea3pRNbQFxznYYo4m1udRa91DIvykROvxTzp0w/1+lnHQ5rn45ltQ7QpAS63LpX3WzKJ1qAHhVblUE8LBdM3FPYZ4klO9KfsJEY/T8q9D5M31i+Ik6l2LG4VDBz6Y2uC7TZ0f0cCEQEHs0SarV8QKc1E6poBkOIU1oimLIo18pFjR3Vz8hIZnCUFuJqWru51KpnVf1izJNSwaSN16w2arGj+RlaqWjCRlqLoRlTdRdo05pGVTPvSEnfVa3YUfyM7RZ/eXt6mBCtzr6PPBeaW1UtWhojKRLMnMCOHmtSLySctJt6FFref2PI0mjO9KKke4qcjl7pvaQpO2qsvTJY5SqWCydEMCdz9hiIAvPuTHOPZlcXidahDVdazykVTPk5lAN5dsRY+4+5cCBXwp88WyJyvP3vcny5aGxuofWcQewosfZ+b8RZK3e37/SuRXxnu2KbicOuWM1lRTJrrLHGGmusscYaa6yxxhprrLHGGmusscYaa6yxxhprDdH+DyAlMi23U5mlAAAAAElFTkSuQmCC'
p40
sb.