ccopy_reg
_reconstructor
p0
(cemoji
Emoji
p1
c__builtin__
object
p2
Ntp3
Rp4
(dp5
S'emojipedia_url'
p6
Vhttp://emojipedia.org/flag-for-Congo---Kinshasa/
p7
sS'index'
p8
V952
p9
sS'code'
p10
VU+1F1E8 U+1F1E9
p11
sS'apple'
p12
S''
p13
sS'twit'
p14
g13
sS'gmail'
p15
g13
sS'related_to'
p16
(lp17
sS'name'
p18
Vflag for Congo - Kinshasa
p19
sS'known_as'
p20
(lp21
sS'default'
p22
Vemoji
p23
sS'bw'
p24
S'data:image/png;base64,iVBORw0KGgoAAAANSUhEUgAAAGwAAABsCAYAAACPZlfNAAADhElEQVR42u3bMWgUURCA4SvERgRBhIQzISeKpSjYiUXEwjagnWU6Oy0sBCMeIhgRMQiKFhYBLYKoiIiCSROi4nkGFSUKabSQCEqIghYnCRzEZPeyu+/tezPv/QNT5eB278vMzd3Nq7QIVVHhJQCMAIwADDACMAIwwAjACMAAIwAjAAsQbHx8vEXqySWwyukWKSB3Xpxp/X7flZiNTTXAJGUa1PSOviUswIRDtatqeQLmMQdu3M8MBZjQqnq9pZaKVRrY2NOjoFhof87AFp8cnP9z+N4pI6jSwA7fvAtYxqr6NlLNhVUKWPtiXkz2A2XY/pyCxVxlZUCVAnb89pXowdKgZgd7jLGsg628yHVDf6kqC1XlDCyGKrM1/QHmsarKgLIOlnbxm899Z0zXBBZSlT18dsRLVeUC6wRhO2l/nXPx+TJVWMxYrqa/taDambklxgb16dVu71DzE92rnjv3e1joWBvOLohpf0lZaOgIFUta+0t6zQpPiUWh9lxuApWQv95k++c2Guu3D38OtqqWL774qqrq+a+rrtcIbGN9Xi1Y2jUuNOS0v6Q0AsvbDk/euUT7KwjlBcxnlUmf/taf+ZPpPgqD1S7MqgFLu5aPB3u9QzWn9uW6F+tT4oeXezv+/dC1J86gfr7t8V5VX4a2Wv3ntQq28jEjD054qbK19tN9V5XJvVkDs/XYkMf00ceDxvdn/E1HY2q/iOUc7dOfE7C8T1Yfq1u/gSL76Vran1UwCZvBaS/Sj0fdQVWVEdjzyQN8+PUAZeWDs+sMcUwPFszn4ovvqlIFFnP7UwUW2/SnGqzo6UQXUMdGr3t9bUSBSWh/SYsvkn7PEwHmej89KZtdNRU/vHoHk/w+1X91Qtx7uzcwpj8lYBL20+duVdWeA3AKVvbpRJOqmpvepuLbHidgtD8lYIzpisAkL75InP68gdH+lIBJmP7e7eoL/hSoFTDJH36T9tOjBWNMVwIm4XTizEBv8O3PGCyU/fQowJj+lIBpOp0YNZiE/fQYxnQrYFpPJ0YHxvuUIjCmP+VgEvbT855OjBaM9qcELOYFTXVgIZxOBIzFlzjBgFICJnU/HTCmP51gvk8nAkZVhQcGlBIwxnRFYEx/SsBof0rAtJxOBCzQ/fQgwWh/SsBYfFEEFst+ehBgpJ6stAhVARhgBGAEYIARgBGAAUYARgAGGAEYkSX+AY0AAUYGvj//AAAAAElFTkSuQmCC'
p25
sS'version'
p26
VV6.0\u02e3
p27
sS'uni'
p28
g13
sS'desc'
p29
g13
sS'browser'
p30
V\U0001f1e8\U0001f1e9
p31
sS'annotations'
p32
(lp33
Vcongo
p34
aVcongo-kinshasa
p35
aVdemocratic republic of congo
p36
aVdrc
p37
aVflag
p38
aVkinshasa
p39
aVother
p40
aVrepublic
p41
asS'wind'
p42
g13
sS'andr'
p43
S'data:image/png;base64,iVBORw0KGgoAAAANSUhEUgAAAEgAAABICAMAAABiM0N1AAAABGdBTUEAALGPC/xhBQAAAAFzUkdCAK7OHOkAAAMAUExURUxpcROJ/y+V/DGV+BiL/zKS9i2V/RWK/2CH2RGI/xmM/yGQ/xaK/ySR/yyU/S2V/SuU/C2V/huN/yaS/y2U/SmT/jKV+S+V/S2V/i6V/S6V/SSR/zCV+yqS+hyO/x6O/yOQ/hqM/zCV/CqU/iqU/iuU/SKQ/x2O/yaS/iCP/yuU/iiT/iqU/iCP/y6V/S2V/ieS/iyU/SyU/i2V/SGQ/yyV/uNfSDGW/CyU/jCV/CmT/upQTeMuPSeS/SiT/i6V/SqU/u1JTyWR/u9IVeApOexKU+9AUeg+RMGfEMaVHLanIPBFVeg2Ru0/T+0+T/BGVOFIOO0+TtY/J+YxRN1wMdCJHMOoCOc0RNxXLNBqGdmbFHGkmtN4FjqY4cypD3yigNOJFpqjR7+sGLS3RjeX63KchG2oqSeQ7Emb0qCxXkCZ336umAB//84QIc4OIQB+/wGA//jWGPrYFc8SIQuF/wF//gOB/wKA/fnXFs8VIQWC/xCF8NAZIPDUHw2G/waB+Q+H/weD/wmE/2ylmjCQ0ySM3enRJfbXGdIjIPnVFvjSFsjGRfTEGNY1HxqI59XLN8/JPdxPHfTWG8XFRw2E8zSRziqO14KthtEeIOJuHPfPF+eCG/O7GO+qGRSG7NMnIJ+4a+BlHQ+E8QuD9HipjzmUySeN2u6iGdzNMaS5ZVeeruvTI0KXxLzCT/G4GN1UHfbHF/PVHNg+H9lDHgSB+/bWGePPKomwf+bRJ1KcsuR3HPTAF9QqIHGnleqUGt5cHe7UIdpJHhaH6vbKF4ywfOuZGpKzdsvHQYevgdQXJ06bt+iJGmWjoJa0c8LESvCuGR2K5LO+WB+K4eFrHfK+GUmZu0SXwAiC+NPJOt5ZHdESJNUtIN/OL2Chpdc5H+RzG+Z+G1+hprfBVPTSGuyeGZm1cPXNGOnOJKm7YZy2bXyri6K4Z+DPLo6xeu6mGV2gqPGxGO+tGt9gHa+9XdohMNUyH+mQG/DMHeDBJeikFtfGNNSzJ+S5F1KevdnMNQqC9a4UjNAAAABsdFJOUwD8Iw31Akb5Af7y1PfGZBsUP+yzVpMJKlAxL8AQBujhyu8den9rz+Sq1nSfg906SqJZaE7ZXAUYXyCOH/O3mzaHVbwr+hF3yywYgD7Zkpc/zaL46FFmSuLy7/6//efbjtx5uPSiUvf8iumB+W1p54AAAAcFSURBVFjD7ZhlVBtZFMc3SNII7m1pgGJFatTdbd3dfXcmk0CIEIIlOITQAMULxZ3gUpxSp17qXuq+bt2ZSSZMQlJySj/sntP7LZOXX+6973/fvW9eeOG5/ddt3oa3Xl37DDiGn3/y3puvLx43x/y7L3/femrNy/PGyTHw/ubaeZCx+6XV48I4Eld9+yg7kQEGrFk5Doyx3Qo6uzwqi88AwZ9eedrYjM0tVlAJHMml9jqYA+5+baPutRMMzews/OaazjZdMMueaDHdwc7OYKGLi4uBnQPRdNGkKeQggNshRB0C+e+/o4Nia2Dv6ulEt6TQSCQSjWZEcbb0oPtOo7q7u1N9PSiksHAmAABiafY5hMPY+sEmY20YM+tlVAqZHcRBVqPGhI2DGVP5WHDj8nk+iIBqfvvQfDRmoZsJJSRIxdBp3H0Vd7cjDoH8vbKPLTQxkxeYkMLHpsBWeaI2GeUwEqubSV4asdl5UyK25eqBgdKq4i4EoyAwo+l4hNVktV0lmpCZUJEodGyOpKyxRBEYY2vOpVwmfSKeYz2HDa8pl4mhsTi5A/LqeoU/jK5fRYEAbTaOY+8bgawSyZtRlyCdOKj3jjChBlRwYkqkxRAQMtNWBZpORTkNu/yTUiEosECSJgnUzjm4X1ibz1eCTg5vaQCAoGkGKvVYhaDLCm75N96JPFZYNnhdrN2htDJ53xFlomGH4L+FlWZkjYGmGil2PbeKx2rZ2dLov/M4V6t+KquiazEOCOYPNw8hj8NsMAFMYiv8LpbyWCweiyc9ri0wSLDvBO/oQ4zD+Pk+6hAAhDu5KEEmaIYC0/YLWYgl7dHG4aZdrYh90BOAcYKzLiMZQqrImagEWSEehbbKGlFO1FltcQkuxkdndiaCKquplUUqN5fso4xtWRgApHSc4aEcVtPxUZsPhRblRfGOZsRg6YGL40DFRewPI1Ypxb2CDAm2VPgrQay8FA1MYOTNpOi4K/X8EU7ML403BKoTwmO6AuRFeiySyQZ3VrDQXDcdU3epd9+gPLYadmeEE9wWF48rAoLXBBQ0l1IgjpRIUuN5rFJZU6N/mQDnTsqeR928hKxzASoMyODn991uxWWSbWWIgohTmHBRQJFS/5Z7B4/t2nmmVbVtDalXm1jDO3qCRzAwpyuhu3AI5zPHV1G4y+mIIKGipsb+AghqiBSJCpQrDheeiI7L6UpnqHPa5QPqBw7NVNHtpnEQUKuwCt1QCNjWoIiqvApJznYQh4Hzk5+wOU+insYQb7Rw55uEI586SveoK3B/C5ycxAA8Bt6vtj75rcMaCgmiooU72QqRNre5+THuu5R7sALVk4NYYmem8OpBTaExKWjh2noj0k4pTMN9dbi/hVV9JEYdw+AnP2BV9PeOFr6icI0XIcfINvHIhnKLDskzO+s0omJsbUvglXYItBx74SZmqCLJyI9HOKHlUl52frqGO8HJJXHRg3tCtR2fysI1Jag9LRCdiS2p13An4NzeWl7U/mIdZzDZFRG3vRH+2bbClsy9p9Ux4PaMatZm2VmBrsNcUbgWlrjGCNdvbYZaWHByHubEsUp3pXF1dhemx3IYNJHOxHG627v4eCUz0mtKMnlRZZVDT+pVBDc4NgMqRyWfLd3ZNfj0wDne0cerOFQueHLLY3vChWuukDZsQx1R2ckBeOXU7U3gCavOSsbqwJw5DvCouzRCqZ/y27A/uByfbsuOlceLDgaOPRMYwR3XcaaijwBF0oSTqrjg5JzMiYuW3izmQnoMF2QbTNoAEHmpL1+VZziqzuHGpH5xgz4YACC5Ii2SjApo4HLbSJGevtAeXbpLPKQfBmC7O2DS5u6L6sSqlMHvuRvbfb1SXwzAnjPDWCltKFV6IBHjpB9pjz4h6gX0tRAqykGlLchLSMbSsz0rU1hWxNXXHWaYk4Wij8DSDrx47TyW6MQdsaWFvfpiAA7BygG7o1A5xbIrWILqcljxraF6hxVOscGmCPjUHtpyVDnQgfUHNh9KDQT0DmvObMORW5xV5R8ZSkXX35fnReqNYTvPXI6bjx2/ylMGxqg7IByQQPpijFZZq0/Hn/6JjeB3hf25enGYQWGWSxfM1xj7N30UrLik7BAOoNvFCWeTSTQKhWJEIoewwzkc/J2AyQliE5ydFhFH30PefgMbw5AmGhRCo0+a6eM2y36Gn7XpVBvPSVS6pRGNQCaHhYWRCTSKh5Pn1BkujlquRSuXIKkOyB9+dBgO3H3ZXAfzkWXGtuYLJ073m+vm5erj4zrVbRbRwcxWxzXtxSWnYFDP0UFxyBTPWQuNn/qeuvrdU3BhlPzz9xRvouF47s2L1+9mBF+49uNSP8Nxvp9Yt2R38l/f/2A27jcLa9et/+yLrx2fwbuOCYs3bHz+5uj/Y/8Cy8Gluq/6IoQAAAAASUVORK5CYII='
p44
sb.