ccopy_reg
_reconstructor
p0
(cemoji
Emoji
p1
c__builtin__
object
p2
Ntp3
Rp4
(dp5
S'emojipedia_url'
p6
Vhttp://emojipedia.org/flag-for-Heard-&-McDonald-Islands/
p7
sS'index'
p8
V999
p9
sS'code'
p10
VU+1F1ED U+1F1F2
p11
sS'apple'
p12
S''
p13
sS'twit'
p14
g13
sS'gmail'
p15
g13
sS'related_to'
p16
(lp17
sS'name'
p18
Vflag for Heard & McDonald Islands
p19
sS'known_as'
p20
(lp21
sS'default'
p22
Vemoji
p23
sS'bw'
p24
S'data:image/png;base64,iVBORw0KGgoAAAANSUhEUgAAAGwAAABsCAYAAACPZlfNAAADR0lEQVR42u3dMUscQRTA8dVS1C+grbWFWNkoiB9HSz+EjamSIkVImoR8AAsJXPQD2GgrqGBhohBIODQJF/aC4Ort7uzse7PzZv8PHscdurfMb9/c7uzMXTYiTEVGEwBGAEYABhgBGAEYYARgBGCAEYARgAFGAEYABhgRDdhgMBiRdnIMNsrKCy3L9rzzyUZepub2W2431iyCKaBpglVh9QdMGE4DrA6qH2AODeDTENJgrljJgzVtDNcGkQLT2DfzYBoNIwEGVgWYTyPd3/9RAcu3O47p6d5D1YJJHdm+YJaqKuT7V4JJVFtTMItVFR1YmyO+CZi1z6rHfXj+GAWYb7W5gFn9rDo7+17Yr9PTb/GB+VRCHZjlM8DQ+1a8cFYdYs6aAYu8pV7D3d4OJ75n/jpgEYJ1X2GTGtR4dnHiAVjkYNfXPwuPgEUOFs/tFcAAAwwwwACzdMeZ6zDAAJMd3QcsUB4cnL8Am53d1x/8XVx8M7l11taKGJeX7cCOj4t/e3Iyfnlh4bXZ7ux5PDz81QVzrp4nR7jr/TCfbVvLo6Or1j2AE1jTqpqbe+V1AzP/v5SrTaLbrgVre+T7zOnostq0qrcshsPfMmClVXV4WFtVEpNwSqttc1Ol2paW3gYZfVfpEiWP8LbzEkNVW6gzzLYHRAHMuaq2tyurSnoiaahqs3ANV38d1vJIlpxbr7WPOztfzFx4l4OVVNXu7tdOF0Pk7+9abU22u7r6wftEoHswwc8HrfVhLtWWfpcoVFWhFvTVVVvT7W1tfQ4+k1d8QZ/YaazSktmqauvdYgjSPy8ufgBmcQjq5uYXYLHn1NSeWrcMmHKVAWYgZ2b2OekgAQMstuWlgAEGGAkYYFI4ZeN8IEYEVjaVzcrtjN51iX2dAw8YGe6kAyzAAOuqOwQuErA+LcCL8tvctLEso5kH01q5EVve3Q0LYI/PAUt4+VCUYBsbnyaOcKyvf0wKLbnT+vn5/4sn8scUqizZCisb8LUOtrLyvoCVP08GLNVbLXksL79Lq0tMfTpbJ9+XSOMzNEUCRgIGGAkYCRhgZFgw0tDvOPPb48Z+KZ0mAIwAjAAMMAIwAjDACMAIwAAjACMAA4wAjAAs4fgHpI1yAAdWvSwAAAAASUVORK5CYII='
p25
sS'version'
p26
VV6.0\u02e3
p27
sS'uni'
p28
g13
sS'desc'
p29
g13
sS'browser'
p30
V\U0001f1ed\U0001f1f2
p31
sS'annotations'
p32
(lp33
Vflag
p34
aVheard
p35
aVisland
p36
aVmcdonald
p37
aVother
p38
asS'wind'
p39
g13
sS'andr'
p40
S'data:image/png;base64,iVBORw0KGgoAAAANSUhEUgAAAJAAAACQCAYAAADnRuK4AAAABmJLR0QA/wD/AP+gvaeTAAAlyklEQVR42u1dB1hT1xcPKrgX4ta2LsS6F1ptq3XVtq5arXVVW0fV/lu1dVsrra0KKnsKsnfIXrjFvReKdaLiwoEoe4Tzv+eGSKIvkCAJIO983/lATF5e7v29s8+5HA5LLLHEEkssscQSSyyxxBJLLLHEEkssscQSSyyxxBJLLJU92f1i2yDCr8HwsMD06dEhdUa7b5zZhF0VlkqkcJ/vrES8ej4KeVbWzp0ZoGaFPDNfxLfg+nv2a8+uEkuMFOr/8YdyWe5dmSwNFi8+BX37RsF77+2Anj0jYN68IyAUpoJclpMaEdL7E3a1WNKWPEHWPeSyvOTIyCdgbR0EHM6WN7hFCx/w87tPQJSZEuzS7j121ViiFBXYfrBclp0SFvYY2rb1YwSPmlu12g5i8QsQ8SGIXTmWOFEhTb9RyLMz/f0fQMuWPsWCR82//HIS5PLcTA+7SfXYFayiBBylGT+ywdpYRabSxeUWNGrkrhd4kHv1iqCGdVRIg2/YlayCFOa5oLGYby5EEKxefQFq1nTSGzzINWpsAx4vhagxM1aNVTmVFdT+M5k0/w56WhMn7jIIOJq8atV5kEryntoNXV+DXdUqQJ6bBjcWxtTwilVkFKC9Y2MTXGrwIA8ZIlSpscA2n7Kr+w7T/PnzzGMiGy2US3MfKxTpsHDhcahVy/mtwINct64LSKUvQcSrvpVd5XeQ7OyG1OJF1pgrk+TfQEnh6HgTOnUKemvgaPKmTVdBKoZr7Gq/QxTk3spayDP/VybNfoTA8fC4Ax99FFOmwFHzuHGxEBubAf6uvT5kV76SUvTkb6oHedW3FXBhnUQMZ2Jj00EuT4e//06gqQhjAEfNzZp5UwDxo2FVlVr0yZMnVne1a9wmwLl2fwG36aiI4KxpEmHNubxQs99jItPW8rgv1vFjXvyJjP/eKVQuSzhntujuucTZOUExM/LdYr/JC7wyKs898NOMTQf6P45r3SlOeL/t72P7WNkN3WMkrwTMNv7ycdMI/2YDeBH1ZwpjlA4SIWePVJL1kiY7iX3j6poI3367F5o29TIqcDQZJZxUVO3IOwmU4/L/NZBwGw4VRCsXS4QWXhJhwT6pOPe2TJqRr5lp1s3pcPDgC4iPvwGJFy5AjkIBEBNTxHw+pMTFwdVLl+DixRv09SgBpKKMXKkIUmSynNsifuZVqcjsjFyed0AkSN8t4uVJpcJaXLk8P0gsfBkg4L/cweem+SILeOl+5G/+ClnNEDGfIxQK0vbIRJxTMmlOolScla15b1JpGnh63oVffz0Fw4aJwNLSw2Sg0eSZM+NAIc9Q+v47rHnlj64uu9Es32f3NGXITp8HJy7HX758TXngQCZdcB7vObi4JMLKledh9uxD8NVXCmIb8KBbt1CacUZxXK+eG9Ss6Qzm5o7kpyMsWLAbnj/PhNwbN6Dgiy8AWrYEaN0a4IMPAEaMgPwTJyA1NZW85jkkJz+DJUuOwfTpB+DHHw/DokUnYPnys7BmzUX4668E2Lr1Ov18D4+74Ot7H4KDHwHmniIinkBk5FPK+HtYWDIEBDwg4EgCZ+db8M8//9F7njfvKEycuBsGD+aRj/eHGjUcywUwr3PHjoGq9Y2oN6dSgiZ7w77OSn/ZHwWh0hMQzVVSyRAcDGlEMiQnJ4O9/Rkq0s3M9F+UOnUcYfXqg5CVmQuwZw8QhAH5jyIeMADg3DnQpPx8JcyaJa8Qm2pKNjPbCiEhySARVhdVGtDERk+yTLiQufjBsStnUI0AlwvEpwRiAAB5JACqVQPy+NKN9fe/SL6og94LUr++Ezg5nYa8nDwgYgGgSRNt8EyaBJCSAkyE76tefUuVA9HPP58AuSw7w87Ou06FBs4O71Y9hTwI2LUrKys+/jYkxccDke1vbjLy3Ll0U48eva83gFq08CA2zC1QZucA0TkAdesWXa9mTYBVqwDS0xnBc/fuS5gwQVDlwIOM3h6qscighuMrJHBCfRsPFAurKdBAxaq4FSvOwPXrzwGyswFGjnwTPMjERoGsLLh58zlRYW4lLoK1tR8xhJ8AvHwJ5JECYmQUXQuB5O4OkJPDCJ74+MfQubNflQQPMtqMfP5zTK7uqFDAifTt3UUsADECJzr6GUydup+oGDcqUQ4fvqfavR9/ZAZQt24ADx7AkyeZ0KdPYLEL0K2bP1y+/BTg0SOAr79WqUD1ddq2BUDvi4Fyc5XEOL9KTCTvCrGRtWo5QatWnuXy2egsyCR5j+zslNXKX1XZj60v5Fo4xsZm5yKyp03bD7Vra+ZvHCAw8JJqF+3tmQHUsCFAQgIRGvkwZkyMDgNwC3z2WSTBGVFLxNOCgQOB/LHoGj16AEEWI3iys/Nhw4ajRDg5VRhJUK+eE6xff/iVyrawcCQ22VaTfDaGElCNhfg3HlS+UifovS9kkty7GBhbuvS0zkKndesOqXZSImEGEPLevfQlS5bsZQTPqFHRcP9eGsCFCwC2ttrvHT1ap7F8j7xn/vydRFBVLFWCBvyBA3ehX79gAp5t9HtbWbma5LNRM2CJiJBXZ3O5AMfHbl4dYUxtL1RXvr73oGvX0GJv+LvvRFBQUABw/jwQv5sZQGi3MHhiuPETJwogNZXYUIcIEN9/v+g9aPvMnq2yhRjo2rUUCjxDwgLG5qZN3YmEdiSg2UKkQCKEhV2GhQt3kufisUm9QgeHa8Sdz0swvdTZ3sNaKim4iFJn/vyjVPSWdLODB4eSPSZG7a1b2gDQZDSGX/PEEDxz5sRCWhp5b2ysdowHjeU//6TGNxPFxSVBhw7bK5wRa2PjB7t33wZv73MUNDk5SlAqC2DXrtvkedhqsvuYMGEXqrGC7dv6W5suGRjSfjT2GnG5z6B//2i9b7ZDBx+qSqiaeV39qHnUKOo5oceGnhiCZ9Gi3ZD2kkgekUjb/UfwREQA5OUx2jsODieIOnCroMG8LfDll1zIzy/Quu+QkMvkOzuY7D5attxO7SB+lMUy04AnrNn82NisPC+vu9C8uY+BBU2O8N9/BDxKJcC4ccwAQiM4OZl6Yra2QfDrr3shJ5sARCpVGdnq1yGQBAJGqfP8eTYsXryXeDiOFdqVRqBs3XoKCjQwlJKSBT4+56F370CTGdPe3kkgFRXEGR08/CirlZh89PZOhHbttlMJYWnpSr0aFLsoLczMint6HGD//ruqlVq+nBlAVlbUE8vLU0J09H+QnUXAExoKxGAoeg3mtl5LS6jp6dNMgk1e4X0wcUUCkQOsWHHgje+AgDp4MIl8TdNk6GfPPkjboH3sxlgZDTxnT5qtOncuCW7eTKEuNEqIx48z6e8Y+Dt+/AGEh1+BjRuPkxuSQ58+QURgOL/m9TiAl1fhxm/frtsT27+/aCXFYoDu3YFcEOD774GsOMCJE6CLEhNTqW2xb98dUChuEexdhsDAeMrOzqfhr7+OwO+/74OffoqlRv348TwYODAE+vYNIve61aQAQilDnQINSk/PhXnzFNS9N9V9dO4cTNVYTHi9WUYBT8IFWJhApEJSUpLKiyqB8DUZGXlw+/YLsv83qBrCDapZE93UPWrrVjeAvLyKAJSaCqYgtJl69Qo0qQ2EYQ0e7xrxYM/T2BcSSt4BA4JNrEq3kof/CYgFwCtz8Fw5X3tMQsLV/Nu3b+sFHl2ASkvLhfj4JyAUXlf9EYN9TPkw5CVLwNSEmXmUnKY2pJGbNXMltuEzOHnyIVy69BScnE6ZXN3iYAa5NCfNbvb6WmUGnqunLW0SLt96cfPmTWL3Kst2x+7fB+jalRlAWMeTm6v9+owMIKsMcPq0KhCJBrSnJ4CrK8DatSr+/XfVT0ygoqr7+2+ADRsA3NyAPOaqn/heZLzOxYsqIGM6hLCLyxmTGa7aTX8OsHfvHZg1S0aWZAdVwY0auZj0HmxtuSo1Ftb8yzIBT9LRJbUT4u/EX716lYhX5oQkdZ9LCywExNChzADq1AnA0VEFiOHDVTGjxo1VwUcLC92qT1/GvJm5ORA3TcX16wM0aghHGnSHmpzN5WJQb9x4DLp02VFY8LUd2rc3bezKwsKJJr1FPPApG7vn4jMntHtePnwIRK4CuTqAgwMQg0ZVw4NSAjcXf06bplI7//yj8piOH1c91QiS4giN4rcFQxnyC04tsOT8XS4AGjgw9K2NeHPzbVrqEVMjhrz/zz8vgVSsvI89+G8Fngf7a/RLPnYiP+uvv1RqRrPGRh9GKfHJJyo1wUQYSOTxgFitFQpAOZwaMISzsNJWGY4fL3gV++rRI9DgCPzIkRKqxoK8LG3fCkAF4ft3wY4dhgMHGVXNxo3M3tORI0D8ZyBWo3YGvYJwAccMlnLGglmlrPFxIKbfQZgyRURzaRi2QFVoyDUaNnSn7UUinvmG0he520Eb4MYU0DJQ9eLiZlevrgIUFqmjjYJxmf79VYxS6sMPgTwCAFeuvGknofr78suysV+MzBGcXlCjwgUc9QMQxrYwrzZmDI9G45s3dzf4Otu23QCpEC6WGkD53vvG0yL3zp1VkgJzU5isxIAesYkwzUB8clXyEqsL0VvCn2jv5Odrh1OxqOujj7QrBSs4X+E0g9qcTZVSjU2cKKQFcxicxJxjaeqeJk3aQ5OrwW7925UOQL7hM/KkUsgPD8eiYQoQjOO8eJFDyyL27LkDQUGXwMvrPEHrKeIR36BZZC1C9xilEXo6lQQ4as7kmMN7nLWVBjRo88yfvwtcXc+QvbipVe/93Xdi8vyGGFTx2KaNL7WDBNG1FpcKQIlHn42+Rryux49T4dSph7Bp03H46qsYapBh/QrGSTA9gXp2wgQ+TWdouebr1wM0aFDpgKPmPE51mMyZSX7dWmlU1+DBYTTq/zrhg41/79nTsAg79sCJRdX2li7ndahpz+PHn8KMGTspYJiKsMzNt8Jvv+0jWkxDZWGRGNpFpjSO8bPQrsLuC0y2oo2GMR3kevWKfsf/R8bXlqBO0ZDewBkB1SqR6sIHGgvmnj3LeqMqYciQcIOvh02WsYqsXM9VUxsbPmJkQftmmHHHQiPmgNNW2Lz5eJHaQiMZqwiNIXXQcMfrtmmjCgv88APAunWqz0PDHG2sY8cAzpzBNgsgj5uKk5JUrP4d/x8ZX4s5OCwNQTsvMBDAxQXgjz9UQUuMS40dC7JBs8GiWuUypPGhPnHigRaAMNNfmmthZSmqMW5Y/emGe2GgNJNJMnPnzDnyxoUxGYq6VktlYSkpbrQxJMzUqbRLQ1drjrEIKwwqUuG9voHI14vTsBymNKkZDGhi27ZEaB5ZKjUmk+TfXrHinNZFUZ25u5/V7MpTeVhvK2EwoapLrUycqO3ZmYiysvKgb9/gSgMerMWKirpC7R0sq0G6dSuVlg8bGgtS82+/nQGZNOuF3eT1FoYDSJx/zN7+mpZ4xAzxK8JYj7V16YGDagl7uVANXb2q+1p9+2KFWHE7DeDtreponTlTVeU4bJgqnZKZCdevp9BODAyuzZwpJRpQTmMlq1fH0bogF5fTNOAWE3OVFrodOXKf9pohT50qqTQAwqK+OXMU0KKFO0ybJoVHjzLI0gXCv/8eg+XL95cqs48DrqgaC2w5ymAASYTAR0tcbaD988+xok3D9ESLFqVLYGLAEfvfH2joaoxYf/op83uwQfDmzZKTspiVb9pUW7JhGOHCBXj4EGcM7iqm06GoWhEfFBzS0KCBM/npVInSGNoNl1g2g/uGJbNYOVq68IAznW4v5IGHwQAS8pQeOFoFLzR3bmyRwYzg0dwofRjVU8+eqnKKzExmEKCtw/RejCOdPElfgiEFLLTXWZOEkgyNYPS+1O9Hz2zDBsh/mkLrkLBUoiK19hiDMfpsb3+iTK5lZ3cZpBLlHY6hyVVhTN5aFF/jxgmKXHUET/PmhrnYmN5AdcJkBGv+Db0gXdcJDqYvwdJULJHF8AHWPTMSlpZgvg07PtStzvhz0CCAs2eJm5tJR8CgPfeuAqhWrW20SbEsrjV6tIyqMX/3Dn0MK57nVvth7940Iv7ToNAiU7nShiRUMaCYlvZ62Z+q3nnBAgrIV8IEQaLrWgguit9Hr9QQNuU5OJykcQ5Gws/FeiK8D01phiGA5GTae4Xlq8aWRpghr159W7mqtLfhxo096Bg+Ec98vWESKKr+5+fOJUI6jkV58kQlSfT1qj77jDmhivOAUBJgURixg5LuvCC4Kexhx/ohXaGAQk8MvYq2bT21FgmLrvj8a7QQXWfVIxrr6iQuSkW0wxQKAr4sWLv2ENF4zkbbyJYtPWDIkIgK2A2iP+PENamo4IxBAIo/3qgHFpOl4gbgyBV9wINRYCwZZXK7sbwDAYIbOGcOvHiWQdMg06aJVTYNlqq2asV8XQRdSgqNsjIVm6OxiJukdl8ZVSUOtNK8PkqjxYupNMLuDewgMYY0ql/fmbYtaxZ6VTaeMmUvTnUt8NncR/+zxq4f/LgpAihNV+/W69yliyrSy0Rok6j74Pv1o2752rUH6c0NHRpOk7S0ehENbaZr42xDokKxW2HSJEGxQwqwmZApJ0QJKytxrIymNLKxoa3SGUSCoW1UFtIIYzK2tiHEXnMhKsCFCONnRAgKqEeErd0dO/pWKgDhLEpV52rtnw2KRj88fCKHxlZKMpTHjlWVeDARuuiYH1N7ROfP0+y9ulfM2nq7qtUZy0E+/5z5M7BmuRCca9fGlaj70T7CKoHMzDzmGu7du1VziDS9RGKTKW/fofOL3t4AdSBAF8GhQ0kEr3LiHKbQGBPGnh49Si91YK88QwR4TodEWLDTsJRGpDSR1j8XZ+/g/xeXZli5sui1O3bQYifcYPXNNWjgpGp1RsJgoK7PwrmHhZ6YPvYEfumPPw6j6umNUhOkF0RK/e9/RZIRH4QOHSi40l5kwfLlB94qDoRdsQEB8VRqqtMLqKoxPtOkiWulU2M4PEMuy85xtXNpoH9Za5j0KPWkdMVnNm/WcK4KiJB4pB2jQW9LrS6mTIG0Z2kwfHjUG08rtvBS2rZNN4CwoO01T0zfWhmc6oFdtIwuPyZXNeuyURrNmgX5D5OpBLGx2VHqRW/b1os+MJokld4k91/5DOoePcKoGosONZ+iP4BCFTwaNWYqmMd6aY1hAAsW7IRz55K1VZc6PdGuHeQl3adPNZO4x0EChaurG0DYBUI2/HVPTF/u1MmXFsGhRGCYxACwZk1RABKlUfv29H7SiTRaunRfqYZStW/vDZcuPdH6KATyokW7Kt1UWAxF4LhCidA8VG8AKQMl7mTV3wQPpg0KCQ3WTz8NJwDapb0pq1erXo8qgmwEtjczz7zBQvDC4QJnz2pHkQ3wxPRteZk+XUor9RilEfbbazY6os22aBEkX3tgcGb+/fe96dQxpqg5/g0lUWUb8Ll8+TmQSXNS5vc9Za4fgALEa2jNDBZiqdWWhuRBfd65sy/xNFzh8WON/i9UCwgcfJIXLoRnTzKgTRuvYup4BSrJgMFKIq0YAYQSQQ9PTL/DRtxhy5aTtBeeURphNysa7oWfndXRBvo1tjNY4v388y46n0hTMqO0trM7TKeHlOVgTbwW5u+MCaCPP+arDqsLavKZfka0/55ZFEDYhYHpAGwaBHXc7wG0bq0658HN7YzmaAkgn6Ra/M6dIT8llbiwwhKnluHCEvEC5B/MAEJA6umJ6etZjB7NVU15ZaJ9+155j/mcajCf800pS1wdaAWAejYAcpcuZS95EJDo8aHxjmejGgNAdeo4Ew/6JYj41Z31AlCez5FRFEAYhSaivMg2vvtq6heKYa0oME7VUBuju3ZRr6mkcW04tYyqFVQjGDXWZQcVDpPS1xPTb+CVEy15oGP3mLL8aBsR8HpwBpW61WfEiEiachk/nk8rBles2F/mkWl0TtA+xNE6OLDKWINEN2y4gp2rN/UCUI7jle4UQNidWuiq4wKowYM3iUVMWmkDdaZ+zhxIvJmi5bIXl/xLSHiqrsHUXatMVEsuUWE4waIsFwil0dChkXQEsUh0ndoueD+4ITiTMTvuCBzuPQFqlbLVB8sr8Nr4PW1sfMlzcK1MjWj09nBAp9q+wvonY6kxPOwG1ViAW7vuJQLo5dQHVnliMTzHKDEAdUlbt/bUKDgKpT1Ir0gdxyH2Su79hwYUZDnQQVCU/PwKC9s5kMupDjc5TSCK0xNWcr6Ar9/7A7p1D6An8hgrYKbqNtlKpSb2leNnWVq6QfvWbmBWSqnRoIELjBxZNEfyww/9oXnzsjnmCe9z1ao4OotJPVuoR48AowHIysqTHo0ljDFfW7INxFGaJZ66kP3w4UMaLba29tXKP+3alQgaRpHK8MSAYUgIhIcnGJBbciB21Fn65e+J48Cf0xdmcKZCO85qsOBsrlTdEcXNADJGtlw9ZxEfVpoSImRnh7Xs9kb7Pq6ut0EqrHZCvwkdl24nXr58k3jRoa9NOI8qKsXANIR6TMu4cXD/TmqxXhcT4/UxIYpPvVklB0x5MHqWaEei/SMQXKeesbE+C08gUCgylDvsR7QqGUDx9454eV16I/uNs5dfEXawopeGE1QvXYKfftrJbmo5dKficCzsmqld28moQ7LatQso7FytN79EAB3cDzE7dtx/bTC1oKh9BN127KFH6bN8OS1Kr2hHCVQFRsndrJmHyVRyUNAjEAsKZCUCSMQDNz4/9ZXOxmjusWP3i6SPOtXRpg1kP02FAQNC2A2tArxgwXFQyHOyPOwm1SsWQAIurEZxVbu2S2HAil+U3cZ8F7rtGHEOCKQBxXe9YJ1l9XjiiMLOVcuJJQwWrzkLX4gTG1A1HTlyr0j6YIYcpY+tLdy//rjMXFOWK0Mj4zbg8VJAIjALLB5A4U1HIoB69AiHESOitbtSGzWiEeeCvftgyZJ97MJWMV616jweVvckenJBdZ0ACvay6YYAwoPJcPTsK8KBmoUF72dOPajUNb8sl46HDBFSNRbm1+ZTnQBa/f2EJviiDRsuFNXSYNYck5uYnY+/BF99xTNyLcpWkx9BwLI+eURXkErTQMw331KsGpOKs7KvXtWoocFS0MITlnE4tnENZwdaoI45JHbTKh5v2nQVJKK8a8Wf967IvHX3bmHLDM7awZQFkUA5l/+jk7GMfZM4NADn3JTHBHmWSyojicWWHwh2GtBFJ4COH31yODExUdv2IT8F/KsmcNsd6GAHLF5r186b3bQKl0LxpgDic2GlTgBdvniPe/36dTy1VuV5NW0K6Rf/ezWW39gAwplEOK/nhx8UjIBVt/KwMajyYQ+POyAVVT+s+7Sei49csclQHffJXvSLyWbnYLlCWFgCFX5y+a03DiDBHBD2W/355+FK3T5cmXnmzDhQyDOUzv8Oa64DQHdWXcexva1aQX7DxjBtiLfJnnY8xQZbg5GwoH7o0IhXkgkLtfD/sCpg1KgodjPLiTt2DCzsXG34o47D5pK/fxYXBwWtWsPv5l8bDTxM10UJdPZs8qtqO1/fi8R+30YNa+zyRMLztZo1c2M3sxzP6AgNTQYRH0SMALp2Nn2EUigE767zSl2VVxJw+vcPoe3Iv/22F774gkvrpBE8VlaucOZMssZxli9oS4z6dD8k7PdiKwDKl//3vxMgl2VlOC6dVPvN2mj3612f8g/CiM+ERrsB9fRXVEdYKoKj+s+ffwwREVfg6dMsnZ3TCKQpU8TsJpb7hFjVPMWoQIao9NHJrS33KV7CN9/sNvpotkOH7hl0rCbaRfoU7rNsXH7/fX8KoIjg9Gk6otHZWdhgb+wbwUJ9PAFaX4qJuUalF7uJ5ctduxb2zodYfKUDQLk3V6++YAKDzAFmzJBCbq5+s6Gx87OyDQR/F/n77+NonbTTmlEtmcf+igsObdlyw0RWvQN4ep5jHoTwGmFbEVYJqM58ZzeyPBjnKHK5z0AsMJcXNzc6GocMmeqmsOde56QxBsKprU5Op01+0nFFYSyn6dMn2OTB1Lp1XcDFJREU8qzM8O1tu+oEkJhf3UUofGGSACJ2cKJrXhpCzw3PyCqpnfrdY3s6MOKDD7xfxWbee8+4AV8EDw7gxFN9YsJtJhQ/tZWbtxKNpDp1XIysvrbAkiV7maeK6UHowKHkwvZeQ08srsyM6hvbp//++ygdYIWT+THYaiyJVK+eK7i6JhLwZOdGhXf+psTuDF50jZkIoLZtjTvTBpsLdY7sZQALDi3AViJ8+r79VkSfwKrileHD9sEHPoWJ5M3g5XWOzmPE4Q04yOrzz6ONZvN4et7B/FdOVEifCXp1qHJDGwxHAPXqFWG0BWnVysMguwcB9McfhwhgqmadEAKoZ88AOvBiz57bdA5Rwat2vVzo0cO/zD+zRQsfwD5BhTw7gxtU7Qu9p5WFenf4UF0bbazGOPWABfSs0CjGKRz4t4wM3RIJ23ircj22es6R1pCLwkFWOIeoLG2gDh0CICLiCchlOc8jArp/YtDE1lXTFjRGAOGJvsZYhJkzZfTIJdTdtrbBdMYygsrGxk81fEoHJSdn0L7wqp3M3AIrV8bB6wF8TDb7+l6gR16+bYjD1jYahMJUkEshKTLYplupDqGTirIz588/ZqRcGPPZrFZW7lrznnF2D3pomk/cyJFRVboWCONmaAMyzWI8efIBjB3LK3U5MO7JxIm7QS5PA5lYeTbUtXubUp8nLxXl31iz5oJJFwfPmkhKSns1ShgNQzw+QJ14RbK3P27UcSYVnb/8MoZxqPrGjcdoSKT0D7UTLFt2lqYoxAIQeHi41+O8DUlFBQe3bbth0sVp08aD1vuoxhbeoeBRZ+/9/S9SUOHs6KoqgXCwJh6AjGNd8EHCKoai2qkLdHZQaa7burUv9bRiFZlKfnTjv+w466tx3pbEIrOogICHJi7adqWT0VTTWbXLSfDsMDyyEl1Wa2u/KmwHqUDSpIkLdTzwYL7Q0ATaiNCpk4/B1xs+XEyck1Ss73nGDW02hlNWJOLXcDZVNLqoqXALJCQ8o9PsmcbY4sFxOKh89mwFsDXR9nT+4rJl++nDtWbNQZg1S673ftWv7warV5+nKksi5Bz1c7d5n1OWJOAqV6ii0aY76wFddBxmNWuWrJioqBN88kk4m0zl4BTVo9CvX9Cr0EiXLv56dfUOHsyjLjpGlvmRdf+0G7q+BqesSRBlPgMBhMf/mC5Z50Qnbxl7iPa7wthqZcgQ0ubNvWH9+ksqqSNWXoj0b9mHYyyKDrccZuxoNFOp6wcfbGfBUcZcu7YzzJhxAESiFzSqLODWXO0zX88jDEpLwR5duyCA0MhiN6HyzvUZM0YB4eFPUOoUiPjm3LCytnV00ZIJ6xshgCZP3sNuRiVjCwsnCpzg4EeFRnK1I1GBLQdzTE1ScU7GTz8dYzelknCTJl5EVcVBVNRTNXCORwW/9yWnvEgizr++Zs1FdnMquJqyteVS41gmSyOeVYYSy03D/C1HcMqbpCKIM3U0mmV9wh2O0LdvFPz66yl6MBxKG7ks97GIb7EtzNumE6eiEBGBkaaORuu7gFjsNmAAl+r6H344BEuXnoZ16y7B5s1Xaekljuh3d79Df+K/8e9//HGJvm7OnMMwYcIuGDSIR3u9MahWkad9YGwHB36PH7+TSJrLNFOOoFHIc9JkYvPI6FDLr+0mr7fgVDQS88yc0PUrz8VFsGAfEhrzmNz187sPcnk6XUA1y6Tp+TJJwSMxP+uKXGJ+VCJO2yPkp+8UcrMU+FMsTNsjl1Q7KhZkJZDXPcTXa76fDgvgPwdPz7t0gxYtOg7ffrsXhg4VQrduobSwCu/DNKEMZ1qLM2yYGObOPUKAf43eG94jzuaRipW3RQLw4YY1HO+4NKo2pyITL0oVjcb5eKasd2nfPgC++24f2Ntfo4eeqTY5s0AqrnNHKhol5HP9/uVFDJwZsv3nQY7/LG9tx+lvUPIPOD+bOa053zLML8KWG/bTZFHM2eUiwTJPsXCwQipqdlkiykvDzdIEGJ5aw+WmgK/vPdiy5TqsXRsPixefotJs8uS9VBJiyGPQID707x8NffpEQM+e4QSAYdC9exj06hUO/fpFwUcf8WDECDGMHRsL06fvhwULjpFrXQQnp5vE3X5MP0f9mXJZZq5EpDwrFpj58CJqzvbYZNWRU5mIHwnTTRGNRtB06hREj5tWu55kAwukotbnJYItW2PCHSY4r/m6uSm/+6Zp7RsHeQ7pwQ098oUopu2PAp5snTBmiZdEOI4rEXU/KBZa/icXV0+WMkgzfRm/o0SUky4VZ1+TCPP2iwXKAEGU2TpedK0p4b6te9h1vWTBqczEC6v7GX7R3r0jjQKcRo08qKrAp1ql07NzpEKQCrm157rZJ7SqLOv0y4C8BvYrfNrwg8ytd9iv6bfDZ9LHfP6EIQrF+KESwdDhcvFHw+TyrCEhASmf+DmCbUzAiE7/LH3a+peOBTU57zIFuL1vgxuLIreshxThqcA4NhYjpBJh/hE8DcbRbqAlh6V3h1ZOntdQFY3eWybAQVsAvSG1B0HcTvdA9y5d2ZV+h0kqzk1HQ+9tgGNtHURnDBfGK5KFMZarPDe1bcyubpUAUM419BJKAxwrKy9YseIc9SzkMuVjYVSdZVuWNavLrmpVApAI9mFDvaGBr6+/3kVLJRWKnGwB18LeZ/PwhuxqVkESCczt0dht1Ei/fiw8KsrJ6VZhMq96bIhf747sKlZhCt/eo6tCkanE6GzJXZMyWrRE7JyUmHDLWezqsURJEFPLDSOz2KnKlNawsHCEJUtOqwu0971VQxpL7x7Z2a23kPAt+AiQrVtv0LhQ+/aB0LlzMEyYsBNwGNXO2IwCIbfe5snFHUjGUhUGEWd9NV5k3UVSSX7S6zkiiUh5Jiq4zefsKrGkhzRSVovwa9g7MhgmR4VUm+DnaMUaySyxxBJLLLHEEkssscQSSyyxxBJLLLHEEkssscQSSyxVRPo/lqTcS3OOkmkAAAAASUVORK5CYII='
p41
sb.