ccopy_reg
_reconstructor
p0
(cemoji
Emoji
p1
c__builtin__
object
p2
Ntp3
Rp4
(dp5
S'emojipedia_url'
p6
Vhttp://emojipedia.org/flag-for-Pitcairn-Islands/
p7
sS'index'
p8
V1077
p9
sS'code'
p10
VU+1F1F5 U+1F1F3
p11
sS'apple'
p12
S''
p13
sS'twit'
p14
g13
sS'gmail'
p15
g13
sS'related_to'
p16
(lp17
sS'name'
p18
Vflag for Pitcairn Islands
p19
sS'known_as'
p20
(lp21
sS'default'
p22
Vemoji
p23
sS'bw'
p24
S'data:image/png;base64,iVBORw0KGgoAAAANSUhEUgAAAGwAAABsCAYAAACPZlfNAAAHAUlEQVR42u3dT0wcVRwH8JVtgF1oC5RSZln2D8ufdvlfhFJKFSyVJkQbqdo/mBZqDQ1QbG1p0EiqjcZT7cHEXjiqJxN7Mh7Rg0YPkGiTJqaHHkzUk4kHTbyMzCMzvDfz5s/OvBl2y/clv+y/2WHzPvubef9mCckoBVVCqAKAoQAMBWAAQwEYCsAAhgIwFIABDAVgKAADGArAUAAGMJS8AVtZWZERhRMEbK261Vy0ccl1qEXZvz783L/X/eZrMGB+oPkJZoW1bcBEw/kBZge1LcCcVICbihAN5hTriQfLtTKcVogoMD8+W8GD+VExIsCAZQHmppIe/PqnL2DKfsl7a9q3PZQtmKhvtlswZJULMBHZlisYskoAmJdvfC5ghZRVPdfTcml9ltzmJZjbbHMCVmhZRSO1Xaont40v1crJ8sb8A3OTCXZghXauKpVSGpyKp3zmfx/vI9EZqQum4+xnsQPzZVQ7gEzbskMiwNxh8cCmz08EP5b4JISfYMVSB7kNSyPM829NXyS3OxIX5Gh8DGBBgPUdzvEwl3lb3n+gR/70o43HO2NH5feuzyLD/AZTGw2ffLiL3Fptq+CoMXykT7ufbc5ocLyQBiRP5z2A6bCUsGtM3Lm1QFAGnu5i4NQw/TsNi8z+3TRaAKbDcgKmVPzo0BEulhWYun+pqceA1jWXBFiuGfbTN3scgb1+7pR2WLy9MCcf6T1on10UmL6VGU2kkGFuwEKpefP+VcNN5nFzTz3ZZuzEM9r2TsEa+3eR7bvfTOV8WEQ/TGmCx08zjQx9JZL7iRluP+zQyE7bc5K6745OickyN51vgNmMYOgxWifrmXOdcjs+VqrdX7xaziCp21akhgyHRYx0CAArlrpNsdTnv/5iD7ex8drLEQ2S15gRCub0DfQIfC6Dt27AmO1r2m1nt91E12xSLpGaLZH0hy0a6fwrL2r3776/yGJkFg1o392vCg7MafbQ33Cn82Fu9i0i4sMxSyQ91o3LUwxYb1ebHAqFtKAzjJdlf/xcQ4G96w9YuOUWtzL/Xvmeqcz/fvudPD94ZtnVBKbyPl55dOoS875/fnlInlc+l+iBXDpK6jqZ+S8yktGUkWO1NeR+SyZNkFS8zrZSA1g4OWk4HJLHDQuGw6UQMK/ffDdrOoLONh7Wjrpjm9ukr7HvoTJKxeobjDJ9uGIpq21fFW81zbhcD4+mYF6ySsQinCCzzeoQqI/uKwMb/S0dmPa+9efs9qEHK9nb6w1M5Dfc67rEILOte966I6tgKUGygsKi48KrJ21HS2isdEuD+wwTlVWiF5JuRbZVSJXkccn6fhWkk+MVGpYS4XCR6Vii8vqxE2VcsPLkPk9Ne9t+mNdvssi19UFlm9oJtoqGHskApTRG1JYib1ReDV86zl6yys+LIXLJNreVEolJBrRv71czEGbZ1dvdTbZpPxTl9u2U14pSl8WCifzG+nV9mJNsE9VXo+Hu3anggmXSGcNh0Y9FOgyYqKwK6oI+u2wThVTc8bwW4baN0IPtjjczUdQ66mmi0vUFfV7/gN+XzFplm1corXEw/4MhZi6c2ZwD47yuBu8cFo4NBbuQ9EkNHtby3T1cCBXKCpWERV9v+GgUYG6jqnGX+QiERQbZgelbhF5bjADjZJdhHb0FhlbpFttcm9lt2t/7+HYlwNxE61TcgPXZvWpHYFZodFdgc9rlHaa/BzCvS6+Tc+zMswnEX4+cg22M0C8ys9Gh5BWAiRoAzrbHbMGU1yYnJ0mYnsuow63VTDTARI7am4Ctra1pXQjTLKPOkZ2zSQPW0sJegIkCSxyv5oKp2cIDSy99xQUTMRcGMIurK5XKPHg1lRMYN8t0YPrDIsA8RqSujqy1IBOL0n4DGH0+Wl1dzQks0VTGgGGkQ3CfjNdxppvy2fEa+fR4hDmMPn5Qy6IJvmITYFREUy/I/f0xDawscVyuTA1qld/1wecMWMdzu+VnR8v4oxfUWGLLWUnYQDDAbBoFdOXrJyWVc9zg4WJLMKvWZ4nUAjDPEZvQoMrXMyyUnJGf2jvCHdlQ4tK5iHb/jYmIEc2iFYoMExSxpo1ZY2Ukgs6+h6u13GwyXQaAc9jWNTysYHjPr/4o8QeS0zcAlo9gShQlpkx/QQdgPqFpjxPTOYP58SMsAHMKRlW6vvHhBMzL0jaAuUSjkbID5Vwww9yXgGvCAOYxy+iVvbymPg+sfyAOsK1ofOgziQfmV3YBzOVaDz3QgbO1GlzbxXrbdSIA26LFOfrDoNm568vlCoAFCTY7FXU04Wn2/puzZQDLt1nqvP3NX0SB/Ko2AmAIgAEMATAEwACGABhCLBiigP6PM/73OP61PQrAUAAGMBSAoQAMYCgAQwEYwFAAhgIwgKEADAVgAEPJl/I/gDK3RyW/2gcAAAAASUVORK5CYII='
p25
sS'version'
p26
VV6.0\u02e3
p27
sS'uni'
p28
g13
sS'desc'
p29
g13
sS'browser'
p30
V\U0001f1f5\U0001f1f3
p31
sS'annotations'
p32
(lp33
Vflag
p34
aVisland
p35
aVother
p36
aVpitcairn
p37
asS'wind'
p38
g13
sS'andr'
p39
S'data:image/png;base64,iVBORw0KGgoAAAANSUhEUgAAAEgAAABICAMAAABiM0N1AAAABGdBTUEAALGPC/xhBQAAAAFzUkdCAK7OHOkAAAMAUExURUxpcaC162iDxX+Y1bXE8a3B8155vsPI7rDD9E5rs8DD64Sc2KO463SOzldzueJpd7TG8pyy6LHD8aW77qq+8W+Kyqy/8qm98eqSnaS57qm97qm98Y2l3qq/8bDD83qT0Juu45Go4ZWr4/fW2piu5kVjrWR/wImh3Iig267B8rO+2fGwuMrM3NnH0ei+yeaqtkhlrdTX5dva3+x/jdebqvCWoai55K274euzvdvEy92wttuOnG+JxdjQ1sexwwAkfQAifAAifc8UK88SKQEkewsuhQMmfxAziAQmev///wAjfgUpgAFuxzRzIRQ3jNAYL+qcpilhMC9sJttJWi5OnRM/V/CzuyVFkw84XxdGT9IeM/74+dYzRggubQYrcgsyZhU0cBk7jR4/kDhXpON2g9MjOD9dqBxLSQcrgt5ca2eJISRZOSpKl2JtTdQqP9LDII2hIIKaHktkpGN6sQspdydAae2krQIndvHx90t2J9lAU+jr83mSIA8udh45bW94R1hvqjhUmvng4/TKz0t9IOeKlpGCd/O+xU1dWMHI3x9TP/rm6fzw8uHl8MW5Ji9HZ0RVXd1UZLm0KZmozluFHuiCjp+KraijMDlOYMu/IMrR5OR9inZ9Rz9anvj6/EVgotLE1UFNdOjUGn2QvnVuZy9SR316cvPdFgFqwEVqNENhq6OyUXN3qCo+dGN7No+TPEpgS6+sJpuhJeO+yTdmMaay0kF1I5KTLBhAX4CHNcKku+zY3y0obNPb6oeIPba0HdZmeEJANwRYqAlosIp8cyZypA1zvRtlgICkXFlnU2+PNN7X5CdDVX6EQsWIn72/2JqXNytKWV2VfEOLluSptI+rS4ydxlB0aZOpNmxiW4mXwZ0eRX4rWLkZNl1BeRA2eFlulVBsPMx3jcNpgS6DpYt2n5OuVVaMhxZ4tomGVN3NG2qdccLNwZiviBFIZ+jm7UwfYMgVLmscUEREhpNUd4NLQlY5VURDhbpNZJ6ewat9nZeHfntyVVpTNxRUjWhWcsKC9i4AAADQdFJOUwCD79YOMPUDHPwHzXnj+P0VkCNlRug+UP5tXli9TCnen7Sp/pr+9sTIN/1QVj4fpP7s2tr3wOOufr/G+PmN5v////////////////////////////////////////////////////////////////////////////////////////////////////////////////7///////////////////////////////////////////////////////////////////////////////5EnUOiAAAIvUlEQVRYw+2YZVRb2RbHGzwlJHiBFim01L0debLuDbGbmwRIQoxABAiQ4O6uxbVAca87dZm6T2Xqo51549Ln782z9c69CZDSzhSG+fDeWrM/3ayb/LL3Pvu/zz5nzpxf7H/d5prPczb7GThmJE8LJ2/7WXNsCb5qiEG0mztLjr2XBQuGYH9Tj9mlx3EBkQFDEMS0mD8LjKUHwSaIiXEgOHzRT43N0tbZzpToj2MASG1t9WMLYmXuPM/NwcFh5YoVK1YtM/fwsLcCZu+xzNHBboHTDjVk4EAQx8T9h8JfveKN161tTCzI5N/c+jXFxWedp5ONp6mptbW1qaeTLzk8jDGJAS5FEixfhrFauWYDJXAsjBHNZMZ+H6HRlrBri6IZLBbL39+fxWJwINiIgoEkC2xfgnFdstwl3k97iwW+XnScookoZmcOgg8TBk01KsPJ+YXMuC0hSwYDA2jCPgnM7D3eGF9Ww65NYUz5NToFRSRN4Xh4mUiYcKFYQws52M1MPi4MCZSztyYzp3AQZSiC0A3uYLHFLnxOcJaOSxeD/4a7D4bQNPdSkjdmZ4vlPWOxVBimPgdSiqRn/3ISe6KHipR0CGbZmBtzVr7mWyRhcWBJXzYtIHDzcaGwgs2+1Rum9scybGRSadSNv55MRSBExhdEAdeYZAdjzvqcnNpTm5tTkvu0NL9OuU9FMZvNzjl16tTWzcsLjUEKKV+K7N6dh6pyS3kxChBbkNdkca9a38PGrScnM4JG0xb7lIjT0wMD09PF4oqSLeMu4UGGyqS7+/sRNK1DV1UVimLCneglq988mO5S5hIormaz5a1+NE12iCY4OACz4GCN5t1UAygvD8v27v6hkX46qmo6EJqBF/ekcN+gxIMfBMdHFNdUdIb4+dEw89MbeHr/JL7k9Pa9exQo9cOhC+Xl/VREFddRiagQTLh248W9iUIp27jxXkV1BSXeb5wwaX/4PQZC8/d3ZImo1LyGoQsj9fTUgri225WnVaixcN88/iQl+UGmT0S8wRG9R1ho+PMf8UJUtdVlgWVC0vY93X7o6NWEgY6EtqZ8FBOuowH0ejiTU3hdnI17gyE0QkoEyBkwl7LWCMqf8WzTC7piqjKkGUcP63S52+PqRr8aGKjDQPAOggHkFc5Mue4Sj2MCQkB0jcVyuby6uKantjYnJzNzsxov77R8WYyIXzV87OaXp/coG2437B09jeiFayhuwtrC663BgEMLFrqUgPUXVvew5WKt9t73vUXdyYWFLByEKGR8Po9/Y6T88b+PDKfmQ/V1DaheuMv0INdmnEMLEKYX17CBbENKmpdnyku0IW9tKWKOi54uiqkSCARR/SOPzx5LEojo6NEjaXoJE131ILd1ZRgnpKy4OjBwK5CtRpzCStnaU5MuFL69Sz0uNqlAwOOLpLsrzz7uytJlyaSH9qTioAnhrtqI5UdYIZdHNG5JORgP1PYEgsIGa9k+EcCpbg7uEqqI4fFkdEQxfHaofOjI/sP87fUZCqxYYZanXrirNgTTArQ+bHZ69tuSIiBbv9axaCrM6R7LlIsxp/xxp+jKKIEMUUTlHhn654V/NemqomRVh56CSpoQ7uoNmgDKia2ZPsKPk+GwvkYajXIL7BNUGMTHLu4ETklwEkoXbT924MxX++PKy8u/3AMSxuPpKqlYceuFu3pTCOXEg+aaCO0uDsy6hS1bXywWDgxJHuTIxY3ZHxi6Y0ZUblPCaGLchZGPLp6/LBKJZHsKQCsZF67ZptYTg8m1YuEWUDDRzWUg7wd79UsFRxduzjzR+Z6hJ6LInWNNOx8+LP98G5d7vlKaGtdWYCTcuWtODPo3V2s/7gZuMgfT33/3vV0SeLx1hPUWFv7JAEKu1o1+dmnbxZGdv+NyL3125Mbe0S46vivhwrX87RNGb45L4y4Oloqij0ADNGqwRrsHWt8xmvAQOPNO05VLXO7dhAMdAzdxUNhSXLiktYwxn8Z/6JUAUVEUerlR9w3UNRw9D0CJiXe53HOV+88UtONvovXCdSMmP2t9Kxl6lVGHD+xTHrrM5X6edA0Et43VniVC9K8W4zvuPJOxksZPGdRXgVDpIf5wFgDd3fnNzvtfbPPPiOGLQtFJ4Tq/9qzzkyL4lR5BdBkone+2cb/e+ezbxK+555R8XgwOghg2mHDN15VoP42mvhoEZMI//N157pVr33xb+uidc1UCvtKwoLhw7dd3fhI7DYewDfLOsaPnLl1puabjtdy/+KGMr3cI7EreIDbbX/39b8xpcSCkvWnff764X9qSpGtJusIKjRkH4cI1W/PB9PyB0LS2gYS9Fx+1HOg4ozuc2JARpTDUCi7cuV5B0wRBeVf3Jly9/KhUl5TL45XeyduXOjFy2YHStgufLgiipu1vr08EkCQeTyBNu5k3Md9gWwBpx7RBENLVpXrK4x1OKi3NUrbfVhlCC7LGmpsDcdociKqKS1MKklpyWxKvhRbUGdp2rKk7XtoWzOmT0Pw4lSwpMTc3aXvo6QSssVGZQXrOHGcTzvRBEFLQpRrWJZ7JldHz4+pBnjmRSw2brbkNYwYgtKGjQBGVlZilRFGs0TKIC8enNntTFjyT2Nri6BkiPjawYZ3PxG5i/LddooZnEls9tugKbDyCGZGmrpPjqNlCyUxAEBYRGJTBlhVr4r3MaPafQWlPlgEMM4IsFsx/fjp+obSpWKdmYoY37SlDMvY2Wh1pstBt6uGItNYYBMNMRlhQJJFsYWFBJi4Ojw1jgdOJfh/A+ByGOmitibWd44vnEAeyMUUdTrZZ4kVwnT/P3X2+A2mR9xJT7LxEXLwjMjJyMZHsa2PtTXC3etm5aKK08cCtF7mZ205Oz5ZmtvbYCc6VRCIQCCTX+Y7mVj90cHQ20XdamBHu5O1mb/mTz6mgtGGs1oOcvBxndStgtTQMpNGfvMB9lpcLliRfNSvIhmA1+5sFkrXnwnlzf4a7DksrD9tfbo7+f+y/T1wm7Jv/PAUAAAAASUVORK5CYII='
p40
sb.