ccopy_reg
_reconstructor
p0
(cemoji
Emoji
p1
c__builtin__
object
p2
Ntp3
Rp4
(dp5
S'emojipedia_url'
p6
Vhttp://emojipedia.org/flag-for-St.-Vincent-&-Grenadines/
p7
sS'index'
p8
V1112
p9
sS'code'
p10
VU+1F1FB U+1F1E8
p11
sS'apple'
p12
S''
p13
sS'twit'
p14
g13
sS'gmail'
p15
g13
sS'related_to'
p16
(lp17
sS'name'
p18
Vflag for St. Vincent & Grenadines
p19
sS'known_as'
p20
(lp21
sS'default'
p22
Vemoji
p23
sS'bw'
p24
S'data:image/png;base64,iVBORw0KGgoAAAANSUhEUgAAAGwAAABsCAYAAACPZlfNAAACMUlEQVR42u3dQUrDQBgG0B5AlG5cWG9SPYkuPIELlwo9ithT1GVX7lrxFIKieAAhEkEJ0rSZtjOT2PfBbFpSmHn87cwkaXqFdCo9QwBMgAkwYAJMgAETYAIMmAATYMAEmAADJq0Bm06nhdad9g3Wu3pI0kbjy+Lz6fBftdH9sOjdXiRpwIABAwYMGDBgwIABAwYMGDBgwIABAwYMGDBgwIABAwYMGDBgwIABAwYMGLA4YGUHchwLbINBH02G4QM8GQJLDXYwPvvtxDrQZSs/A1gisGonQga+Cr2tKgMWgBU68JscC2yLYE2q7G91AUsAtqwzMY8FtkZ7nQ+WdmbZjPFnZljXys8GtmWwJh2KcSywiGCLqmxVdQGLAFY3YWgy8E2PW3ddBmzN6lpUZU2ra5MqA7ag9RNUWF+F+Q0DZpbYHbC3gHXY8+y4eJkNGlfZm3VY3p2OZa/Z6WjBXmJ1wnA9Of19/WZysnLiYi8x8259yHvAMpwPq6uuJlXmfFgisH7NGeeQ37e+M855r+nYG5/XdnT/7tw1HW27aipknQUs83WJ5bprVWer6zLXJWYGi7m5C2zLA7ZoZljXqjNGYJnAQjsNzFciMGA7cPdKDixgwHYH7P3xqLajH/MjYG28oS91dQGLUGUxqwtYhCpzy2wH7nFOhQUMmH8RAAYMGDBgwIABAwYMGDBgwIDtGpjWoec4e/a4R9sLMAEGTIAJMGACTIABE2ACDJgAE2DApC35AgOnNXFOVw0iAAAAAElFTkSuQmCC'
p25
sS'version'
p26
VV6.0\u02e3
p27
sS'uni'
p28
g13
sS'desc'
p29
g13
sS'browser'
p30
V\U0001f1fb\U0001f1e8
p31
sS'annotations'
p32
(lp33
Vflag
p34
aVgrenadines
p35
aVother
p36
aVsaint
p37
aVvincent
p38
asS'wind'
p39
g13
sS'andr'
p40
S'data:image/png;base64,iVBORw0KGgoAAAANSUhEUgAAAEgAAABICAMAAABiM0N1AAAABGdBTUEAALGPC/xhBQAAAAFzUkdCAK7OHOkAAAMAUExURUxpcdOvDgGfYQx80NizD62QCgl70ECIbheQhQGfYQt80ASfYg2Ftw59zgSdYwKfYrGSCQ19z7SVCa6RC7aWCQaeYt+5DwKgYgl70Ad5zgd6zg190ASfYgWfYgKfYQGfYdWxD7OUCa+RCdq1D7CRCcSiDK6QCQOfYg99zwl6z8+rDQR2y62PCQKfYQV3zAx90AedYQZ4zQ59zgp70AR3zQGfYQl70Qx80Qh6zwt80A59zwGfYQKfYQKfYgOfYgOfYgOfYgOfYtGtDrKTCa6QCQZ4zcuoDQ2dXqmMDAOfYgOfYgKfYQOfYsGfCwZ4zQKfYrKTCgGfYQp70Ah6zwSfYsmmDAKfYsShC7CRCcelDAOgYpGKKgKfYcilDAx90LeYCryaCa2MCNy4EAOgYgKfYgKfYgt80Ax80AKfYgOfYgt80AOeYrGTCgp70At80AOfYgx90L6eC7iYCrubCsKhCwSgYV6fNiB+sJ6XLAKfYQt80V2lOn+XIUyFgLqaCrmnJC+DpQt80AByxgCeYPzRFv3RFv7SFQCeYf/SFABxyPvRFgN1yv3SFfrQFgFzyAGfYQByxwafXvjQFwSfX/DPGQ+hW/fNFfPPGPbQGMbHJTqqT/TLFAmgXerOG+DLHg13vQJ0yeTMHajBLom6N3W2PRykWPXPGf3RFQF0yBOiWgKeYLzEKCClVkWsS1KvSOC6EB5+stvKH+nCES6nUliwRjOpUJC7NSWmVWizQdXJIZu+Mr/FKF2xRCqnU9LJIufNHGKyQ83II9fKId3LHwZ0wieBq+vLIRV6t6O/MBijWTeHnxajWbfDKvDNH+3OGlGRjUuuScW9PG+ceaqzTwNzxPHIFHC1P4W5OKC/MJerXHegcj+Lms2/N7PDK9rELeXJJtPCMi+EpUmOk1qUh+DGKry5QqKwVYOkamWYgHy3O0GrTVSvR46oYuS9EJW8NMHFJ5e9Mz6rTYG4Oq3BLWu0QGSyQrO2SLO1SaG5LLDCLNW+KIynZE2uSaS/MMm+OfPMF9AAQ6MAAACCdFJOUwDz8VD5HcQBA/Z4MAYwD6FZHHlQgQr+vLTp4SMkHNX+92U8/ErUMIMNzO7+Ktj8PRLwEKH5+5xd1YwX3siUSlg+RfJrIvfpFQo4aOR6yvWzY+m42ynlitBF3GEVzeFVj6UG/m6skGNIl1R/Ql6qZlFFv5Orzum+4cG1betHI6rw03In7EdGAAAF40lEQVRYw+2YZ1QUVxTHBRZcsFADokYREQEhCgrYC0iwd4y9kGKK6ab3KTu67LLLsiwLsnSIsHRpNopgxBKiiajRGFOM0RhL1HRzTmZmZ2bnPtblHNcPyTneT3PmzP723Tf3/7/3Ta9eD+K/Hn37vDi9/33g9J83yX6x62CbOfHLnXEcHzrlIRs5g10ZDo6HLbNte2b4RLIc3HmaDRjpspFzcT6elt4rJX768iGRAgdf8/Ddn+09yzHU39Nt0bBFm908A/z9A0NDZzrSMTM0cMWw9a+/psJFYT/1bum/5+n1/vy1ITF+EonEz88uJuTRhLUrRzy2ZcuWESsTYiRX/0gTc/ChIy3mNnFd1IcfeNd06XRKOUGHXKlU6nS67aag7xKyXfsoQPKJ745xf9spPKnq+FYFSaBBMsFeaK9A0OLpKCYi2ikuF8NyvpAR1kJ+KhWAIufB3Hr3iwqnMRjW/rdVDiE7WgJA+EIgOOkmp1FqjI3P9aRVUHUdzG1SHzFn3dIkEwZTf/bpx9ZAZPpeuCLnOaK8HAbmchxs2+EL1jeJqE8BIJWrWbijxwscTF31lXWQbM8huKQhgpe4D0jCzKCc362DyOxMuElm4boswETR/qXCOkjfCFekmsIXgFOuGISdUVrfI3J3FiRN5oUbDEDq79NJ65uUUQZB9jM4kHiL6Nd29nwPuTWXU4hwe5tAURB04BvRbivNahOuNIWlcEk+Y0ygCaNAagd/MIO0fxo4QKfWTMqHVoLPnW0CfTQOgHIuCiByV+Zu7vL0NY1wtwmxksjHTblFh4O3duJHuei/65pYrL6x4Tq/JLKzAoLwJ0zFvclXDZZ0qZgH6QtLS28zOZF5v1AVeTxJcxNaCS/cfgMBaNt3n3CyJfN+ovCSDjnzyouorFO8L5DnECtxXsWCBo2HoG+/VohlxSbHFGHZUR5UvZOyJNyJTskgtarj3G7LCxihlzZqyXRWFuXVHAm1Ek64EQN2wNfGuS3ZeYV9quQ0YRJqSiFf9PXIJtk/w7agsVBs7T/LOQ8rZJ+nKrRc7zh0zgSSGY9A0NAnGeFKJ4DSpt22mOTLiH3stkZ/k3WzrA4OhFoJJ1wXUNq02/Kvjchn/jnrH31bWzmztKIMLun0X3FLwn3qEQg6fEHBG/RJOrmGpv17W41lFE5l8qVE3kCsxCRchwUQdEBwW3I/nUNF5620luZT9E9b9IKVFOEWhDvaF4IO/maWbf6R1AJNIZ62O/sOnlIvaIcp1e7CRUpb7Lak9mSR0VBOUTtb95SVGIWV6k8iVsIKFylt7MQZjdkPdxVmM3mU7m0uyKw2+0IHYiWscJHSpt1W1CSVBg3bydJuZOeLPKm1AQGF0cINGgArUn32vMgkSW0t++S+DI3cfNNwB+/ecdHSVgO3JQ3H2I0trTWIuoLmcipa3HTLRkobuC1fljhV1ybG30KsJHJe99LGci4qwNxwmRVIi1a0InI/YiVr+nQvbbHbmrr0MUYpp8X9jt45AAqbysjWIQ6CsEvFoEmSxjKcamgF+coLRJukGsJyeo0Oh4WkFtyWb2UFWVRFJwlHN7OVqCY/J7Xk2ozbypDuWptSIIe32oTRLXIhP7WhpU277VakT2eUGxF2egtvIVOE8X+i0w7MotuK6ibDgM4W19h3qQqbYx5Hg6BrM25L9Biy67QEVfaus0Xzcd+xiNnSs23PILppOvtMg9Mx6tr0bKtQEHImCEJh4SigIHRdie+8tQo9QKClve3wXzXeEj87OiSJV2u6tuuUShZJ4+kTiq6rJjFk/vp3x3Q7hrwABpLkpLg33tzgFUufsjzdhnm88urLI9aG2EmGJ3pXVlZ6D/eLSZi/wSPAcaOFY5HItdW5C4Kjovut3ig6wK2eGegfsDnWw8PLy8sj1m1FoOOsuxzThNJWJ/k+Hz1Ies/nVL60k3zHvhRky7nZPZgppORxSxyCbPw+4RK3Q53r+6y7zV8WIlyCly5x6HsfvnVI3QdFPPhy9P+JfwGaJ2eoCXa6hQAAAABJRU5ErkJggg=='
p41
sb.