ccopy_reg
_reconstructor
p0
(cemoji
Emoji
p1
c__builtin__
object
p2
Ntp3
Rp4
(dp5
S'emojipedia_url'
p6
Vhttp://emojipedia.org/flag-for-Turks-&-Caicos-Islands/
p7
sS'index'
p8
V1133
p9
sS'code'
p10
VU+1F1F9 U+1F1E8
p11
sS'apple'
p12
S''
p13
sS'twit'
p14
g13
sS'gmail'
p15
g13
sS'related_to'
p16
(lp17
sS'name'
p18
Vflag for Turks & Caicos Islands
p19
sS'known_as'
p20
(lp21
sS'default'
p22
Vemoji
p23
sS'bw'
p24
S'data:image/png;base64,iVBORw0KGgoAAAANSUhEUgAAAGwAAABsCAYAAACPZlfNAAAEWElEQVR42u3dW0gUURzH8SlvBZUUXoqoHhK6WvTQQ2BFEPVWVA+RkA9d6KlCEIpKFMuwpEiLiB6iIKiIIggqs3Ij6KGILhBWahdDMB8KfMhM3VNnZLddd3d2nDlndrf9/uHP7o67q5zP/M7uzM64hqBSqgyGADAKMAowwCjAKMAAowCjAAOMAowCDDAKMAowwKikAfP5fIJOnTbBXuYtiC1aVOm4AyWff2TrfH63z5usHQamA00nmBVW2oCphtMBFg8qLcDsDICTgVANZhfrvwcb7WDYHRBVYDr+tpQH0zEwKsDAsgBzMkivW7u1gL15123+/NW0xWkPFRdM1ZrtFIxUOQBzMngyFW7ASJUCMDdr/GjASJVCMKdpswNGqjSCOUlCPDBS5XDDWWfFA9OyVxswwJJ2X+L/0IABBhhggAEGGGCAAaYHzO/3K2u2wzzYDvO/LxNDT8a4bn/bTsCSFezkuini9uYZgCUa7Nbu+cmTMLsPeNvWYwtEBVjofeWefFny93v5Ih8A+3ozQ4gLy4e7scrsaDAP6rNEa91k0f8wQ7ScyEosmN30hK7hdj8Pc/LcXoLJ7ji21BKspXqCedlUOtNsef1s2UTvwTLmVEUdzF7f07DB7O/sMpevLrvo6ANM+bho1b5pR9jjfrV/MpfLv8srsI5rkQkLRbtZnSV6b2Wb169unB4Ek32vPsM7MLdrvpNjOpIpbQGwpqO5JlbXyWVRwWT33cuMSJhnU6KbVKk4CMd22tr0pi0AJrEe718UhhUK1nnjH07VinxRu6ogePtyRbZeMJVruNvjEhOdtgBY//kSyykxtD1LmKpUqT6Q1G7a+j58VJ620Dcdd45MCoJ9P/0mJlj134QdLMlLzHaY2zVZ5bH1iUib//OhsIGXYM17Nojm8lMxt7miJWzoy2G9YG5SpfNkCNtpe9+hBuxnRwSIRAtcNwxD/MgpFt9yFgaXNa6dKu5uGTEl9nfrA1O5xuo6P8xO2lTt/LXag1GemW+CSbjAspqV+ZGvYTp2/qpKlVcn9MVLmxdgFZkFQbAB3/Ayma69a8brBdP1OqD7lFmrtHkBtmFsbkTCQnvAN1YPWLofoOkErLQ2VxhX5orC9YXmZUN9Tuydv4B503ITIRaCRBrZMe+byEO1062Hns2yBjtXZA32Yh5giZ4Wl1Tmm0CtV4xhrAMzzMtt1RO1TYeA2U3YkD9qugafGGYbZ4osp8XfA4OAeY7WfSnqdFh3fJzYvis7NljP9cSfbsS0GP6Go3hrbkwwldMhYKNN2fPZlu8QI8BeqD82EjCHKbMDpjpdgKlCq5nlCRZgmnZX6cICTAOaTizAXHRVw6MINHl73/H7gKVC0nQnCzDFaEn9fzroFPvHKjRgNGCA0YDRgAFGA0YDBhgNGA0YYDRgNGCAMRiA0YDRgKUsGJ1C3+PMd4/z1fYUYBRggFGAUYABRgFGAQYYBRgFGGAUYBRggFHJUn8ALMyaw55+nq0AAAAASUVORK5CYII='
p25
sS'version'
p26
VV6.0\u02e3
p27
sS'uni'
p28
g13
sS'desc'
p29
g13
sS'browser'
p30
V\U0001f1f9\U0001f1e8
p31
sS'annotations'
p32
(lp33
Vcaicos
p34
aVflag
p35
aVisland
p36
aVother
p37
aVturks
p38
asS'wind'
p39
g13
sS'andr'
p40
S'data:image/png;base64,iVBORw0KGgoAAAANSUhEUgAAAEgAAABICAMAAABiM0N1AAAABGdBTUEAALGPC/xhBQAAAAFzUkdCAK7OHOkAAAMAUExURUxpcaG266m98Iae2nCKyn6X1E1qs8LF6GeCxMHC6kVjraa67l56vp+1663B8rvE7aq+8Zux6LDD81l1u5eu5bDC9Iyj3rLD8aq/8rvH7+NreVNwt3aPz6u/8uuTnrXF8aW67oKa17DD9JOq4q/C86y/7rW914+n4JmpzXqT0K3B8vKvt6i76mR+v/XR1dXX5t3b3+CMmfS2v5mv5s3M3euyusHB2c7N1ai55OWZp+6Dj6u74tbS1vCTn9rDyqun1N6utd6ep+l7idrQ1vGzvPCqtGF5tehxgAAkfQAjfM8UKwAjfc8SKQAifAsuhQMmfxAyh/7DAP///wUogAEkfhQ2iggrgho8j9AYLv/4+d1Yafq/BSpLmjlYpT9dqdtJW9IfNTBQnipJkx8/j9EbMjtWm+R7iNMkOSNEldQpPueCj2R7sSZEjhg6i+uapO/v9fri5dYwROfq8kxko/mwG+R1gtpDVfTJzkdhouHk7/jY3DNPkd6+TgyjJBijIvO/xdc1SPzw8vro6vGyuVxyqeiLluFicU9ijvvMLsF0ElVtqeGfB+6jrL7H3tXb6nR7q/n6/cjR5N1QYO6qs3+RvumzvKWy0ezEOJ+bgP/IDpS0D6S3EbWncMvBm/LFNfK0BM+HDeysBva5B/mjTPihNvG5wJyDpuK/y9k8T6SMrdbE09ZmeMigtfP1+ZagxImYwkNbj6uif2hxmIKHiyyhHiKhH6ars3l5lK5fFsZ9DcFwE+7UfOalCfu7FviWbfiTicrG2eudpzRSmcSInj9cn+GgrevX3xIidN+/BSkjbs+1XzmpHbO5DIIoVuO8QbgYM/jQStXFMlKrF1tnl2BAev7HEvnEI9mUC5sWMPmbUENfoPDb4st4jeufqcJrg3qMtNXS4eHa5J8lSEgdXmoZSUdDg5ZRdNO4WZSZndvCaeDGKejBB725CZWWkeuxH19fJ7ybD60OKTmOI8VTG8FaGIeLhd17D93Nk/rWWkdAgcBKY+CnsrekvtyZp72xyMcVLlvLGTYAAABIdFJOUwB7Wsnp1/wC8Ab+ZPSFMQxGkRD3oR6/Ik0W/PngPv4ba9AorCxR/rb+4zdRc/n77Nn9Kphbj/w/47fWr03EvaPK59+Mo3j86qn+qu0AAAc2SURBVFjD7Zh3UBtnGsYtVBASEsLIFCEExjTbcY2d5FKvJDO72qpVlwBRhASiiV5sg6mmm2biuPfee8255+JzehyXc9qV5C65u5Tr/b5VFzgMRp5M/sjzl2Zn9zfv9+p5vv3enTLle33XFSJMjpv6EDhTGexQljgqYE6MYE6xCueEhwTIiRJHkDAEq9mJgbVHFMnBYQiCiIigQDCJgpnZSpoDwRmPTnZtwTFxAjZH7cAAkHb6tHHuDYtPiosO4vP5i2bPnv34LGFSYtQ0oKhEoYgfHsniaVUuDgQpudHfVPfC2YufYkq5oRGx3McWSGRz581kSaXs6UBsKYsbm5GPQx4MKClTEHw/TPyixU9KZCO5uIZQ5RywWA01VF2eBidJNRBJ4koI86EAYfmRMWMx0xIiUxYUyNtTSHB73r8lVomdKh0mYa+g0UI0rLgxVuUzI/KHS3Ro9Z4cTHV3n6GgrYmqK9SMfdpPnEdGrS1JzM0nsNZVVrRs512oYp+p7H09NVBLIONzsPQZfoELFjF5OAZhV3aWodZVhRX7du1q0fen5CAYPD4JJqVCX07yE3MuFamVWM6ealRX0rvPZGqkqN67ucVqEifGJRGxfB/O0/PLy+v6etMKKy4YUNSin9topyiqvK+vb6A3pWv8krLFYR7Q4/P3Uw71l5dWoaihvr5m+1DPxZKenqGWxpodyvsBENeSfYMb/+yqIVmb7OL2ZorS2+SotbrMmmU263Rmszkry/rLV+6HIXG3uUM9wX1BUpAFVGCxNzValsvlKC25U+DXG6+qRlEwDK890epeW4ZnU3qmXbLgP1eHGpsb2wvkboJX//uVFwRjGIZo8ltPnH1zNY64gst0B/fZ/x4srDiwv76qwFWIsyIdkOP3rz0cFZmbXrvyxPqzG7ZsuV6EOS9quCIX6KkrhLK1r6XaUQ2NsJraq2yyEiBZm61K8omn25oP1//t7N87bhq7b3W/vsLdbp47uOIMovBjWQFKU3RlYHUGu16vb7Y39ZfXlZeWll4oxtymOdpx3mhUGM9tOrPpj0cJT3Bd5hbwWj+2ZdEcs0k21yJHTc39lL7FYPjXgdpLVyq6ukh33lQrNlRWbj1vPHf61Olz61zbG4KzZjlBj6R9ZDOjclRn6rE3URd16PKatJT9+pr25Xt35xGgvd7/q2hp5baXtxo3bzrVuXnpEswTXCcoaF4bqActa7M3l1z9aFUWnTZ14UB/U4+p+vLKYsQ3WevOb3v5p5Ubuzs7N3YcUXmC6zT30z+i+2PartdXDe4oBLE1v38QgoqG66h6CyjqitK7kyj/8h4AbTUab53ZeHO10hPcJAdo4Y/NqK69nqKGqi/nXNqzC5XbRjQwrMwb2a9vGfQrSvXOhso7ALRlc2e3cR3puk5EOIO78EmrTvKLgdJ6070KOJeOreSxYhgYmCwcoOy2XXt3FyHeJikq72z765+6OzcZPy2C/YMb80yZ5NrBtKYqw0oNTKaA2A6CTZK+Aco5UKrfPlj9rqfb5LqXFJVb/nz79OaNitfd3QbBdRwCwn5gu/ZhbV2LaTeoQ5PWJkeX77zrvAfTdPWWXrO85ukScfI9hUJx5qtTRoXixUOYf3BDnr82XJxmN9zLAysghq++cfu1I+6qESi3tqv1Nx4QsmQpAH35xddrAcjtbfBWcgQ3+CcH8dpyGVgYfTHvnVdfgX02WNjXSMB9q19SKNY0LPv5zxQbvCAtM97hSB4+Uj+4Q+tyqko1zo6oWvEiAB1vWLbGZ2nu4PI5FeW2vRXQRISQh28q1hw7DkryWhtCnMFN5o7UGHbgyMRIh5Yq1gLQshvXcz2tg/NT6eDGPVFn+SAPhiYG0hzt+P2xhoZlaw/j3qu4lA6ucF6N4aRmYgUBknr1Z283NLz91knfXnIS6IPcfMsHORMsyGHvw2+tvfH575Zgfm9cYO6YH/7zHwQ0cSG5f3jzZsdvcb99gS2krf0uDD2IEPLI+vVL/J4hIsDaQp7LxqAHIxG5Of5rAOYG1g7PeEAQaMroJzgM0G0GD4YCVDpT6LB2wBx2NG3t6FAiEAqiynZypsRxNQFwYGUmU+R8RwqleAAcnJPqPrVFscnJdhvsfNxwz/E/hqmFJ1tOJjvBe2Sbmpo/GRB4ZaVzxbN8zsch4uwHdiQCw3h6aGSQ/+l4jLURGJz+VYSSICDHmR8ZDYE02kxWKn/0AOFvbRgmcG12JiciNBQMN7yMdK2ank4g1xyhUuLF6TwuM1w0djjmx/q8NZTajAhppFiQEJQcDcYtRviMSDaYl2I5vEwgHieWK2XOYIim3W/mS3ZbGyw8O3T6o0HCmBCfAS4mip7gEhgMgYDBSAgSCePDvmFMA9ZGnP9mBmtGUNTkZ+ckKT3swspsllgUFsjcHM/UYjCsjk2NDgvw+wRjjhZPZwniH8IXCqY0NTnkIXzrCI5PfBifTL7Xt6T/AxU5FQ7TLWeqAAAAAElFTkSuQmCC'
p41
sb.