ccopy_reg
_reconstructor
p0
(cemoji
Emoji
p1
c__builtin__
object
p2
Ntp3
Rp4
(dp5
S'emojipedia_url'
p6
Vhttp://emojipedia.org/flag-for-Wallis-&-Futuna/
p7
sS'index'
p8
V1148
p9
sS'code'
p10
VU+1F1FC U+1F1EB
p11
sS'apple'
p12
S''
p13
sS'twit'
p14
g13
sS'gmail'
p15
g13
sS'related_to'
p16
(lp17
sS'name'
p18
Vflag for Wallis & Futuna
p19
sS'known_as'
p20
(lp21
sS'default'
p22
Vemoji
p23
sS'bw'
p24
S'data:image/png;base64,iVBORw0KGgoAAAANSUhEUgAAAGwAAABsCAYAAACPZlfNAAABV0lEQVR42u3dyw2CQBQFUHpxZQkWaj/TkDVA4sKtOG9+T85N7k4S5QR4gyRsu6TKZhcAE2ACDJgAE2DABJgAAybABBgwASbAgMkyYKWUXfP0DbbdnlWtzev+qGpk238oMGDAgAEDBgwYMGDAgAEDBgwYMGDAgAEDBgwYMGDAgAEDBgwYMGDAgAEDBiwPWDTAJhxhq2IBa4jmlLjANSz6W3p81w9YpvSAqUX7tl03sCtPXmd3/q9YwAac+s6iRT8HrOG1quWRCGzQcNFqQAE2cBpsMU0CGzy+R0d/YBPWW5F1GjBHGDDXMFMiMOswYO50uJfoXuIwMHfrL7A+m/p/GKBk/zhDSvZMB6hkT03BSvZcop0BTIEpMGAKTIEBU2AKDJgCU2DAFJgCA6bAFBgwBabAgOnCYJroPc7ePe7V9gJMgAETYAIMmAATYMAEmAADJsAEGDBZJQeROC/w8pZoTAAAAABJRU5ErkJggg=='
p25
sS'version'
p26
VV6.0\u02e3
p27
sS'uni'
p28
g13
sS'desc'
p29
g13
sS'browser'
p30
V\U0001f1fc\U0001f1eb
p31
sS'annotations'
p32
(lp33
Vflag
p34
aVfutuna
p35
aVother
p36
aVwallis
p37
asS'wind'
p38
g13
sS'andr'
p39
S'data:image/png;base64,iVBORw0KGgoAAAANSUhEUgAAAJAAAACQCAYAAADnRuK4AAAABmJLR0QA/wD/AP+gvaeTAAAarklEQVR42u1dB3hUZdYOti2/dfuu6/7P/hYUBEGklyRAAiGQhIRJmMnMvTOhCCikkV4MHRURWUFAFsSKUZAQepGOuIoIioKAiCIbyvRyWzLn/84dgkBmkpm5mRCS7zzPeQQchsy575zynvOdLyyMChUqVKhQoUKFChUqVKhQoUKFChUqVKhQoUKFCpXGl4txFXfZ1dP6O0Zmahzq4sFW1f7fUatQaVBswyr/IDJliyRDJledlg61KhnSqwW2pJxTvf5PaiUqXkVIefMxUZ/9Y7VhErhi1WDtMQjMnSPB2i0anIOTQWKfJUDKsnDahX2ptahcIw71vI6SIbtK0k0Ay1MDwPhYzzpq7hQBonosSPpMk2vkggeo1ajI4hr5Sq9qQ6ZR1I4H85ORXsFzBUTEI6EnEpj8N6jlqIS5NDMTSb7jEtVPE3BE1AueWnUNUWMoc11Qld9JLdhKBcLcbQTt1MLqtIwaQTUKTB37+QUeVMyNMLF2aaYlUku2QrHE7rmPZwrXIAi4OC0Y2/f2GzyytusFEvMMDWOtUeyaVyJF/eQzWGk5+g8PDDhXKQJPMky+CKoRt1KrtgIxJ3x0r8gULpQM6W7MdyxdBwYNHlRbn1g5jNmT5/Sj1m3JuU4E3Mbrpo+T9FkX0Os4Y1LAFGjI8qKmx/tAtX4i8LrCOdTKLRE4MSd+xemKRwns5JPoKfgRaT75nWCVT9SDwOZ+R63dgsSW8tIjHFM0Q9JnViFwhJTRYO0V06jAqVVHZDxIGMZSXn+MWv5m9TQkiXWmTO3KMfklxBscJDkOYKjihrNyuR0K4PzCTIfLeZCgzc9rbRzIrZeGzr3fkjT9KT51VrRLna0W2dJRLnVRFqdNL/yhbE7x2eJZJRwzqYTTZha6UvOzeWbWBFGfr+c0GamulLJEPnVuNDdyYt+L+B6a5Q//HD3hgW+7rf49RPS7LUQ/dpsTMcv+6NI8343TTNHxupznRTZ/K/E0VrnhSUCDfI5jQCKYnwgPKXCuVvRwpJzf1yKBciLmwN2cemY4r8udxLNFr4lM3naBzTktGTKkqzvN16sp5zk49eJ8qO81vlQiD1Jk00WRzTWJhqzTApNxTGALiGfI2smz6VsEJqdSYEvLRcPkFSI7aRmvS1/K6zKXcLKmLxWYSctEQ/Fbgq7gI57J2EpA+x9Bn3VaZLOu6Y5jAosPD5uetr5DAyICG1OdUSOwU19zPu7dP9/0gNm82v6nLR/tV4ujSheJ+pwj+MGuPFgkvsg31DUsFZzRKrBHxIGN5AbWblFg6Rwpu2O5OmnXCyzkofDrt3oeCvk9/rmpQ1+5D4RqebI/WMjfwxBh6zlYfoD28DiSEySAgxgU3981OEX+t5Av4RMYOYkVVESTR4E4cgyIqeMBe09eVfM0ed1o+fU8CUX4Hs5ByWAn72/rNQTM5N/Hn+tGAOZ6xcRcJiRTy9JuStBsW//tI+vW7ipat3b7p5WV62oqKyvBNSGHVAgsOAcmySAxB/jtNHWPBmH7bvm/zeEhNWslQBZTxwHPFFTcNKDZVA6/W1/5yaTKtdsOImBQd+/eDceOHQOT0Qi2rBIwPtojeKOQvyt+vAfMg1UUIH41V0eSMJbpPDfs3G+bNXA2VnzfcX3lzmWVletdCJpdu3bByZMnweVywdXiWrwCjI90D94o5O9yr78F9kkFyoDYStTaY7AcxpwjZ8Y1z9xmzdHu69fu3ICg2bBhAxw+fBgsFgv4EmHTdvLBeinyQAge19K3lAGxlajpcnOV1+UtbVbAWbf63GPrKj+uQOBs2rQJjh8/DoIgQEMiffk1mDpHKksO41KBr9wUeKe6lSom+qI+uwrK3LfccODsrYC71lfse2ndug3ixo0bZeBIkgT+Ss1FI5h6D1FGkvUZAgLJg0yk2qIAaVjtpBLFMGYbOb3XDQVP4WxTTEXF1jPodQ4dOgQ8z0MwYiaJnVKjiPs+BfOARAoQf8JYh74ebop5btYNAc6wsX/9LVvsXDhh5k+weetuuHTpEigR28R8ZQnwI92Ae+M9sI2bTBNpf5urSQYQ2Jxvmhw8KVl3PKIvNR4xTKmCHuq9cLbKDkrFOW8xGNsqSIDb9gBH4XRwvbKEJtJ+N1cTMIy5rUnvPNxk4NHl3TrIUHbRrCn6Cf7ebxXc8tAC2P9FlWIACeu3yiBQlEgPZ0BYt4WCw+/maoScB/G64uwmAo84Jm3KBSkh8zu484k3IOzBBdCG6NtrjisGkPTZITB1ilBmkIh4ELbtAlMjz9G0ZBVTxgDP5u4KPXgKpFwMWdFPH4bbH10sg6cWQDMWfq4YQNVnz4Gp52BlBnm8D4h7SSIdPoyCw9/marSKeKEM6dywd/8QMvBo86W8tKnnITLtINzy8GtXwFOrY4t2gNvtVoigajAPUtiKeLgb8OUVYE2bRBNpv5urAz3NVe1UJjSeJ18ch54nwvA5tHloYR3woA4dvQ54oVqxF7KNz1H24EkS7pzyAjhffFVZQt7amqva8aQay/uw8T1P3i2xhqkXqqPGfunV89RqxyErwe4QlVdiSh88AZ9VPRaEys3k1xQcfjdXY9UgGjLtpyNO/7rRwKPOhkcNZZescenH4ba2i32CB/X3XZaCycIrBhD/4VrFJbh5wHC5t2bCGRwKDv+O/PS83FzVzBzSKOBRqXr8Rl9qOqIp/BHu7Li8XvCgYin//Y82xQASPz0IRoXjnVjJyYx0P5pI+22z9r3lBQw8U7CoUQDEFlrnGqachwfCVzUIHhlARHd88rPySuzMWTD1GKw8kV6/Bayap2kiHUhzNV4Hkj7nLJ7BVwQeTfZtXTDv6ZX6iV/gqS3ll5Z/oxhAblEEs4Lju1cS6Zkvg2P6SzSRDqS5Sjy2HMZSZnVVBCB9iX0Lhq47HlviN4BQS17+FBpDrPpnFU4nkphOyng5n2pLPZDfuSM2V/F4ka5oWtDgSRx9398NU8+7OyV+HBB4UPU526G62q0YQI4ZcxV7DsugZBA2f6yY2W5tKoxIA5HNPxx8+MozxyNh+MceKwMGUBRTARyvnAvi3lst5zGKksKuUSDu2g+mPrEUGIE0V0n6UG1Id1uCXcyZmndGiwC658k3AwZQ26h3wGpXzgWJu/eDUemZqYe7yj0xS5KeJtKBhLHOkZebq2WTgmyWOgYhgP7c6/2AAXRXhyVw0cQpr8ROngZTd4VHfB/pDq5Xl4KjdDZNpANtrqrHkjBWsC048jBd6IgA+ueAtQEDCLmgb06alFdiTheYI+KUGYJ4HduYTODeXUUBFGhzdZAKJEOGeCZ23X0BAyhGBX9EALUbuiVwABHduOtM41RijcDh4JC9sGUnSaTDKTACOfLTLeryydWpmiB8kLuN/rkq4ank3QEDCLmgV9/8qlEA5JjyomLPYeoxCIQde5WPiDQHphjbMo/3aaLmak+QtBNAYIpWBscDlV76IVz/WcAAQp08a1+jAIhb8b4846yMUOwhV2KWYZqbEzRd+oN9XDbwH1R4zs014XElbqhG3nB/VHX0joABZCg17o8Z/1VQAFJnbAFJqlE+3rp9Nxg79FWYSHcD7vU3wZ43pdnnQfIyCBI6bLrx4Jw9Twa+22wBqKmR1fZsXtM2V3vFyGHMoX4+Kggm2rgqMftkUAAKV38ETk5SXokdO0EMGq3YA9kzCuWTGoq9WZCnP03tL28KIeHH1KGPDBLLYJUMFEduGbjmL5FHT6qPHAW3xQog1eXRpK++BdN1C8VxC4llcHLIKAq5uaqfCCJT8K/AG6nFl15NLT4bFID+Gf4mWGyCYgDVEGOaGqGbbonXkUR6h+IOf8APgDxgbsVKqD56DGq+/wFqTp/xeBSe2AZP6lYToPgzwUle4yidVTfRVY8B7s33Q/rFwBU3AptzJizQ5ipTdKEQK7GGZoC86R2PvgYXjFyj5EGWROUkoLlvLEmk9yjnlYI9KbttlzJP/NPP5H1i61AU/NsfgPTtdyE9PID7kzCMmZPmdw6MTCw06xFAd3daERQX9MXXFxsFQPbcRshd2vUGcf9/wByTcmNyGxJ6uJWrPR4nmAlNEuKu/xKZ+w6FmqoL4LY7yJeMDd0XgHhReQ0fW1IaWDsjn49GAP2lV3lQpfzqzd83CoBcy94J3kW3uyqRJq7enlF0wzrzmPvgeInb4QwsjF80ytOVdYi+sud/oTumzQlpgYAb4kgYOxgYgDKhQ7BsNAJoztJDjQIgOXepXQtHklHzwESwMRPAnl4IzlnzwPXachkcwvotIGzdBeKOvSB9/iWInx0C6dBXIH76BUhfHIHqH368vH+oW4jznr5gfyYPTN7yLVw/80wu1Bj9Z+pdS9+uA3p87+qvv722Wg1hrw8XgBIv5DbGL/P/rrGYGHvQbDTqxCm7lR/xwW/gf8+DsGGrPOaKuUD1d6fkUVV+zQZwLVgqD4zhUWbbuGywss+AVTtOPpmKDLQlnuhQtefXcVowRzXBwgXyILmlbwFfsRHM3shLHPjHqT9SYTbsfS6BuX9C3fJ6VPo1yXf1mZ9CegbO8uTl5mpq2YSA2GhDaRXfNXlPUABKmrARBDFILojkCjWXTCAe+Bxc/35bLsMRFKYe0Z5vGrrr5tpdRy8zIUd+wOLeA2D2sa7G3HMQSa53ejie+rzPdZ8TS2tc43e9vaxpE0NqE7ynQ2ByNwXGBT136XSwbHTXhHKwO/3ngtw2O0iHvwbn3IWyF5H3+9ykDVBzv6Hg5jynUyQSanB7rPfWRCS4Fi4jL5K8el4M1956e+BlWVeowzPevVptyOSNMSfuDqCdYdoXM+HroAD0jz4rwGSt/4gPGlkk+QpOH8qLMVtIxxyrLuR+roDh5//KpKEvD+HIKYOaC9dWrTiGUifhJ7kgv6rS+/zUwcNg7BC6Ppm1e7Tnsjp1SXIAbLT5w2DZaCzlfz7vveJAY7mWvwuWEfqWu3OnfM21XxZSfTnyp/rsZVnitTKng6EPy3NzZHzd15Aczm0ye7cpScwtMckhPbmKF/sKTPFb/rPRRZf+pQ2Sjfa27qXm7Dlwzn4FTL0Gt+wJQfLZnCSxv55lRo/LLXnTZ38PCU/+o/XgmDrHq32wHVMvZ5ZdElK7csNSQWSzTJ93gdv9PBd2qSBYNhpL+fcqT1z+dpjlxVFyXtMaRkvJZ7REJXlPkMmfIeVg9jWn/XhvrwAzh8eBu4HyHys/HOMNWXOVFATyZXWaGZH+tTMKbKzMRncOnI3uElcOx76pAq68wmsy2OJPeXbpDzU//OiztyUd+cYrQeiTGiBJckN9M6Q4TCG86Qebwdhc5dmCl/1bqpDLRwXKRv+63SJ47pX/gOXTw2DVjG21w+xYbguVmxrchWR7OrtBGyHH4/aDfHRzHFhTRoU2txvOgqDPOeVfP2zS7Y8jgP5voH9s9AOk8tqx8xQ4SWna1J3vZqekonTNmteg13C7OHCWvSBvS/W5aWTkGJlU9Ktv9tKCkFazeNmNfDOSam6HBgE0fPidv0cAtR+21Y/zYGvh3JcnwWaYSI/Q1D74JH29ROHVR7nlkyP12A35HyRWGzwOtffALz3AUHBc2EbB5ipTUujfbDSy0Sl76k2WM6fvAeuOA8pPUbS081VdB4L7orHhlkXV+YYviCHgQn4J+SG3xVZvWPTW/mjU5ipefaUvOOAnmWj8Plz/uVfw3NZ2ITy/6CA43v4QjPTUg9cl3nXaDl7aNs45rwZG6pEHKF3VTL2+yrM9nRXSKIDXcZEwVnMx7r2/+QEg815vbDSCZ/n7X4Pj5UXN5hK15pgHcQuWNnA/yFfev3wIgPa9fHojM6m2nMT2bmddsjbUU4oWUmHKGzx0ZWMb5oJKLB8kXcdG3972NXhj5RHP6hSa79R/sFH/rM88CIfBbKMzvNrQmsgCt+xdeXCsPoDiaAtOKlw9rCYdOSr32UJ6chVvZ2Tz1jXMBRWb5muLf77G8yB47AXTKXj8yYO6R4Pb4fDKBXHvrfLqvZFvEdZuunLE25pYf8vH9EQ/meHHnpscxUxmOekO6T7FmBSSTGe5qqI3/08Ds9Gm/Fo2us1DC+Df7xLwFM2k4PE3DyIPV0IP4YX081p0YPVGchwQf1lQgf0v57Q5vkv92tAyYLi8D0nuuxXPCGk5j/fOyleHp04f3tCaO6Z2U8fUeQfAPvNlCp6AtAfwK1Ze63x4Xh6C89XJl/Z/5r1V8UEFWKJH1G9/4tFwsZYzxOlF7WV1Apu/vH4PlC8NRABNfuEQ2Bcsp+AJIg9yZBZfQygKG7d5P6KMr80pq3f4HqcyZa7Nj+55yE+uxmlxn+IFUI241femjmdub5/z0ik4teRtWm0FW7X0T7gSkqp/POvzdIi5dwxUnzrtV8sCO/OmrgNv7FrgPrGXL6ub29cngDIz7//d1qXlHtdJwaBowMwtCGDPK/PuxUnJjlVXQBfTfP0tOIpmgKnnoBsSGTDZx8vqeKboxXrDmH18IecclEzBoGAYS1i9DnjcnO+r7ZHIBHzkp5Y4lL45DrbR6SGdSPTZXCUVosBOPl4vgER99imMdxQMyvggc3SS92/yUwPlRQqKFnK5XCCs2+xziD9kR34i40HCMJa0/FHfAGJz9+C1iBQMoQlv4s7g1+G4JQlqfq4C7p0PwWp4Fowd+zYtz9Up3FPO6wpyfQJIYPPKcWcefeAhGH197nn/FixcAUw1uK02kA4flbd6WHFY/4l+N/RzCCmjcZ/iXp8A4nUFr2DNTx96I5Nxiey1Q/IESG5SwrtFCdy8ILc68EStsOcAqbpWgqPsBbAkj/K0Kdo1n8/hJAVWtSG92j589Z+8eyBmcp48RNSE27FaQ2Jt1T8jX21lz58KdjxdO6lAPl1rSdB5xoCRK2rf/KkTy1MDLl9WN8XgPQfSFejkFR+dI+mDp+r1yyCmjgOByVvjFUAOTdlABBAeLqMGo+q1uTpkJO5TdPyk2v+bujyQan47mXHsM5Qai2q9+xTtyXP61QHQmT577pOXLYZ4VJLqTdyuubzBw6HOUPvggjJdlI2m6rOi7Bp1+brMsiE+ADT5JGWjqfos5aNGICNdc2HI+r/4aGfk7uZHUDaaqvc9ivJsEFO0vj42+n1cMkQNRrXO+K1qFAlfmU6jenZ732w0UziPstFUvYEHb/URNK/G19uRd2kpG03VO3hcmvmJDZ7OEFILtZSNpiqDh+Q8YspoErYyeKdmUbxfJ1QdqVMGUDaaqrlThLxws9qQ5XCmFsb4va3MnrLgMZmN7kvZ6FZLFnYZIN8hVq3PNnHqxX0C2th6OuLQvR42ejg1ZqtsVQwGiX2WaO5P9pRXHg/qEjpRn+XEda/UoK1LHZEJ8koXkZ38hUu14v6g75Mnb3CCstGta8saNzTVM7LK5K2+oDp6Z5gSEfV5u/gRadS4rSFZJtW24Km0ajhmWllZGNwSplQEJn8lbmWgBm7ZaieFkpzv6DONTu3s2LDGEp4tellinqUnVFvwQixMUTBkiUzePk61+B9hjSkuXU4uZaNbaJXVe4hcokuGTJHTTinZEbHjtrDGFq6WjX6SstEtiRjkEhiP19Hnfukc+VLnsFCJXT2tv8xG9xhEjd8CelnOqCSS60xEr+PkdMUFfl9hEKzYkhY/Stnom/8EhSMinoSr8XiWyy2wReXmxFf/N6wp5FSXU/dQNvrm5XQQOKJmnOf2QTZ/ry35hd5hTS2iPttB2eibKMd5ItwTqnQTPHkOm/+JU/PCkLAbJQJlo5u/t8E1dz0HA4/JsX6SvNMZx00dI2cMCLvRIurzd1I2unmCBosbV6z6ireR9NnnRV3xnAtJix4Oay4isIXvNUc2Gg1o6Rwpf/Mw1jsHqcA1VANcvA74JL3n7nOiYvKoK7/GP0dviq/D12PTEA/I4Vlv0w1Y1hRoMowLv3E/D5+gk5ljGTSGLLvAFKx0qmcmHG1/9I6w5ia8Ln8u/rA3ko2Wv23douT7zBEAuHoGu8VowFqVDOmSpM/9r8BkfiOyhftFdtI2gcnYxGszN/BMxmae/F7SF+4T2Kyjkj7vnGTIkK7++/J7MM+AmDIGeAJC3IuM/569T6z8byN/YmoiG2ACjLM42GLAs3m4FQx/Nvln9PA3p0WmYJFTOzPup57wm7DmLLw2N+dGsNHyt21gIghJBvnSs8sPmZShpWck/bsfcbofpnOagTqb+q89Lw295/6ysPiAmn8QtrzNhSHFf7GqundzpY4d4WIgR2T2LRDYZRsEduZRUT/ZJl0HMAQthgtx5FjABVyyNyMhRPZmpFK1E0+IDx29GnpGKyoJMzjVKSv+mvwZ/j97v2Hy6x0k4XWRIgXfS1Cl1ZbbV30xMgVRn3NQZPIWcaml7PmE+Q+G3UzCaXNTm4qNxlCCxqwtPSXDJLfIvnCIZw/PEZiS+KrhM//UlJ/9dMSie01Jizs6U9+I4ZguaRxjLOF1u14T2A/KRXbBLoGZdkxkC85782Z+K/mMxCvaRX3WcZHN+Vhg85ZxuoJiQVuSbFK/2LG8fbs7wm5msWtKI0PJRuPANoYK/FZ7XHQmz7N56zhd6aiLcWv+drPY6Vhv9q5LQxfeb0tp+4gl4UgXW3JFb05XHi7pP4jg2DcGcIZl/SXDxHCbOr2PNbGkK6955+GLUbl/2/DQg78Ka8liU81rGwo2Gr0N3gos5zKGdOJpcvZyuiljLLHv3BdGpeXIie4n7pbZ6AGNw0ZjQopJoSdEZdtEpuRfRtWidtTSLVgkNtuulI22PDXwauBUcczUfHPC8nupdVuBiGz28WDZaKTWa0MV3rPg0pZNPjds8W+pVVsTgPR525GIC7gL3D/BQ3gZsjmeKZ5tUpXfQ63ZCkVgCmfjHQlYMfk9oK1K80z3swUb+ZQ3HqRWbMViTFrSXkrLqHH6uHXmmgHt8DjPgLYh2+jQzmCo9ajIwjOl8+urxuQzRbHqy6OS+duNia//nVqNyhWBsXC7wBSvksNSkkGm4rHdYCXVFTYlPQfw092crmxWuQpupRajUkfwsBmvnTJe1E/+8TpK3i2wOQcdmjmDqJWoNOyNyty3ODQzOtlT8lVOTWm85WZr8FGhQoUKFSpUqFChQoUKFSpUqFChQoUKFSpUqFBpLfL/Gw1IGeW31UEAAAAASUVORK5CYII='
p40
sb.