ccopy_reg
_reconstructor
p0
(cemoji
Emoji
p1
c__builtin__
object
p2
Ntp3
Rp4
(dp5
S'emojipedia_url'
p6
Vhttp://emojipedia.org/atom-symbol/
p7
sS'index'
p8
V1176
p9
sS'code'
p10
VU+269B
p11
sS'apple'
p12
S''
p13
sS'twit'
p14
g13
sS'gmail'
p15
g13
sS'related_to'
p16
(lp17
sS'name'
p18
Vatom symbol
p19
sS'known_as'
p20
(lp21
sS'default'
p22
Vtext
p23
sS'bw'
p24
S'data:image/png;base64,iVBORw0KGgoAAAANSUhEUgAAAJAAAACQCAYAAADnRuK4AAANoklEQVR42u2dL/QNWxTHf0EQBEEQBEEQBEEQBEEQBEEQBEEQBEEQrCUIgiAIgiAIgiAIgiAIgiAIgiAIgiAIgjBvfe575619t33mnJk5M3PuzP6uNev5/d5v5t4553v2/7PPXuNwDMCeD4HDCeRwAjmcQA4nkMPhBHI4gRxOIIcTyOFwAjmcQA4nkMMJ5HA4gRxOIIcTyOEEcjicQA4n0Bj4/ft38+HDh+bt27fNx48fmz9//vigOIHS+Pr1a3P16tVm3759zd7e3v/XwYMHm5s3bza/fv3yQXIC2Xjx4kVz4MCBLeLo69ChQ827d+98sJxA23jw4EErceS1f//+jWpzOIE2QKJolXX48OHmzp07zdOnT5sbN278JZlQaV++fHH2rJ1A2DRHjhzZIseZM2f+snWwjfTfnTx50o3rtRMIw1iS4sSJE82PHz/Mv8Ub05LoyZMnTqC1vvinT5829kwgA+RIqaXnz59vEYh7vn//7gRaI3DXJRlu376ddR8qTt537949J9Da8O3bty3DGff858+fWfe+f/9+614M7jXHh1ZJoFu3bm1Jkfv373e6/+LFi1v3P3782Am0FuA5SY8KaYJE6oKXL1/+5bk5gVaC169fb03+lStXej3n2LFjg0joBNpRXLt2bYtASJMSapBothNoBcBglsYzmfe+YQBJoNOnTzuBlg5yWHLSkUZDQOBRPi8WhHQCLdT7evXq1aDnETuSz3v27JkTaMlAzcisel/1FUBMSBKI4KQTaKEgUCgDgCVsFggo0yF4Zk6glbjvlGuUwLlz57aeu7bc2GoIpO2fUkVhRLHXbAethkAyCYoqy819pfDmzZstAkFUJ9BEoHyCPNKlS5c29gOJSTkZpBxwlc+fP7/xeB4+fLgxXPsYvzL+QzFYKZBIlbbVhQsXej2DykiCkdQo8b7Hjx83x4PfY6xTLVlD9HsWAlHhx0Dn1iHrizoc7qeUAkKlKgOxS+T9lKmWxKlTp7bKXVPfhwWATYa0YoFIQ7zLBXGvX79eTJruBIFYaX0HrG23BAPJzgqrtILVOmYloU6PEKXWIMj46NGjDfFTuz+6XkePHp3NeJ+UQIhcqUrkqkVssyLv3r27ufCSmBgGHJWjC9/bdk2QICVIGFSdDvghtUoC1Wrl1yAzVYy8Q+6i4e9Q55SM8P6MQxgT1NvZs2dNAiIF56jRnpRADILW6XgtOS/OZHz+/HkzIZcvX96sutRkQEzIowOIpQeaXaw6RcKVQxreAxsQbw7pnFOcxsKAtPr5QyPr1RMISSL199CtMdzPQCK9clc4RugYQcqu9hvqDFtwCFh88tmo8UUTSE4yAbiSwMbAo0PEpyaRCSy1wxR1JSVc7OJ9sb1KGrxIUqTsWGNaHYGkHTNm3oiVjUssJZ514QHlqlCtTpEgKTUKsZCQYxq48juweBZNIFnFN9Vq0VtxrIvvBSFSREJ6YNTKVR+7ptj+zPeVBnWfGNROEUjmjUpkw3OAYaltoJhHF4ikDVkkSIo4WhphWI8NXd+Ek7JoAml3l/jM2MDukJ8Zor54cjHDG++Q74bEYVJixGH1E5TEmNdEJVA4NvTetik+c1YCMdBy9bPix45dyBgQn60lCwTR+97l38ckFYtBSipd4ookm3IseYfFx4EAK18ONBMxJmTKhEGOxVUwplPeFCoYr8uaKMg0pUutx7Hr3radJRDRaGn4EZkes5ZYkoJobcwYRdVZUXKt2kiXxCDvJzg4FnRLmi47a3eeQFqthI15Y4lf6flZbi7GrkyG6rSC9Xu+L1Hxts8aa7Mhi01n6ceW4tURyOrLk9vcoCuktJObCLF/UDOWncMEodL4nsSTLCOa+/DMpCcpg5hjRLxZZLoCkljXFN5sVQQCFGLpyWtTD33AwFpF70SsLVKgClBlekJC/MciG1KH760nl2eVhu5nhISkb9GcmLWgTCdXGZCSTSyxt+TzsUt0e5YgTagESNkRPM/q4spFPk5LhzFDIFOFQaomEGBSdQbdsi/6gJRGKmJM2UTXz2uzm+RVyq4jmq5JW7oobmcJhJ2hpUIpEiHN2tIXQ6UddlJbdHpotj1GHkhfS0+iKorq8SykBxNINCQdgJFslc2iJlFXpSaAz0GKWmqN3w9xr1FR+rlWE9DVEwgQWdVxGEjUp3qQgdeubnDjx2rPS17Kys6nYkdt0k2TB4+rtv33VW3rwaPQJGIQcyvtMHK1TVVapaSIG/vsLkclEFXeBfJURyBATkmvZAYz1UaOVZ6KJI9NIF0haFVDpiQqsSmrbqnWzh9VbixkohlsPZDEYrRnw6omQGhlynUvwxyviIlCWoRAJ7YZEiFHeujyClx+Hc1mMfA8/V2IPenvG/JvNTfxrHZnKsan5SozKWHwY3YHMRlsHV3KkSP9YlIsRwpoAvEzjoC1GMjRBU8z9q4Qas4o804TKAwsZLAIQhBS2wn8LMso2HjYhUDWRHdp32IRCEB4UjXWMVJ8X+tzkYK1k6d6AgXR3mYYy7iOti90pDsVHMzZUdE2qTECBVAKklMOO1dpxiIJJKVJrMALUW/FW7oQyEoVWFdbbEoTyKoQRLXGiv2xl+bY27UKAjGwsdUb65DahUC6TUvsaoteawJZZMAg1luhpRS1tkU7gQYC6ZDa2kyQULvpXQik29XFJMQQFRYzqLVdRKWCE6gAMD6t1crvrK292Ch9jWg+S6dT9EUZaV8j2ioHIVpO/MraDMn77cJ5ZNUSiJVueWBy6wpSI+bGI41qceN1O+Dgxof+Pryrlbcj4147iaokEAaxXpWsXqstC5NqBeCQRpqAOW4xz8MeImkJOQnkWXvFLOhuZXwvq5NGLJmrC8ZCFWXNJKqOQKxK7aUwCSnvBEM61WBh7lQG0i11tIKVB4PEtcaEqiIQEzykrINkbNvWnDmTqaio3M+3MvG1kmivZvKQj+pazhEMVksaoQ7G6isYIy/SE+nYVQ1RSKbfAbU+Zzu7aglkFZRBniG1O+SZrICd9tSGAlsGY9cKM0CoIe+ATaVtKC8oM7wtXdIKeUqom7aSVsg1tNUdqia2LbqUyiSarUlEaqcWw7q6onpiI6WqBnlOTlF918/LLaovZbNgeGt1hse2egLpSDErreS2Hr0rA0PWisl02dZDENNSV0hRLUlLgoI6/bmr3tZjbSwsnUjUDQ9CLRGushWfwc1mUmIbCy3DHInJ5E6xsZDv4BsL/5tYHUEeqzmSnHS5tRnpRGoitrUZLyi1tRk1IqWWDH6OdXKPDo5iy81pDy2+uYIkqtVWr2RzBZkoHbO5gk63rKq5AgMvJ4bBGLMJpYzNtJ0RhkpNZcohWpvnJrcSTdneBXW8ik71lgiessEU0igWSsAlT2XjURexBlO6kcPUDaZKnX9WNYHmaHEnzwlD8mlbjKBiWywnVvhFGYY0tpGsUx4DvsoWd7rqbwo3FA9Jx2YwoLHDYoeehOaZeIWxbcvB2EaCYkjrExGnKE3VTTZTidqdJ5D0UqZq84uk0EnJGHEgBEVo2p5gtUOomFHN83QebI42v2M16aqGQFJVTNVoXNfoxGwbVFmK0CEelHPQy1h78CV0o3Hsy0UTaKqjDiACkgdXOqZ++D0GNqqmq+0QmnK2lY7wfAxdeezU2GGKxR91MMVhKxCzbY98OOWvVG0Qqiq1bw0pwWeickqSSR+2sngJJAN2TOTQLSzcj+rpctxTzJUfAn2kZs5xT5B9aG2Srvmeo2vZrF4YkgIC5HSeYLBZwbjHpCRyXG8mCzWiE6ilVYo2Zsnw555SSEgACcZ7EaTMCQgyFlZubvFHHTA4VuOn0PqEyUYFcUES1ByTn7Md2DpmKeSpdLH62EdekkcLRjfE4D1yj+wMCwtpzX2MQxgTiBkLdo6ZDqoqEm01kRp6sRJRY0STLWmmY0GlD93V8ZjUobulDx2es/nULMlURLC156vLcddIJsQ4Xk6qxFPXBZW2FWTpbE58i8nGS0Qy8h5dpJMeB+qT5mw+NWtBGbESViU2AKJZqzfsHAYYshEkQ1WgfvrUBMt4SVtStY8nJAnQxxPifYJ9B6lQXah0PR78zO+ReETxx9ogsDMEmhL65OZSuxu0AU3ubU1YDYG0B1iqgYHef48d5gRaIHSys1QFpLblxt686ASaCRi20vuJnR3W1XaRz4wdaOcEWqAdlGpXlwPdFm/M/J4TqEI7aGj9jN4lsTb7Z3UEIoipG1WViv9w1doM3AlUEDIKzr/7qjF9SnPJ2JITqGLolnl91ZistZ6iBtoJVKk7LzcbdoFOaq7NfV8tgVBZshSENETXlABSy9XXSgkEdFOHrp3hdU/G1ElCTqCFAXUjE6AY07m5MZK5+t6aT9NxAo0EfS5X7pYY3cKFXNiasVoC6T36RKZTW3H0HrM596Q7gSqAjiS3VfZZlZRrtn2cQM2/yVDdkcNqYonNpIv48bx24SgCJ9AEqkwX7VP5h3Si6o/yV70Vmv9fQzWgE6gSUFyWW+g+9Dx7J9BCETu4RdtIu3aelxNoQoTmCdhFIdbDfyEOBvMunGHqBKqITBjPaw4SOoEcTiCHE8jhBHI4nEAOJ5DDCeRwAjkcTiCHE8jhBHI4gRxOIIfDCeRwAjmcQA4nkMPhBHI4gRxOIIcTyOFwAjmcQI4q8Q/ErWtlRr0AQgAAAABJRU5ErkJggg=='
p25
sS'version'
p26
VV4.1\u02e3
p27
sS'uni'
p28
g13
sS'desc'
p29
g13
sS'browser'
p30
V\u269b
p31
sS'annotations'
p32
(lp33
Vatheist
p34
aVatom
p35
aVsymbol
p36
asS'wind'
p37
g13
sS'andr'
p38
g13
sb.