ccopy_reg
_reconstructor
p0
(cemoji
Emoji
p1
c__builtin__
object
p2
Ntp3
Rp4
(dp5
S'emojipedia_url'
p6
Vhttp://emojipedia.org/star-of-david/
p7
sS'index'
p8
V1178
p9
sS'code'
p10
VU+2721
p11
sS'apple'
p12
S''
p13
sS'twit'
p14
g13
sS'gmail'
p15
g13
sS'related_to'
p16
(lp17
sS'name'
p18
Vstar of david
p19
sS'known_as'
p20
(lp21
sS'default'
p22
Vtext
p23
sS'bw'
p24
S'data:image/png;base64,iVBORw0KGgoAAAANSUhEUgAAAGkAAABzCAIAAAAUrbuQAAAKvmlDQ1BJQ0MgUHJvZmlsZQAASA2tlndUU0kbxufe9EYLIJ3QO9Kr9BpA6VVUQhJIKCEEAohdWVzBtaAiAsqCLl2wUWQtiCgWFgVF7BtkUVHWxYINle8GlrjnO9/+9805M/c3z7zz3pm5d855ACD3Mvj8NFgGgHRetiDMz5MWExtHwz0GJCAFiAAD5BjMLL5HSEgQ+Nfy/g6AxIO3zMS5/jXsfw/IsthZTACgEGQ4kZXFTEf4FFKbmXxBNgCoBETXyc3mi7kAYXkBskCEy8ScPM/NYk6c5+65mIgwLyTmNgB4MoMhSAaAJEJ0Wg4zGclDRhBY8FhcHsIWCLsyOQwWwnyETdPTM8RcibBh4j/yJP+DGYxESU4GI1nC83tBZiIv9uZm8dMYq+c6/88mPU2InNdc0UJaMkfgH4Y8kS8IVaZmBEqYl7gseEHnIjtaYI7QP3KBmVleyFnOz2UxvAMXWJga6bHADAFCf8dws+kRCyzICJPk56UtC1rQOWy6hNlZPuELehLXl77A+ZyI6AXO4UYtW+Cs1HDJGvI5XhJdIAyTrDlJ4CvZY3oWMvPvtTEZ39+VzYnwX9BZbG+fBWbzIiXr4Wd7SvLw0+b+77kzZKf5SfSsnHDJ3GxBhERPYQSELOTkZ4dIzgT4gxBAA3EgDFgDC5Cbzc5D/jcAvDL4qwXcZE42zQO5IWwancc0N6VZWVjaACC+b+IYAN7enbtHkCL+u3ZgPQA+Xci3/f275oicY7MJ8svnfNd0pQGQUgXgzF2mUJAznw8tfmCQWywN5IEy0AA6wBCYAStgB5yBO/ABASAYRIBYsBIwAQekAwHIBWvBJlAIisEusA+UgypwGNSDo+AE6ABnwAVwGVwHN8EweABEYBy8BFPgPZiBIAgHUSAqpAxpQnqQCWQFOUCukA8UBIVBsVAClAzxICG0FtoCFUMlUDlUDTVAx6HT0AXoKjQI3YNGoQnoDfQZRsFkWB5Wh/XhxbAD7AEHwhHwCjgZzoTz4QJ4B1wG18DNcDt8Ab4OD8Mi+CU8jQIoEkoRpYUyQzmgvFDBqDhUEkqAWo8qQpWialAtqC5UH+oWSoSaRH1CY9FUNA1thnZG+6Mj0Ux0Jno9eju6HF2Pbkf3om+hR9FT6G8YCkYNY4JxwtAxMZhkTC6mEFOKqcW0YS5hhjHjmPdYLFYRa4C1x/pjY7Ep2DXY7diD2FZsN3YQO4adxuFwyjgTnAsuGMfAZeMKcQdwzbjzuCHcOO4jnoTXxFvhffFxeB5+M74U34g/hx/CP8PPEGQIegQnQjCBRVhN2Ek4Qugi3CCME2aIskQDogsxgphC3EQsI7YQLxEfEt+SSCRtkiMplMQlbSSVkY6RrpBGSZ/IcmRjshc5niwk7yDXkbvJ98hvKRSKPsWdEkfJpuygNFAuUh5TPkpRpcyl6FIsqQ1SFVLtUkNSr6QJ0nrSHtIrpfOlS6VPSt+QnpQhyOjLeMkwZNbLVMiclhmRmZalylrKBsumy26XbZS9KvtcDienL+cjx5IrkDssd1FujIqi6lC9qEzqFuoR6iXquDxW3kCeLp8iXyx/VH5AfkpBTsFGIUohT6FC4ayCSBGlqK9IV0xT3Kl4QvGO4udF6os8FrEXbVvUsmho0QclVSV3JbZSkVKr0rDSZ2Waso9yqvJu5Q7lRypoFWOVUJVclUMql1QmVeVVnVWZqkWqJ1Tvq8FqxmphamvUDqv1q02ra6j7qfPVD6hfVJ/UUNRw10jR2KtxTmNCk6rpqsnV3Kt5XvMFTYHmQUujldF6aVNaalr+WkKtaq0BrRltA+1I7c3ardqPdIg6DjpJOnt1enSmdDV1l+qu1W3Sva9H0HPQ4+jt1+vT+6BvoB+tv1W/Q/+5gZIB3SDfoMngoSHF0M0w07DG8LYR1sjBKNXooNFNY9jY1phjXGF8wwQ2sTPhmhw0GTTFmDqa8kxrTEfMyGYeZjlmTWaj5ormQeabzTvMXy3WXRy3ePfivsXfLGwt0iyOWDywlLMMsNxs2WX5xsrYimlVYXXbmmLta73ButP6tY2JDdvmkM1dW6rtUtuttj22X+3s7QR2LXYT9rr2CfaV9iMO8g4hDtsdrjhiHD0dNziecfzkZOeU7XTC6S9nM+dU50bn50sMlrCXHFky5qLtwnCpdhG50lwTXH92FblpuTHcatyeuOu4s9xr3Z95GHmkeDR7vPK08BR4tnl+8HLyWufV7Y3y9vMu8h7wkfOJ9Cn3eeyr7Zvs2+Q75Wfrt8av2x/jH+i/23+Erk5n0hvoUwH2AesCegPJgeGB5YFPgoyDBEFdS+GlAUv3LH24TG8Zb1lHMAimB+8JfhRiEJIZ8msoNjQktCL0aZhl2NqwvnBq+KrwxvD3EZ4ROyMeRBpGCiN7oqSj4qMaoj5Ee0eXRItiFsesi7keqxLLje2Mw8VFxdXGTS/3Wb5v+Xi8bXxh/J0VBivyVlxdqbIybeXZVdKrGKtOJmASohMaE74wghk1jOlEemJl4hTTi7mf+ZLlztrLmmC7sEvYz5JckkqSnie7JO9JnuC4cUo5k1wvbjn3dYp/SlXKh9Tg1LrU2bTotNZ0fHpC+mmeHC+V15uhkZGXMcg34RfyRZlOmfsypwSBgtosKGtFVme2PGJs+oWGwh+EozmuORU5H3Ojck/myebx8vpXG6/etvpZvm/+L2vQa5hretZqrd20dnSdx7rq9dD6xPU9G3Q2FGwY3+i3sX4TcVPqpt82W2wu2fxuS/SWrgL1go0FYz/4/dBUKFUoKBzZ6ry16kf0j9wfB7ZZbzuw7VsRq+hasUVxafGX7czt136y/Knsp9kdSTsGdtrtPLQLu4u3685ut931JbIl+SVje5buad9L21u0992+VfuultqUVu0n7hfuF5UFlXUe0D2w68CXck75cIVnRWulWuW2yg8HWQeHDrkfaqlSryqu+vwz9+e71X7V7TX6NaWHsYdzDj89EnWk7xeHXxpqVWqLa7/W8epE9WH1vQ32DQ2Nao07m+AmYdNEc3zzzaPeRztbzFqqWxVbi4+BY8JjL44nHL9zIvBEz0mHky2n9E5VtlHbitqh9tXtUx2cDlFnbOfg6YDTPV3OXW2/mv9ad0brTMVZhbM7zxHPFZybPZ9/frqb3z15IfnCWM+qngcXYy7e7g3tHbgUeOnKZd/LF/s8+s5fcbly5qrT1dPXHK51XLe73t5v29/2m+1vbQN2A+037G903nS82TW4ZPDckNvQhVvety7fpt++PrxsePBO5J27I/Ejorusu8/vpd17fT/n/syDjQ8xD4seyTwqfaz2uOZ3o99bRXais6Peo/1Pwp88GGOOvfwj648v4wVPKU9Ln2k+a3hu9fzMhO/EzRfLX4y/5L+cmSz8U/bPyleGr0795f5X/1TM1PhrwevZN9vfKr+te2fzrmc6ZPrx+/T3Mx+KPip/rP/k8Knvc/TnZzO5X3Bfyr4afe36Fvjt4Wz67CyfIWDMeQEU0sJJSQC8qQOAEgsA9SYARKl5PzwXAc17eIShv6tY/i+e98ziAcRDgKMbAWIgALDtBuC4OwB6SF8K6YcgHOEOYGtrSUVUcclKsraaA4jUgViT0tnZt4gPxBkB8HVkdnamY3b2ay3i2+8D0P1+3oeLo7WnECueJqb+0pyN4uc/y38AuX384MFwjTEAAAGdaVRYdFhNTDpjb20uYWRvYmUueG1wAAAAAAA8eDp4bXBtZXRhIHhtbG5zOng9ImFkb2JlOm5zOm1ldGEvIiB4OnhtcHRrPSJYTVAgQ29yZSA1LjQuMCI+CiAgIDxyZGY6UkRGIHhtbG5zOnJkZj0iaHR0cDovL3d3dy53My5vcmcvMTk5OS8wMi8yMi1yZGYtc3ludGF4LW5zIyI+CiAgICAgIDxyZGY6RGVzY3JpcHRpb24gcmRmOmFib3V0PSIiCiAgICAgICAgICAgIHhtbG5zOmV4aWY9Imh0dHA6Ly9ucy5hZG9iZS5jb20vZXhpZi8xLjAvIj4KICAgICAgICAgPGV4aWY6UGl4ZWxYRGltZW5zaW9uPjEwNTwvZXhpZjpQaXhlbFhEaW1lbnNpb24+CiAgICAgICAgIDxleGlmOlBpeGVsWURpbWVuc2lvbj4xMTU8L2V4aWY6UGl4ZWxZRGltZW5zaW9uPgogICAgICA8L3JkZjpEZXNjcmlwdGlvbj4KICAgPC9yZGY6UkRGPgo8L3g6eG1wbWV0YT4KUvDP9wAACk1JREFUeAHtnD2MG0UUxzfoEi4oiQQFSAgpoUsKtkdUjmhC44Y0xCAFISeiwVTIEkTggshdTINTGYk4Bb4iToEFwgJZApnCRUzhK4zkFEaKBUbYSL5gS8uc7+zb3fef3Zmx1zO58xXJ7nh29s1vZ2bfvo855jiOtf5TIvCU0lXri3YJrNmpj4M1uzU7dQLqV67H3ZqdOgH1K40ddzt33z52bet39Z6t4Eqm3xn4N2jkp31PNEcGSrcvkpnj7o8vr16fsrvzwRe/rmAAKd7CwMfaLqVcnbHLnbGBQjKRLOPEGjUSLnK7h4mimRPXOHa1bMyHjp3m6n3jnrHjHNsde8b8TR7eP34ujsTJdJ1PXkQ/aCwz6l0x/OZjCI7xufHZ3W2NmPCtzZkL/XoWi7hfGq8PzBF2VxJz1rtOOpAc+9HOVI2CZwq7VjEZhm7391LboFeuGewGdbrOJbKFLC2NF8yZuEawq6ZtMuiSLccZNwuk3MpUe4bMXP3sRu0iBZSudKaAxmUwldNtMz40tLPr5+nEjOUOhlavSnXlRKFpwtDTzK5XzdBBl2961rQGolsz4ENDK7tx2/3Rvw8xWfbPyHGLTlw7VfFXW/lQ1Mmumfd/9VtWDL4JuhWg/BVamvUVfezQQhbPNzijp5ejy14sp3fi6mI3LqeQXsKfh6MW0FfSlS6H9SqK9bAbIcUtDIQ07qj5aWGnOgHhNM/xpnnU6HTYAjgLv0cv4fUbvV7syoE2yLsukvKVj7tRkyocVoroJbzOjltIrSlpeeOuml09Bz4jpBRdrE43hIYt74molUOb+2T493BC9f1FSzYmj757/cLlpq+dVGVw87XJSPSGJzcepc9cuOVrxM60fkq9YIk24rs66HTj9LOnN3AFgHzUoGMDX3wUSmMF3oKA5yxako8CJ9DHQou7GmB2DvzSBC0f9qLAlxiHnePAJfmwo/L1D39cz1c5LjvHQZY1X+OH+jQepnXD9+w+kp3tuycvXCF8YvniO9bwMSnHBU+f/ufqlY/ob/Fk6uVnaLFkyZ8Pbt35kVyTLBRffSwuofXw6vWbtJHW+PZ5zgt2v/J8BKKDcQV5EuTiuroVagGRUIaRWK6yPrKvsCACib9Rcy9ezUNvZvQPaidgzk4v69doz+10JahJz29w4sellGFPe+QEujv4tixyvYP8wnZW5DMvjJ3jNAvUQmkVxeyO8IWTKLZoDxYpqWbo8w1Z5ue3g35hn9F/Xtl3EM4O6yuxfLjdESo6ttyE8omLTwck7IzNv6TARy7yC7ML+VZEz/0F2HH0lTBzmwMV7FwjnLlHQLGTThmYCELvVQMD1q50BdGJ2qDgspVqBdwF2drEH6kYMXetHojbCxzj407J83aYnsRydXejwcdC4441gZdkrgYEbbyia1CwxLxfoVE+yV1bB2gZT0qpEKLsmMQo8iEG7Y4DZFKP3iENNao4DBnt13N00KXKHd6DgeUS7Jw+iLhBS3IvS904VlpOLihsaCFa+5FGhfUSKa2QySLDznFaaKDnvXZHvGzDpx/KQr6CN0Z+f2z5PLltFK8W+mKhssixc5w2cDLb2YMnNmoCbVBEXaCiKZZ0wah3B7gMkHVSKZRelp3Tq4HI1lSpvdfTOnjb4TVRkYzAZXC1na9lUC9RS+GQZuc4gwIwKycazLraLdOFLp5vCvR3uVXGFeA4TzSZRtUp01dELFtTu70CO/ahATSjeLaYT1J0mmLl+jX6fDkSJrzLtQRGFXasefQJSZ+ola2JfFNLiCteFX6oUhGTs9VGvOV5TUV2DtIG/JIpLcBzyRY+6GboNPCJGPjhESqAKjumr6A3vUs2iQ/DUCnVKswSSV1CeQ+zi2lO6uzYwgv0lZlwoQZrNRySV8FPw5mIiUVD5hdh5/SRvjIVLWVIODUTkdr2phLapYVTSxdix9FXDArjZ+MUry3pJaQIGZWLN5tNT8r/kiuIpzr8xnhC5qyld84+4e+KhdOr1Nc7vI4cTDcDdBTkPDwQ0FpUdVdlB215brnYsfm6sZXpeBYhuRNFdsiG7CO3e5qta/smg0Y6KiLfKB/OUYUd9F2kS1UQ0rkaczHtJpoWqVKjCkxkK7UFIJ/Z1JEOI/8TWmxQIBRkavRHqnIssyobFHT1zxzp0HAWrXuMjjnoMMvMLDrIa6y4fY3knIWufrcjHT3YKN2yFB1y1LrVERgpr/Rak2OHYlP86Q3QH6TgSaFUREqgp6no3WUAJngobF8jww6NKWQvgTrzQtqACLXdOigwBfkY0diUt+WJs4NrWRKGVUD7ytLDnyhQZM3G8WoDpDbL2pBF2Y1aAVn9tBeDInA14m7Qi9VKoObED0YYlUB+kZy+IsgOhlcGpa+OO8BntrxwT4oXSWgFepqQV0/KZybErlsBWf0Fb1Y/7Q3y1VozbYZWX6gELv+Z6oHPHbaO9jyT0FcE2KF0faERBGMExMJRYVe5hfBGItGVi8UIhLOD20TArH7at04ZuDRkl2TarK8EDR/RqF5oDRLUqMLYoRBEmUholGZsLXNHMRiCyPSSgLBKL3qkUYnpK8HsmJ+JmB5sSU2tU6JuUqRzeXskejYAm6dY0wAP0RaYUghyBOYRNgHNBCVfDH+7E/fnWlpWc/Tg/tbP//5HoMKCE6dO/eVP+mRt3Lx0zcq8dBJeIl74tNX/5QaIMBluf7+1LS7hiR695a3Ln747+vqVTfqLq4TPFU4315WH/TCWDYk95s5ZuMwfdly+/oW4DTjsYFa/r+WjcBoYdYnZoaz+o4AK9DHPTwhB7NY5726Gbtuf9+WAc0AnOztR7FpgPfrhjXOXSM5muj3KnLUmgnfc3Bzevvj8dV8rsVz32/efi2Svhc1NnjLiRRn5GTJ5W6HpVW6xYGqEL5LdXT+6YzRno7sbaxla7a3A9CqPPOgzIDCr33P1Uk9Wzo5FdKO9FgVDutHnZ2yJ2bhSbDWw4+xEIIAARmBr8GHuE9bCzoFW6LCPXGj01xkkqYcdW/bQTgRB22Zjr2uYdVNqDspW1sWOTVwUzcpVppBnS8S6KctDpr4+dpydCGDsOfa6iu1ZIENDrq5OdlhfoXZHZFKXsW7KERGvrZUd24kARcr7jPLIpB6tu1IQn2Z2zJUPDb/z3HNoUud7XQV7vZxq2tmxiQu85rM9D2DOZKDXdTlYhFrRz46JiaJI7WrfGaAZPY8GE+pflJWMYAcz++x4Ik69RFwlJkpInLbNYMfLvnHb0abHvmgwTqdWVGwKu+DMvj2G9jISmZbI1Rx2AZl9e+iW6RFfCkGD2PEy+/bIrSB8TxYotrnvibv6fycPt46fu4zuy6LUPz+LftBYZlYe48bZN9EeHCx56UPTwO0+M9mBGnl9Gtdlkl7i7r557NjeP96dCBZP1nR3eInHJrJj+so8ztRWTbpZIiNeU2ayY1ue7e2xJhc8zetkROVmvWddL83hVxfP3Huvde+t865Csw6NZWdZLDaB75I3gaLB7EzAEyiDWfpdoKjG/bhmp/5I/gckGWLIWp04lwAAAABJRU5ErkJggg=='
p25
sS'version'
p26
VV1.1\u02b7
p27
sS'uni'
p28
g13
sS'desc'
p29
g13
sS'browser'
p30
V\u2721
p31
sS'annotations'
p32
(lp33
Vdavid
p34
aVjew
p35
aVjewish
p36
aVreligion
p37
aVstar
p38
aVsymbol
p39
asS'wind'
p40
g13
sS'andr'
p41
g13
sb.