ccopy_reg
_reconstructor
p0
(cemoji
Emoji
p1
c__builtin__
object
p2
Ntp3
Rp4
(dp5
S'emojipedia_url'
p6
Vhttp://emojipedia.org/peace-symbol/
p7
sS'index'
p8
V1185
p9
sS'code'
p10
VU+262E
p11
sS'apple'
p12
S''
p13
sS'twit'
p14
g13
sS'gmail'
p15
g13
sS'related_to'
p16
(lp17
sS'name'
p18
Vpeace symbol
p19
sS'known_as'
p20
(lp21
sS'default'
p22
Vtext
p23
sS'bw'
p24
S'data:image/png;base64,iVBORw0KGgoAAAANSUhEUgAAAJAAAACQCAYAAADnRuK4AAAKyUlEQVR42u2dH7QV7RfHLwRBEARBEARBEARBEARBEARBEAQXgiAI7lpBEARBEARBEARBEARBEARBEARBEARBEATzrs9Za9a667znzN7PzLP3s2fu/q418vud23vOzGf2s/89+9npUqkJ2slbkEqAUglQKgFKJUCpVAKUSoBSCVAqAUqlEqBUApRKgFIJUCqVAKUSoFQClEqAUqkEKJUATdGPHz+69+/fd8+ePesePHjQ7e7udtevX+8uXrz4v+vGjRvdzZs3u729vdXn37x503379q379+9fAnRQ9Pnz5xUoly9f7o4dO9bt7OxMvg4fPtydP3++u3379gqqv3//JkBLEdbhw4cP3Z07d6oBI12HDh1aAYqV+vXrVwI0R/38+bN7+PBhd+rUKRdohqwTSx+WaalL3aIA+v79e3f37t3uyJEjTcHZdJ05c2ZllZa2xC0CoN+/f3e3bt1aLR/RwFm/jh8/3j1+/HgxFmnWAPE24xR7+Tc1L5ZXlrYEqJHevXvXnT592tWfsbBwly5d6r5+/ZoAeUZW5GJqPMwTJ06scjuPHj1aAYkPxf+26bN8jv82uZ+XL1929+/f7y5cuLACa+r3wGd78uTJLJe1WQFEdEVSb0qIzd+z7JET2vTATp48uRWgTfrz589qKcJ5x7+ZAtKVK1dmF/rPBqC3b9+OfkAsdYT1modTCtC6dSSzzWePHj062ip+/PgxAaopHv6YJYsM8evXr4uWhikArUeGRFvb/j3JUvK3CVAFkUUufQD4JmSgx6gWQPtF/meM9eS3R/eLwgJEiH7t2rXi0PjVq1eTbroFQPtTDqVJzqtXr4aGKCRA3DAcypIbjROLQztVVgDtDwRKfxufr/HbDgRApfDwwMcuVy0A6kXYXmKNyBdFhCgUQJh5+nFKzDs9PTXlBRAilVBS8AWiaLW0UACV+Dz37t0z8Q08AerzSNTx5uoThQEIB1Mb4j5//tzse3gD1IvMdkl0lgDt04sXL1R5HsoG1gXIVgD14b423xUlT9QcIDLMWnj4rLVaAoSos2nraxGq+U0BIqTdVrxcX7a4sR5qDRCisKuBiHJJ7SBiVgBpC6MscV6KABDCumjLNQcSINb7iGt9FIBKAgvaUQ4UQDRQaZJohPXeIWskgBDbhTRL/KdPnw4OQJql69y5c02SZtEA4gXiXmjuV4v8kDtA+DMa57BVm2c0gPpgQ9Nf1CK03/F+mzSpe5qyWikiQH14L903Nhd418tcAdI4haT1WyoqQEhT6vHOUrsBxJshmWFyQq0rzpEBoiVX2sJEcEI35OIAYn2W3h7aT1srMkDa+0hdbVEAEU1JGWcGEkRQdIDQ2bNnxd2vXpbcBSDJASSPwX6rBEgn2nYlK/T06dPlACR1GEZ6OHMACDGsYeiekmtbBEDkMKRqe6R9UHMBSFMK8rDq5gDR+xu5GDhXgPArpYiM/XSzB4g9WkM/0rK7cMkAIalORnlj1gCRjxjqayEvFK1JfE4AffnyRVzGrPfamwIkRV8RH8qcANI40/hKswWIzX5DP86jRXXpAElbv62/tylAOMhDPc4R5wXODSDaX6XJJLMFaMj/8cpTLB0gMs5S/7RlVtoMIJq9o9RrlgwQkhr0LNtjzABiv/rc/J8hgJj3HFVSOG/pSJsBJHUeRhwsOVTp9tjUaPG9uZgpOTuAyIIOFU+jzbwhYy6VXLw2N9Z2pC2b9MwAgvqhxrFIog9Ju6U4IkRM+ZDmC80OoKGJEx4pdq1YlkrnL0ZbzqSAxfJ+mwFE1BI9hKcLYOy5GkDnuWNWfJDCEK4EyMDsjx3FG7EYnAA5ighw6lDwFoMfEqB9Y3hb+gtjZjdHtkREtIsDiBF0Q+N4W4izMKwOocMS0asc0YmeJUBDmwhbhPH0Jkmn+zDEctvSxv+nsVzW7RNjwnhLi28GECZ96G31rMQDjzSggK0yfG6oFoYFiwgRtS5pysnsACLZNvSj6KbzEKBKxUag6Cd9ScVUPqdZBj0hkhr3LLc7mwEktVuSfveAR9pSxJKFZemlqcYPnSvWAiJp5oDlACrTfiBpzrO1qKBLY2TWBzNp2zlIBURZzpgdPfQdLNMMpgAN3WDL+gyShndTjthkBUv6gYBIc16rNUTSd7DsfDAFaOjYApYOq4q8BA9O/LaCaGlDGUt1S0sEHJKVtex8MAVI2lRosSN1d3d30tTXMR2J2sy2BURD0a7H0ApTgPAvPKMDBgpIDxGoxyy7UksrjnWL5Uzyf6xbh813pg5FK4TDtcwrb6LUlqFx3Kf0RJPQ84SIKFMqCFtHu+YASf5Ijb4aDTz9sd2WAHlDRCOc5P9YzwkyB0hqt8QET5HmoBacea2lq7ErwwsiaWaidaTrAhAPbsjMThkupTlTgix0yVtYa1uPNUSasTkeDW8uA6akLc5ETmMcdGn9Bx5udI3c1Zh9YZYQSeeLeY38dQGIcL3miDvNg2Fb9ZiCbe2NhXxXTdtsCUQUfaWXx2tcstuUVqmgqV2vCZelnAttG2PHmljsTGWprWmJNKcbep2d4QaQVJ3XbMHVNISRNpgy2s1qa3Ot5UxjfTwn3rpOqpdm2WA5tq3b3Djp79cr65EAQrwgU5ezoU7PFkdFuAKkOe+Bfd6bEmbSqLxNlfVoAE21RPytFHlNTYuEBkjjC623H2h6egjlGeZQQx7TOQgqNEdarkMkvUQtZg64A8SDlt4izDxvG5JqPbWPSPAa78IyU2KJNAfVjEmHzA4gpKmY8yCHtgZZFSc95wNpLRF5NOmlw//zPGSlKUCaU2c0F29lbXkPmNKe0Bz1CPBmh+5qTyX2blNoMaFsyh79vtbXSk2P/ZZKHC3W+lYj7siTjbFE5MVaLF0hAKLQOjTJdVvG2nJPWcsZiUBUYonwi1qfM9IUIMQ+K60/BDzWk81aD9ks8Ymk7soDAVDvD2mGPBFp9OH9UgHS1LlanI0aGiCkOcqxzxFZpupbAqRJb/QTY6PMmAwDUIlTjYm3moTRAiDqf5oTmae0qRwIgJB09sN63ax205Q3QBR/pTNQ90/ZsD59Z/YAIakRf72CX/NkPk+AcIK1UReQRYMnLEClloiHUGtCmAdAtNlKBeI5wBMaoB6ikhG8mPipUZolQDi+TMooGe6JzxMVnvAAISxLaYYWh7Sf9xMFIDoGpAlpm35HxCOxZgUQIttaWnwFOpzsUpBqAsTDJ1qUpqNtq8BHOw5itgAhHOUxD4IlkPmGJCs1b3MNgPiuHPUwZpQwy1vUQ11mDVDvQ2BVSo8m2G+VWBboIdrmV4wFCGhIhmpD8m3+ztSe7gRIIZYFzYg5TXRDKwSN6vhadEtu+3cBCAvGA2ZJpe2WZYYdEDX6efi3ovs7iwEI0cIwNMBqLhftGFEP31s0QL2wGtJ2n4gXVgvL57H9OAFS+EYsKTWWNesL/43lsHTPfgLkBBITKaY4spYWh2p7xKM+E6ANouWDtocaDu6Ui+Qh0dnYxGYC1FiE60RYONxeSxzQUIaptdkxAQq0xPFQsQgAVevkHoDB2jHk07pjMgEKaKGACiccsMjHAANbsNcvkpBYFgqifJ6/i1zoTIBSCVAqAUqlEqBUApRKgFIJUCqVAKUSoFQClEqAUglQKpUApRKgVAKUSoBSqQQolQClEqBUApRKJUCpBCiVAKUSoFQqAUpV1X8iT4FoEb9b7AAAAABJRU5ErkJggg=='
p25
sS'version'
p26
VV1.1\u02e3
p27
sS'uni'
p28
g13
sS'desc'
p29
g13
sS'browser'
p30
V\u262e
p31
sS'annotations'
p32
(lp33
Vpeace
p34
aVsign
p35
aVsymbol
p36
asS'wind'
p37
g13
sS'andr'
p38
g13
sb.