ccopy_reg
_reconstructor
p0
(cemoji
Emoji
p1
c__builtin__
object
p2
Ntp3
Rp4
(dp5
S'emojipedia_url'
p6
Vhttp://emojipedia.org/heavy-multiplication-x/
p7
sS'index'
p8
V1197
p9
sS'code'
p10
VU+2716
p11
sS'apple'
p12
S'data:image/png;base64,iVBORw0KGgoAAAANSUhEUgAAAEAAAABACAQAAAAAYLlVAAABr0lEQVR4Ae2O0aoTUQxF81yEEbSjWBSLIA6CVrFVccTrF2Um/w/xQMG22LOaiYhcOFmv2XsvaXcvrl27du1+akEWEc6Equ78zrkunwlWBesSmXAV1uUzLDDqD79k1FGYpRms+u5/wHWJDFSNXkHzmbiAfvM6oyYzcYGDfXXgWp1y4mAHuYYcatgXJ/a6lzMUv6vzIFCwzw6cKyh+wjwKFGzviB7n+YvmWaCws09OlHHlj53thJDdLeyj5+F5FjhhHzwFz8cFCvbeFwPzIFDF3vkiYJ4EgGF+63GGeZAYMsSZ8/MsEGcePADMg0CQ+Y0z8fmkwGtH/q3AVl/5bba6lTjxV55PKyyYf+lx4gr5+bRCQmCjL3w5G93IbSTwpM89RUghML9xBtG/FdBnTvRTP+EHKAQE+umpE2tbS8H4q0hKHenrTE8cOM4fMf4kBZhfO1LmzzD8BYXq/GMHTvMnjBP9tEigs0dep7NOrpDJiHQ17KFfp7N8hgW4DqvyGeG6zi/B+VTmZt0DP8FVnAEBZvW7bmUrCbEoE67jqnwmWBeapwwI/GeaQBNoAk2gCfwCkhtf0+W+jWIAAAAASUVORK5CYII='
p13
sS'twit'
p14
S'data:image/png;base64,iVBORw0KGgoAAAANSUhEUgAAAEgAAABIBAMAAACnw650AAAAIVBMVEUAAABBQEJBQEJBQEJBQEJBQEJBQEJBQEJBQEJBQEJBQEJ9LkK/AAAAC3RSTlMAIJ/v/wBAMFBgr+RfDrsAAAE+SURBVHgB1dbBacNAEIXhV0NCCgikAYNBd2ka8OFXrAJSQeJL6nAJKTQXDYv51YDnODw+LQO7ozx1vZyXd1x0P8B6rlpuqD67H+C1qmpC9V1VddpDH1Widqhq3kNVTRmqBQhcqpoyVNWhQQnqEDUoQ0sffFCG5h6BqYbGCK4lqqExTO6iGqqJDm0PlCCCKEEEUYIIogQRRAkiiBJEECWIIEoQQZQggihBBFGCCKIEEUQJIogSRBAliCBKEEGUIIIoQQRfEYfwXfPnDJmKIVMxZCqGTMWQqRgyFUGLqQia7qIi6LaJiiAQFUEgKoZMxZCpGDIVQ6ZiyFQMmYogUX7sRZ28NkzNXkCiegGtgh6oERI0KK9XU73v/gw1NQ7+Y2hQPYLtEILr+HkAfquOf0P2fgBYvzisy5sfDBfPHfoHnX3tGPHf60EAAAAASUVORK5CYII='
p15
sS'gmail'
p16
S''
p17
sS'related_to'
p18
(lp19
V\u2795 Heavy Plus Sign
p20
aV\u2796 Heavy Minus Sign
p21
aV\u2797 Heavy Division Sign
p22
asS'name'
p23
Vheavy multiplication x
p24
sS'known_as'
p25
(lp26
sS'default'
p27
Vtext*
p28
sS'bw'
p29
S'data:image/png;base64,iVBORw0KGgoAAAANSUhEUgAAAJAAAACQCAYAAADnRuK4AAAFpUlEQVR42u3dr1L0ShDG4REIBALBBSAQCAQCgUAgEAgEAoFAILgnBAKBWIFEIBAIBALBJSAQiBUIBAKRU/1Vpeoczrewu8nM9Nv5vVW5gGSfnZ7Jn+nUENIhiUtAAEQARABEAEQIgAiACIAIgAgBEAEQARABECEAIgAiACIAIgRABEAEQARABECEAIgAiACIAIiQuICen5+b8Xgc5ke4v79vvr6+AFQKz8rKSrO5uRkC0eXlZbOwsNCcnJxIIkqKeFJKfw51RC2e9nxOT0/lEMkAenp6+g8edUTf8agikgD08PDQLC0t/e9it8fGxoYUokl42kOpnLkH9L1sTTpURqLf8KiNRCkCHhVENzc3zeLi4tTno4AoRcHjHdFoNJoJj0o5S5HweEU0bdlSHIncAZq02lJF1BWPd0SuAN3d3TXLy8udL7YXRH3h8YwoecLz01JdDVHfeLwicgHIylYOPLUQ5cLjEVF1QF0nzN4Q5cbjDVEaAp5SiErh8YQoDQVPbkRXV1dF8XhBVAVQ36ut2ohmvcMcCVFxQLe3t1Uvdt+IrGx5OJ9aiNIQ8fSFqPScxyOiNFQ8XRF5w1MLURFA9j6PRzzzIvKKpwai7IBqrbZyIfKOp/RT/KyA7GsDBTzTIrq+vpbAU3IkygbIluqey9asiAxPzsctqohSrpFH8WJPQqRStn5CJAXo9fW1WV1dlb3g/0akjseOi4sLvRJmiOxHUL7w9idQx3N+fq47iX57e/vzyY3yD6B6GHwbPeWX8S8vLyAqfNjixW7chrmRaCORejlTGnns4W64Rxnv7+/N1tYWP3JmPPZaSdiHqSDSn/NUf50DRHnmPCXLVvUXykAUA081QC2i3d1dEHQ47G5/TTxVAVk+Pj4YiTqMPPa8sXaqf9ZDOdMrW64AgWj21Vapm4QygFpEOzs7IPllzuMJjytAls/Pz2Z7exssE8qWvSbjLe62d2F19veRx8OEWQJQOxKBqPyD0TCA2iX+3t7eoPHY17v2RYvnuN5k097lHerE2kYe73jcA2rL2cHBweBGnsfHx0YhEhuNG6KhlDObMNuGWyqRaXVgc6L9/f3wI4/HpXoIQO1IFHVOZHeYVcqWLKB2JIo2J1Ka88gDijaxNjxKc54QgNolfoTHHqojjzwg1W/v1fuDhQAUBU8ERHKAvG9WNTRESQ2P0n5DQ0AkA8jrHotDR5TAA6LQgKJNmKMhSow8IAoJaKgjjxoil4By9w8DUWBAtRuxgEgYEGWLnqmdJsyULXqmstoaGKJE2QKRLCDw0DOVsjVwRImRB0RSgOyzFfDQM3XuO8zcJKRnKvd5QFQWEHMeeqaCR+wI0TNVfamu3itMumeqOp72i9GzszMQlQak3jP1++fGERBJAbImc6o9Uyd9q66MSLZn6traWqiNDhQRSfdMtZFIBdG0W+mqIArVM3V9fT3UFivet5YJ1zPVNg/32jN1nv15bH+iw8NDGrGUfJThcU7UdXOn4+PjwXfxKfow1VM562NnMLu/4mXjz1otoKr0TK1dzvrcVs4Q2WODIbX6rv5CWc1ylmtPwloTaxt5RqPRsN5IrFXOcm5oWWPjTw+dC6u+VF+ynJXYDbUkIi9tL6t/1lOinNnFLrUbqiHKPbGuOedxB8gyHo+z9Uyt0TIpJyJPDXfdAGrLWd+Iam7inaOcecPjClCLqK+JtYcd4G2J3xcij3jcAeqrnHlqH9AHIpvz1FyqSwHqWs489p7ogsjryOMa0LyIPLdMmuexh3c8rgHNikihZdIsqzMFPO4BTYtIqWXSNKszFTwSgH5DpNhv6ydEVoY994mXBGT5W89U+6dO8xqqSjkr+Sbh4AB9n4gqDfORzycp/nOPjo7k8UQ5n9QQAiACIAIgAiBCAEQARABEAEQIgAiACIAIgAgBEAEQARCJkn8AD3gs00FyONoAAAAASUVORK5CYII='
p30
sS'version'
p31
VV1.1\u1dbb\u02b2
p32
sS'uni'
p33
V\u2716
p34
sS'desc'
p35
V\u2716 
p36
sS'browser'
p37
V\u2716\ufe0f
p38
sS'annotations'
p39
(lp40
Vcancel
p41
aVmultiplication
p42
aVmultiply
p43
aVsign
p44
aVsymbol
p45
aVx
p46
asS'wind'
p47
S'data:image/png;base64,iVBORw0KGgoAAAANSUhEUgAAAEgAAABICAYAAABV7bNHAAAAAXNSR0IArs4c6QAAAARnQU1BAACxjwv8YQUAAAJeSURBVHhe7dpPbtNQEMdxP0tdl0aoqQSXQGLPFUi7YV/+XIADsGfFtoUj0OQK3SNxgG5biVYolDWSH/7BTBWpSfDzm5n3kOYjWc54l6/8bMdK45xzzjnnnHPOOeecc65a8/29l9hoNHN28ODZYjp5T6OYlvYiECaEcIrNMhLitF171n98O59OTv4elRFon43j0PhHjPHV7ObHRxpV3MUJzYQONbFpTmfXy9c0ZhEJtC4O04y0Lg6TipQdaFscphFpWxwmEUniGvSG9htJX5OGxIEQm6PFw90nNI6SHajbCbP+DPlC40ZSkYbG6U+fZdd2h8+///xKR0YRuQZ9fjR53P6K8z7CUzq0Uc5yS41z+O32nI6MJnYX045UIg6IBQKtSKXigGggkI5UMg6IBwKpSKXjgEogyI1UQxxQCwRjI9USB1QDQWqk2MaLWuKAeiBIiYQvXkscMAkESZG2MYwDZoEgO5JxHDANBKMjFYgD5oEgOVKhOCD6ynWoo6vlZQjxHY1DfCgRB4qcQYOfc1YM+VmiwTzQmDisRCTTQDlxmHUks0AScZhlJJOLdMpvq/7Lm72+HUI9UEoc3Mqt33H/i+oSS43Dt/KU5yTt5aYWaGwcVksklUC5cVgNkcQDScVhpSOJBpKOw0pGEgukFYeViiQSSDsOKxEpO5BVHGYdKftBsY3tJ6s4gFclKQ+T5f/dEbpjBKDxPsE4bGgknEFV/Ltj4zJTiLNq23Kr5hrE7kVSjsPWRZKKA2KB4C5SzyIOW40kGUcFImGj0QwiLaZ7L2h0zjnnnHPOOfffaprfGlZ6cyre4zAAAAAASUVORK5CYII='
p48
sS'andr'
p49
S'data:image/png;base64,iVBORw0KGgoAAAANSUhEUgAAAEgAAABECAMAAAAV8YMOAAAABGdBTUEAALGPC/xhBQAAAAFzUkdCAK7OHOkAAADtUExURUxpcXV/P3V/P3V/P3V/P3V/P3V/P3V/P3V/P3V/P3V/P3V/P3V/P3V/P3V/P3V/P3V/P3V/P3V/P3V/P3V/P3V/P3V/P3V/P3V/P3V/P3V/P3V/P3V/P3V/P3V/P3V/P3V/P3V/P3V/P3V/P3V/P3V/P3V/P3V/P3V/P3V/P3V/P3V/P3V/P3V/P3V/P3V/P3V/P3V/P3V/P3V/P3V/P3V/P3V/P3V/P3V/P3V/P3V/P3V/P3V/P3V/P3V/P3V/P3V/P3V/P3V/P3V/P3V/P3V/P3V/P3V/P3V/P3V/P3V/P3V/P3V/P3V/P3V/P8mkFgwAAABOdFJOUwCvvrwpKAH+Hx0nHrvAv72yrq38/XaoJislKs8kbDPI7LPwLPpkIKxKsUmw1Ejd3ANL2wiIMNkKeF74mwWQ91wElBOTEqd0B6YGLtikhRD1pSwAAAHqSURBVFjD7ZfnVsJAEIVDSNmgQQ0kYkGsgFRRUEEU7H3f/3EMIAqZySbB8Xj0eP/uPd/2KZL0rz+g+8cwrqMT8bj29PrwcjcXhGG2YzVbmoDTeOacp+SMmJOR067tuOFPKtb4UOaqiLNqjly1op+jVOfvMhV/jmKOXfUSvq/qIf9Q0pekJD9dh1Vsd4kKn1BSxTlqctJVQebT7PSkhcvomhR5yqSfwiUdXPJpyciaVNljOutC0LnHwxcASV3weq77cLbeRRAJcjptZPs3t7rXF09M3UbcO647V9hBGgUhCeEUDPxqDQuSlseDy5BjGX6PzVgCpPmV0dDKPOAsGf7PHyMN35MSjeOSYoC0lt3YyK4BTswQh4g5SEptb6cgJzBoISSoEBw3/AWT9BgLE49ZOYCkl1m4+M/2xaB9FjaTsEURZ5GFz0kiUhSOJOW3fM5J38pHy5PrORyUW4+acfd2Mc7uXuTUvbOJgTZ3fg5EtTWqw6a6fqoHSfVFqD4tVRihCmxUoZYq+FOlI6oESZWyqYoIqrLmyoleaN3eIKB2J3rpd9GDnP71LMXo+QEAdc9mKY8vIUg71aMX7Gkb6SGUWVqIxHc2NWRtFmHj57aix4MT/HorKmmtpuXYgeEvsDke6OSIol3/1+/QG9hfx9ZMEve6AAAAAElFTkSuQmCC'
p50
sb.