ccopy_reg
_reconstructor
p0
(cemoji
Emoji
p1
c__builtin__
object
p2
Ntp3
Rp4
(dp5
S'emojipedia_url'
p6
Vhttp://emojipedia.org/cross-mark/
p7
sS'index'
p8
V1198
p9
sS'code'
p10
VU+274C
p11
sS'apple'
p12
S'data:image/png;base64,iVBORw0KGgoAAAANSUhEUgAAAEAAAABACAMAAACdt4HsAAACQFBMVEUAAADbQjmmHRGNFwerHxHKOzOVGgyNFwrvS0HnRj+iHBDqST/sS0PXPzfwSEHRPjXzT0SxHxC0IRLuTEShHQ6iHQ7fRTytHxClHQ7OPTSrHw/aQTiQGAqUGAqVGAviRj2YGA2fHAycGwytHxCbGwy1IRKgGw2aGwvxT0WPFQn0UUe3IRHfRDqSFwvzUEeyIRHIJRSwHw/fMiLNJhWJFgjXNCeIFgnpMx3JJRXtPS/wRj+OFwr0aWPwUEbjVU3xTkbiRjyrHhGhGgzJLB/FJRfcQzrcRDrzXVf1YlvwUEH2WVX1UUb3amWPGAuOGArTKRjSKBbNJxbJJRTPJxbOJxbiLBnmLhnGJRPkLRrQJxbWKRbLJhT0QzbuLhrnLhrYKhn7Sj3QKRixHxDDJBPVKRjtMR/oMB7vPzHWKhm5IhL6SDy+IxPAIxPNJhXEJRTTKBb9T0ToLhr9Sz/RKBbeKxn7ST3dKxnwMh/yQTTeLBnIJRPMJxb0NiXpLxzlLRrhLBnoLxy3IRGuHw/RKBfZKxjaKxnpLhvYKhffLBnaKxrRJxXXKRbjLRrxQTPrLhrXKxrzNiXsLhrwQDPHJROzIBC8IxLtPjHZKhnrMB7xMiDzMiDgLBjPJxXvMBzgLhzdLBrhKxj0QTPfKhbkLhzFJRPcLRz3RzrmLx3cLBvjLBnqMB74RzvlLRnVKBbjNijOKBjKJhT9VkzzMB7+WE7tLhrUKBbtMBzsLxzuMBzqLxzLJxbrLxzcKxnUKRflLhrVKRd6n23XAAAAT3RSTlMA9EghSElKSkdISEfzSSNJ2PPz8/P08/T0SfT0StfX9En09PP08kn08iLz8/RC8/LuQe5WWEA4PPrcJNrz2ELzSDra+1f081fcIzny+fr6lKWBjwAAA75JREFUeF7tjtVf3EoYQAcosO0u7rRQobRAS93d/d6su7ui7u7uUnd3uSr/2s1sZvIjZJPdfeOh5ymZ7ztnBqw7fnLrenjh+i1uP/nGHUE4X3DnRjKXfzP189fbgjD+7a+fU29y3J9a1falpkzA65fVfGmrSk3m8g2GFVjg81cMBljg8O/fNyzX7BNw+vtqluFOqMKps1Vt334n+QYL3D61M1V19hTTP36yfmr6R5CJRlxg+40T1M70lPnkccbw8Inmid8QZKFEyPaFJaRP7zSfOMwcb9iz+BdmoNF8Xsjyz5sbB+iVxT0boMUsmP7ADDjM8A3M+82OAXrBBH1WodjUjql2mDM2rvY3ZtQ7qumxqRj67EL6ZFd7V5B2o6M+Q7jqftI34lnXZDry2W9wG6sRyqV6+Ab6/iUlnhjd+H42sel2pVFJ8e6Nlywg3/vmHTo2Ku3psYCT2GJ7x78ItZMsIN+pxqcd9mLkc72BUHeoKV47vaILAFwQeZ2vqRNyRMD7eQv7iTE1QuF8Kzp3TvTWqcAnY8R+6PMX0sRjGMXLF2fOvHipoA/EacjnY1Nab6cC8eipy/X0Ef7r7E3bhAX+guxu513EkyfogzzSID98oUg2FAJZEfQjLMjrhpoZDNXJc3YBEHlB0lDHoEFSBP2I2ZUjb2AA74+Kgwf6/15F/4GDIDqOHnrQ10/T9+DQ0ej8pK2PHw720Qw+fLw1KTpf/3x0cBWjz/WwEIX/SjvIQPsqikJStn74/ega3g/rsyMspOzVD3/X/hdES4K+vg/r96ZE5Gc3mSr/QRAaDYG/K01N2SmR3N80OVKJEFfk51eI8d/IZBN6A7/vHhFjbLnl5bk2+nfEHbaQd3Xcfa+WQlxry9oGwLYsG/lJcc89fjWP1782bsd+rcaflQAALPg1tbhgH7+Wx+PHzBABGcafCX1YyPTThwFiJoazEB/jIgJyCpncR96PSMjykQcUAcIVE8/p9+okGB+8ny5k+uiBrpejEL/ZZdFJWoNIWue3Ix8Vts+34pnO4tocH8pfsEj/xCCfUaCHUssCLLD8j9JPFDod9pkFnQ4tSD+yClcuf7C0fMIgn1WgF1osHy5fYUwvXrKqpBjPji0gBFt2eOiVWeuli8xpaaFV1UKB/JAFtKKyFpauncYVWp/NQjw7sc8u7PQEV55Bn0VpgbVCpVJ1Q5+70E2uVFA+i7iCHpuqe3ci4CFxd7fK1lOAfPYbeuagz1+Ygz4Hcad/gT5/4dfTcdzTY0dAWI4cA+uNn/wPDrQiddafQQwAAAAASUVORK5CYII='
p13
sS'twit'
p14
S'data:image/png;base64,iVBORw0KGgoAAAANSUhEUgAAAEgAAABICAMAAABiM0N1AAAAIVBMVEUAAADdLkTdLkTdLkTdLkTdLkTdLkTdLkTdLkTdLkTdLkSEPECwAAAAC3RSTlMAEIDv/wDPIDBAn2fwrtEAAAEoSURBVHjazdjBDoMgEEVRgUFr//+Dm7Ymt7sbzFt0dgqeRAw4M9t/RuujavS5Gr/Pbe/rvT6xtzWH5y6oV61LOFX9gkaJJE6NL3RUrUg4BJBI4hSvJpI4g8VelHBYbG4jLTr7vCCR1GkXZJI7QCKJAySSOEAiiQOkkjhAMskdIJdkApBLMrzJVB0EEsmGgERyB0gkcYBMEgdIJXGAVBIHyCRxgEwSB8gkd4BcwnHIJRyHkNRxCMkdIJdw0lD+1fKLnf/87iDltkhu0+aOkeDBlj9q84e/OyLFf5DuuBRIIlJpTS7RCqZ++WTUHZHSCbs7LoWLGndcihV+sVI0XBw/UuX6mWogzAq1NOYz0GTJtn1me1bV6O1mI6r9btrzMW/FcbBpA/GX0AtSQ1ntHSrXVgAAAABJRU5ErkJggg=='
p15
sS'gmail'
p16
S'data:image/png;base64,R0lGODlhDwAPALMPAP8AAOYxMf9ycrIAAP8MDPcAAMMAAPxYWP91df8TE/MAAMUJCakAAPgAAP+BgQAAACH5BAEAAA8ALAAAAAAPAA8AAARD8MlJqzzDPrTmAU1GCQRgSCRQiE+6Ti7zOOU7lkqQqCyF7ACAolf5BE+aDVBIROF0vEpsVmO5rNULiJhCPjAaTnIcAQA7'
p17
sS'related_to'
p18
(lp19
V\U0001f645 Face With No Good Gesture
p20
aV\u2b55 Heavy Large Circle
p21
aV\u2716 Heavy Multiplication X
p22
asS'name'
p23
Vcross mark
p24
sS'known_as'
p25
(lp26
V\u274c Cross Emoji
p27
aV\u274c X Emoji
p28
asS'default'
p29
Vemoji
p30
sS'bw'
p31
S'data:image/png;base64,iVBORw0KGgoAAAANSUhEUgAAAJAAAACQCAYAAADnRuK4AAAEoUlEQVR42u3dL05rQRTH8REIBAKBYBkIFoBAVCC6BASLqCBBIBAIBAKBQLAABAKBQCAqEEgES0AgEBWIeTkvadK8tK+9MDP3/Pn+krFAyydzZu69c27KhPwiia+AAIgAiACIAIgQABEAEQARABECIAIgAiACIEIARABEAEQARAiACIAIgAiACIAU5/T0ND88PLj/Zzw+PubhcJgnkwmASuJJKeX19fV8f3/vFs/Ly0ve3Nz8+1kHg4EZRMkCnunwikhmnime6djb28ufn58AKoXHKyLBs7GxMfez7uzs5I+PDwCVwjOLyMOaSMrWIjxWEKkDdH5+/t8vdDrW1tZMI5pXthaN3d3d/PX1BaBV8AiMVb5Uy+VM4MvfvurnlLG/v68SkRpAJycnnb5Qq4hmd1tdhyDStjtLlvFYQ9SlbC0a2nZnyTqeWUR3d3cmd1tdh6aFdfKAZ3ZcX1+7KlvaESVPeDQikgVzqZlHI6LeAC271uMBUY2ZZ3bIz359faWE1RpXV1e94tna2qqKR35H+EW0x5mo5IJ53pCfLb+DXZhDRFJSapctDTOPuguJHhA9Pz+HKFsqAVlH1GLBrA2POkCSy8vLTvfDNCyspWzVnHlkzaMRj0pA1maiFmXr6elJ7RV2tQ+Udb0z3weiaAtmU4Ak8k/WWs5qly0LeNQDkpydnakrZ1K2tre3w+MxAUhyc3OjppzVLlvyVIEAtRIzBws1zEQtytZ4PM6WYupkap9bfNY8DgD1Vc7A4wiQ5OLiolk5i3yR0C2gVjNRCzzWz7eZ7s4ha6KaM1HNRzIsly03gFpcbASPc0Atyhl4nAOygsgbHleAtCPyiMcdIMnt7a06RF7xuASkbSayfp0nJCAtM5Gm0xMAMjYTeS5bYQD1hSgKnhCAWiOKhCcMoFaIouEJBaj2k4QyRqNRjpYUBU/Nu+ra+xMByAieiIgSeEAEIGV4IiFK4AERgJTiiYAogQdEAFKOxzOiBB4QhQZkCY9HRAk8IAoJSDpY1G7udHx8rL7JFYB+iKdVfx5NrWUAVCB9dEOt/XisZUTJGp6+jhvXnon6fC1DCEC11zzSGWxZcyfKmVFALVrprtpWrnY5szYTqQeksQM8M5ERQDIraG2xAiLlgFpc5/ntA/DszpQCsoCHmUgpIDkKLDsiS0dvIiNSBUi20dbwREekBlDNtxu3OvQXEZEKQLXfMdryxGg0RImZB0RmAcmax+v7tqIg6g2Qxd0WiBQBGg6HIbpk1Eb09vYWE9BkMsmDwSBEi5VaiELPQFNEJWcizS9rK40o/BpoNoeHhyFe1lYKEbuwOTk6OgrRGey3iLgOVHgmsthW7qeIuBK9JN/f3/ng4CBET8KuiOSdsRqj7m78qog8NLRcFRF34wvvzjx1Q12GiOeBCq+JPLbSXYSIJxIL784892H+FxHPRBdGFKGJ9xQRpzIq5P39PUeItc8ZplM9ARABEAEQIQAiACIAIgAiACIEQARABEAEQIQAiACIAIgAiBAAEQARABEAEQIgAiACIAIgQgBEAEQARABEAEQIgAiACIAIgAgBEAEQARABECEAIuXzB/62s/eeT30bAAAAAElFTkSuQmCC'
p32
sS'version'
p33
VV6.0\u02b2
p34
sS'uni'
p35
V\u274c
p36
sS'desc'
p37
V\u274c 
p38
sS'browser'
p39
V\u274c
p40
sS'annotations'
p41
(lp42
Vcancel
p43
aVmark
p44
aVmultiplication
p45
aVmultiply
p46
aVsign
p47
aVsymbol
p48
aVx
p49
asS'wind'
p50
S'data:image/png;base64,iVBORw0KGgoAAAANSUhEUgAAAEgAAABICAYAAABV7bNHAAAAAXNSR0IArs4c6QAAAARnQU1BAACxjwv8YQUAAAG+SURBVHhe7drBTQMxEEbhLYECuFIEBdAIHdADPVADXVAPTYAH5aHVylmtvR6PPTtP+oU4RBk+oSSHLFEURVEURVEURVHktcfbz5Ea5qantO+097/fxkhukZvkNtPA+bltBCS5gXtMkbY4zBJpjcNMkJ7TcjjMAimHw+RWublLL2m5I7bribSHs57crtpRHNYD6SgOU0W697qzN02kUpwur0c1SK9prRsSh2qQWv5rD41DVkhT4FBvpKlwqBfSlDikjTQ1DmkhucCh1kiucKgVkkscOovkGodqkS6BQzVIJZsah7SQXOBQayRXONQKySUOnUVyjUO1SJfAoY+0HMLe5DGXqPRzznryWNedwWFukVrgMHdILXGYGyQNHDY9UimOvJWXfgSYFqkGRz7n1HxOmg6pFodcI53FIZdIrXDIFVJrHHKBpIVDUyNp49CUSL1waCqk3jg0BZIVDg2NZI1DQyLJV+lyT3xvWjhUg6TxdcD/HtK+0nJPvJ02DpUgye3yN6h2BKkXDh1B6oJDe0i9cWgPqSsO5ZCscCiHZIKzjnc1axxaI5nj0FvaCDgkt3ymDYETRVEURVEUuWtZfgEoFONeaxYdSgAAAABJRU5ErkJggg=='
p51
sS'andr'
p52
S'data:image/png;base64,iVBORw0KGgoAAAANSUhEUgAAAEgAAABECAMAAAAV8YMOAAAABGdBTUEAALGPC/xhBQAAAAFzUkdCAK7OHOkAAACWUExURUxpce1sMO1sMO1sMO1sMO1sMO1sMO1sMO1sMO1sMO1sMO1sMO1sMO1sMO1sMO1sMO1sMO1sMO1sMO1sMO1sMO1sMO1sMO1sMO1sMO1sMO1sMO1sMO1sMO1sMO1sMO1sMO1sMO1sMO1sMO1sMO1sMO1sMO1sMO1sMO1sMO1sMO1sMO1sMO1sMO1sMO1sMO1sMO1sMO1sMLwT3t0AAAAxdFJOUwAluSjmvSYxAsUtJ7jGLy7DxzIkyVlYMLv+yrrEKcjCvKcMtgEGtFIECUyjIo63V+fIW8YKAAABeUlEQVRYw+2X15KCQBBFB8mgomLOOaf+/59b3dVaaJkh1N3aF+4jc+vUNNBJiFKl/kTLQ5rjsMyAcXbbk6222KftzknldAyidktlabWJjI6TgaMmPTmpJKf7zSGaSqOzpz8Oo+uoOHd6qSkh2c234y4nOTeDSE365TzudJOQ1scIh6iWQLJrUYdxXCeCNgsiNSnOIVpsEkH7S9xGbi9u6LnMcNknx3ZecVI9elznnNVZ9rbDq4L0wbmG8u8fVjkpeB8FnFMNVX+kVmH28YsUjNlBRVPniMbv1PCej70Gv4+WlrWJpAIcISwe3czzZjwuK0th+yANh4U4D9KIlBpZWYut31dx+n72su3P5Zy5n6cB+KaMY/r5WokuIZl63qaUTMrPEWJiDjhmYE6KNEqdpym5uvhPECo01MtGfX7UD4lKEVTSosoIqrChSi2q+KPaEapBolo2aohAjTWwQQs2+sGGUdh4jBvYcSsEbqnBrVm4xQ+3ipYqVUBfsh/wpd4HSsQAAAAASUVORK5CYII='
p53
sb.