ccopy_reg
_reconstructor
p0
(cemoji
Emoji
p1
c__builtin__
object
p2
Ntp3
Rp4
(dp5
S'emojipedia_url'
p6
Vhttp://emojipedia.org/heavy-plus-sign/
p7
sS'index'
p8
V1200
p9
sS'code'
p10
VU+2795
p11
sS'apple'
p12
S'data:image/png;base64,iVBORw0KGgoAAAANSUhEUgAAAEAAAABACAQAAAAAYLlVAAAA5ElEQVR4Ae2XwQnDMAxFfzVOlkiguzSQgQLtNlkiuzRYdu/OBzs+2KSW3k3w4SEpEAsalwmYgAncU2Ban+HMtE64jpSEAE/o6wYCoZ5A+xUcvFuElIQAO0IltJ5AZ1+BfQWB0JOAgye4IqQg9OefoX+n0ZHdgI452Vhb4kZ4pcHABDDkZOOUxA1fET6ByghvNxTwtgJbga3gk8GuOOP3rGxqBZjT6AZSuumcJtYWxXWAQOjpXeBYs+4fUeMV2OP0gBKqvox42Q30JOAIFQW+vFuElIRgR2gTWB6ksNxyAiZgAibwAwXAm4x8xND7AAAAAElFTkSuQmCC'
p13
sS'twit'
p14
S'data:image/png;base64,iVBORw0KGgoAAAANSUhEUgAAAEgAAABIBAMAAACnw650AAAAGFBMVEUAAABBQEJBQEJBQEJBQEJBQEJBQEJBQEIfX4aOAAAAB3RSTlMAIJ/vADAQTXMoVgAAAIhJREFUeF7t1jEKwCAMBVDP0J6gU+dOuYD1BD2JGf71ixmF5jsIRcjfhAeKEvxphWyiR+6SuvUtgD4E7QBwEXQ2VAmShtRHBZYJKC+GAgXaBJ/Rw5ANraMeQzvcXIZOH1VD4iNtqIBkFPHtRg/Or2DwMvmzxCAECsS/fF4eeA2ZUWgyqUZd/kMvcDAD2t3U6h8AAAAASUVORK5CYII='
p15
sS'gmail'
p16
S'data:image/png;base64,R0lGODlhDwAPALMPAKkUFJwAAP6SksEBAf1GRv8AAOkEBP8JCfxZWfkAAP8ZGclERMQwMN9lZf95eQAAACH5BAEAAA8ALAAAAAAPAA8AAARA8MkpRJsYC6VG/kJReJ92jKWJppJwkphDzPNp0HOAiHzPG7qEUMgbJoCAgDLAeC2VoBerJZ26VqwrLLUYDAKfCAA7'
p17
sS'related_to'
p18
(lp19
V\u2716 Heavy Multiplication X
p20
aV\u2796 Heavy Minus Sign
p21
aV\u2797 Heavy Division Sign
p22
asS'name'
p23
Vheavy plus sign
p24
sS'known_as'
p25
(lp26
sS'default'
p27
Vemoji
p28
sS'bw'
p29
S'data:image/png;base64,iVBORw0KGgoAAAANSUhEUgAAAJAAAACQCAYAAADnRuK4AAABuElEQVR42u3aUQ0DIRRFQSQgAxlIwQ0ykIEYxNBUw2sa2J2TXAG7zOdLWwqU/AIBJIAEkACSABJAAkgASQAJIAEkgJ5X73231kID6MXVWndKKTSAAAIIIIAAAggggAACCCCAAAIIIIAAAggggAACCCCAAAIIIIAAAggggAACCCCAAAIIIIAAAggggAACCCCAAAIIIIAAAggggAACCCCAAAIIIIAAAggggAACCCCAAAIIIIAAAggggAACCCCAAAIIoNMAjTGOXyklDOiG71xr3Qco+jD2u30RAWQAGUAAAQQQQAAZQAYQQAABBBBABpABBBBAAAEEkAFkAHk4gKLXfqcv5xx+nBu+c87ppNVJ68tOWgECCCCAAAIIIIAAAggggAACCCCAAAIIIIAAAggggAACCCCAAAIIIIAAAggggAACCCCAAAIIIIAAAggggAACCCCAAAIIIIAAAggggAACCCCAAAIIIIAAAggggAACCCCAAAIIIIAAAggggAACCCCAAAJIAAkgASQBJIAEkACSABJAAkgACSAJIAEkgASQBJAAEkACSAJIAAkgASQBJIAEkAASQBJA+n8fQMHN/t/mMrUAAAAASUVORK5CYII='
p30
sS'version'
p31
VV6.0\u02b2
p32
sS'uni'
p33
V\u2795
p34
sS'desc'
p35
V\u2795 
p36
sS'browser'
p37
V\u2795
p38
sS'annotations'
p39
(lp40
Vmath
p41
aVplus
p42
aVsign
p43
aVsymbol
p44
asS'wind'
p45
S'data:image/png;base64,iVBORw0KGgoAAAANSUhEUgAAAEgAAABICAYAAABV7bNHAAAAAXNSR0IArs4c6QAAAARnQU1BAACxjwv8YQUAAADQSURBVHhe7dnNSQNRGIbR0YKysgWxAwsIlmUF6UBsISsb0is32+ExP5IEzoGX+RZZPZDNzAIAAADAJW3HvmO/v7max8OTFQIFgYJAQaAgUBAoCBQECgIFgYJAQaAgUBAoCBQECg+H5zE2Y0/zPNvL2Os8V+3GPuZ5tv3Y1zz/z19ek97qjn596y8WBAoCBYGCQEGgIFAQ6Mb5Nn/vBAoCBYGCQEGgIFAQKAgUBAoCBYGCQEGgIFAQKAgUTvk2f0nPY2/zXPU+9jlPAADgHizLD5++RmURHoEjAAAAAElFTkSuQmCC'
p46
sS'andr'
p47
S'data:image/png;base64,iVBORw0KGgoAAAANSUhEUgAAAEgAAABECAMAAAAV8YMOAAAABGdBTUEAALGPC/xhBQAAAAFzUkdCAK7OHOkAAAB7UExURUxpce1sMO1sMO1sMO1sMO1sMO1sMO1sMO1sMO1sMO1sMO1sMO1sMO1sMO1sMO1sMO1sMO1sMO1sMO1sMO1sMO1sMO1sMO1sMO1sMO1sMO1sMO1sMO1sMO1sMO1sMO1sMO1sMO1sMO1sMO1sMO1sMO1sMO1sMO1sMO1sMNseB5wAAAAodFJOUwADlnKcwwEElwUsk9ZzTgIw38DdW0GY1Zv0Ef4GKvOaE55g4MFfcJSB6nXxAAAA40lEQVRYw+2Y2Q6CQAxFWWQRZAcRBJS9//+F7mSExOhMeTE9z5OTWTptciXpI3KyD7Ur4T6RJQG8OIAnQewJiPwIJiKf36M7wODo3CLZZkU2/y0ZJisyDRKRiEQkItEkOrGiE78o71hRl3OL+ooVVf03h9guKM5NC2+0zblYrmMPbKnKZs6h1jKYkWn1YbFQUa3XGHR3IMTOfYzOMgVB0vK+oeEoKjoOty0ZIwgzGovy5cP8dxHWZaM9P1pB4n0RtE+L2EYQG9vKrRat+dOkJRGJSESi1SMNtJAFLfbBC6J+iMYusn7zOce+V4MAAAAASUVORK5CYII='
p48
sb.