ccopy_reg
_reconstructor
p0
(cemoji
Emoji
p1
c__builtin__
object
p2
Ntp3
Rp4
(dp5
S'emojipedia_url'
p6
Vhttp://emojipedia.org/wavy-dash/
p7
sS'index'
p8
V1215
p9
sS'code'
p10
VU+3030
p11
sS'apple'
p12
S'data:image/png;base64,iVBORw0KGgoAAAANSUhEUgAAAEAAAABACAQAAAAAYLlVAAACZklEQVR4Ae3UMUgbURgH8M9BEPLSQ84YleTIBc4rl7OnqFzEmDubQwqORRwKLYiDEhcrdAp0KHQU6eTgkslBpFMXF5fWIgbEUmgh0CXioC6KtrRDXi+9au5dcmc2l+/7LeHe9z/+PMIBDg4ODg4ODg4ODg4OTu7Sorlrq/T41WTXJLSoy1rJ7dWSjlo+W7D6LGjNOGcuOfncJZgnJv3vwJw2oQXT9iZt4ov5tJW8YRkfbzMnMHE8QW9kLsyl4LDeli1M/KwnWJlf2YLepkOQzMvMhStzDPppmjJep8HPOKdvpGkw/Z3RYYCPjtFVz/YpDFdGKGt0lW/noZHarW2PUI+qjXoUFaJAE2Sk6N0droCW1vKP9jTK2Gh8xbCg7rBbdio/aAwayry668lvN/6ha/XZrYEDbVlLg2aTO5W1VDVFXd73Cr1QlxwaOHCfK39Sb+VOGRx23Tf2E1qn7qgPVaiLp9Rd5v1VZU3trp3crvQvS7/7aZ10JM849yB3Sov9x8zZmfxMBpYyL10xO2XpuZNXiPRCKjNnV9KiBA6Qbonz4rVIXaqJT+K6uJ4oidRNqMSmYtBInEmcs5uJ/X/5fc/Tc2FWgBsguM3Gz+L0Dt+jY1FoLvZEqNyV99aHGGuqp9xDA3xODiXBX3Ss5ygwf+StD1GPeIr/0EV9FEkfgWCRJL/ll+e3IskIsCDSQCHcClfmKCt8GJ7z/cox+Hay8OArRz2+kXyz7wvwTfUKJB/aIqXQD1IhJbIZngt1h6B19k0tkE0nHz60fy343R2Qe4YFsAAWwAJYAAtgASyABbAAFrj3An8BMpBz+YR4zo0AAAAASUVORK5CYII='
p13
sS'twit'
p14
S'data:image/png;base64,iVBORw0KGgoAAAANSUhEUgAAAEgAAABICAMAAABiM0N1AAAAMFBMVEUAAABBQEJBQEJBQEJBQEJBQEJBQEJBQEJBQEJBQEJBQEJBQEJBQEJBQEJBQEJBQELdgQv7AAAAEHRSTlMAgP+vQACPEJ/PML9g3yDvkjW0+QAAARpJREFUeNrtlNEOgjAMRe8KuomI//+3xqEr5myJvpreJyDdob1rq1AoFAqFQqKSmU3zaah5sm8ikqzqPAjKFVNReRBytirZrtLnXKzp0icV26Vku1IvqnIaqRfRjuvtgi2jrMs8l1H9i70dVMNe6WKNWp+Pa32k49dWjNo7wvLtxWmkW8avagYO2l4fWH75MDX1Etp2kLvhKTn8nlt+dz/kCblzOpyaeK+rv6/skunA1vHYxvJdNHI7osWPPEY0fy6myUJYLO0QjIO1tN+5nrN4lbxsNgRbRrSA7ccWpYliu3MgODQcK2EAOaIc44WDLq4ELg0uFq4ecUlxjXHVcRmKmXOxcvmydv206hlD0O8KUIACFKAABeh/QQ9QmT9BPFHO5AAAAABJRU5ErkJggg=='
p15
sS'gmail'
p16
S'data:image/png;base64,R0lGODlhDAAMAIABAAAAAP///yH5BAEAAAEALAAAAAAMAAwAAAISjI+py+0LTjQz2nDBxPL5DwYFADs='
p17
sS'related_to'
p18
(lp19
sS'name'
p20
Vwavy dash
p21
sS'known_as'
p22
(lp23
V\u3030 Wave Emoji
p24
asS'default'
p25
Vtext*
p26
sS'bw'
p27
S'data:image/png;base64,iVBORw0KGgoAAAANSUhEUgAAAJAAAACQCAYAAADnRuK4AAAEQklEQVR42u3aHVSlXRjG8SAIgiAIgiAIgyAIgiAIwiAIgmAgGJy1giAIgiAIgiAIgiAIgmBgIAiCYCAIgoGBIHjedZ21mtWc99mnj3P6eN9+/7U2TfOc3d7/576vvU9dFdAGXZYABAKBQCAQCCAQCAQCgUAAgUAgEAgEAggEAoFAIBBAIBAIBAKBQCCAQCAQCAQCAQQCgUAgEAggEAgEAoFAAIFAIBAIBAKBAAKBQCAQCAQQCAQCgUAggEAgEAgEAgEEAoFAoCdyfn5eLS8vV+Pj41V3d3fV1dVVDQ8PV1++fKkuLy/ffD6/fv2q1tfXq5mZmaqvr68xn/7+/mpqaqra3t6ubm9vCfQRuL6+rmZnZ/9IUzfyb5Erm/ra3N3dVaurq3+kKY2BgYGGSAR6R/b39xtvdauNejgGBwerHz9+vNp8rq6uqpGRkSfPJ2N6evpNxCZQE2tray2rTmn09PRUu7u7HZ/P0dFRNTQ09Oz53Le2ToudFvn9+/fGOkVsAj1gaWmp2KrSzra2thrZp9WmraysdGw+yTqlz4lU3759q3Z2dhp5qPRzvb29DQk71UYnJib+EvS9q9yHESgbX2oFP3/+/FdVSNsqbVpyURa7HY6PjxtVrfnZyUCpdM3P39vbK+ajPOfw8LDtNap7eU5OTgiUylK38HnDSyKkfE9OThYlWlhYeLFEOfmlctRlrVYnv4uLi2p0dLRYRdsJ12lZdc/NXD+1QHmD6jLP169fn1TSW7W0tJbnHqtT7eoyT6rI2dnZo///9+/fDXlLc3qJRGmTdWsUWduttP9pgW5ubhrH3uaFGRsba2zEU8mm1LWbjNzPPDUn5G0utcbNzc1nt+TSYSAV9zm/W+k5p6ennztEJ6vUnVxyB/RcctopnZYSPCNrK1JdSlcHCfcvIbmnJHba80tzYcbGxoZjfF3OaCdsRrxSLmolUd7yurlk5Aa8ndvlHLlLYi8uLta2oLTRHB5K8rxU6P+dQM3tohNvVTY7G1NX9iNRTkvJXRn5vFLova+Gnfi6JEKkLdd9Rj4/7TGnvrw8yU8lmTMSpt8793wYgbJoWdiMTt7fhNxmt9qIx0YqT6fub+7FbhWuHxv5XQ4ODtxEvyU56re65CtVndcMp6kyre6wSlWq+S6MQG9IMs5j36295RezyWpzc3NP+nomLes5J1ICvRIRIyef5tvibNL8/Py7/GlIKl3CcnNeS7tKu/uoVedTCvRQpATpZK5UppdcGXSa3GAnSOfPRTK3j1xxPr1AIBAIBAIBBAKBQCAQCAQCCAQCgUAgEEAgEAgEAoEAAoFAIBAIBBAIBAKBQCAQCCAQCAQCgUAAgUAgEAgEAggEAoFAIBBAIBAIBAKBQCBLAAKBQCAQCAQQCAQCgUAggEAgEAgEAgEEAoFAIBAIIBAIBAKBQCAQQCAQCAQCgQACgUAgEAgEEAivwT+jxIv9vqmpOgAAAABJRU5ErkJggg=='
p28
sS'version'
p29
VV1.1\u02b2
p30
sS'uni'
p31
V\u3030
p32
sS'desc'
p33
V\u3030 Just like a regular dash (hyphen), sometimes used in Asian character sets in the same way a \u2013 or \u2014 is used in latin character sets. 
p34
sS'browser'
p35
V\u3030\ufe0f
p36
sS'annotations'
p37
(lp38
Vdash
p39
aVpunctuation
p40
aVsound
p41
aVsymbol
p42
aVwavy
p43
asS'wind'
p44
S'data:image/png;base64,iVBORw0KGgoAAAANSUhEUgAAAEgAAABICAYAAABV7bNHAAAAAXNSR0IArs4c6QAAAARnQU1BAACxjwv8YQUAAAIVSURBVHhe7ZkxTuwwEIYXLgCiBgokChoqCjgA4gDcgBtwB+7AGehoX/deR0GF6JCoaKDjBDDf4kir1azHSZyH5P0/6ZN3N9nEHjtjR54JIYQQQgghhBBCCCGEEEIIIYQQ49hI5W+ybe6bJ/NvP3yaL+bT/NuasmvemF8ZP8wrkyCuFTTaC8gqCdSZ2TyMhDvTC0KJ12bT3Jpew/t4aTZJ38cq57HZFCRk8ojX2CH+NZuC3OE1dNFnk/yEJcFsKmlHDV7OKyTzaAlAPmuCQ9NrYGcu6eaSOkFvgnPTayDyWOUgd3n/6+T4pGymckr2Uulxn8pVvJn/fj667KRyMkoD5PVe5xheU5njPZVDYDng1RmZDEJqjKBoTXKRyikgv+WIjleDXOH1AuZ6IteDSH6KyC0RqNeqF1l+z9WbWbIa0ZTL8eWKEpxoei9Jsqx3vP92smhcvg7f+d07v7Okc4qJRgISDKZlejyqHBblgETJwpHr8TpD6R1flOutGnmDKblxH6PctUjN9zjketUpGUWl9l0FR/mkj7m8NZoaPTl0eDMjlTxqkZPPbFHCzkkDx1SQxDomSFUTc44hFSWH1RjaBLjv48b5/21N1MFUWjKaqFztniPQPO5RoOhEzhvcMTW2fbj5UfLApKf+mGzdsG3D9s2UMHmwZbRlnpoPJvd+NNd620gIIYQQQgghhBBCCCGEaIjZ7Bsng9r8ST1xkgAAAABJRU5ErkJggg=='
p45
sS'andr'
p46
S'data:image/png;base64,iVBORw0KGgoAAAANSUhEUgAAAEgAAABECAMAAAAV8YMOAAAABGdBTUEAALGPC/xhBQAAAAFzUkdCAK7OHOkAAAHgUExURUxpcUDA50DA50DA50DA50DA50DA50DA50DA50DA50DA50DA50DA50DA50DA50DA50DA50DA50DA50DA50DA50DA50DA50DA50DA50DA50DA50DA50DA50DA50DA50DA50DA50DA50DA50DA50DA50DA50DA50DA50DA50DA50DA50DA50DA50DA50DA50DA50DA50DA50DA50DA50DA50DA50DA50DA50DA50DA50DA50DA50DA50DA50DA50DA50DA50DA50DA50DA50DA50DA50DA50DA50DA50DA50DA50DA50DA50DA50DA50DA50DA50DA50DA50DA50DA50DA50DA50DA50DA50DA50DA50DA50DA50DA50DA50DA50DA50DA50DA50DA50DA50DA50DA50DA50DA50DA50DA50DA50DA50DA50DA50DA50DA50DA50DA50DA50DA50DA50DA50DA50DA50DA50DA50DA50DA50DA50DA50DA50DA50DA50DA50DA50DA50DA50DA50DA50DA50DA50DA50DA50DA50DA50DA50DA50DA50DA50DA50DA50DA50DA50DA50DA50DA50DA50DA50DA50DA50DA50DA50DA554LOSoAAACfdFJOUwD4pQQJ+ZwIAQcL/QWpImUWxWOwwvolD9cDF+AC71kx9LnDKEzxE9zmqEsNBi+WFXb83Z7rUNZ5/vPjxPdc9tsQQxzQH1ObGosplRSaGT0e54XNcDJ1+71go2rwjlWig4hKbgyxkraXNd99G8DkIETuNLpY3ny/XWKQ0zN7Iw6zVltB0fXBET8qcj6Gqkjtzgqv8r7ij1G4GB2JK0+rjD1tTJgAAAG6SURBVFjDY2AYBaNgFIyCUTAKRgF+oMPCjluSmYVdhhhDmF1cS9l44wJtxXQwJdmVi7P0NJk8+OXZCRgjWV0p0TIfBFiNjLXEUSUF5HgzGcGS3LlMpnX4zHHqtpqPAKppsckIOSkhETskSYX6Xk6c5rSLcM9HAQq8hRwwY5QYUeXm97nJcyBplpoBY/E0GM3HACXxIWra3rrBgqyYcvOla1xgmrlcJ8+CGetfNR8bCBBRVNKwwCo1n9vZoIMLGEEz5SZOmt/vDjWI03g+6YBbOiVdj8nZBsi0mwZznqPsfIqAmyTUoAlzKTNIohbmpDkKIL6lRJGwtRUrdsWiqtLq6ho22OUaYQY5TJ8/335qU54Dl4ByuTCmR8PM2CoyxPj4PFUSgkSxmNQDT1m2U+bNhmUk7fzIaBRljDn8fPCEky0kaIhhULMTTFpcngcpibGoKCI8yFgmp4+Sen1D7VGNMbQ2xZnW1fgFLcGKZMMj9DFkddkKEMZYmJm748t9AonmPmxeBo7i2CQ5tYRNIMaYtHaKcRAqWHh4mHHKcfklpWoyxUR1tVFeCkoSWdCNglEwCkbBKBgFIxkAAEoAZxTABtR1AAAAAElFTkSuQmCC'
p47
sb.