ccopy_reg
_reconstructor
p0
(cemoji
Emoji
p1
c__builtin__
object
p2
Ntp3
Rp4
(dp5
S'emojipedia_url'
p6
Vhttp://emojipedia.org/negative-squared-latin-capital-letter-a/
p7
sS'index'
p8
V1226
p9
sS'code'
p10
VU+1F170
p11
sS'apple'
p12
S'data:image/png;base64,iVBORw0KGgoAAAANSUhEUgAAAEAAAABACAMAAACdt4HsAAADAFBMVEUAAAB9DgKJEAIAAACWEAKCEAKcEgIAAAABAACDDgKjEgJ4DgKREQIAAABFAAChEgK3AACXEgJzDQJ0DQJHBwAAAABZCQIAAAB+DwOEDgCJDwCODwKNDwKSDwKYEQJfDAFTCABoCgEwBAB2DQI3BwCREQCPDgKgEwKcEQKVEAKZEgOHDwOWEAK6HAXDHga/HQbCHga+HQbAHga8HQW9HQa7HQWmFwPFHwbPIQW/EADcd2ixGQS2HAXHEADEFwCkFgObFAPIcmjTUUGUEgOQEgP23Nvmlo7LHALBFQD15OPy19benZfu0M7FIArlt7TOTz/JVEXWfXOJEQPGKxTCJhDqpZ7EOifNY1XCNyTPRzXFNyS5EADiNynAGwXZIge0GQTVIgbaIgbcLx/XGQDaJw/eLBfrUED0npf7yMfIHAXwYFrXIgXaHQDhPTK4GAT3bmj73NveNindMiXTHgP1amT87ev98PDVHgTHFwDYHgLnSDf++fn////sVEysFwTyYlzGHATlRDX84+P5ubevGATlRjzPGADqUkv2e3b1d3K+GgXiQTDIHwXzYFrBHQXSIQbvXFXYIgvgKA/qUUn3b2rPHwXzaGPrPTPoT0fKHwbYIQToOi3aKhftRjvvTkXxk43jXVPcKRrQHwT0Z2HsW03iKxXtZFfzY13xgHTqe3D82Nb3yMb8zMr3cGrkMCLwXlf//f75tbLsV1D44uDpbWPiQTjhQDb5w8HiPSvLEwDnSUDeOS72aGLLHwX30M3th4D0ZV/mTDn3ioaiFQOpFwSfFQPTIQbwZWHzq6XcGADbJBP89PTCGQPlST/TGQDNIAbRIQbMIAXSLRnEHQXsW1XoSz3gMx351tTUKBC5GwTEEQDZg3nzt7H+6em2GgTsYVTrmZL3amTbV0fWaVz2bGfnTkXVKxO4FwLnOiLuWlP58vLOOSXjQznzaGL7xsTtVk/zZmDyrqjpf3TgTz7ng3fKFwD73932bGbpt7PTGAPvtLDLIwznTEPzqqfwbmLhS0HWu5AIAAAALXRSTlMAz88Kyc/PJh7Rz9HPGgTPAc+2xk4SbyHjGi55rMXJi1mOP75AOlnGq7fdUdQxAl+AAAAFeUlEQVR4XtyRRXfbWABGZ+GTRU5Oki7rJLML9ycJjczMDGFmZmZm5jIzMw0zuk+OZEs+bmc7d3vfd/UkffW/Ip2dkZnFYn2dEBYrKzODnR5vX5i1t+tDFa8+gwL17e5lFTLmZzN3UNi0FMBuv0zIbSywZILRncyzsXv2OV95gLs4dDhyS/VzAlS3Rg6HFrmBct85dszzC9DSizeFeuuD4VHRxwSIRocfWPXCmxdL0YKoO6Tno03cLZVhartoTPk8Icqxou0pg2qL24TmU58yxyHmWjyi0OoTZW1t7VgCwlr5ZDUk8li4YkfO6T41qdhYLfKu6pRfiG7VO1ptLE5KjQSyHWtHgwubul++GN3mwuDRmiM7EshQaPuminp0/4Geoqk+rSIjEsiDuQJh2Yd41H8inigTCrhwXiSQ65I9Cg18y6THWQaIowZCj2Su3EggWSzrr3cyGWh/TdAWR9b3y8TJVKD3QMKksm1YD/i7nSkPeqlAmlgmcE4wkLQN2gi8DRKGdQpk4jQyYL4hqWTSsBAJnAjsDCm5YaYCLrNl4g2D9hqrLcJGQyXdTljMrtNA0jWz5fo0g5YO2ynrLd/Q7XWL+VoSFXBP2+nUtKjIwGRvG11Pu6MC541uew2NYEO/jUI4HqR5u9t4ngzA2pJgI53x78DUMPkp4IGWaTpYooWjAlDjnzT8JQZw+Q496MxCL2J9I0QFzsBa/jKd8e/B0LNM/Mv7ffQDfC185jRQfBlfvOCPhT8Chn9BxL8wlMhj9IVF/HIxFehGquf976OBfrCCN5iFOk9A4ceuaO2fr0a6yUDKnTopzoPm5uZJ5o4fg5lqXr5CvMN6q5yycxAPl9bdSSEDlzAEx/lqOYmaMwNmjzVyzQYITD7lUJaP4wh2iQoormAIgjQjPI56heC4E6ysnZoV9T8GolVFKDWHFz6KINgVBRl4uLYvDRekzeFGK0cTrhh/J+6tDsPxgsDMVY5aw2kNr5vB4f21h2QAbarApBRVvKp3b8Fooysc6BqyAZ79ViWlwCqaUCpQWoHFsHQPTPRX75pMprt/EN/j15+kWBQVpWTg38rp3TdtIA7gOI4V2RVyFPEKW56rMcYBk9qACySQQJ59PgbPXbpErSLVshhQJ4tOHVj7F2TNwGSbpaiAmJxKGdotmVmapcjn8xkJCfzZ+OnnLz5ZtyTwg67XZbtuB46eAeDX/cMv79KAF5ZgoMlnv3l9Pb1WZji/6XqWsnwTBUb9gSfQzdWUWeofLlFg0B9NBzx+PD+cGbg+HQ8Qb0BNdvpZ5OavMlvtFi31O0kVBVKdPvK9egLuzz8E3OnDFxW01km5gWWVaQ+R8StwfV7mxlDuQLG9zqG1NqMuw4DBaB3X8PY32P5z5c7GRfBZTqpDd6YxBgqwWttVYY/swP5jBc0ewez+zZU701gUyHA8KtyeKbaDXBuBZzjfc5/nuQwMYBk6wWvQ+xr4ZsW8huSdM9Q/NjSAT9AZDAYKVmvEO/LvvoATHDd4pHG8r9jOqjwwalmFqQDUe3hqK/ZGXr0iGL+FY28gqN8xyQTU27NVE9OqYNyDgyRzpwdhwESB+VDAhIGwKe+2kj61dmUz7ARCkpBmUj4xaUEKOYH1UpNmGZ9YulladwKRC0PkWJ840biIOAEyaAo0t+sLRwtmkHQC0VjZEOk050OaFo1yLOoEcCIsqZOCD7SoSmECdwKr5FbcVEWLXpglqmZ8i1wNuK8QiUuGIFoLNSxLFAwpHgEvAFDEznZJNwRZFueSZcHQS9s7BBVAVtYIIoaVJb2QmaugS2UsRhBrKwEPfFIgNjZD2JO5sNDmxmR5DQ9MWaEIXyj4/whOLh4g8cAseJQiF0BFvY//BzJTTrh1PVmYAAAAAElFTkSuQmCC'
p13
sS'twit'
p14
S'data:image/png;base64,iVBORw0KGgoAAAANSUhEUgAAAEgAAABICAMAAABiM0N1AAAASFBMVEUAAADdLkTdLkTdLkTdLkTdLkTdLkT////fO1Dul6L52NzdLkT98vPysbnjVWfqfIr75ej0vsXob37hSFvsiZbwpK33y9DmYnPrHwRjAAAAB3RSTlMAYL8AIM/vi50ITwAAAZpJREFUeF7t2NeSgzAMBVDTVu6F+v9/ukmWsQME96ed3HfOREZyBqFnmpYVpG26R1DX9QMrzNA/of6HFeenf0ADq5ChQw2rkga1daAWsUr5l9AXwoQCcCFLIcnhL6QIcg7AXARRcJkKIAVvEQUQhffgbGiCQ1Q2RI7Qmg1pOGbKhDY4Zc6ExA5ws0M0D8J8h8wMe2QO5JpI2be3ZEHG9o/tJ50BuSYyjNnaxnTIPazeUJEBaVeZmxWeDklb2aHHVTK02EePbDLEbWWnQhOh8fQTltCYoFATqdOR0TQIX24zHbgCUKCJzOXwSRJEbWWXO0WnQJOr7PoaZQK0fDha4R8T5B8PsdnY5ubx0AjejNGQ8EMmFsIc/MGRkIJAVCS0hqA1DpogmCkKmsPQHAXpMKRjIGmBlZwirCQjIHHfeNhCSwTEPaNg7mtD9+MhfB22BSHiGylXG0mAvBceiS9N+P/HgxCjvosQ703GcRjCr1Hjin2MfElaRg2tJERhdpeRkPH74XfMF6q2ZKm29qm1iKq2Gqu5rHukxvrwF1Ts0r64XjMIAAAAAElFTkSuQmCC'
p15
sS'gmail'
p16
S'data:image/png;base64,R0lGODlhDwAPALMAAP80Ff9vLf//av//bf+eJf+oRP8AAP9XI//aWf+5Sv+gJv//cP+NOP+YIf//Zv9sBSH5BAAAAAAALAAAAAAPAA8AAARw8DVClbWUNLnGWIsggt7SKIMjIAHgBojgDAoxrIABHDkQD5Qbw3D4CA4GhgBoEwSSocUwsAw6k4jstNp8Gr5gKvP2DCTOZS7ZUAgNCgax9VmQCeDyLtuOr6IEDAAJdgkASjQNHSIejIsmEgQXGZIbEQA7'
p17
sS'related_to'
p18
(lp19
V\U0001f171 Negative Squared Latin Capital Letter B
p20
aV\U0001f18e Negative Squared AB
p21
aV\U0001f17e Negative Squared Latin Capital Letter O
p22
aV\U0001f489 Syringe
p23
aV\U0001f3e5 Hospital
p24
asS'name'
p25
Vnegative squared latin capital letter a
p26
sS'known_as'
p27
(lp28
V\U0001f170 Blood Type A Emoji
p29
asS'default'
p30
Vtext*
p31
sS'bw'
p32
S'data:image/png;base64,iVBORw0KGgoAAAANSUhEUgAAAJAAAACQCAYAAADnRuK4AAAIJUlEQVR42u2dHVRsXxjGDwRBEARBEARBEARBEATBwEAQDARBMBAEQWsFAwMDQRAMBANBEARBEARBEAwEQRAEQRAEwbnraa3+63b/83HOnP2c/e53v89ar93V7e753dkfz/uRpDnVbDbT8fHxNEkSC2Wxu7ubfn195eIhyfoHPz8/062tLVto5VGpVL4/a6cAgUr8YFvgOGJtbS39+PhwB5DBEydEWbazoQDt7e3ZgkYa9Xq9GEBXV1fp2NiYLWbEAQZGAggHqZmZGVvEyAMMDDoP9QXo4ODAFtDiO3CMyQXQ+/t7Ojk5aYtn8R149wMTmQE6Pj62hbP4FUdHR9kBWllZsUWz+BVLS0vZAMJXld28LHrF29vbcIAuLy/VLsD8/Hx6enpKjWq1qnb9zs/PhwPUaDTULsD+/n7K1s3Njdr1w818KEDb29tqF+Dx8TEtQ7OzsyrXr1arDQcIHojGf/zy8nJalrS+oa2urg4HCH8opmsoQ91uV+VFJFqA8BDW6wbBFK69BpCi1ISypfEyEi1AuF6XrZeXF3XbWJQAYfvKk6Jp25gB9CvwsOdL2jzFKAG6vr72BpA2Wyg6gKampnKXqbiWJmsjOoBQ5+RbOMAbQIHG3d2dd4CQDqolOS8qgOBH+d6+fgQPyQAKLA4PD1MpOjs7M4BCC/hRUoRvQg3bWDQAISVXmjSkyUQDUKvVEgcQDvQGUACBhzv4UBKFdykDSHisr6+nUoVacwNIeODGI1Whb2PqAcJNx5fzHoNDrx4gdFCTrpATzdQDNKwVSV49Pz87P5CjMsQAEtqGxLV1gUT8k5MT599CqBAxgITFzs6O8w8aD5KMcqBOp2MAaXfeX19f/0sGc72NIdEsxFbJagFCzbtrYev6+fntdtv5zw+xcalagBjO+98VuhsbG1RADSBlNe9/b1+IiYmJzH2T82xjoTn0KgFiHHJ7fTvg4Bu7Q68SIMY1u1eDic3NTed/D96tDCBlznu/GxKjwgM/LySHXh1ADOd90BvN7e2t878vpFYw6gBi1LwPquNidDh7eHgwgKT1Li5SgjPogY9VqDg3N2cAlR2MQ22WIkBGrVko25gqgFw771CW+q1ejSZdvzsZQAEmjmX1pxYXFyl5QiH0plQDEMN5z+OQ39/fR2ltqAGIcQ6B31WkX3JRhdDRTAVAqHl3rbwNEPrNjdC+jakAiPEWM8p4Bxx8XQujBAygALvNj9I9A+3rXAsXA8mJZsEDxHDe8aGNklbB6nyPyhIDiBTNZlPUtsFoXi7ZoQ8aIFbNO54ERv2dGDlCkh36oAHq9cu7+LCKZAX2ml7jQujtaAAFkDh2cXFRuAsso5Ra6syxYAFiOO+uDqysZg4olDSABDvvo96+/g3kNTOEWe0GkOCWLehgL7WkGpLYCiZIgFjDUlweVFn9qFEwaQAJbdniMguQYa5CePcygAoGbiTStwdGaTWE9jIGUIGYnp6mbF+Mgr6npycKRJJawQQHEOuGAzBd/66sob6SEs2CA4iR+YfarpCam0tKNAsKoIWFBcoHgnwillfHmgyNAkoDSMjNhnk1ZpirkJRhLUEBhIpN12I3uGT0EZKUaBYMQKxkLbY9gD5CrD7VsHMMII/pomUZlMivZkhColkQALESx3CjC7Vm7Sd3ybdDHwRAEmd9SVGR7MloAJI8LMW3fDv04gFiOe+a5NOhFw8QI3FMm9DS2ADqE8hRNvl9ywoWICSou+7FrFW+HHrRALGuvxrlK9FMNECstFCN8uXQiwUI6aWMxHTN8uHQiwWI5bxrVpaGoNEAxHDetcvHzDGRALGaVsagsh16kQAxWrbEorIdepEAoXTFNJpclWcHCxCjZUtsKtOhFwcQY1hKbCqzFYwogHCDMOuiuMpMNBMFEMt5x7kA5yqJwRKrVEk0QIxhKZDkkQEsiMpy6MUAxGoNB6GLvFSAWOXPZf27xQDEct6lz5tg3jpRyRINQOgOxlCj0RDdZR9wM3o9Qtge2f95RADEdN4lb1/MbrNlOfQiAEJOL0PdbjeIqX+VSiXYbUwEQCznXVo7OB+VJ+gOwnTovQPEqnmHpDWk9PUCzxzW4h2gdrtNWbSyypald/GAmDPHvAPEasDks1Zq1C4erIsEtkfWsBavAOGGwBLGYIYEELsGjjWsxStArH0f3VFDuH2VWcbESjTzBhDz5iFxpkTWFsZMh56xjXkDqFqt2u2r5GICxjbmDSCW8y5xIImER1VWopkXgPBVzbpx1Ov1oAGCrcOU629nLwCxhqWEevv6NxhjzFmv814AYnSbLzsXmBmtVosGEPzB0gGC2RdC0aDUwbTSCitdZij0MoIT5rmCVTTIfG3VlOrq2qEHG0MBQtql9P3d1bhKKcHqi+060azXdvs/gPA24WphcMhlhKZvnx9vjLVWCFcAYdLRUIAgbR+QRfFACXWv55ik7JwSizCjXx1fovGF16K82bVJv8OXpFmdFnKfGpJBPlOIaRIW7qPX4XkoQBBjurFFWFGr1QY+EyTDsvw1+E0WowW6fgwbvZVk8VPwTmELGlfg+JKld3eS9eVXwsxOi/Jq17JOXkzy2AcGURzw5EkATPL4KvhKQ4KYLbTOwHk378iJJK859/r66jTlw0JOzf4onUOSUV1eVED6HgJr4eamVWTSdFIkVQB5OZ1O53tQrj06hhVINEOrmaKNTpPUkbC1oXgQRixsEDsryapBw2eCzwafkcux6s4AMsUpA8hkAJkMIJMBZDKATCYDyGQAmQwgkwFkMhlAJgPIJFh/ALvj6kcT5qywAAAAAElFTkSuQmCC'
p33
sS'version'
p34
VV6.0\u02b2
p35
sS'uni'
p36
V\U0001f170
p37
sS'desc'
p38
V\U0001f170 A symbol representing Blood Type A. 
p39
sS'browser'
p40
V\U0001f170\ufe0f
p41
sS'annotations'
p42
(lp43
Va
p44
aVblood
p45
aVsymbol
p46
aVword
p47
asS'wind'
p48
S'data:image/png;base64,iVBORw0KGgoAAAANSUhEUgAAAEgAAABICAYAAABV7bNHAAAAAXNSR0IArs4c6QAAAARnQU1BAACxjwv8YQUAAAM3SURBVHhe7ZrNahRBFIXrdpu1cZDEv13ErSjZKy5EMItJgiD6AC58Ah/EhSiCgiKGJCNEkCxE96L4ANmpGNFJXGv3tar7TE+muyY1k0lVz8j9oKlzkwmBQ9/qW6dHCYIgCIIgCIIgCIIgCIIgDAxhHZjW7PR1yIkkORJ9Xv7a/oLSyQEMajDkhJIuNLd3X6NwEmEV+iAGORCDHIhBDsQgB2KQgzExiDftV/2Mwxy01dxun4XuYX2m8ZJI3UB5SEzaHMTqPpSF+u+i+g1Kk3dQFRZ/7DzSBrZR1kKtBjGrlebP359QWmFSq5C1UKtBRLwGmbF6unEGsoApfQZZC/UZpFunub3zAlVG/Dc9X04Llr7vvmfmDyiDU59BpB5DdeHoHDOdRFVAip5DBqc2g1JKNyALWPEtbcdVlAXJlFqBDE4tBpmWMa2DMqN1/OgFIpo3c4/R+HGGCbjMho4yKHXdQQ+wdoniy1C9GpQ39FDUYlA6RW8gC/L2ytmrO2BD38qrcAQ3SJ9THpYz4U57odR3C82X2wysYw1GcINI8VvILnFcuWNsbaaSJPjTLLRB+mDaO/uARaxdSN2FKjBTd+iZKLRBlRZZOzF9SS9zedXDHH5XprrBeySsQZYWIY5uQ1aIOFqALMg2+IAH2IAG8abtYEqsliFtVFovm4kCHmCDGWQb9Fqzx27qvaaB0sZc9pkSpNJXkN4JY5BuCevsw7QE2RdWdAWyAIlgkJkoiEGmJWzvw4nSJyYC3e/qG3ewegrllUCZ9HA58CBkg2Qcf0Q5BOOXSevZ53DNMeQzkf8DrH+D9g3lR8V/qO+/xZLkYvnxnrcHnUI5GAl/s40JrZnGL8eTsMQYtVi/UJ6j+J7+1xvDXPnfVPE9E3lusWoLmGD+IC8DbUGawXeo788gPftk77VKRH/4GuTwWE74SCa9zUT+DLKF8hnVzHlQbEFahscHgTeDbKH8QdurQ78gzWeo78UgWyhvGKm9OljCNZ+hvheD9nmPdQfrKFTDNY2vUN+LQbZb3rTG3tx5BPQJv/pd7Syp9JATyfekHfh7iv0niEEOxCAHYpADMciBGORADBIEQRAmFaX+AW2mRBBi9fzRAAAAAElFTkSuQmCC'
p49
sS'andr'
p50
S'data:image/png;base64,iVBORw0KGgoAAAANSUhEUgAAAEgAAABECAMAAAAV8YMOAAAABGdBTUEAALGPC/xhBQAAAAFzUkdCAK7OHOkAAALNUExURUxpcQBsogBsogBsogBsogBsogBsogBsogBsogBsogBsogBsogBsogBsogBsogBsogBsogBsogBsogBsogBsogBsogBsogBsogBsogBsogBsogBsogBsogBsogBsogBsogBsov///wBsogBqoQBrofH3+kuXve/2+UWUuwBroujy9zGItMng6wRuo/r8/Rl6qwFsov7+//z9/v3+/vL3+mioyOfx9gFroQpyptPm7xN3qUeVvNzr8rLT4wJsomGkxXuzzyaCsE6ZvqzP4SSBr/P4+zeMtiB/rgFrotvq8uny9zWLtZPB2PX5+wxzpvv9/VGbwMjf65rF2ubx9gtyphd5qoK30f7//xZ4quv0+DOJtfL4+gpxpdjo8a7Q4fj7/erz9wVuo3myzpXC2AlxpUmWvMXe6jmNt9bn8AJtogNtowZvpN7s83qzz02YvvD3+hB1qEyYvQhwpZfD2fv9/hh5qjaLtvT5+7XU5HSvzLPT4/D2+fb6/Mff65nE2g1zpyeCsCWCsLLS45vG28rg7BV4qf7+/p7H3BJ2qTiNtxZ5qoG30V6ixCWBr2KkxcXd6gVtowJto3qyzpPB12SmxtXn8EqWvUmWvTOKtQdvpH20zyB+rWKkxtnp8UyYvvP4+sTd6WenxzaMtoC20CKArsPc6cLc6WWmx63Q4X610FCavyF/rg1zpieDsOHu9Mbe6szi7BJ2qPv8/SqEsfn7/bTU5DqNt1qgw6PK3bvY5i+Hs73Z52CjxQ91p9fo8Ovz+JLB1wdwpAZwpN3s8x9+rR59rQBpoABooKLJ3UWTu12ixEiVvDKJtOz0+LzZ51+jxfj7/JjD2ZbD2Ye600OSuhR3qUaUu+Xw9rrY5rrX5tTm73WwzRh6q3WvzUyXvRx8rHmxzu71+R19rff7/Ganx8ff6n200LnX5ZTB2E6Zv+Tv9SyGsqHJ3fT4+xt8rFCpxtcAAAAhdFJOUwAL70zd0gUN0QL2wbb9PMzWYULpTjFPqz2UBLIHxZoIyGxLXIwAAANKSURBVFjD1dj1UxtBFAfwtEXr7rbsUnqUgwQvBQoUKBR3K23RFrcCBeru7u7u7u7u7u5/Q5MM8k6SnMx0hu9vudv9JJds3ts7hUJh0qqlhZw0a9HWXKFJ+zYWMmPUUeP06GIhO91N1JCpsXyoZwMNZCYfMjOtfxABkQNdPNSnNt60dIhO3Wtdm8BjSqkQ8c5FIPsOSIVcnMIgZJmBJUKhRxAj51OkQXj4MCZ0diCRBHnGqpjQ4f5YCkRiJiNWBkRTEiC8048NOQdhCVBOJNtBDisDxENkjjsHQvOmENEQdrLlQklLsViIGufBdVBcGi0WwhsTeCCUvJmIhEjsVD7IdjUWB5GZEYg3QwaLg7BPCD/kvByLguhpYHIVQB28iBiIjIeL6HcleLHFjRIDbbCvm/rnB6xLfv2wCMh1FPgMfe1+/QQvgxcIh/AMWImCaYa7ZBcRDCk3gYnl4dilwgEspdlYKETF28Ar+0vhIGdwYHu6UAj7lIN539V/r9Bv4EAUtyrpgOixYFpIuHpaQAWouqpUpTCI+AbCK3un/m5xGby2zOkCoW2wEj3M1nam57DBLcOCoOiJYNKncO0k6g38wwWnCIGw/yB4ZR8J92DyKiIA8twBFg0qqd7ZuL4AB4eyGxwfROLHgCkjP5faaVP6iNHgXA1DOD8JQi9tqgN/SRSVSAxCKyKR4dgvdDEEEW93ARDa6kYMQLztjBtHZlXiQtRuDyEOils0Xz+E/RMEQWgEY6/EhQJmqYRBtnOxPojERCCBYTQ4DoTXjhYKWSdiPVD2JMbHr7JipAC0FqSCDY4NkQlrIFR5qzfMDZ9MeHY9aHAcaDF8z/v3rmFGrubB0+vAUmJD6YxFlOtL2PvlO/B8WpYuCJfBooOuF7O7S+FdHUuJBSm/In1FR31P4QVLVdhNzA9RT75A6JIvp6Pio+cYVamYH8L5jI318QvcjeWZU3DEs9uYF6IfwFEHT/PsOjzzGIvylZIXyimxcrSsScGJyzw7KnJyf90Qxw/vs/i/7NdP3/aqScYV3n2wck9R7ZCix4U6fjUKrj4dd1QEjqHq833//4a6aR6ydO0gH+rUWfMAqbWRXMe4nfaJlnmjJo3lMA2bNlcr/wDXzMDMmnQCxAAAAABJRU5ErkJggg=='
p51
sb.