ccopy_reg
_reconstructor
p0
(cemoji
Emoji
p1
c__builtin__
object
p2
Ntp3
Rp4
(dp5
S'emojipedia_url'
p6
Vhttp://emojipedia.org/squared-vs/
p7
sS'index'
p8
V1242
p9
sS'code'
p10
VU+1F19A
p11
sS'apple'
p12
S'data:image/png;base64,iVBORw0KGgoAAAANSUhEUgAAAEAAAABACAMAAACdt4HsAAAC91BMVEUAAADBRwsAAADATQykUgzAUQ3BQwkAAAACAADbQAnWPgi9WQ1FFwAAAABlHAOMKAUAAACcLAbAVg3MOQjTQQmqUgycRgqdRAmiSAuhTAugTgy9QAq2PAimMwfGPgm6MgfCOwmiSg25Vw60Uw2URwuoUwyTRwqsXA+bSgr/////fxX/eBT/gRX/hBb/fRX/eRT/dhP/exT/gxb/bxH/dRP/lBr/khn/jBj/dBP4Xg//hxf/tU3/hRb/iBb/kBj/jRj/lRn/ihj/s0j/qTj/tEr/mBr/rT7/qzz/qDT/gxD/oyr/fgr1khf//Pn//f3/nSb/oCj2gRXjdRP/mRr/qzn/gQn/pTH/hQz/fAfjaxHjbxL2ehT2ixj2cxL2jxn/n17jehT/pSv5ZhD/iQ7/gA//uXv/3sP/nR//z8rkZBD2hhfjYA//5Mr/ljv/iR7/mR//nyP/8u//chP1Ww7sWA3/RAT/tXL/w4f/yJL/vX3/r03/rmX/py//693/jBX/yaHkaBH/okb/kS3/o1T/rTrlWw7/y4neUgzxZRDnTQv/s1H5bhH/oD//9/f/hBP/1bv/6ND/kCD/4eH/njf/kTf/dwj/cQn/nnz/TBP/tJv/XAX/r6f/cCP/jhH/tIH+fxX/zK//gzf/0qn/qVn/17P/qXHybRHWTQv/2sjjfBX/zozwVQ3/hVb8dBP9aRD/eU7/XTr/ZQz/6ez/qkn/gh7/5dj/clv/lIP/y7v/ybf/fCn/0I//czP/dhv/urH/vWj/w2TahRXEchL+79v+58b/4bS8ZhDdig//wGD/6cr1lhb/v13/uVT/x3XPdRP1oSK/bBH/xWjlkRD/wmLigRX4xnr/7NbPgBTtpDHpkxD1r0P/sEX/vFn/ulb/vlvmjhfXehT6s0nskRLlkRayXw//0IX42ajhkxv/uVH/yHH/uFD/58P/tEv/sUH/9urwlRH/xWr/xGb+uVr/+PH+05z/8+P/ul//rkHHdhDilyL/+/X/ulP+8N5FmTx8AAAAKXRSTlMAzwrPyc/PJh3Rz88EIENUEm/PuuPQVRp5tMXKtovUjsI6xqsr3TL7pyVQwTcAAAXWSURBVHhe3NDHcuowGIDRLLKDFTMGmx01ef8nkOTeK7333luSexdRGAfwJGPQNmdnS/8njZ7+ljz9mny+K/lK538NxJMvgoXQ2x0IWcJLMv4jkGD6qARFcfR+x0gUYQn1mUQwkKWskuiUC0OuyP4PwRa5YaHsiCWLygbOzyHolPfLj2VR5mYhOLmIN+3LDkS52zswCFaq7I4fTNb2JpS9ngz4HVutQMTcvJ+A5w+c7gIbW4ewMeDq3AEXhMtLRimjZ8o8Hn8QcHnZ7BlU1A+kBLgqzCSweRiQZoUVFFJ+gDZaJj+RAAFpwpstg/YDmXa3s2+6RJr7Tred8QNpuNrqqkRE1bcrmPYDEU85ApUQOCpe5BrQpCYhSQsE5mqdkDoPBGr1BqF6LRBYNDRCjcU1EPOUkzb9Mv6HjaffNPx1XtDOP69LmHZSvNgl8Ek3ufS0jUVxfKqqX2C+RaQy0nRkI/kVO46J46TYiRNnaBFtRCBR1ZBkgSABEl5igSCUd6G0ms5QCRDS0OdjnotpFyy6q7pB/QKIsGgLSKiLOec6xEaj+a3O9f3753vu9Q237LPIuKZpyRpbxzcIw0Efu+9Xc8Ls7Cytj7OYI+y3hN2CAOv3+w9qpRvAfO3ATxgcg9EvNXbQm33w08bGTOXRghBj65Ns4JxAPvABLVseoD/p9yHjJRzdqaWzM60em+nKqAaTyIHsCC5thi3fHnDy8RRSH7Q9xKf1o+D39FjB4zCUTfrsaSu8eelMcDOcPyEE3kCmtaSSgXEHBqfsPHn/6tERyIHn+ridzYdvugSmetICqBOY6cuT+ulVqHfzFXz09tPe3uTEIZZFA5MnqukWdChpOQDIk9jDbT0Gdb4P41vGP6hRVVmWk3+jstsgybTScU5gpq1YTJatXVzuSBLiuW7sYDKAn/0ixgI4+wHqI1mOxay06RZEO0TFNHVLVTXSQzEH1RTpQCOCoYeLgqHK6uTx8fEnWbV001TEjqgjaBcVRRHFnG6UyCopy1K6UDWR13ZRWVjZXvshJaSTScPQcyKJt7sFFDHQwG087nnDokkHJUN/57EpZJa31x5XcxRNY1qkHMHFaDs8AyiK7iRb96iTWpiG4o0OH/ziafDk3s6qQFEYpuj26EW3AAH5fdL666XFZRR1xRmGCw4MOYrpl4/BAPyfQChjD4Xfll5heiF0GfixZ+Dnrw3F8qL4H8G1WwJdR7B7uLFWwM1MXbnSxHFcNZTqGelaP7TX8PC+nbx1zSXwOoIRvDkr26SDUNPl1d7e3rvf8XwinhgtfkbDgwRJes8LhDPKEl6BuQyeQTbIfb+SyWT++pPnJUni4wMoryRI0C1oi0jeBol+T53uIMeE1vF6/ZHygsBbflYgApKTIm0uAd/cwO7h7AziXVjd613im6Xg6q84VUyQHO8ILoBAagjKzfjH2x0wTHD0MzHs3IWteDGHN2WqE2MSCC44AkZyiPc7HcASimTQOpfJPIECO7BjjEswHOF4h8RYvYMQBzSl0OcwI9VjXGTYEVxvYhyqPUckmg3i+1w15foTD/uYYD32b6d0j9o8DAZw3NUQqSb+wtnyOcdO7DodXMgFii/wgvFiQsGkeJBNllJaWoxtAr1CoIVkCMlxepoOFUGJVTLEen8gtOj5P4tGfhWIfHPEuH9fEE8j8ocOx4u/Xh6+f54fPxdv3seUvjL96DxAef8IzzkVTc+bTeN4Ri7SPw80In/lXGISDmvlR40qMDS5DZnAPBgPuY2D+THQ/t9AmwY6WWCNuVlB1qGBbr42rBtOlrHOuzSgbIqdYXEydsVGoQHUy5a2wcleZj1EA6qWF5izYOMi11QaAHCQhtjmgsN0AIFASXIrDSfubW3uJExbsiQcAXgoYIzdGsizwzwEwgmCsl4m4X5Syz5MSl2GSKg0JQg1sdwmyd1FSbItRQ1CqSkwAClApa+L1xeJel+BZB4IfzQR5ILofgbgSKBqPQuoqBaVHf8Fgn6KOoarGtQAAAAASUVORK5CYII='
p13
sS'twit'
p14
S'data:image/png;base64,iVBORw0KGgoAAAANSUhEUgAAAEgAAABICAMAAABiM0N1AAAAUVBMVEUAAAD0kAz0kAz0kAz0kAz0kAz0kAz0kAz0kAz0kAz0kAz1lxv3rEn1nir6zpX848L83LP71aT2pTr6yIb////96tH4umf3s1j++PD+8eH5wXZCCVdcAAAAC3RSTlMAYL//EABA31DvgOiRhN4AAAJrSURBVHgB7ZjbluIgEEWjiFG5mVBckv//0Gk7PeaQAnutMW/jfuo2uimKw0LpHhyO4g2Oh5OUspPy3Is36c8P0UXswEV2p6vYgeupu4lduHW92IW+EzvxEf03IqW1VjWRsc7dtahhBucGfDR6RwthiKYUpUwPouCMm0faUcFdg0jl5cVs+BwmWtDLv3di2FU042slsXg0TlRheIo8/ZCZKNAPbp0mY2QiSttOr71Yp8mY/4oSvr3A45st/SYS61BKIPgAqmtNDQeOAtHY0IFWsnMuY/sWEQwWBDJg8/KqWYYb7XfBQUGy13hglNTzs5MQI0wFUu5TsUUii1f5qscVGV5tWhh7xWGdHq1tkS2jxEMEovBKZFjh25x62BOqLRKOR2kqpptw9a1piiKLki4XwFBBsJqLynYHFiIDBQJ5SEzEPwdmt62ZzxFEEDjbmGugGlZtRCJgbyHsmQe9II+lCErQ2FvIugpUJZYilTFKc3X3+XpRI4qg3VnBGgWBKD8RZ0IRtjsWf29IlrsiiqAKV1THGWfHSwIR9AX7VUXFQIApRGrdANjHFho6n1CE6eat5uA550uRrnaxjW2J+MZU4hW+KZr5sf5vFRkq0Q0D23xxIxL3TTwAZTORm011bcatKLFDnZ0pYTbsK1fm3yGnVqsjO7EBy0W+1WpLLzBcZFqtdtTGCxDxdk+tUnn8a6KE4wCm7VEgAjJOHIivPVzkW6lO+fdTpCDgQIiaA20Y2LmGzM45Dx7AxOGZoHyfzZs/aoz+4vPDD/mIjntdshz2uvaR/U4XUfK809WYlJfrPpd1Up5u/XvXh/KLPwmIq11J3xiHAAAAAElFTkSuQmCC'
p15
sS'gmail'
p16
S'data:image/png;base64,R0lGODlhDgAPALMPAJKSbmtrmPplEvn2CpaYq/XbGPuyE9jUK/2GD6hoWvg1BlJUub+wRDQ0yenrfAAAACH5BAEAAA8ALAAAAAAOAA8AAAR28KlHnzGVziykz8/wCMiDCEpXVMglFAZ5rcZQ2HV8D+XjBIfBAAAYNhqA0rA4CDAYgQJjoYIODkCikBEzHBYHKwMpRCEKRAZhYIAiDQoFYhogwIRfkcLbWDgMCUwLeghNCwUICQsBjCsSNwwCJAxEBR0gGT0PEQA7'
p17
sS'related_to'
p18
(lp19
sS'name'
p20
Vsquared vs
p21
sS'known_as'
p22
(lp23
sS'default'
p24
Vemoji
p25
sS'bw'
p26
S'data:image/png;base64,iVBORw0KGgoAAAANSUhEUgAAAJAAAACQCAYAAADnRuK4AAAKp0lEQVR42u1dH5RWTRxeCIJgIQiChSAIgiAIgoUgCIIgCIIgCIKFPSdYWFgIgiAIgiAIgmBhIQiCIAiCIAiCIAiC+51nz7nfd7vf/fd75jfzzsz7POeMdM6+zb33mZlnfn83mglsbW01GxsbGms8wIEpbIhAGiKQhgikIQJpiEAikIYIpFECgc6ePdt8/fpVo4KBb5mcQHM/LJSDkO8sAgkikCACCSKQIAKJQCKQCCSIQIIIJIhAIlACfP/+vfn48WNzdHT07/j8+XPz48cPEUj4D3/+/Dkmx6NHj5rr168v9jOeO3euuXHjRvP8+fNopBKBMsaHDx+a+/fvN5ubmy7OzcuXLx+T6devX/UQCCvq6tWr5nH37t3kH/TJkyfUXPF3Frx9+/b472J5yUFIzOn37991EIh5CSdOnEh61gNYwcxcX758uej3v337dvw+8Gwpwi0uXrzYfPr0qWwC7e/v0y/g8PAwqQ45efIkNU+EPczhzZs3zenTp5PH7OCZcKwVSyCsAPbhDw4OkhHo/fv31BzPnz8/+9u7u7vJdp2xsbOzc7xIihTRZ86coR4a230qgKzMHCGCp/DgwYNsIgjv3btXJoFu3rxJPTC2/FS4ffs2NcdXr16N/iau5bmFoWI3LI5AuBGwD5xKSMOm4jk/2HVWfWyNjRcvXpRFILxM9mGnVrgXQAJmbhcuXBi1ILPHdopx6tSpY4t2MQSCeMOkmYd9+PBhdALhhuSpf65du5Z9RgXsUEVZotmXir+LDZDUa3fEv5WSlrPkKMuGQKw9CHYMD4vqFBirMPTNkMuANUauYuCYnXu32RAIfh/2QUOtqVMACRixe+nSpf/9FizSpSUHztnasiEQmM5aepe6ChiwAn9Im8F1UBqBYCqZ2oWy8sazDsQ5Y10I2KP19evXf/3Oly9f3D4oDH5wP7TxP22WKHZx6BYYJz3JOuXqyIpArGFtibuAxZ07d1z0T6jREEciSGlxN4BQMICG2pumLipZEYg9LvCCYglppkgEhHIfV65coT/g3t5e0PPBjxdid5qKfMiKQCE6CKvNGzgWmLlgt+kLcfa5nj175vIsCBVhrelTx1h2EYmsDorhmUdgFzOXd+/e/fU7CDvJQdvhtsoabG/dulUGgVitAIesN9i5/Pz5M9iTjyPHM/Q09FIw9s2yIxCrg2IIaWY3xO2nD4TfWn8HN6kYgExgi38N+ceyI1CIDvJescw8huw/29vb5t/BQsrNNDFkb8syK4PVQdAsqxbQQx8eXvlcbpWtFmJvg0UQiNUe1mCoKeDWwYRBDH146xV6LAzEE8y1fkjUZ0kgVgd5hrgyBkQcVUOwGvKWhlKEgDlWhwyKWRKI1UH4XSYwfAiM13zMlBArFicE2E08HMTZZqayOsjDM88SeEz4Wn8HBr/YYMKIh75btgRidZAlntfzCAXh+vYflkAxbpR9wNiJY9oyhm6Y2RKIzcPyCHFlrrlTxw7jzPRYCCmQdXEFL0dmCgE9dMVtMVWMe4qQXnpubQnEhlKE2lAY4vb9X11AfOaeeVslgRhbTKhnnjEgotrF1G7BJiUOBaaJQAYCsdbgEP3AxC3POXJDg8mg62KL6ioJxB4nTI53yMd+/Pjx5G8+ffrUpaYP5pa6pE3xBGJ0UIgdhbE/zTk+kYnqWY4FCwTHdA4iO3sCsTqI2fIZA+KY/8tjJ10aYA8ncuzcuGIJ5OkVnwPiXWL539jsVssRB7EODZdSLxVRZJNZvTAGWsHsdnP6p2v5TVl1DM5SmAFiJl0WQyBGBzEhrsz/Y/lAjEHRYyAjBERHbtpaEojZGRghjbBYz56gfcBavepMU7wXhMvCVbQ2BGJ1kOXKywhoa6lhaJOc6gJhwcDEEKKZiik0zugg1PWJ6YFnXA3srTJ2FQ62UmsxBPJ2cHoYEFmXSa4FpuCzQ++NKgnErFxLiCsS56yrljXkIUt0FTWhlzqjEVu+9NmKIRCjgyxVXK1H5Fim5lJAxHr1wIhV8ncJiYpqtsLoILgR5sAU0Qyp7t4Cx0WuO1FrCpkjUVEEYnTQkg/N5K4vaV+wBCB4zMYqoQPW7WoIxOigJQUKrG4G73ZVWOW4Tud6pGFuVRCI0UFLUmSsHYOwE8YAgvJB5twKkMNhPGbFLq7hnFUHjVVL7a5+q3HPQ//MaTLchFbl+rDcaIsjEKODpsz2THVYL/2z5GhDqAbaVuawKw211yqOQIwOmjrDEf66Sv1jcYNgrrgZrermNrQLFUcgRgdNeeatKb6x9I8F8NvBTYO5h5St82ieV2TTXasOmvLMW0uvxNY/DHC0pCJTv/5jkQRidNCQZx4r2aotUukfFrgtIZgOAWVsoS5L4maRBGJ00FDjE2uUYGntyrFooP+scU4W636RBGJ00JBn3lr8Mgf9E+I2sTqMl8SbF0kgRgcNFUeyvtAc9Q+jl0KD2ro6qFgCWXUQrKl9x6D1Reaufyz+t5BjrRuJUCyBGB3UNccjJqdm/bNEBrD2JATpF08gEMB6g+q2DbC2sSxZ/3gZUYe+X7EEAqxhEN0geKsH3rOEcC6AGYPRQ91AvaIJZI1j7haJtHTPCWmrCZJbR4z8rTGwGbNVEMiaSQEitAZFy/kfUjU1tw6MXsdYFQRicrlwjbXWX+yb7y1gvOgpWpl3r/VrSyBGB6G8rbVeT0jfCiamJ0Urc3YXr45AVh2E2BpkHKRqK2511lqzSVaxA1UjopkVhIe3WLFDq8YjlMQjbCIWmOpp3eiG4gnE6CCLLgnRP8DOzg5FIBy1KcD0MqvCkBiig1L27WK6FY71pYgB5ojtBuhVQaDQKqix9A8QUljKmqeeSkB3IxuqIBD7IlJ0zWGC1mK0r/LcubuxVVUQKKRNZkz904JpHbUkIWAVBsQqAspS6SCvvqWskG4Fv6XO0dKrO9v+u99NsRoCeesgD/3TAlomdD6wTofOB38PMofs1v1u0tUQyFsHeXcNZBuudAes2rjeW6vV48jBbdAj07Uv7KshkLcO8tI/LTxL2+FYQ9YFdgMQCqEmWEDtgDMW/45UH/Sxj5WRURWBQsWqJR2aATJLcy4oVVXfeBZMp8HY+ieFvSrFwPE39E6qIpBXNfhYXZPxAXKquOHRQqsqAiHrgr2edgdKq8QC048sh9IuY6XuqiIQYC0W5d3xcAlCOhimHtBtU5EB1RGIdV5O5Y95A5XIYrR/ijHmjJjVEYgpGBXapIUBAudzrtC6tBNRdQSCUA25LqeKw2kt1Lle7fsW57UhEBDSSgBN51IC9qacGrC0l4jqKtWn0EEh7QtCAFcDLMs5VGMdKoOzdgRinZfW9k3ewPHpYYZgBgjMJDRWSSCA0RaxYm8swJUZ1S9ixDeN9QyDn47deaslEK6feDGWkVNPdhxrSD+KtSPByYodL9RlUy2BagGcsFgMIFNoEU2ElMAf52koFYEKA3YmRBTCRgMyQLfBdtUtzoDkSZSjwW2qDfeItbuKQIIIJIhAgggkAolAIpAgAgkikCACiUAikAgkiEBChQSCpxxmeI3yx1TUQzQCaazHEIE0RCANEUhDBNIQgUQgDRFIoxgCCcIcRCBBBBJEIEEEEkQgQRCBBBFIEIEEEUgQRCBBBBJEIEEEEgQRSPDGPyntRM7OLSm7AAAAAElFTkSuQmCC'
p27
sS'version'
p28
VV6.0\u02b2
p29
sS'uni'
p30
V\U0001f19a
p31
sS'desc'
p32
V\U0001f19a 
p33
sS'browser'
p34
V\U0001f19a
p35
sS'annotations'
p36
(lp37
Vsymbol
p38
aVversus
p39
aVvs
p40
aVword
p41
asS'wind'
p42
S'data:image/png;base64,iVBORw0KGgoAAAANSUhEUgAAAEgAAABICAYAAABV7bNHAAAAAXNSR0IArs4c6QAAAARnQU1BAACxjwv8YQUAAAPLSURBVHhe7Zu9z0xBFMZfOhWRiEZLI6EUIdGgIUEIPY2GhJZEQ0tCQQSFjqCi8ZGQSERoCA0dKhLxH3CenTPr5OTcO7NzZ/bd3Zxf8uSM/bh793nn3HNm7lpyHMdxHMdxHMdxnFljBcc+NpIuhuHCcYv0LAzL2UL6u6A6TuplJUenAzcoQc41CCn2IQxHvCKdDsO54yppVxiOOEG6E4bl6GvQPdK8gnOX38WvQUNxgxK4QQncoARuUAI3KIEblMANSjDvBqGJPUxCwwft4cemSl8n/Ykkn/tJKmEDSR4Hwpe1wGux/YLP0u+RekmCeZKpd9K3OUbWkbaH4URs4yh5x1EC076TzpHwWX1gzXU0DMsZatBjjpJ9HCfhFMfIDdKfMBwDc56G4fQYatBX0ucwHHOQYy5IGbnCBnc5RvAay5z7pCOkray9pLMkfU5NSa3mkefyeQjbtLno91vXsTMk+RoIj/WBVNdbxcuymn/LUbKfYw46vW5ylBzgGMEMuRKGnbwhnQ/DcmoY9IOETTQJNqJysNLrCUeJfs3UUqiGQeASx8hmUk6a6eqFL46/vEYbsp5jc2oZZJXknDTT6aXbhog2CDNqKg1hLYNQklGaJak0s9LLahsA7l9pnpOam1TLIPCIYySVZlZ6oW2wwAzVswiNIm4moJqtwQMtqGkQ7lD+CsMxfWmm0+syRwvM0EMkfXyA930hoWRXN6qmQUCX6K40s9Ir1SVjdu0g6ZkEMJtw/XpNqpp2tQ3SJborzXR6oU1Au5ACJu0koVu2wOch7fQitZjaBqFE67+wlWY6va5xzAHphiZxEwlLDYsHpKn94CK11NDoZQG2RCRIL/k8hMdKwfnpbZeoZd/usNClWqeZTi+0Bznp1cVHEtJON6vgOmmI+U0Mslb4Ms10eun2oASkHdZduhfDxdvaa8qmhUHgAsdIrGZW9bK68FKsWbSbYxGtDNIr/Jhm2K+RWBtjQ7BSdS3HIloZZK3wcTHV5VlvjHWRs/Dt4jfHIloZBHTpxlTHTIqgK7ZW7hYo2TkXXKv/wZqtmJYGveAY0SdvbYz1cZKEDXsYpW/vYAwT0f9orA29qkzaB0nwZeR7pSa5+6H7l1zNZB8k6SrhaANy06sUVM6HYVhOa4NQwq0VeNfGWBfocVDCrWNpUBmxDBn820NQ8iNOrH+OhWEWqECrwnDMN1JpecfxcE6rR//6z3tS6rhIMXkzEbPMf8QpmLlr0NzjBiVwgxK4QQncoARuUAI3KIH/b58GjeIiyRvFobhBCdwgx3GcmWVp6R+8tmDTY4OT1QAAAABJRU5ErkJggg=='
p43
sS'andr'
p44
S'data:image/png;base64,iVBORw0KGgoAAAANSUhEUgAAAEgAAABECAMAAAAV8YMOAAAABGdBTUEAALGPC/xhBQAAAAFzUkdCAK7OHOkAAAGVUExURUxpce1sMO1sMO1sMO1sMO1sMO1sMO1sMO1sMO1sMO1sMO1sMO1sMO1sMPzCG/zDG+1rMPzBG+5xL+1tMO5vL/u9HPelIu5wL+1uL/u6Hfu+HO93Le1uMPq0HvzAG+5zLvu/HO94Lfu8HPB9LPGCK+50LvmvIPagI/zAHPq2Hu5yL/WaJfKJKfSUJvmxH/q1Hu5yLvOOKO91Lvq5HfWZJfmzH/zEG/aiI/q4HfORJ/GDKvSVJu96LfenIu1vL/OMKPafJPipIfB+LPq3HvmwH/SSJ/OQJ/ejI+95LfemIvGBK/KHKfitIPGEKvy/HPekIvWbJfiqIfKLKO92LvmyH/SWJvOPKPSTJvKGKvaeJPOPJ/u7HfmuIPiuIPKIKfWdJPB7LPeoIe1qMPONKPWcJPm0HvacJPGAK/WYJfKKKfahI/q4HvKHKvWbJO96LPadJPB8LPGCKvu8HfGFKvirIfqzHvioIfCAK/B/K/B+K/KKKPmwIPSXJvisIPafI/KGKfagJPB6LfGGKvOSJ/KFKvmzHu92Lc94t6QAAAANdFJOUwDeP6fKTgLRDfsHzwwevHNaAAAEwklEQVRYw+2YV2PaSBCAnV7RjhBFFCMw3ZhqXHC3Me69tziJneTSLv16ydX87kjs7CIZLTzgt7t9YlezHzOj2ZlZdXV13bxx/Y6jg3Hn+o2bXca4esXR4bhy1eDcveboeFy7q4Pu3+scdO++Drp9q3PQrdv/g/gACLpcLgVADFKd9eG1SuCqC6fayP7vHs/6s70ZL4hA2Xy3PvKPA2aJYKa+2j1UMLQpHJ24SX1Ivs1iHOxBG4N1EbnP9Bwi6frqYEIDfbIYIhIOXfDkNGgHgq01KpExe2TVTxeT+u/tTY6hi+6M0w70yFeXI5tmL2XpXnkOHOqUlaOLhl6DjWmFWQqqRhq2qR662b0E8L5Hujh6YnagYJJu8h80QKWnFP60BOr8RYUkMluwczbM4eNRDoIY1YIsuiDa3wx6YvvW+C6Pi4OQLe0CVBr7jddvjNQp2EZ2PM/tYFH0Eq1dhqCHKSTnPNP5lD4j3QF7kGscPfuePe9F/w8vgLaDIHmjpHoDW9NhQtYVwVnbxXf9N4JgBiPik5O7iCSMgAZwTg7IRbAHwWmYyg5hxMJ5CJ2qwIgbHfSQ/cubo7gINPaKKpBDCeUZqngOsBxCF5WB5wFhGvGu0I09M1Sm9wEF+2bgbAtdRIaU9vlIeUilQ9R4GEMX7WgOrhHpjkBbEJyj8CGdvkCfzasO7iNJLivtQT8cUxVWNONfIYMvqqankHfDLI7c2V5ol2rjGCy+R4ao93uMq1V91pvgJyS0GG0HUjB8U0Zyg0iV6pcOmPxHV4peaJ3899GYDQP0EZPa9IRhJ3eSsRR+GYBWIFhF907ryQ12cddzGhvjltOfiLUERfDcVheAJ7UQTeIQ85lJZHhSaWGa6xM66SPA9r8U2h9FKyp+C6lnX21RIL8lPAEtoYsSLMMHa24LKTyqCkHQJ1OhxyrU8GeSm6DuWbOkv6IIQVEf3T3wxcFy9J7p/YwkLKnWdyA0TcO48y9ps7yAmOpcILlmUooktkHURAyh3Fz0A+q2bY4YcBXTJpJcE2kENZYtisxbwQunITouNwp3riQCLWFI5hZR9temxqY32/B5GDuFZlDgO3QSnojQgU36iQ1wlaYUgY8mrCeBVMdsQBBjSYX8UhCAoGwtpr81WooJU3eRYc/7F0AAWl6zgA5NnckiP/IQPWZ9xDci0BufGSRP8r2BbrLOc6OWQ9v8n0WgworZSe4ZDpqTJfmtE6fYA9WruairPTSHbo73AZpRm+R5ah0sMG8LTXNAMWQCzSv8ONMAe/DXBOilcVRmx21BCPrR1JnJWaYQ6zCI29M3FjnycZU1UcMOpYGGbeFVVuljH7iWqf5XKT5JBoWd/8R64yilWVlVmjpRDPxJEIJgtOGiaRaDrhVbEMlHWoD+8XO5DX4+XrhtQU8U8aUGAlX272s/c1CwLNtw0u+gxe3IyTt8Wrop3plsJqUqra9ZrJSQEw1MaeiPJtKUtyUIJlPSxQJS16lsLUfyUBxag6LH9KIkVSy5CNStAYnwZnt41AltbpDejKc+kn9eTGpjz3fc0iAZJP7025+U9ldR47apD7U5NTriI5XyVCb7OqBAh5djOAPFcQbw37r3X9pHlkv77HNpH6Iu6dPYV11PUX98GDDzAAAAAElFTkSuQmCC'
p45
sb.