ccopy_reg
_reconstructor
p0
(cemoji
Emoji
p1
c__builtin__
object
p2
Ntp3
Rp4
(dp5
S'emojipedia_url'
p6
Vhttp://emojipedia.org/black-small-square/
p7
sS'index'
p8
V1260
p9
sS'code'
p10
VU+25AA
p11
sS'apple'
p12
S'data:image/png;base64,iVBORw0KGgoAAAANSUhEUgAAAEAAAABACAQAAAAAYLlVAAACdUlEQVR4Ae3WwWosRRTG8d+pnokmcHUjuHHrW/g6bn0Yt76Oj+DOhRvBu1CReJnkTk/VEUJBUxAyyNRCsP+hOmT1/au+U0Xs7Ozs7Ozs/O8Jb/N9fOMG8kff3SQQp6/u3wnp3xMe/frkwZscwlssT1/ef+sLxdHBUXFnsTgoigVUTXNRVRcXa/998oPfnlzhsLjGB2nxiReBrsIRByE1TX1ZF60LnF18xHUOrlD97iTcOThYsO2+CFT6KaR+Ci/f1XmGAGcHi3RRHIWKRReQGqqKi1S7RLWqMwQuVs/ColgchaIoWARIFU2qXaB1jZwhwEeULrAqiugVdIFeQWr9u0nkdYH0FqFZERZ970JfKBpS25baVdqMIUzNWVOUUUAMM5CvCKTLjBNIF4QuIBgEjAp6Df3vCTNw9sE7rYcWdInhGtqq6NE8Owvc9BLSvMeDhtD6ClVRhxPYfkgn760zZoAnv/jcZ+58qkgEQhWCLRQ0Z8/+9hfcPgMkmj/8afHg3oM7R4sFAfTbvzo7eXJSEcqUd6APVZGqR49CsfRnud+C/vw2dTsfqU0Ywh6fgABVc0YCW6QQgF6Kdl2gua5gVJD0MGPgoDXpGvYRQ9B3mQaG0O0bcwW22OwqI+P+EyYOYW94JBjjBomcdQLjzsAoM+x2VDGnggbjGQwaQ/SwplRQhxEbNIaAMTJBnVcBidg0QFw7/DlDmHIsAYEYoxkVZg5hvtr7WMUYTyrMvIbG14A3ZgFS0+ZVkGwSwNX30LwKGijAMICvqzSYVUGCcT8FiZFmYM5THPerE0YKXBUoVnF/4/+E+dP69eoGfvZfZ2dnZ2dnZ+cfJG99aR4otlQAAAAASUVORK5CYII='
p13
sS'twit'
p14
S'data:image/png;base64,iVBORw0KGgoAAAANSUhEUgAAAEgAAABIAgMAAAAog1vUAAAADFBMVEUAAAAjHyAjHyAjHyDrNp3xAAAABHRSTlMAgP8AwYKAaAAAAClJREFUeAFjGBJgFLCtAoP5/0GAAUz+ggitHwlCo0Lf0BMAAgw+oVEhALCaOYN6lvCGAAAAAElFTkSuQmCC'
p15
sS'gmail'
p16
S'data:image/png;base64,R0lGODlhDwAPALMAAE3nGgBlABqZADPMADnXAFfoKy3GAC2uEgBaAGb/M2z/OWv/NiehE3H/PAt5Az/jACH5BAAAAAAALAAAAAAPAA8AAARSMMlJ5SrMqs13w05yAWRZHkGQKIDhvi4hICprDHg+yPTa6jle7QfczYa3otCXBC5tRWMPqjwmGgCCdqt9HBWFg2BMJjtSmABizWanAozze06PAAA7'
p17
sS'related_to'
p18
(lp19
sS'name'
p20
Vblack small square
p21
sS'known_as'
p22
(lp23
sS'default'
p24
Vtext*
p25
sS'bw'
p26
S'data:image/png;base64,iVBORw0KGgoAAAANSUhEUgAAAJAAAACQCAYAAADnRuK4AAABSElEQVR42u3c0QkAIAhAQUdzM0dx1NqhggrugQMo920MaaNwAgEkgASQAJIAEkACSABJAAkgASSAJIAEkAASQBJAAkgACSABJAEkgASQAJIAEkACSABJAAkgASSAJIAEkAASQAJIAkgACSABJAEkgASQAJIAEkCrZea16W6Avl8w4tpUFUAAAQQQQAABBBBAAAEEEEAAAQQQQAABBBBAAAEEEEAAAQQQQAABBBBAAAEEEEAAAQQQQAABBBBAAAEEEEAAAQQQQAABBBBAAAEEEEAAAQQQQAA9nPcuAAkgASQBJIAEkACSABJAAkgACSAJIAEkgASQBJAAEkACSAJIAAkgASQBJIAEkAASQBJAAkgACSAJIAEkgASQBJAAEkACSAJIAAkgASQBJIAEkAASQBJAAkgACSAJIAEkgASQBJAAEkACSAJIB5qdPTkaeo00tAAAAABJRU5ErkJggg=='
p27
sS'version'
p28
VV1.1\u02b2\u02b7
p29
sS'uni'
p30
V\u25aa
p31
sS'desc'
p32
V\u25aa 
p33
sS'browser'
p34
V\u25aa\ufe0f
p35
sS'annotations'
p36
(lp37
Vgeometric
p38
aVsign
p39
aVsquare
p40
aVsymbol
p41
asS'wind'
p42
S'data:image/png;base64,iVBORw0KGgoAAAANSUhEUgAAAEgAAABICAYAAABV7bNHAAAAAXNSR0IArs4c6QAAAARnQU1BAACxjwv8YQUAAABySURBVHhe7dexDYMwFEVRk4EYijmyUFbIKrTsQSzZLXqkwUicIz1917dzAQAAAAAAAAAAeKqp3xE+/Z71rlvb8xn2PzfXXe7VLwcECgQKBAoECgQKBAoECgQKBApG/sWWfs/61m3tCQAAAAAAAMBdlPIDqf0QOTgDAP4AAAAASUVORK5CYII='
p43
sS'andr'
p44
S'data:image/png;base64,iVBORw0KGgoAAAANSUhEUgAAAEgAAABECAMAAAAV8YMOAAAABGdBTUEAALGPC/xhBQAAAAFzUkdCAK7OHOkAAAASUExURUxpce1sMO1sMO1sMO1sMO1sMDwlGnIAAAAFdFJOUwBwai9sugz9xQAAADpJREFUWMPt1LkRACAMA0Ee03/LxE7BDMluAZdJrQEAn8yezONQrCSOQyOHhpCQ0JtQ2WjLbgQAuLQBI4MEPV7AUkoAAAAASUVORK5CYII='
p45
sb.