ccopy_reg
_reconstructor
p0
(cemoji
Emoji
p1
c__builtin__
object
p2
Ntp3
Rp4
(dp5
S'emojipedia_url'
p6
Vhttp://emojipedia.org/black-medium-square/
p7
sS'index'
p8
V1263
p9
sS'code'
p10
VU+25FC
p11
sS'apple'
p12
S'data:image/png;base64,iVBORw0KGgoAAAANSUhEUgAAAEAAAABACAYAAACqaXHeAAAFYElEQVR4AeySS2qGQBCEy7fg44ccwbUewU1yppwiZ0rAO2TtyqUGBAXfZnqgIBP4yd78HxRT1fTCLsT/5sEDCya50pvSE67Jl9Kr0ue9At6VnnFtPpReGGyY3HB5zBtdmOw0WZahLEsEQYAoihCGIWzbhuM4xktvWRaz9pwJ9BR3BPHHcUA4z1O8vPRG3vedc0pm3NGeeZomjOOIZVlQVRXqujZuJC7ukOc5iqJAmqZIkgS+78PzPLiuqw8SL+KBMhc4k8xyuPM7/0Q+XMED6I28bRszPYR1XUUsRR89zzOGYUDf9+i6jgWQvwto2xZN0+gC4jjWf8J3+1a7EkcQBEUx4Aslj5XnTB5E8dedCh7kz8bSFFSKsdgtdwjkbGinZ2Z3trumu+fjEigN1llnG+sEgt5AY90T+AxJZ/o9QDjjLH3WwQSHADw+Pr7a4hQB4IdPpxNmHgqjTkPV1QkG6yzVcG1zEEgwhuwhMS4FBKmzRAiAYQPqAYBARJQyleYs0RAqAhnPcWbZRvDY5h7gBruccoPHv+sMTnSZPEATjbK2MRa1pKzMNsSqymD2D2Ubz2QtXd8eAKJHRUaMRENGvLFkH+vsgztS1nbW+S7bvc/eUXmoF+sEp/IAok/Wj6hsfcoRuBHr+CPj9JtaN6NZUs4AJBDIIyCGgIQZEQ/ZxD6WAc8SPNK5CwEOGmaTPHLjmjVURiGSdRl7A3jzKrAsfyU/ZG5mcF3uVjFoVJdVhaXJyrnPVwb1WNhSeIBkcXMplUfsbqnt2reWdez8DNlXhQIANTop4clJ5TbeVfaxNgLFercMYoAw+9rGMu0ZAuf3OL659qr3YQPCosgBi+cAxlcV5y5rmfOAyuvqNF7LIgdkhN0zrD6SK/ZxQj3uGjcD8Pz8HA0mj7afrftr8loZInHbTYYtm0MA52hcKOAyRE9e7uboG7t3bhuHQC7XhocCCBuOx2OXBG9vbzEABoprrrM/I2XPYWzKXofusKHKAcwDuBS5v7/HudpdlDLrLCexjp9l6Hp3dwfduQR2qwAZLgQ0eT12c3PD3WBw+1DmENC2HBLi8sxbT09PuAXi8kfuL0T0QvJ4PLzy9fUX5AYwwOA9YEc9ADASs43JAb/Uf/3pu/DbpQ4A9wT+jMCd2uFwwE0Prs1wa4wSd4coeXkKL6kA8ITG46/eL6BEX9Y5EgHo6e3+7QQW177UW2HeImubA6N5RG+E2OaHGs50QV0IgOX0BivhZ6gPT5KYHTwkoHBm2Ybx3uroYwkyGX+D1+BZPLHgD3esu4SALCken9RpiTMhOU6eWaxtsdLl6Mp8luTG1wA4RSWAenpH+7vv9c/0ISBokudRD0Cvd7EKgMIaLu21J/D5xuig805JcALNBqD/XSC6U0CZbbsZH8bNevUeMDfx9AC0uvQeoCc5J937z1Z46/fF/VHWAGCAVWEQDX5jyqyCKKOPpb6cQct3Aiz3OQt8aFnS1QLVdzdPg5jNccy+eauAX4QkErds3L4AOcpk2FCGAGnsXlmRCUl0w/fBu+wELYamrwKVu7Oede83Qiz99gc0OywqL9MVoEiCeTc4gWYAQO49IMRfPg/MB6A4B5QAhJ+r/Gdt1imzPR+W5q8ClPdNgnnQPv6TwQGApHcRAmGwFAKuVPIGBaTfQud+N3z6jVA/230Y9N/pL0TcyK2xTo+oT4OB/u1xmMbOPPlNvhPM5wH+U1f9YL8hyrRT6FDvjwOAHyhgfCLuEudTXqFcb/AeHoCfoTBYbWh/LV4Ds9oDXLMfL/z14v+mny/8TY/DZ00OwNUZ2HyVAHg4AwAeUhL8fhb/cfKTPumTSL8BofWuRwphGQ4AAAAASUVORK5CYII='
p13
sS'twit'
p14
S'data:image/png;base64,iVBORw0KGgoAAAANSUhEUgAAAEgAAABIBAMAAACnw650AAAAFVBMVEUAAAAjHyAjHyAjHyAjHyAjHyAjHyC67rMZAAAAB3RSTlMAIJ/v/wAwF8MKgAAAAFpJREFUeAFjGP5AyMQFB3BWDAUCBiAOQ6jBVJUKVSTsggcYQhWp4FPkBFVkgk+RM1SRC14wqmhU0aiiUUWjikYVjSqCAhKqV8IVNeEqn5TGQyjhZggBMKQVAQCZTZr57r3B/QAAAABJRU5ErkJggg=='
p15
sS'gmail'
p16
S'data:image/png;base64,R0lGODlhDwAPALMAADPMADfUAC/IAC2tExqZAGr/NwBeAE3mGgBiAGb8NFLtG2v/OFrzJzzdAA2AABeUACH5BAAAAAAALAAAAAAPAA8AAARIMJVVqrUrjcKO/6AyGMUhnGgaPKQJvDAcEK0Q33N9x3lp76+eCwgQ/oBGYpHmUyaJuYWiGKhaqw2ahsDtegkOxMhALpsNCEQEADs='
p17
sS'related_to'
p18
(lp19
sS'name'
p20
Vblack medium square
p21
sS'known_as'
p22
(lp23
sS'default'
p24
Vtext*
p25
sS'bw'
p26
S'data:image/png;base64,iVBORw0KGgoAAAANSUhEUgAAAJAAAACQCAYAAADnRuK4AAABhklEQVR42u3SQQ3EIBRF0S8FKcjADRKQhAQkIOV3z6qZSbpoz02egZcTKf1RuEAACSABJIAkgASQABJAEkACSAAJIAkgASSABJAEkAASQAJIAEkACSABJIAkgASQABJAD7bWylqrHWutAXSnOWdGhB0rpQAEEEAAAQQQQAABBBBAAAEEEEAAAQQQQAABBBBAAAEEEEAAAQMQQAABBBBAAAFkAAEEEEAAAQQQQAABBBBAAAEEEEAAAQQQQAABBBBAAAEEEEAAAQQQQAABBBBAABlAAAEEEEAAAQQQQAABBBBAAAEEEEAAAQQQQAABBBBAAAEEEEAAAQQQQAABBBBABhBAAAEEEEAAAQQQQAABBBBAAAEEEEAAAQQQQAABBBBAAAEEEEAAAQQQQAABBBAwAP3a3jt773ZsjAGQ3hdAAkgACSABJAEkgASQAJIAEkACSABJAAkgASSAJIAEkAASQAJIAkgACSABJAEkgASQAJIAEkACSABJAAkgASSABJAEkAASQPpaF6A+ShwS7N8WAAAAAElFTkSuQmCC'
p27
sS'version'
p28
VV3.2\u02b2\u02b7
p29
sS'uni'
p30
V\u25fc
p31
sS'desc'
p32
V\u25fc 
p33
sS'browser'
p34
V\u25fc\ufe0f
p35
sS'annotations'
p36
(lp37
Vgeometric
p38
aVsign
p39
aVsquare
p40
aVsymbol
p41
asS'wind'
p42
S'data:image/png;base64,iVBORw0KGgoAAAANSUhEUgAAAEgAAABICAYAAABV7bNHAAAAAXNSR0IArs4c6QAAAARnQU1BAACxjwv8YQUAAACeSURBVHhe7dqxCQJBFEXR1QosQCzBMizEeo2swdgWdGA3MZCbLKzIOfCYH994JgAAAAAAAP7BbnnXchy7zOdmbmP3+fw957HXxruOrWa/vHwhUBAoCBQECgIFgYJAQaAgUBAoCBQECgIFgYJAQaAgUBAoCBQECgIFgYJAQaAgUBAoCBQECgIFgcLaH6gOY6f53Mxz7DGfAAAAAHyYpjek1SSx6mSEYgAAAABJRU5ErkJggg=='
p43
sS'andr'
p44
S'data:image/png;base64,iVBORw0KGgoAAAANSUhEUgAAAEgAAABECAMAAAAV8YMOAAAABGdBTUEAALGPC/xhBQAAAAFzUkdCAK7OHOkAAAAhUExURUxpcUDA50DA50DA50DA50DA50DA50DA50DA50DA50DA56Ud7r0AAAAKdFJOUwAzQPDpDdvqMDqsThYfAAAATElEQVRYw+3XsRUAIAgDUVEUdf+B7S14KSjvBvh10hoRyc3T5c5MoL2G3NoJZHHlwjLIdciBgICAgICAgICAgDSoarCXXYiyU0NEXw/QPEitzmw2HwAAAABJRU5ErkJggg=='
p45
sb.