ccopy_reg
_reconstructor
p0
(cemoji
Emoji
p1
c__builtin__
object
p2
Ntp3
Rp4
(dp5
S'emojipedia_url'
p6
Vhttp://emojipedia.org/large-orange-diamond/
p7
sS'index'
p8
V1268
p9
sS'code'
p10
VU+1F536
p11
sS'apple'
p12
S'data:image/png;base64,iVBORw0KGgoAAAANSUhEUgAAAEAAAABACAMAAACdt4HsAAAC+lBMVEUAAADIZgDKcxbISgDHPgDHTgDWSwDZZgDZXwDBaA/FQgDCQQDWeRbfZgDMiUO+YgXZWQDLfSvgbwDgawDdUwDfYQDFNwDIawnVdRDDbxrFg0LFgz3IlGbPllvYVAD/AADfawDfVwC+KgDMOQDJTgDWhCvXhi++ZQrUexzbmFLdpm7cp2/Pz8/k3dTgcQCtFADEMQDVRQDgbwDZSgDeZADPQQDTSQDXiTnZkEfZjj/cnFzcoGTYz8PUq4XPxrzguZD0wo72zKHxs3Pzu4HyvITzv4nyuX70w5H9pCP20ar1y5731LD7mxr0yJr2zqT0xZX31rP64sn0x5j2z6f42rvzwYzzwIr0rGD42bf538TxtXj43L798+jwsGz3tnL0xJT53cH65M71ypz2hhL1s2z/qCb4iRLxsm/3smj30639pyT8nCD6nhf8miH6lBz6lxX1jQD6jxn0vof5jhbyt3r+qyf5lBL7ox3ufAD1vYT9lCD5tW7xq2P+rSb1iQD0xpb2uXjudwD/sCjzegD2r2Tzrmf1hQL+xIn/w4X+9u33igj8lx/qYQD9u3b5uHT7kR7ztHL0gQLyfwP8nyH3hgz759L87Nz7oBz4kRD4jQ/0dQD+wYLxcQDwbAD0sWntbgD2gQbolDztmUPun0zqkTTvrWfroVPtqF/88OP/nDDztXbsaADgVAD5mzrywIz76df1gwr5unn8qCP8ph/5u3v/zJb3lwv6ohj1fQf5vn70uX3/sSj+rln5nBL+oiT5wITll0byuHzugAD3jgn1kAL9qiT+x43vhAD+wH7tcgD/uW75q1r9qyXxp1r3kwr+ryf/yZH+pkf5mRHdhCbgjznmiCfljC3lo17uvIj/mSnmWgD/oyX/tWfeiS7xolDssXPttn/oqmr/liP+nyT/pyf9vHv/mCT/pSb/oCX/rCj+myT/nCX+lSPegR7/ryjinFP/pUH3vIDmrnXns33/oj7gYgD7lCn7kynfgh/zpVP1yJnns3/xzqrpwZpf8unZAAAAQHRSTlMAa2tYRUfj4+MePDDj72sz42vy/eX0TmvTEiYxHmvjAeP3Vulc2OUkytzJ3xDZ/hnF/Onz5tnIyMvg1uprazbcXgz9vgAABXFJREFUeF7tlGOYXFcYxydpGqON2qBI0iaNavPesW1jbdu2bZuxbdusbeN5+p7Z7XaT2Z3dmf3Wp78P987ce/+/8x4SRuR/1qwZW/7dtWvfHkt+8Xt/sv56x/78otVXVALaD4/Zm1+46ooiNbVQ94edhsWrr+jVqampBqjBvvbvqNSpRUWpakHX93YYFrx1R96i7jYYutVqBdl2w6I3b/Nb1IUCgUBR2NKiot6daVt+ysrbjKIWg0qvECj0gpYiufKyTYZFK+/ihUUCsRgMerFYUVTEItpiWPF6M8fQrWfx5WKVSizn81XdhSLNNw+Puv43LusEBjHDFQxyyLNYrvJCA944WsOK15owvYCPi8DA4vNRniFiCQS/N+8ZlWHB8iaKWOFqxLkiBirClcEQiXAmQ6HXjcow6+k9VL6YyxNymDgXHJDm4rhRyOOq5NKmC+NH7P/yPUqG3IjRooVGJo5zIc7FjUyOUIcZ5SxyPRhGap/IdRX6STAaqoEJBhxncjg8HU1CiXZlUEcwrHimtpEjolFJfl0YTcfjcIxMppEjjObRsC4KmYRxcWLdTSuGKdNrI2hGqZJKJlOkGI3GixZyIC+MpmESCgj2UphCTd3NR4Zvv6HZj0dyJgZQSWQKRSLBMHCgtERKIZOpVCWRysMaa88PY1gw/VITSRKgAQEYSH4UqUQC/dBhEIc8aW8AkegcgEmbhzHMevRSk5JMbASBUhlARd2gULowKL4/HqAEQSORTD1Ze37cUP2/VK9RaiIiNGAgKs1FkElkKcUP0iQS1Rx31jRGaPYSbzV8Nc6y/Yt1iTmJJyMiEqucc3La2gK2bdsWSgr18wsNJZHgd1tbTo5zVVUifJDjXG9hmAJ5mYPspEwmS6xycNBqtTExMd8Bu3eHwjUG0GodHKqqEmTwkUNifcOv4+6tv+GWLNxFlpDg4uISHq7VZmX19vZu3bp1NwC3Db0berOytOHhLkBCQoLW5be6i4MM015tz+s8fvw4ZDMzPwKOlJenJKckJycfApKBlJTy8vIj8CYzKys8HD7tNFV3TBgQzO+ozDOZCpyyf+k8u2PHjhvHMpEh5dDGMxuBM2cOIcGRzGM34OXZzp+z/Z1MTj0VGa8QBphYnZdb4+Tvmx0W9iXwPuJqa+vZb8382Np61fwIvQsLy/b1d+qpyT06dz7hXx46Gp9b4GQWfGyVPkFBTfzRedCDewx5SU7+Xunpnp8DXwwJeuOZnu7lX1qQGzsD8vcwOTY3rTTIy9PT/QPg0yFAz93dPdODStKSYmc8BZn7DUlpJd5sd/f8XcB1C9DT/Hx3tnfJ/qSQOVMJlkwOSdof5M3Oz99Fv/7JEFyng4DtHbQ/KmTGAxAYyhBlNtDp9A8Bx0Gg/250en4x2/tU1L45054gDMmkkKhT5zyK6W5uBwMDAz8bBPx1dHOjF3ucO+Wz78kHCcMxaZ8PGILp6w6eiIw8/fUApyMjTxxc5xZcvHOTz+HZkLdq2Lk5GAR9+TjAbECC9Zs9Nh04/CLkrRkOH9i0c/P6dSCIi9veT1wcCPrzs2H+RjD4IAMqYfsAqIC+/LMD82e9Fx7BZsVpKAMuqH7oP2rfYv6GH8n1MBCBCBSnB3ug8bOcv+HXA7s4GKbTzdERLnTz/EVZmz/LNVnStyYBtP7Y5vU3ct5yXyD61//LEwijB3Z3QSnsbk8g3cu3NC03dt7I42d5Pvh6Ab7m/f/TVIJtPF4dX1MACji/0PmD2rfZULalp8BkMvVsia9eMo1gOxPbK+K3APFllej8tMeQUVFRVlZW0b4Ext9OQ3tlZWXGXMjba7iWkXHtpaUE+1nW0fHCVMJYeH4ZtD8mniP85/kbxBNNz0zzyCoAAAAASUVORK5CYII='
p13
sS'twit'
p14
S'data:image/png;base64,iVBORw0KGgoAAAANSUhEUgAAAEgAAABIBAMAAACnw650AAAAFVBMVEUAAAD/rDP/rDP/rDP/rDP/rDP/rDNLc9G3AAAABnRSTlMAgM8QAJ+N+GT2AAAA8klEQVR4Xp3WwUnFUBCG0a+Ghw08FAsQG9CMLaQAF+m/BPc5BMOd9XACl8z801o9np9zquZUP8fx+m/Tfhy/ZyohqYSkEpJKSCohqYSkEpJKSCohqYSkEpJKSCohqYSkEpJKSCohqYSkEpJKSCohqYSkEpJKSCohqYSkEpJKSCohqTYgqOkLgHrpG4B6u9V073PzDsAbNB83nmA2KR8TCmgaKKBpoICmgQKaBuri95VyEKQcKSmHE+pizKVcGFKuHimXmNT1Otx2ocUV7bJfjA0DaDHKDMXleDWo1yPf42H9DPGgWT+NPLLWz7Xt8RybKOsPCmpBtMQaQ0kAAAAASUVORK5CYII='
p15
sS'gmail'
p16
S'data:image/png;base64,R0lGODlhDwAPALMPAP+ZAP+WAPiMAP+fAP/DAP+eANVFAMktAP+yAOVmAP/PAP/RAP+bAP+gAP+YAAAAACH5BAEAAA8ALAAAAAAPAA8AAARB8Mn5EL10oYCvIoMDdNI3BEDamWiqUqwrT7GcMk2FnHZaCInEIyDq/QyHSQ9wTFJszY4rSgIwBEjSpJFwaiVCTAQAOw=='
p17
sS'related_to'
p18
(lp19
sS'name'
p20
Vlarge orange diamond
p21
sS'known_as'
p22
(lp23
sS'default'
p24
Vemoji
p25
sS'bw'
p26
S'data:image/png;base64,iVBORw0KGgoAAAANSUhEUgAAAJAAAACQCAYAAADnRuK4AAAFSklEQVR42u3drzNtbxTH8RUEQRAEQRAEURAFQRAFQRBE4YQTBMGMIAiCIAiCIAqCIAr+AOEE8QRBEARBEPaddWbOXNe4e2/7sJ+11vP+zKz0vXO/95rXfX4/z5aCkBEi/AgIgAiACIAIgAgBEAEQARABECEAIgAiACIAyi/9fr94f3/nBwGg7+f+/r6Ympoqtra2QASgZnhEZFCdTocfCoCa4fmIiJYIQI3wDIvuDEClA+bp6en/4gERgBq3PJ+r2+3yQwNQMzzD2tvbQ0/ugKrwHBwcFIuLiyAC0PfxHB0dDX7dy8tLKSLtznIeEwl4vm55PqYKkQ6sAQSeQelMTEF8rrW1tdIx0e7uLoAYMI9W+/v7AALPaJXbwFrAI8X6+vqX3VZZzc7O0hLlAOjh4aGYmZmpPWCuG125LkOUS0skObc8x8fHI/3+IAoMqAqP7q4rgFHr7u6u9P8THZHkiKftioxIwNNORR1YC3hoiQBUA8/p6emPjHmqqtfrFQsLC9kgkhzwnJ2dtfrneX5+Lubm5rLoziQynrGxsdbxfESUQ0skkVse/W/Ly8vJqgxQFERuAekKs+UBcy6zM/GKp2yM4a08t0TuAFV1Wzs7O4N/1RYr4phIIuE5OTkx/eevOtnosTuTKHia7qpbQ+StJZIIePR8zu3trZu6uroKswEr3vFELS+IBDwgCgkodzxeEIlHPMNLf1HieXYm3vCMegwVRIEBRZmq5zTFFy94JiYmkm6MWtmAtdYSiQc8lF1EAh5mZ24BVeHZ3t42uzHaVlm/dyZW8UQfMNfN4+Oj6WvUYhFP1Kn6byFK2RKJNTz60IGnjdG26vz8vBgfHzeHSCzhofzNzgQ8zM7MAwJP3JZIUuNJdW/Le56enkycsRbw+EY0Pz+ftCWSFHhS3hiNFr0Bm3IDVlK0PDod1XUN6meq6iMxv9kSSdt4qFizMwAByF8XtrKyMlhZpX6mDg8PS1epXXVhzMDaTepTjEzjA+NxPY2vi0j/knRDzcrC+Wm2MtjKYDOVCr6ZWheRrlCzMNh8wTDFmSBzB8oYWH+dt7e3wbWfrA+UgahZXl9fS/GkPBdt9lA9iP7iWV1dNXszw/S1HsY9s+YfouJiIbMt34BA9P3SC5dWvlXv5nGFjY2NLFaX9aVZfUii7PPiVvCYAlSFSHebb25uGDAbi6sHphTR9fV1SDzaqiwtLZU+oG4x7p64U0T6xF20rqsMT7fbNdVtmQfEwNrP6/U882u4dMBsPe4fGvd6w6NqY9TSVN01oCpEuoN/cXHhasBc5xiqBzxuANVBpN+fiILHU0J97klnM5ajV5HL8HQ6HXfLD+E+OOe1dJ3HS7flGlBERJ6/m+r2o7tREFldYQ4PqA6i1B+iu7y8LN0Y1TGPx24rDKA6iFKdbIw22woLyCKiXPCEAVQHkXYXFj7v7WWFOTtAHgbW1g6DAcgRIs9T9awA1UE0OTn5o9/4KhvvDM/zRI1E/Yu1NbDWG6P6YFa0FebsAbWBSM8wl50kjDTbyhLQbyKqOgDv4TAYgIwOrKNN1bMH1CYiT4fBAGQMUQ5jnqwB1UGks6avNkb1xKP1hw4AZATR5+OxOmBO/RoqgBwh0jPWw+OxujFq8WUwADloifTjv7nsqgOo5YE1eADUGFHkvS0A/TKiiEcyANQSIj1jDR4ANUKU0/YEgEZMr9f7BxEtD4Aat0Sbm5vgAVCz9Pt98ACIAIgAiACIEAARABEAEQARAiACIAIgAiACIEIARABEAEQARAiACIAIgAiACAEQARABEAEQIQAiACLp8weH5aKNRVeQmQAAAABJRU5ErkJggg=='
p27
sS'version'
p28
VV6.0\u02b2
p29
sS'uni'
p30
V\U0001f536
p31
sS'desc'
p32
V\U0001f536 
p33
sS'browser'
p34
V\U0001f536
p35
sS'annotations'
p36
(lp37
Vdiamond
p38
aVgeometric
p39
aVorange
p40
aVsign
p41
aVsymbol
p42
asS'wind'
p43
S'data:image/png;base64,iVBORw0KGgoAAAANSUhEUgAAAEgAAABICAYAAABV7bNHAAAAAXNSR0IArs4c6QAAAARnQU1BAACxjwv8YQUAAAHhSURBVHhe7du9UQMxEIZhyQUwpgkMFZDTARHYBUAZmAqIaQAPCZQDdhP2UADiPo82wMOPfdo/e/ZNpFV08wS64OZSFEVRFEVRFEVRFEVRFEVRdLAtr08u6tZFg7q6aDUeveQ8eF1Nzq7qkXm5ruYBJ+V8uR5K+uj2N8Ont+f1bJgLoG84lBMkc6AfcSgHSKZAf+JQxkhmQFvhUIZIJkA74VBGSOpAvXAoAyRVoCYcShlJDYgFh1JEUgFixaGUkMSBRHAoBSRRIFEcShhJDEgFhxJEEgFSxaGEkNiBTHAoASRWIFMcihmJDcgFDsWIxALkCodiQmoGcolDMSA1AbnGoRqRegPtBQ7VIQ3S5/nRbPFeT7au11eNDud2b3C6SioPfXBQL6DhbP5YSrmvo+vwnMez+bSOO9d0By3Ho2nO+a6O7mrFQc1vMa9IHDioGQh5Q+LCQSxAyAsSJw5iA0LWSNw4iBUIWSFJ4CB2IKSNJIWDRICQFpIkDhIDQtJI0jhIFAhJIWngIHEgxI2khYNUgBAXkiYOUgNCrUjaOEgVCPVFssBB6kBoVyQrHGQChLZFssRBZkDoPyRrHGQKhH5D8oCDzIHQJpIXHFcBaTU5LVjrUbSZtx9ZoiiKoig64FL6Ak9ATNo5619kAAAAAElFTkSuQmCC'
p44
sS'andr'
p45
S'data:image/png;base64,iVBORw0KGgoAAAANSUhEUgAAAEgAAABECAMAAAAV8YMOAAAABGdBTUEAALGPC/xhBQAAAAFzUkdCAK7OHOkAAAB4UExURUxpcfzCG/zCG/zCG/zCG/zCG/zCG/zCG/zCG/zCG/zCG/zCG/zCG/zCG/zCG/zCG/zCG/zCG/zCG/zCG/zCG/zCG/zCG/zCG/zCG/zCG/zCG/zCG/zCG/zCG/zCG/zCG/zCG/zCG/zCG/zCG/zCG/zCG/zCG/zCGyZZqh8AAAAndFJOUwAO/JESEBT7+vmalRWbnpeclhOQnw8RmZidkpSTWPGN9DpIiQ3qBymeWCIAAAFWSURBVFjDrdhZloIwEAVQkCQEBREU57Fbu/a/wy788KACmd5bwD2QQFJVUWRMfDrFESB5cT4XebijVhOiyUpBHICk5k+HpbmCOIFSvkvplXTnveL5ouOwtPCU1LvTSl5vp4oPh6XCQ6q/nVaqXR0x7XFYmgqI4ywNOo6S2Aw6LG2sJbHVNBK9tZTqctRhqbTaO2FyWsnimURldFiqjNK6SskiabUed+RMk1X0TEIcg+TgjEry4OCwdBiQ5DEjp2THXknuHR2W9j2STJwdlpIvqfFxWqn5uN8TTV7RSfzuZOSZrCvFS2+HpeVLakKcjvT3G+SwdLk/oduDAnP9wUKwV4MtNm77cR8k7hfB/bS4YwR3sOGOWtzhj7uOcBck7srGFRG4sgZXaOFKP1wxiiuPcQU7roXANTW4NgvX+OFaUVxzjGvXcQME3EgDN2TBjX1wgyjb0dg/ieNTRHvBb/MAAAAASUVORK5CYII='
p46
sb.