ccopy_reg
_reconstructor
p0
(cemoji
Emoji
p1
c__builtin__
object
p2
Ntp3
Rp4
(dp5
S'emojipedia_url'
p6
Vhttp://emojipedia.org/radio-button/
p7
sS'index'
p8
V1275
p9
sS'code'
p10
VU+1F518
p11
sS'apple'
p12
S'data:image/png;base64,iVBORw0KGgoAAAANSUhEUgAAAEAAAABACAQAAAAAYLlVAAAHv0lEQVR4Xu2ZX4xUVx3HP+fec++dmR12F+jSFpTlnxQxK6NbIG1om2LkQWIMMdroE74AoRB5IGnxxVfb9MGEokKC+qRRUNJiCUl1TU3TQnXNrtvaoARtE1RKC+yy/2bmnnNs7z2Zk5Od3dnZfeiDfk5Odl9mvt/fn3PvyW/4uPk/grZZ15X2syHcYhIq5AyJqhrmqhxklDYR65g/sm/6iXBn+BAECOcek20NqNfVQOEXjLRhYOP8pOPxvcE+2R8S2CUQOAwGbZciHdSnyj+lRmsQm2lJPLk/eCpaFSAJEUgCIPQzgAI0KQZFiqZ+XT9TOklt0QbGd0bHo80hMlsBASEQNimBAhQaTZotRf2v9cMMtDCwmtnRxei5+KAkIiLItkQQZBu/BIDGZDuLP7NR+2j/oH6UKWZFfILZSDaEZ6JKRIQkzORDKy6y5WOylZtQmQVFSv2jNaS+xlVmQaynOWJ7dF72xEisBcKGONn2SwAGGiYUVj7Pw836l7lMU6SgKY9FF5JSRGzlXexO1iHAP5CEaNs1dQLqPQzUv8QrNEHSjO3RhUIpJiEizmIPnHhLDKE1ESLtp0WJC/WdXJ6XAbMhPl8oFUiIiWznu6ZrjQAMATrvGmufEudrD8/sBWnwSWJxptCT2Ogj99BpCwGI3IT9XxD0BGfMdmp4yAQfczypJBSIs+RLxCzyS+mmhzIwyQ3ucLuJCZOZoFFAXZk+zv45M1DfvmRfkTz9krBp9KvYyufpxecd/swfuY6PyU24IPbd/bHfCbKOAzqeizPxmKip/Eq+Sn/jye8I+CSr2cMgv+JfM7IgENaM+lCBRzwDHTjYHe9ISCjY5vPlY77OowSkNjYHKGv0c2zhD/zSK7RxfYRC76jt5qWmp2A47H82r7596nvynTzJGgwphtnRCB5lNScY87IAEkOMRqOfHbyIwiKHsVDZG2+26bfxO1ZxmE40Zk55bMJ7+Q4nvH4I0NagQm+u7OU0FlnBgjxkT749uY4ODlBGoZkfAZ0c4BkmvGMZYohQKGqHnAHxIDljfT1/KVHKShB68YccZD0azfwJCLjGCZdp+5KqMc0kk9z8LCNkSFsrur8ZzRL/LtaS2uS3xsmtYRcXvRyAJCKm/qEax6yBbnKi3bm89OOnzA4UGkN7CAw7eI1xZwGBQeUWdjcMRADIZaIvcm8+HI8jMwPtY5A8zks4hG3DiKjPLOMWgJQATPeXsdF78RfZim47fnf+t/J7prAQYAitzng/LwPIaQDiiq1/thyb7BVrYQQINjGMA7Ttg7hiDcS5t/W5L78Ail4UBsPCMAh6GfJCMqj8QbeeDJnLyRV57IF3AqqsQS/CgECwhpQIR2CzLFeA6wHCLivudUABSYph4QgkBYSTtysk7LIGwtxX2TrzDaBZPCVqWDA0Ml12JbCJsd68dtEsHkmNwDsbuZpnQIzPvO9raigWTw3twkJglca9a7m4GyDItwXBBJrFM0HsfatVuusZCG4IhJcaCLmLYvHcZYX3rYpM64ZXAq4ahD+zIETzHvewON5HE7pJgruiXPVuRGYIQHjHUJBwhWUsjiskSGeAAOEU3a14bLBTEQqE1wUJb7GNxfEWiXeybJursUH/PnBLDZptBrxzkPA3PmApC+c277IRgcXdjgfvv2UN3I9lwNhgnYUC3VzkCRbORbopNHJq3N8BLBKL+pl+WgPCLmuAN3mE+1gY/+FNNjUMmMaNQKPOYpEKy4ga0hWNcQYI6WQ5ZznIwjjLcjr9d2Emn46UBrHIEhbSH6qTGsANYChxH29zjq/QPi/wAZ+m1IhfoACNQj0PMzNA9XTh22qzQro+QNLNSi5xb9un4Q0usZFupDfEUdnoqnqaBrJKA1U7lr6gMV4OiqxkinPUeYj58zq/oZeVFL34TT66OlZUNJBFHLxYfzXdoZAYAtcH9JLya66zh4DWaM5xmbX0evXXdoJYf7X0IoDXAw5ztH4pRntzgYDlGASDXGMP65iba5zjNutYy3IkuP5Ho6hjjuIh9uMTnCzvK5IgvVloyh3e5R1u8wC7WENz/slveZul9LKabk9ekVJlivFT+ILIAB9zZHpbVIn8TiBmOTFLuM6/OU6BLXyGJawiADTXmWCEYaYps45V3MsSwoa8QNvqTw+ZI/ggDuAD0Yb4tVJPIR9ReNPAKqO8x3uMMkGNFIW2tylJTAddrGAFXSTuM2BTP83kzWZDKnGYmdS2dw0US8kMC6CpMs4Yo4wxbW9MITEFOumikw734PXkq0xNjroxnd8DzYgfK17oKMVNLIBBUaVKHWXbKyQiIXHvfV+eGhOTU7MNKmOa8sroTnGeHoGwveBMCAIiysyFAUDbkfXkzVE3qm2VAUe8oXymWMmzECI8E63FDcpGPzU0bofVrTPgc/X2w+b7ep8hAgKC1iZsSewrJ6v99Kk7R+Yc1x9gbspfKJ1IHpCNcT2zzoyN3XZcT0r1yuST/I45EUdpRUecHpJPJz12duaP7MEf1dvYU6o30+/J56nRAvFd5sON4j3fCg9EfW6CkC/ASlv5/Hk/on70/k+8xC+0BD5dfdE3oi/KB20eaOBi/1P95frP2/rZ7inapiveZj4lt4hlwVoy9D/MrXRY/L32BqNY2jDw8RLwv27gv3ZMvTxA1c3WAAAAAElFTkSuQmCC'
p13
sS'twit'
p14
S'data:image/png;base64,iVBORw0KGgoAAAANSUhEUgAAAEgAAABICAMAAABiM0N1AAAAe1BMVEUAAAAiZpkiZpkiZpkiZpkiZpkiZpkiZpkiZpkiZpkiZpkiZpkiZpkiZpkiZpk/fKpvoseVv9673fVbk7yex+Q1daVSi7ax1u+Mprheb3sjKS4AAACYtMcJGiZGU1w6RU0RM00cU3wXHB+vz+YGEx0VQGAXRmkeWYYCBgoilYbEAAAAD3RSTlMAIGCPv9//AFCf70CvgM/BTNtMAAACAUlEQVR4AezSXW6DMBDE8V0Mg20+AobA/W9aNU2lJpk1OH3pQ38H+Eser2Ro5eoGd03tKm1t0hp8aPCiCb4spC7CEJ2eDnU9svruVEgDDgU9Dg0RJ8ThIKQjTho1F/IRp0VvhwYUGaxQQKFAQrxTUBLeKS9JyT7E8BzyeJN/DGnEm6I+hEa8bbyH+EDlM0n5w/jjpPTnifAd6vBL3T3Uw3SZ5nQzTxeY+q+QwrKs6Yd1gUVvIQfuOqcn8xWcu4UiqG1PL/YNVPwMeVBLohZQvhXj77dk2IwLkLah++zJsNOdmlYUzJxMMxiVqmCgzEyVOBBrylhBOKnZPacsduO1sK2nlDWxtaVwanNuGkoH/kN/MfTRipnlZgzCQPgakC8GsrDc/4R96UPbf7BUyT7AKET2bMnHSRJILWT2gbJaSHkihw90yBNRR8vp4ZzIo1U0YsUDqqZoRBJbw/ndiaaITVLtxf3scJ6bS1GtJv+Xun0YryZ/KUcdisYpMLQcaYE0qI94VwXbCaSU7Lng/vjj6YY1t5ItBWkAlPPX/hSAIcXIsTUdgCN/f1bKBwBd2xrPaI3Fx6yhjZZv/abxZ2x61s8xo/3lx7zdN6OuPb6aAYC1y7HHMYY9LEJEhZqomBUV/KKiaFQ4jorrUQVCVKURVLJE1T7hRVR8NRZf1on5V334BXIBsvSp07OCAAAAAElFTkSuQmCC'
p15
sS'gmail'
p16
S'data:image/png;base64,R0lGODlhDwAPALMPAP7wCd/gqP390QAAAO3tXEVCImRkTbCwgx0XAEEzAN68AQ4OEB4eGJWNA5V3AAAAACH5BAEAAA8ALAAAAAAPAA8AAARq8EmJUklo6oecUgCgOJmWgGEqJhOCAsQRCAShlE5qLMNiCLQGB2UYGI0/WgVE4B17M0GhEDo8jwegIREKOI+LaMEFEBSfyQDjkdPyfEDBgaIgAAOyuHpyssfvBRsIDVECeGsbFAUGBQsbEQA7'
p17
sS'related_to'
p18
(lp19
sS'name'
p20
Vradio button
p21
sS'known_as'
p22
(lp23
sS'default'
p24
Vemoji
p25
sS'bw'
p26
S'data:image/png;base64,iVBORw0KGgoAAAANSUhEUgAAAJAAAACQCAYAAADnRuK4AAAK7klEQVR42u2dL9ANXxjH3yAIgiAIgiAIgiAIgiAIgiAIgiAIgiAI74wgCIIgCIIgCIIgCIIgCIIgCIIgCIIgCML+5nNn9jc7j+fcu/uc3XvO7v1+Z878xvu773v37vnc5zz/ztm9RpIytKdbIAkgSQBJAkgSQJIkgCQBJAkgSQBJkgCSBJAkgCQBJEkCSBJAkgCSBJAkCSBJAEkCSBJAkgCSJAEkCSBJAEkCaGf058+f5sOHD82LFy+ahw8fNvfu3Wtu3rzZXL9+/f9x48aNZn9/v3n06FHz6tWr5uPHj83Pnz9Fzy4C9PXr1+bp06fNtWvXmmPHjjV7e3vhcfz48RVgz549a759+yaAlqp3796tJjoXmD5AYb2waAJo5vr161fz4MGD1aROCU1qnD59erXk/f79WwDNST9+/Ghu377dHDx4sAg4dhw6dGjlVy3VZ9pbEjg4uwcOHKgCHDsAGrCxjAKoIv39+3e1VPFNrxEcO44cOdI8fvx4dd0CqLA+f/7cnDt3bhbg2HHx4sVVRCiACunJkyfV+DnRcfjw4ebly5cCaJsiqrly5cqswbED322uS9qsAPr+/Xtz5syZRcHTjvPnz88yUpsNQPgLJ06cWCQ83dwR0aQAGlmfPn1aRS9LhqcdZMvnVBbZm4Pl2QY8pAFYHq9evbrK15D8awflCX6OhdiG4w5Ec7FEVQPETZyqFAEwFFSpwpMOoCrfV1++fFlFT0A1Vf4JWOfgE1ULEBN69uzZSZxVqvFjTQ5RISmF3HwUIb13rUPAFkAdYR3GBIfQH19qal+N6x5aTqHXCKt29OhRN8QXQANFf81Y4Fy4cGHr7RWARKa5z/Xhb7XCefYgYpkVQD3FTRzDr8DxLp3l5f3X9SBheazev3//jwVjeau17FEVQGRjx/B78B1qiWJIfnqfieAg5d8Q+Xm1MwG0QTijufDcvXu3yrIAqQB7rURxqWtl6bWvp4ovgBKiT8Zb/4cMoqua5VmWW7duJS2XzX/x79r6iaoB6M6dO4uGZx1EBA2e+EzrnG4BNJLjTEPZnGSXMz47YbznE9r6H5nwmhKMVQDEjokoPJcuXWrmKNtVQCLS84fevHnTK3rbWYBY66N9zCdPnpxtszqf24b4KSeZqNJarFp2exQHiKgpan3Y7zVFKoElld2n/H3+y7+niOzIE3U/D0GEB8br16//+exsGdp5gJiU6Ga/MVP85IxIIZBrSVX+SeaxXOLwjhkJ2Yx1yp+zvhDF1hrSFUUBosQQ3SIzRs8Mjiv+19AllPfHER7jGih7WFA9QLE49jrIWu80QORAIgAR8ucKfyO3twdfBMuVK1s4vn//vpsns9dbQ0hfFCCc4KGThrXAAY0KH+Py5cujVvoBIMepxQp1rSD3pY8zzbK2swDhnEYmi/R/VHyLp2rKp/SQA5GFwwsQsJr2fUu3vxYDyFvT+wzO5xnLYR17YImijq2tA/K3rOictO85xhI6S4C84mKfXuHoBHF41Daa4lNliT5La7crEf/Kq9bbqLV0w1kxgE6dOrW15QsfY1u7WJn46LLC5+v+La8Rzjrcpf2gYgBFss/RzjzyN9vcmoN1HSOx6OWE+Jl9v5L5oCIAeWt5n8HvRXI92z7yJVrw5FptH3efrPTUvd7VAYQjPHRSSPNHvmnkVEpsEIy2l3S7Eljmvaz5mIHFLAHywtE++6RqjLzWHd8SUTfNgCXzvjTWnyvZqVgEIK+pqs+2nKEiiil1BAzLZiQvZB1pL2lqN1uWbO8oAlAkhI84ptz8kvvcI9GYLe94fh/WuJZQvghAkQayyLcsmu0ea/D+udbZy0jbrDX3UwBtGNzYoeLmlwQo0q8kgCoCKNouMtaItFsIoB5izR46GZHWBXyQkgBFdpPyOTctg3aj4s4BFInCvOLiJhEFlTw3OhKFWevsOeI7H4VFCpvkRyKy5n5bg10WEVnr4hVUbdst93OnAKKmFanER5TTtJ8zosm9bibaK5Ri1Wo6vaMIQFHnNpJXKRHKs2xGDneweStvz5vtoU5V7RcNkFfP6TOix7VsexmL+GvIFkq9pck7OymnxXeWAKHIdp5oxpVQeFvONO8TrY7bDL0XwtvXRIvMswcoUuTEJ4jerEjqIDIi+SqEs9x1jlNg2J7uSI1wEQARem5zNyoTNPUp9zTWRwG3gYVX+2NTgLWkpc8MKgbQ27dvQ5OUkzTDV5jq2ODcY3mtReb+WNmOxWiT3SIAIhyNHOnC7+RM1BTP28g9Uo+MddeypJZqC1lp/6coQCh6lG/uzlSWs9wDrbpH6uWe5Wzvg9fNCKC2tylnj9wiAIq0to65Nx5/KnpAONZgjPyL3ZXK1h6vBOK15nJ20E4DxDfXO6F9yp0PqWQjlgSYUuE+P2epwvkf0++wO0a83I93UllORLoYgLy8xjbyLZt8M6wb1qV7PtAUBzrZ/BRQeMuhlzys5Vi/4gDZrSxDBrsW5vpcdgIBGxF6KQqAsq9jCa/ltNYqzkjMOS2jZC/MmInUVJbdO0MgdTTwzgKET5FTaih9wEBuEpUckmdJibxs6wb3qaYH0lVzTnROqYGbSiFyDsKf6X5ZWI5SvpzX+lubxa0GIL5tOWdFzwEiCw/j+fPn7mvJRNvXcn9KVt6rBgh5BwcMhajW5YzPZoFIdRJ6S1fq6DsBZCKOoU9m9l6Pma8lOiNa8p5zT97JE7kdL7lJ+aXGpxdW97ywIQ41zig31Tu+hXMGIxv7xhS5JLuLtL3uVBLQO3gUP6n0Z5kNQKjPiRrdbT5MhudwAuJYx/EOEX4K7+t9EdYlAFNLeI2PeaoaIIDwnpe1aRsL4HmTxjeYJWPqxyLgu3BtXnmGn61rfqeA6l071rXG559VDVDrO3j+DROxzqKwbKSeO0YUg6Ua+xEJREz83VQUyVadddGTF53NJdNe9XPj6ZPxohFS+97jkbrwYQnW+VLASe6JjoChZQEsDc1d/P66BjWunahwnQVhefKuk57xWp+TOhuAWovinfGDJfK69qxDTs9MH6ecCSPSoTcH/4re5nbg2PJ3+P8As+nMId4Pi7SpySzV1lvzQ3ZnB1C7RHiT1jfvw2Tg1KYepDLWYOIBbhM4+GKpTQX8jVojrtkC1FqiFAB82/s4yCwlNGHx+rFgwu+hGIyD3Mdf4cuQ2tKEdSvd47xYgFpLkko0MpFDDvluYSJyY9kiX9PnODwmnwiR5Yff75vcA3DeJ7WcsjzWVqZYHECtg7wuxKdrcJ2D3SeHgxUgUmtHblMZDve6jZRkqmvMMi8SoNZ6pHI+rW9EhJQD0hgCPi8T3b1OorCa8zyLBKjrF23a50UibpvN51gpKuybHuUAWHPzdxYHEML0UwLY1ApCbQyrNUWEgwUB5j7OOf9/7lZnUQB1k3t9H1/JJOLQ4nQD1FDfhslneaT8QH6oz84SHHTyS7X0MgugNcnDoT3WQEd0x3IHhDaRyCZEfo7zztI0tP0WWGtqQxVAPYSFIHmY0+WYM6jHAeJSwVk8QF2nlnoXViBVZB0zE42lGpIfEkAzc7jJBON0A1T0mfVdK0PeiWWOkH1XoNlZgFJQEUFRiqBHGRjIIWFJ2sG/yTyzRwtrhuM9dW+RAJIEkCQJIEkASQJIEkCSJIAkASQJIEkASZIAkgSQJIAkASQJIEkSQJIAkgSQJIAkSQBJAkgSQJIAkiQBJAkgSQBJAkiSBJAkgCQBJAkgSQBJkgCSiug/cYr7L9Gz2bAAAAAASUVORK5CYII='
p27
sS'version'
p28
VV6.0\u02b2
p29
sS'uni'
p30
V\U0001f518
p31
sS'desc'
p32
V\U0001f518 
p33
sS'browser'
p34
V\U0001f518
p35
sS'annotations'
p36
(lp37
Vbutton
p38
aVgeometric
p39
aVradio
p40
aVsign
p41
aVsymbol
p42
asS'wind'
p43
S'data:image/png;base64,iVBORw0KGgoAAAANSUhEUgAAAEgAAABICAYAAABV7bNHAAAAAXNSR0IArs4c6QAAAARnQU1BAACxjwv8YQUAAAY2SURBVHhe7ZvNax5FHMefxIsn24ui6EWrVMRqDxVECwUjKigIEXsyDehBEFM8VTHJKQlYUZBWtJcKqT34gi8HA74mBvTUHkRFfKwvp6jYU/+BxO/32e8+3efZmd2Z2dlFZD6w/GY2z8785ru/edndSS+RSCQSiUQikUgkEon/GhOynbK8vHxkZ2fnEJJ7JiYmroXdO/hDmT5+9zfsb/jd5sLCwpnsdHd0JpBEOYzkQTR2V3bWD1x/CeYbXP9eV2K1LtDS0tIczBE06kB2Jg4Q6zzMmcXFxZPZmXZoTSBFzFxsYcahUKjjZFsR1YpAiJrTcPpJZTsBQr2FaHpK2WhEFWhlZeW27e3tVceo4QD8LewfOC6NdxV1TY5V+1DenbC2gXwIo2lycnJ2fn7+J51qTDSB0KCH0JDXkLQ2BA3YgvkIxxoE+XRw0hGWD/M4jgdRz/WDk2Yo/HO+5duIIpCcfweOG2cnOMzZ5xScfiE70wzUx2ibqaoPfzsaY1xqLBC7FRz6EElj5OBvmwj7Z2KGPVF3fgNCcD1VAvVuod4HmtbbWCDMVj/D2MQ5HitqbCCaXoJIzys7Th9RdKvSQUzKBgHnTsOUxGGIw8y2LQ5RHbOqc5y98PFdpYMIjiBUzDXOCWXHmfXp/ywLhgPv1YMTvd5FHFtovPMikOsumNUsNwrEO+pTVpFggWxdy7VbSZTHbGNIDsrbhPnApYEo09jdUAbFvkFZL4IEqnCE0/cjyhoJXWHjGqcVM3z7BL97WNkhuD5oPAwdg56QHcK7hFnjmLJGKCyM60JyBF2zqjKs0Af6omyRks8ueAsEBxfgrGmhdrZqStWdtc02zrAMlqVsCflwNstdhj7XiWsiJILulx3CO1YVvnQMDpbCPhSWVdVY+mKJortlnfESiIszOGcaVPn4YIRjDu+6stFgmZq5bJii6BDboKwTXgJh5Tqt5Ajo928qaeJF2eggSjgTGoFPxsEcbagStYRvF9snOwRObtrGHnUD68NrUxARB1DHgrIj0Cf6pmyR22Wd8BXoJtkiP8iamJJtk9KYWKDkG0S9WUknvATiHVOyyC+yI+DO8vWH93TuS824YvLNK6J9I6gE+vpXSo7Tujg5GFeMkYrZzLj69hmonQVCRBgHxIq1z42yXbBf1gmboCYaR9D/nSRQDUmgGpwFqhiMbfCdTlfwy4gPF2RrcRaoYjFoHLwx/VofXFuAX1lL2B5FMLs5f/Hw7WJ92SLGTzB8b2N5YIxN39Zg1F+azn198hIIhf+qZJGqpbv1ITYW8OljJU2YfDO1wYpvBP0oW+SgbAk+xKIBppfpUWA02B5Khcm3qkejEr4CfS07BGPNrqoHRphXslwrnKoYG/liz/RhcU3WCS+B1NdN49CjsiVwzTLutJdTLrBMlq2sCZNP1vHKhm8EGfs8H0ptsxlBN+C7apOwobCh1o8D9IU+KTsEvn+hpDPeArHPoyLTuGJ9EcVuAIenY0QSy2BZytoo+UKfOSYq60zoZx/j/h848TrurDWSCK6t3HhgQzflbZfyUfazyg7B9UH7h7wjiOBOvCqHx5mpeU/MMWkO199Dh3HUrkn4G/6W19SJo7pnstxl6Ct9VtaLJp+erV8x4Yzzrgo2CtfcheQ1OPI3lr/j+Afln3P9hK3dHp/jmtLCFeXXRraNYIEIRDoHh0wvxvo4P+0qUlMoDkQwbsHB+fMQhzcgiKAuloNIse6q4N2s624xYB2sC0njLhP6qGwQV8gGsb6+fnFqaupPOHIfIuZKnR6A/FU8D3ZvbGx8qdNRYTeHWURd+a6QEXD+aXTRRnU36mI5tvEoh2EOg0iPs28Q9XHL3xLqtL73Rp3HUV/j/UlRBCJ1IhE4zTVM8C55DeiHUUblZ+xY4pBoAhE14AQaULfGybcAf4eGVO77gfCcffajzHthKz/ZoMxomzdzogpEXMJ/HDSM66G/styQ61BG1XbfEVBG1G6cE12gHAgVtGL2hVEDU7vCDqU1gYgWby9DpGhbX4pAnDVM48faXG+1KlCOup3LLvla1B0/w/F+7O5kohOBimgg5x6jO1zHKY0v3+P3nf9TXecCjaPouiXLlbjQRZQkEolEIpFIJMbp9f4FwlHhAAuoaZMAAAAASUVORK5CYII='
p44
sS'andr'
p45
S'data:image/png;base64,iVBORw0KGgoAAAANSUhEUgAAAEgAAABECAMAAAAV8YMOAAAABGdBTUEAALGPC/xhBQAAAAFzUkdCAK7OHOkAAAMAUExURUxpcfy7Hf7WFvzCG/eUKfu3HvmfJfy7Hfy8Hfu5HfiYJ/y6HfzCG/zCG/zCG/eWKPiXJ/zCG/mfJfiaJ/zCG/eWKPmfJfzCG/eVKPiZJ/zBG/zCG/zCG/zCG/zCG/zCG/eUKPeVKPiaJvzCG/zCG/zCG/eVKPzCG/ibJvzCG/ifJfeVKPmdJfzCG/zCG/miJPmgJfzCG/zCG/iaJvmiJPiaJ/zCG/iaJ/iaJ/iZJ/eWKPzCG/zCG/zCG/iZJ/iZJ/mfJfmfJfidJvzCG/eVKPzCG/eVKfzCG/zCG/miJfzCG/meJveVKPzCG/idJvzCG/y+HPmeJvzCG/zCG/zCG/ihJfeTKfzCG/iZJ/zCG/zCG/zCG/icJvzCG/iaJ/zCG/icJveZJ/zCG/iaJ/zCG/zCG/zCG/mlJPzCG/u6HfzCG/ibJ/igJfzCG/qwIPzCG/eTKf///+1sMPeSJu1rLvzCGfeTKPzBGfeUKfzBF////v/+/veUK/zDHO1qLe51PPibOO1uM/eSKP/+/f7st//++v7rs/e8oPzFJu1qLvvHkPzDIP7z5//67/rYx+5xN//7+f718PCGVP/9+v/55vmtW/Wvjv3jx/3ORf/34P/12f7ehP3XaO5yOP3MPv3v6PzKNveWLvy/HPikS/3ZcvzDHvicJvrUwvnKtO96Q/CCTv3mzv3PSv3bd/3ly/zUq/7knP727f3VYveYM/zl2/7mn/u7Hf706/iXKPq9e/7t2/7hjPzXr/qrIv/99P/59vjDqv/56fuzH/zo3vu3HvzHLP3evvOfd/3ixPSlgPzSpv7jlf3evfq3b/rayvmnUPigQf3TWP3QUPvDh/7xyvmzaPrAgvmjJO1pLPvdz/moIvKYbPzJM/a3mPSie/KVavnOuvvOnfKRZPq5dPvczvqwIfWxkfmpVP3o0fmoUvigRP3cff7q1v7u3fe/pfvPoPOZb/ifPP3fp/7z0/zq4f728/GQYv7kmvjFrvmhJf7vzv7oqv3TXPzOnvGMXfmmQXzw/HsAAABvdFJOUwAHAbX9BQsJAgPJD+Mr/t/NkTFcDNMn1+W/FRvG7Pg++/F/mM/7911sqEjYFb7bHith7WYbp0NxkbbPfTkgr3oYRVNG29PrMi8SdEHo806TATbosMoh0fCdaqOKPFSkM1eHhYNQJ9+9Vu9vszqBLQHVHT8AAAWGSURBVFjDnZh3XFNXFMdBRkCmsnfZGwsoQ0RAZh0FV+vo3vOT8R6EQBJG2MoeZe+NYotSmUrRap11Va3Wqt17t3S3GYR73stL8vD3Z3Lzzbln3XOvhoZK6Rj4+VnG+Pi8Eu33gK7GPUpz+zqvHTYWviYJCQnWcb6ma6PMli8extgcGh7nkc4iSNvaxmXDolgrgsM3kiDzSne2CV5JGxO6WpulXNqmXrRQfl4W6SzV0l76hNoN6sXY3MdSL48dlmrMcdnIoqV0Ux89FRzLtdosurL20lfKWb6UtQg5Rylz1COmi+HksjxcdKjtsaD+RZpEik7qvTH7oifV7u6nsAfDsDR+tlgH+WkYlgswf8x2MgVMw1hFTnS4IoV/ofby6RPDQ0NDwydOX63NFmNlX/V+2ilgSuT2rEKZP0lKHyz3wsdTExWZbLlEpcMlX3ZgEnOuvcmUy9uABFrnTPRkWlfJNxVskjL2HqjlY2PTnQscpuNOYjqtJAYey746IWJT6fDd/2aZUFZGhMKIIibi52er2UqU+effBJDxMk2Y0SYQwz/3LVuFaroFqYC0ZQ0APQ3qPY0/fpitUqXdAmhTMkqmFYRUHH+DrUZvjUCTnkNeMgOhx97by1arxn1c4KX1Czm0FnC++oJNQ3lvA5v8zeXFAVzd8b1C2DMrKhQ+y28Ce3OQu9sMxR6rJTmo8nzhqZMnT90q+5X4eUM92Nz6FClH/zEUsY4DRMzMR1mc60LhdTzrZh/RrNdB5LbKUskcZTX2LsHT79/OEeIcqXDhQOFRgkmtyCQrO1kfskagkgxQWX2DxRwkvLwQprtoPwIFOcnqdSH4aQffgfYMCjlQ+EAfNKmgByWApxQUjAzqAjurvFnMIar4N5jyje0oAyIk3tYPA8kIjL9TziEr53dYKPt4CyBXSfPWfBl1oRK0ruJDoQJI+APwt2gEgbYyxCBd0IpA8NsGcQUQPnAMxKIbeVuLBOKfResOZXEU1QLd3YR8tE1SJLqrEeg1tKysnAKUMwNAkwgULwU9RAk630IB4hSCrYFEclMBotxaeT8ANSNn+0t9hA5GPsjHtioKZ2d9ghZUX+QpdXb6FFhHEf7ifytB665HoF2SqtW1QcUP8oh9h8JJt0AHuAJ6227J4aazCmX2ObCw8ja5RIRVv4A/GgU98iVJqaW4gC4Ci6lsACd5qB/0hnzga8dnZA0ynbr6RTNZOIFTWEGoWRR9wyQpKAYd+9hl2Aar+wdx+fZwvKofcjLOgKZtL5skoi2o+4h49aHPqlpycBznlFfVHSMebaD2mcmyQUJ/FRig7mYSm3xb2Xd1dXWFZW2kuWSuB0wkj1KcIl0TdI41diPo2Mz4yHnQdl9w8o8fpcE50g3P7GT5iJQSBkAd/4jUckSjRQDk4ITmWWswq2VPqSNlFHwADfJmoDkrDIw1uT/+lK+G0w45DiFwNI4DgbtRNFmqgpP/F8EeY1cGAKWEeiyArnWm9jT/rHxea4L+Ic+QGgYLudQrHn1Tue1naqjDVXCJSeBsCkwh3YvmO/fYcen3XEH9XEOGwsyXN1LEI4yi7ssY5Il9g2xImpYv4Qla9+c1HEEhr7kyeamIRzBH3BrtFK4QSx40md+YXFzuntaLX88V5OXlFYw2NdcXpZIxTHsjikuNlDRNXMjlpQp69oglSOVxyRTx4ZFIec1a4uM7dlzApC/7x5XdIDc/704fY6xlpPxOGx1hSJezKdlO1S1bP0TLkRYn3pOh5uJvEGivfn9BrkY0niLsArWCVGIcvGM16T2OmDs9te1hJRRHq2QnxiLea2xDIrQCyDD3LW6uL0TqLfoJKTJ2525vf6sAQ7EC4v13veq5xlbnHl+19BgGtnZJiYlJdrYGqjf0P0RZbYZAQnGvAAAAAElFTkSuQmCC'
p46
sb.