ccopy_reg
_reconstructor
p0
(cemoji
Emoji
p1
c__builtin__
object
p2
Ntp3
Rp4
(dp5
S'emojipedia_url'
p6
Vhttp://emojipedia.org/black-square-button/
p7
sS'index'
p8
V1276
p9
sS'code'
p10
VU+1F532
p11
sS'apple'
p12
S'data:image/png;base64,iVBORw0KGgoAAAANSUhEUgAAAEAAAABACAQAAAAAYLlVAAADqklEQVR4Ae3ZMY4bRxcE4K97ZiUHBmQpcGTdwKewo/8GvsUf6RSKfAsfSBewnVmAAAGGvF5y3nNCkHgAu7EgxVWiIpYzXKC3aqr6VQPc1RfGVwEr8PLH/nZ5RXd7BLYP8cY7WF+C9uvzn1bN0yDt3T/zM6wNrC8WixCDBZehOYdukdYXwLoCWxNe+16i6drxxenq+LkSJFJyvCYCKRHy8Gr+8qfGhroJ03d+sLdoViwalnJHvaMLJGBDHq8b2CQ2e4TuwR+jKfjkg9T0gwOOV5YTJVo1WIJEgDzJkeL4HppPVAEQUrN3fxBQQ6j2Ax00JAhAlp+UnCQI3R4pAGsAcNDYhSaPEhQJlbYVUpW+7ICTBzErorBxIM7B8zfK3TlyUpb3OPpsJCCFTaCjn6h1eUx+LqDKiBLFIQIhRw6kkDahi5MIgajPTxVQySkRbCCQYuRAasIGuq1Y1UGXKnEV0ATglD0nagLdhhw7AKGDxO+6ebfNm/M1Aqf3ZBRBCIEudAR+Q3MZEm9U+i5GEShaQweLRXcZwmYPghLHIAJSoINNwzeeWVyGzYNQH29h7MAmyubpwp3nVpdhL23F9LTZ5g4kUgOBbrlYQOoIOTnUV5TKDEBHatI1SCkBAboov12zZBYCDRsaVwvYQJagzziwSc3OziKRWqnRy58/AAkHjpMw1q0s+Mczd1LopZ4vQ5QAOh48jIooD3rv7TzXBLg+ggCw+ddOl7MpIISdO3f6KYYrBECKg/UF47OABzvc6XZX0e88CLsy2jkTUPfrA97jW92i6x6HEDbhb+/dU7fhZA8MLQxhD9rhpZaqDeSZmUlNxfgsOLN8tnTvcUgV0ylISdV8VQ+c+5TXOHCNiJw7EJqUIG8hoPZNETBc0K6v4rN/84wDe4u8WQR5RtYesO7Pab7+JJwmP5iCKFNwuIqrDqM4IyHF005Bzqdg2lg3mAIwd6DdbAxz7EAIrUagfTYnsgqQ4vz3A+Tg1Pp85BWs8y3YbiCgsMyb0FP2AFG0ZXHm87UgKRhPQTU/b+BD8pgIUrvRWWBcROe24S8aaNPtmYNnTgYxTKu4FQ8S5LwbxmIeX8WElBd+EZ2PFlBZVmeQg+O4jWnGHjx+DHG9A5cKCH2+oDqiyTnF3CE5Pgty8Kx5SV/OZM6LaO7FnG6OnE0B5OPSvtiBxmgKmk2C5hZIQGhVAORCCuEpkAdGWBPEx5SeEvGxTsH/d2/7qyek/+BNicA7/4uv/7z+IvgPEHRi82BAws8AAAAASUVORK5CYII='
p13
sS'twit'
p14
S'data:image/png;base64,iVBORw0KGgoAAAANSUhEUgAAAEgAAABIBAMAAACnw650AAAAIVBMVEUAAAAjHyAjHyAjHyAjHyAjHyAjHyAjHyBgXl/Ozs/m5+hNqsnHAAAACHRSTlMAYL//ACDP71kzCuAAAAB9SURBVEjH7daxEUBAFIThrYEKjAq4gAIeFRgVUIESZEq4CtxVKb6Z422K98dfvgugcI9VIpDZKa2CYdNQN2F0agtKHTWoddTCEb0d9T5mCnuCjpjtTJDPo5CgeJMhQ4YMGfobomaDGiBqyr665tShoa4RdbKou0YdPxH9Ql7MWRv7Jo4FogAAAABJRU5ErkJggg=='
p15
sS'gmail'
p16
S''
p17
sS'related_to'
p18
(lp19
sS'name'
p20
Vblack square button
p21
sS'known_as'
p22
(lp23
sS'default'
p24
Vemoji
p25
sS'bw'
p26
S'data:image/png;base64,iVBORw0KGgoAAAANSUhEUgAAAJAAAACQCAYAAADnRuK4AAAD+UlEQVR42u3doVMqaxjAYYPBQDAQDASDkWAwGAwGgoFgMBgIRoPBYDAwYyAQDAYDwWgw+gcQjAYDwWAwGAgGg8FgIHx3Xu6cGc+9BkGBdff5zbzlzHGcs/sc9ttdYOeS9I3mbAIBJIAEkACSABJAAkgASQAJIAEkgCSABJAAEkASQAJIAAkgASQBpMICen9/T91uNx0fH6etra20srKSFhYW0tzcXGGnVCoNt0O9Xk/NZjPd3NykwWAA0MdeXl7SwcFBWlxcLDSWr065XB5ien19BajT6Qw3CBijT6VSGb5iFxZQ/C8C4XszPz+fLi4uigeo1WoB8INzdXVVHEAPDw/DxaEd/7Pron6/XwxA29vbdvoEZn9/P/+AHh8fh8dtO/znJy55xBltrgGdnp7a2ROcy8vLfAOKC4R29OSm0WjkG9AoFws3NjaGZxf39/fp6empkHN9fZ12dna+vM2q1Wp+AT0/P395Q9RqteGtDY12ySPWl7kF1Ov1vrwh4lRf/16pH/WkY9oL6akBihuBX72BqJTa7fZYZ6xx6Cs0oOXl5f/97NHRUdrb2yvMfOdaGUCfAIo/c5YFEEAAAQQQQAABZAACCCCAAAIIIICyOktLS2l1dXWqnzgBKEeA4qpyFDeGz8/Pp/I5N4ByCOhPgQgggMYGFK9Ekz6cAZRjQFGsiQACaGxAm5ubAAEEEEAAAQQQQAABBBBAAAEEEEAAAQQQQAABBBBAAAEEEEAAAQQQQAABBBBAAAEEEEAAAQQQQAABBBBAAAEEEEAAAQQQQAABBBBAAAEEEEAAAQQQQAABVBhA8c1f8feyNPGUIYB+CaDPdlYWW19fByiLgOIZW7+hcrkMUBYBxVfoxnNZs1w8RNe3tGZ4ER1Pes4qongObKVSASjrZ2HxShSHs1gTnZyczHwODw9TvV4f6/mnABX8NN6zMgACCCCAAAIIIIAAAggggAACyAAEEEATAhQ3Gz/WbrfBACil29vbkTdCp9OZ2i2AvEy/388noPiHjfJOvlarBc8YM+2m+hun8dTiIs9n68dcAVpbW7OjJzhx1z/XgJrNph09wTk7O8s3oFEW0mb0iTet5RpQVK1W7ewJTK1WS7No6oC63a6zqx+e2J69Xq8YgKLd3V07/gcn1pazaiaA3t7ehmcMdv73p9FopMFgUCxAfxDFK5HD2fiHrXjT/izxzBTQxzWRhfVoEx9fijPaLDSXMlJskDiWx8VGV6z/nlKpNEQT22dWi+XMA/pvcUM1UMVd/KLO3d3d1G+O5gaQfkcACSABJIAEkASQABJAAkgCSAAJIAEkASSABJAAkgASQAJIAAkgCSABJIAEkASQABJAynX/AEZKyJ0zVulFAAAAAElFTkSuQmCC'
p27
sS'version'
p28
VV6.0\u02b2
p29
sS'uni'
p30
g17
sS'desc'
p31
V\U0001f532
p32
sS'browser'
p33
V\U0001f532
p34
sS'annotations'
p35
(lp36
Vbutton
p37
aVgeometric
p38
aVsign
p39
aVsquare
p40
aVsymbol
p41
asS'wind'
p42
S'data:image/png;base64,iVBORw0KGgoAAAANSUhEUgAAAEgAAABICAYAAABV7bNHAAAAAXNSR0IArs4c6QAAAARnQU1BAACxjwv8YQUAAAGOSURBVHhe7duxSQZBEIbh0wpMzMRAMBKMBCuwAe3ADuzBHowsQKvQWCNRDOzAQMwMdQZmE1mZ28XbneXeBz4GTP7luztPcP4JAAAAAAAAq7JhcwmHkiPJnmRff7CAD8mD5NXyKQltR3IpeZd8d4h+tp4hpDNJr2J+50KyJQlDr1zuoD1zJwlRUsRyUrqXdC7JHSxSbiRd6Jspd6CIOZE0p1cmd5iIeZY0pa/S3EEip+ou2rRZ6tjmSE5tNjHS45Wif6MVq72DDmyOZFtS/MpfU0Fq1+ZstQWtBgU5KMhBQQ4KclCQg4IcFOSgIAcFOSjIQUEOCnJQkIOCHBTkoCAHBTkoyEFBDgpyrK2gL5uz1RZ0a3M0bzZnqy2o+IMCeLFZpLage5sjubbZhP4LN8o+4twstWn7pxG2y1K6bJmNdBc1v3sSXRbPHShSdD25K93cyh0sQnQDNwQtKdrjpr8jQ9G9xQibZ7qwqY9+WHq4Ht/XuJL8+7rvkt/2UelK6rd+lvBo88kmAAAA0MI0/QDQE6dYLBChRQAAAABJRU5ErkJggg=='
p43
sS'andr'
p44
S'data:image/png;base64,iVBORw0KGgoAAAANSUhEUgAAAEgAAABECAMAAAAV8YMOAAAABGdBTUEAALGPC/xhBQAAAAFzUkdCAK7OHOkAAAJ5UExURUxpcb3PRr3PRr3PRr3PRr3PRr3PRr3PRr3PRr3PRr3PRr3PRr3PRr3PRr3PRr3PRr3PRr3PRr3PRr3PRr3PRr3PRr3PRr3PRr3PRr3PRv///3V/P77QRrzORHR+PnR+P3aAQr/QSuftup6rUrPCU3yGRN7no3N9PXJ8O3N+Pc7Su6asg6ethfv7+vT075WdbL3PRbzOQ7zORvz99rbIRYOOQPL23MPTV8/ceo2aQXR+PXiCQ3qERr3QRrS6l/j49fr6+Pj59bzPRXeBP4yZQf3++bPCUoiRWuLqrnyGQ73OSf7+/JmgcbzBovT18HN9PJaebfz8+4mSW+nr4Zqic/f49KqwiH2GSpqhcvn699rdzLvAoLvAobW6mN/npJelQqGtVNbhjbbHSrTET93mn/b45rjJRcXVXv///rLBT73PR/v888jXZbPDRXqEQ9njlYOPQL/QS5ekUNPfhI6ZToiTTYGMRn+KQLrLSq69UdjikfP23puidOHj1v7+/oKLUPv8+qe1VszQuaiuherr4c3RurK3k5+rU9zfzv39/MzacH6ISNXhiLbHRfn67drdy9ndy4mSXLzOQvj58/P23MPUV4SPQIKOQL7JdJmhcfX448fXYf3++3qFP8/ceb3PRK29R9Pfhe/z0tPZq7fJQ+rs4v7+/aOxUOrs47XFToKNSfr7+J6mdrzBo+rr4neBQr3PSPf56NLcjr7QScnYZ7zPRNrkl7zOSoONSLfHS7XFT3V+QIyXUbO5lrO4ltnklbS5l/v89MHSUbzLWc3bc+PpupmlUsLGqsvPt5ScaqivhnmDRcbKr5efbpObaePl2OTm2nR/Po2VYG3VqOsAAAAZdFJOUwB0hhcw4wQI4bT8AZ+Y4MsHrI1E/RrnBbPTtqfwAAACX0lEQVRYw+3Y11cTQRTA4dCl9zKzcaKiRlAwERubRhUVpAgCKvaGil3sXUHABmJXir1jb1iw9/4Xmey6ELNrJpfs4/6esudkv5OnydyrUtkKiwwODenTi0JCgyPDVN1FR8SgXhcTES04XuFRyI2iwr14x9czALlVgKcvB3n7IDfz8bY5gR7Cc0ZfYDrhTY9AKxQbxD/o0KI182cOdr2ut68FKCjWCvnF8c6qOZuzKzGg3Ffv3vz9TXF+Nsif+7xk01IMbMqLZ50m7mX/HiijagHYeW54+n6iI6RfkQt0LC8NRPP4iSOkGw900s0GwjATxqkdoP4DgM4Mm8MMGugmZOEdZ9C2reahtEq/mnnHGVSXww6h9q2i7BcFKiotYGiR7z/TyxMoUH6hluawv3/gpGFaCpQ8PIHmTJ6G5YA4BwRppGLYnEMYBmWuHyXueEtTI4ZBmbOWjRR3oP08hkGalQvVUodq2/4zQChrhOTprB+bAoRSFUiBFEiBFAh41LZCoWMXdFIdPpsNg8i+E6fHiDvacA72d0SMN5tPjRZ35CAGQcQ46brzG5trkNVJwzJAxFhBc1yA8gsLjNOnUi+jO3bToKLPX1xwsGUL7eqHP5rT6E79rjLarba45NOHRFo1tdt55/9QcR7LsoSW9SuMc2hPHsuAEkPcUNNxEuhIDDX6h5fwxXKoo1k31+QAPbh/50oJYaDQatHgh+7dvaEFO9Xz7EdRfjhGjy5fu9UP1PK1i012w7EwrqPbV3fujQc0e+MGtf243rNAUEND/ywQZFtpyLdkkW3tI98iSpbV2B9RfELiai9LbAAAAABJRU5ErkJggg=='
p45
sb.