ccopy_reg
_reconstructor
p0
(cemoji
Emoji
p1
c__builtin__
object
p2
Ntp3
Rp4
(dp5
S'emojipedia_url'
p6
Vhttp://emojipedia.org/white-square-button/
p7
sS'index'
p8
V1277
p9
sS'code'
p10
VU+1F533
p11
sS'apple'
p12
S'data:image/png;base64,iVBORw0KGgoAAAANSUhEUgAAAEAAAABACAMAAACdt4HsAAABrVBMVEUAAAA/Pz9FRUVgYGBTU1NfX19kZGRlZWVmZmZpaWlqamptbW1ubm5zc3N0dHRwcHBgYGAMDAwODg4QEBARERESEhITExMUFBQVFRUXFxcYGBgZGRkbGxscHBweHh4fHx8hISEiIiIjIyMlJSUmJiYnJycoKCgpKSkqKiorKystLS0vLy8wMDAxMTEyMjIzMzM0NDQ1NTU3Nzc4ODg5OTk6Ojpvb2+BgYGEhISFhYWHh4eKioqLi4uMjIyOjo6RkZGSkpKTk5OUlJSWlpaXl5eYmJiZmZmampqbm5uenp6goKChoaGkpKSlpaWoqKipqamqqqqrq6usrKytra20tLS+vr6/v7/CwsLExMTFxcXHx8fIyMjJycnKysrLy8vMzMzNzc3Ozs7S0tLT09PV1dXW1tbX19fY2NjZ2dna2trb29vc3Nzd3d3e3t7f39/g4ODh4eHi4uLj4+Pk5OTl5eXm5ubn5+fo6Ojp6enq6urr6+vs7Ozt7e3u7u7v7+/w8PDx8fHy8vLz8/P09PT19fX29vb39vf39/f4+Pj5+fn6+vr7+/v9/f3+/v7////zppm6AAAAEXRSTlMALCy3ur3JycnJycnJycnKy4hp7AMAAAMcSURBVFjD3VdbjtNAEKxqJ4jdRXsEDsFxOAoH4jjcAHEDpIXsA9nu4qN7JjNOYmf3DywrsmJPTXVXd80M8M9fBGC8IV89UnqWAzsAw6e7/RvmHh+/JcDt3f3gDfQG4bxsxu1DAGhv7+8dBEE0P/V7ARCEuOPJfj3vhQSQ332caWRgXEyIYqwk1/DjUQUA4HRQApAgYZUJ6swuCJICgVNMs0vsCXQStgiCNYAjfUkKLgBgJcjyciuZx6FqGUAQBQoCFyN7BuUuedoFqpfxdBD5qJRBnQ6ZByjY9gxkpwQKg0rB43OhS6LDQMFTeuocgEQFjBzqQghSpAgnnU2Q8aUTEiEBHvP3IciBKKGvGx3wOYZ3DCwQI4+DrTWm3DOlEGQNA8Fj4Lu9rQD4KEGUxJMcABCo/bthBWCGA8qGWMgIRfHaGoBYqqEtpDleZWCrflDlF3JgMnCpcNAaQJ1A8DYH0DTUKXQFAXBKpKLCCIs+kq/J6IXoNPYqEKN2FgCrMkaD+TSBvQrEPO+GgZshEPB5Orrrrnk7TTbYvPM1gHn2uftgV0QJJ53nkXsSPK+AxnEMF/PWkaTWxzXFA6vheXETQDDVBaJxZcCCQs2BUCplkQNTi1NDCDMnwC0ZLbuRC1MlaMl7tZRhkBrryhwIhMWSdIWM6bbqchAhcLsOmiQuQnhlL3QAahhsdSMXS1eV0UsIG37AxbrXVGIA+HozFZG5XBsrwJUhdDkQ1KhwXQgs1Z0MaFmMmyGUta8tJKgywCtC6A0Fi/8vA6hPQrE0kxHgVY4UIDzDgNxupvIFL6mwIULNAXsVGoCN6whwVgXiy6JQ+soHHo4MFraeAL9Dzdy0Wtpn3aOeZdDlIJ2NMZxIjGUnnuRgESdz18q0Me9b8GRdyDIsDAimQ7J2+3IO8kIS8zZ2AJVEG4JWGNjxzBClwwWJnsFpgE4ijiC5gYuVXWW/j36TBXFw4njeaNln4QNgaQRJNljrSPbyveysyzGjOfLUtU7NM1+sAty4fvql2gculLfJb/4EwEFPbzo36pDwHD484fXX7WEW/ofrLzikFJugyYs7AAAAAElFTkSuQmCC'
p13
sS'twit'
p14
S'data:image/png;base64,iVBORw0KGgoAAAANSUhEUgAAAEgAAABIBAMAAACnw650AAAAIVBMVEUAAADm5+jm5+jm5+jm5+jm5+jm5+jm5+ipqao7ODkjHyBclVLDAAAAB3RSTlMAYL8AIM/vi50ITwAAAH5JREFUeF7t1rERQEAQheFXg0QsUsBSgVEBPYgJrA7MKOEqcFel+GbO7Qqxf/zl7wEoOFtFBOpZaCQ0k4TWDi2LDShlNKOW0QJW9Ha0uZDI7xE6QrIzQi6NfITCTf9BhgwZMmRIng15gPRT9u01Vx0a1TVSnSzVXdMdPyL5Ql6HHJByqjTnRAAAAABJRU5ErkJggg=='
p15
sS'gmail'
p16
S'data:image/png;base64,R0lGODlhDwAPAKIEAKo//1UAVap//38fqv///wAAAAAAAAAAACH5BAEAAAQALAAAAAAPAA8AAAM5SLrcLDAOR6Id80HAOc7V1nWfIgYoyqGmsC4uwIavuQZtXd25bPGEz6iTWghHRQYmxaQMmDOKVJEAADs='
p17
sS'related_to'
p18
(lp19
sS'name'
p20
Vwhite square button
p21
sS'known_as'
p22
(lp23
sS'default'
p24
Vemoji
p25
sS'bw'
p26
S'data:image/png;base64,iVBORw0KGgoAAAANSUhEUgAAAJAAAACQCAYAAADnRuK4AAAE0UlEQVR42u3dIVAyQRjGcYLBQDAQDAQCwUA0GAgGg4FgMBAIRoOBaGDGYDQYDASDgWA0GggGAoFgMBAIBoKBYDAYCPvNw4wzCrvHgd/cnbv/Z+YtDurs+mPv3bvDyxlCfpEcU0AARABEAEQARAiACIAIgAiACAEQARABEAEQIQAiACIAIgAiBEAEQARABEAEQIQAiAQL6PPz03S7XXN+fm4ODw9NuVw2m5ubJpfLBVv5fH42D7VazbRaLfP09GSm0ymAvmcymZizszOztbUVNJa4VSgUZpje398B1G63ZxMCjNWrWCzOVuxgAeldBITf1cbGhrm9vQ0P0OXlJQD+Y93f34cDaDgczprDOO+uUqlkqtWq2d/fD640bo1f8xCnLxqPx2EAOjo6ipyM4+Nj0+v1MrfbSHN3+vj4aPb29iLn7fT01H9Ao9HI+Y5SU9jv9xETER2qXKu3TnloR+s1oKurK+fgX15eEBITkWsV6nQ6fgPSCULbwJvNJjJWiPoj2zw2Gg2/AdlOFuqQ9vb2hooVop7IBqhSqfgLSEhsg1ZzSNy5u7tbOLyrsbb1kvqat4Cen5+tgOr1Okoi8AiFdqbz0RbfNp9JN9KJAdKFQNuAdfGULEZnmL9WGZ3nidsHvb6+hgXo4uICLZYeZ/4QNR+dbAQQgJyHrvl5AhCAAAQgAAEIQAACEIAABCAAAQhAAALQYnQ6fzAYzH5n2qVLOKt+ggJAKQHSBVvd8RjnNtAkS/c76aNLuggKoAwDWnbbZ9olRADKKCDXz8/aShTncAagFADd3Nz8iY/gqCcCUAYB6efM/2zdg60/RpYqzt2XAMoIoKQnk208gAAEIAABCEAAAhCAAAQgAAEIQAACEIAABCAAAQhAAAIQgAAEIAABCEAAAhCAAAQgAAEIQAACEIAABCAAAQhAAAIQgAAEIAABCEAAAhCAAAQgAAEIQAACEIAABCAAAQhAP2N7oC+AABQ7Dw8PAALQ+tG/0N3e3gYQgNZPr9f7gQhAAFprJdLhTD3Rqv8hHkAA8iIAAhCAAAQgAAEIQAACEIAABCAAAQhAoQIaj8eziQmlbBeGAeQA1Gq1Ir+v3W5n7hGWSVc+nwdQv9+3Dvjk5MT5PdfX18HjUVUqlYW52dnZsb5Wq7WXgDQw24D1TmLlia5Op7MwP3p8pu21SSfR32gbtJZn29OMm82mKRQKQcMpFotWPHpspu31pVLJb0C7u7vWget5p7ZMp9PgGuiv+vj4cM5jo9GwzmOtVvMbkBpm28B1D89kMmH/HiNafVyHdvWMXgNyNdKqg4ODP3v/TlIZjUamXC4753A4HPoNSNGOwjUBWonUPNt6opCjN5ZW76ieUG/ANJI4oG63u3R3pcZauzNt8TVxOtkYWmncGn+1WnXuuL5K8xnnefReAFLq9Trb8/9Yy07GegdIOwztGPjj/760I9NuNShAX4i0EnGycL3SvOlQlyaeVAF974miGmtqsdQXaUebheRMRqIJ0bFcJxuXNY0hXkwVGs1PWs1y5gHNR2djhUpX8UOtwWCQ+MVRbwCRvxEAEQARABEAEQARAiACIAIgAiBCAEQARABEAEQIgAiACIAIgAgBEAEQARABEAEQIQAiACIAIgAiBEAEQARAxOv8A2yitCki8linAAAAAElFTkSuQmCC'
p27
sS'version'
p28
VV6.0\u02b2
p29
sS'uni'
p30
V\U0001f533
p31
sS'desc'
p32
V\U0001f533 
p33
sS'browser'
p34
V\U0001f533
p35
sS'annotations'
p36
(lp37
Vbutton
p38
aVgeometric
p39
aVoutlined
p40
aVsign
p41
aVsquare
p42
aVsymbol
p43
asS'wind'
p44
S'data:image/png;base64,iVBORw0KGgoAAAANSUhEUgAAAEgAAABICAYAAABV7bNHAAAAAXNSR0IArs4c6QAAAARnQU1BAACxjwv8YQUAAAInSURBVHhe7ZsxSgRBEEVHT2AiJmogmImRgoIgBuaCN/AGegbvYCTGegMzzTTXyExMNNITaP3drqFZVmu3Z6a7nP0PPjXbyRS/q3oHpqYihBBCCCGEEEIIITPFXIhtsyDaFm2IdrDQIQ+iV9Gj6A0LnlkWnYu+C+latClqjTYr6ER0ObysuRe9Dy87Y0m0P7ysORNdiT4HvxwQV82HCGahmnKBlj4UPYk0jzsR1osTm3MhKpkU7n0qcmMSKkWTgVFeQDVpXti0IqCFiifxB3El7WIhN9paOHNc9PoY9ExCzAoM0d1Bm3kFlaN5tvr3bxH3uNfqUbSKks7I+RCnRZ87bkRunjV+QZ/N9kKcilSD1kO8DdEzev6MPkxORKpB/4lGT/KpBh2E2HtSDVoMsffMQos1ggYZ0CADGmRAgwxokAENMqBBBjTIgAYZ0CADGmRAgwxokAENMqBBBjTIgAYZpBr0HGLvoUEGTVtsLUTPbIWYRKpB+sLwKETPYFYS4C1wNuKhAH3L6pF4yOIYCzlpNBSQiXjAK+dI4ID45llHSyYEhmB2qegmahUhEU+thtbCfKLmlr16FJiiVeTFpNgcCLNMRYmHqWASWq/UUBVy0baCMKfogtHEcI3kcDZ1Wd7YCNwDm6LtrnI3Goj2wqcAcZIlBKM8/mnUIDmMBY9Lvkvh3Gn9vOnqax+A8l8V4VuKFSx0wJfoRYSvfbzPShJCCCGEkP5QVT/eGMlTC509nAAAAABJRU5ErkJggg=='
p45
sS'andr'
p46
S'data:image/png;base64,iVBORw0KGgoAAAANSUhEUgAAAEgAAABECAMAAAAV8YMOAAAABGdBTUEAALGPC/xhBQAAAAFzUkdCAK7OHOkAAAJ2UExURUxpcfzCG/zCG/zCG/zCG/zCG/zCG/zCG/zCG/zCG/zCG/zCG/zCG/zCG/zCG/zCG/zCG/zCG/zCG/zCG/zCG/zCG/zCG/zCG/zCG/eTKfzCG/////zCGveSJ/zBGPzDG/eYLfeSKfqvNfeULPu9MPzDIP7oqv3hjveSJv/9+fzZs/eRJfu/dfq5df716PmpUPicJvzBG//89Py+HPzIMP7z1PmjJP3TW/eSKPeVLfeXMfzBGf/++vidMfzCH//79//58/eUKfeULf3Ybfu9LvzBF/zCHfzMQf7km/3TWvu+JPmiJP3df//+/P7u3vmvYf3hj/msN/eTKveTKP/79v706PmqUvvEiveRJvvAdf7u3fq0Yf/59PmvYPvFjP3q1fmqIvzEIvzCHPu8K//34PihNvq5dP///vzBIvy/HPzLO/idJv/88//23Pu8HfeXLv3dfv3bePiaJ/u6MPrChPu+KvmnNv3gi/qzOfiiR//+/f3hv/3ixfq3Nv3anfy9HPq5b/u5IfijSf3lx/zCGPiaNPvFg//68/zYqf3jyPqwN/idOfiXJ/zYsPigQPzBFv701P/67P3RUv7xyf3Xa/inUP7z0/zIMfu+Jv/58fqzMP7v3//34fmwYvzHXP3WcPzDHv7v4P3LPPmwY/mzZPzCGfeZMv/23fy+Gf/7+PvLmPvLl/vFi/3p1PvEi/zGKP/88v3SWP7mrP/69PmkOvzENvu9Kv3ehf///fvKl/mqVvzQnPvKlv/89/zUpvq7dPeWL/mtVvvKlfvJlf/69vvGiveWLvibNfmtW/eQI/vFifq6dvvMlv/79PmqV/vPl/mqWP3q1m70cHwAAAAZdFJOUwCGdPww4wQI4bQXAZ+N30T9GufImAesBbO9/MzvAAACY0lEQVRYw+3Y1V/bUBTA8eLDXXJvAnRKJ8A8TXE2mI8NBoyNMXd3wybI3N3d3X1j7vuP1iZkLSTt6SF5W39PzUO/nzzdnHMNBlux4THRYZ06UFh0THis4V+RoVGkw0WFRspOUFwE0VBEXJDk+Hv5EE35ePmLkK8f0Zifr80J9pafLYnIWPmf3sFWKD5EemCnz89fU9TD7Yoe370tSyHxViggQXKmLVtkmkMRPblz72GrlBBggwLF3wVLF1JkObcePJKgQDtkKZyJdsrM48dltYeGjhqNdCaXmYuNmSPaQ+wwpHP/hplnmOQhbFuI7dYd+T5TbA6T3FUjlCM5rqD1m1fO7gP07fvXj6LjCtqwK6UX1JfPvz5BUEldOQPF/f7zYxIHQKmlHOj8rKKmiSkANCENgrhnVZSaekNQKgRxB29SJGRUieHWNVMclLs8XaUdmzZSHJQ7dXF/ZbX1NRQHGRfMS1I7VLfkZyChkX1VT+fE4f2Q0CAn0GAP5IE8kAf67yHdjtr0KxdZlXYfQB7+/KVT5wYoO7xvP+5zxAvXjl4+NFDRnr0UBfHC9auuJzb3IF54mk21QtaxhhdeQI47b1RaLrwrAYdReNB6+fpNy3t4qm0ERz/66kM27GQ0bS0GoIrKt897Qu1s2C4Ntc6hikrOrVodp9CYseBM2zYFJC01aEe51Ihr1vGTWEdlzbIUnjh7HuswKosfOXP6Ao91jLNWOa6i0nJMso5lmvO6IMpbsnoGcViO5XWdFByp3tYZ0doVc4njum6/QCBJuOwnsHiBoNuVhn6XLLpd++h3EaXL1dhfDIJCVTIyHMQAAAAASUVORK5CYII='
p47
sb.