ccopy_reg
_reconstructor
p0
(cemoji
Emoji
p1
c__builtin__
object
p2
Ntp3
Rp4
(dp5
S'emojipedia_url'
p6
Vhttp://emojipedia.org/large-red-circle/
p7
sS'index'
p8
V1280
p9
sS'code'
p10
VU+1F534
p11
sS'apple'
p12
S'data:image/png;base64,iVBORw0KGgoAAAANSUhEUgAAAEAAAABACAMAAACdt4HsAAAC+lBMVEUAAAAOAQAAAAAMAQAAAAAAAAAHAAAgAAAAAAAoAAAAAAAFAAB6DgNoDgAAAAAAAAAAAAC1FgliCwCWEAVPCARgDACSEQOQEgOOEQQ0BQC6FwqaEQcAAACBEAO5GAk0BACSEAWjFARwDQKrFQdhCgNyDQJmDQJ6DgNpCwFdCwJpDAJlCwJnDQKKEAR7DQN4DgSEDgSEDwWFDgNqCwNbCACpFAd6DQaQEgSwFgmoEweKEAScEwSIDgOqEwd8DwOlFAWtFQeiEwZuDgJeCgJpDAJ1DwNyDwNcCwJeDAFoDAKEEANYCgX/Mhv/Mxz/Lxb/MRn/LhT/aGH/PzD/Sj3/Y1z/Ukj/TUH/QjT/WVD/OSb/NiH/Mx7/Xlb/Pi7/NyP/PSz/dXD/Vkz/QTL/V07/SDv/bGX/W1L/TkP/Oij+LBD/eXT/cWv/amP/Ylr/NSD/YFf/UUb+LRL8LBD7NSH/bmf/Sz//YVn/Oyn/Py//RTf0Kg/5LBHVIgvuKQ7jJgz/ZF3/OCT/aWL/Rjj/T0XmJwzFHAv/XVT/VEr/Zl//QzXxLBb4MBrZIxDrKRP/c23/Rzr9OSf2Kg7LHwryKg/BHAn1Lhb9Kw/zLhjfJhHXIwrfJQz8MRroKA/PIA2wGAf/cmz5Mh7lKBPsKxXoKRP/aGKZFAX6VkryJwr5Z16MEgSgFwX4wL/3srH4kY7qk46HEgP6mZb4npu/HQeQFAT8gn77enb3qae7FwF8EAOwEwCnGAa9GwfNIQiXFQXkPSn3mJW3GQbOJhHojIb0vLzPPi39joraIAX6gHvPGwKzEwCpFgOjFgTGHQj3rKr2w8KDEgPdamGsGAX4yMecFQX8joqNEwT6jYr5hoLRIQnTIQzpJgvcJQz2bmSzGQf8bWfhIATwXlDwf3f2l5T3urnpbGHtiIP3uLbKNiTSSTraZlvwsrDEKBbUVEbfdW3hfHP/dnH/b2n9mZb9lJH+gn78o6D5pqT5oqD+fXj+iIT9iIT/fXj9dXD9npv+jopk9QvSAAAATHRSTlMAGg8gDAETAwkCHSJVCwUVGdktmTcT29LCLuSNGMnrKX7WXNlEu2rwnFW3r7+uhjVnYoE9Ha0l9sOoo9mQxNXn4MLCecv47nGUyE0x9cerhwAAB95JREFUeF7s0jVvW1EUB/BunpzBUsYuUZwH9pjZQzgf9d7HzGxmDjNjkUHqc5VWNcbd+9vuOfpfnQsvJvhvcX59I5Hc3EwmNtbnF/81HVtOrqk1piOEOkxNXUsux6ZPz2D4ak1olYqaVghpWrHUEmqrODYzXR5bUTutYkG5S9/XHx4fH+r36TulUGx11BVsmuETqlDSlKsb+rbafFK9pW+uFK0kqIlnD7KAAKgZ137QJC7JyhPykmgG/rWhQYAsTIxHUdVqKGm6SpDyhz4ySVTptNKwVDQ6Pj+LM9At1wNC/hh6/5feWiaCetmFDD47Nr8EdMXziQrHcd+HhMUK4XuKDpbG7BCNA93w6DPOYVn2zZCw6HBntGfoID76FCjQ+e0L8pR6OxZ1Sl5s8zpAR94/o/P5c5LqttvtTCbzY0BYChtdijzP8zoz4i1iCDTytkxtfen5PMKvxhYl23kDIkP/IRK3XDN7wuZE8d0EophjT7Kma8UjAxvMgUY5azs56dNvX/v8KUs5x86WG2Bu4AVSkN85Ou5+C72aoNfvHh/t8DAV7R9AODD3dvelw9fPOpT2d/fMA6FvhMhL+LPWMnlKK+3CeINKkNigpZ04tSZltpm/jEMl2XYLyEUEFLkyCOQTZFIuiDJ6FUSFgANOtEOm6mWWrQvXxk0qlSqRIv9C+BP6vO8lSFlJXPWzQEp5fjznnPc914UV38S7L5FIRMIoGDSbzYNY8CYYlDCCD3x5N+FbWfj79/IuXP+c2Vs9fvtGYnW5XJZuJJfKoNBppmWyaY1OYVC58C8t8Ger5M3b49W9zOfrZYBrn95DgJdOhUqlMuhs0iipHBaKRV12rC6RWDisJKNSm84AH1A4X0KE95+ulVdwkMwdp7xLQnfUrRZ3MS6RSFwUvGV+J1bDB4RL3tRxLnlQVsPde/kjCOB4gWUvOjvLVOTYmU84IMJR/t7dEqDm9e7KZMrrsHeBwI69QmFfX98wCH4IhQwFkoDsDm9qcmX3dc1JCz4c5tbHvC/sjJ0xD/eqQYEAeu0dxpAiwv7CO7aeO/xwqwS4epBchQpO/MgdUCpNJhNFwYtSGUCMEwLUsJo8ePjNX9WYgRZ4l8CO3BBcHTBRJEn2FwVvKVNADTGAgRBLXmhCpvEboPpiPutLeaHJYgiPvtyEzIRWLo+C5HItgSAmFAMKEcOYvClfNn+x9CC5sD8+mXLYRdgP2SkSuT2huB4rHvIgBklBJZggsjtSk+P7F04DxEIoPqA0kW5CG43rpdLRHqxRqVQfj2oJN2lSBqAVQvFpwEUM6BJjP9UP9hCYjWGbDMsWNgIkBIh+ChPEXRhwUkIjBog6oXvIL/foR3vArdHpFCCdTgOMnlG9R44I0MtOEQY0lgBX80UA9mtD+lEj3CGFYUqFNWVQwK0yQggtJhQB+aslwOPMEQIIewNKktB6pD1hGdhVVuZiWlxWFSBk4R6pR0uQykCvEAGOMo9LgBsf92CMAFBSbiKqHw3LdIopq8Vf3A0Rv8U6pdDJwqP6KOGmlACAMe59vFm6jLc/HK5OAEBtIoloHPLDtQU77JMREGwUQKgMiBCPEqRJDYCJ1cN/SguhWvBoIQeAPjXlRgXYNAqVJRI0jxSG5kFDhRFzMGJRKTQ2VISbUvcBILfwqLQVqyof7o+vj0ECipCHoADFlMsvGRwpzA9gzRdGBiV+1xSKEJITFCQYWx/frz/ZB9yaTNKXcggDFOqAbVqh6o6YR4bmB75iDcwPjZgj3SrFtA11gQoIHSlfMvNHVQnAZ11GNXSqEaAHFpfVHxwsgP//WEAoDAb9Vlh2PQig7kQVXC57Rlezb+1n18fWeil3VGoEgMsfxAEYAI4Q9LsAYJRG3VTv2th6dv9S+b9c3PanNMyhT9kv1xttGgBITieQAEBjM+rl/co+mAH99H/VZQA+B0VYXAuQ2hAaghVmCCP4+hUQ8AKDgEla0RhCWjKwtogCcLGzNIcK6MJcbNhEeKThaWYKQBgo9hAHmFJMh6UewjQcm4MOsNAMyiPU5JO+mZialMchgsFqibyCOQ79BRqCKb6KWKwGCBCXk+rYjC+Zr8EByiO01u9mdxbXEqiNMphDN5wkOIiFAhxFOEfdMAMZamFibXEnu1vPhgCnIlQ8X5idW3RCEfguoLMsCZpBQXQZVPguQAHOxbnZhecsCHBKXEFDB51jCJAB36ZuP1Y3c5eMUsafozv+rMSH6HQRV57RKANzmph9YAUx+4A5Q+j76We32d/7t/scu/ZKBz27s7yZgGHCTkDPZSzNNNoFMMDE5vLOLN1xmwP+74jPZjU8obNbMzFnol9e3IogZiPK+xPO2MxWln7SIIAG/IjQXr+7kd5ZBgSpjXrQZkYb2RPVkmBf3klv7NafF3ChAT8i1FbcrKOz6W2ESMDTgdBqCXgiJJB9O52l626yOD/2Qx8qBbymlrbDbHpnZjm26XQCBl42Y8szO+nsYVtLey3072eq5nJYFQ0tdfTGbHprbnsGa3tuKz27Qde1NPAEleD/qar4bAGvounGnWY6uZGdxcpuJOnmOzfaea0cLnMFzwjBFrB455tqLj24X9fc1tZcd//BpZqmCmQvnt+zEZWcVhav4vw3VfB4tQI2tzz9mYVw2RxBa2stC1TbKuCwK/mnwp/NOMfnciuRuFw+Hyb3X+lfQUI6chazvWUAAAAASUVORK5CYII='
p13
sS'twit'
p14
S'data:image/png;base64,iVBORw0KGgoAAAANSUhEUgAAAEgAAABICAMAAABiM0N1AAAALVBMVEUAAADdLkTdLkTdLkTdLkTdLkTdLkTdLkTdLkTdLkTdLkTdLkTdLkTdLkTdLkSTnX7AAAAAD3RSTlMAECAAUIC/z/8wj2Dv368kIFc2AAABIElEQVR42u3YwY7DIAxF0TqD8QuQ/P/nVmLSToaqCeFZXfVsK91die3bJ8n0c+528JsEjYaNRQ0yEpqT4YWl+WIoG96w3B8SLThQVPpCecGJJXeEpogOcToLhYIuJRyHErqlg5CsuGCVdyExXGLShHadoVIbWnHZ2oSqhAHpNRQwJLShqWBImZpQxKD4P5QxLO9DsmDYIruQgqC7UAGh/IUyKPkZMlDsEZpBmrdQAiltIQPJfkMCmtRQAC3UkIKmNRRBizVkoFkNwcE39A0ZaOb7F1HQ1PcZEdDE66n1fvz5z5HzB5L/ZDsPEfxY4z9o8aOf/zDKj8f8wO6/QvBLjf+axS9+/Crqvxzz6zp/QPjQSYM/svBnH/4Q5X8a4/iH7iwvhCX+0zFZAAAAAElFTkSuQmCC'
p15
sS'gmail'
p16
S'data:image/png;base64,R0lGODlhDwAPALMPAP8AM/+i1ccEAf0ALbQYANAABP81aP9Uh6QmAP9qnf8bTf8kVvAAI5kyANwCEgAAACH5BAEAAA8ALAAAAAAPAA8AAARZ8Ek5Brgzv6FOWhYwaIMRfFfqTOUpphdDSMAZwqKwGcmLiwXEYAH6XQbBUtHISB4MN5xDgBBFYUhB42FUBSnGgaNA2EocjMqA0SSbJwRBYS6gvjWIPOL+iAAAOw=='
p17
sS'related_to'
p18
(lp19
V\u26ab Medium Black Circle
p20
aV\u26aa Medium White Circle
p21
aV\U0001f535 Large Blue Circle
p22
asS'name'
p23
Vlarge red circle
p24
sS'known_as'
p25
(lp26
sS'default'
p27
Vemoji
p28
sS'bw'
p29
S'data:image/png;base64,iVBORw0KGgoAAAANSUhEUgAAAJAAAACQCAYAAADnRuK4AAAJUElEQVR42u2dL3BVOxCHKxAVFQhEBQKBQCAQCEQFAoFAVCCQCAQCUYFAdKaiogKBqEAgEAgEAoFAIBAIBAKBQCAQCAQCgUAgzpvvzIQXMpvz5/YmJznn95vJzOPyWu7N+W6yu9ndbDSSdAJtaAokASQJIEkASQJIkgSQJIAkASQJIEkSQJIAkgSQJIDmqz9//jTfvn1r3r9/37x9+7Z59uxZ8/Tp03/Gq1ev2r/79OlT8+PHD03aUgF69+5dC8T+/n5z/fr15vz5883m5mazsbExely4cKG5du1as7e310IHXMAogGakz58/N4eHh82NGzea7e3tlUAZM06fPt1C9fDhw+bDhw8CqFZoHjx40K4QqYHpG+fOnWtXO1YnAVS4HfPixYtmZ2dncmhi48qVK+1W9/v3bwFUin79+tUcHx+3tswqD3V3d7e5fft2u0r4vwO75uvXr+14/vz539fPnDnTHB0dNXfu3Glu3bq1kv3EVsrv+PnzpwCaSnyLnzx50j7QMUYvhrP/mq+rV6/+ff3g4ODv63hf/pbkiz+7v+N3X758uTl16tRgkB49elT1ilQlQK9fvx5l37Ba4KaHMKwbILw7hJvPCjYGbD6TAEqs79+/t9tG3wMBBH87isGQCiDEf/ue2RDbjK20tm2tGoDevHnT64bfvHmzDQYOhSEXQO5niEFhc3VtcWzJGNoCaI3e1b179wbZFWNhyA2Q9TNd2y4OggA6gbBbMEpjk7y1tVU9QGxvsc936dKldtsWQCuIrajrm3r37t3m48eP1QPE/4dLH1th2bZLDkIWCRAPLPbNZEI52ETEaOYAkIueX7x4MfqZeQ8CaKCL3hWcw1NxmhNA4c+Egzkp0dUvCiA8rdCuEUD/D7Y5t/oKIGPlseDhm+cHDZcCEO68ZRfxWkkrUREA8YCsbQugmCygWRpAvJeYLchclWITTQ4Q3lbfJC0VIISnaZ338eUqAaJJASLOE3PV/WV6yQA5iGLe2ZcvX5YJEBFm8mNiBiNwCCDvQUXmCdd/yoj1ZABxPNHlcQigYQC5Y49FAYS73ne2JYCGA8RgThcBEGc71ql6mN8jgOIAWXYjczrFuVl2gKx8nrNnz7YVDAJoGEDkflsQMbezBgjPKrb8hjAIoDhAvB/CH1bsjPztWQJE3q+Vhnr//n0TBgHUDRCidMkyBXIWN2YDiAR468O6hHIBNB4g5s6qRiFRf1YAEaewoqldMAigfoAQ79MqZsxV6ZEFIL4RY0/WBdDqADEorZ4FQOzHsaI/AZQOIP6NHLZQcoBwOVfJ7RFAJwMol0eWHKCueigBlBYgzhqrBog831WzCwXQyQFicJJfLUBWnMI/xhBA6wXIOl90cbYqAQoDh8DjH2UIoPUChLkQhktSG9PJAKKWydqyhsIggMYDxM+Q2hHOe8pOackAsvbmMfnNAmg1gKjaCOcdU6I6gOhJGPYOJDoqgNICxHYVbmP0bKwOoPBDuFQDAZQWoNiXN5UdlASg8CH5B3wCKD1AHGN0FSkUD5BVYekMOQGUHiD6EIXzTwOHagCy4j9uCRVA6QHC1gyTzShiqAYgjLYwFjEWBgG0OkAo7KtEjKgagMLTdz9XVwDlAYh2f2HeeRUAsVWFy6cfThdAeQBizsOmDCmSzNYOEOXKXSmWAigPQJYjk6IMeu0AWR4AOUECKC9Afnd96+eKBciKAflvXADlAch6DimqV9cOED2OwzfuN4kUQHkAsg6z/X+rWICsvXcVGATQyQAK50YACSABJIAEkAASQGkBshoo+IndAigPQFZbvCoA6nMfBZDc+E5ZpTz+9UUCKA9AfeGUYgHiwrSuXBQBlAcg5jx8DtykWMVpfFifxM06AigvQP6cWZ+1aIC45yqWiyKA8gAUlpRXk86BwpuRSbBXRmI+gJjrsPt/VQllVkorxrUAygOQdQ5WVUqr1dLFVQUIoPQAvXz5stMTLh4gEpfCD+AeiABKD5C1A6S6NjNbYSF3OgigPACFBnR1hYUorI5kkO4qgNICRLf6MCe9ytJmq7EmrwmgtABZ7ZRTNtzM2t4F914ApQUorMmrtr0LChtMEaH2tzYBtF6AqMcLTwGqbTAVfjirDZsASt8jcX9/P+UjVpPNuQNUdZNNy6UUQGrzO0pWXooAygNQigzE7ABhwMVuZhZA6QCiI26OC1d02cpMAUrVUGoSgPgmWKuQADo5QHhZ1upDZuhsAEKPHz8270p1d54LoPEAMXfWF3N2F845W0hXXq4XoNiVl7kum8sKEIpdusuECKD1XLqbqhtrEQCFMPgh+LAQTgCNv/bbn5vZAsS+je1jBb0E0DCALHi2traSlO0UBxDqusVQAPUDNFXQsBiAEEneAmg9AHFDz1SaDCC8snDbEkDjAaIGz4VCFgUQIthl2UNhEtTSAbJatbiAIWnCU2pSgBApH/41mH6Q0a1CSwYIw9i6Np05S1VpURVA7gFZMQ0mGkiWChAJ8uGVBQzmKkXL3moBckFGXFHrm+bbSksBiFXHctfJ6MwdLKwCIEQDJAuioQewcwLIGsDDlZYlqSiA3EpkbWdLB4g5KWnlKRYg98DC7hLhscfcAKIcPBbWYBsvxeapAiDEYWEsk5GlnGK5sAa/VoBIdYlt3aV4W9UBhIhxWF6I7+rXDlBspXVBQjyxklU0QC5i3XfsUTNAXccTU0aYZwOQ76FZAUd/cEsfW1+pALHl8h7D6tHwVD1VL59FA4RYzrk+s+/bS324H72dGiC2Kd5TFzjOw5wiJWMxADlxmRr9hoZsa65LrKsPzwEQKaVWumlskIZaoos+W4CcbYT3Yp0TWYNVgMYOYUbkOgHa3d1tO5B0xbFCDwtvMmcOswAyQDo+Ph5kmFqDh85qcXh4+E/S/97eXhtnYvjXR9J5jYdOOQ0w9kXOY+BQt1XbdjVLgHyQyHTsqsWfehAoZJurecWZLUC+SBFhVbHKiHIPVkZWq5RNngRQQhHFxZ7B/gkbf6YY2FrYUmxzhBRSNncSQBMIg5iHS0EjrjUrRJ973WXLsC0R6GRrAtY5bU8CaIT9hLHMnfcARiAPIMJBMBNI5mD8CiBJAEkCSBJAkiSAJAEkCSBJAEmSAJIEkCSAJAEkSQJIEkCSAJIEkCQJIEkASQJIEkCSJIAkASQJIEkASQJIkgSQJICkivQf73NCrVidcTQAAAAASUVORK5CYII='
p30
sS'version'
p31
VV6.0\u02b2
p32
sS'uni'
p33
V\U0001f534
p34
sS'desc'
p35
V\U0001f534 
p36
sS'browser'
p37
V\U0001f534
p38
sS'annotations'
p39
(lp40
Vcircle
p41
aVgeometric
p42
aVred
p43
aVsign
p44
aVsymbol
p45
asS'wind'
p46
S'data:image/png;base64,iVBORw0KGgoAAAANSUhEUgAAAEgAAABICAYAAABV7bNHAAAAAXNSR0IArs4c6QAAAARnQU1BAACxjwv8YQUAAAOaSURBVHhe7dtPSBRRHAfw32/WPUREuoVb1k2om1B2DyK6dGhVAqlbJt2KIig62B86FIVh0KV/4E2K3L0EIXToGokInQIPgUVKrEpEB9359XuzP6lEy3l/ZmbzfUDm995hx/3ue29mnSd4nud5nud5nud5nud5nvcLyjFxozuaDwZhsJ9/gzYA6pDuPxDgRySYBgzHSzPzL6U7UYkGpEJBCk7ym+7hMxeke92I4DkijZZm5kaky7lEAqoUm4/yqc7yzxHpMjVFRLe6ZuceS9sZpwG92FXYHSzCICIcly6rOKR3PKKuuZx+zgKqFFt6gfCBzlSKjeBqabZ6Q1pWOQmo0lo4z688KM1EqPUpzMOFnk/VaemywnpA5WLhIb9ovzQTpaZcmMcumyEFcrSiUizcSSscBREPBItUVmufdBmzFlC5teU0Hy7WW+mJQlqCAWkay8nRSHTTB8GoNFPHo7izd/MmGvn+4410abMyggIKnkiZHQjX1QcnLW3GAfEVSw3n9norWwLCK1JqM7qKqcUwtwiT/Cru73U08ZWt3+SO22gEcTinshyOOCNHLaZT7JwcM0td1erfBfVoBxR9lcj+6IkQBMekjE07IAI8JGXm8UKr/btqB2Ry0hS0V7Zv3Sd1LCZrUCYv7WvKBXulikUrIJNFLzWEe6SKxWQENRaELVLFohUQEe6UsoGs/mDgX7QCQsA2Kf97G2eKadILCMNxqRoGLwsLUsayYUYQ37e9lzIWvYBq9FmqRvJNjrFoBVT6ujDB3zWq0mwMGH6QKhbtKUYAr6VsCLoPFw3WIBqTIvPUMzMpY9MOKMzjKykbgP6HafQn13Jr4Zmr5+7W8FpZmq1uk1ZsBlOM08VwWMosG5KjFqOA6gtfhtciHj21PDyVlhajgCK18HJWL/kEdMn0Ob1xQNE9EcDNeitLaMzGBivzEcR4Ebxncil1YKrWhH1SG7ESkKL25qjtJ9JMD0/3EMM+W1tgjC7zK9W33FFZPYuSrmSpcIKwu/vLvPGmhWVWA1JSC8lBOIq1KbZMDW21y4u/qz2SLueiqR3WDtsOR7E+gn6nNlUh4G0+i8snsHdrTTBke2/iMqcBKdGUW4IBPpHlrXnqBpXuu96B7zygZdGTzVzuBK8VRjtC6rvtw+Gk/jUhsYB+F218AOzkt9vBx7/uvo/WF8QJLt6qvyC4mkprSSWg1ax8WltrCiaTDsPzPM/zPM/z1gngJ+J9GmFBL7arAAAAAElFTkSuQmCC'
p47
sS'andr'
p48
S'data:image/png;base64,iVBORw0KGgoAAAANSUhEUgAAAEgAAABECAMAAAAV8YMOAAAABGdBTUEAALGPC/xhBQAAAAFzUkdCAK7OHOkAAAD8UExURUxpce1sMO1sMO1sMO1sMO1sMO1sMO1sMO1sMO1sMO1sMO1sMO1sMO1sMO1sMO1sMO1sMO1sMO1sMO1sMO1sMO1sMO1sMO1sMO1sMO1sMO1sMO1sMO1sMO1sMO1sMO1sMO1sMO1sMO1sMO1sMO1sMO1sMO1sMO1sMO1sMO1sMO1sMO1sMO1sMO1sMO1sMO1sMO1sMO1sMO1sMO1sMO1sMO1sMO1sMO1sMO1sMO1sMO1sMO1sMO1sMO1sMO1sMO1sMO1sMO1sMO1sMO1sMO1sMO1sMO1sMO1sMO1sMO1sMO1sMO1sMO1sMO1sMO1sMO1sMO1sMO1sMO1sMO1sMFBdUHoAAABTdFJOUwBI8fbUA/MB+PqU3QcC5LJrMO/YfCXPCnEZHsNCMteeQSqYTtmG0BD9/KlwdRM3IsdlF2IR+ZGBBQ/7DRIhYKpV9QxjhzTtTRiK4Vsjet6JLe5Yemm1NQAAAbtJREFUWMPdmNV2wkAQQAMESNDi7u7u7l6b//+X0pRSoEiyO33p/YB7zu7OjjHMHfTj5WwxedozWcyWYz1DhM42nBpZw3zE7RnNDaxxOrTppFrUvf5Ay8EFnHbQ76klaJSmGMvDVXg2ZlKK9YRWa7jDehUSpcllovCAaCb3+HLyRh4ewhvzD65KV9GCKLSVuw/YashBJPJG67anq6mBaGqa7i1PVdMGCbQ11eueTp0HSfD1zjVP08qBRDhr88q7b8wgGfPmdxSYLECAxXTpSaSBiHTi4mAlBZlIUTo/XCEOhMQLZ3nDmiIVpaynWcVmAWIsthNRNkkuSmZ/POUiUFAsH0URBY1IETlWnTBQEf6uUy47ncjuOoiCcjqRPHgQOYES5yEaA7SiwFdMOjy0Io9DELn9tCK/WxD5DLQig08Qec20IrNXEMlUtCKV7L+L0C4b7fnRAhLti6B9WrQ0gpfY0FItWvJHK0d4BRKtZDNbllzEbk/7rB15W7NT/0Wjhdf6oTWjeO0xo35/w2nY0UYIvKEGb8zCG/zwRlG84RhvXMdbIAgrjZdnjJXG5/lecZYseGsfxEWU9NXYB5uDXbzbiZBwAAAAAElFTkSuQmCC'
p49
sb.