ccopy_reg
_reconstructor
p0
(cemoji
Emoji
p1
c__builtin__
object
p2
Ntp3
Rp4
(dp5
S'emojipedia_url'
p6
Vhttp://emojipedia.org/writing-hand/
p7
sS'index'
p8
V140
p9
sS'code'
p10
VU+270D
p11
sS'apple'
p12
S''
p13
sS'twit'
p14
g13
sS'gmail'
p15
g13
sS'related_to'
p16
(lp17
sS'name'
p18
Vwriting hand
p19
sS'known_as'
p20
(lp21
sS'default'
p22
Vtext
p23
sS'bw'
p24
S'data:image/png;base64,iVBORw0KGgoAAAANSUhEUgAAAJAAAACQCAYAAADnRuK4AAALy0lEQVR42u2dLbQNXRjHbxAEQRAEQRAEQRAEQRAEQRAEQRAEQRAEawmCIAiCIAiCIAiCIAiCIAiCIAg3CIIgCMK863et/b7Pu+352PvZM2dmzv+/1izXXffec2bmN8/33menkSSHdnQJJAEkCSBJAEkCSJIEkCSAJAEkCSBJEkCSAJIEkCSAJEkASQJIEkCSAJIkASQJIEkASQJIEkCSJIAkASQJIEkASZIAkgSQJIAkASRJAkgSQJIAkgSQJAkgSQBJAmid+v79e/Pt2zcBJOXp/fv3zfnz55t9+/Y1Ozs7zfHjx5u3b98KIKlf9+7d+xcce/C9p0+fCiAprR8/fuxZnRic+Hj+/LkAkv6v3d3dPTfVBw/H4cOHm1+/fgkg6Y8+f/48GJ5wPHnyRABJfyzP0aNHs+DhuHTpkgASPLvNsWPHsuHhOHv2rADa9oD51KlTRfBwXLlyRQAJnp3i4+XLlwJoyaJCfPfu3b20O6fAR/aE+/HAc+LEieb3798CaIn6+vVrc/369Wb//v3/u6nXrl0b1HK4evWqCx6Kie/evVMdaIngEHfE4MT1mVevXrX+jVu3brng4bh9+/Zqr/EqAcLl0Fo4cODA4Jt88eLFPRdn9fDhQzc8uMs1uq7VAoQ1SaXZfO/x48d7BUDAOHjw4F8/w/foW3HD+Tup3lbOceTIkb3ge81aDUBYj1RPCnBevHjxVxvhy5cvrVnVmTNnmkOHDrngAUZeY+3aWYvViW841oOM6+fPn52/S4zjtTTxgetktGMbtGiAgCOVIZ08ebL59OlTFoA58VLXQcD+5s2brSmNLBYgAEk1M7EoJV1v4iMvPFiyroxOAM3YZZGOlz75Hz9+TAbVufCssdK8OoBSMQtV4tIZZLIysiWv9cGCbaMWAxDp8IULF/66cQTKpXUWOutYLi88a5zzWRVA3GgC4zhYffbsmQvI0rEMwbMggEiH4+Et/p+TZaWyN29nPRQKcYECaKaiABj3sbBEnjVXuLshQ/A5wTNx2dorzosDiJZCKliO+1W58KTiqBoHsdRaV14sDiDGLFLTfH1V5T55xzI4aNLeuHGjtcN/7ty5rXJrswIIC5GCh3EIb0c79Xc9YxnEZm1xFHANaaMIoIqiepxyL1iNOcBz+fLl5Pu4f/9+axuEYD909wXQyDWe1MjonTt33Bf/5s2bbnhYjtNlTSgzAHpbU5ZyAem+FhaOBE/KFeACvMI61BgIG3rjmbPuKg8QaBNDDc3YwmAc8NG+4e8zIjKnnT82DhBPd8ryeEVrwTumwVxQrtXAYuK2utojuDySgr7BfmKuvrER3CTvk+Cdv8nv8PBx/rwP+oP0+hjvHSMm2yhA3Jy4iclF8LotKtReeLgxniedc+uKj+zgGe6Pmpd9PSxN7TklDkBaDUDc6DgF9sYJr1+/7hyiH1rTqXWhcVe4oaETjlgu4sEabZbU8ejRo/UAZCvCrJvywoO59g6GYREw+bVFARTX7B0b8R4sHlgFQPhjaym8TckaMz1TjGVw3gz1Y21zYT99+vSeu4sPSgxYLXsQF6X+BpZwFQDh8+1JeQK8WjM9HFPvJsZ7pwUCVNSrAIv4KzVmQgU8R23XpGYctDGArPuiVuOJMUq2WpkLQH1lgThGzBHAjW1lNwJQ7L5Kn4gaYxkEq8Rf4f9YxjlV560lYgbcA6Bd0r1ogOwAO+2L0ovr7awTgzBXZAGa23Ic4hv7nnNcPT+bKgVwvosGCFMcTqZ0EJ56kXeOJ7y2TbHn1gAl7bbvO7fTn3rIOPfFAoS7su6jRDU2PAhxAOm1TeHnJiykfd+5LpYaVOr8a7VDJgfIbljAyeWKjMULDwCmssG57iBm3RDXL7c2lroGtdavTQ6QDXpz55qp9XgLhRTSbKvEjnrMdV2XvWYW/iFiUmDMxQCTAoT/Dk8TRbHcjMtb62Ge2sY4lABC8ZFsZ65zO2yOVbrTK+eUeuhqNKwnB8j649yejDdoBj6eRis77pHrGqaUfZ9Yo1zxsI6Vyk8GEE9CsCBYoZzhePy1tzkaZy+2ADn3/Qtt3FfSiohLATXjvckAoktu52xy6j25O8LH88mp2k5wC8D84cOHZs5if0V7TrmwpzKxWntWTwaQfQowqUM3X/LsmgEcgBvLLhka4rqAeJMrLWzpo6RyT8AcX5sSV7gxgHAXoXWBCeZrbuCDBw96b5xnLia19JnYK8DTV0Yg66NPhwvcZIuDmo09r9zs1Vp/OzC3GICsFWHcktpEuIldNyauwnrGMnBjtiqbgpcMjVSe92jbG1jMTcdI9txyP8Qu1RNbFEChdQE0wXWFRX5d1eh4Q4WhB1aONBUQiHUsDMHyEVcQnPI17pXXSk0ykgKPMWA2JUC8/8UCZGs/QJOqkKbiISzGJif35vZBcR6A4hhqUQDZDMAGovakUllSjfVc3k79nLar21qAQu0HF5E6KaxTvE6KGlHJeCouCJdImYCWBRYvLHPpOwA2jIhSZJvT+nZvEJ0CqLSRPSlANniLg+XQZU61NIZ220lFAYQso/ZylTkp7sjnbiWTAiinFrcxgMKiwVSlN3TB42yJp62tYYq14m+Snm/L57LHDyLXJlfEmGN9euJoAJESBzeUqrdgZXA58dOUin3Iqvj5NVuZLtlWRonriSvZHGSnswYo1HCAKIYk9MXiVQbUYOIRTGKSVN+M9gPua40bFsSyzdQS15OqA82+Gx9mWFJvNKxbt93xeF3XkE00gbDGata5y45zlHTR7dBc7RWqowAEGMGSxNkM/wcUa0JJ4+1c8tAd38OIR+56qaXJLhIsufGpj63y7HA7OkCh9hOvuMCUUn8AFiALO1mkPkkwJzbg99dshezSnpJVI6ldPmqtPhkFoDB+gYsBIuIYO9TEDQektlrP0EKZzS5yi2tLUVwDKnlQUrvS1tpVdhSAaFN4dsjI+ZytOa4orSk7TFda/It7ili0WhotiPbsDpYz3L52gEhCPLUbLFac2ZYu5pwMIN60Z706GdyQ8Qlr3ufQMR9DfSMofUpVoXNXdkwOUN/WbEOOIfsth1pTrem6lACZgJ8bMVWgzmvhukgmbJxY8pCk5slrThhUB4gCX82t2Qi+GckEJmuVsD6hUVszgCb+4knn5gFmfC5kkKTVlA74OV7buxyac8MF85ptlpsWRgnA1gWWxJiTAsQJlg6BDR0Uw6RTJgiFypLVrVZUuXkiqSl5PmiXfh+1LaCiuQsUNtMBMr5HgoHlpGXDOQydOigdgo8zsNrr36oCZEdXuRmMVJRsbpm7PQs3g2orT1bfxeGmYtaxIGPCXvsoeVBSu3MAVE1VA4gbZwfgQyU5ZyOEsNFUMOlYm9ylzDzRgEHGEuZ7+BpX6N18c+yDh6cN7BI3nWqiei32aABxw9u2YrO9nLaj7SMN+B4Xj8Cc2GMsCIAfYBkuI+aiUhsHzlgvZnMoM4Qt6XAtpev1cWE8YPEWv/E6rtTUwhBxLvFr1l4DVw2gYH140lPBXtdmUJjVoX6ZC0mMwUXGReZ+ZCUmnUo5g/RAzwX1BsG8d8Civ8RNI54CDiwKB19z/jwExFtY2K6AON5RI3dru7YCIiDW3v+oCkA8keHmtPVYSIVTT2obcLnlfl6Xm0MBE4sX3BdukaCV91gDlk20L/rcDj+PtSTNx1pzWI/gBXF0gEJG1LdZZpxSkobXTCnXJJtMkOHhKvk3WLWSjLF2/FMFoGB9hmzVa307rkfwtKskg+07xtgDwA1QmFXpohtQ7L6IZEpz39Bg06rxSUNxDW2M1bUugICgq7qJTyZYtZlTV5wk/SfimHj3+SGHLV/Yo6SPNjpAdnu4EP8QEJNFYHFsEQuIMMtrndvZVhUDZMdW7bhBnFbzVFAz2aZlOAKosEhl9yIEmm1dhiOAehR/UBxfE+ts24I/qRAggmNinLCseBvWZkkjpfGSAJIkASQJIEkASQJIkgSQJIAkASQJIEkSQJIAkgSQJIAkSQBJAkgSQJIAkiQBJAkgSQBJAkgSQJIkgKRJ9Q/v/A2wfbHIWQAAAABJRU5ErkJggg=='
p25
sS'version'
p26
VV1.1\u1dbb\u02b7
p27
sS'uni'
p28
g13
sS'desc'
p29
g13
sS'browser'
p30
V\u270d
p31
sS'annotations'
p32
(lp33
Vbody
p34
aVeducation
p35
aVhand
p36
aVperson
p37
aVwrite
p38
asS'wind'
p39
g13
sS'andr'
p40
g13
sb.