ccopy_reg
_reconstructor
p0
(cemoji
Emoji
p1
c__builtin__
object
p2
Ntp3
Rp4
(dp5
S'emojipedia_url'
p6
Vhttp://emojipedia.org/bomb/
p7
sS'index'
p8
V169
p9
sS'code'
p10
VU+1F4A3
p11
sS'apple'
p12
S'data:image/png;base64,iVBORw0KGgoAAAANSUhEUgAAAEAAAABACAMAAACdt4HsAAAC/VBMVEUAAAAICAgbBwMNDg4AAAAMBwz/Pg4AAAD/GAABAQLwRhsMCgsFBQYPBgYAAAAGBggAAAAJAwQGBAQOBQQGBgb8WxgGBgYCAgL/UBgEBQYAAAEEBAUDBAQAAAACAgL9Zxv+fB8BAQEUFRgBAQEmJyv4ch38fR8AAAAKCwwEBQYEBAUbGyE6OkEoKS4rLDL7fB/8iCD6RBYAAAABAgIBAQIUFhkBAQIhIycdFRalKw76dx1GPT/6kSf8myz2fCb4rzrsPhJENjXnUBeYKQ0WFhoAAAATExUNDQ8mKC0kJisnKS0oKi4uMjh0HQqMJwtNUWWHJAw6PUT8WBz8oS75xEv41HhWFQb3cC3yr3P13cX5woLsWyQsLTFyGga+QRQ2NjxeZHlXX3DIThisPRJ9IQycLg/KWRy5QxT7SxjcdC3lhS/ESRn1vVXqjUDNShr7rk76ok5jQj7CPhfPOBPljEj32btkQTqMbWN3Rz+TcWcHCAoSExYFBgcfICQVFhokJSpCRU0YGRwNDxEAAAEPERQLDA4CAgMhIicwMzkpKjAaGx8dHiIJCgw6PENqbnsrLTIMDRA3OkAuMDVkaHRTVmA2OD9PUlsmJy1AQ0stLjRKTVXl6fcDBAU8P0ZZXWhNUFlISlMyNTpWWWM/QUmRlqhcX2pdYW2aoLSMkaE0Njx+g5LR2O6vtspGSVHn6/fi5vZydoRXW2bd4/Ts8PjIzuQbHSG0us66wdaJjp6WnK55fo5gZHDEy+GGi5tLTlfCyN2qscR/hJXV3PBRVF1ER09mbH9qcYSYn7HL0eess8d0eIZiZnNtcX98gJA1Nz1/hZphZ3r////Ax9yDiZ6gqMD3+f+hp7rr7vifpbaUmqulrL/Z3/J3e4m8xNno7Pju8vmDh5bw8vpvc4HN1Ou4vtOprsGFjKOPlKVVWW1NUF9bYXSkqrx0eo1xd4qkrMePl69oa3dJVXGco7v69vP8/v9tc4pBRlRUV2hDSV748dZeb47468BTZYHU0d+oudmEys5xAAAAenRSTlMABwoWJgMEAQFLCTstEUQNIBw+MjUO6sAW8p9gzJeOHiTV32jbMlt3VKy2BiW4aUpwNPr33IuD9UkXO7Kero7aKMpvhMJwnPvPeMWIpy89e1lwX7vt912o7Pvqt+smM1S39FRgU3KOi0q/u6fp3LXPzMe5Z+j35Pbg9w0fHxcAAAgzSURBVHhevZZlcFzXGYZladeytCAECyzLIJNMjWOI7RjioINtoEnKzMwXlpmZeYXMzMwMZmamcGH63XUdd2avppZ+9J3Z2V/Pez4854b8/7VkyeKEpRmZmZkZyxMilyyMX565Zc3WrWt2ZyRELsAA+N1r9j379tt7t27JSFgAH7n0K1/b+5sP331n/7Nbdy9dSAAHfrrvt3968ODzd/fv3bJ83gaBAL7+4YOqmY/+/s7eNRkLyuC5b7zfdnpi4vNfztsA9NDgb7dPz8x8sH/fwlI48Ie/fnHnX//84P2fP5e5kCJGHvjdP3q/+Msff/WzH39/eeT8DUIS9twbv/fn3//6Fz/5wbcTFs+HffM7xF/knntX7x08dOjQj95645l5jfJXP55+Mytk0Z7Prn128L333vrhG68DP5cBg07btSs2Lob6X7x/fLrzuxtf+8TzycFdtLjXv/VM5OLFpPyi+Fc2rd7JZrPF+Mrnt0eEPeQ3O8cvt02c+56y278plh7DCJ0L3/jKy1ZJgVGrNY56rVI2Llv5Io3g/dfHmicmZqYto5tiKQzqEhAZHvbqN71OjsfmdrfaPBy/skBnFstY6+M3Oz+92TYxca5R698ZQWGEz1WnzauNnNZPr4/39IwP5boMJhvHadSZcS6uNPXUzXxk7y0wy1hJYXPhUa9JLNeufzwyNjU1NdZ4q2c8t6LLxlEWqNmjtqaBSnt/ro7NRfjY9jn4jYeNtuu3pu7cv337+P2+7MsdN3v1uT5Tid+r9vvymquLu8w4ivAdLHQdOb9aea1n7M5Ac9GJE539F6fzsusLb6mGXF0epbpkbHY6u1vM5WF8EYpiq0jL97LyWu/l+82VdlBZ2Ym29tmG/I6Tw0M5XR6va6RwWCtDFSI+Xyh0rCVt/iYt8LeL7KVHQKX2yhOnCIezJ4f1LhPH6TNJWTwMeAwTpceQNeFVr2d8bJrgq86cqTpSWlbZX9t+9Fh9x0lVk69Vy2bxFA5+QMviybpA01muNjZU20urzoHOVJ22VxbVFR/Py24ZKb+bY/KoMccjnhadFcxnHTa29lyGTh05Q/CEQVnRZG0gCSIEm8X8kH8K+EUkAayzWq7evHOqrJQwIFIgImi7GAih8by+otWiFWOEwQpynnq4wHO9o6+6zB6oQNURogYXmutqL0EVCsvvutwcoxUXiviibRHAB4smhVGdyquutJ8+UkXwkEHnheZTjwxyTGBATIGDvyyETNutfkPvVN6pyjLoAuClpZBBPxi0f2mgBQMBNOLpULIZWC3hVIBBcRE42O2lMEiVnWAAKTw2UIMB4uCLYkkM6Du93a7esYbjdeBAqPJEZ9GFaigiYTBSrne5LUa1mMUDAz7ZGKayRz2uno7s2eK66qJO2IRO4CGDR10Yqmj1j0pxloYwWE9i8CJ7tMTX05ifd6m2rq26/wKh6ubJui/nwOBxes1yVIiBwYrgNoQ/zx7t9ulvthybba+tm2yuBgX4AQggUIKubqWOLUOFDoeInxg8yNSVbC+nq+l8x5W+GwO1F+smJ9vaJk9drIUKQACNw0MVMAbqQBNgnrdFBzdhpVjid+eoGluy8260F9deJFRbOwD8FWIVcokMpDhRQ8jhKUqQQehKuVXp8Q2VF9Zn5x093j5QDBq4dAP4+sJB1ZDPzdEGMsDmMIhKk0mNHFPO3cGO+uyGo0dvHAfNHu07dqWlEC4Ul8njlEAAAgRzQBuSY4INNnDZEqfH0KQ6WdiSn93Q15eX19dwLDu/ZQSukxyDzWK0smtQDYYphFBERrBBOopbjZbWiibV4MjZlvz8K6D8+paOxnIVwUMCZghAgSECBZ+fRg2uwSoBhKDkuCua7p4fbCw8S6ijsHHw/N0mF/BKiRRaIEQQAQtWOiU8uAu0RFSuHlV2u325etX58sGToMHyYZU+t8IEvFcqlqEaBOHJULgRSG5kanSSgCvWFTg5tq6K3Ca9KiA98TS5PRatRMqWwY2I8Lg4whclxwUbhIftUKAys6RAaSlxG3yunFxQjstncAdeNuJ8nlDB40q5fJEjKYrsSWMmatAaqVeidVpKbG5Tl8FgMLlbPRyn0ms1P+QFMqkaEzlEL2SR3QeU9QgPrbFKdF6t0s/hlIC6ORan1quTsuVclKdQCGqsRpTvcDxNIXsTwmPWJSvAQSKx6iTeUa0SBJ8HEvg8ENewUJ6Gx8Illho+zNEOBvmzTE/BFDyBTFKglkrVVh3Iqpaa2XgNl8BRrllpk4ocCmQFnciArA/MFYhCo2FJlFbgzMTnjRiXc1moQAC4WMfpkoowhWZbKuzyHCGsSkYQhRC1+mFvxDgul3EBB7Fq2BKLwccWYUIBsowCAZCKGkNLxxCQAnd6nDoieBkXhLPVxm7fkI0rgioLk+IeVYCsEbEpiALDMAdP2m2yWaABOvjUCqyYS4c4NCiXl8aEr745xaAzUxChAlZWJDRzDDBMOTlDetWw3i0VihQCloyXFkH6qj0exzhmerKGBx4OESYQj3JaTa0lTrPA4VCg3BqZcAOTQgzh3KKCwwsrNChK7B0mEjng+oEfcTiOsxLTY4P4YAc6c11KooBFlF/A02h4AgGcjYvFspeSUmlBPEkWDAotInV9Io9VI8flcjmgMBA4KzlpLTM+OjTkCRQaHRcbkZqelPgSHC0nhgFNTEtZFRFLD8sKeSJRGYRFROraZRuS0tLSNqTsSI1g0ujRUeEhT6osRjQ9PpYZ8R8xY+MpMVHUkPmIGhoWTaHHxYPi6JQYxiI4fb6iZoUyGGFhjKhQ6v+m/w1K3pgyvmPSfgAAAABJRU5ErkJggg=='
p13
sS'twit'
p14
S'data:image/png;base64,iVBORw0KGgoAAAANSUhEUgAAAEgAAABICAMAAABiM0N1AAAAaVBMVEUAAADxjybxjybxjybxjybxjybxjybxjyb1ojb8xFL9y1gpLzMpLzMpLzPM1t3bupQpLzMpLzMpLzPM1t3M1t3qnEjRzcbvkzE4PkJmbnMpLzMpLzMpLzPM1t0pLzMpLzM4PkIpLzMpLzPHvNBRAAAAI3RSTlMAYL//ACDP7////zCPADDv7/+f7/////+v/yBgvwDfQACAz9VextQAAAGaSURBVHja7dddb4IwFIBhPgSFUuVU3VypMPj/P3JUyI6z1YZzQpYse6/w5olQWtqIU5ykY0m8GYs25LI8ncszDpRt0++2GQPK07tyOhSnY7uiLIudvYrJUGKd8paVEjKUjhUTVNhrFlTOrQHxb+33HraopG1/YA6/qEFZ53g6015IdACUdU5v75Qpgo7tMjqjdKZMWnRsH6dbh9AyohtlYM6oRsupyUHpuL9i0fUxXbXwUFvp2UEJHT/UGfBmuslBCR0PJJAJdvn8UXT/o4clKXlfhJd6AKBLCHU1LK3yQQ0srhYOxHUQ6lgOQqJmOQgNLAehnuUgJHgOQmYxhA5CpBHrvJBZDhkfpIGQ9kAVBao8UEuBWhfSQEo7UEODGgdSNEg5kKFBxoGA2B+GxP8zCrbCC8mcIutMWv4ywl/Y1llq+Ys//3O07gdSGt4fQkjQlhD+tqaXGGejNUiMs/Wr9QtIdrQR42yPG/kMQongUI8QtXNftEPNoGUYsvWE98cLyVcHPyNkGMKeH0WlLQxhzw7HYcjNPa6H+wJu/hZ9j5UFfAAAAABJRU5ErkJggg=='
p15
sS'gmail'
p16
S'data:image/png;base64,R0lGODlhDwAPALMPACMhH/+rALGxsUdISM5kAAsKCv9bAP0rAP+CAP4VAGVlZf/IAP8AADMzMwAAAAAAACH/C05FVFNDQVBFMi4wAwEAAAAh+QQFMgAPACwAAAAADwAPAAAERvDJOQmhuNqbK+Ud2ElOATijBAwDcKIZIAjK0LxYMcx10ziwiU5BtDUKwUepMej5kBgHwEfFUYBT3ytJKhWQwBFwzO2UHxEAIfkECTIADwAsCQAAAAUABwAABAzwyUnrTDdhmZAsUgQAIfkECTIADwAsAAAAAA8ADwAABBrwyUkPvTRpjE3iYCiGjjNKQHmuLGa2cCyLEQAh+QQJMgAPACwAAAAADwAPAAAEQ/DJSas9x+rDjL4f5RSAEz7AMAClaQGCoAxNWxVDPDeN4044hZDWKPweo8ZgxzMeHQCe1CaCTn1Hia/AxX6w3hNSEwEAIfkEBTIADwAsAAAAAA8ADwAABFXwyUkrNXI9fK3OG/cEUkCOVjkiz8JWpOHKCOJORm3sB3IEiJxqlzgUD5yPaXFgOBkJ26m0ezKQL0ogYU3IKAtg02oIfMLBsROZ+0wWhgNymnIh6JIIADs='
p17
sS'related_to'
p18
(lp19
V\U0001f52b Pistol
p20
aV\U0001f4a5 Collision Symbol
p21
asS'name'
p22
Vbomb
p23
sS'known_as'
p24
(lp25
sS'default'
p26
Vemoji
p27
sS'bw'
p28
S'data:image/png;base64,iVBORw0KGgoAAAANSUhEUgAAAJAAAACQCAYAAADnRuK4AAAJGUlEQVR42u2dK3AVSxCGj0AgEAgEAoFAICIQiIgIREQEAoFAIBCICAQCgaAqAoFAICIQEREIBCICgUAgEAgEAoFAIBAIBCICgdhb395amMzZ9+7MzuP/q7puEe7JCdnvzHT3dPesCsmJfv36Vfz8+dPLe339+rX48OFD8efPH+//zpUe9fy6f/9+cebMmeLUqVPF7u6u0wd779698n1Wq1Vx5coVb9AKIEd68+ZN+TBNe/nypZP3+vTp09p7PXr0SADFrL29vbWHytf66Nu3b8XTp0+L58+fl1tgl168eLH2Xnfu3BFAMevdu3drD/XVq1edr8OHOX369N/XbG1tdW59QHbu3LkT73V0dCSAYtfBwUHpj1y+fLlcTfro1q1ba+ABVZc+f/5c3Lx5s9je3i5XJDnRmerGjRujAFpaAigQ2VvY5ubmImG5AApYz549K86fP1+cPXu2ePLkSe12xNdxpOvCcf7+8PCwdLYFUGZ6//792hY1xOEFqup1rFShbG8CKILw/vj4uFy1zNfiMwkghfe9Xvvjx4+/2ebKiLqmiCQkflblb43dFgWQR7ENsZKwBT1+/HjQa2/fvn0CIFIFU0SKYY4VTQBFot+/f5cONpnmPvCwwly9erWEY2dn54RTzmpjr4YXL14UQFK/FYb0wKVLl078/fXr1wVQblEdTjiHt7b6rDCsUBVkGxsb8oFyEvkkEw7bn5pzhRFACYpkpAkHTnmdD1StMBzMuqoTEkAB6OPHj+VBKGE9OZ8u2TmhOoB8KUmAiFjwDSiuIgLhZBwfwDS+du3atdJwMIluqCTEryDc5mGSu/ny5UuvhzpU+By8Fz+LCQOry/fv3ydtYQJopHjYlHjan9A5jO/Jw2Y7ADYePuE0oFagAUXbASggstKQBLQTg6YBcpd4X36GvslIAdShhw8ftj4U38ZKYq54duFXm1FHHYuiB4iqPD7RoYAzh03NMgugAfCQw0gJHlYrfLg2vX79ulyl8NW6/l8B1CJyGynBQ+6Gmp82sTr5yO8kD5BZHxO7Vf1jfaK9uhW3K2oTQJb4hdG41xU1Ec2Q8q9LovE1oiaiJ6Kot2/flhESRfBENzxQCt2JuthWXDjofF/ei87SvuLnsb+P72bC6AECjLYHQ+mDi18q4FIJSOhMaSn5lwcPHpRhPZ0RVV6JDLCddzJTAPv7+yW4XWJFohbIFB8Is3babiTsKpvNHiDAMH+BY3IosWzRVT4LP8d0llk5AZiV04ZrStlsFgDxqWqCh+zy0lHJHMKRtv9tfbLNU8pmswEISJoAqittCFFtxV5obMvylLLZLADiF93kzBICx9BHhbrKSfF77G26b3KxrWy2C9zkASJSalp9OAOLQX3LSVlNeNh8MOY6LJ2rDjpagOxTaNOW6AsfI5/FXmPATRogVpkmgKipiUVjir0I6ackDF2BGxVAdRMsKrPzJSmpLaSfC1zyUuTP8I3s9EAyAJGkawIoVY0N6YeID59ZbkKg0jc7Hvxvnk8GSbO66j17tBun1Eum9V3IxxSyunPFvpAGBxB7NfkczqKGFGGZxjJ99+7dMmoLJbRnTiLbAw9/SAvNlJC+r+wTfgyoogIIJ5FV5MKFC7MeWPL9qFZcciQK8NjRz5A66yqk53Uu6p/xqcxDWpztvit5MADVZVHnNNcp/Tax8tg/zxBH1Wd0yHnaELgFkAexndo/T1fhWCwSQB5E/sbMwbClTomYhowCFkAJAFT5GWwPU1YeQmszsOBg2UXPmgAKEKA5RJDh+7RdACUEUN1RztJngALIcU6rq1t1aJRk1oKTolj6CEcAORJJzCqnxX/niroAsm0UsABKACBWHDshSi4oRQUBEKUYdDW4BIiIhbMyH0cbrmpvBJAlWmTaTthdtQ6zBbgsvl+qaCwbgKobZpacpkHvFIeIrlYk/o1sWwALPCFdTxAtQGROacQLaQwLJ/c4vFLgAJF6dzH4aS6j2nHJHnMB1CBCTdcO8lxGjsX3jX8CqCM0tyeKxmDUBqfQ4Ro1QLTgtPWwh24UcKXq+AYPUNf0jFiMZCDHB5JHgOxbZWI3HP+Yes6iBqiu8k4QCaBeosouRXhMiOQTOQKIHE/K8JhJR0VnMwOEkxlztDXUYpkCEgVAfBrtkSE5WCyDrIIHiHOt3OCpDmJTHubgBSB61kM6FPVtfHikCQAx3SpXeKoJForKRgJEIVjO8LiakpENQL6rCENehVIbJ+McIML2nH2fsWNQBFDixxVTbtiJZbxwEACNHfqUsqUyacM5QK57t2I1H5eaJAFQronDLtvc3BRAfVR3V5Xs/1rqXP2gQQB1XfImP0gANYrhRgKl2RikKYBaxCAjgbJqnVMtgFrEeFmB0t4KJIBalEqnhStLdXzLbACl1m3hoo9MALVoe3tboHSMjRFAOoEXQAJIAAkgAZQeQLmXsMqJnggQ5ZsCpdlYoQWQTuInTTgTQC2quxZRpo7V3gAxY1mgNNv+/r4AahMDKAVKs4V4A2FQAKEY5x36slyndgwCiIHZgmXdNjY2ilw1CCD2eQGjPvnRANVdIiJblVdZCqCe4tYbQfPP6JNTY+EAce+WwFH+ZzRADBNQd8a/4Qo0Gwiggaq7/DVH4w6Q3DUKID51mtCx0uzoYsKEst3d3azhSfUGQm8AcXlcyPd/ufZ9cp7IMQtAKJcB47bRIyfNABDKrVuDudjHx8ciZy6AOKXP5ZBVW5cDgBCp/ByuO+CWZ8kBQDn4Qxos7higlI85aOvO+bzLG0Ap5ocIEnTFk0eAUoJI8CwEEIp9npCu/l4YIHR4eBjlyT3wy+cJACDE1Qhcnx3LtNWjoyNRERJAiMxt6K3RTBgjKSoFCJCZcAytJJapGqw62rIiAAjxoPCNuKRk6Vpm8lY614oMIBMkRgdzTYBPcPDH6POnHEWKGCBTtAUzBZbtxNVqgw8GsNqqEgTIFKfd3H5DvfHYbY7qACoGGf6N3yVoMgLIFl0g3NHKdBB8J7YffJfK+DNfxxEGFl3HLYAkASQJIEkSQJIAkgSQJIAkSQBJAkgSQJIAkiQBJAkgSQBJAkgSQJIkgCQBJAkgSQBJkgCSBJAkgCQBJEnN+g84vYoY3bQQxAAAAABJRU5ErkJggg=='
p29
sS'version'
p30
VV6.0\u02b2\u02b7
p31
sS'uni'
p32
V\U0001f4a3
p33
sS'desc'
p34
V\U0001f4a3 A bomb, with a lit fuse. This means it is soon to explode. 
p35
sS'browser'
p36
V\U0001f4a3
p37
sS'annotations'
p38
(lp39
Vbomb
p40
aVcomic
p41
aVobject
p42
asS'wind'
p43
S'data:image/png;base64,iVBORw0KGgoAAAANSUhEUgAAAEgAAABICAYAAABV7bNHAAAAAXNSR0IArs4c6QAAAARnQU1BAACxjwv8YQUAAANTSURBVHhe7Zu9y9RAEMYTLS0UQW1UbCxsrFUQK7EWwdJCxN7e0t5SsLDX/8DOVhBEsbO0UsHCxjI+z2Ym5j1zd7ndJDu72R/MzWbvuPfNczOzH0mqhLlaVXXTGtuDsP962/TjmPjEqe9LQzmFvmewT7AH0rc6NILetZ6iOG7j+Ie8x/7Lbff6EIGcIPRP4F//E8b13eMH14oKxHRSYRA5TihGEPrWzXmI8ELaFAs1x4nFlKNQeD9/OAJp6miUUAC2KQ7S6whIKfcZRk/Q6GUdnFz9RU52l22mEQoyheuKND2FzKlQu+FZBUC0uELL+YymDEcrHjNCNiOI77Fo978Dlk+xfignxRqyLUUYJXx/6KRlROsihwJmU4tYdPUX35YSIk4XFYwkRdpdkdZ5UTZogeVotIWuUPeNn2fNYps1SaNIR7hccMUVJ7Zz9GG6MFLEuoLMmkOvhV2jbNd3JQfrBWrQQTWDIlEQGiOJacVpgfYx1bKpQZ5o1ByJFtYqWaP9NxU4iFr8kvAXvibtETRP8fK1bQ/C2oVUa87KcR8W8ouw5+4oDbrwH2ku7aKRyX7QfBSB9lAE2sNx8XPD4fcmasor+EuuZzT1DdhJNL7BfrmujKAwXF/JxC3YOGTLkiJ9OP0fs2XhY1xGJL3W6s9m5zLOkpOLJvyq3Qx2IXNLlCSIII5aEiLFEkfNtkhL1Jx9xppkcu9ZN6ssGKLYFqw7cw3lnhZ3cbuJbrJbMqbaZHOkwKVG/RYvJ9q2Gfj/cP/oozuKiG6OWzRG0SQErObrR9KwyBnYJMO+r0DM8c2bloxR35JGEL4CXRFvmcfig8hZIKZZ8CUfT4HqO9Kwzmnx3gQU6SQ4J96b3AW6IN6b3AUKpgi0h9wF+iDeG1+Bdl0rzwpPgZroC8GRfBbvjW8EBf/hBXgjPoiQFPvZNq3SRBWIvBRvlffio8G7uIb2YixY0F1lEzJ416kBs3PFtX8TpRWbNHpCb3/5DvuNf8rQ6r65ixdTt8kYuvRj65JPn94jAtHMSmHeSsyrHLyiOtm1sDmJIVIy4igc2ZZKN6ZVUuIofLRp5jmS3YJ8CEy5qaOJUbPYAypLPKvBFODzElPwB7aavahCoVAoFAqFQqFQWCdV9RdLWx7Zo6uD/wAAAABJRU5ErkJggg=='
p44
sS'andr'
p45
S'data:image/png;base64,iVBORw0KGgoAAAANSUhEUgAAAEgAAABECAMAAAAV8YMOAAAABGdBTUEAALGPC/xhBQAAAAFzUkdCAK7OHOkAAAMAUExURUxpcSotLy8vLy8vLy8vLy8vLy8vLy8vLy8vLy8vLy8vLy8vLy8vLy8vLy8vLy8vLy8vL+1sMC8vLy8vLy8vLy8vLy8vLy4uL+1sMC8vL+1sMC8vLy8vLy8vLy8vLy8vLy8vLy8vLy8vLy8vLy8vL+1sMO1sMC8vLy8vLy8vL+1sMC8vLygsLy8vLy8vLy8vLy8vLy8vLy8vLy8vL/FxMO1sMC8vLy8vLy8vLy8vLy8vLy8vLy8vLy8vLy8vLy8vLy8vLy8vLy8vLy8vLy8vLy8vLy8vLy4uLy8vLy8vLy8vL+1sMO1sMO1sMO1sMO1sMO1sMC8vLy8vLy8vLy8vLy8vLy8vLy8vLy8vLy8vLy8vLy8vLy8vLy8vL+1sMO1sMC8vLy8vLy8vLy8vLy8vL+lrMCotL+1sMO1sMO1sMO1sMO1sMO1sMO1sMO1sMO1sMO1sMO1sMO1sMO1sMO1sMOxsMO1sMPBtMO1sMO1sMO1sMO1sMO1sMC8vLy8vLy8vLy8vLy8vLy8vLy8vLy8vLy8vL+1sMC8vLy8vL+1sMC8vL+9tMO1sMO1sMO1sMO1sMO1sMO1sMO1sMO1sMO1sMO1sMO1sMO1sMO1sMO1sMO1sMO1sMO1sMO5sMO1sMO1sMC8vLy8vL+1sMO1sMC8vL+1sMO1sMO1sMO1sMO1sMPBtME05L+1sMO1sMO1sMO1sMC8vL////y4uLu1sMC0tLSwsLDMzM2VlZTAwMElJSTs7O/Dw8EBAQDU1NdTU1D4+Pjg4OM7OzmlpaXx8fPj4+Ofn5/b29v7+/s/Pz/X19UJCQr29vcLCwvz8/Nzc3FhYWHBwcNbW1vn5+Xh4ePLy8mZmZjk5ObW1tWxsbJKSkuvr61ZWVre3t4uLi+/v75+fn8vLy7Ozs9HR0TY2NqSkpHV1dcHBwV5eXoiIiKqqqujo6Pv7+1RUVEFBQd/f38bGxnR0dObm5piYmLCwsICAgJGRkdjY2FJSUq+vr3Z2dk9PT6Kiot3d3UtLS7q6uoSEhKSdEMoAAACwdFJOUwAJ6H/+5AQCAftB4D4N8Pnr/mX37fXuNwHYE/2lzCQyOhAtV/Mp/NNoWgPaBgvDbVMZ4tYCBCeY3BQiF95QKVR1hl0IvbrUiUlOsmoGjPYS5YPHongPrTWbjHKfJkQzSCAesDAcFisaGB5kbKKA2zerlggLaFcfLyy0TFzeuWBHkLdpRpJL4WHAxtAP13Wv1fjD2dLJp2EN87867rs9CT+UyZl7qVCRiieFj0C1W+lEoqKsJQAABYNJREFUWMOll3dck0cYx19CFgGSSLAEZI+AxMgosmUVw1ABR0XFDYqKAzfOita9cNbdvdfx3huGiqAo4qjVWq17VKtt7d7b3iuQhJf3vZz6+yvc3fv9PHfPc797oKhHkKHINystINPfT4Zf16MPbtbZKWXM0xLXQKXasXuqwg6zsviNSXMEJ4tcFqqBRa6ePsKgmTq4lY2peOSIUM6Un4uXA/t9oDE9O7uXuwr9dA8Q2p92MoQbJlDUiI0Vy19sP+U7RoM+VXmlDh9lJ5c/4x2Qjf4WBcgFSPO2wwVBVO5cCDtNbHfESxJZTHpahCXCMAkAer7dsVvK3c2C5udAuCnIamp0TGfECQ6Js14vC0ek15y5mPGvTloXpKU+zJsye3op4rweZZ6SO60UA9B5cBLnE1mKCgRmckElOqjbVPKCdt7MHh4bc+butMr5EkcUjmOIocMe4roDMFjKGewNkXL6ztCWTfXYNj/XEk6hJ3vKLy/lO9ahABgTuFublleh022ePX/BB9NmWDDxA2MRRlMQzZsbJyVQ+3IHp5fNm/j+nL07INy1p1t4WFbh6IikzAxjF8QxujjzJ3lcIujck7eO9vZBmc+b46YGmkjj6lg2V0AyJFqofpNigSaZ537MLN29Z897W0qixrm33QMH/ZB8qeBF8JHwRBQ1cpUO7tqpLfboMWvWuxkr3SNFiasLVnjjbnlXFRC5cQdnb4aw4u3ps9aXrdmx/Z3xdhH+bsP8pFirkHoC4BXHHZ2aA3WTPN5aC3v32Qp109bg7aYoICzEaZkIiDM6ROzxyqrJY7WTO8E3qXU6mDMRh+kW4KVxcHBFphKZ33F2xtgoKncLhH2psikQrsc4nF8/ZVsyyg38S4KWI5A2alteTl+uH1EyQ7yPYqnCJ97NU2V2N6U9P2nCWghLKCp0xEgPThC+YQP66yVPBSolepGVTQJNGG9aQ0s2lBZ3GJUPG5reYrI0EmivxELekEIndEyXd6oe2QjNMExVQ0PDbfTDGtYlRU74/rgEs5SaE/ce3Pnv1N1TJ/+4dP4EsEIN6EbE8S5AF465fe/GwU/vV7bo2PGDv1RZQIMMJBw35F1MVfWt65XttP+wyQwqIIhI/hy6vUztHQ6m8lhTI2MG2RPE46RHC6ubrRmfXD998+dfL14wH5JDiG3OOC8Aan740UI5fujGmW9q62tM1nlLldnixA1Cy85dthzMZ4fraVM7CKvgaBsc9rWhLx417+lkdZ2JW40PCynGDg/ycQTM77+1cY5+uc8E+KXsiXetGEA33GrjHKwGNBBSehy2giSA+bOplfP5xwwQliYNd0KLAX3gZivnLJYDQLazMGi0ETBfHGnhfH0Yz+F5JS1K1tB1V1vzda0GzwFie9zOmL9aS/FUPW0DJOi4qAXpjnb2UUsdnjfZ4oDYYYLukQjov1sCulpnMyCgUQheVzWouvuQc+SM7YCAWLAAwjV0fcutP3uCsQ0CA4Vfdab29EPQVzUEHGFTCgHMv/+wnPuNzBOBzBHtv2J6IpD5jL6rJYpI8IwUKGsnWVDztzQBR7wIU0fMtWMIdOgACUgzHFfZVy4Tg2IF7Vb2PKDrWFtrJgL1MuDaQ1P1/srK7/cRgMT9hG0k3h3QVT81HblEkjOlE9ayAX3hXCNJQKD8Wdwrq2abEBMJR+WCbTg9Aan6R2DfI18JISewK/6BlNo7EHHEA2w1SAnlRKDgJJvdSL6RgCPKIumzEm1y1C4ygkZLHh5rkyMl62mHr8ZyIhcRciiqcIwKU0AKOUUsv6FCByUaMop6JPkvjuTBuHoqpNQjSubTz0vZ3hHdX1LYUY8heUKm/SCjRI3+O3KV6BdmJI+SUY8tQ0L+sp4rkrPcipwFKP8DEpSu4jdVwxsAAAAASUVORK5CYII='
p46
sb.