ccopy_reg
_reconstructor
p0
(cemoji
Emoji
p1
c__builtin__
object
p2
Ntp3
Rp4
(dp5
S'emojipedia_url'
p6
Vhttp://emojipedia.org/ox/
p7
sS'index'
p8
V241
p9
sS'code'
p10
VU+1F402
p11
sS'apple'
p12
S'data:image/png;base64,iVBORw0KGgoAAAANSUhEUgAAAEAAAABACAMAAACdt4HsAAAC9FBMVEUAAACXYCaYYyNEJQBCJwBHKwCYZytwIxNtHgA/GwA9JwBEIgE/IAGgZzGXbC17ZBpFLgA/KgBMKgNrNQxhNQpCJgRGJgJ2PBJWLwiBRBZ2PBE8JABuNw5oNA1oNQxbLwdyOhCISxx3PRaAQxOAQxinhFt1OxBrNg2DSBt6QBaNTyCGSBqDRhlrNA6XWyllNApsNhF+QhZ1OxN4PROFVBZqNQyYWyiMTx6DRhmTViR3PhMrGwtzOhNsNw2OUyOARhWDRxSng1p8QBZrNA6mg1qGShajf1m+oYBmMQuRUyNlMwo9IwctHg6CRxuMUhlIKgyKTR6mg1l8QBZvNhClhFqphl99QBSERRZ4QBKOUyI0IAo/JAyGThiLYS2KTSCbXChsNRF9TylxOxSif1WlglmxkW6jfle5mneog1u2lXB2PxJjMA6aWSeITB6eYS0qGwY+JxOohVyFSBWRZTqGYzqkflmvimarhl+deVCphl6rbTazczuycjq1dT3DiEvFik6wcDjPmVq/g0apaTO2dzzRn17Bg0fJj1DGjE/ChUi6e0DMlVa8fELAhUnAgEamaDKTVia+gESlZjHbsHfUo2XSoWGXWCfEhkrLklOvcTnXqmydXyzMl1bKlFXJk1OjZDDVpmTLlViJTR+3eD+tbje0dz7Bh0y5ekDMl1mwdD2najXGj1G6fUObXCrFiUnTo2HVpWfNmla9fkS7e0DWqGvMlFSfXy2ARBrNnFnQm1rKkVHDi0y4eD7GikvHj020dDvHjEyfYS2hYi7WqGjIlVDPnlrOl1jQnFyOUiS9f0TQnl2tbzi+fkPTomPYrHDQnmDBiUfKkFPJklWZWyqRUySGSRzIklDOml3Ch0nLl1OCRx24fEDNmVm8gUe1e0CaXiy7gEOPUCKpbDSgYS7ar3OZWihALht0ORTJk0+9hUTFjkrIjE98Qhk1JRXctHzeuYLAiVBZNRltTjCdcklrSyxGNSGBWjhWPSSWaT9iLg1mSCuaelridvydAAAAenRSTlMAGA4NEwYTAQIJGBYQBgsDCwwfhDApGqkjtp8Ve1RQNoze/ojiZ4V0zs3owdab+kj8xLmyHWrh1vjVk/3hXuShX0/WjypP1PyJ7z1R8usxeeyG2q5Aw7qtZviYuz0k9fDN/dJyJfzP/Zr9cdjx8fFx1Fh4xErt/Ny1pxc/zlQAAAiJSURBVHhe7ZZldJtHFoZlS7KkyJbMGGPiIDM0CA20TRosMsMiwydmZmZmmZmZmRnCzCnun5US78ab2Od00/2ZV79G851n3rkz994B/b/0Qi/0QmgUCv2LACF/+PRgUAjsuQGowIOHvvhq32eo50XsSz+474u/fn42PeA5N3Lw0MkzZ9LPHj588jkJQel/+ds/0vd99eXhk+8Hg4MhEAgYgf5ftoMOOnP2668Pffr3Lw//acfpuO3bt+9Z+goSDIX/bAIM9Vn6oX9+vOaHzx80Cw2uu567kxdOrN4VjYQEB4choD/HDSzoz7sBlevBA7ewtoaSa7dPWAovybdsjYtJWZiU7CP5QH5HcCgYglzgFzIBEhwK/Q8aBt4zndlus1mBaSrVVqhytOSS6XQW2YKxUsRTmi1b39yxNCkWiYzeFb9sd4bG9/v19q1xKWuRoTNhhyaLCdYpEdWaV0XMI9QAVIdCySGRSOONytKKamYZzzvpctccXfUbjcqRS65g6Jh8kUXQLExdFA31A+CQlUTH6HdAZnsV1qHKELdRWxikbHW+tKND1sSo5BTrKivHu4rLJm1kThOpiSZVdzS2OgnuD76JWxXt94B4q01EtLRPEypaDJoMsQ1wtHhk+RKJWt1ZRxqsLOvWD3p6O2g5OYM5WVlSY3Z+vowkzR6yZ2yMemNJqO8cw7fgW8pZN3pKmkq9KgFmrMpC1mVdvC2RSDplWm332LX6Ea1eXzA4qM2iNTRkd3aqW5U+C3fdRWs3L0b6IrhExcrLZTELjPmy3rbayWkcVVSQJblzR9IpbSqov9Y9UizLatJp9fiCBmNDcZ2P26RgtrbqMM2rk4uSQYjE39q4bHylPkdW1+WxtvF4XLaXkZV/+44km9bqud5dLzMaszu6WscHrxYbG7TZtyXScbKC49Rj5KejtiWCkG9f07fjWqpHcoqHPJMXgDLffnAKUv7FixfVNK3eB2hVq9XZWbKcwes5xqycLIkkexzPKzURHJoNUeYkEOSEi8zniioyy3gTLkMNwOwZtmDoBVL1xfwOmrb+2vWGLLW6zmj0A+qLG3JoFyVSE1mkdPaSpzYmD0SCELv2C88LsBhAPNVvbtZgGaaeXKuo0Q8g6TwF3cP1tA5pXV1dK60+s3Jk5GpOXf6Qjs9m9PZ6+2KSti0AwRGxO1Ii1p/av+H0kXjzlLvM6eRhpnVd+Z3541c54/Zr13VOaXadsamEU1lWqdczSoYKGHQ+Q693NB/YfCrBn4+I0DBfGgeDwbE7NQaXiWZ3sZlaaWc2p0JLKxMRdE1So8xIG9cxh4cHTZySxh5eHt3DITial0a8EQyaLcRSoco94fTYVHwtTdZRSm/s6nbwdLIOaRetg6TDO7iK0gJSVw+ZyzI57VhzUnw8+L8AcORytwrAc8ZUbGaJjKRkkkwtNgthfHxo3DmkZ5IdVVzWjUZSD91C7+21Adsi4/w3cbagiUIvxqvFq3AEJa3VB1DSiVQbgdPY6PT0+AAursjO4VRwuSy8F9v3SdT6bxBPVQbIchfPxuO5iWWNXSQGk6PkY3G5dg7N6TT12u0WAJeHV1bn5iqqWWzqQET4/l1PAUCIzUIy3dVGxOIHTY2ljIJKbpWKbdeRej0cJsFuMQBsuoLO5Sqq8yyaK5Hh2yLCngLAoxe3VeQCYoGXwDQNFSiHHQAFl8skEHh4ey9+TEDBsvk8Op/OxRpurotN1KRCQE8pNEU+puCrLqha+D1DTkJLOUWDw7HI+OFMvJ3XVkPBcFkeBqsdh23+8VebFp4/gXymSIcv1vCqcbWCPDa/4oaCaqH0WYlcPDmTN0FvUVmt5RY+oToPh6m5ss4HyFj+jAMQYu0xjYWvysAycVgMzurOkJ8nWltECpElz4KhaKqIjhsKHAAMFKV9FJBkjgl+tkQjIjf2i9lAocsqoFAKL53X9GGrVOU4Sx7RLcgYFTssTKbXKkwzm3cGhKctQcxR5KHBSasKiYD8kpVdThGLKEKxCoNRYamA3Fx0ZQDnsJsmiEWjfcJjAeAlkXO2QxgidmeRADhX68hzYCqw54Rig1jcd8l886MjEcs0Dp4J33bTDEyZj0PnbTtBG9alyeUDAr4il9V+rqhodLSoaPmBZAgYHPW2iqW0C4qagTb5osB5u1ZgzOjouitXBojVHubEliVHIiISwyGh/uUg6zXeHh9gwGARHz0eMj9ACAjTflx9dEyvL1sTFYZA/LvZIhZeYivLatPSLjgwtW8GzgvYeMmSYV4XuZTCYvZqEqGz7skrcksPQX5qZzOGbUgNmhcQX1Ml6F8dGL0bMzZyIQIxK8ALVjhu2Ppj9m4zsClb5wfscLPPL96EDjsgwFS6V8/OmIRltlLXB8kBe+STgvXzAoJWtmHMb6FA6Mg1XjxwIHSWA+QqK14eAQ55T+g4HzcfAH18jUizIcgXt+CNNqZh4awtQNcKcbX7F6BhQSuJqpXzAVCLVMPnXg55VKIMmX2bnwDQ0cuBdqH/D9SiwrEVAXNfBPim3WTqMf+kP2bY/icOYOAUQYXIHAv3AfbKWTW+ReYQLPCPbZmUDUEzMaNSnqQcYu0aT+v0qoRHLvtEqj2Bc62PevlDb5UmBfVoEH6C3L4COeMUHZs6QbMD/maA3pSKJbvnPEfU3g+7y/sfhwAUulBcXSV/ZeYahsUbSvRT5+JD/QZqR8b64551AAt5f5lgrHblXhTsUX1aQa64EDPjABr7SS2rZnEkGA2CB6TaKvvemONxi478/f37P917DwX308Je//iH7+69Cp2p+e9+//D+vXeDfROo179/+PDy66g5Hv/v3Pr28mvvPE5UWNRL316+9VoU/DH71Uej3yEeTVy+fOulV+c4BHRggE+B6JnKAvG9KiFQ2MwowTdKQMD9Gw3yf+az+cv1L0E89BoZ5SY0AAAAAElFTkSuQmCC'
p13
sS'twit'
p14
S'data:image/png;base64,iVBORw0KGgoAAAANSUhEUgAAAEgAAABICAMAAABiM0N1AAAAgVBMVEUAAADBaU/M1t3BaU/M1t3BaU/M1t3BaU/M1t3BaU/BaU/M1t3BaU/M1t3BaU/M1t3BaU/M1t3BaU/M1t3BaU/M1t3BaU/M1t3BaU/M1t3BaU/M1t3BaU/M1t0pLzN1TEHBaU/CcFjCd2HDfWrFkoTHoJbHpp/IrajKwsLLz9TM1t0f8CgUAAAAHnRSTlMAEBAgIDAwQEBQYGBwcICAj4+fn6+vv7/Pz9/f7+8J3AbmAAABeUlEQVR42u3W23KCMACE4U3TFEmtUqSomOq21R58/wcsik60gE0Il3y3mfldwBnAYDAYDFo9TF/m+4PVfDYd3aGr5f7a8ukenbzua547zXqYrWqlOTobPc4uS3SVRfhDpm+7n3Pnk+5ygUvKsLT9Pna+6GNxVTKsvG93uw/6yWBphohsKGMIO0kyjMDJmGGMRmXBg816vWFHVUnxaF3qvEmglISHOEapYPClMQcQsw8A0p5Cgj2FdF+hrK8Qg+XHkOorFPUVEgyWHEMwDDWpQilD6SokGSqqQkgYSJ5CmDAMziGI6GxBf7kNWYr+klqo42XqxhAK+lLNoYi+UAt1e+vmbSHpfa9hSIO61PvdqI3RqBOGPiSskL9AAStoUgr0MymG26QcjQqeCThMag/lLeftkyZolF58hbhN0v+cSzhOitAotlfmOAnNlB3sNmmBFvaLz21Sgha5fRROk+LbvyPhQB+mo41yGWTXpzdPCwEn0ty6l8oYhQu/I5ZEI/BW4jsAAAAASUVORK5CYII='
p15
sS'gmail'
p16
S''
p17
sS'related_to'
p18
(lp19
V\U0001f404 Cow
p20
aV\U0001f403 Water Buffalo
p21
asS'name'
p22
Vox
p23
sS'known_as'
p24
(lp25
V\U0001f402 Oxen Emoji
p26
aV\U0001f402 Bullock Emoji
p27
asS'default'
p28
Vemoji
p29
sS'bw'
p30
S'data:image/png;base64,iVBORw0KGgoAAAANSUhEUgAAAJAAAACQCAYAAADnRuK4AAAScUlEQVR42u2dL9RMXRTG3yAIgiAIgiAIgiAIgiAIgiAIXxAEQRAEwVqCIAiCIAiCIAiCIAhfEARBEARBEARBEARhvvW7az3jmfOde++5f+adO3P3XmvW+3rN3HvnnOfs/ew/Z5+9RUjIANmLIQgJAIUEgEICQCEBoJCQAFBIACgkABQSAAoJCQCFBIBCAkAhAaCQkABQSAAoJAAUEgAKCQkAhQSAQgJAIQGgkABQD/n8+fPiypUri+vXry/+/PkTozlXADH5P3786PTB379/L06cOLHY29urXl+/fo3RnCuArl27VoGAn6Xy8uXLJXh4ffjwIUZzjgD6+fPn4uDBgxUIDhw4sODfJXLr1q0VAD1+/DhGc44Aev369QoQnj17VvTBe/furXzu1KlTwYPmCCAA40AoNWNPnjxZ+RwvtFLIzAF07NixIk0C59FnDh8+vAIiCHbITAD04sWLauIPHTpUcSB+f/fuXdGHz5w5szRfx48fX4Lo7Nmz4ZXNBUD//vvvUosABH6H35QIWkgE/MKFC8vPC5Bcp5SUh2wpgNA2mvQbN24swVAqzoUIKt69e3epyXgBsMuXLy/evHkTJHsXAYSp0WQ/ePBgqY26TDYuvEBDcPHRo0cVGI8cObLCrzBzvDeANB35/v374unTp5W1YP5RKF047B5v1uRzIf2Oe99FCCw6mf7nn38q88V10ECuleBOHz9+jNnboHz69KmaF1EQfx09enTx8OHDooVeRaJFgG/fvr04d+5cb5ccNF+6dGnlQQAW8u3bt2XEW6YNAh+y//L8+fMV4DBPzDvOjysB/taW4qoApEk/f/58ZWJkivrK/fv3VzTO1atXF79+/ar+D/Pm/4fWaxI0Favh5s2bYfpGAo/G/+TJk9Ui9nHFIvE3wjmyFk3jXgEI4us5Ld0AD62vMPGnT59eXhdirgfhuuJH3CsNG6CtALJ7dV3CCyF5ge/iHTOWFy9erOaIOOCrV68qzopDxNhrDpQsRyE0AkiuvHJa0kggtGuW3gXAYBZ1bTSJ5MuXL9X13dSBfIDmGsp/HwLokMWSnjDecCAtYjdbAEzpLDxn/Q16UgsgRMhk1aOF9G9uOlQga/LCXDBrACYlcbzQXpg7B+AQMM9dPNzy9u3bSgMJHMwxc+RA0mKFFzUly5cAUgyIF8jziUPF9REeFG9MWoTCs5yWAvFoI8CEOX3//n31f5gskT20Ykh/06VxhEvCOzW3cnJktsR9ABSC1WiKDS4B5LktiBMqSzYQZPqN2gQiBnBco4ByEelSce2EukWDoZlYPXh0gA3woY4j4t1uuhg75kbjSuA3R7I13uKy8ppz8aGVklYuqAljcjAZTmR5EIDUxMoBHt6cx4OIBfXxoNKSkbYX6hbCJw0Wslgo14kVoASZhSaLgKVJhfdoPJlL3q9/s1AbAYSq08X5qfRDWjwGqIhagk6hkve5+4dtHSPOAxjQMnpxX4CFOUQTeRI3jXrzPnkVcxTPVWK6EOhIE6f0zIQS4uJGUJJGAClO42UaKlUFLCLD/gJoTJYTMAC2n5FmVgpAw16j/VIvDnOH1zc33qPFxZhooStkkzo0HqFOAabrYN5aAYQ4gUaTuPvMDXgIj/E44DAhXbnO2ILWYSF40T9AYhXOgSsBHn13Jt81jZRAzqFxDcVcSnQtPLkiACHcwNMOuVJXHhS1BjLhRpsGTk54Lgc7Jja3knZBGH++m2gEP13zQjNkKeqcImUiGDOJOG2uzGevC4mFpObs4NSFgUMjuZklLFAXHJsSIKAQuN1ofUwxHhQhj5Q2pC9oRGq2Vf+ORqlzahTOEWdCFDMiJdUJQLqpmwK5+aizqU9Ajit5XArzzPeYUo4NL+jOnTsVAJzLlb74ToAtZw3kUTflHwUWFpwEWqJrp6580c5UPoQ2ShGPaWNFsDKwrX0DjvstLAr33lgQm0yTwFGYMMIkdaDBHGFKWAAABOArj8Wz88KRqKvlUXyHOWzigVIW7uK7d56Cb6+rSuWh6+pIuImrTUU8GZipFdrzXVDXadXA2Bsk0W5MQPpiwvEaMaXpWAIWFiUg4X1Dx47vKl7Utn9PAEqpingQ3Mg1du+98aAYlKJunXB77Ie/K6fWlNHddKxEmwM8D8fzMohMtg8YHh4hClY03irBV0DAImHw9X27voj8cr11lP7KdQdEbWAUUPhMjj+lBHyU7hwMam6LM0E/mTds65QFbZlyvXW/uB9kFaCuU0OLejAfbcLzCGwpj9JC4+eoAPLwt9+U1cSKBL1d9t1v0ltjMhlEBqmJxKIx0D6YQTQHHBEQOidJX4wTGo0Ft5/EXWEMtGTbfYnz6XunVakq7+CldNEoANKF0ypGwASAIH45F3Ab4ipMegqCbSsrUWynLpqciqeuUtKsxCxzOhqAVGuSS/mr2i1qeTarWaWFMGdt+UHe77Xt8CF5blIWaKmKuozxgNoePUbxWcj6nAWZJohymymDk6WbIFAEXEfxpGrex3g4biaiVtrdI2T/BY+5iylD8KpT50JArAj32K4iQApzNV1TpngQgdRSIs/7AJzXeY0OILQQxdpTjvmE/C1RrSsoK3GY8D4Jy1SlH2M+XFPWNmQ6nqWCnXUlHV0kADRDUcadWNbQeFQAaIZCsHSszZprAZCXAoRMU+RJ+WbPjQPI4wMhw4TAHUHYdaU80ojyJACkGpvoujEeT+naZqdUVPfupasbB5CCibGHfTx3m4lehyj9ROhlEgAiDiRi1raFRoEpVllbe5e5inYKD2mz0ySeWZ8EgEjv64FYNZgxMteAhf+jIF9xB9Xd6hWkOy/qnrGOjrc+X0O2Oo0GINIXJdV4vmde7V3wCMLs/V+01XwdTkluB+rGORBqly+dA1Ja9wt5IyqqRF2uAm7uojqedRTjTRJALtSKEKRCswAsNJRcRwCmom1UqWISEYBcFbVgxpSNXfLKfJRy1o0AqCm+kdpcuZQAa2572JsEjSzNvY72frIUQzaLTuLIS4i2+BBkO5pp/pW6XRJjSMlGw60AkPiTTFluE/9chS1EaCG12xlT5NAMAeekDt3VlhJUKzVFfdxLTCABzV06AE9NogDSmJFpbVke0j5wUgDCdKUHtnS1/arP9uYAuyCKTKOJxurApmNLh6QzJnfsN94BK0Npka4urArBdzGhq7JhNNEYJyEp2s1C3RkAuSliteHCdokPiYzv6nllgEjeE3msIQ0tvP/hzgEIYTNil/gQ2kst96YuTF7f/o3UInuBO6khtEkf0zY0XTJpAMlGN3VKd1EDgC7nne03aCD3hCrE9fidhYLZ7tqJg4S0H6nF4ukajFVwt2/XtkkDyPebkblvEwUk11UCMeR7pB3S2pou0JCC7wyw1AeIBUKDBHWoTc9j852kXV35XM/orQeQmzFebZ1f1ZZ/qKuLBzdkaxLPqYg6k6+9WNKmbPDD3OS63o71Kj3dyLV8n1zk5AHk3SKaotSscoX9h2xsVJIRjtH1c6x8JYd5FpkHmRc0Str00nsToVm4RlP/az/jC62ByVKcSHzIj3Av2cIszdinknTyAEK82SerNzcocknxwoaIjv0s0UAAlTRAU2s6/o6ZoDaqztuUKUILpN3gIdpoK51mxO85TSEQ8P++hbkERNLyfiTXTgHIzVPd5EKy/YyHviLvpslcMuloi7REhXv735iQkobrftwW5LqPKUnPePOG8QCkCRiAW6GBrrs0tgJADKhzoboqRk1e39IHVjsTAWdJBxwPCm2DiUhPpWaVq8sYGgTe07VTv2vZPk6AvrvHhXheP5a9aVz6RronDyDMRNrD0I8p99Uq7dG39EGdTAErWgaXG3CgFVJtA0fB3I3Z6lin6KTNSktEYYHUAwPYfkphE4h0fxZQKY+cNIBYxd5aBNIID0gPjGXQUMPaCtO3PEFeUZ27re6p62iEKTMsPtRVC6nRaS6vhVZU4wtAUmciub/eV+rWTxZAAEUrhxWJydKkMSBKWeTKZllpXT0xBjUlwtwfrYamQa3vR52SYll8ly6FXr7LIqeBMc/SUoCsLo/m1ylZiJMDEJMEH9Bkog1ydTC8r6mzatc4jkpJ0AD0COSem+htzT3l/vPdc2d0tbnjOm0wFwkXl2w60ttBXOc9ThJAfCHP8eB5leRoCBymUdkuMQ1MpQA7hSw+Ey3eB9eCm5VoP+/909QwXXVAdbEu7qV5aKsQnQyAUr4D12jTANqgmAbd2jyO1CUvPSN9UyBSfKutItHrqZr6cvuZqQAkp+W893fTIp4EgACB+A5qs6mkFWCgcVCzuVxQlxZ7xEwEni7mYj/DF5jW9DiGpjog+E/TkZYSb+XrBwu6aE6avNqNAwhyrC+MJqlzXxk0VG+qbVhBvlJLs8pcS/dldU8NPCko3GlAUzc9r7zRNo3qYw+IUr4ji9CUW9wogNAUIn7U5ebqYxgANJInJPkdt5Wgmcc56shjuqo9iQkAt6EpKOPgxWRo6joNw2LT+9oSyzpNwE91TuNqTfXlGwWQcjYMRjqJfBEe3IGDyeJvWlW8R6uE+EVbUA+e5SuZCZnaKUIlnE1eGuNWFzXWIikpg1EANU1l6BrpkQcbB1CamvACeMBB4tAnWrs00gCY6p9Lwu94V1ppAHGb9+IDenWSR4PnzL7GprSm3IOo4lhy55sqE/Y2sYKcs7CaBAw0RHqYL5nsnGaRK9oW8ErByv12Yfcr30seV64Cs0R7uDDGWmCKgkszNfUQ2lcAwWU8DQGPYTXx8Gl2uymTjYYS+Wtq0QYpdE2GOt82k9XGX+qiz6peKDniSaJSFu3F9yPA61z5fQEQD+LFVSBdATtsrrvjcJ6mnQaASsS7KSTPdbWi+LmrjawElPQ0JHmrXQKjroUUiNVY1xH2tQMojRKjMXRmlp8Iw4O37XXiMxoYgJYzbXzeo9mQ7K6lFdskCgoy0a5dpc27bocWd1IgUmNZlxpaK4A8zsCES80StFLWV+53ScpCXhuDlQMF1/VoNvZ/13sOecRYjoT/rSvfUw9p5o3FqBxhXWR7LQDCk/JzVLm5tAVAEXhYJV1yVuIzObsOL9Kq46ef67nrIg2veA2Lq2/7OrSYrgeYVC0JoHLxstEB5C6mtIDiNqwMLzrvol693CINjqXZ+7H2jm+LiF+qmMy1SB9Raz00vo97br5GBRBapq52GWB5hrnrTkiv8fWVoLB9SYh/V0V7u2Rm5H5DG/qI9uCra4fmDUCtDUBe5AUhTk2IYjFonq52GZWcO2FGbqc8srmeU6Z6agX81KGk7xZvEXPFf1QmwgJNc2ujAAjyKrvJT49JoDmUjgAEffYeSav5jgVss1Rr350MAaC8qDcjLwDDgq+rMxoMIIJ1IsUAxU2TB/xK8zKpSB1zHWWL/RBZNNquduIoFZVmKBakHgF927b4Me4aWymBdDfMYACJMGO+PC7DJIsw83+gumsUGA9Cms1D8rLR0aR8NXajvJfvM+trUVIAyQqk8aBBAPJtx6lqU4/jPpwnVc1oOLmjHi0tOX14DqJgn0iuA6CPaZdjov1xHhZIa4YGAUg3QtOAVAAFAXNPrDSZlwuQCSgejvcSkLmbLonMi9I1Q5qIM+5pXEkNGBjz1IrsjfHgda+myv9S0whBlpZBCyk3s462t9soDhZF5/1Ewq7jr8WP1hdYnESnMbbeAPJO5/6C7+D2DYnHyItITWPOpM1ddGyTzj+F/0hz9zlMTiUiqcMjPpuWDA/SQORJ0BQQWWwjq2EoJwGYUqH+JfwwlyDOf0VBPsXHRCsAQtdF5u67b2yAdyqJncb3JtfmV/1tQLwIIAOhAqnSdndzEMpeUnIrjtjngBbv2irwkb4QVWFORuVAYwoP5iWqMl2sCq9SjOM0/699vFG4zHwfACkCzXgz/l7DBXhy3vQkAARfckIub4KAmDLsgCpON/wr3pXM99B3rYV2kfZHA3kAmGvVkfGNAwgz5Tk0t73KCrMi5pZhbzP1IrWMDf9Gg6t2p0+HEvXldocIDdfWKmfjAFJxPJom9dxE3II013up/A7v8QK9Pikjby0DAS/dj783lZXkWfa0IC20z6qkO1e8LLhvv2eEOBK0oYsnvVEAeVs34hcABdXrBWl9Yhm7LHXxN3jKJiLzGwMQbqIT5LSFXGmH0TkKUXjMDBwFTd3UymVnAeQJv7RLO4OCbQ/wTF82BiC8BswTGwjZCYntjQBhACgkABQSEgAKCQCFBIBCAkAhIQGgkABQSAAoJAAUEhIACgkAhQSAQgJAISEBoJAAUEgAKCQAFBIACgkJAIXsp/wHVR+ZRjsjPvQAAAAASUVORK5CYII='
p31
sS'version'
p32
VV6.0\u02e3
p33
sS'uni'
p34
V\U0001f402
p35
sS'desc'
p36
V\U0001f402 
p37
sS'browser'
p38
V\U0001f402
p39
sS'annotations'
p40
(lp41
Vanimal
p42
aVbull
p43
aVnature
p44
aVox
p45
aVtaurus
p46
aVzodiac
p47
asS'wind'
p48
S'data:image/png;base64,iVBORw0KGgoAAAANSUhEUgAAAEgAAABICAYAAABV7bNHAAAAAXNSR0IArs4c6QAAAARnQU1BAACxjwv8YQUAAAURSURBVHhe7ZpPaBxVHMd/b3LzopeqIOpF2oMiUpTs9iAF04JkoeKhByN682AFe9JmF7ztquC1OZiTaD0WhQ0eGrB4SLJFJAiClqKiF1EPFf/css/v981vk8l2svMm3dlswu8DyXvzZrMz832/f+9NxDAMwzAMwzAMwzAMwzAMwzAMwzAMwyjAaTtxeu3GS30n97GfeLk92+p+Gk5MGdECbXQaHzrZ+mC2+cVNHcplvdNoJ7L10fDn1t6dn0u8a4iXGq46q8O78dLDuQ1cZ6noOpMiSqD19vxnbOutlRfCwAg22o1P8K1/1prdizymMK4vbzjnzoUPROK9/w5/s+ZFNuvN7pIOT5xCgegK3skV72Wx3uq+p8O59DrPH+/7mRt4vOuJ67/l/cw7uMKCnr4rgmDiNik+RLsJK13NWpne52l87hSEfVyHw9+Jc0v7FblQIHWNazD/1Vqre4ZjIX6IP48bfhCHf3MMN3cDd3Mu3Bw+650/gfMP89xBg8n9C0/a3I9IUS6mbrPAGIHZo7tdck7uTc8eIrxcwSS/rEdRRAdpxqGycWSaCK4mcgs/jyGWPhEGI0i0LUQD9HJ6dPiAu/+jz3AreEQk0QIdFULycP5ZlCOv69BIygnk5R7t7QC/Rt1yQo+mFi/+N7bMfLCmq/C5s+FEAdECMYUjQDf0MMsDXmaiZuMgQfz8XbsQSygSM3Ah0QKhprmcm7mczOH3m+nB0SNKoPV245IKcXjx8qT2ONtn8TwbejSSQoHoWuL81LtQBKGgTZ9HTnK9F0YLKBSIy4VpqYjvCic/senLzKuwpm9iF8PFLlZiLRVK+ikFgfkPtqiMj2UDdhHFFiTS0W4uoUJlqveygC+bWldMvLCSLk3UUiPdsnBPQw7u5Zx03n2Fxena8IqaIKDfnrZ1Gi273uqGzTnuV2EyH41dk0WvxWJBGX8N3zpdGe/OnYhm7HqsOAaVJGx7VAzc+nNdfMahATrgtr7mlkw1S40I6s1uC2X9r3o4Xrz0+s6f4aITa6oX85JC3rURRze1m2YxADd7JQwUMHaBUtzH2hkLfGjuaMJNaqcWV1Y5xtjHpDAsEuLjDznW9ZC2jCnHtDPL2Br6I6hEoGBFZVxgNMuJ9Ofytnv5JoQi6WEA1vKMT+RiVjhYy3Pa3QXEPK7dPanIgvjFrpPnAtHAnVg61Jrd10YVdfq6aHufajuDOmmGlsBaGJz16D9to6hMIL3xkZv8eQR3Qu1Fd4p9V0YRs7GHlsH9ZwZzHULs8efZQvRSSaQygQjdYmBFbPeyKLojHwbnF+vNlUfoonoqGsYe7eKhtkKcSt+s6DVRv7Gh6GWSSKUCEQTF7zPtjkXBhTDzjj+sSZiZil4rjURTOQUZuGTa+uvs715PunAd3NPBxaBtnHyrvWBR2q2MwYQMGKy7stYb3E/kAn7+1aE9qV6gYfh6uQLgoveHVrdWhxkWjiLFuHL1Ag02qgaWlLGocZHWM+40+7CYn8PgAL3+XsIVUalA4cZ3/lEhTa/Znb0xkfTd24P0ns1S2evfIVwklQrEf1rQbrhx3c1LBRuTJel3MkCzFlrOlgbD19duKeCa1cAb7/vkKheGsJoe65qw1SBpARdSeoVBm4tRXOsy+0zrLB/CiZJUJlAe6535Xwbpluk9DFaECvQU+5iMH/c7GRMTKGs9mNLt/ZlpZ2Jp3jv/pdYeF/qJf1+HDcMwDMMwDMM4goj8Dww8HraHMX8BAAAAAElFTkSuQmCC'
p49
sS'andr'
p50
S'data:image/png;base64,iVBORw0KGgoAAAANSUhEUgAAAEgAAABECAMAAAAV8YMOAAAABGdBTUEAALGPC/xhBQAAAAFzUkdCAK7OHOkAAAMAUExURUxpcYVcUoZcUoVcUoVcUoVcUn1YTpBnSYVcUoFZVIVcUoVcUoVcUoVcUoVcUoVcUoVcUoVcUoVcUoVcUoVcUoVcUnpWTYVcUoVcUoVcUoVcUoVcUoVcUoVcUoVcUoVcUoVcUoVcUoVcUvzCG4VcUoVcUoVcUoVcUoRbUoNbUYVcUoVcUoVcUoVcUoVcUoVcUoVcUoVcUoVcUoVcUoVcUoVcUoVcUoVcUoVcUoVcUoVcUvzCG/zCG/zCG/zCG4VcUvzCG/zCG4VcUoVcUoVcUoVcUoVcUoVcUoVcUoVcUoVcUoVcUoVcUoVcUoVcUoxiToVcUoVcUoVcUvzCG/nAHIVcUvzCG/zCG/3DGvzCG/zCG4VcUoVcUoVcUoVcUoVcUoVcUoVcUvzCGy8vLy8vL4ZcUvvBG/zCG/zCG4VcUoVcUoVcUoVcUi8vL/zCG/zCG/zCG/zCG4VcUv3DGv3DGvzCG/zCG/zCGy4uLvzCG/zCG/zCG4VcUoVcUoVcUvzCG4VcUoVcUoVcUvzCGy8vLy8vL4VcUoVcUi8vL/zCG8iVMy8vL4VcUoVcUoVcUvzCG/vCG/zCG++3IbGCPceVM4hfUfzCG7aGPPzCG/zCGy8vLy8vL8qXMvK6Hzo0M3pXTvzCG/zCG2VMRTw2NPzCG/zCGy8vL1ZEP/zCG4VcUi8vL/7GGS8vLy8vL/zCG/zCG/zCGy4vL/zCGy8vLy8vL/zCG/zCG/zCGy8vL1hEQC8vL4FaUFFBPYVcUi8vL0E4NnBRSYVcUv3CG4ZcUi8vL4RbUv3DGoZdUjk0M3pWTTUyMYFaUHtXTjQyMYJaUYRcUnBRSYNbUX5YT1xHQlRCPi0uLnRTSzczMmdMRkc7ODAwL3JSSqR2Q/7DGrCAPu21Il9HQk4/O3dVTEs+Om5PSIBZUFBAPIZdU0I5NmFJQ/G5IPa9Hqp7QZtuSPW8Hq1+P5NoTPm/HNCcL4leUGJKRFhEP3hVTdumKuWvJvi+Hah6Quu0I55yRj43NTs1NKt8QJerOrMAAADBdFJOUwD5+AkOHQIB/gbHF/v62uW78fYMzyID/MDvzVUa3QRYfWxABNLiRexpNjLEreggPDATC9YReXB3JSPp8B7Y/LP+64df87lKyhJDlbYm357+XSlb9GRkFDknWg9SgkexTJtzuhAVok/ABqOPqafBiTJWQntxmtwuA9HS4MnXO6j2jCzyQwgOEDpxbJKaOXSqvICv/nafzUX7F8Z1vGH0NOtdGm3udRAk++MVLQdHxI6iwlif39c/nmclYo3bHz3L526ro3atAAAFUElEQVRYw6WXd1wTVxzAD5MQQhghIiOAQCCMBNACyhJ6QgBZAgIKMt11VnHUOmr33ntv29K9N21fryEJIew9BAUErKJ1dfPp3cWkyd3Lkfvw+yPJ53fv973feu/9giBGKTu8Owihy/HSmxB2cmPy8q/oNqv3ffQeSxCyCz10gKrj7035Mogdhr/nZhR9lapd+zH6KTvQs2++g6JoMVVduh899AWrBK1PwTlFT1P1y3A3Dx+wnbN6PUrIY2upD4I+xNVbltkMuuMYwUkpw38Koir9cQkpFAqIJ2uW4w922Zym3SmkR4/sLX5iU97tYlzcEp968tHNrx0vS8L1yVCXNmzceNeGOy11e4pIUMPjz+SDa6I6N4wWJT9HOIQmrYFU+f2dnx18Yee99pY52kJyhv8CLSbQid9Qo8BA737+CyEPeFiqNxNv/vWECgAYaD8ktE9ITv/zFPUN9yWhDRcvATPQ2T+NnJ/3QXbJNzNdOOiDt2h1Lk6eHlSZgy78MWTgNLz0ooCeooqxHw/+8O3XkCKU3p8PzKXl/JmhBlyGhs/L4hbSlle6fvfT9/AeCHOwAAH12d/PTE//ffEfAK6fT1vtkaEIjai3h3AWZgOKtOSfGxy8cEkFxEthLxYGusgCOXQ9pwrQRIUL/uUpWcqDoeTpygo6iesFrIuzpFZOzzgSJVKm8anKWHdzS6xZR2G5RgRKowSUpEi9M4VUUJ2LuVn3yc5mml/eMaKaOB+pPMoUzwpHcT0TSDcy06W5isHDVLrG3CI3gewyGELDTmm6umaaMOs5iyngkkYhoaGLmZLdfKWxZ0TFkHwgrirnXSeslIAqLg2kMFuna21tBswiDvbKdANHjtJKmSuzaGsyLqypmxGmzDlKqz7/IWf6wrbODgaMLLV6Bb23FrhDll7WjDFkPDID0u0eAZ70lb09nW1MkWVCNo5QQl2FtV3u6WNqAXwP1tJ3f0IowCyMsPEr+lEtxly5mAQ6KLFFqzWc/CQQaz/df7J9Fg5wCqQVrc6xeXRmgDDUaZvwxIzbwgEgIpoKsg/w7NV0YPjuGNXMdGPq3v5Z8mMQF3q6eSLV1Xa8EXsb9X1ata6vccwGDnDLotctfsc84tH4wAAe0lQ/c+H/TxKklbglCjHA1BMToKlDP6m1xSEAsj2gx/nrb49MTXWc/rd/csA2DlDUQW+kl9/o0ev1mskOG/3BD81FUFD4K92tra2ndMBWDnC4FRqbdJ5aPaG2mUI2QDwMtEgJ2IpTGAy02JU1CKyEXdu8YPagnGjY/b+DPcgrFhbbKjubjD0dHU0LJb7QllTMVm4x8Zkorwsz3qfu0PkC8XFjqpD7Np9aMpy78VEkxzBP5eVCQZxsB+vebOXxkWriRwXRhb6GOchNDp/bbnOxPtuk4ecW4VHiPYZmIZfaZcFBHqlWXbJLQ+xXEddojmES5JNLnXys/J2QelutVRgiJBpNWWC+EayCeGR3i72CxddcczZVOg7h1niL85YYWzBBxgTylRmKysuK25ouElVtKyg33nlL8NMvvDLXNCsn+BGvlDKCNhE7iD+fyyUmx3JDTzhQh9sHCb3LAiugwkjCyMKGKzJVzXIf4Ne8XcBCK6DwUMKm2kJX4gz1KL4qWLGOizCBIsMt72E/Y44o7SuMtv5vsp4o/xHLwAURcBCT2Nc6EZeDpcP8dSQolc8CVEj2fQ3FJISs20oBC5A/kdfIEOqwQuJFXBaghIeDJdszqCXlZJJDYzybJHGjfOkRCBzJXVuCzFUMILCdM2eQobfdfecK4oeRh0t67Jxj4/hH+Mm8Qqw30n8WwyQscBlnEgAAAABJRU5ErkJggg=='
p51
sb.