ccopy_reg
_reconstructor
p0
(cemoji
Emoji
p1
c__builtin__
object
p2
Ntp3
Rp4
(dp5
S'emojipedia_url'
p6
Vhttp://emojipedia.org/pig-face/
p7
sS'index'
p8
V244
p9
sS'code'
p10
VU+1F437
p11
sS'apple'
p12
S'data:image/png;base64,iVBORw0KGgoAAAANSUhEUgAAAEAAAABACAMAAACdt4HsAAAC/VBMVEUAAADHcX+fTl3Jd4aCPUt/OEKWRlKbUV+GPkikXGaEO0iHQEt4NkOuXW50NELGd4TSjJx0NEN6OESBO0mPQU6hTVikUGDJfo7Mg5KNPUnJdYWnVGLJeYfKeoqxXnB/PEerWWmiUV5+NkS4XmyDOkjLhJaRQE7Fe4/NiZnQh5WlUGCkTlm5aH26bH57OUV+OUXVkZ7prbi7coLnsr7lr7vkpbDRfpDAeIjlqrXhrLjJg5KzZnbblaPRjZzqsrzDgZABAQCwZnTepbL2obO6Z3i+dIW6bn/Gd4nBcYEKDQ3mkqTRhpXbnqvemqa6eIa0bHvgnqvXm6nNiprqxMr2qrr+5efpu8PGh5X+y9T+0dn+3eH+s8LPlqLFfY3tyc7009jqtcD729/+4+X5pLb7rr7/2t/7scD9tsSfVGHsvsfzx87fqLTWi5r+1dv7q7z0zdPuxMvYhJfUf5P68fL41tqmWWfpobD/4OTssbq/fYv8u8iHQU/ij6EbGxv6tsPXpa/stL782d3lrLj4wMrdoa6xYHHxna++bX3xprbcsLh8PkvsmKrw0NbGc4TxucOuYXCLRFLIjpq7a3zqlajciJrvy9GSSFbjoqzMkZ31tcKWTVrLfYq4aXv/vMr44OTUnqnVoqzNiJeoX23bmqegVmPSk6PWlqTNp67x5ei3cYDNfI31r73kl6brnK371tv/6Oo5OTnbq7TqprMwLy/9ztb+yNL/5+jywMjx2Nz+8/XRm6bhtr7wsr7km6r+ws32usXaprDhsrr5xc64Y276zdS5iJLdipysXWzbj57vq7nMeIvPg46sWGOhTFXnv8X03uH//f7/6+v4ydH3vsnhl6K1gYz7qLnYhpL50dd0NkR0XmKIanCYZW5XUFHClp50dHQvJScSEBCgbXeodH6tkpY/NDZtWl5OSUrRsrfx4eS1oqWNRVL/6+r94OLmt7/+6uvkusDgnaf15OeGUFo6LzHaub6BgYHk5OQpIiOdeH5fX1/j0NTfy86ThojIs7awlzqLAAAAMHRSTlMAWxBQ52ru/hgII/d821Qe80Sp29aQdaHLVjilrODtysY6XVql56M+5trk1m7NurqQwwi7AAAIQUlEQVR4Xu2WY3Rd+RqH0+hkkrQzbafG0Lj32LYV27Zt27Zd2rZtG2Nz3XfvpM0kTaf3frsf+nza63/O79m/983J2tvg/5xXvOK1d+Yuens68Paiue+89j8EDRcaTZs27b050zXqBI4dwKHgGdPnvAeHRgsNX3pbo8VLyOfPN1Vq1Hb1zm3taUD7JucKDp4hbDp/nrxksdE/ljGaH8w8M3ymaSChYlP7yoLNm78BNu8s2NHmbCdqboKPmMHzjV4Yf30eVlVHWvVtgrpiU1rB5mPHrFyBcCurY9/sXNnubDdA+XYVqU6Fnff61PmFn3SRqDicisJxhjika4rdEMJqXMMDQNFWnyBS4XBUUtcnC6es/4aSiouP71LbbVq585gVpKOjPYCM6GhwhAd8RUtz5uBV8fE4qvINo6ny2ZlsNltLgfzmY641bpD+EsXDIzr6QlgglNjhzBFp4UuZ2c8bPkLy6WxSAgfNh7lFQ9wTBRQZqMEWDAkUEnwNDB9N2t/HykxCOhtHT3BO2zmah7jNunXL19mAwjFjGRhgivZ6NR3HTidkKj+esMnX5utoBPf0eKy6or3ANjzsAppftxzFxsbzSw8wnAJDUJvdADY+3Z1A083/+w9iXm8Qwd2dTaLAAF9ZBU7IIx3iHD2WXdhzar0tEYYQkdju7oSg3nnj+WmsbCLBnY3Tq+vTdiIFloHABrJPTj55AgbP8Qq0tgp8B47tTiBms6Y9W8AHMACBjasTIQUCAi8sy3AEAZI/eRIVoFtweFoBX4djE2CID56uYXEPn0gg4KgsfEU7FDiFCOJGBQAyAwh8QkCQVUpAtsCi4ggEIr9n8dgAeiWNSCBS6ygJzjtGBT6OnqMjALBFz6eCXevdaWn1akodFQI0pR4dwnBJD59GJFJJTLwdOsEeRBAHhvElejr6ZIQ4rAFBKZHvzBEzSVQikcbvWWIIgs/tdEE0GpWkVQxUtNHc1wfucQjxsUEE657loYCPDyLIKmUH6ezEijoSlUaDq89B8IUeBJBXucDfgGi7fteeNY7RP7otR35ICJ5oPi6sYI/DWkRAVdbjJSotiQoC/RcgEOt1fD5fqzoghRUQS0EQ8uMP3BsPwACgccg/uMH9oWANCNIzs+sp0gMqLYR0ejEImuk9OmUXM/gwnrMpiFiatcv+wl3Z9ZRf3OIc4T8J0kj9sF9SrsvunlqbtT0dx+/hiA8HM7uUuh56MwiWiugsLFZxWCqGZbBLT+9yuMb97efr3Ds2PigZGSEhcXe413/+jXvNPmv7Fhy/l14pPazAYll00VIQLMrJkzQ1leTtxut1VFRwWXb/p6uyS3Ehozg4OPhckl396b7sMgga4oN0HeLdeSVNTZK8nEUgMPvsyG7gSLeIpcxMLz2d5XApZfWK1SlXfdY8xT7kKnp0yT4RBFSlXuo/mvnMzAAxzDE9evSoBUaCzc7csv10lv3llBUrVqTcC7EH1qI43EOPLq9NTG3YQs1mSTAWEDGdA3kU8wUmJguWuvTycVsaEhPX7r0JDWS/rtn2DPtfZXB08+w2RIDLxrosRRLmBn9nrpDeSwJBamJLww1ZiiwFty3xGS2ZcCC70ZCYmtowhCP10oVzn3sefSru6CIdHEpN9fPbVpHChbv5jePUcvYmN6Wixc8PBAdJXR2Vn05+Ri04ImUpVx0cakAMLavOalt8fb29Q62B0FBvb28/7dnYFicnX9+hoYOrlCzpkQWTBB/up7C0IPD19XXy9Xbycwr1EozIk6sjIqqT5SMCr1A48vZFAIGWRdn/4aRn4ptlLtgxAdwv9JygqLpEyOBpBgY0PIawpLpIcA5pArUQAdal7M2Jz0gz05xRAZJG4hFC3t4Hv/dHAf2/P9jLE0aMKbytUUGOqdkEgbkpDxHkW4eieXkJr6//xIkTGzdGRW3cCBf9fbwSORgA63xEwDM1nyRARojNh5VBvkqqfngCkl9/h/I1eE48VEurvMBgbZ0fi4wAgokjwBJVsVDh3DmvXLKmP+ph66M//2g9DrT+8eej1odR/RpyLhigQGwXLBFGmLjEGHwHcytU8PLyqhL2RW1o/YvLvd+6AWi9z+X+1bohqk8IFc5Bga3MDnwMLHEC72M0HCxSwctLIM/pO17s8YjLXe1WDLit5nIfeRQf78uRgz0/P1aF5Wj83zeYyLu1ZRSkQq5AIJALbxe71ljdu3un2BUovnP3nlWNa/FtoVzgJUAK6Cllte9OEpgZd2s4LObWkVxBbtWhxr014VZhYYFWKIFhYVbhNXsbD1XBhyNbmSyOptsYVjARy9pOPB3LHB7Jza2KYCTdKggPD7AdIyA8vOBWEiOiKBfJY+n4zlrL59/uZmN4Inowc7iqqCqZzEsqvHKtwDYAxbbg2pXCJB45uaioaJjJoqt5mNlTvO/NtPBHDAeS5XL5vsHK7sKLhd9fuXX79q0r38Nlt5i8T141fOZAMF3E87eYaTAFJkn+PLyLAhTJydWRkuZOTHlh4cWLhYXlmM5mSWQ1HB8IVrjgef5JJhCY0oDpFFPoiuB9+/ZVR5APleQ1M4DmvJJD5IhqOAxW0CmaMowF5KdmhnFjDE8saSIrIoDISPIgCjkyAkGhGJTgGTGNxjMMXoj5vx9jOhlikaRpMBKFDIxdDUpEYkYn5vG/zP/xXdnEuBYTU8aolJZIDo0jKZFKKxllMZhaY5OXvbibWc4ub/SP2Z/DEAorK/OAyspmISNnf4x/4+PZlmYGL8dwxizj8tpGjH93zBjd/pjG2nLjWTMMDf5LzGZaznrL2CIpqRxISrIwfmuW5cwX3fwV/wFzA1lSoCttQwAAAABJRU5ErkJggg=='
p13
sS'twit'
p14
S'data:image/png;base64,iVBORw0KGgoAAAANSUhEUgAAAEgAAABICAMAAABiM0N1AAAAjVBMVEUAAAD0q7r0q7r0q7r0q7r0q7r0q7r0q7r0q7r0q7r0q7r0q7r0q7r0q7r0q7r0q7r0q7r0q7rqWW7tboHrXnPrY3jueIvynKzyl6fzprXwjJ7vgpTufY9CP0QpLzPsaHzxkaLtc4ZmIRO1hJCoPUGHLyqYNjXiVmhuJRnwh5l/LCTRT113KB7zobHaUmMZzgK7AAAAEXRSTlMAcL+AUBAAIK9gn0DP79+PMAcP08EAAALPSURBVHhe3djZlqIwEIDhEKDYFKiw427vy8z7P96EMDndplQi9s3MfxnhI4AalP3XOZy7ng8z8z2XcweAQYCqMJph+VGIqkBCDurixAASN+T6RR665OUYdY6EFvgVj8jBdGTaEcevFsB8PImPhw3iJZ5tGQeKSTie5LOEHNWHIMQrhQH4ZIOEuRJoRVXvvx0UJ/o23X1diVYSLhv2WgtZterwxrpVJWTrwWZcQjuhKjVly5RCtZMEZ6mEhK7c2zv7UugkkbKBFrqis4e6QuiGvQao1U6NN1VrqNUQcWwlAhHHXqLQrrsd6nYUKoljJZUEanBWjQmtcGYrDXEFFTi7QkGcZWp6zVxG750xTwL6xOaenCQ8Bili1d0DdRViCgwixF/3OGr3SEIQ4t2FMEB+eq+T+iO0vBdajlCEdxcpiN8P8XHJ1j1sttvNwwRAtqVL9sNWZSHRbR0JhRrajNBmmqHbhhJC3fZvFg7dFlj+M1DOnAvTbfpVUYiTimLVNxcug8OycxewrUtxobJuz92YjHF6S5tCXK1oyO1XS7ZZX4qJyh7NUkacVljUEolClQ1UTUO9sKqfhA520GESKu2gchLSwMvj09PjiwboiDX0fJQ9a4SM2EOvA/SqETJCocUF6KhSAh2h0IKFPwOFzD3/fvxtQOZIZUAu+QlxsJvRgfyEAGNVe7OD3oyVDRjExkIuxt4H510jZMR4XIglZJ7bboQ+Po/Hz4+RoCM788zIAmn5qe3pAglkStXt3yKJgiC8+ZutJU81EqKPI/WUU9OHEQVBviTP89fadadODhqCCIlk7WAEXxB4ZE7W8/FAQ6p8gSetLzlrPGmRwykEfmbcu+IcUxj3K/PBgGQ5NyiyDhwMhgcABFJUbFz0/booR6Ms1nvjIsc5AIHoPyI0+i+JCRmWl/HrCM88pVCIFiSuy7lxJxecu24SEINAlv0r0B8iOT7p2C5ZJQAAAABJRU5ErkJggg=='
p15
sS'gmail'
p16
S'data:image/png;base64,R0lGODlhDwAOALMPAP6YmM5lPLRKJqA5D/VoZ/ysrZReXlcnJ/dzQd53YudZVP/O0M1OTuGMjPyBfwAAACH5BAEAAA8ALAAAAAAPAA4AAARl8Mkha6VVJGFlSNgTIEE3jJyHIIPgtmsqIk4D3EATV0nh48CUoLBYFIA4xWCQMBpst4LBACC4GoXGweZwAKZVVwLgczAUZ2/4IcARDoLDwEtQem4OhZ7QtWfGAF0OViEWLS4ChREAOw=='
p17
sS'related_to'
p18
(lp19
V\U0001f43d Pig Nose
p20
aV\U0001f416 Pig
p21
asS'name'
p22
Vpig face
p23
sS'known_as'
p24
(lp25
V\U0001f437 Pig Head Emoji
p26
asS'default'
p27
Vemoji
p28
sS'bw'
p29
S'data:image/png;base64,iVBORw0KGgoAAAANSUhEUgAAAJAAAACQCAYAAADnRuK4AAAPxklEQVR42u2dL9ROXRPGnyAIgiAIgiAIgiAIgiAIgiAIgiAIgiAI1hIEQRAEQRAEQRAEQRAEQRAEQRAEQRAEQTjf+t3r3d86a9bsP+ecPfvs+35m1jrr+x7vc9/P+XPtmWuumT1nb3BzW2B7fgvcHEBuDiA3B5CbA8jNzQHk5gBycwC5OYDc3BxAbg4gNweQmwPIzc0B5OYAcnMAuTmA3Ny6B9Dv37+Hu3fvDidOnBjOnj07XLhwYbh27dpw/fr1zb8/fPhw+Pr169be/F+/fg1Pnz4d7t27N9y8eXNzXZcuXRrOnTu3uWZ+/vbtmwNoqv38+XN48ODBcPjw4WFvby97HDt2bLhz587w6dOn4d+/f13f8B8/fgyPHz8ezpw5Mxw4cCB7bfwOQPry5YsDqAQ4AOHQoUNFwNGOI0eODPfv3994rzn258+f4fv37+qBx5hrL1++3HiVudfFgXdikTiAFPv8+fPm4ae8zOnTp4fjx48Xe6U3b95E/x6eiofx4sWLTTjk4fCAc16Bczx//vxw69at4cmTJ8P79++TYP348eMmJJWcMx4Xz8R5pBYRYc8BNLJ3796p4Yp/Y+VK+/v37/D8+fMNoHIPhQcdwhoPG+8EAErDY+lx6tSpDY8BkOHvPXv2bDh48GAW6JwT3ldbVLFr5DMOoP/Ao602PAJ8IWcfPnzYPLjUioWAA5qagEkdeMnLly8neQ3/ncWR42z8d8K65hkh3/saQKxWbYWycudwF8jpUp5heRw9enTjOeBTtbz0jRs3Vk0cVgMQ/EFbVXPAIw1OU/JAT548ufFMPIRHjx5tAA0v4gHj/cKDIbzwb0gGr1+/3pwjXuHixYvF2RS/t4SEB2+r8cSrV69uwvq+ARD6jebWeYClBp+BB8V0IGSA1MPk87UMrYaHGPt7aFd4SM1rcg1j3pQz0nktkUAjWwNEzQFEZqSt2CngARzhOwhZKbc/5j4QUniH1Y0GlOO/x7kBkBg4rly58v/f5XMakdaMRaOBCC640wAiq9DieGlGwYplNcvPb6tJEPBzqWBIONMWYusUv9ndZ3WRssoLZhWWuG+8iUaQIabbapo+RFJBiNdCnjSSBo0KoD3tFIAIGVoajXaSU4xjXocDEruUmK5pIUWP6Up47JyNw+BYPyv57NYASCO06DY5d/327Vs11rPKyJp6r3uV2qtXr1Qdq+Q6WZwkBfKzeLedARCrSV4gNy1meCUKiDGRrqWLbmXIBDGxE7khVQPjsxq3bOGFzAEEd5EXxqqa6nU4AFUJN9hmi2lYeCM8eez6uW/yM7dv395+AMkbAjg0l8wK0+L5+Kip3fTsiXLiJ2Kmxh3l/UtJHFsDIJlpQHyDEYogkaUV9v0AIIBRci/gTAAGXSt4JS0rs04yzAGEQlqrlrTN3YeTHkql+0XYs1anzQEUS1NzdSONRM8pQm6jSYEQck13QknNTUoBO0GiSy4cAQ29B4UVo2Apf2fXCXQwKbhSZwv8CJGxNOTDP3cijaf+FdM58DbEbkkKpXbE5/eLyXRe8yQQabxSrDEO8LTQyZqVMqhYU1hkBfG/iIipC5TVbVbdfjF57YAkZZSJABTyCPe3ZbLRbSVSZm+Q8f1iAEF6lLX6fbYWQLJxCn60X4zWFgmg3nZjdA0gugF7bSJvYehjFp2a+wZAmiy/i/WvmMENpQdG1nAAzdSOSGt3pfJearKFpUVZYmcAxDactVs11za6FbZBB+sOQHgaqRmldpjuqgEWueWpx1pgdwCiOCgFxJIUFuCherPZjk17iHGk/ngvthCVbFKsaSjqiKFoOpwLBzyGFL104gZCYe88qDsAyfBFxbnkYeXk/dBr3CKDLNlyTa9OjtfRIC+vobcW3q4AhNYxdbsPXie3/1zulbcEz5SdsXiUFIj4PllHxKs5gCLGqpyy4ght2k6P3JFqp11iuYY47cgtEKnIswulJ1W6GwBBGmVhMBfzx3yJlc/PCG65yRuEydo2Fv/QcDgPzocHvuRcJCfkQCdzAAnTuulyWcd4xY/5Tawhf3zMHUBVol2NZQcU9Ny5pLystrDGXZ0OoP+MXt+pzVBjvhF6ZgCGts3FurY0zpgIOzx4Qg0Pe2mrLrxNfqaXkXddAIgsak7tR5JnVmrp4ChtcFXNBcC5pSauTTkX0n5JpvF4DqAI+QQEJURxSb8wPUk1rbRLcO65SHkDcPZAplcHEI3y0pOUptql6Tt/g012hIowOczaA6WyLs6HcwmhqeRctBYPBNJ9DyCptgKK0jEnJZqLzOQCwbbkQLEDNXqs+4TGsZISBZ+TIMVTr10fWxVAeAUZ26fspowNXQh6idzay0MIk1hrZ2GUUFLgIc2XoiGlFs6lVF3WCqypXb47DyCZoVD3miLV0wecGnQpDa5h1R4LWFMA0kI34Jl6LtILIaSuyYVWAxBuW97kqZmF5tZjACLtDVlRTogjK0S/GR/oVLlwkZoEOzYWSRg4MVUV15rt1ixvrAYgqdXwcOcUCgkN2pYhVibpL16KsBh+JwVSQI2GE9vHxncAphiQYkO0wqbI0C0QgMxwzxqem+9biwutAiAtli9ZRYSD3DR4brI2r5CfAVlJBX1M9Nl3pZF9FkFq4Gb4/JL5RlrReS1dqDmAuMFylfJwa5BaeAipLR6HbIsVTomDhjTJE8K0+yVzpQECHkUDEpV0vh+gcS4ceC8WT41r1bK+NXZuNAeQtjrhFy2NUJIT/ggT/B7ebRwCY0ACHC37tgmJ8pygBa0JdVMAwTEkvyB0tLrxeD88QYzjQMjxYBoX4xwhsKnaFg+wZY1KK9S2fv1BMwDhtmXo4kG2GgaZa63gxpeuXjhTqs4FH2nhCbQslHvaMpQ1A5AmtM3NQqa6+lR6DajnNKvDe1LfC7cKk0asw3GLfqdVAcRqlCuWn0tLFnNXJwQ6xV2Wjgnmb8guSnlQe7Oea6TxyhbgbQagoABbVsOlNpTqCQJUtIvU4l5wo1RI4+9ZFj5ZiLKw3GqWwCpjfi13muJ1UgOtrIguDzHXPIanqF2DCya7MLkHLSa6mQNIK1lYZAoAMiXgcUOnEOW5luvJZjFZAFhrytuJCWUQZdmCUHuTHystFbJQqVum13gjQkjME3IPLHbbSjW9xUwBUwBpUyZqr4rYS9jG5Yu1qtV435TSXbsVQ+Oa1lNNTAHEKrMc1UsBMVa8JJy13s4cW0SpnRk197tzP2TWaV0jMwWQJJWIXjUt1gU4flOzxlHkTZ5TyJWqOv8f7xrzdtTAtBZcxM2alXT5sl/rMGYGIHiA5AA1x7RoPcIpMOSq5KjLpYZni3k+FknMy6IQa2p4zaRCG49sGcbMACQHA9Qe06K1X8Q4BSs81/Q+ZQqsTAymvK+LHiXpifi5VrjVFq5lGDMDEN5G3qRaZFZrZYWsxr6/pOF9ygQweW2xnuyY0q5N769Z1pGvl7B8d5gZgGSdqOZFaKEo5t1KX7VQMkYmFSa0Ay+pgRoxUfIwMsZaXAXVu9U7M8wAJGN9zZ4f2ctDeNJuPv+WG24wJ7zCp0r3pMX6r7XtyqWDp3KmNfhb6WAmANJeWVQrXdW+O1Zn0tTZWHmjhhfUjth4Yh6o5Cq13rgM57Peym0KIK1nt9YK0HYlxNxz7O1/S95ZH0yb5awdqW07skZYM0uV4LSazmYCIK3+Vauwp6mtpWQyxlPmcg+puUzN7uT51ZyBKGUGq0HtzQBUi8RJAHGjSom81su8xDMSTnNN+SkAyQp6TQBJnrj1AKplEkCAIOZBch5oTujSdJ1U9T0FIMsprA6gCRpQLDzG1Ora4hoZXCwrS4FCjmypOQDUAZRIoSVBpC+4lKjCeSwGdlO+kOEs1dRFSJdaUA2P6AAqMPmgWMmxMAbHIexx4L0sC4ukz/RII0qSUaX2vWvvBKu5Q8UBlDBtrIuVzmFh1L0kb6qpRDuAZmhBhINUKOvFqI9p3ZO1C54OoIxpBVI4x5S2jDU8j5b215oNsNMAqn2DtNmKvUztinnNWLpfq4QxNtnmu1UAgri2eL1Aaqxcq9delxgAiTXYpxKAuabVC60GWJhV4+UNs9piwsOJeSKq9GvyIlL41F4xCrIWg6G0XnSr/fJmAJJEkbKClREyUy9dIa1usclurPGwYGLbqllcFDetPCRtvdYUwhxAsu2Tm1ar3yWW3aSmjOGlABJ6kMV54EkI06jJqR4kzsPyDYyAVxLoktdGdAcg7S0zVK8tjVVWUoEP4Q0OBbnFO8058Hx4ErxrySsWeLDW+7S0XnTLmUGm23pkGMMLtdirRYNZairHGgce2XoQJt8vvc+Uwe3dAUgrZraaGoGHQCtKDVpocRBWW73fS9vAaP3Ga/O98dr01JYTtCi+EmaWDNOcehDOeHCtpq+F65RhFC9sRZ6bAUgrO7Scizg2+AcPlr8/51WZqRHCcCo8Htxvjb342qCrKa+N6BZAmPYGwRoDl/BkodLOg0PAnAJMOAOgIisK31N6kHFBoqdyOjzC+O/VyMjwdFILw+O2GD7eBEBciEaol0r4WljiRpKJocNQF1tzwAJgYWcIpRUyUNJpjZMtBY/0ptwD62yvKYACqdUyI7zT3JWiCWYx4Q6wkW5D4klr2RwY5kDPTePxeHghvB+lAjQgtCaAghZUQuCXSBssQE0+sBwfuBqAMB6adlOX6CM8vPDapJ7S9twByCD3c/gShDm2XTu8O3YnARRS+1jtCoI7N2tA68AL4GVKd42uARpC65LsDK8TG6iF1rTTk+rH2VBM7scbLS2AQqT5GzRpUe1eC1BcIyGaRbO0fBJ0rVRtbQ1b7XVPkFvZ8C6HMRDyaukYeChAhawAR4DYwll4wIRAPNeUg88QLvgOBDyySoBPZsjDruEJWAjhPa8xZZ1/t6ytdQugcINyw8BZXRBfMqoe3lLcykND9FNaFfcF8K89xq+L136n3LMMCax4VtzaL5utbfAiFlPJe8sI860m0W8FgILhZUrfv84KRFtCbYVjkFJby/a1DD6EEAlgaDgrqeSHEgmht6fFs9fbzSWswSXIyEpn+0gFFteORhRaNdZqbQ1CIpyLDAneNPWaAA1cC7miR6+71/tqDe8ZnfJKSi30BRExvD3Q8sCrUBubq02Ns7feQ/XesEVGJkWY4+bmhmZu04GXwTuRyZHF9bIZYOcAJI0yBOIhLr63BrLcgUyBToWH3ebscqsBJLkTqxdyCtGEcxC21gYW4QgxE7KPioyus+QdZQ6glTwVKz14K1Z/aeZTmhGi2QBYyH8AimUrqQPIzQHk5uYAcnMAuTmA3BxAbg4gNzcHkJsDyM0B5OYAcnNzALk5gNwcQG4OIDc3B5CbA8jNAeTmAHJzcwC5OYDcHEBuDiA3B5CbmwPIrbn9D5MS420tUblYAAAAAElFTkSuQmCC'
p30
sS'version'
p31
VV6.0\u02b2
p32
sS'uni'
p33
V\U0001f437
p34
sS'desc'
p35
V\U0001f437 A pig\u2019s head. 
p36
sS'browser'
p37
V\U0001f437
p38
sS'annotations'
p39
(lp40
Vanimal
p41
aVface
p42
aVnature
p43
aVpig
p44
asS'wind'
p45
S'data:image/png;base64,iVBORw0KGgoAAAANSUhEUgAAAEgAAABICAYAAABV7bNHAAAAAXNSR0IArs4c6QAAAARnQU1BAACxjwv8YQUAAAaVSURBVHhe7ZpNiFxFEIC7em4i7sGfk6IEUaMXQVH0YAyKf+guEiGiBMWfbDwluqfoQaOCJ2OCB7MbBTUoKorsGhOViOhBURAiolERQcjFn4Dj2XllVb16kzdv+s3rfq9nTaQ/2O3qnpl+3TXV1VXdYxKJRCKRSCQSiUQikUgk/l+AlqtK9tD+tSYbPEDiWkBzlgG4LH+lAuLXCOZ3ko4Y23vRvnDrkfyF1aOzgrIt791oMrxEKha+s3tu+1BkB6qYZ8HA1VSdyVv9QYMHDdjdE59RHg/iMbt37hWRW9JKQTLRwWA7AMxStTrRPk3kc4NwyC7N7tQ2k21e3kPvv5PEYMVU6CPiG3ZpbovWTfbg8j3Gmo01is/H06DYOoIVxIMBC7tJbJ4oLRF6wn40sJ4edI22xiG87z5muDXUosIVtHnlBwBzoVZPKsiSjtrFuXO06oXV0puTVTkMLcGzxUcFEKwgMe2TFLGgQD8UrCBa86+r2AgPCNEswOIs8J82d6boj/umvx+1uRmE51TyptWgff0QT6DYydi0aUYfyAsdIWd7b+FsddN4WV6YQBv/w4QvMQG/UqEWGVBpmzdZdrdK3aEtXSUjivJZ9mi+VCmIVgoi6/lFxUm8pWVuPXnMFAVytjeTFT+iVVo55lMVJ/GnlkG0UhAi/K1iHX1ODVTmDzxK/7sGiFU2a2lo6SywxWq1BvhJhSBaWhCepqITinRXirwJ55efiB4kEuwDKTp/Vav0IPO+SjXgBSoE0dKCzBoVXfRNr/cMC5KSGNgmrVOAlu0mSTOYXo+j+77Ibs7QMoiWThquUGEMyZPUemAw2EdF7KU1CsB2LviZtMxekjYXYK5UKYhgBcm2WrPFc0xSJJGcnNLgi2MMShjNZ6S8d4Lilgr8WemD+qKqWIsutbdZZl9Eb3LuaBJFlxy7L+EWZOE+lcZBzJeWKBHm8yaalLVX2cXZdaS8O2jrv4jaFuilScthDLKOnfxZ6YP64j6p7SC/Rs/aUEye2h+jwtk3GLxLRW+CFMSDqHG4NCDcwTGJ+B1rntZ2Zql60MXxES9FrTZC790n1lFC+rS9422AD/OzOZXgrJ1axpVEFs2bhta88FaQTJwGodUh/C0iwEZYnMsfPBg8xeYs8iRyp+oJHFZhlH8GQ18oz6Rns8xfVNnCRoFt+ebhh78FDbJ3SxPnQyhWzE30zd5SJIAaEG6QdxQAXq/SKKXJNVEbVpQiakaWmu5qbGE8Nh4j+y1qKixqhufiq6TGXEw6Eqsw55Fz/J4+cngkhSiRzS8f4ChXq0PY55Q/I31m2R7f+Egcu4Wt5Uy8LgfjL44Vo9URcj+Fl5Imz5UGa7dUl3+VRgX50pCM9mmWP7OABk71SXRd0OSPAprfpAJwPv13hhBi2S2OV12E72J1ZNntKrmYYQfJf22Vw8gS136oWh9fTR5LEPEUZOBaFU4A4o0lyhJjnwJZRv4pHF42VHxLwmi2LX4C13jtiA5iLbMoCspjC3hcq97Q7rJYvr5xQY6f79HuJzEwZcEdw9CjA1GWGO0yk5JXJz7KYfIAEXdp1Zs2Y3IR0QcFQPmSj3IK2BLcQd9ETtGyE3EUVMQVntC3+7yKEh7g/Mpf1cBN2ug1rdJIS2mFBxy3qdiJVbcgzsRHbjfze3SObocBpkbDMwazG/IWGigFdC2sqDNxFIT4q0qNUEb9iYoKRbZVAE6XEs2ZUhZk5k2VGtFfhXRm1S1ofGdxJKKIx6QE84eUilqe3zFJNWxoSRQFUXTsc8vBEx8/zOrZgxwLlXO14VUO2I+0aQgt0W9UnExFuW2JoiAE+4WKE8mT3VE06x670IOlucudgZ7vcnYotw1RFMQT0Yi4iRhbb2MfYpEnXLKKpuJ8x5HzmvnlA8WZTQj8GTlOqZ43uWh5i+oinoKsfU2lifB5EZ/j8EG776GV3K1Z2O06a3Ji7V6VOhPtPIipOzCbAP+cboW+8Y9HYiNCgkSKgwDNOjI99488HXCsVHdg1oa4CsqzenbY070Lq6fP5+Ox/A8Tb4kREu2ieVKr/wG4K6ZymKgWVKBHFMGXdF2gpbUzz/zjEtWCCnig/CMnz62/K+THzMI0lMNMxYIKZJfKf0+9SZuiwg6Zs/ymm4kuTFVBBbIj8S/MwKynpdfqCLUE73yHeCuP7W9crIqCykiQCOY6evDFtH3XXt2UkCujpju5abHqCnKRL8Xj50ECJbHTXDqJRCKRSCQSiUQi8Z9hzL82WdBpOmm4BgAAAABJRU5ErkJggg=='
p46
sS'andr'
p47
S'data:image/png;base64,iVBORw0KGgoAAAANSUhEUgAAAEgAAABECAMAAAAV8YMOAAAABGdBTUEAALGPC/xhBQAAAAFzUkdCAK7OHOkAAAMAUExURUxpcf3WtvzUtfzUtf3VtvzUtf3Utf3Utf3Utf3UtfzUtfzUtfzUtfzUtfzUtfzUtfzUtfzUtfzUtfzUtfvTtP3UtfzUtfzUtfzUtfzUtfzUtfzUtfzUtfzUtfzUtf3Vtv3VtfzUtfzUtfzUtfzUtfzUtfzUtfzUtfzUtfzUtf3VtvzUtfzUtfzUtfzUtfzUtfzUtf3VtfzUtfzUtfzUtfzUtfzUtfzUtfzUtfzUtfzUtfzUtfzUtfzUtfnRsvzUtfzUtfzUtfzUtf3VtvzUtd+3nXpRSXxTS4deVPzUtfzUtfzUtfzUtY5lWfTMrs6lj4NaUe/Hqq6FdKF5aotiV921nIRbUcifiaR7bIFYT8aeiL+WgsKZhe7GqeK6n4VcUpZtYPzUtfeTKf3Vti8vL/zVt4NaUC0uLv7WtvuVKfeSJy4vLywtLf/Xt/zUtvzTtPiTKYVcUvrStPnRs4RbUTczL/qUKfeVLf3VtY5lWYtiV/q2dPvLopeDczEwL/SRKffQsbaNesmgitivl01HQzY0M/eUKuC9ovq7f/3QrPeXMbdzK9y0m+a+o8Schs6mj4hfVeG4nubDpsapkrqeivmwZtS0m/u/h9m4nUA9OvicO/zSsfihR7NxK/iUKVlELvDKrJxzZZRqXodeVK6GdPPLruzEp6F4apVsX5BmWrGIdurGqTs4N9CwmPHLrkdCP+7JrGdcU0VAPYt5a/vFlfieQe+PKeqMKSksL65uK7t1K0A3LuOJKphjLMR5K9iDKjk0L+nApZZtYPbOsKR7a+rCpqmBcF5UTfvUtb+jjmxgV1JLRp+JeHprYJF+b/q0b1dPSePApVpSS/zPq/ikTvnInvq5ezMxMJ9nK/vIm/mnVGxNLfmrXKJoLJxlLEg7Lt2GKsl8Kr93K+7GqcCYg7uTgJFoXKmAb9SslLWbh7GYhK6VgpJ/cHZoXfqzb/msX3lrYPKTL4RZLMmrlMSYbphxS9GAKodaK6VqLPrBjI9fLH5WLb6WgtOqk72VgLRyK5WS7GUAAABhdFJOUwAVaxkJ4/kB/gUNZy+2+9KLU6XPN+hOHSw8YwOFBCH6/UJ1KO/eu7DXwvG0cQvbqVl9XXhP1KBJP/NLy5fs7qz0ypsQRP8KFPiQ95NsWrr1xKljTvGYpkvvl07sU/bHsmlJJRr/AAAGHUlEQVRYw+WYZ1wTWRDACSTkhyShiyB4UpUDsWEB5WyHelzvvexusptLQgqJofcqSFEBRekiTbF3z4LYz45dz9OzXu+9/O69zUayYTeJ+tH5stns7P/Nm5n3ZvbZ2T2e4uQgCBjsaw/Ed3CAwMHpoSDcIDdXoQdvOkLJdJ6H0NVtCNe2t/nDYjzhuE6CiPAQETJARLzwCAFkcSZNnmWBwxk/Mt7L2W72m+684QiLDPd6+dXZnNHx0cIYtqnyPYXQiMh33n5rJYawCrbgtTdefwL8iPXjMHOiRhqGfBdPKZNaAN3SpcSRA4lGD2Pk8AyK0nK8cqEFEJKD3+mhLB7hPRDkE0LpqXKsWFSuS11gnLr7AJdzQo16PR34/t5kSz5K1eVoqRvHiKFmIGdH6lF2jqaywoKvkeTeg3hKnlFjpJmbuNOM491Lxe9aCho0qRNvv0mpxI+jgxw8KKWmdvxOnEUOgiTe1mjKjTd+dJC3EVSxQnNbZZmDYG3NeHMbNZorHTRIaPi79y7eUmbFICDlmhUVhsCKnjPLorHkmsDKOvEurVUO1tOCtxrUnvI0i9p770M7sFxN5b9SqyAkuxXfZ5jbi8/TOXM+7FoDAKpWvKXN+swQKRgQZACGxe17aQ4N9NFczcG4bGlvO0hG6xyYlJpcaXJTxT7d3Fdo0f+gXafrPJhb3onnJNoCOtCC76/4r7kSr/znBdNVMsbxQFcqjms0JjlrUbQ5Op1Gh+s6crOffJqW11h2XldHampHrtYWDoLdbE2pTGm+VQZ+T+1fbgIv+EzblpfXo0JsE6x34b24lQhGX24R1EOpFENsFsyo7Oh2v+qMQB5JZvIpUFDIo4E8HChQlKNZuiVY3kYSzHI/moob34+ul1jUvcjCDpm8qKZISx8pkHKRkMZZl5Ffe+pr1ixQVZ2pzT+xjkYaYahwDhNou1bGBYJQrK5imR22eIOCIDK/oQ00weAkTy9T/5zOJ8RiseIoy5LTfqsAj4kNS039FDzZsD5Mi7z0SIEcauYXkSYpJRKJSoVIJErKoFWfQpC4oIrmcF/Dnmb6V8KXBVCRWAuHVCr7NhV/V11dnbYkfbmEBC2iQF8lmL7lCjPJaSIt9N2ryamdWpWMKPvO15UUyqAkLbv6J4lqOgRB8tWLaRaNht7mhtOc2bSedMJGMJ9LZwtlKCUyWcnVc3B+GeQ4h1bRghEKW51RYWZhyScU4vVFmORSnQxt0DeQHHiVbd6kBHM7KlYo1h6hJ5rHKFhAXOhxOVxz4vix05iy77IMVX+yYw/kgOt1NSqrS5cA0rHjG7sP099xGcQAQqRIIoYhkvOFKJr1t7jxegOq3nJFfmWrGkWrwS6DYYmIeX2YAi3ihjHli7LvLJjYns+JzHo92nBjJzFvtx6VLUuXMGaXEPqIy7iJSDaVoKh+9145cU2N6kvnyeXb9SiatIQZREbNfyojqDgJgL4AoF0o+vH2TLH8M+D2wjRmEJlHdoGMoJNoP0hff0Eu/wPGjwVkTy4RNxETKA0G/cZOOQEs0e/YK88s1bOCggMMWz+PCbQkCUa9cdte4GTg9G07f2tg9dEEQys5KpQJlL4ZZvX2xr+2gEvWtcZdWShr1CZSBWk847yLSyBpa5YaZmTW1ix4OclYrURjqD2btiHdl+XFm1GQ29RaU4PETvq+T8mk6WJskp3cmTex9LS6H1G9QdRbll0uns/IQfyM5chuUjCjghKZ/8tPF+tLS0vrL/7+67nlzBgkMqi/9k9k64NqasXzoGRuy2ArUaJAfn8XIYhka81+UMihEBtq2Bo5oemnDd83msWkn2sJcuvdyNY2hfjQG3ZXEUtPDaqTWK44U8RiUOwYPr2JnDWVmYStyVgrLljfzeKhWGf/AV81zzoykxKXVi1ex2KP10AOsGlsLIufEtiaCpeooYwf525THqibme4+hO3jeJgrz2aMaMq4Qeyf2f4+M21Dxc8I9LZy+CAYGxZtzRjetHEONpwicAL8QnkiNkq0i7u9recRoNYNGTzePcyFF9zPGx7tFTkj/BlnH++hD3g4wud6C3xiosgzFntnt5jJnkEc/8fyrOl/rrWDx1hbC7EAAAAASUVORK5CYII='
p48
sb.