ccopy_reg
_reconstructor
p0
(cemoji
Emoji
p1
c__builtin__
object
p2
Ntp3
Rp4
(dp5
S'emojipedia_url'
p6
Vhttp://emojipedia.org/mouse/
p7
sS'index'
p8
V255
p9
sS'code'
p10
VU+1F401
p11
sS'apple'
p12
S'data:image/png;base64,iVBORw0KGgoAAAANSUhEUgAAAEAAAABACAMAAACdt4HsAAADAFBMVEUAAABmZjM/Pz9iTk5cUk5XUEVXT08AAABjY2NXV0JVVVVmTExVVVXSzMqDcGuHdHBcTEyce3mnfHqvgoBiVlKgeXa6sa6OgH6fjYqLfnqjmZWxhoSzgoGUhoOVfHi6iYefk4+onJi/uLWjl5OnkIvbzsu6sq+5hoW6sq/Kw8G9tLKrgHyuf3/FvLm+iolbUU6vm5eXi4fFv72rmJW1p6Sxo6C1kYy1rKqhlpO0p6DCubavp6Sgd3W1qaWllZGViYOmnJrIu7fOwr+vpaOonpqyp6Gzo6HIt7Wonpu1h4Own5y5qqivpaK/kY/FwL3Es6+efnu+sKzAl5a6r63CubXBt7O5kIipkIuykY3QrqrErqq6hoa9iYi+jIu1g4OvpKOYi4e8h4asop64sa66sa/VqqmypaDQxMKvgIDOnZvNubbHoqC0f3+DdHCdkY2sm5ejiYbBnZnAoJy/rKe5lI/SoJ+phoPRoKDRnp7KnZTav72xp6PPrafOt7HTtrLx7+/39vX08/Py8PD6+fni3d349/bv7e3q5+b5+Pju6+r9/Pzk4eD29PP09PTq6efs6urz8vHw7u708vL6+vr19fTs6enz8vLo5OTu6+v19fXl4uH7+/ri397f29ru7Ozc1tTr6OjDvLrc19bn5ePk39/Vz83p5uX4+Pj49vbKw8H6+fjhuLj69/fe2dj7+vnl4N/y7+/W0NDd2dfZ1NPm4+LGvrzOxsX8+/v+/v3Pycf35OTDubbY0tH39fXXtLLSyMfq5OLfycbTzsv47u3p5uTg3NvIwr/39PPe19Xn2dfEkJDh2dja0tHv19faurjhz87UqajbrKz08fHbsa7n4uDoxcLo3t3r0dDWvbzKvLrFravuysrz0tLZwb7gsrKxREDh08/jzMjm19Px7uz78/LCsa/gwb7Mu7nUwb/l3ty8tLG/tbL////y5+f36uq9trPboaDHlJPNvbvpvr7NrazBoZ789/fhvLzv1NLQoJ/Ur6zMfnu6VlLgs7LOqafMm5oNSTNZAAAAf3RSTlMABQQNEg4LAQIHCQoG/iEaEDtXeBVI/jBIKl96jDYlsUBvr2RU+8W7v/HYUW7W0iCMXNh8oI6jrFbN4KtD/qNznef9usqw6dqPpoHu/bXo1U/9/NHD98Fih9++xfXynZOE5eHz3ejC64Pl8vwwRq/1lMywyczuX/LO8vCX6+Poh5tjUAAABcZJREFUeF7tVlWQHNcV1VBP9+zsLM0yiixcgcWKmGXJliyWmWIMgjHQjMPMDMvMTGJmZjZCkKEdVyoV106n9JEqf+z56Y/X57wL5773Rv3fMYIRjGAEIwAVMplMAT48DwJkkiRICeTOKV27dolM/lBsuRjIfWzMo2Nmj06bveLI+Ad3f/h9xcPwxUDJmEBdv42l68IVl37b23vswobpElmqlEeqTAYoRIIZgUnZY7z1Q388O3DGzPgvnjj5mytHz6/5wcrJpU+0dux7tHTbvOfzVBKlPCE/Zc7429Xlx/9y/YtzKA7/+sS1y1cuX+jq7nfSLFyP3dbTkcZY8sQ8KZRAQvnY34/e+X35vb9eP1uNl5dHf3f6D8cu9dVpEdTOWFGmXIdhp2x73N0Lx8pEw0qIc9463/nZ0FBn553K/fvLjdH79/tqgi47akRxBreQpNWKILAz7m16pHDYIOTAjKtHOz8dqrXgLp22h6zfY9BZa131qE6L2VEXgjCWatIFOw3NjZPmJw1XTVAy683jBz+tRkit1mVBSLKWQ05hGGY0wjDqIi21pBnpwTAYdniTRwPyYb2nmvXaYZanwC4ryeAeDwlTGExRlN+Ie0iyjCSrSURnxdhIch4kH76TJcu7+2GTX2fGKxEGxxGYDcYdzQZM50J1JIkgaCWu09md3kmFouGtCBUujJ2hKTvGZ01aPKTd4NY4DHo/hmIYhTIMaans6bFjBt/EBCaXK3MXrDhA+52UHeElrEYs6CY0cVpbb4O1JM7nhTM9KEZFBvOUCQwlUs/YHjtMBFkYRVzaHqPT2xi16dmICan0eDics1hw1IjZfBMlApZe3TK4p97PB8GQWr+vyRfUEA4jwnnwNg/X7rHozEanu6IITDyTkpxXmlgTn7NLCxs0sSai0UuRiMWD13I8SJ3dRLk7xioFxhqauY+IBynMbDTpvcnd3WFWy1m4No5rb+c4nNFRVLxhWZLQwTD95QZ33IYZMVNzuGOwwWvTMZY2rv0TjkctjrL+YPg7gNBsq1/q8EZsJiPmd8c6YrFmvw5BcJ5fyyeBl9lZGx1+RCYkIF1VEdCwJsxkiLS2VDQ5tKjrK247w3nIMhfqD+oDWwUFgGUhflvK5qQbQ6GW8B5Ui/IpcB7GYynHSV6XbpycKiSgWBfq8BnoIOsOfRRq8dlgo1lL1pJIWRtTjjOoKRgPTxaMIOnnsa6+usjtyL6Noa7WZtZJYegpK6bF20iXC0FNBndAuAaybQe6Knx1HyavXLpmcatGH2dh2GSCMYREMMwM25zR7nlCXQBzx5/bvvXwh32r1UD2qlBgryNIB238XMOUmRfy69lowzqFgA0ksw+OHzvrYH+pSsyb6vOGRodGE3EE9XSQNjgpJ82P+OB8UWIBaNzAjTnSsQfPjIZ4tZQN+wJElHB73c1ut6OZ1utpDUFMSpEn3F+Z+6ubT6mBnbdu5YhHyUFg5pOtAWIvQeyNRjUar5cPhggnJzaiHErbffaXKkXOU+cHSkRQSknO6J8+2XogECaIGl8N4dvrI2qaKrKyxYn4ivT3T/9iHCCdu/uDTUXQzp/9pPfezYHjNy5mtbQONhwJhGvCvuS7W36UMABwyo71c1VQyo5du2ZIRdDcH/+599jVB8s3vfrC0iULFmd93PVRVtbGLSc2KxNXAAAgcJRYkaTgPyAwblxhtkoqlUkUECCTfo3pb1dtFifuIQj+1+kiBkH5N/6Qvlf1TuImgt8rkgCQWC5w3GRWnUwDE6+n5BcXZ6RJJYphL1G5SJb+3apiiVzwlVM0dcKLEwqmqL967YjE/05BDoogiTT98Wt/m6YS/6+XkkSdXvD0M9MmPJcxJTNN/XXt1IvSX3/87ZOn3y1QCdj4P6EmyaRpUwvWT3v20KFDX375Dx5/4vFG8VTVNy9ngYZACr53qszMzIyM/Pz8jPRF6lRAmYAupCMWQf+CiC/HtxD/BBqkeKGc6a0+AAAAAElFTkSuQmCC'
p13
sS'twit'
p14
S'data:image/png;base64,iVBORw0KGgoAAAANSUhEUgAAAEgAAABICAMAAABiM0N1AAAAqFBMVEUAAADM1t3qWW7M1t3qWW7M1t3qWW7M1t3qWW7M1t3kcoTqWW7M1t3qWW7M1t3qWW7M1t3qWW7M1t3qWW7M1t3qWW7M1t3qWW7M1t3qWW7M1t3qWW7M1t3qWW7M1t3SvcfqWW7M1t3NzNPOwcrP09vR0dnUztbWy9TZWGrZn6zZydLbxtDdLkTdkJ/gwczlu8fmaXzouMXqWW7qtsPts8HvsL7yrrz0q7qzFKqtAAAAIXRSTlMAEBAgIDAwQEBQUFBgYHBwgICPj5+fr6+/v8/P39/v7+9VvM7kAAABmklEQVR42u3Uf1eCMBTG8StoRCmhYS60xWOalZZFFu//nbUhPzrHZLjxV4fPC/ie3e2eUavVarVa/17P932vR6bcGVLMISMBCr5hpzQibR6E5eoRe9rTdTiw+EyS5GufmlHJdlJ23QMtdklqBcnd990RQ4F56lgIbJO9L0gBke2FKNV8UWCZ5NYQwqxygNmK0LoIfaASd6tDb0XoEwr9pkKoOBM/KcTtir1+KUJbKN3QMS4W33lohQrKzWd4KydTC+iYHs82crdAHZ1jHQZgvUu+t1lHcwV81KH8aOwQJ2N0yOHQQAf60PLn9cyfNpunuVkogCA6omQUGkHapB4MQn38CkE/5EAyH83mEPQu+/6SSgz6XuOJRRkPBt7jeJqXOPQ9x8I0/8v0hReRLA1NJws7ZE1lqUtCJ4SmQP5qZ/JMV5SWPJ0UDxxKDUXoljK26weM1R+J+S7lurFATWgqZDUVOhedO2rAtQhNyJyVPb+xcbaQhqyJ7IzJTPdyHMlOZJHSIIqVojNSq9G5kx3zUDSUc5mONh0P8swP884B00eNFEoAAAAASUVORK5CYII='
p15
sS'gmail'
p16
S''
p17
sS'related_to'
p18
(lp19
V\U0001f42d Mouse Face
p20
aV\U0001f400 Rat
p21
asS'name'
p22
Vmouse
p23
sS'known_as'
p24
(lp25
V\U0001f401 Mice Emoji
p26
aV\U0001f401 Rodent Emoji
p27
aV\U0001f401 Dormouse Emoji
p28
asS'default'
p29
Vemoji
p30
sS'bw'
p31
S'data:image/png;base64,iVBORw0KGgoAAAANSUhEUgAAAJAAAACQCAYAAADnRuK4AAAGkElEQVR42u2dLzRsXxhAJwiCIAiCIAiCIAiCIAiCIAiCIAiCIAiCtQRBEAVBEARBEARBEARBEARBEARBEARBuL+171pnfsd985dh7p3Ze62znsfMM3Pvvt/5zvedO6+UiPyAkodAFEgUSBRIFEhEgUSBRIFEgUQUSBRIFEgUSESBRIFEgUSBRBRIFEgUSBRIFEhEgUSBRIFEgUQUSBRIFEgUSESBRIFEgUSBRBRIFEgUSBRIFEhEgUSBRIFEgUQUSBRIFEgUSESBRIFEgUSBRBRIFEgUSBRIRIFEgUSBRIFEgUQUSBRIFEgUSESBRIFEgUSBRBRIFEgUSBRIpJgCvb6+JoeHh8na2lqyurqa3N/fexYVqDF2d3eTvr6+pFQqlUd/f3/y+PjomVSg2qysrHwRJx6zs7OeSQWqzvHx8RdhlpeXk+vr62RycrL8vYuLi+T09DQd7+/vnlkF+p/x8fGyKEtLS+Xvb21tVYxIg4ODye3trWdXgZLk4eHhixx3d3fln/F1tWltaGgo+fz89Ax3u0AnJydlKQYGBv6RYnp6Ount7U3m5uaSo6OjZHR0tPx4vsd0R47E4+oNHsfjGZubm2nSzvR5dXWVvLy8aEvRBZqamqq4rI9P7vPzczqFVYtMPxms+CYmJpL19fVULKUqmECNrrbIf7LL/d8aJPJ7e3upyAqUI5iqtre3k56envRE8Wec/9Tj6ekpXZExDfHvMPb395Pz8/N0SqIAyWOyg9UdP2cgL8/huZQRZmZmkuHh4fJryg6mzG6rSeVSIE5kvERnUH3OC29vb6lovKbFxcUvQvE1VfJuKSXkTiByi3j64YScnZ3l+iAyfR0cHKTRKbxuvuZCUKA/hN5WHHUQiSkHbm5uUpnyXHUO0y6rwlBK6PQpLRcCMSUgRnbFExcDWaKz1OZneY9ITG8hio6NjXV0gt12gVh2j4yM/FMEzCbMl5eXqUCseLjK8w6Sh9yI5FqBfgGmpThvYNC2qFRf+fj4SKMSArGyKgIUI8P7IrdToBZChEGIWJ6FhYWa4Z6rmiIeMhUBcqLQx6tURVegb0JiyQGN5UGMTjzA5ENhKstTKaKwAlEfyeY8dNU7mZD802LptPrQnwu0s7PzRZ4iJMStiEKd+n7/VCByl3jqYtrqFliJhVyIsoUC/fBKpO7TTft12NcUakO0OhTomyuvIBA9pG6Dxmx4/zRrFegbU1go84fkuZmkkiU+XfTQLWewoitSJAs3B1DCoA6mQE1C+I6TaIRimwR9sLDtgsHfyRvYREZlutoWinAyeHwRWgbITr0rvG4KjEWeykvtPICtHmxFLQrxXieq8UQmCqVFa762rRLNbThEl3o7B4lQNCSRjujFgWf1lm2BMKgv5T36MG2RC/FeiKyV3jP7uskRaSA3s4muqwSK8yLyGq4+DhiDLRwcOBqtcXjne6ze4jwqlifsHgw7B5kC2afTzn059PV4T1wA2dZNo4MCJO+FnBEB89TKKcydqcgUTgC1FO4Po7FKJGPrKSeoVp4U9i6HLa1hW2urN8YjPNtQEJkIW+k1ITuvl2YrgiMYr408judUukCyUZkIxjFRoAaJN9eHq5IWQbVpoNmBlDQ+w609XO30rvi9yIYU2f3TRESERAAq7Dw32+MLwiBHo3fNUmjk9zKN1YpaiLSxsdHWiFQYgYgWtSIMUxa5EQc+VHpJSDlp8/PzNZ/b6sHv4vYftp38NCkmovEekKlaZGLKbtcKtFCfzsGmMqIDJwdhSDbD6qXeUhipiBaE/nDzYK3BlU0U4uTUk4+fk+g3E2W+A+8BKbPN6HZW9v2AqQajABEQganbhGSf/IsWRTs67Fw0SBtLxGtSIGlKbKJlPJUpkDRdBgm1NBJuBZK6dSVqQeRzlABIruNpTIG6FPIo8inyKsQggWeBQAGR8kIjRch23P2hQH883VBPIhGniBjkqFQ7anawCmvHUl6Bfhk20VFkDJ9j1Mp6U2jCtnNbiAL9ArQYaGX8pEpOpR1BqHmxuqJ1Q22KlkeePvBKgVpMfG98drBaoicXy0DthvoSbRHaI0W5502BfoHsh34ybVE5Zhrr1PvjFahFIEi8t4k2ix/vIg1Dn6rSVluauwokDUHCWyn3CZ9xpEBSd/WV/ZyjTv+vGBTol0Ri6mKFxZ9+wJSIAokCiQKJAokokCiQKJAokCiQiAKJAokCiQKJKJAokCiQKJCIAokCiQKJAokokCiQ5IX/AKKTK3JQ6Op+AAAAAElFTkSuQmCC'
p32
sS'version'
p33
VV6.0\u02e3
p34
sS'uni'
p35
V\U0001f401
p36
sS'desc'
p37
V\U0001f401 A small white mouse shown full-body, as opposed to the mouse face emoji. 
p38
sS'browser'
p39
V\U0001f401
p40
sS'annotations'
p41
(lp42
Vanimal
p43
aVmouse
p44
aVnature
p45
asS'wind'
p46
S'data:image/png;base64,iVBORw0KGgoAAAANSUhEUgAAAEgAAABICAYAAABV7bNHAAAAAXNSR0IArs4c6QAAAARnQU1BAACxjwv8YQUAAAX3SURBVHhe7ZtNiBxFFMdf9dw8qEdRRBSJgiKesrueAm6CIQNKEA9+nsbDBsSDyGbGk7iTIB6yYDy4Fw3qQUQMTPCyYPDg7uYkQUGCtyCI8RAFj9Pl+79+Pduz2x/T1dWzG6gfTOpVT8/O9L9fvfeqqkOBQCAQCAQCgUAgEAgE7jCMtt7YGZ48EtvOaWPoPkt0Y6k/+kTfuiPxKtBP504tm9h8w+Lco4fIkr0ZWbO6MBh9pYdy2VnrvhwbuvewCepVoO1h91NueklvF2vpn4hoJU8kfIZFfM6QeRB9nMs/amTM+P2F/vc35KQ9bA27a8bSs/zrrxsaf1R0ng/4d3vE0sNqTQGP4uH2lnYFDMWttVO/sNlLxQHifYZeiW30Lc7Rw1OwOA/xOQts9ng4X9ta664m7/jHq0DsCf+puR++IAxB7bGndC4ZY55IOrTDAp5hb3iMexs4hPcsdd6BvZfFwehVbjbE21hQfp1jsb9L3vWLV4H4ov5SMxeORV20MhQTD2Ch7GW+4EXEHgyVxf7oTT4sIrFwT0mbA86LzPgon7OJPn/38/DIIq9zxbMH0S0187G0iAvgO/+S9neWBldeEDsD4ooaImIRIuhgdJzNideVDU0X/Apk7A9q5sMXHFPnDYlJPDziyL6n70wxCbosoLQVwJv45gxhy9C0nYvyhge8CvTM2SubVRfFGaqfWPaqnJ8DUj5ajml/yoEZ4CE64GZdOoaWNaM2xqtAyCbsRfdrtxxjflVrHzHZZAiS2U7a2WBPehsxTbs9LgdW1HbGm0C4Y8gm2ZRdwR/aTgHvQcCVjqF/pa1BZOJ3WSQV3642jUdeBNpe637Bzb4CsS4s8oWYaFJJ83C8yF55G38/WyKUIfHLGPkbuFlFpcKsNK6kMazgOdqdGQyFNINlKuPSrIXPwENmqZxRF8ETpYrncmCWz+TRSCC4LypZZCU91Dq4YG7OLw1G55Mj+eyZF25ofVWbRkMsTdnanQv4PnhsVZZKMqS9CntSdznQMAbZ19Q4CHpV0wsb0cdoISqGsRysibNASKE1MlYrIMZogshF67JkKmLpqBysibsHWXtCrYOFZ/5l3mENXRODi0eXlN9giJljauSCWoTH/tnkldYlLWHpTFEZENH4czUJK51qzoyTQJraS4Mzp+PTyDR4wdbs0wr4LVFsPtDuFEjv6Q3i8x6RgzVwEohrgyfVzAU/KFt3wObP/KbdduAaqmhqwbHyZzFKlk+KcBKIJ5FPq5kLZtTphBOIXVEE+oAD8etqTmPobzQzzxMzuHlQuhJYAqYMyDB4ZacPrcI3IXtjUrC7gtYl69YWqMiN9yIxijMMXlXxyie7KwF+qO9Blu5W65BSnl3rUlsgl0wwT+CtPnc5nGLQYScnyz6Af1xKjdoCVS7MHwL2ZVlrJam4lBq1BYostVsVe2B/ltW4ZOi6tDWoLRC2j9usin2RpnvM09IsynWSLH/UwSkG8Rd+pmYx2C1tew5WAh6EQCsrlQwPu5tVD1Dk4SQQdg+4SXY/92JpE9vI2C2NyMhe1UHA8eaI1GxawRtrfpQ3auIkEMASZmzscczWubsOUbC3jp3O9BGWcWRLt6Jb5i4OzpOiNo5stdfnwEL7J1mrjj7EgpYemjuIk5MKnoc7PFrsmjh7UBGydSML+QcnDpiIw1hDl9SsjVcP0oX0xvtjXmngPcCvBzmst7RNE+8BvofY79ruolkNd1KPzA/+7qbPPHoP0hKgqbPMFfftbN2BlMtf5u2xlCoQpG1kXyx6gmRWWsliRaTbwdptm3Wt1xrhPYuVkTx5MYdpCgKzB3HAXAXShfzSPfWmJPXPOH9t2oG5CgTkoQNLX2rXKxCHL2jF9UmOPOYag7K0EY+QLX0/qT93D0qRZ4N039wHLM7QtzigVQ/S1L67umd5Akn0aNKRi3o8OyVwQYK+oX4b4gDvAmGhKtl6MceaXnwZSTCmr9v+vxpeBZpHnSOLcMZcZo/BY7+t41kgeaihlW0hHo638KB608o4EAgEAoFAIBDwANH/0W5Yi8IXBokAAAAASUVORK5CYII='
p47
sS'andr'
p48
S'data:image/png;base64,iVBORw0KGgoAAAANSUhEUgAAAEgAAABECAMAAAAV8YMOAAAABGdBTUEAALGPC/xhBQAAAAFzUkdCAK7OHOkAAAMAUExURUxpcXijrXijrXijrXijrXijrXijrXijrXijrXijrXijrXijrXiirHijrXijrXijrXijrXijrXijrXyptHijrXijrXijrXijrXijrXijrXijrXijrXijrXijrXijrXijrXijrXijrXijrXijrXijrXijrXijrXijrXijrXijrXijrXijrXijrXijrXijrXijrXijrXijrXijrXijrXijrXijrXijrXijrXijrXijrXijrXijrXijrXijrXijrXijrXijrXijrXijrXijrXijrXijrXijrXijrXijrXijrXijrXijrXijrXijrXijrXijrXijrXijrXijrXijrXijrXijrTI1NnijrTEyM3ijrS8vLy8vLy8vLjpBQywrKi8vLy8vL1p0elp0em6Tm3ijrf////zUtXijrXeirHejrXairHymsHqlr/zUtP39/f7+/vzXufzTtC8vL/7z6sbY3fv8/YOqtP/+/f/8+v/+/Je5wIWstX+osneirSwsLP/+/n2msJK1vfb5+Y+zu+Xt74ettpm6wYyxue709ejv8aXCyH6nsf3o1urx8tLh5NTi5YGpstjk55++xf3k0PzYvOfv8ODq7LPM0fP3+Pf6+vv7/Pn7+6bDya3HzbbN097p65q6wv3exv/69+Hq7Ymvt8rc35a4wPL294SrtHmjrf3dw/zVt/3m0/728P7w5v/59P7u4i0tLevy8+/09tDf47/U2PH19q/Jz/z9/cnb3tnm6LLL0MHV2pS2vu3y9LjP1L3T1/3bwP717py8w8PW287e4XahrPT3+N3o6p69xKPBx/3izV1dXZeXl+7u7pGRkSsrK/zZvv7y6fX19XFxcfHx8cPX2/7r3arFzD1DRP7q2+Hr7dXi5v3gyoqvuLvQ1rzR1szd4PT4+HSgqtzc3KampuTk5K+vr4mJic3Nzb6+vsPDw5+fn0NDQ1hYWOrq6mJiYk5OTj8/P//7+Nvb2+Ps7nGaoz9KTKK5vnx8fDM2N1JRUWRmZufn53CMk9Xj5kGRQWMAAABldFJOUwDyNQTjAgb+/en0Ih4JgPxqFYgLzvkBDTr32gMnLeUbEV/wudWnwiQazG6+R6rtrtGdtN0ueeCOKqTHyT2gQE0YdvpylkSxi1uDlE+3S5J8MLtXmTdlM1TlhAf5SCwF6nXRnPd9y3xNPwAAB5lJREFUWMOlmHlAU2cSwAMEH0EghIIB5JBwyX0JyCl4C3hr7+79Zb73CAYxQpFjgQjIIYcHAgJi1UDEelCPKKIUqkV7Si9bd9tK9753Wffe7X4vgCSY98h2578kb36ZmW/mm5knEBiKffK6LD9hTMDWtWmC/0MWWKZ42dAMw2CwSNy+6Btz5m2PA6yt1Ix0V2dj2s1//jflxFpgRfepmvG2iv7m+/kYsgINjLW2tjaTY+0jw01Db6JJ0TUP0uAvnfxp8XoHf1/f1fE+S+eZAZofSRefUqLC4c/qz79CUIcHsZsP+4PEMcmFxiRw2CZuq+ucKOsVYjiyG02cyZXL+07vIqTmfDqLmLQpWoxx8Um1ujofMIicFs8BWrQZf16DCuvlrOy89ypC7R2MaJMgNRJKKgea+yvaelquVymwTfTSOTyLu92hQ7ty5ZOkgwUIqbQuWzyCQHvgwY6pyLWqqjEEePCCtsnwTYTqcyZBOffOIXSt2MbJH6DjMpqRR900FSHhA6VaaC8h9OOdkyB5H4nSo3xa6Ia7XyP6Lw+P7TpXyJL2a7B440IeULIMvjQAyccQOtZEA+4dRajw/PFDfbn33hoj/qKWkzhuEw/IQ3S7UznjWu4wQreyAUq6lKjgsz6Wn7Mzt/5lQrqkpZx4TJIk4fLLaPhQjl6l7wxR+RhoXLkXobO502bK64l7r5VjPztukNUGULyBfvhJ386cnEMHx9h4tGjKmE4dmjj+2F957lnyfRdtu57v2IT48xOo8Ozxe2eGCyaP6PKPTu1DaKzvMWcyLZoV1Aq+mnUQY00NOaBXCpCRnDUA5Zwm1XM4H9bwVbBkNYWr+tETMvHWDEj+Osmv/ZV0Bl8CCDzdgb76JAidO55jZFFNEb2BF7RMhItOmAChXYeMYjRaBrEL+KotCMpUSlOggoPTJvWxp3YJ3J7h4VitEZd0tiOTMjadSWx6jVfhmEAekKsXVveb5qCJ1/WpLT84QT48zIYonuvNPgUUKg4OKqgnJuWe/oTl1KhxeCiPQZYipqrVQPfo7981iFfh8PnzY+wFjGpGaCqDxyBrJxsjgz56749v//zJiLVdLKfBl6fSBGlBWL1vRkH5m7wLpb/95SzMuOpOHaY2896Qq2zxgIErH/yhNC+v9B1jjq5Ly4BsJX/fdKDKGgx03v0dAb3/3izQFQaoMAl/lw3DlYZn3/bh+3l5eT+d5dr+WgW2yOAdL9IS8Z4KQ51f/am09O2fzY51xZf5mIpewgMKdGc6jM6o/de/eOcnTyaUslGNIciVG7RUyAzM0tlhsuzQoyqASG6SR9xf/vYBMkv23dWCMyfJ7rt//fTDP5tH6unUQhBX337p2QsXSv9eYR6ptRY4u+2LL+TlXfjnv80DoRtVJcs3WpkEPf1tksj/+shMENtthdtMgp7/zrP/+PQ/N/e2mwdSfqzgupO+9fT3vk9D0Z0jqobmB4/6lXOFqYoRWXLE+6lgPzHNlGgVirLs6sNz2XRVQTlwTtmBjhEx4W7LlwPUHZt6fu9FDttuVOMQKXeCP2WXusUxhGJGphJhR+eeNtOg3fcZryX8M+BaUUlT43Q9FN3Vcfj2Bhav5+UsjYHsIaJ94+KosuKu4hRXkBqyqWDeEd5RrOg6Srppuba38aFC08MetinQtWJauGGbFTdohU32LeJTOQNMx92S60Tl4n0Sp/GWN2dbBABe8dx9INSWVl+/SaZgMR48QHe1K6+drB5HPbWVD4xBKtBLAFc2CaQpFAbANhGJuHqoru5AbS8zoFMOYeN7D7XXMqIod0Jy5iR5rxRayNyfS3OCbNXNuq++og/cQK3lZdeMDTpRhDdLl0TYEJu8ORuB57LQ+QsFySJcta+xs/b6ZXYiKtpvbFAnFgeTtWk1BeLYOfYvSQgUH0M6vUeHi3qNikZ5tZhOYi2xFBLnvPkwC10TyPrWMl0QJ7WGCaW81Ytl+hFpXgKArSXfruTgBUzTkN4cnU43vue2esa38Uv52M1h8haJpWB5Jo89DuISRXfjbqLV/8WIRqNpArg13TsbRhTY1kk6nb/gEsrX5uhKFZuBugY1MOzazQxOWtT6cKSMgThH+6kn11EQzrOZrJLhK6xa/0AxSSqgmfwBPadHpVEwYBHmOj2LLgoBSJTwTV14sLHm2BdqoG1tAdfVjrKrX3tDFcGI/JfNXERbbIFy4JlwpREAZU11Wkw5BzvTRVeP6jvjFWKeKCrZ3mAyjwRw511NPaNtiUsuMWs87PzwHfZy041qgJalJBte+YFZAG78l4lAsiw2fp2Ph5VAmgVNR5pHvx4owhC5xd5wWkxNJHm9VTrX+m439d9rw4Euzq/D2CXM06jLk1QDccJc27vAfmVCqP7P5vk4u9AltEuSo8FblwXzg4NIwVrES+Z+M+EaEB7i6Mn64p2Z/oP0zJmKWrA4NN5PTGLo52NvzsuSxSucXbx812UuSXv8uP0iu02hwSnO7ElAnJOHue9vvH2iw8FG5OzrH7XGySkjwT86JFLkQrEUWdJGT3Nf3+gTyjV9dYwMjMRN5BeWvkoi+F9FGpiZnhER4CeMixP6BWRFPbc91c5UaP4LVtJf0tn18voAAAAASUVORK5CYII='
p49
sb.