ccopy_reg
_reconstructor
p0
(cemoji
Emoji
p1
c__builtin__
object
p2
Ntp3
Rp4
(dp5
S'emojipedia_url'
p6
Vhttp://emojipedia.org/hamster-face/
p7
sS'index'
p8
V257
p9
sS'code'
p10
VU+1F439
p11
sS'apple'
p12
S'data:image/png;base64,iVBORw0KGgoAAAANSUhEUgAAAEAAAABACAMAAACdt4HsAAADAFBMVEUAAABFO0BjT1dOPkJYQUZPQENwXmNLPkBZQEBFPDugNThjTVY7Ojc8ODlgTFA+OTlnTliJdoJCPD5tWV1bR02+Vmp0YWmzUyp1YGmCcH2fQiOnNj+CcXe3Q1mtOURqVGFzVmF4bXK9UmiUNjGzPE9mUlq5UWNSREewOUivP011YmxuWmRZRUqfND67S2JgRkc7OTluTFeARTiWf4enXDpAPDyNXWqSZWXulEvs4uXq4OPskEnYyczbzM/Et7vz7fG5rK6/sbTs5ujMvsLSw8Z5ZmsBAgKYi46TgYXFur7njkiuoKNnXmA1NTX2pWGXhYoYGhz5p1vfhEKejpF/bHDskkvi1tepmJvCoZ+lnp/7nVD0rnz0pWijd3HZfD7sl1jKurybcW8NDxBxaGrFZDPNbDi7mJUdFQ54Tiu+WS3nl13fvbCRXTJnQiNaWFklJSZAQEAvMDH04djsxbCzTynYwb+HWlJNTU7r3t3lu6TVvLepajaLW1dWOyLDgFvYmKXcpK/frLbTi5ndprHeqbTjtb7isrvanqrMeIrIboHgrrjLc4XZm6fVjpzWkZ/kuMDboazXlKHSh5bQhJPdjUfrmE6/tb7nwcnlu8Pmv8fQgZC7rbe1pbHmvsXoxcvBjZnPfo6ykpvEZXj/rVrOfIvAeIfynVHunFDzoFOvoKrQhEH/rlvJeTr8qFe1Y1KxV2qpmaS2mqL1nlHOw8jDX3P+q1i2pam0ipbkk0vvl07Bb1y7X3PWiEWPfIT+qVnolk3Iv8K/dUfhj0nOj5zHfkO9iZXHg5D6p1b5pFWYh5T3o1WllJ/2oVPHaXzox8zAtLjUx8uqhHuJeH32u4zv5ujQlm2kb1etnJ/s5OehkJa8rrKvh5O+ZGejf4r+rl/DenLo3uH6tHOLcnjYy9Dg1tnw2M3zoFy1qa2viIjhtJrewrjkpn7jikXj2NzymlD+o1PaztLf0taJgIj1y6mzpKj9q13Udjnw0L2llZnm297w6ezc0NTBcT7y6u3Kf3/zqXG3jsFSAAAAOHRSTlMABzOaFUP9DQMgUR8qF+xSbPM48sf958G/3fYh/dZxU3/+9jO4sOjehJPRnNA/9oJijtzA4Lbm/qAuOrUAAAkASURBVHhe7JRVb9xYHMXTqlWrzEvmIbuJ0oDSKGobNVKlavfjXTPzMDOGmZmxzMzLzPy3PZM4TT/CHo3mxef8fM615Zoj+l8nr1w6d3Nubs59qc113HCqrsENF2+e+6jr9Afjrq6XTx5NpFI7O4M7W+6uU0cNJ9oat+DCb6nUxKMnLxtOHs+3fpLzELKiKCuJoVK09KDxiMfVsDUYLaUSK+CQZU/u07r383UDWUJHSEJIV4hEKRIddLc6xjXuRCM/JQilYpGTM1eO5mvrkzJiNZZlJaTIxvqQPzLoPujgMvND64asI4llNY2VlPBomzPf1JlVJA3DNE2TgE+Ec+NAaDxjG8427ET947kwACSIY+CT9GT9ZQegg5cljCRJzAYYYTEX8UcfVG7SuhX1R3Ji0mpg5kkMYxWu+cRB/ny9B2EUCAgwgfBkxfSaP1Jyu6wH0DgY8a+lxayHUEwAaToxiUjXHgAu8opGCYKAA4FFihHm+HQ6EiltWWd9+odS5GE6zXNhALCQx00npnMdB4DmJKJwBiRQAJCNpLg3MzBx78bdqx+Drt69cW9iYGbP3AAASrCdrNHeVAW0EyzO0KpKMzipIdnDQb5/abX3l4p6V5f6gcB5ZKSRAkPT4BQw+XDDqIwxahBEM5SGiCQ/079anvV6l7+y5fXOlpf6Z/gkAHDbqTKkzrdUAWmdYoKhQCgWpHENGeLjpbJ3eXLB5/NNTU3B/8LCpIl4LBoIw+lgLBQAJ4XECw6AGorH44GYKmgyN7066530FfLF4q6lYr7gA0S5d5pTMEGNBUwnjTsAowqlBuL7+/GQikueZ6uzywuFYnF7Y6PP1MbGdrFY8EGJ3mkPK6ihihMdTmgnSBsQo0kiccfKb0N6zJaFyNsEmaoCKOXwEJvDGhOL78cDQQElHt7x2nmIZjIZi9BXIZT/esYyQZgQjzGY4zFe4BE0C8ARYCvji19OHuZB1Q6wYhkIYUqFQwypguR4kZraDes5qrgy5B/53JeH+Wa+xxQgTMDmbr6wsAwjkGA6GYwYhQWOdxkTaFpgE+8WX33xdnjTLtBjy9qwub1rj/gHnIxA6mLHWcf3rpnTMQon5ZR/5LvXt4Y3zQPMVAGZsXlnBYXEcUxPdp+vcehyNydLGlofX7z+/e9v/rUaQL4CmO+zAMMFq0IWaaySrW9575PULRqKZ+0aFHh+/9cX3zoAGavBJgDyPqsCoRBcJe/s0Lwn8kOL1//8+vn9P97cgg0w4WkP/DLVMzA3mBV4ju+srTmmMy2dn10befUaALf/vv3ji/m+sZ6npn62j2AbGnxjVejvvNhU8wH911q59aZxhkEYzMnUGFqDnChCaqPKslRFStQoMksdvNgsLAYbHLAJjkl8yMFt4xyaJmlO/RXNVe6rulKlyKhIluLUrSo1TaJCMC3sXkTEEJOkJbabpcF2kTvfUoxR3ItIHcHNt988+86sdr/6vTkMkF1JU52rpY5PXjwqfFsQAagAfhEw/V33F4ePbpNueS7tnbSEM8t5AFIJEDoSL+ceFgr4kQaQQARc7//hwF9Ht727xcHylivaFVvKAmCmOhOrBFF6PPeoUCj0IQDxE8B0f/cfh499uOONV/03+dlYZo0AyoQKotDX11fxA2D6oPvAFoQ64z3aGc6sLWfzIiGVEhGki0cAiP6p5yIAIyDEpztqUqje+1kgAcqAFXMpVUoAITJewH/3/p3FqcUp+KuE91WbAO/MJEmApeVsFoR0fuy0O5ugUp2E8bK3D/7rEyfGpwnAZEIIsYbdVb+8mcvhCWAAkUC57WftFxMURaWgF729C/fvX8PSxCD8UD9qICPIq0dz/OaNLjS4BsJyNh21X+x023MlsxmMz+YAuP293d150f7jc5MIKD+JC9UjvsUzGSWAMoH6034q6LbvLJmh1ONDQwCMj7qDp0ZPDhI7JLbwW8sGoNmHBLGlpTKBGvOePdPjPSUCqJeH1od6C9e8PWfOescHy34xw7FQ80aNjFgBOiAigJ4eEYDnaS4DJk5jiQD6K4DDfz/YWVcDaM8sQSjS7BjtOdMzGu+oAh6e9GLJiwgw40cm+Jzb2VQFRBChAsiHvd7T3lFnKQ0A9Xju0Hpv4etRLJ249dwEM9TdfeDW8Xt+xQbAJ5ASM5n9mf0goEU7OhQTUOZzJMPtcSxhAJj7j3wE/XowxzEbE+gdLmuXrT1DECAMmINuLmVeEQEYYX1o4e6dKxNXiP/I70+fnT9/+fJwdNKhV1cAu2aSeBNi7RAIa8sD1GpiBUrDT6GFoYWvphYXB02wfyzeJhZ28knWIK0AZEYOGWwgQCAAMTCQzxNAiqLS59YX8BqZTKKdbInZuqICZ5RJKlIoPUnaAkIsJhLQA0Hg05JIJKj0yrn1I9PTFXssBr+FT3qUiurHzGDkJnlnlw1DwA+RIfIbgPwvl55eegZ7+fa2LueNSc5o2HSwKNwzRYG3gDBs5XneGo06Z8Ox5XSq1FFKmFfWYuFZZzRqpWkam8j9heKMGwNUJWNYEHghKNBWKzby0ajFOWumxCrTYWfZzuNaLujK0UKRZWS133QDwzocYFhdQSEHAPFnzh8/CB2/vDTrtER5ms5FXEGazwUcHpYxqCQ1amxVGn1FMFzY5MqROO2xB2XAA1s7xrbSQtAVEQI+h88XV7Y2SmqlVsiUjJHlfISBWS3DyBoKPYFCoWHbsMVq5WnidnAe45hb1qSR1pwp6kZJk0zL+MeMHi4QCCRdAg3Gk7aRUGik7QnmjwiuZKBY5BzxMYbRyhQqlXozQSVV6TSSPfta3Yx/Pj7Dehy+YjJCR0autrVdHREiQrLo87DsTHzez7hb9+2RNOrUkpoSVAqVVKerl+tku7RavV7f7I+zvmKg2HbhQhsXKPrYeX+zXq/VanfJdBh2D/7qGr8GXk2ZJVer1Q0NdW9u98c9HnZ+nvWwcWb7m3UNDbgg/7dybNY0bq5AItdholopWpR+o9Ho9ytbFK8cxAqNpLHqkNarmqRbnbe7DVqtYXedZAshgnQTUAPalpLLa2z/ZZHD/7qq39wB/K8vKSL8D/oHFOQAvedR4ycAAAAASUVORK5CYII='
p13
sS'twit'
p14
S'data:image/png;base64,iVBORw0KGgoAAAANSUhEUgAAAEgAAABICAMAAABiM0N1AAABPlBMVEUAAAD/6LbBaU/qvpTBaU//6LbBaU/BaU/BaU/BaU/BaU//zE3/6Lb/zE3/zE3/6Lb/6LbBaU/ZmnfBaU/BaU//zE3/6LbBaU//6LbBaU//6Lb/4JjNgmT/6Lb/6Lb/zE3/6Lb/6LbBaU/BaU//6Lb/zE3/6Lb/6Lb/zE3/6Lb/zE3/zE3/zE3/35X+37L1oZLta3f7zanrYnPxhoXz0KPwyJz32KnouI/gqYPRiWnBaU/FcVXUkW/6xKTNgWLyj4nzmI7JeVzYmXbksIn74LDudHzcoXz/zE3/6Lb/02f+xU/tZ2r3oVn1k17ub2j4qFfrYGzxfWTqWW77tlPyhGL/4Zzzi2Dvdmb2mlv6r1UnKyv8vlH/2oL/0Fr/46Khhj41NS3/1W7/3Ij/5amukED/3o9CPy//zlT/2HvywksfMb3pAAAALXRSTlMAUI+/ABBw35/vz9+fAI9A32DPMIC/r1BgrwDfUDDvz8+AIBC/EI9wUCDvn3A847QFAAAEGklEQVR4XrSW2W7bMBBF9a5YzosAo0GQGIgCIfV/XGpfvWff8/8/0EicmqTHdswCPS8GiIvjmRFFyvkfhJ6PHt8LB3vZk3IGRDBxoeFOAqY4kFKikAIKl1V1MEUiDxx4ynAwpUQBdR2n2fybrIhpCqo9PVXIVKqlSCQTy6re0K5lRvNQat2qVLWkFIl+99VUtcEsprqNvuKZmapkSopCAGiSeou8L4pmSal1vp1KGko5g8DtPGXNKDvTzQV6Lm72pTqTG3yLJgBiSpgssMViV6qMAUy+RS6AOQ/QvBU0ac4cgDtwQgAp1+QNdtLkPJsCCB0PQMI8GfaSsXACwHN8oGFtL3GAJRtoA/gOgBl/EIfgD28GoBPNucfONCdRyTyWppJErOGfYGPdJVrgKBY/iSocSbUt8oHc2O9HYb5VOeA7HtDqm/RoUiVqAc8J9aUEFiT634fOwNWqLGBBoc3DlcdIxgqyKimTx0igSkphRaoKCuiopSpjWBFv5hHKw9+j5ipYUlFjnnYdzWhTW7GQHt+4IIuybmBJU5eFfkHK7uIW1rQx4LGPiAjWRPpHBBGcTWHN9Cxg30cn4l9E4uQX4dDvtdBFD4+r1eMDCL6uROLaFA2FLnpd9byC4OtKJIaG6NQQvUvROwi2rotOddFIGKIV8QWCryuRGGmiy050by+670SXSnQuepgIJnxd9JxvRGMpurMV3UnReCO6kqInW9GTFF1tRELybCt6FpK/oiGJXmwf/wuJhiQaCSKy25CRIEYkGgtiaveKTAUxViLiDQYf0eftlLj9jD5g8PanVfrpSRwI4zhetIKQJlLXuDJBEhyj6QFUsAMtf1ylsj+vTbihB33/72GHzrOPA2HQZPdz6WXmm2dmCncInVdqvL4sOx/Y8NFZvvCCDhwh8rZYwQ6Lxfty8QZih87wj874+d26N7e5dnvThRM/v4DTXS8nvTs48Z99Cpd+zvpwOeVQCWvuYwWSW0BUfI81JQ6JerF/MEySlI2SGOjlrAfEyShlSTIcFMW6+AwdqcGY17DR5tG2LBkP1NFnKGykWylMcjaBSrdqhL7m+X5YSbebAnjIyS8AU8fCik55P63M1Jr98WmWQXs2nWdo2ezp0TqW1a388KoUqR3H2ZiLMwXSLWZ66IKoGe8fZ/FxjUpVz3xOLvyDfZpnNFewTfr9CWxq/nfl/oG4ODGjeDpZLW4rpMwww5eyIaXMTp2qeTIMpa/tmc48w7dkc1Pa87VVw/ONsrmzZoBvCprmlcoUMCE6V0PPFl218KXWVSSEbNDp7FBxYYcULwU7W62gJIzD4qHskKQOa8OpTRUuSXsi/XY16Vsix2UFkbDI1b61o8mwTB0WtevYUG9ThslyKDnkdn4dXIJcBtfnYgdP/Cd/ANB+z5fJQYHYAAAAAElFTkSuQmCC'
p15
sS'gmail'
p16
S'data:image/png;base64,R0lGODlhDwAPALMMAAAAAP///8yZM8zMzP/MZplmAP/MzHcAAP8AAJmZmZlmM2YzAP///wAAAAAAAAAAACH5BAEAAAwALAAAAAAPAA8AAARVkMlJK7iA4au3MRdBCOT1ZdcwjCRZcBIwBGz7TnIA0K1+a7qdaHS55QJIDE/wOu4Ci+RIcUEmAYcqkvpEDg7gmTdlHSDO4kECJQ6o0muc1oqpxDaVCAA7'
p17
sS'related_to'
p18
(lp19
V\U0001f42d Mouse Face
p20
asS'name'
p21
Vhamster face
p22
sS'known_as'
p23
(lp24
V\U0001f439 Hamster Emoji
p25
asS'default'
p26
Vemoji
p27
sS'bw'
p28
S'data:image/png;base64,iVBORw0KGgoAAAANSUhEUgAAAJAAAACQCAYAAADnRuK4AAAQOUlEQVR42u2dL9QNXRTG3yAIgiAIgiAIgiAIgiAIgiAIgiAIgiAI1hIEQRAEQRAEQRAEQRAEQRAEQRAEQRAEQbjf97trPda2nXPmzH3PzFwze681C9e98+ec5+z97D9nz84qJGQXshNDEBIACgkAhQSAQgJAISEBoJAAUEgAKCQAFBISAAoJAIUEgEICQCEhAaCQAFBIACgkABQSEgAKCQCFBIBCAkAhAaCQkABQSAAoJAC0G/nx48fq4cOHqxMnTqwOHz68Pq5du7b69OnTYibl+/fv6zE4fvz4+vmPHDmyunnz5laOwVYB6NWrV6v9+/evdnZ2/jr27t27evz48ezB8/HjxzVoUmPAcfv27QBQSt68ebMGSW7gdFy/fn3169evWYLn+fPn2QVkj0ePHgWAvGCyUoOFGr9169Yfq3LbVmHrBcSfmO3Tp08nx2Tfvn2rL1++BIAkT548Ka64p0+frgfs2LFjvz9jtc5FPn/+vDp48OBv8Lx48WJtygBKbkwuXboUAEIwR4cOHfpjcO7evbv+HE2zZ8+e1YEDB9bE8tu3b6ujR48Ougq/fv26nlAO/s519W+Onz9/Nr0e54MkCzwvX75cf3727Nn1ZxcvXlzfBwvGg+j9+/cBIFS3HRTAhCcmgTjz+YULF9b/BkQC3OXLlze+LoMPQDkHkwUwAWuKvPvP4CmnTp1a3xOmhsndFFh4Wzrv69ev15/Bcfj31atX//gu17P3cefOnQAQE2gHJeVpMVlMLtoAefDgwUar8MOHD3/xqVYHWpJnQYPUgonv8Tt+f+7cuT+eF5PGYrGCxrUgB/SLBlDKfKGuvWhFwg008AKBHfiUvH37dh1DGQI0JTBduXJlHZYoiRYC5hhwKw6G1sPbrHE24EqLBRAq2w4Gk5zTHPz/jRs3/jJtHH6iWLn37t37zZf6HPARvJ/UweTVhBq8ScZUer7GPUr7WK+SZ8lpYgRg2fNjAhcLIGkWHfCJnKqHdzCBVntJq/B/DCSDjhmpmWTAxfXu37+/5jDv3r37y2SkBA3BqsdUcf9MPuBK8Sd78P9wGH7DfVpNYq+LieUzCHsu2GrP63nSogDkV9OzZ8+y38VU+cGGRPYxK7i+aKYh1D7AAogAuI/mg+94E4UWzAk80IIVB2CxADpz5swfg1lyy8UXLMg8qUyterQMPGjs6DVmF7B6jucPa6oEjpwmllg+h/ZdLIAUPNNRmmRAkDJzxElSE8Pn25B8RDNh5lIpCp7fhixwEvicxVISovP2PPYciwKQNzFdLi/chsHznhxgEdGFE2xDgM0LphcgoXV1r/AuKzgJNZ6V19w5vrQoANXENFTeMVdRTKxv7CwAZCLNAaDuKSHGFAByAGJQAkB1AJKrHwAyg0C0OABUByC4VADof7EBv5rE6FIAlErnlADU9f3ZAsgWTNXUtwC4kydPzhZAaGHGggqFkshbUx5tsXEgG4nGNS0JQbbdlnBsuyi/V4rIey+sa9xmDSCb1/HxHS9UJW5D8nBIUbC0SxvbuiCbYF4cgLDdtWRQuTAVXc1RNB6Y6lJ02aYypi7tnbygzA5GroSBvBI5Iux965LSbRPxQqoEUkKUels8sK0AkLXnueIwfacryTgHUT6MjHwqN0i9uM2lTS2TA8jWBKNhVLYqYYUp476NOa7WYqs04X1eVGxfU425CADZuuCUl0VyVBsKlyJoIRYN5swK/M+Wr6jEd9EAIkvtSx0sFwI4c96NWnLpqTKQoH19XXcA6H+B18h82dXF4E1NELdB0NAUptmovRYcFQxTL6xJAaQdCKrtpT7GRqcBFJ8vEUgCjtU6AEa12HbX7mIBZHdWaEcmwgDZUlAVpPetZSZQySSQO2Kgx1qtBATxlja5LmW6aGXLC9E42q2r7/Qpg5ktgMhryXz5+A7aiSirHciaTLU8GeWV7IHXMnT5J4D1ddo8Zy34rcZBO+NUpJKl6hPAtaYs3Z0MQAoO1qwiAIEZq4m68j1fM2wPTKQPFbQSUhC56xKzqZloNDFj03WPtiZoym4lkwHIJlJb9ruxHTzG7GxhzXFp02IrDQhftOCcikxPAiBtFNQAaFvvbsU3aigdLXNIcBLtMOnaYNgyGWx3tXRto54VgOyW5pYNAmxaBLUOUHONq+BWrQqxtEtCXMdG11NbnVtpC4VAakuCZwMgRZdblyPIc7OgJClZalzVZBBdYlNbkHLXbaVxbTlMLnc2SwBZz6qV6rVbfm19tZKTqaNrA1+t+UptjCxtb24FXK5ngUr4YPYAsuSvazvzpvzHeiU2ez1Ex1M9jy8tLXmCLasqrdMwRXHZ6ACy9bwQ6VZq1zadUlgAj2folrmWz8mE4Yp3dQZpJXaXaldV5ywAZB/YtmvZrfjNdngoPknrg5KtAYS2g990defA1LYqjPO9AcbmQYMACE8ENc2kEpmlSFymSg0lFdQbApi5g26weF4KwrUGUOkgCn7+/PnfnVdb5ff8NmfGmWeED+EN4qnxnaFKXwcBEISWAfNtaiF8Nk7SEkC5nsop70cdz3Jlo30XSw2AtNMCDYFmHApAXusy3pi2Vp7f6CaM8D2rlGizV7cAis920+W0FkAMotQ7WtEncFsF9FIHk6rUhLYn7RZAOA1E871ZJhYFH2RMx6hiGJUDeXXPw8sN5e/Eh3DrNwFTCUBwLTuYmBJWZqu0Qsl8ch1Mp/faNplcfov5tRzLa5yx82KTAgj1S0UittoCwHY5rSWFNjjpDwtIQMOktiTwpVZ7PjYDmFg0tYsE0+O7zKJNIeyA0G9zXhyArDAgTIYl2qw2ANYFpFQnd9/AG4GLtAoi2mBiLgfmyzjghjXF8Cweu6gAEEDyXMYDCPO8GADlsuKAhey2DcYBJFZvDkis6Ny7JWxHdyYPDVDTkbWPYBZL5BnhmvZ1BjngaBOlUhTwx9xzewCN/UqsUQHks+U1+7oBnV2J5Ltyg5Trl8jkWvI8xCsCMFUpAMvTw3QS4IRwp8wX/IaOrdZMAb4uzet7Bc0aQJgo+7CE4ftoL5FfxVU8Ec2Vc7Dq4VT8lt8NFWxL1QTBzQCCzLKvfQJMmCY5E3hRNcDJBVBbeZZbG4n2HsomYQGpeMi2HzAfF/GaaOit0ZDbHB/i+hYYbNVRLguAbbLv3240rGkN888DyKv5TctLLVDgUpbTYA7QBpgsvXsV0jxWmB8eY+uQ+LvVKl7rYLo2rU3ySduxm02NDiAfr9lN13hItdxbuMU2bLSrAZe0DosJPrYbrWh3r0zRvW10AHmvYbf10Aw+55RmY2Vv6y5WCLXMW4uNk/61B3Yn62wB5OM1rQrcUd1qvITJGHMfWJdgUnlOJptwRKvCL8W0pnwB3egAYqLtqoEHtNpmA2DwenR+G3TTKwdQ80MkFjk/fAQNaPkY9yTtiIfVMj/l6cDYBHoSAKWIX+vwO56a3clpY0Rce6h9YSL2AMXyGrha6y3IqiiwrXEWUxPt3xPm9zWxgiHXEE68KVQz8Q4mqHQAGibK9xFSrgrt470UrrtJWYdqi/y55FbzpwUR3+V5uJZqdEoHlZvKqvM8/oW/fhPjVG9xngRAAMTHSuAt8IO+bwTMHYoPMfi6Vsrjg48QT+q7euFbqT1emDKVWABokV1fdrHpwWJDw/nxm6rJwqgAQu2iURh8DxRUMGaG1cnK43t9DrQM/EcrGJACCpnLXNRb0eO+3ATA54rjFR2m1EJ8CG6ke+PvfZ8RsFL/w+9T7yADVKQ1WBBj9pEcBUB4CzawRtTVq2BWVOs3CdrURu5VCgor9N1elOogJlFL4iFyUywKW62gtI7ebG27eYzxHrFBAWRLEtA43kPxGezWdtxm/3MAEYD6EHnMYqkk1+b8WgMI7uWL8uQUoHm4noKraKqhI/CDAIj6GGWW4TUQwlSI3XbokBbq64ral+Ci5gGC6ocsgHJ5JgGo9J5SL8qA9wEQf3ItveQXEPb1BhlD3zzCVjtaLcUYUO3AmAKkofbOD1ZUz4PVdFVViUWuBNRHnQEdg4OXU6pFZpJqNJDdT1YTH2JydF2ViXQBKOU0WO6HeWeRcY+5jZac0+9xq2kuxfkwqUO9X37yHomILaDyIGLVsWpzTRKw92gCJkCv/iYnxkTL1JQq9Wwb4Zodo7ZkI3dOu2ddBWWAWYSY3+EweC5jc1poOU069+i/i2YfKp71zwGIyU719WEgvbfGQDL4gIUBLtl3baHp2kKkInWA5HmaPRfxK+uO51a1rZH270VNaWu0Jd4nnpR/XrSdr2DgmYbSKP8kgBQ9zpWkMvms4BqvggkRF7JEvcSvUPHWxDBBTCgTy2/waDzAc+1UuL4ACdgwu5yf+6npUCbNWep21rKeexYAYoAV28hxBTRPjhvJ1BEHkoZgJXtPDIDmKvYwNbVBzFzfajSX3XKDGUJs0Rd/L2kl36nWm3aND8+6eBPGgGtwVXQF6cvxHRVfieNoxdv3ssvrs5NkJwSQ5Lb5Aq6cFuzK22FS/H4tEWLAze94LoEAM2ydDGmd3ALifAQJIfpwNZ4D8zZVZ7JJAcTkQyQZFAbdmxZl1bt2mrLCpbkAVg4YmBFf+sm/U669+Av3xf0xoeomy29SXg6AtRv8Shl/gKaKAQ5MJd5UqTUe7riPlNvyFf6cqpf26ABilWulsipLvAYtUtM0ATB1kVVAlNp6A7dhQuE5rGwmku9xX4BJnhm8g1WPNsMrhGwDKG/2uJeuslI0ry+Gz7WBsdo2Jfw/4EVz+gqE2QEITcOAo8r7FFUBOmmB0sGE8t1SLgiCnXOf/UtdcLkBl72P3O+YQLRJab8ZGo/vdJlJRZBrOQ7XVNfbsYvKRgUQoCltkusS+6rHrmYG8AlId061cy9oATSKzJUlvlrdlvMoroSWwkxhNtFWPFNKk/IZoGNyu3oGWbd9002PAHTsrPzWuPFdgiZgktFimJCSFkmtaIKVqHh+z0ADDDtRSk/YYKK+5zWQ3VcvPocDACjRWpyjT2kKoEEzAVBAiRlsvXN2sQDCHOGxAB5PTOEarP7a1Z0KVEpDqb6Y64hPcT3FXDAn8g4tyHJbmrsOwg2AFtBYjSwHAm425SsMZgEgJg0Tw4rs8jLQDjWEO0VUtdpV9gqIAAkmE43A36XxLOhqiHCKtAPKrqAo2hLN1OUcBIA6AoxMap+AGVoDE8fkA46uzvECEe44qx++Akj879AYgBk3HK1Yw8c4B8CT+cQk9uF/cLCpX+s9Gw60m5iTusf7eI03Z/CXUtthtAaxJtsEIfUeDgCMRtyGSHEAqLHofaRdpBYg4BJjbiC4iiKXfoepW9qrORcHIMV3akxbn2OJ4FksgBBiRF0BvdoDr2mJ4Fk0gES4S68kqAlYjt3QKQC0heJ3jdS8OI4A4xJIcgAoJAAUEgAKCQCFhASAQgJAIQGgkABQSEgAKCQAFBIACgkAhQSAQkICQCEBoJAAUEgAKCQkABQSAAoJAIUEgEJCAkAhAaCQAFBIACgkJAAUEgAKCQCFBIBCAkAhIQGgkABQSAAoJAAUEhIAChlJ/gOsMWzK+cvYEAAAAABJRU5ErkJggg=='
p29
sS'version'
p30
VV6.0\u02b2
p31
sS'uni'
p32
V\U0001f439
p33
sS'desc'
p34
V\U0001f439 A cute hamster, with pink ears, orange over half its face, and white/gray for the other part of the face. Has three whiskers on each side. 
p35
sS'browser'
p36
V\U0001f439
p37
sS'annotations'
p38
(lp39
Vanimal
p40
aVface
p41
aVhamster
p42
aVnature
p43
aVpet
p44
asS'wind'
p45
S'data:image/png;base64,iVBORw0KGgoAAAANSUhEUgAAAEgAAABICAYAAABV7bNHAAAAAXNSR0IArs4c6QAAAARnQU1BAACxjwv8YQUAAAkgSURBVHhe7ZtrbBVFFMdvL5SWWqBYCI8CytuIPDS8ojwqJRGExJBqNTFAhMREhX4wRAi0n1oIGDXGEvULEJAPgpJoIvIINiDyEFCKPKRAMdKW0lCgLVBe0vr/7z17s3u7d3d299I0ZH/J3DMzO7t75sx7dm4oICAgICAgICAgICAgIKC9kSTysaOoqGgGxNBIKBQqLCwsEa8rXBsILy6AmJ6UlDQ1EhMKtbS0VEOUwe3yqkgiEKO8A/cS9MvSIgXo2ACxLRwOf7pixYozkVhnXBkICvyEF8+SoCVQ5BjSlBQUFGySqDYBuq3DexdI0I5y6PaM+B1RNhAUKIECiyToCAy1FrVpsQQfGStXrny2ubl5I3QbK1GOQLf10G2hBG1xY6B6KNGte5e0m3OnT7jVJS21D+Pv3HtQW3uj8f7PR05l3LjZ1EVLLECR7ajSH7mp0m5gk4JOn8M7PBITYcrIIVUjB2UlpXdOeaJjhw4Z/z18WH+h+mrjtv3HB/A6mxsMlKEldkDJQMXFxfMgNtKfP+flGt04RppbmpuuXG+8tmHnof4SpUFlIFy3fTtoGIhFMI6pub8wdEBN9uhh4c4pyb0kysSOI6dr/jx/Sdd9vko3EBZpCzLZTbwhK+OQcFI4rW9mRv8ledPrBvftUSfRIdY6uAVoBgeRsS2SOU/g3gI49oM7Yo3zds74ypnjR/SJZxySntrpoXhNebJDqQZBqcVQ6Av6P3x9eq2dEoS1adfRvxsMpWUCyumjXq0W4cxguDE0diRo5oPXplZnpKeZRi0r9v91vurXkxf60Q8dZqKZ7dQu2KBkIHaEeOBp+llST/fONDUjK2ikrXv/aKq4XNdDoh4J786aXNUzI13LtB3sh9Z8u1vrd1hAMI7jPUSpibHvwEP30c/OmC/TLtjAJjdn0hgJPRpenfBcpYpxCDtp8ZIDIh1RMpCwjT8cqQ6dvnhLi3EgJTm5R+7k5y9JMKFwNB09OCtTgrbcbLpbo49gwgaRjigbCFWyBLXoGP1sx2cvXVHK+MA+mWniTSjTxgy/wVoqwbjce/Cg7ps9v6dLkM2LcyDHvkfHTQ0ihXgBh+0QS0TFSKxF4k0ovZ/s2kG8ceEcbd2Ogyn6/IwFDOMoTRB1XBmIlsdIkm80EucWKn1SW3P5Wn3lZ9/v6WWYvJZjLjZf/Mo4lkIspaWlJ3Jyci7DSNNgrNSa6w1dDpyqSB2S1bMSw38LlEiVpBr1t5qqj5b/21WCCaNzp+TGp3pltnou3/fDgbL7pcfPRacY0HUf9JrnZaKqvNSIRdZAX8JI0VU94TR/cFbPFvobb99tiekcEwonpFNGDb1DP99VWlbe3bjcgWE43/oaNb84EuMezwbS4SQS4hW4SfEmcm0NawzEHj+G0fFtIB0YqgoGcpzNtgUw0HYYZ7YEfeF2FLMExlndXoxDoMss6OR5zWckIQYCOSLbE2+I9IVvA3ErBCWmtFmFqt8Atx7pR0DmS7QtSFcNN1OcttxRJFekLxLRSTtuw+ogg2vQNyyTIO896mRc3GPa/fPzPi8koolNEmkLlOUuXqyyF0XawW0RI7tEqjBRpGd8GQilWYDSVB3aYzNKlBa9RmBkrgm1mbwT0G0q52sS9ITfGuSmhA6LNBJdRNpgVQC/iXQEk1luF3vGr4GUmhdBaVpN8weJtGOgSCP/iFTBVzPzbCA0L27DKs+crTbIcb/pK0gcrGrZOZGOsJmJ1xN+alAitgtNn2vioFLLbGFhitc1fgw0SqQSsZ2lfEpSIfp93YDbNZ/nwvQ8D0IGtRW7Khh5tI+I6DS5uucsN1e1ieJerso34/5NvB/3tfpYaAfu50bZOAm6wpOBUGX5RXOHBNs9NDAMpLS5H4vXJmZV7dstKEzPC2m/w/xjT2AgB9rMQFwewBXCWx6JcQ/u5wcDpV2AROHJQFwPiVcZ9AP5uK8YGbwgUVrnCbcdjtsYUcNJ/DFxpnWXrMXWSlAJPke8rvFTg5RrAhTcypm0LG6NWxU8sjcbLpunvpBO2/dBuB/cODqkOR9JqoFHFM1A/GKXmVbZNbDEs4GgoPL3bbBBJopLIsEoplMiyPhOOgnqk8voiAnjct5UFAmFfhTpCO7bLl7X+KlB34m0BYbcx0xjgveeZDAKa5PdMgD3fGxxz1jOwvFMNleVbQ+eSfR8XtK1gViqyNRqeJcpKlghMt6qms2mlZEQt4UGlKAJvFdfgFrtMZlA2nQ+y8XSxoTSTJpGkX2ViVDatDqmkWJL2Qiuo7ALoZ/90gTptE81YizbfW6k1ZYOSKt6slUD93HJwq7hJHXSIh1wrEFQogAPPg1FltI48HO45sizBuERSMKh2w7V3T+9tvAkmfKJ1XjQGKLffPjXQ5YjnAWXB4dsFSmdJ+go0ha+DILV+bCF5c/gZXzxUgnHotUuPMO2prnktkhL5F3L5Vs8ndYHQU9+K2NBjIQbwjgnfH/VkLa9HM5ydc3Sg1EXQjm7LxjlSHcC6d5EOjYxfrKJeybR8My9SGO5IYY0W/k8CXrGzyjGElkNRXi4czjkPjjOcmPnRzyASX4RaYL3cA6kZwayBC4bLgPX2DSs0EdQ0z4P0m+F084wwXB5KLyzUms846kGSafNIVjrN6CQ6VQ9FYOI1iikY1/AYXs3/LH/oVgbDoe/ij2aIhlrdRYa6TltyMZ1Tjr1ORHjo9/ARD/t9D2NhahPcM3TQQbXBjI2KbycHeFy4zxDV5zXENwMx+G9AgqySZgyZQTpozNjpOFedasmK5l9C8/aiWfthZ+fjW4jfR5kq/9gIE307xO419Opf1cGinkhDyW9b3yhlNxBpGHfET3Jzng9HZ7Bgw7xOvS40Di4j81xk/F5BM/U+jekafUfDBYo4lfhOmsum/8qY4E6oWygGONY/lEFabRO00pRI0jHv1QtQVrVUc02Y8aCwbu5KDYtpuW6dtgL16O1MHLVHjeddC0ezmYwP45x2Hw4opTbGYfgejFq34s0pChsCa5xVb+GTceu1KU26fOxVrWT1/HObDyLuwBleLfy0WTfw7wOaxjEXBhJawaRWDVwLw0+DE4/1nsVzznj4TnrIHJpfGMTDAgICAgICAgIcEso9D9S94pOinQGAgAAAABJRU5ErkJggg=='
p46
sS'andr'
p47
S'data:image/png;base64,iVBORw0KGgoAAAANSUhEUgAAAEgAAABECAMAAAAV8YMOAAAABGdBTUEAALGPC/xhBQAAAAFzUkdCAK7OHOkAAAMAUExURUxpcfeTKfeTKfeTKfeTKfeTKfeTKfeTKfeTKfeTKfeTKfeTKfeTKfeTKfeTKfeTKfeTKfeTKfeTKfeTKfeTKfeTKfeTKfeTKfeTKfeTKfeTKfeTKfeTKfeTKfeTKfeTKfeTKfeTKfeTKfeTKfeTKfeTKfeTKfeTKfeTKfeTKfeTKfeTKfeTKfeTKfeTKfeTKfeTKfeTKfeTKfeTKfeTKfeTKfeTKfeTKfeTKfeTKfeTKfeTKfeTKfeTKfeTKfeTKfeTKfeTKfeTKfeTKfeTKfeTKfeTKfeTKfeTKfeTKfeTKfeTKfeTKfeTKfeTKfeTKfeTKfeTKfeTKfeTKfeTKfeTKfeTKfeTKfeTKfeTKfeTKfeTKfeTKfeTKfeTKfeTKfeTKfeTKfeTKf///y8vL/qUKfiTKS0uL/eSJ/iUKfeTKPuVKS4vLzMxL/eRJfKQKfeSKCotLywtL/SRKaxtKy4uL//+/kA3LtuFKjIwLzAwL/aTKfeUKv/9+rVyK+SJKqVqK2dLLfeWL/q0aq9vK/eSJoJZLfvJlPmpVfeXMGlMLUU6LtSBKm1OLfWSKSssLe+PKfmuXf7y5f/59P/58vvMmX5WLYBXLfq7d/zcufifQPeVLPq5c/ibOf/37uKIKt+HKv/69fCQKU4+LjUyL45eLNeDKjo0LvvAgvvIkf7q1fzZs/q2b/eYMs9/KueLKZJhLKpsK9GAKtiDKuSKKvimTmZKLf3p1P3ixZhkLPmzZ0Y7LsZ6K/vFi1VCLoVaLfihRf7u3jw1L6RpLHxVLeyNKcl7J/mvYPy+e/Dw8Ml7KmBgYOqMKYdbLFFALpycnPPz83FQLfqTJmRkZNra2SorLEZGRkk8Ljg3NXhULfq5dPvChv716vvFjP7z6P7z5/iiRv3jx/zOnfmxZfzYsvikS9SCKviaNmRJLYpcLJZjLPzUqsJ4K9bW1v3o0UJCQnhTLct9Krp1K/yrVsmVXYJYLNqEKqNpLKBnLKZqK4xeLs/Pzz4+Pkk9MWVLL8qkfE0Sp9wAAABidFJOUwABDywE3fr+BSON8+GbBs4MgwoISR46PkWpIS84/ciX7ZMDGe+42VPstXPbQvY09emY5ODCfvLmFo9cd5X8FES9q7vXDfGSWI6nY6TWoTZ7MBcmsMv3Zytk01oSiJmLatCAOYdLBwAABdFJREFUWMNjYKA6YBRWlmJiIV49C5OUshAjhjCHTKKDMyu/vD0HccZw2Mvzszo7CMqgqZeyNE8CA4U4C2LMsYhTgKg3t5RCFtczSYIBW0dRwuaIOtrCNZjoIcSZQ5IQgF0S7iYBKTF3ay43T083Lmt3MSkBuHsk2ZE0hDDDxJmCk5ABm6kSSDRQQlBTjZsNqoWdjVtNU1AiECSjZMqGoiGYCWqQVyiYn5WXl1cAYhiJMfD5CcpxJ2EAbjlBPz4GMSMwJyMvrzULxAj1gnrACSxeMPdE+4oDYBlecV7zJBzAHCgJtram4257cydYvRPE08w8YHNmzaxNLtu+qwbI1tdIwgM09EFk0+1JycmTH4FN4oGEkoQrSKKmvSwZCCYdL0giBtSsmAxSPrm5FchxlQAbJAIKjKy1M5PB4OHcLCLMyeiYBFE+NQ8UdCJgg3RUQAY1PYHILATbQRCshKgu2wsySEUHkqq1wXY0TwFLTXlMnEHggEg++DQDyNGGpG4+SXAsNE1dCJJavZYYrxU8WAVSfP8WmCfJB4l/dXA0ZHXO2TGvdtXWDKICu2DNvdo7qyeC4jhJXx2aIF28oZLPJ87YmkQkmD1xRkcTxFJvF1geCeeHSGZl5GUQa1ASXC1/OCLXisklkQ3kxJDLBc5YBfKMUYjlRC1hhHUU5fRJNUVfTlFHGLO00uMh1SAePayFfzwbqQaxxTNiMYjJgfQQcmDCYpCECukGqUhgqV8U2Uk3iF0Rs/bi1CYn9rU5MQwKYyPHILYwdHNcNMlLkJrowa2jQp5BKvZoQW3ITp5B7IaowR3AQ26e5QlAaaJwsZNrEDsXclNI2hghk5manZqGT2saUEEmgmssjTCHzw3hoLT6kp0l9XhMQlfA7sYHN0jGAOGeb42VhbldFZm4zMms6MotrGz8hlBgIIOIMoR1i6al56TkpLcV4zKouA2sYNoihJvgESdthLBvU3lpSkpKencPDidl9nSnAxWUlm9CKDCChZIWIoQyS3JTQKCqLhW7Qal1VWAFuSUIg9i1oKWsKpKFDZVgdTmHcbmoIQesoLIBSYGqMFKzBqquBeKiFIIuakEyCNqsUUfK95nrynPwh9Gz3aAwyilfh6SADVLVaiEnEmCsgcISFmtpmZlgDZmZxfBYA8cGcqwlJYEDSYkLxcbN23JTcnsXQO2r33Nq/oTi4kXzS6bXVUMULOgFKti2GcXFXKDmK4s8asLdsnFDy3qosr6Xh8oXd0070rV4SeGLfKhV61s2bNyCmvTlWTANAvoC6h0QeJVemg4GOen7q7EpQDbIBne+yvy2Lx0Si+nlpzJxq7MBGcRoiienZ+7ZVwoM3Jz03T+L8SgzBVeUVrL4TFq2vzsl59CHj9V4FMlaoed9bCYlLU0pPFKciU8NNP8zmWA3IRuSgo72phddXJSZBi7zsJtnAqlKGP2xlbPVbw5/68tOLZ6/dAnQa7++TViUv2jBpx6spa0/tC3BbIylHDy6Lf3c2e8/vp6rTO/vT6/6++/mzYuLl/QexVJ2GjPDi35sBdjSysLCoqL+qynvT5/+k3K1v6iosLDq7CIsBiGK/6BILE4687Px+qEb1y6ff3vy5O/zl6/dWH69seEMFnMigxClv5UZFpMyJyw79uXKBUhf4cKV/6eWTcjEYo6ZFXILMsYWW32ReenzvGQYOHEJmzFJtjEorchoXmwmJWXNfQczZ+HxPGwqbHmjUSt/O+wmJb2GGXTwQAZWc+zQ2zV2ltzYmvczQL2gWiCeORuLNLelHWbbTyhCDYtBs3bUlm2fOiV53hosDlKLEMI6LBDgi9lIypo1Z29H55z2XZgOUvENwDXAICTiiNEtLsjIyMgCYowusqOIEJ6xCiFxD35dwm0ZXX4PcSFCoz/KIoKqPgo420vsCj6qgiLKjESN6fCJikdZKzo68Sc4s8KBcwK/k6OidZS4KB9pA1NKfMICAsqccKAsICDMp8RAcwAAiXS0RtoPGuoAAAAASUVORK5CYII='
p48
sb.