ccopy_reg
_reconstructor
p0
(cemoji
Emoji
p1
c__builtin__
object
p2
Ntp3
Rp4
(dp5
S'emojipedia_url'
p6
Vhttp://emojipedia.org/front-facing-baby-chick/
p7
sS'index'
p8
V270
p9
sS'code'
p10
VU+1F425
p11
sS'apple'
p12
S'data:image/png;base64,iVBORw0KGgoAAAANSUhEUgAAAEAAAABACAMAAACdt4HsAAAC91BMVEUAAAAAAAAAAAAAAAAKBgAAAAAIBAAAAAATDgAVDAANBgECAQAHAwAAAAAOBgGteARyVgB1VwAIAwFzSwNpPQQHAwBoLgi4lgqXWgCJbQCEUwAqEQJvSwCgfwRVLQCphwiwjweNbwB2OgZoMwZ8PQxxTwGZewOFZwOtjAmohgyBZgAcCwGVdQh6TwB6UwA2GQF/QQCNVABUJgSigApQIwZ8SAdYHgKPVQllMAmnUgmSbgSlhQN2PQhaIQabeRKujgeTZAOVeAKdagCOYwVRHgVOHgVAFwOYeAJYIQWLRArVpirToijZrC7csjLRnybXqSzPnCPguDXarzDRniHkvjfSnBbmwTnetTTQnSXToR/nwzvSqC/XpyS3egvCcArPbhjLoi7YpxvDXxXIhxyuTRHooiiKYAG7pz3ewUHYqw/x1FqtiRbozFjmyVPix0HQuEHpz0uddQWriSXnxUHlwy/TsSLnwSMxMS7RmQGjfxyzkzjYvlLmwz6/mQkdHiHjyEfPtEz/6nVyNwHkux0AAArcmC+XbgLKrUiRZADfsRnTtUn73mTbuzXz0k96TQXqyUDrzUTu00v111wAAADtzkPx103FiwLpxz/ry0J1RQHGoyfZpg6rcAINDxf42FiujTe1kyKCTwW+n0HJsECkmDzn0G61ljzfxFDt0FfMrRvw1kNiKwLw1Dj95HDKqSu5YxTUnwTGrjvZvUiwbAG+mymFfEzpxjvCpELDfgDWu0CumzaPgTDDnQmphzCCYxuyoT3htBqaijHasBHs1W/FqEXz3XFXHwPLiwH42l28hgKfYQGaj1TkwDzIdhuMcyPAnxSyol3Vwmvu0UiGaBtWVlnauCeXcwrgzG+XUA6EOwufkTbUljLjtx7JtmTMlga5mz9CPijtzkdgWzuLeizv0EPVrzLMpQo+P0PJpxZ6WxaVggq1pS7w1GjdyW2kagCplTXWfB3g4OGSPAH10kejTw7iuzixZhbZiB+VlZqoWRKpqq3dkSRtZ0U3okw+AAAASnRSTlMAEkY3BUoMAQgCJz0YQR7+GCMhaVYuu/z8Q/1ZQMqF+/CDrJDoNI9tsedVPKiI23HE5jf+u5FguvLxyanP1NXH2lviucuyitHV1GR6zioAAAcySURBVHhe3JXXbxRXFId5QAm8GYG07GpX9iJhbAtbwAqQ4kiIpyj/yPbee++9V9fee++9917ovffU8pAzI4IwMcmQx3xaae7cub9Pd/YenTn0/+bY1cysK1eyMq8e+09xfD7usWQTkDzGZeG/OJ6Wr5GIu+6/A+53iSXL+V+4C3x2rTjsKSqaAYqKPGFxbQb+i/IZki5PUXDmPcEiT5cEl4M9fzpDEvME9+HxSbDv4QipVu1hfoInVpudhlFA1rj5zKDLxaxBo3BxuYJMvns5E+MBZEtENTOG1W0DswaFaai8YXDV6CTp2I7iDM7NYRruhkLzhho2UGNYCYVuG4IcN46MJf/1N8t0TuN86JeN0PYMh83mBMdDj34LdTZy6MnvjmJ5A0qSzp6UFb5BQwAie6PVTrLpTRQs70CkNLWxK7XajUfmu43VQOMf5kcb2sIX7LamdCy1kAMCzrZWK5MV/iUolMm02hccEBzHIDhOSTpV4zIImTtdKsDVaQaZbFzlTFKwCE4IOpzO552hQrN5lY0I2Ktmc2Go87lT34FFcJRoLSnXqypvwzFOOq9ds1xzTs7DMVaq9OUlWyewtBEqq9tmU1Wu3BjXN7+2WF4368dvrFSqbLZuFvU0BsHhPErHxMSEXqXSV71dtFgW31bB2AZTHZS8I4cwkGstKesGJmxCY7PF0mwU2iaQ+7ISQe6/1RD+DPlsFomarrxVBnSz6nd+tvxQz+ouQ1Cy7KSss+Qz+LSDXz0nk5SB02gGBp5SrSzlLQSW0bj4+66Rhd5UCQXUp5oBjQaXQcrM2V+SR4hkUjpu4CFjbIzBqH02ShUIlVUAy1v/60/1pSxkrIT86LNaBrLm4QAunUQmfvhDLuUJZjWQNplM1x1SLo+2RBAIi4uVSqG9fne33i6sUiqLhQLC0jCPK3Vch2Xg0MwK8i69F1wgFERbxkZMUqnJIW3gV5cPr5daFYPFxcUU49SUkQKDQYWVsF5RXs2vkzqQdSNjLdECwoUPxTc3K2cg6hFHQyTCb6NVDHntAsXgoJA6NUUVQlxgLx2qoLXxI5EGxwiyUYZ89uVHVZX7claecjgcKWldJBLQ8WgVS4lS+5ZCYTUmrArFlp2QWK+g8XSBSKROii6E/MWPi+dyQVSeYqRSDWuBSICPGPqfJLwEKrW0lEoleBNP+pE8Hx4GGlKwUB4tuLyvqNLOF0RvtsgddYHAe0PfXv+QN4HiHbq314fmEeoc8pab0YLzn/QW4sn2nulp0xoADr6utxUUo/33gP7RvVfDrb06/hrKfdP0dE/7SeLf2gAYesThOwBI7ujovFbacN8roK+P1sqj69BpICzugfwBjSEXDOJ4PO73+8Hh93PpvbzyVqCc10vn+v1I2h8HxJC/eFA3PrXTLlaLRD4f4giH/XEfl47C5cbDgB9mYjFRTNy+c+rwgV+0c3ObC2pQxHzIRtAICjqMxyEuEqnVC5tz3371mYZ+LuleANTqWAyVhJEfis8HUyL1AuBOfv/Z5n665MGPCOBAFB+IIaghjjx8UEL8h69i05+Flc1O4lAYhgU6/QPKpFJi0mQWgplMMEGNP2AcY1TMKEhn+Cu1BQF15Q3ojbhQFnoFuiAT78DUhH3ZuHM7YQE0xM18Pa3mzGDqsyqcvk/e86XJJ/8CBoNiuXxw8PuVA6BcLg4GcCarLkuaWb/M7wOybDlAYmnKQLGI0rIMh5frLvtttv2ctwAH6uEweEvn95/bs26L+VrNZiVJymZBAj1sZDtro15/dRHMnNclaQ9wHAiUzb5SP59xETCrbRUEmYwjeUNyyKrtVcZ1MZ7WIZ7J5XIZsPwPGOqn7tuN3mire5CvVCo5ZMEBg9reoD9YraE6EmCAyHZpmpQJfbQdiU1d05RCofITA0kURdM0fZOY+ICt6kWjAYYCbijkCoqiNBoP1S33NEVR0Vbt/u6qVALHWxxQSqWru/taK0pZvB+24gyzcHNk1h7Onp6eShjw8+yhZh7dLDDAuwaUZgiCXquemP1UK1TV9QsHXa+GWqm+eVJdowkC3hpzUBN2HPL05PDFNJbZ6Nz81OMfxOPU/FxUWDbMl+EkSYMCGXAFBdjxQHhppWOaw0icFeJi4gsiIcYFIR4ZmmZnZSnMWQoaM+D1wzFjWOv1ep1RTPT5g0GvTTDoF2OjDhzUhkYsTI4ZnAI0l+wa/dHt4eHhrZEUIf7JxusVkwb6e9Q3ukne6YAJnAuwixFgOtVs7k6nE7ggkY7sNpup6QiwyJJoDrjAuQFJejwBjo8d96NwAS8m8Ab90f5xjOW5gMdDIoFjwGdIW4ZAgP/e7e6AAG8AU9jpdn+wHAggbwkAfIoM6mAbxO10XPD9O0S/z5/eFrkAlseGiI3BVnAcy7ICSBwEQWCt+tAfxSGPvmjqvS8RTQJJOJ5nLXie51AYb49lxyygAZEFaYOeCQtmrPpfjzTfoI4bH6oAAAAASUVORK5CYII='
p13
sS'twit'
p14
S'data:image/png;base64,iVBORw0KGgoAAAANSUhEUgAAAEgAAABICAMAAABiM0N1AAAAhFBMVEUAAAD/rDP/rDP/rDP/zE3/sjj/rDP/zE3/zE3/zE3/zE3/zE3/rDP/rDP/zE3/rDP/rDP/zE3/zE3/zE3/rDP/zE3/zE3/zE3/zE3/zE3/rDP/zE30kAz1lBD+xUX4pyRmIRP1wUn7tjX9wUH3oyCMTCL8vT3/vED/sjjst0b/xEf/yEoZpBN6AAAAGnRSTlMAEGCAMADfr1CPzyDvn0C/AIAA33BgEL+f7wiS4KwAAAJQSURBVHhevNfbiuQgEIDhuRASOyDYRZlIJd095z28//ttI86YTsWUOrD/reHDEgz49H9yaK0631PWojsf9XS4CnSvc66je/ADyAYJgge2Her1ib476b4NGqynTd4O1ZDTtJt2dVDvKZPvKyA30UGTK4XciQ47uTJoYA6TBglK+xH3JEPBESUZ0lSUliBDhRkBglIIjiGk4vAQgnIIjiCkivAA6mqgLg+5CDy/327vzxuAr7gNxCe7O3dpY/AVzEI6QrfQ7wBcrss8L9cLXyGdhcYHKDivyxxaXrcrRGMW4gNcghOkCx9ahNKRXufvrmlFhlhLghZK1UPzKg4NGcjUQiYD2drRbAbqOPSSoBcOdRmIdvp4m0NvH7TTPmSoOrML6XpI70JQD8EepKghtQNNLdDEIedbIO8YhNQUMgjaINhCPTVmNtDYCo2PkKHmzAM0tkPjGkL6QbiCgGJWBtinkCBM25Rn5J/iF+QgOl4lUx5I+QjBF9SvaShzYD1IHyG73qItg+z6SGyEMDlxTjFw6wuKAYoXHwy/vfJdNRB+ARE6q2kKK8W3ZUxf4zSp3BPCS46XnhClf4K+9JmF0gEJUAolR4ZkCevetAr2GVC1r2xnPWe8dWcZ4tRmVxAZEeL9+vzzl0L/OiODFQRiGApuE8ypS3PoaX5A0f//P7GhuF4CZm5DYOCR1/P+uGUc6RVQXyjgGYdnABZi1ZCymR+dbPTPEF/EXS5aD/Fr5WkRKk0L2iA43U+C0QpfExYmSyxMqqE+t85eDbVB13Zx7dm0N6LPuLcyirxCAAAAAElFTkSuQmCC'
p15
sS'gmail'
p16
S'data:image/png;base64,R0lGODlhDwAPALMPAP/MAKlBAEQ9Bf/XBvi3APimAPKWAP/4K5+HB71RAPZiANlxAOW6AeGLANhBAAAAACH5BAEAAA8ALAAAAAAPAA8AAARa8EkJap1YjnMsyBo3eEUGiNYwEAt2IghAADDrHoLQKE0OtJICYcAoBgxFWamQGjEAI0uhQZh5PNVG8GoxJEzcAtCFFQdAj4Zh3Uic0Y6APJBwoBUKuwSvf0QAADs='
p17
sS'related_to'
p18
(lp19
V\U0001f424 Baby Chick
p20
aV\U0001f423 Hatching Chick
p21
aV\U0001f414 Chicken
p22
aV\U0001f413 Rooster
p23
asS'name'
p24
Vfront-facing baby chick
p25
sS'known_as'
p26
(lp27
V\U0001f425 Baby Chick Emoji
p28
asS'default'
p29
Vemoji
p30
sS'bw'
p31
S'data:image/png;base64,iVBORw0KGgoAAAANSUhEUgAAAJAAAACQCAYAAADnRuK4AAALyUlEQVR42u2dLbRNXxTFXxAEQRAEQRAEQRAEQRCEFwRBEARBEARBMIYgCIIgCIIgCIIgCIIgCIIgCIIgCIIgCMIxfndYxrrL+bjn4929zz5zjrHH//m/59zn7nnXmutjr71TCcII7OgtEEQgQQQSRCBBBBIEEUgQgQQRSBCBBEEEEkQgQQQSRCBBEIEEEUgQgQQRSBAWS6AfP35Uz58/rx49elTdvXu3unbtWnXu3LnqxIkT1dGjRzvXmTNnqgsXLlS3bt2q7t+/Xz158qT6/PmzCFQ6vn//viLMwYMHq52dnUnXvn37VqR69+6dCFSixbl69Wp14MCByYlTt06fPl29f/9eBCoBv3//rs6ePdtpPY4cObLaeH62ax0/frw6dOhQ6zOxcksgUdEE+vXrV3X+/Pn/yHLx4sXq1atX1cePH1fWaQw5v3z5snJb9+7d+49USyBR0QRC5PoNxYXt5YZC2N3d3bXXPHz48Or/i0Az1D1eLPP169evk1g9oj0RaGa4efPm2iZugzyeRMeOHVsj7xhXKQJtGd++fav279//bwOxCNsGeSZPYDSSCDQT3L59e23zUghZBDZJx9K1UHEEYpMIyW3jiLhS4fHjx2tExiqJQJmDsoLftLdv3yYlsxfyp06dWlkmEShjUM+yDaNmlRqUTlKJeRGoJ7A2ubkMrBD6x36nS5cuiUC5gmKmbRQ6KBd3cefOnbVM+NevX0Wg3ECehc2xjaLNog6fPn2q3rx5U3348GGy16acwTOxgD9//qxNK/hCbkkhfTEE8hEPmxUTd2yuj87MnYzp44EsWBefc+JrdE8EPUdeTItAmcHXoGLoHnMysVZFn9AQ0CLSVI1/+fLl2s8inv33sVoiUCbAEvhw+enTp2vfp/LuP/1EZ34z6Ubsi2fPnq1cJlluH/nZQo9FEvvfsZT6WBEEip/uKFKvX7/+73u4LFbc8L4RG+4Qq0aUFV/f3GgU8bhM+z4WUwTKBJ4gbGrcONM+fM9Eb9xwNMqmMAIaCRDQdW4sCvWHDx+uaaUSShtFEMjrm0gErFHc1FgrY+GG+rgvr58uX75cSyCy4h68tv8+rlUESoy4KTHTW2dtmtam8BFV24oEAr7NA8spAiWGtyZ1bgGB7fNDMYxHcJ88ebIXga5cuVL7PCwhVsV6sLFUbeTLKdm5WAIRVXW5oRh1WUbYrBWJvT4Eagrf0TiACIs/k7SM8DooVauJCFQjkFlokTrE3mgWwtdAKI5r2RRkuePzvJ7BytBgX4dYr5u7Dpo9gbx7aioR1EVJFiFZ9yJWZVNgNeLzzNogqsn3NBVNeb0unSQCbfMf0JL99SBZWOduLAUQk49tiElB/9pkwSF1nfuqs5pNNTsRaAuIn+a2KjcWx1sr3N2NGzca/y4kQSwjiOt0Sjy+w7MsnMdltsGf2qCWJgIlAgcD/SZ2RTTojWg5IBWF2Ah/mpW/E2tX/JkTqtGVQbqu38NHcZweEYESIQrSTTK7VOmplrOJuK+6tg5riyVRaD1GdQKdZ6GvrJVj0z4fTyC+FoESISYJp4hoyBtZZpv6mIli/jzF5A2sk08m9imhiEATA4vjCTSFnnjw4MF/1XTL3UzRxxMjQmmgxPCahukaY2FJR58nwmrY4AT//4fAt7ey6vSXCLRF+Ez02EYtq6tBlqin7Kj0WM0ShffcB1LNnkAvXryYLDFndTX+2xTxjWnDiJptCospAk0A3xFI+D0UdvymqeHeiq5DSVriGbEiCBQHGQwpUJJJNvdV12iP1bEi6hCSoqN8BnpIG60ItIfAHYyxQpQgPAmtZdWWP3nRVGlvQzxyPVaMi0ATwzfODzkTTzSEVWjqHfI9P5Qt+op1L55LsT5ZEIiNoPGK+hEaY5M5zWwAQhcN4csGvvwwNEFHfQ03RjiP1WCZ6yIfNKQBLFbvvYvl9egf4veFZJv8+8lRka/CiqXuq05KoCgqhyxcC5tNmO0bvcaE25QtfLcgf8YyDZ0y5ksuZKGNMHzdZfG6Fh+6oefaZk2gKcjTtnAzQ2EdhQhra93o03TfFb5PvVKOjUlCoDgAkzNUNGCRpTW3UbfQKfwMlgY3hsmP4naKEoHlfLA89AmNfV4bgUgdQABEPFYU19T2HuBGsV7xMGOqxrQkBIr1oDHWguInyUSeYXkc3MLYwVK4MEhujWhje5ctY84z+QBAhDHn8vm73v2lqupnQaC+IXGXCJ5ifIpvNkNnjHUREB1LVDe9Yyh80LAoAlH/yb2x3Ld15Jiz4ffzg6v69HQXIaLjHOUcj7eQXmg66ZEShO6xxzsVyXdSbk68VwKhigvK7ZOeW8LUZ91TT6JNmgfyOsP3KOPPl3bvVpeu4/SGt9q+5JLyQ5eUQAhTznI1JdOwSpZ1JbReCkhzkIMirCdV0fT+YIlS35SYRS2MN8EPyGzLmRB5oEsoZZDww6Sjn3JzfV0axuYqkmfiQwRZeA+I+JpyW7YotdCBkMO5+qyKqXzq8Oddb2BbWQNxmevcHYjiI6chZQsy+Dld3JJlNR7hyieTT+SQ+01zbFTH4vSte/HzkAbiTZkrK55AUSfRIQihMPP4ffIzbZuR43nzeIKkzi2hd7DAaD5c8xyuiJp1PxBvMJ/s2AuU66fVuy871EjWfM4zgopoKIvFylxH6PpRfHWN+yJQIsQpqblGZD4BmDL5JwIFxKlfucIXP3O4SUgE+ot4mUmu8LkuBLMIlAn8AO8+o+q2DT8ar2kEnggk19CIeLRHBMqQQGNOpopAIpAIJAL1h585mPPAgniLswiUCWxQuBVUc2sCM/gp9dS4RKBMEE9+5jr1wicS5z5csygCAV8myPFOUk6P+gJwCTf1FEUgf6yZXFBubswnO3Gzc6i0L4pAsUk/JxdBd4C3PjlHioslEP02vl2CDcuhMZ9WjTjHse/1miLQlhAnlRHppG5vteGctkg5lISiCBRDZduwVHrIZk63XZkgAmUGxGk8PwWJtm2JyDrHttsShmoWTyATrYyMie6safrq1FoMtxXJw2mKElEkgYANiYqnHDgNu1cujWNJPh/lZyLO/W7UxREI+D4hv3BxzGREoxD+c8CPw43ok00X1oxkIPUtrAvNYnUnRTh6PMW4GREoUWgfQ+htLghVyjjfRRIIYFmGnnQdu0qpdy2aQBYR1W0w7sVPjx9ylLpuYoZ1RpaqexZHIFB317vd/0XoT9babh/cZGHZcJGxx8eIWVq+Z/EEatJDY4dx2gUsXve03R4tAs1cD8X80JjCZjzQWMINhCLQgPzQUCsUrQ8Z7yXonkUTCPhbk4ceM47WB92T8soBEWjLeshnjIccRvSHBFkMO18iFkmg2OA1JF8TnzFm2r4INHMXNnSekN3wbDkhubAFWp8xx2v8caJcm/lFoIkRG86IysakBTwZaRgrpVleBPoL3AphOuUMKvA+D0QP9djWjjgsfXd3d2WJqNRj7UoP64shEJ98DhgyjJPxcRzi65rwSivHFBFd2+hefgfcJLOtafvgNUsi1iwJxJvPRjCokkwyOZghV0dijca4MOpdfrBD38WQKXqWINacBqXPnkD+kF7bIr9DERWyxdtt4pUBfepXuD3IG8si8UgRDWtkpzdpJ5nrxLJZEiiG4fFuDbsN0NwEHYHeQjVZK57b5VogWl0LSCSJ74HGzZG5Ri/567/jEoG2BDYRErCwHohjhHLTyYs4QxENQhtGnUZqa36va9bneVg5NJiv9rdZFFwfr48uYtRdyhsHFyui0QybRlBe5GKh/DMI66N1akLsKYIw/qK8WKjd9IYhCDVXUV18GB+LnnVaB71ilgBXtEnIjgaKm44FtOekvIZSBJoQ5GVsQ9vufodEdu14mwvjZxDHTRbDH2XG3eV6c5AItCF81R2rsdeIFwqX3tpaPIHMIuCaxrav9iUtxdZcx+2JQIIIJIhAgggkCCKQIAIJIpAgAgmCCCSIQIIIJIhAgiACCSKQIAIJIpAgiECCCCSIQIIIJAgikCACCSKQIAIJIpAg9MYfygSMEMX/7VEAAAAASUVORK5CYII='
p32
sS'version'
p33
VV6.0\u02b2
p34
sS'uni'
p35
V\U0001f425
p36
sS'desc'
p37
V\U0001f425 A baby chicken (chick), facing forward. 
p38
sS'browser'
p39
V\U0001f425
p40
sS'annotations'
p41
(lp42
Vanimal
p43
aVbaby
p44
aVchick
p45
aVnature
p46
asS'wind'
p47
S'data:image/png;base64,iVBORw0KGgoAAAANSUhEUgAAAEgAAABICAYAAABV7bNHAAAAAXNSR0IArs4c6QAAAARnQU1BAACxjwv8YQUAAAR9SURBVHhe7ZrPixRHFMeres3FeBKE5KLJUXBHxGQ1m5uQPRl0T8kGL6IekxxiVFQiQgRDvLgXJbp4dHPKhngSb4HVHRFhNiG5BXIN+h9Mv3xf1RvtXXunf73qmYH6wO7UK9ve7u+8X1XdJhKJRCKRSCQSiUQirWPlc6Sk64dPG0rfw+W8I1MY2ieG+n8mnaePZWYkjEQg+uPgbqKpbwyZD6y1szKdCxG9hFi/41IfJNNP7sp0a7QqkBMm3fYdRvMQZqdMl4aM+Qe/byXT3R9lKjitCZSuz3yLO7xQR5jNwKtWbdJfsPue/StTwWhFoLQ3cx/CfC6mCj70kvOhwy64QOn6oRX8kWNiqgOhriWd7mUx1QkqUGhxBpChc6HyUiKf6riwakEcB3Ib9WaOi6VKEIE4IWvnnGFw4idrrnKVlCk11AVyF4lvVEwHQqDHuQKfi75U1wf//1cOKZxvWaYc1tiObyF0Uc9Bae/QXWvNKTGdONb2Px2UZN8LTT2v1QeRWUo6a6fF5DD+Hue5JKaDKJ3V7L5VPci7OM2L6SH7NNuvyPhvb1WElx8ZcqsXSr+MVNAVCC7+pmfQ2zJ4jTU7ZNSIvJzDhUEzF+nmIGuOyCjLXLbCuLBAvhDTNXz4Wd3qRw4T0i+zN0+0bVGGG3DrPCXUcpATwdpfxHwDd7PwnKw4DOZf4vfRvLyBangTx38lpsMfjxC19l1c/Pt+diOc99AX7RezEWoeRMYelWEuCL3ZzeIwPiTtDTFfkfY+/AgnPSHmK/h4f658cRhX0ZTCTDHEaK8MKsM3zN4ipsfa2168ehC9NSfDRjQOMQ4t9CafYTjX5IYcRPO2013Z3CrUwfVbRGu4wZ/5nDJdmdoCcbLFt/zFMFeviuuZyFzBebfMZXXw+S+5V2flX1kgtz1q6KKmMFk4CTf2xC1wQhk6W6WRrCRQiH2dtnFVsMI+UukkLW39RIvDOO+k9AcxCyktkE36P3GOEHOiQdiULgDlBcIaihed0qhNLLj+a1WqWqU+yIkE9SdVJBan6vZs5SrGcJeK9c5veZ3xOOITs7leZ1u2lkADuKHDn6/1jKstkDcfITWcym65VKGRQIxbM5kESW98hPIeo/M0trFAWdAKvBgHkSDQMnLNgpiNUFysOh7K54ih3H2iOigLpHdhdYH3rI7tnjRfGD91EHM0YFEqIxW0QwxfYfk2XhuuWNrP6tUFcl5EZknM1uDKxeVcTDX0PQjwsyvOBWK2AxrBur3OMIIIxPD7O20tbt0DxUl7ecGt28hccU1bQLgoZJ+2ahNMIIZXzfCkA6E8CeddTKbXgrzVMSCoQExmm2TDywZNYK8kY88grL6WqWCoLjWKkNd9T2I5MvTN1mGw0PDK8yESch6tCjSgqlA+j/GTjnRJs0suw0gEYlgka+iOmK4SGUt7kFi2YyX+HyZ2DQSEQFg+dD92B7ZM8BxUFq5EyCmfsBA+8dq/5J9GytgINK5EgQqIAhUQBSogClRAFKiAKFABUaBIJBKJRCKRSKQ6xvwPAgXxN4FLuyoAAAAASUVORK5CYII='
p48
sS'andr'
p49
S'data:image/png;base64,iVBORw0KGgoAAAANSUhEUgAAAEgAAABECAMAAAAV8YMOAAAABGdBTUEAALGPC/xhBQAAAAFzUkdCAK7OHOkAAAMAUExURUxpcfzCG/zCG/zCG/zCG/zCG/zCG/zCG/zCG/zCG/zCG/zCG/zCG/zCG/zCG/zCG/zCG/zCG/zCG/zCG/zCG/3DG/zCG/zCG/zCG/zCG/zCG/zCG/zCG/zCG/zCG/zCG/zCG/zCG/zCG/zCG/zCG/zCG/zCG/3DG/zCG/zCG/zCG/zCG/zCG/zCG/zCG/zCG/zCG/zCG/zCG/zCG/zCG/zCG/zCG/zCG/zCG/zCG/zCG/zCG/zCG/zCG/zCG/zCG/zCG/zCG/3QGfzCG/zCG/zCG/zCG/zCG/zCG/zCG/zCG/zCG/zCG/zCG/zCG/zCG/zCG/zCG/zCG/zCG/zCG/zCG/zCG/zCG/zCG/zCG/zCG/zCG/zCG/zCG/zCG/zCG/zCG/zCG/zCG/zCG/zCG/zCG/zCG/zCG/zCG/zCG/zCG/zCG/zCG/zCG/zCG/zCG/zCG/zCG/zCG/zCG/nAG+OwHVBHLPzCG/zCG/zCG/zCG/zCG/zCG/zCG/zCG/zCG/zCG/zCG/zCG/zCG/zCG/zCG/zCG/zCG/zCG/zCG/zCG/zCG/zCG3JfKP7DGyAkMd2sHikrMNuqHkpCLGpaKSkrMEpCLPzCG/eTKf7DG/3DG//EG/7EG/zAGy8vLywtL/eSKT86LS0tL9uqHvi/G/a9HP3CG0ZALUtDLElCLPeWKPquIfmjJPrAGyssL0E8LbmRIjk2Lt+uHjc1Lvu8HfmmI/idJvzBG/u0H/mnI/iYJ/u9HPu4Hvy+HPnAG4pwJq2KI9SmH31nJzIxL/vCG+CuHt6tHohvJv/FG92rHsGXIbWPIvC5HPrBG92sHjQzLuy2HfvBG5R3JVRKK1lNKzAwL8ufINCiH8KZIcOZIfu5HvifJfeUKfmrIviiJPu2H/icJvmqIvzDG+64HKSDJMecIPe/G/S8HJZ5Jem0HZ5+JIJrJ7CLIuOwHpB0JoBpJ6eFI1JILHxmKM6hINOlH1hMK9qqHvK7HOi0HUlBLMqfIDw4LkhBLbOOIoVtJ82gIAfJhvsAAACXdFJOUwAC+u0J4wYB/vvy9A75A+SW4Sz1OBlN7DBRDwTudi5+EUL2o963VcpD5mVcBSB6kRaa90Goy6so/URSVzfY6BpWCwciyUW6RxBbI76zwvH8U9EH2UAX1sSVh5NsYDwTvBRMi6B0J05pK85yhDQMSMM+aBi17hEL752i6jK/YdpLxtcftKXSKSEcNo3i0JvJCb2gv7OtsLQnFSlwAAAETUlEQVRYw2NgGLGAxcvGVUwsL1bOgJECUxRck+Jtq4w4ODhlBE1booWkyTOGx9PbbzoS4BCMkGAnw5xqM+Hp6EAlOpdUYxglw6ZjAUr6cSSaY80/HSvgFCDJJHYHHOYATYriIcGgNNbpOAGvng7R5ogET8cDxCWJNacpfzpeEJhKnDlBURz4DeKICCLKoHrm6QSAuDtR+UJ1OkHg40FEzNcqETaIW42wQQk104kAxVIEDZLkJsYgvzyC5Y8JROWsWWtnYeqftXY6VLSCjYBBEpoQHWc+fHqzFN2cJRsOvXoJMYlViIBBshYQLe8Oz994eg6qOXNOLZw/7/XSZSC2RQp+c6TcwFpmnluxaN6692vRXLR//rxF6w9CjHfDn3ctIWXi7C/rgQYd2odu0Lp58w4/PQFml2vgM8epEqJj5tuP8xedPwD12ty5EHr2ho2L5q88CRVVdsJjUIg41O4jB1asP/4YHK5bVq+593APiLXs+Yvly5/AnCkegifuleG+OHt08VKQOdt3PJixYMGMXXf3guLy2bFNS+BKlFlwGiSGVGvMnAmOndWrZkDA1rkQUaREKYbLnFBfjBS4+8ECqEGr9jxCl/QNxW4OnzwThkFzt0LNWbBtC4YkkzwfVoM0NLFkqr0774ANun0Li6Qm1iSgG441e85dvWvBglU7d2OVDNfFUkEb4ipg769Zs2M7jkLXECN968gK4ywzYAkSCxCWRaub2GNABfWsmdNJAHNA6Yw5BqVdwR4AqllnXfiyhHhzln6+ADKJPwDJJHYrcM168dLXo0S7aeaxy5eOgEsmK7hJ0tpgc5adubL8G/EGLV5+5TukjNOGNsAYtZmhhdDPFZtIMOjPik2Q0pLZE2KQXB20lPj1+/KPWcQbtHLhf2iJEgwud9n1oFKzT51fcZIEF63cfHM2lKMHCiY+ASjvxIarC6/PJtag2dcXIgwSAGU6di0mmIs2X0Uv7/Gkor/zNt6AGsSkBY44BX0ZiEHXFs4/fpFYg87+m7/wGsQgGX0FaMGoGGmm6uLSN2nyxN4SYg0qmTJ12oQ+FxdVs0hFpKKSLbdIVLS0jMFJmViDinn6y0pFRYtycVS5BXbEmUOwPcKW7U+MORzJjoRaEaLNxBhk2ka4gSTXQNicRmNi2n4S3gQao9MDFYlr1nolG+Ezxt9HgtiGtlR0GG5zBOUNSOhDtHWpYPefnaENH2ndowxZX4zmLadpdg4bA8nAuWc6R7cgpG3K4SdoyzndToiBHKDgMp0zXc5SLT0rq9BKUShPeDqrPVkGOatM50TKCDa805lFyDGHDdim4HRA6nvxTrcQyCXdHKkUYCmFZtB04SQDUs1JNQElSk5rVIOmc6p2ktZjt4+HlKFpCKEcLrBQpjlJBsXygnXxZyCEOjIhicmaJIMSBGz9OJRatdiQRwJcuDm4VUzaSQsjaa+CREu0ZpS9caJxG8vIG2gCAE70Lmjw0b36AAAAAElFTkSuQmCC'
p50
sb.