ccopy_reg
_reconstructor
p0
(cemoji
Emoji
p1
c__builtin__
object
p2
Ntp3
Rp4
(dp5
S'emojipedia_url'
p6
Vhttp://emojipedia.org/snake/
p7
sS'index'
p8
V277
p9
sS'code'
p10
VU+1F40D
p11
sS'apple'
p12
S'data:image/png;base64,iVBORw0KGgoAAAANSUhEUgAAAEAAAABACAMAAACdt4HsAAAC/VBMVEUAAAAAMA0AHwUAMQwAMAAAPBIAQRQALQcDMhAFMQkANw8AURQAMgwAPQ8AORAFHQYATRIJGgMBOQ8AHgcAJwkAHQYALQsAKAkFFAIAVRUARxEMGAIFKgoAWRkSFQAWGAEAHQYAFAQAKwsAKgoAMw0AMgwAJgkAKwsAQhMALwsIIQcAWRsJFwMARhIATRgASRMAThUAPRIAORAARxwATxoAcCcAWxwAQhAARxgAcioAMQ0AURMAUBQTFgEWFwEAGAUALwsAHAYALgsALQoAMg0AOQ4AQBYAYRkMEgEAfi4AUxUMFgMAQhAARRIARxsAQBgAQRYWFwEWFgEAIQkAGgcAGAUAThIAThgAHwgAcCwAXR0AaSAAcioAZyUAbyMAZSIAPw8AWxkbGgMWGgEApkkAjT0AiDwAslAAjz8AulUAqUwAiz0AhzsAo0kAtFEArU4AgDcAtlMAlUIAgDkAcTEAn0cAl0MAhToAXycAdi4AgzgAlkEAlEAAqEsAfjcAWiMAhDoAYykAdjIAViIAbCsAwVkAoUQAbS8AsE8AxFsAvFYAQhkATx8AhzgAzGAARxgAczIAPBcAm0UAkj8AmUQAOhIAejUAUh8Aay8Aby8AaC0AWyYAkkEAvlcAmkQAgzoAjz0AkUAAkD8AaSoAv1gAuFQARRUAij0Aq0wAfDUAShoAz2MAgDQAx14AgzEAMhEALQ4AoUgAiToANxMASx0AdTMAnUYAUxsAeDQAZisAWR0AXiIAYSkAaScAYx4AJQsAYiQAeTIAhDcAaiwAyV8Aei0A0mQAljsAcy4ANA0AejIARhoATRUAPxEAjjoAZiEBKQ8AgC0A2WsA3G0AVB8AfTIAXR0AmUIA5XMAciUAThsAbykAkzwAhjQAxVsApEcAmj4ArksA33EA6ncAZicAURoAFAYAizYA12cAkTkAm0ESDRAAHwkAnkIAcikAbSIMAAQmJiYAdikAGQcCZzQYGRglGyALIhZOTk4gHx8TNxAtIAQBBwO7ubqSj5FfL79FAAAAZHRSTlMA8CE8AxL9BgoVaBq/ztYwND3m61Llq3NnkEMcNsFc/tqHyqHpe+7Q4uBK351O3SLr71f9a+XPoC3wgbZgUMCyh8W3X5HFDuRD+Kh7e/DIvq7Nrfjyr37609yk8qfhZfKy8O3rwpbcJQAAB4tJREFUeF7tlWV0lXcSxiEQg5AQ1KXQUrzFrdCtsXVbl65ed3d3t7i7u7u7u+HuWu/a2XlvshQOIbl3z9lv+5x8u/nNzH/meWfm/G/l/drxP9f21Y6WffSnfd7/Bb/w+IPcW21tt24M3K/tfmee27zv+oGL6VgK9hLq3q3cM5UfveVugPcHLuD1zc05arwONXaDX5W6wD1+94QmJmtwaHDopiWZgrpd2F7p5dYrvNe34bOGLl8ZxxMslhgdStioKlt0yo0Aa1ou5QyOX7kc9c0PeYTzdCo7vrPerUf89qIha2j8ytcP//XPb/tTUqhkpIR3vF0v4D0o4PKVoe++/f77R3dwBipqrJAv9VrnIu752kGkg5fHB7/75tGjH+7g8FRULBre8JJrBvjw0MA9ek7r4NDQ+NcP79x52E+hEMjB6M6rmStcwOcv2PPghoaitrTevHlzsLX6+j/sZDxVzOYQIYDf7LzP4e6JGxodWCgrq7UV/ugEgwFLIDsYGEW99c3ZA6zsqR1ou6BLSdbnNIMNz+v1yXQsFVXKSRS0V6X+ZPYAx3pqW3pvo9KxdHwMIjydgk1HFQQzMBmqsBAXvOix5FpNizleeK9AfElHAWGpBFRBLAct4Ndb/VzxwbwlmVU17SONvaLbGhQhnZouJrMdQhy3ISksZNlMzf9PgBN/+fvfMsuq6s/ws3vH2GRyQWlsMCexMCNCmjrjEOe/G4BYYMNnG09uCDzm579t255DvxnBEOOjGcHCRBKNxct80WNm+3zw+a6Tf934eeDkND19feYcaGqQoaM50TgMTSE32eEBM2vtho0bTzxZ1HqVhIiOBl6gSBrumc3G3mt3nPzsqY9ln5TfiI5PdPLK1C3zZ7Ng4KoTT03Jd09NdmF8IhEj6GySWv1gmbipt0f5jcR4HEaWEcHL9F/rNr/mV2egAByRS7NdDdu7zm3+1KK+ETM6EY2JC1VJjfvmuK2XRlvM6KAEIknCkpuOuc8fefX+OXRCUDxGVh6p/NTHNyAwwNetAJ/W5PYmiBKIXOjg/k8+/iJ3YOKn769x/SoeqBrpDRJBARKbvMsYobmkaTv3ZW33hy7e5PVH6/mFQUFBOJLExivmFegNWLHmLNzHnt0u8IsP9bXwVWZ0AjGNWVIRFV7abFHjKekaUSO/r9vPBf7VvpbsJIXZTCvXyiuYBEtrjtpA0ZEdQYXZqrLtPrOPv7KGnxSlVSVVaJns5KysHH0yHnZqLIdBzFaFvTx/tgCrOqymYRNPweXo9JasZr06JkVHKHAEcxiwUyr2z3YcPXf7V/HNQmrMeYvFkoPQFCqKDRtJFI1LY9qU+3//h1dmGt7qg7mw0fFqvV6tVsM+xlLFsE45jOhENJHEZEVFii7m/u7wc0Ms3jmRe1ZD0NFTUmCX66gEWKYchigB6DRSXElkOI5OuXC2pXbbvOfk3/lg4BayiKkEgphMLnUEM0RBCTg0EUOSMUvCbYwUfQydMHau5tqShdMGWD365bmzYw6HA1AOA8rGodFpGBI3jhnKCi8PxiPj0KGE5ufdJ+9Fo/dhAYH/IC3kJWKcsCTUprWRyIbz0FG6jsAWmRuunl403TA991aeGSER0YAirAxYSWgJS2uLi8WqgcbTdekoNhyIzpprL3pOt9X3KlWhAhIJUCRvObDh2nJSKTZmaiDQ01hhIlEGFUwbwNtf2aSQ0CShk2xkuI0ZLabEJCcbYCSQHA4UB8aJkbRXWaf34wJlRYTNpg1H2FAMB4WF62zAp1CwOud1DBY63UBTXA0LmbaJPkd2JrFKQuPSogvEOjreACwcdiqcZqBhLAnIULi0hial13bfaUy0+ov3esfI6eAiRHS686yLUQVsqJwjApqYlobh0spVUuvcdc9mX10LHtCIqVgKgFgkLyRG4GAOVD41VJKMFqrlnV4yZUTvlT/27zjC39ZcQIkJYjGKDCjbASx8QkhqyO3EmRmKCLnyk1cmh7bAP/9xgF9WTuT2isCEpYgQVChkRCPfgBN20nEwWZu2QvnxkVOeCxcfOLwkpGPz4wCwg8zxIoaIARKJ4ANAigbQiSIwkzk522pTsfzo0YN/rLxm7Qnp2PE4QDdyg4ACTSUlOcXlcmVMmkQy5Qxesd2kzRZk81X1w909HW//2MPUej6Ni7wTwElSJhMImEyJky2xRYRHRsqVxiJjlEJQaB5pr6kqS+1Y8cQl76lMUmQInKLRgMrIADsipI2lhcwVFdVRxUX5dmVThoBL62xP4g1bO7YA/1gdVmlShE1RAmKxWBHa8KZIoOTy6moeKEq5vyg/326SRyjKGxTtWrn0tNdcGOETejnEOhzFq5YDAv8fJVUqw8JMJlMYyNRlz+vvzzOapNWRTVrY1XJpWFfRmwFP+2hZXZ7dmFmMqKvLaDTa7SFOFeX11929Cz92mZRSHg+iS4czjUWblz27y5fW5ec5lZ+f319XV/ezpct//tX169e/ulvXn58XYjdaIX5mptUrZO6KHdNtE48PXt+0fOnSTW+8vuuFlRveDfBY6+kRuOqFXb9449ebli/funXrXETbN295y+MZ9v/6N7e1BzmfViXOAAAAAElFTkSuQmCC'
p13
sS'twit'
p14
S'data:image/png;base64,iVBORw0KGgoAAAANSUhEUgAAAEgAAABICAMAAABiM0N1AAAAdVBMVEUAAAB3slV3slV3slV3slV3slV3slV3slV3slV3slV3slV3slV3slV3slV3slV3slV3slXdLkTdLkTdLkTdLkTdLkTdLkTdLkTdLkS+VkndLkTdLkTKRkfdLkTdLkR3slXdLkQpLzNQcUTKR0eRkVHQP0Z9qlS6i9pAAAAAH3RSTlMAQHCAv9+fYCAAUI/PMO8QrzBAIAC/EM9wn4Dvr1BgQZ3IhAAAAoRJREFUeF7t2Nl62yAQBWCxaEALg+KsTdqOki7v/4hVHIcaMyyNetGLnktb/j80DMiia4mQSuueQjQYO1ykGyoZp5m4zNL+AeQAKR+wjZAHqmTyLZAPVXl5fn7hJRQN0BIuf95Cmcg6RE0QQTsUbo0P8NDV4frmLZoaIznoal3X28MRmqg1joHu7tct9w+Hw8OnZqhna/T4tJ7yvVlSbLGv70/Qj5+tEHoOGg7rKd8SqQelJp1Ksjii9ekznCEzSPe+ki+tnoG+PL0Sj1u577aps0bBopQaxRDFYCy5BPq6brndjEpcLMkEetyG83DTEBlBS5eW6OqmLX1UpARqT9z5O6Dxb0Hi34L+Q1aoLW4nNMJ7z8odkJ2QQsYPQxYCgou0H66RCqOBcUex3fzOaLtn1gxSocbtkAq22dVHEJxpV0PK4My7OnukELEHshgcnQBObHFtkM41s5XhKy1tFTIUgkyfh4AtQx4pBM4cRUlUEVJETA95TUy0L0D9GWSDMxOb2WehkbgSBSeRshAQpZM/UTZTDkJKay2oEMFDgpsVXYI0D0nmfcBRMY6FgBk1lCFgIc1AfRnqWYhSyFIltg4xV6ASQiFzWR2SRJerxkSQbIRUBA3HRJCqQiqFdOisGpT+CjgonX+TQnFBHNUgcun+0GEsgYL4E+B6FEGpuNkwNGTlLVpSOUunKpBrWn4kO1ddDk3LxnbpXshv9+WR66EbTOUd8xSPJUhs0KBrpa6XWw+vkMPKZljdNtEeofzN9T49veFv7AhlJXTnTn7o5veRhsHis7D41ER3fshidfk5n2+CxV8c+4iIQrADGwsYMdyJlpUaj8oMxg/ZeAPzEemjv/S/ALUulO10+UsLAAAAAElFTkSuQmCC'
p15
sS'gmail'
p16
S'data:image/png;base64,R0lGODlhDgAPALMPAO3VCrMbAAGvAQCZAGRnIQCKAAFtAbfFBvS2AzZ/BQ5VEAbJAReiAEKrAQ+OAQAAACH5BAEAAA8ALAAAAAAOAA8AAARPMLwl1no440CEcIImBolDKKH4OEEwKMagPsPigIOs5nw+x4UcY/YwFAyJxuEhYCAAANXzcHwAltIEZtAYEh+HRvBrvZIfiKeFXArqyIZHBAA7'
p17
sS'related_to'
p18
(lp19
V\U0001f409 Dragon
p20
aV\U0001f422 Turtle
p21
asS'name'
p22
Vsnake
p23
sS'known_as'
p24
(lp25
V\U0001f40d Green Snake Emoji
p26
asS'default'
p27
Vemoji
p28
sS'bw'
p29
S'data:image/png;base64,iVBORw0KGgoAAAANSUhEUgAAAJAAAACQCAYAAADnRuK4AAASZ0lEQVR42u2dL9RNbRPGBUEQBEEQBEEQBEEQBEEQBEF4gyAIgiAI1hIEQRAEQRAEQRAEQXiDIAiCIAiCIAiCIAjnW7+z1vWtMWb2vvc5Z++zz/POrLXXw/Oc/efs+7pnrvlzz71vUVKyhuyrV1BSACopAJUUgEoKQCUlBaCSAlBJAaikAFRSUgAqKQCVFIBKCkAlJQWgkgJQSQGopABUUrLzAPr27dviyZMni3/++Wdx8uTJxbFjx/44+N2dO3cWr169Wnz//r1G+78OoF+/fi2eP3++uHz58uLo0aOLffv2NR8HDhxYnDt3bgk4rlPyHwLQ27dvl1rmyJEjg0CTHVwHzVRaaQ8D6P3798tB7gMNmuXMmTNL7ZIdmLPs3GvXri0+ffpUSNgLAMK03L17d3Hq1KkUMAcPHlxcv3598fTp08XHjx+br/358+fFjRs3FocOHQqvC5DKtO0wgL5+/brUJBlwANWzZ8/WHmTMFgBE+/h7oK3KrO0ggF6/fh2aKn538+bNUUwMHhwm0gMJoBaIdghA9+7dW+zfv/8v8Ny6dWsSk/Lu3bvF4cOH/7j3lStXChlzB9CPHz+WAxURW1z1KeXly5d/PAOA/vLlS6FjrgCC7xw/fvwv8EBw37x5M/nz/Pvvv389C+atZIYAysBD1BhPaRMxowsXLiwJMT8BR588evRo+QzWlHFuycwA9OHDhzAmw2BDateVx48fh3yqzyQCFj53//79/59z4sSJQsecAAR4PFnlwMvaBFnGk5PndvXq1T+8q9OnT6fn/f79exlb4jz+bZ+xRXsVgCYQBoYZ7cHDjN+UABquSawI8ZouM49oJ/5+8eLF5f8JKOqc8+fPF0LmAKCHDx/+FU3G89mkCEDwGcDCPfg/SVfMWnY/cmx8jnCC1WQ6hkS7C0AjiSfNXYOC+0yagmMVANmD+6L9CBfAj7xgOpXaIPeGwMXsNQBkyZYBZM0J6YrMlNjPQayHiDU9iuUIFIArAsKLFy+Wn+W+AE1i+RNpj5IZASjjFSRRbd3OUBOn8y2ArAaMOJACmT7m0/K8JVsCEP+OhMg05oufqwjaRrzHmkoKyKLUBPkuPg/QiE1ZwWtr8eBKtgAgBmysHJePM3Ev3PMoLUHAMdMwaECbWrHmrWQLALp06dIfmuHBgwej3Ut10pg0vL9Moyl9QXiB9IlAjdbyIYfKi20ZQPAPXzZx9uzZlVzknz9/Ll1tsvXEbiDIcBi8Nn6PKWvRcDyTjVrzfKRTokh2AWjLAEIY5KhQjDgNHAWNQRAQM8SAAQK4CYDg91QTMsAeiFGFIdFkvCeu1SV4ZlGAswA0QwBBWtcthmewARruN3U80jRcG7AACDSTBRVhgz4AoI0waTpu375dAJobgLx3Y2uRMT2YomipDhWCgKZPm3gzR5pE5ggONkQAYQFohgAicRrVAAGgMYRYkkA0pEjNR7ULQDMAkGpusgOOg+YYahYxOQAwc7Uxd4AI7dZ6fV/cv2psqgA0UiwIs4R28CYL8ktS0/IRf+BtYWK8OSQoCBmPPDDV+yhT3yf2uaouaCYAsgOtGY2XhWe1idWmNvXgNQZxHluy0SWQc+vKY85KZgQgP4iYFQKLLe506wExtwKH6UqjIGguMvY+LIAJLJkBgDSruwYRdxoThomLAnrZStXIc2sFENwJkxhVS3LtWq06EwARedbAtCwUJCWBK64CeR105kBjEWBk8AUOe3igZADChIpLAVivfSD2JTMBkC23wFxtyrOJAITmiDiQrTHCcxNgKPeA+/jCN35XMhMAMRg+F7aJlRg+ahxl2NFY/F5ViXhjNsiImSJQ2WUGS7YMoEhT4C6vE6SzgUJ7+HJYAMXvMVmARW465kscxwMRXlSyRQD5oJ0AxICjfZQU9eWkQwAZpT4wj/Z6PIeqHBGt/fJ1Qt58tcaMCkAjCGUaAMWWa6AVLJGlZmdVrkFAMWs8RT9EK1q2g3cH74IfASgKyjLzWqsxtgwgVfupySUEWgOuOBCDmZmcPrMVue5ZAbyK2dA20oKcb8tY8ba8F1dViFsEELwiWsLMwNni9qEAgpdk8SEixn7QpXFEiPm/gAz/UQ22d9+rscIMOBCDwyCp5S7xHFuSQSyoFUDwGOI/WTCRAY80hsymLaHluQRugoci2JV9n7kXZgUgKbAIH/GrIqygsaJuHjoXLpWBDqCggXy4IOsQUqswZgogLRokR2VLJQCAJ70+dhSlGBQC6Ipoq/YoW38PqKJy2KmbWxWAGiRbdtzV/QJgRY0wW4KQaDjOhe9kEW/flaw1W1+yJRPGgGnNe195Kl5cpnmymh8JXEhtgrNKRwrRfPYfsHWZ0pIZcaA+fpSBB7PU514r59bVKDPqzbjpbiEFoJmBhxhPH3jQOLj5mMesVa8+U1n3PQYgzFYWXcYN7wMP5kfnZ6YLPuTjU4BtaC12ycwABHgijwgi3FIRCLhU99yVBPWmC01UJRs7DiB5TJHmae1RqEw62gUtA1GPVrH6Q13JSnYUQHhTWS00jRFaxHIatJUNGXBtWtj55lMKGPaZRcAIuYZ/cV1MqTxJDjL2m2hNXABaUaKFhvKgWpKZcBfxHq4lE4XmIYAod5/4jjddXQ3NAQ6gaa3LhkcBMK75X0vCbg1ARHyjAcL0tG52otoeLRpUwtaaPlUj2gNXP9OImLVsS6iWg2eBhw1Zil0AGihZGoHftdbhqBMr56gXoq8v0qpUb7qiQCSgjdbur3NQSrLXg5NbAVC2L9iQPBQVht6LUmcxzBocxYMUwEX5M4CW7cHKPTCBcDKAr0AlhJ34UZaUtZ4ky7r3qmmbHEAQz+hFU67RKirT8AFAW6oRHVGrX7hO9nlfgoIIMDZvhgaEA3VxJr7fXlxjPymAokCe6nJaV2gAEjQLR8SV+HsUzWbArRbABNq1atEz+boggNLlJWKu0FAZh1p3QxneEfeFp82lZmlSAEXuNMeQLZ5UAJaZO7L4XhNg0ixAIdxZ+ABNoTJYPmNNnoraMEtd2oS/qQN+VJW5SjubaBEBJnvbxf+TrgvLdiZsFRXiZ03IGexo9vsB8zXQIvDy3iDZavrAgOPt2SVErbmzrkI4Ef9W8aEIT9a3tQR7MgDZ1rmr5KHQIOrrHLnIvMBot2ffaCHyzKwnZ8GYeWVwIy0WUHDRPxPmjPtkvAhtMsSc9cWkeKZtgGgSAPkNTIZGmxGZhGz2+1bC0lQWoOJPnutkMRtA0LUFeWT+tFwInqJVsn6zGRspb51AvuUMGtFrOO41dWJ4EgBFZBU13kqcGWBeoF+OI4k6wEYByeg5ooJ+OAyAtIMG8Lgm0W4G0B6A2y414ndyFnR9XPlIi7Ru5mK1Ic8CUKL+SlNrotEBpA1NIrvdInhOGnhbQI/J4eUzoBFp9uYhKmFFY/hVrDyv9RS5N8S8L47DZIgK1Szgo2fQjkJDHRCAwnmA3ZvaKXedHh1AmQlorQC0xJmZhdcR8Snr5UQENeIz1vvzxWxwlFVKPbiOtIJP2ALq6NlbvFBA7M+jCkEa03to2WqVnQIQszLLd7XMOl6MBpUXYgvOolINfhe5yFnwUuaDgbXggRivE/Tje2fFcV3P0SdR6EGeIykga0aHxNZmC6Bs4Fq1j+p8eBkaEH5iZqJMfjbrspgP5gkgWx6xqZmLJoqWYDOhfDC1dU+yiA6g5cT1FKFfJbo/SwBFq0l994whMw7wMDBoB6+BsvqeSPVbPmHrh4buktgnSpNwD9td3+8h27q5HudajY7ZYnIxEaJ3xmfHjliPBiC+bJRSGOK6K+6jlyJVLxc5W3NvxRNbkVb/bCR4N53wVNOqiNRaDcrEWCWepr1g+akFmrbrieqkdhJAUewHrdFa66O185BwgUCLET1hzOp78Kq8GdFKVdtQKgtObkJ45mhTO2/eW11vH0VXFabMFd/Zxrr4/mPGhkYDUJQukNcwBICYAYJzWSSWl5URXrLvGYC1X1hr4f6qIk3jeR8as2Vbci8+KMl7lhOQdVsbc7n2aACKljMPSZqqklAvngGPXPGueJL/PFwBADEjNbBdbYc3IRrwqGWMNaOt78ZWBFj+hKbTRLCdT8Ze9zYpgFpXWSAq3PLn+OtmyVjvkVhzZQn42JvqKngY8SBLeFsJPDzNa2O1v7H3sODEyywAud93hQSIf3iSDJci5cCMFS/id61eCuZBXc5aeZziM9meG9ZLjYrdMvExJp4Ns8V3jtI2AG4sHrRzAPLxH9vrMAv72+tYD6wlHsWLRzt44g73atUaysr7QbQ8sbUrmrL8NmCo92UB5N//EPqwJwAkV91/cU/OfUsWBtWreFvSoWBcSx9E+EbfCg2u3edBKWvuPT0bjmjtS+2DiToPAFkt57fXao127xkAiTv41aNRR1VMEy8wWssFAKyZUmFW387ReHatOwlhLrpSH6qitN4en/cxqhZX3k8gvrsAZAOSngNmoY49CyBUdaYpor6G2WFLPuXWM1P7BivKrHcdGshIZFJl8nimSLO1VCn6UlkCoLjxTB4y9AWgQPX7rDgvrGXxn21vx72lnfpqkqNUScuRBSMVksCMWBPrtWVLfXNUJiuOZfc2KwAZwhy5wNH1syU8dg0+2qu1SZUPQoqPAbCoLCNr1iDeYkGJtvB14n314VE9EeZTXqUN1O48gKJI9NAVBLacw+fQBCBeGgADIHqRnlgLiAxWy1ZT0Sz3XhK8yqdJMCctwT8b2LP36iP2HrR4hnxe5t6+o50HULTJ7ioNvJn1zFy/ClUAklazsR+rfaw2aWnnEmXvs/LbqN9QFG8hbiRNo0rCTJNm5lXd/z2AOF8xH3vuzgMoql1ZNeqrlRTMUHlUFkAMiF3WLI/IgqelRR4SFednBNlXBXQRYdUAKZ2CJgTovk7bryLpeq6u3RV3HkAMtCeJ/H/VSj8VpaMNeBmK4qLV1J1Mm60wiPaFtzTnFDmPkrZZEC4qmMu0XFcZrn9HXfEi3wJHPMrzRM/jxmqmNWpBWVQPvU7Fn9q5ZAc8yM9UiGlrnU+0eR1mMTvfJy27eFDWKxs+5EHLPdGsTEK0lP8731PpFBWt+VSIr3ocqwvtqACKGhesm7yM9puPDsA7JHxvN6JrLUGB77RqWWkEwg8Az3KlbN1YpqEsF1TRnc3P+VIRPjNWd5BRARQRP451i715GfAiAMosZrbxE+8LDccADX1hmXbr89qiJcdR/Y0tsIv+bs1w12E9Lb1fG0BE0LqbnLRbA1D2gm3Aaw7C7I20T0utsi8h7SojFWG2NcxWA3atf5dW1cSw3fatpkX7+CDokEz/7ADkN7MdOzu8qaBna9xqCA+C3MvkZd5aV78ila3axZY+p+c1WVROu1MAynJXUX3MNkTbcw4plc1c9K6tNyXyHjknKmO1wVPMngWLNJvyYX4noqiIrnUF8KwBZGfenDa2xWxk7faGlD9Ey5fI5EcJW2tiABFOgedryp0xySDfingTspCX6SPzvONoHdrQNjKzBJCdNS0NL6eSbBdEBmJIvCrrfZSVjOCiW63FvwEKYOJv2XbmMkk+FKLN9YZUCOwcgDJTsY2WJEjWLW3VlEs0QbrWqzFxuE9r1p93h7b0qQ7eXUQRuPcUbfAmbXHn3UvrXQypM15HIJRdaQFtl7CKJxeVmPQtLyakQUgCPsNneReYPzxAosvEoTD10fthUmbLtqeiB5MCiNmStX1jxkASx+pkyozHpHTVEfG3dRYYRimHlvqjVYRYUrY11lSdOSYHkIJfXWqbZCgDsSkgYUJUcN7Xzzkq0B8K0miC9O0NO0R4L121UFNvWb6VRuPMyD7bj0aCp8iVXeUexERa9rtg0De17VPWUIvvi1lZNaUAcLpaCI8dMJwVgKSJWnvowAnQSpiXLq7E3zCDLbmyMRuAd9VTq8M9g43H1ZXWAWwEKvuAw3scw0zOGkAikEMK5H2PHbwSyKatRmw9hqzrWuV7Ddl3g2fh+/ijxUNDe26z6fhsdizsK5ja1MHA4PGMve0ADsPQlR1DDzy0bW/XOatNdyG8mKA+wrvKgbaCn0wduITUtu471nqg3eayVefstv2WEI3t2sui1dTBcbaduIXr4DkNNbOZ2Z3Tzj+zBZBEO+HAdQiyWY5gNZVavZHNJo/FoE0VnBzi5uPOQ4op3Wgh+6pa5Lxtpn12FkAl85YCUEkBqKQAVFIAKikAlZQUgEoKQCUFoJICUElJAaikAFRSACopAJWUFIBKCkAlBaCSAlBJSQGopABUUgAqKQCVFIBKSgpAJQWgkt2S/wFKIWW5aucorQAAAABJRU5ErkJggg=='
p30
sS'version'
p31
VV6.0\u02b2
p32
sS'uni'
p33
V\U0001f40d
p34
sS'desc'
p35
V\U0001f40d A green, coiled snake sticking out its forked tongue. 
p36
sS'browser'
p37
V\U0001f40d
p38
sS'annotations'
p39
(lp40
Vanimal
p41
aVbearer
p42
aVnature
p43
aVophiuchus
p44
aVserpent
p45
aVsnake
p46
aVzodiac
p47
asS'wind'
p48
S'data:image/png;base64,iVBORw0KGgoAAAANSUhEUgAAAEgAAABICAYAAABV7bNHAAAAAXNSR0IArs4c6QAAAARnQU1BAACxjwv8YQUAAAToSURBVHhe7ZvPaxRnGMffdzx6yFF60EuqKC209bIbT4oaCxW8FKQ1qCAqESnVgzlUPcQfaKEeJLRUKbSgKaKWCgqSRPTU7F4ESwvFHxfzD7jQa+b1+7zzTNzJzu6878xkZtx9P7C+zzMhk+S7z/v8eGcVDofD4XA4HA6Hw+Fw9D21mdo4vdh975G8ZqY+U/8Zd9sLcyi4ApS4h2tTjZ2NOb7y3pGLQBDnT9xpD7txNPHaiNc78YRYUEI9l0o+k768Pv/5/H98vVJkFqg+Vz+FSLnMblpauMetxmjjKPuVweM1PUocZysLQ3irjuhIrBiZBMIfNIllbeDlALYpEvwN9ipBpi0Ggf7BHT5ityfIN4/wz1128W3yAyXVFqzb+dISSqljzdHmT+yWSmqB6rP1HVhmA88AJa7F5Zi4HEZiNnc26f6lk36LSbGZLSMQKU/YjNDY0fiexGNXExdVZZFeIF8Ms2VCc350/ne2O5HiNltLVKXZzF7FklDiX7koD7IXS5UbyVQCjcyMfIU8sRrv/AQS6k1cokYw+gq66AnknY+r2gSaYJ2kRx6ObPRX+VN5JlHaTlLKH9nVoMP+uue2LAjrCFKeuoQkeondXIA4B9gMaVVBHMJIIIoa9Dw/oLQ34L7KM2fQfbHUAo9RIrbilUGiQHpLef5p5JyXyDe/0cpfygzlMmzyQ+yGtHBtiu3SSY4gT3yGrnaMOltsrQ894b3hr2SChIfY38Fsn/Apen6pUlUzTtJhJJFYfCkTtdna3PKGsEoddIhxkoY42/ISh/JOR7eMfslb9PI4GciVzOdBtugeSqppdkNaKOvjValc7ViX+axw3okixcUqikMUKhC2Fp1bR45HqBPXA2tFKUwgSvIQhw7122l5vnee7UpSmEDowE9giZR0RM/9qs9phSVpdOGvsUSOZ1fy5JAO9HD/9WRT75Y2xxUiUNwwSqAhzP3n6xNKX+xfnusAnTKctm1CC9li6Hk+ZXPFoIjRsyId38afk9O8d0ePNxYUk4Ok+IStFYEH3jt4RYfeTobQg13WBcOQQsv8cmzfzeUsRY0UJ+FGZ7rurEXBOMx2IqUKhKZxK5vWWERNHLt4TaRUgfDO77UJdwLCTCJqXneNGiWuUXWkla90Yvgsjyiqit1AFdvHbhQMqfgtvu1VXWgr+sL/AvfYDbfbVuqY50hM3PsMuxFMK2ghApl8wIGOOvAHvmJXg4Q6jAq4AWbS4+0FfO9EXK8DkTqf/uJNoYcJ7PWkEIEIvS3yfI7P0CxH40q3jjwueul7TI9uistBeR+jIgq4Ex+zHVfQWT9gM5HCIojomYvMWYA4v2KLnGW/Jx1bzGJ7EYVWMR3WSlxh1w4l7lHEILmuMxaHPmDRWbH+4NWIQiMoRP/i9MErKagP6laVKFKeYv1b+nI6zdSve6WgHQhZIIHZNqIUgdqhQZbNJZB0H+dxDAKBop+dVOKcafSFlC7QSqLHkLZOWy7KTfYJfXBoponKwRFIiWdsWdHXAqE7/5/N1PS1QBg//mKTWMOrFf0tENoDLK3AEVttTw6IvhZIJ2UlrrI7RB/8YtuYvi7zIZF+CKOGFPKC6VOOgRCIgEh0NvQNzKBzN/yfSANT5rmD/lILQwQRlfhUd2AiqB2aBTH4rpdSvkiKIIfD4XA4HA6HIwYh3gIrhNfxYRc/MQAAAABJRU5ErkJggg=='
p49
sS'andr'
p50
S'data:image/png;base64,iVBORw0KGgoAAAANSUhEUgAAAEgAAABECAMAAAAV8YMOAAAABGdBTUEAALGPC/xhBQAAAAFzUkdCAK7OHOkAAAMAUExURUxpceTdnr3PRsvUZsm8RcjTXr3PRr7QSbjNQ73PRr3PRu1sML3PRr3PRrzORr3PRuTdnL3PRr3PRr3QRr3PRuPcnO1sML3PRr3PRr3PRr3PRr3PRr3PRr3PRt/bkdTXeN3ajeTdnu1sML3PRr3PRr3PRr3PRr3PRr3PRr3PRr3PRr3PRr3PRr3PRr3PRr3PRr3PRr3PRrzRRr3PRr3PRr3PRr3PRuHclt7bkODblOHcltzajNjYgeDcleLcmdrZheTcnN7bkO1sMO1sML3PRr3PRuTdnb3PRr3PRuDclL3PRr3PRr3PRr3PRr3PRr3PRr3PRuPcmtbYfb3PRr3PRr3PRr3PRtvZidbZf+PcmtzaitjZg9vZiOHcluDclOHcl9vaiu1sMO1sMOHcl+1sMNXXfNnZhOXdoO1sMO1sMO1sMOTdnr3PRr3PRr3PRtnZhb3PRt7bkN7bj73PRr3PRr3PRuLcmr3PRr3PRr3PRuDbk73PRt3aje1sMODblNvaiO1sMOLcmuDble1sMO1rMODble1sMNzai9nZhe1sMO1sMOXdoO1sMO1sMO1sMO1sMOTdnuPcnNvaiL3PRuLcmb3PRuLcmO1sMMzUaNzajL3PRr3PRt7akNPXd8TRVc6sPsm2QO1sMOtxMe1sMO1sMO1sMODblOLcmuHcmO1sMO1sMO1sMOHcl9bYfd7aj+Pcne1sMO1sMO1sMO1sMO1sMOHbl73PRr3PRuXdoL3PReXdoe1sMOXdn+bdocHQTuTdnr7PSOLcmMDQTL3PR8bSWtvaid3ajdHWctPXd77QRrzPRcLRUN7akNrZhuDblePdnL/SRuLcmtjZgsTRVdLXddTXesrTYc3VaeDbk8fTXXF6Oi8vLy0sL8XSVsjTXr/QSpmmQJWiP73QRtfYf8PRU9DWb+5rML/NReHcl9/bktbYfMTRVqa0QjIyLywsL1NYNN6MN+V8M8vUZWx0Oa6+RD5AMbDBRHiCOz9BMtqTOcTAQ9eaOsLFRNOhPM+rPsm3QciOqpsAAAC3dFJOUwD85QUCCAoEAf47AdoO//D5cu67zPKNGCTJJxn54oANY/UOUxaB96j8rEaWnsOatOu4Hy/PjHW3RYqxUhCi1inpWvjVHN3wNvKTEX9pk3tfKtkSvmsz1EEX4C4dJao+vDPc/c27Cyv57gnEaMVJVhXRdkhOFBvSWVBMg6NvSpofGtCgphzFzFU6Yjo4IXA1Fm/sIUHTE8lLr+x5svpf+3nKQ8cF4SWl47+uJoGjITTi4mpXmK1liejyFbwAAAXOSURBVFjDvZgHVBN3GMBTIIQQWQIBlC2EILIEFQGZIlqmWmVYQa1ba53UoqLitq4uu/feu7m7XCCBBIKCUREQRaIgGkdd3bu3kvzvyLjge36P98KN/O7b33fhcB6AOPF4DvcNcSxelx9eEPWDx6pcl6FTeAnj4wNEEkLEdtGFxU5DwjjkRtlJaJKTN3IInLA8BgYT/kxnmzkJsWKJCRn2uI3mzfKTmJac0TZxfFcyvt9C/OHiNcKWoMfwGZybv5276Er6aYwje9CoqQzOr7d7bv1+8SRx4LaRNcclnmHYyUs/nj9/6xx1FMs6NZ9zMwXq0YPi2OaAUx4zVC0/3+7p+YUyTSIuZJkC9rGDgt5389xPl1z1R5Es3e1iIodaXF1bDAde69mBRs6WWJaADSyzaKak7+pVCyC7ySyd/Yr4vz/u/PN33/2COGPfunvlypW/zGqUw7ab7HxHKpXe/ddVAksaG+rqGrTYP6CsfJgdZ9uOBVLpnT8lsFzZfLoJE1XzcRopwmL4BZ/sP4x/hm5ZiHF2v+kZ8Eb/KUhGCKS6DJLCLSakgzBrufDg18KFSzG75r/NcUx4fe50d4gURA1wRKMsW7R/eZaUkvlbBPgZ7pzgo/UESNbUAHTJsVZ8c/gb4XeEPu+9KNCfS68iNboG2DbG3qqbBctCv5VKl+4TGE/VokyNRKvYROxQtjTr03eNx0GVpJPOGC3z87E6yJYd2IdxhKHAubXeTMvEHtaayIEdy+cvkH51EOTMmEDogw4YFVptzdWc9z/Ozt4tPCQAq27NQ4RCbXUGhfw9rHe1Zdt2hgpoZ9ZmEBxdtzFk0T4c26X8ecKw+oFGA8dNn4y8MF/fySw75YxkIvTI6QaDQvwY8ruOowv87OKGRRaxKV/uRNJBrTeMhiUSY9bBOYKaM6LYXOugzCkE51SnkTOcMMzFI8CWrWLedNJBzXLDl/zDedgFnxgRbT+xMuWemEA5SGvcjiJewPeLSMZe4BnGxkFNQLH64Q4a4clsvJZTPZMsDV0vTLdhbPzgFu5loYWXUw4CSiNgHfZgnwj+YJDoSasOajM2j7gibNd2ieKbmipmG5R9NeEgSNF9zBD4fOxmbrjI5Hhabc7de7zJJqQ2RH74I1jgeflupuccteesH8nw+qPbqfbaDhs4uPLraPsyNvP0l/0JJ42YGe1LN2waSirUbKhUguM8jKbGjTMdvfpiHo9XcYFEXEQDJT3D6Pf+hTgnwYumj7IVken01TMOC8QsTN8oHsAJSqZmmVr/vFi8xGdF0zjHVTJsJOjTHgsbNwb7jAf7StIUkqNQwvrMxep9NH1nkneQSlOdcxOXsxEPRKLjYA8hKn0O8cc5bhhPfy+B72nIxKd2gle5xYThicC+W5pGKiQzDqC4SC9/OudyK4JmhBhBs58iK8cT0KiEsqz+3jGz+5H2OoQml09EkVbKNDGVYJuAFN9MJjWiU8LmOHCXBkpL5yQtQcCNgEgDICMD6ynQBXMg+MI1JCSYw3l6CdKmpV2ZCr45WQXBdW0IWrvIFCgRHFVrKJDCnGlyNQpVbsXu/MJbxjBtHPgynhJCObvLpLNh+YAGemwxfufnachZcCWE6e8oW8uo8PfLzXLmkRn3GaTpBZ6mfIk2L7k1VMkqumET/unQQEfnGZUHtp3ul5PoTaQkg1obVXUwU51eFYROSDdU5SRU10luznBj52vVjJ8r7APJTILQDi1IghsvqBUy95o5QOP6CD3brNTK5dr2M7raGcz+mFpDkeo76vQugLGdW30Cgj7cvIjWAj8IgRRN/dfbTnhPLB3caVOnUZFDVZ0NOESibe86rUMQ9+S9DPWDUuaWhSwJKZubwjU5HYOrqBagabo+0NWlVp1AZYj7ruBUE4MivaKiYjHX3Dx6trqKtE+G4DwZgnpXBpcO6SeWOZmTtme4E2le7/7lrsCSoCH/6GOfujdzxYojR1Z8v2fxIifOg5b/AXiNIEUE/1jNAAAAAElFTkSuQmCC'
p51
sb.