ccopy_reg
_reconstructor
p0
(cemoji
Emoji
p1
c__builtin__
object
p2
Ntp3
Rp4
(dp5
S'emojipedia_url'
p6
Vhttp://emojipedia.org/ant/
p7
sS'index'
p8
V291
p9
sS'code'
p10
VU+1F41C
p11
sS'apple'
p12
S'data:image/png;base64,iVBORw0KGgoAAAANSUhEUgAAAEAAAABACAMAAACdt4HsAAAC91BMVEUAAAAHBwYICAgAAAAAAAAAAAAFBQUDAwMDAwIAAAACAgICAgEHBwYBAQEJCQcFBQIAAAAFBQUDAwIEBAQEBAQCAgIDAwMDAwMBAQEEBAQAAAAHBwcCAgIGBgYAAAANDQwDAwMAAAALCwsAAAADAwMCAgIDAwMFBQUHBwUFBQUBAQEDAwMLCwsDAwIKCgoFBQUEBAQBAQEEBAQAAAACAgICAgIAAAADAwIGBgUAAAAHBwYHBwcCAgIQEA8REREICAgJCQgREQ8AAAALCwkDAwMSEhAJCQgDAwMBAQEPDw8RERETExMCAgICAgIKCggBAQECAgIDAwMAAAADAwMKCgoLCwsgIBwLCwkPDw8SEg8GBgYpKSQQDAkBAQEUFBMICAgtLScPDw4sKycpKSYTExMODg4MDAwBAQEBAQEAAAAaGhkYGBYWFhYDAwMAAAAgICAICAgmJiA3NzEBAQEaGhYlJSIdHRkcHBkvLyslJSEcHBwdHR0lJSAvLygfHx8uLigSEg8fHx4YGBcREQ4QEA4wMCsHBwUcHBwmJiIWFhQaGhYAAAAcHBwZGRkyMjITExM7OjQRERAICAcLCws+Pj4TEhItLSwKCgoWFRMZGRkEBAQPDw4XFxYiIiJFRUVJSUkeHhsvLy4wMDAGBgZTU1MjIyIaGhsZGRc5OTkbGxkpKSgUFBQdHRwhICA1NTUqKikmJiYzMjIgIB5CQkIoKCh6enkeHh0NDQ03Nzd5eXkBAQEfHx88PDxubm0REQ80NDRAQEBgYGAlJSRdXVwnJiJHR0dbW1kkJCMfHx1RUUp1dXRUVEx2dnYrKytwcHB4eHdLS0tWVlQxMTFkZF4pKSVpaWlZWVdfX15OTk0iIh8rKyd8fHhoaGh2dnAlJSBnZ2dvb2kzMy9ZWFJpaGNycnJBQDtFRUJMS0RBQT1zc3FWVlZiYlpsbGZsbGxzc3MuLi5QUFDc3Nzv7+9vb2w9PTlJSUM+PjhmZl6VlZXY2NjLy8uEhITAwMADFvZrAAAAkXRSTlMAGQ+yAbkiVXEDTa85RTAUBiSlih5kO4J0WRwJ9pwL/CeSRMbKiGsRqV1RMTaY9Yd5wH4OvNgMP64f9tLjUAoq72kF6fwu/cSgcnWSd7Y0j0iEF+e77nzPVPv5uh7v6tra6/zao8u58s5fyYJYR22km63z0Tnli63xv3b6nOnt6Jbx5MHa82W28+D9Z/LQ/fb+8kl2kwAABP1JREFUGBntwWVAkwkABuCXHKM7BCSkuwVFMVAsxLszsTuvu7tz+7YxVsBgY4NtbKO7u7HF7q7r+HGAiNj74M/9uOcB/jdoesxkGysrBzOMi6uXpacFxsXRN/oZb4yLo32ECcbHNCEEJFG1Ap6nUAxNn9XFIG+jJJATY+JnSLHx8rR0tjIMB2CeGIyxiXEI1EtyBaImLcFYaS3ySArHYj2MnXnYpCXukbv3BEzHmFDdF/6YkidoZPyw+Z1ZIG/PLjlLUMHbX3m09nLNi1SQFPdlp1DR2P3P313Xu7qu9d6YBnJWfqBgSBg3b92+3VG5v/Zyj2ohSJn2bkljfklFz1+3/rxWn9WTJsjYAjJi1gkFafklCkb9H9cE+TWMCoV8AcgIkZcwGJKMAmUeS6jqE2awyjd6g4yXcvkFOTkFdXy5XM7ny+Vi5raZM42hOT8iV8ZXKpV1InmRTJyaKk0/3NBw/E0zaMxgBjdXLJYVycSpvFwa+/iRU4pfzv/2tiM0ZrFo6fplQS4uQbOnOlutamBllJzvbTq3HGRMnGARF+eqpQvDqoY8pUpw4Mzpt9ZgDALcg9TN8jxBb239xTdAnnXy1hXs9CKRoier99fXtUGaabzs41Xs1Jbmakb+uX3TQJptPJMvZ7NTZeV5KlXDRyDNhk7PTFWmsrOlRQWdhz/FLD8zkOJDhLpxaGIaUyqTKdWfadt4LAGsDQzMoBnv57gGs3aURVoSudnZ2em8dRvXfwtH54RJO6EZSuYya3j7TcCiKVxaFfvwkYwj20AJ1YnwhWZ0CGcM0NLHHKO5xbS6PolCZDBPJzHhi+nQhGvy3MUYEBG0Rd+fXszMLs9h7Zsd+vVXmz7f8N5reDq7zGgMcsvkffc9s4pLY/Kk0m9OtV/Z+/uV1p9enoOnCI9NscUgEw5BMJU3+FwujcluOH31WHd//7Ez7a8sp+KJbDiJGGK2lojYTs9V0giC18k4sL+rrbSwv//Y3gurtfAE1FczjTGEuoPmYBzJETEz6dxySVp9ZVt3aWlhYf/J1g2meDxDTjSG6dDmY2emzCWeTmQLGYcOdnUUlpaWFhaebH9/MR5HNyHeH8Pm0RZA34m71YNO57Gqaw41HT3bXdo94GT7h3PwGCZl83CXG3cBEEp3SaETPCFLxUi7XHui8npHW0fb1dbNWni0UCd93GVXPB/w4tBTimliSQarryItq6m+9kTl2UuXzlxYbY5HsS2zw4gQYiagtZ3DcSkW51cLWRkVaTezsrIOHDxR+fPei7vxKHqx2hhhT/gCsHdKWkGkpilUrIIbkpp8gaAxrSer6WDrJmM8zLiMgnsMiJUYoA97OrNRkdFZV8cSqvpU1SUSSUXNxVO7zPEQPT2MYpDijiETE1IYfTk5onK5SCRqblYW5OTl5Cml8/Eg47UWGMU+JQB3mCaz9qWr06VSWZGaL5IPUKtbsmeb4QE6L2C0ELoF7qBGij+ZwaXRaEx2drpaXdSS3tLSIq2yw/0mu+E+YcneGBZILFxDCYueOiWI4DKZuWw2j81jc6dYYzRd2yjcxyrWHMNMOEsxQNfO0N/dwcvALjjQ2cfHx2gynijQA3c5xs7QxoAYB5BgGY0Rnpm2GOSvBc0ZBWOEfnwYhoRDc3oU3GM0FWRRjVxxj79THEjy9tTFKJbBICnKAqPFJEZhfHwpGB9dk4kYH/OJ+E/6F3b69cprUTuOAAAAAElFTkSuQmCC'
p13
sS'twit'
p14
S'data:image/png;base64,iVBORw0KGgoAAAANSUhEUgAAAEgAAABICAMAAABiM0N1AAAANlBMVEUAAAApLzMpLzMpLzMpLzMpLzMpLzMpLzMpLzMpLzMpLzMpLzMpLzMpLzMpLzMpLzMpLzMpLzPqKuokAAAAEnRSTlMAIIBwEADf/8+f748wr79AYFDG9q5mAAACRUlEQVR4AbXXYe+jIAzH8T9I/WFFwPf/Zg+Xs9kZoN3d7vtwSz7B1hn3819yfgn0l/3QWysQwzcgwCopUERr+wIUXtJCf+T8YodEYgAcnh/tZkhKaB37CiAXuioXbYckDwmVrhjA+TkUGBIKtTYA/t9OhJVaFUD+GNoEkYsrt6hBbkUMfQfHfZtaIA/ckjjSJ9CCFqeug/SAKnMdQSHiygcPSSpE4Q2qaI2gW2L0oQIgvjk8hCgcGNWgBcAhDlBn6194DB0AvOIIRO5At98jSpojEO3oFYk8ANYdgVb02suyAth1RyDMSopjhqJXHCsEcXQo25xQt8wAOO+1DxWLUw68tXUhqiqUnqfuQ1RWzGKPR/kJSfU+edwxat1PR0Tp9D50ICmV1nhi8VS29mxBL1709YdCEoVl7TqJVMgxeKvlJS4H+uXrW98qYQh5WJJl4DgH0IJPi6UL0c54i/cUobUP1n/6vKIVs0+2i41OXz9VGOKkQuLYpZ+xUyurUphA4lgGlWeQOAktzoxJXqCxQ/lykjIwJ9DQKWgtlzcrCzRy6AAQiQLmFYEGzgs49ad57kL8csRcLfd4GUFV3iexW6CtB1W+HcoATguE0IEeh3MmqE4heQct0Mo2KEAtmCA6oFXVGSVqndDaxpBs7WqFUpxCu/y2C7SmUBWomUplBtGGHORPsxVScoxp3gpRYjukSV+CKGQ7pOS/BZHLGHQKZKwMKCeQndoGzxGBzIWaHw6nEaRbW4SUE00gvVL81emIFMjal6Ffl8B54W6L9PQAAAAASUVORK5CYII='
p15
sS'gmail'
p16
S'data:image/png;base64,R0lGODlhDwAOALMPAAAAADIyMkRERDo6OlNTUwwMDDY2NhwcHGZmZi0tLSYmJhEREXBwcFpaWhcXFwAAACH5BAEAAA8ALAAAAAAPAA4AAARG8JkEnr3YhvVq/p3QDCAmOoBXEmhaPkmRAkXwHkdy0Anhf4zHILUwBAYKjOGBQHQAi6jKJrTIZp4AdZt8UZlBkDYjEL8eEQA7'
p17
sS'related_to'
p18
(lp19
V\U0001f41e Lady Beetle
p20
aV\U0001f40c Snail
p21
asS'name'
p22
Vant
p23
sS'known_as'
p24
(lp25
V\U0001f41c Black Ant Emoji
p26
aV\U0001f41c Bullant Emoji
p27
asS'default'
p28
Vemoji
p29
sS'bw'
p30
S'data:image/png;base64,iVBORw0KGgoAAAANSUhEUgAAAJAAAACQCAYAAADnRuK4AAAMHklEQVR42u2dL9QOTxvHnyAIgiAIgiAIgiAIgiAIgiAIgiAIgiAIzhEEQRAEQRAEQRAEQRAEQRAEQRAEQRAEQdj3/ew51/Ne75zZ3dndmXv/fb/nzPn98NzPfe+9n73m+jcze5UkjdCevgJJAEkCSBJAkgCSJAEkCSBJAEkCSJIEkCSAJAEkCSBJEkCSAJIEkCSAJGn2AP3+/bt68uRJ9erVq+rLly/Vv3//dMcEULp+/PhRnTt3rjp8+HC1t7dXHThwoDpx4kR1+fLl6u7du9WDBw9quD5//lz9/ftXd1MAtcP08uXL6s6dOzVAJ0+erIECLBvHjx+vLl26VP/Ms2fPqjdv3lQ/f/4s/tm2DO+ifSCmNKY2YLl582Z1/vz56ujRo/8HFePIkSO1Jbt69Wr18OHD6u3bt9WnT59G3/jXr1/X74mFBFYBtBJhdT58+FA9ffq0un79enXq1Kn9adCP06dPJ0H07du36v3797UFBMAbN27UQPrf9ejRIwG0dgECEHCzsUrc+OfPn3c68jH4sDz379+vXrx4UX39+lVT2JbEDcd/OnbsWA1Im4AtnA6ZMqUNA4SjnTLt4GPhmBs8RIBdwAmglYuQ36xPl//DdOetDykDaeMAXbhwoYYBZ7hL+DkGD06zEpkbB4jIDBhSfB/CfG99+LO0cYDM+pDB7tK1a9f24bly5YpI2TpA5HHM+nT5PmS9LcvNfwn/pY0DZIm/x48fd/4sdTazPrdv3xYlWweIMgMwUOZIyTyb83zw4EGF7QLof0DQGtLn5ymDSBsHiNyN+T6pYfjZs2fr11ColTYOkMFAzSpF9+7d2y9Z/PnzR4RMARB+RuoNKyk+Qx/fB4vjcz+awiYCiHIBN+DXr1+TXhxNZ318H8J3DxB5I2kCgDD95E/I/JYSeZ22bkMq5n19H37OA0QyUZrIB+LG0S9TaopkWqJS/v379ygIVM6BoG/rBaG7ckAzAAjzX7IEYJVypilAZdAcBlB0IqZmnUP59o1SD4AAStCtW7fqltFSopoedgnaMCuS6vt4nTlzZv/3AKI0EUB8+YcOHcrWAuFzMpQjwhUZTSARlvexQjTe2+vnEEluFiBWPnATPn78mOeD/vd3Xbx4sV59kQKPHzTVv3v3Lul9aJi316W+RgAVEOAMnUZiogWjDzSxAYBYGJbjNAm/Rz1AMwCIHFDuSMZXyccMprYmy+ib6GMR3tTiM81pJW7RUgahNk99ztxPDoDaHGTLXjNK3ySuh1W0pByI/toGEaWfuim17GLV7aQA0YPDheeStaTmGNyUWK3LfDduVklxLT7n1DVYm8ZnJrLlocQ1mEOPdlGAcHi5+FwdffTmENnlgiiW5zHfLSf4McsTLlYkb0bnAP/GZ2CqYsy9H6koQOZP5Fw3bn3NOQZTR5PvRuRWQkR2oeVp88k260Tbl5Uro8uTSE4npwViSmhKJpYopMbgYapk2lQUFpFVt8cUJfFTyDrbWvaco8nB5/0okeT0MfguwmsApiXDUxwgohiesCHTAa/lRnpfAb+EKIkbX8oHslCZz51rxw2sp7WW2ODPa+h4LN6RSNTQJ6LhqefGAYv3VQDHLAJO+dipjNe35XnISOcIlXkQQuCpE66l27E4QPbldSXlgIPQ1FfDzeLEppKxmemuOhc3mPcf05XI5/bwrHEjquIAWfa4aWMCvmTaMKx/xywO7RptiTxeF04LfTLRrLywASQxXwSgh/QUmUgS2nvSmz3HzPbsAQKO2FYqAIAVYIpLsTgxWddhrsG05acWALapNGUzBksQAiT7OFqUha+11n0UiwNkmV3fXIYZ9+CkWJyYzELkHHwun/i05rSUVa1cqw/T8aF2md8Bfj6DbcMHyIyS02ZxgCwxhwnn4jw4/D/gDA2XmRJSpjGsgPetUsoG3kfy+yE21dD4+zDHw/RYUuy0hhWmYE3uqqnNpWRn6E7WhYUXNtTiNEU5gMRTF6stMQUBLk/i0DDfF3GJ3sI9Eb2VKr0hFSkBrtVHqTYoXmN5+NxYS9wHWldKFl13AhAXDERYHL7UUkVA8ip8gdb3wxdotaQhAHmI/PbBPgFJa0UspZDqM6VGc3xvXJN/Lx5E6o1c51Q7iOxsZSpWYkpHEjM/JuHoe6WtBML0HO5LzZ9zWR6y10w/PpmKleXv5lI728z2LrZGfkwTmgcIqxAWdrFyQ6vnAIHVwqIACNY6tGz8HVBtKgqbi7B+3oEfMwDHWlXM6gypaeFLYRkp9aS859QrfRcHENVrBn4GU+BY36nJX+k7fOTHje3jf/AZgCbmBDcNLNNcN/icLUA4hrGwlKmEKQSfhDCZSj+1JfwUoiGiu7Yn1RKbYwcgEumk3FiiOFpRYud4dE2bXM+mE4mpDjYlD55s6wHuu3QnzPuwmTghbOwG+6U7Q6ewruMNrN85lqey9lSmLh4Coiv8J74DHgQ7aWgJezNOChCOI19eCAt/9ns0t1kBs0bcVH6XWSN8FP49ljogYzu0jubXuuEwc7N5b7sG3i9MWpKIBCaAXtuWeTsHyGpgMUD44nkK7enGMbUnElOOP0Suh0gkJSWAZbNIiRvr13nxb76A22cwdfHZmiDk9wIM1zlHx3eRAFkGNVZSwKRTbC2VJ+Jmc1OxEkwVNjUAUZ8SR6qDvXZoJgEo5kDiJBKR7MKsA4tFPgYSUxGjL0Tmw9gATrLTPARrbNmYHCAsS6zAt+svm+lvbG810GvzzR0D5M+dwOGdcs05751rZQcdBm3r7AVQJtlyYZ7eOaTiSebZ7q0ppQuL+JryOL5jkQgPxz9cOMhrCRyIDtd0wuFOALIFhjkr1DnEjbemK6I/i9iAi2kX38z8JqBrSi3gOCMixRR/ChjnniCcFUA4mDyBc03H87msfxkH26ZYOxrTFgU0rYrF2vhqfergPZd+BllxgIhyuAk5d+nIKZqtfMeh38/IFzkBKDw/NcfAqs1hl43ZAmR9OHPc8ZR8kE8mYmHMItgmCx4gprUu32nIYJpc6pFSO1sXNrf9Bilv+GgMpxk/x+SX5PhN07EWlExSWjD6JiCXaImKA0RUMrdQN7bJQXh+vHeYY0uzyWPltkQ44EvLYm/y1OYwxMaihPIOczj98kDkhmep53NsCiBfzvD5mdjUYR2HFGG9VcCiDi3CpraiLMkf2hRAsWayplZUpjCmuRCutg3Ocw1WtQqgGYpeIX+jmrZvIVsOPIT3oUpaHz+Wkq3eDEDWhciUhZ/RtmEC/T6W6AuVu/2jaSxlk/PVA0Q5whxi/IuUG2Oph9hxVbsCKIwKBdAEwn/xJQb2FEpxtAGt6ZyPMa2wAmhBomfHWwusSkrdyXb8iPk/pfI/msJmJlY0+FwPFiW1eY3VHG3Wyvyj0sNnxQXQjkP1cJVH6maZTHlW3miyALZ1cclB7mkpVfpVAUSPTQgPFmXIjmdtbassZiwJ0JK2/t1bEzxhqypZ5z61JduWrmtTULLRudbZx842W1KP0CoAYhVoaHn6Hh/A9OV/R9c2vJQbwppajlFiUyoB1KHQsR2yA7wvc/D6VGd9zBLsJfs+qwLI7z6GVRiy6sOir7YzNGLKWRtb4oErqwKIAuiQVR/4Sd6SWJN8qsbuFpvzWAUBNAKgoW2z4UmIQ3ZXHZofokV2yWezrgqgocdK+WMu207xSQExtWeaTDc/v3StCqCujcCbFK62GHM8FSKSivVM2waZgLP05TyrBGhoAdLvd8hgkWEukR4gp7SW03kEUOQG+yXLOLRLPX5SAI0EaMiZEOxduMQ2CgFUAKAhTql3emMdiNIGAGJZTlcBNCZ+3vI/REVrPZJJAHXIugT7blhlpx4SMW1pWzoB5ER0Y1akT6RDGG0rLJbSvCWACokoiq3r+sjOzihxPrwAWpiIpFIa5r1s5cXaDsEVQDsQ0xcWq6/VkgRQLXyeXRxJKYBWKjuicm57NgqghWhM5loSQPsLDre2q7wAyiA6Fskb9e06lARQLZrt5UALoMGy1Rexbe0kAZQM0NL2IhRAMwMoZ9ehANqQ2HCKre7mdv66AJIEkCQJIEkASQJIEkCSJIAkASQJIEkASZIAkgSQJIAkASRJAkgSQJIAkgSQJIAkSQBJAkgSQJIAkiQBJAkgafb6D+IP1YxwLBWRAAAAAElFTkSuQmCC'
p31
sS'version'
p32
VV6.0\u02b2
p33
sS'uni'
p34
V\U0001f41c
p35
sS'desc'
p36
V\U0001f41c A small, black ant. Created in a photorealistic style in Apple\u2019s artwork, and cartoon style in Google\u2019s version. 
p37
sS'browser'
p38
V\U0001f41c
p39
sS'annotations'
p40
(lp41
Vanimal
p42
aVant
p43
aVinsect
p44
aVnature
p45
asS'wind'
p46
S'data:image/png;base64,iVBORw0KGgoAAAANSUhEUgAAAEgAAABICAYAAABV7bNHAAAAAXNSR0IArs4c6QAAAARnQU1BAACxjwv8YQUAAAcVSURBVHhe7ZtNiBxFFMfr1a4giGazSTbiF8iqt6AxehLUuIcoepmN0ZwMSxIPa8QgJBgkQZKDkBUVhRyMIURQiMPOgBDIHoIfkINEjZpT0PUkQjbJ7kYjHtyt53uvqmd7Z6Znunu6q1X6BzNd1TM9M/3v9169V9WjSkpKSkpKSkpKSv4VTA4O3lFbPfCY68YizTFZod3WG7rfjIHG9a4bi82zs7+ChmMslNvlDa8CyQki7FaovnC7EoA1Ftd1vOFVIN2/+KwCPFO5fO17tys+iJ+wuL6tyLOL6V0K9JTrJIJFRVC/+LYibwLV1658njbDyix+a/e0Ul+z4gF+uG4LoPBzet7mul7wZ0EGR3gT5V52lNJn+BE1YhmjvqTNsM8RzZtA5B538bbdyfE+AKiRiQzyg9vO4pahtZJjoU/fIzs84NGC1Jv0PC0nP7Rit93ZJE4At406EojJgbk+NPApvbCHgvVR87dKFcfSAG7rBT5RCrJv09duQYVTALpKrnd4mThhUM0qMIcU6v3S17C3cmn2mLQ94VWgAHEfspBIYZoQMRFfS5Ue9IjnYd5SuTR3kvKhd123KzR6nS5CHKYQgQTOqOMSuFgBFCLQ5OqBp+O6l0DvlWMKoDgL+o9QiEA0Mlx3zdikOSYLChnFmPrQyp9pM2x7XZmuzMx5Sw7DFOhieMI1YpDkvdmSWCAuJmtDK8/1Wg+ZBX2cNtO215Fp995USBa+ZuCDcPaehFQuxiMKaPUyKCCzxxoadWr0yjwXkoloW2aEoUwaEUeTfrZk7DeoTQoNPWCEs/HKzLXYeVeYnmJQfe3gdqqN9lGTYwlZA9Zcxa02X5k/xdtu2OkNGFcAO90uC9Vc9HQkToLIn2EQbtd9+lYRhUoZ+wpOkPW9x1O2tp+cnoO0q6/GJPFrZwlsBYDnuCkZcZsr2WJJXINpNS4Zdwhxa634ghCwin78Q7a9nCxLk8xGMRZKaXO/u4q30a51qNQt5IZ0RUMA7AgXnNaC9Jl24qLBxwP3kgvRhz+E30ef/w09X6WTOMt9st7vqH09jbtHkZlA3eDALle8Ka7UhgZOt4joYEsYnZl/ksWBfqzL8bw/JFzeeBNo2UmSSGYRyNoWVyvQ591b2oNmPf3MpRjVZIF5400gJhxr2D0oJn1GP+GgezkKTgVsQkmBu3J5/kVpe8KrQIyIpMGui3EwbhfY28CCjs7MPey63vCeSUvsIDeRTkxxJG4tQMX1vNLntl45+edf57fedKMhhTa6XR2hoP7U5qtzF1zXK7m6mHUn9RI13cnhH8bAT9yiL77O6+3U7FiwsmvRqPUGt0MpBHMzvfpb2gw5LrkJJFl2pwn5rMg5cOciUH1oYD99tBudsMoJI/UjM98khJLD31HB3fyZYmUUo3opKaLIVCBXdsiyjgTWiEIzmD7VGu+l513UjHKzaWPwFW60q+3ifl8vZCYQlwwI+qi9ojiFC3pHnCu63NqaALW1uR5rh53K0O+wSFmvnfUskLuKY0sniQcqM/OHbDsejTJkGThBn7PXdbrCVqkBPqIzoiSULpBR78edUehEaoEawgRVvFy91gq8E26UI3eDUeo2uRlW+VYZXmaOG1vCVsz9LIRKJBCLIhW7Vg8urWvhJAWTr/m2ljjTC51FiSKZWLJyi7iBgvhGFkumPwCOU7l/MekUSCKB+IspEI7RQWfpynwVNyDapWYcoQz6CerGFCWKhGLxdIru20D5E88YXEjq/okESgoF4MNkadvFBVtZKkJTg1WzoF/NY3gPyK0Ws0M57AmJMy3TqDQymQW40+2LCw/3z5AgB2weFABbdJ854Dq5kJtAPKkvDRKFJ7h4XYszXg7idtRLZD3DHPfYPaSi5zkiLnh5YADYaWcl8yEXgWTVQ8EmvtosSmusSnGfYehmBw60kus07hCBcbvNnlwECqwnKDLD8ChGm+Sxh1y1+ba8xtpajlaUuUBL1oNT7fIPEu9R10wO4n2uJUhwBuBb+4h8rChzgRqxx96T2I51bpsYctlHXLMBuxpfjLysKFOBeIpDVigoMEflSHSSVNlnC2fLsqUsWpLZDMlMIJe9figji8IjbrcXrCtjlbPmrIf9TASSwMs3ZZI4BvGFLFY0k8IJY8PVZIYgG3oWiE2al3L4fxT0M0eyqKDTwAGbFxnJkiYoEh6UGc0M6EkgEacf6/SjJnlGL47lcB3nmomhY390zUhkikSSSNznUoqe6Ekgu1JqPuZkMG49xEWuayYHIPKPMGFkZDO4XWl4K+19QQG5FqtRJLz9zkLxrXJ5bpXreSOzUSwRoF53rfjwXxIKoBALYvi2OB5xXLcLWKXY8pzreKUYCyJkLYunP7pB7+Eh3PW8U5gFBchku1bbKA0eoV8TmljDqjHqRFFpQ0lJSUlJScn/HKX+AUNKLuNAuDGHAAAAAElFTkSuQmCC'
p47
sS'andr'
p48
S'data:image/png;base64,iVBORw0KGgoAAAANSUhEUgAAAEgAAABECAMAAAAV8YMOAAAABGdBTUEAALGPC/xhBQAAAAFzUkdCAK7OHOkAAAMAUExURUxpcQBsogBsogBsogBsogBsogBsogBsogBsogBsogBsogBsogBsogBsogBsogBsogBsogBsogBsogBsogBsogBsogBsogBsogBsogBsogBsogBsogBsogBsogBsogBsogBsogBsogBsogBsogBsogBsogBsogBsogBsogBsogBsogBsogBsogBsogBsogBsogBsogBsogBsogBsogBsogBsogBsogBsogBsogBsogBsogBsogBsogBsogBsogBsogBsogBsogBsogBsogBsogBsogBsogBsogBsogBsogBsogBsogBsogBsogBsogBroQBsogBsogBsogBsogBsogBsogBsogBsogBsogBsogBsogBsogBsogBsogBsogBsogBsogBsogBsogBsogBsogBsogBsogBsogBsogBsogBsogBsogBsogBsogBsogBsogBsogBsogBsogBsogBsogBsogBsogBsogBsogBsogBsogBsogBsogBsogBsogBsogBsogBroQBsogBsogBsogBsogBsogBsogBsogBsogBsogBsogBsogBsogBsogBsogBsogBsogBsogBsogBsogBsogBsogBsogBsogBsogBsogBsogBsogBsogBsogBsogBsogBsogBsogBsogBsogBsogBsogBsogBqoQBsogBsogBsogBsogBsogBsogBsogBsogBsogBsogBsogBsogBsogBsogBsogBsogFtowBroQBsogBsogBsogBsokHB6ABroUDA5wBsowBrogBtoy8vLjAuLT695T+/5iwzNgRnmCM+TAlhjBCCtBaJugRxpgJvpARypw1bgwBtpAZ0qRpKYhtJYSyn0gFroBKDtj285DCr1jq54R6VxEDB6ByRwCqjzwh3qzy74y+q1ROFtz++5RiMvANwpSwzNyJATgxdhgRnmQhijyKZxzKu2AxdhRWHuC+p1AZzqAFtogl4rCmizzWy2zm23xmNvSul0Tm34Daz3ReKuw+AshSHuA19sBp0pbQAAAC+dFJOUwAHFAP8BAIB/f4K6TPbBfgG+fW4qAn3iQ2GEPvtm+h+wpqxrVDTC9aN2G3l+qRaa6CCGPDzKn3RF08VQutlVbOM7zIdrnn2hOtdcxKS2eTPKw8wziTaaSI3JT5WyzbBvAh1l8wWDDme3ViLiMruGZxSOCg/gfIOuUGhcra/SuC1J9sRZtzmlYBHk1znpyBfTcgaxTFUG9RTLrBqh/S7LMSZrHxsmEWqn7hJpXvs4kQjNHTGcJCKH3hD+/6OYzyQqlP5AAAFZUlEQVRYw9WYd1hTVxjGb5IbchMkIYsle4sMZSkQZKjwCIgCoiJaZ6uioKJli1BH3XvUUets617d401AFNza1l3rqnYvu3dPEnmUJDckKX+055+cc5/n/vKdc97vPd+5FPUfbwKBgMfn8x0dbQWIpi8Lj4iI2OPs/OoUxWJFzchCgW2giCgh2rS8nraBfGDQoubbBppWfVheLt/tMcVjkpdX7IY8oLudjYvkIhKJOHyxWPf+64C327/ZNBFf/zs9BaqnbMfYTfULXqPrZS6HsEpgK8cx0RNCHxddPxhICrSRw6mKIrvlNFo3u5kS7BtoG2dUBuGEAiqdFHsHQJpoE+fJ9GggYHsQ0H+Edrm6Ad04tnAmSYCgCspfBdS8Rh6Ed0b+Eus53GAnYOwwiuKPTgMzvoyiSmshW201J96jM7BylbbrMo+GpC+PUvoBCzg86yTQ04eG8IVV+sGaasC9kKIyaNRuWVA0eITIYk7vrSSeWQWtw04BQJeEdXJGl7yMp98yC1F2M4iDVA959CBuETB30yMjSPEYpBdaTIlZEM8ZjGLI4w8ynAw8Zbk273hVteUHzJIKkr3GPT7mR8gM3akH0VagHNJwq2x7qj2MWk1vykUOers1oCVjjTlgnHmc9aBDrPGSWNoECPtyqTAIvawR1XCYbM5UJbDRCtAwrZk0ajSNBqCx3CIg2AqlDybqbPzy4sXTBiD3aTOA8WKS3yssOxZcyUtffHb8+KmTbWMSxr1NnMWRyvUNWGoRaR7w/uefHjt24r2mtvuWHARmD/UuOamSRlkCeoWAvjlhDBLm03AYuKsLINnGswTUl2TeyVPaqRkoiQGTXlgLyGJzLFqjidpEO33p0mljBfTvR5x4b4jOge0CuSXmrfg5T+32X7nSaMShfWYBnu84HqiYGNJ9zFbvHulm/SVHrk1SucQ4oGxfCSQZZUfyU9L04s82e2AJNnRmfDfHexuDZDIIK+uyHnoME5rmxzVvmOsnRVLKkSbzZPLUPsQ4sw9XhyUf6rdzXDs2wiXy7RVlikOvn0xCqdmf2qmuoKclGuBVBJnOXCIN2iFs1oD6+voBL2eF14nbAZVOBmujJW9d+Pvj+/f/+vP2mxOm7Dcvco7/yIdTkzrkMQak83/cvXOvpeVe8+8/nr2g2lFqPqZn5j+r8Pbu47xwYKUBR3Pm5xa1Wt3Q0PCRuvm7q9/nJbS3UEo3t0ABtcvdcG7nrv5y49ZPdxq0LPWHN893ecMSkyqpMV4ljUZz/oMzX33dTFDqazebAnItMPA9tOklP6rBg7OXr6lJTFc1Cpf2q+Z9EK5UsbE++fZ6S4P67oVN/u1xyl4kKZ86uJhNCpoHN35TN5/V+Crb0XiiE6QhlIhUOFKJ6ahw5rr616auqeZBMWsBXzdK/BIQ5sWwBHX71uVz9FLzNUEfIRaRKs6R1JMzcj1Zpnf03A9N2GjuOBj6hBB0Ol8PSo/PY02ao8AYPvvGx5G8pRdHkq52aq4Csu4MK4sdxJndlThZsM5xcsrJXYnqS0pwGRsolk3cbulPk7N1tP4SkVAMmT81U4oJW6SmORM6sVW5PuSNORP18Yp3kDsXlzqoQv6grFBTHFU/trVOJAY2vOLhYHMtQo+QGtUeDpk5XnuNOUGFrGa5ujg0KaZ1sI1B/wI9iEvxZ5antcXMzYoxY2w7wyNb+yuGQ1jEbwURp+oVNie61XndeyQPFVtY5iyUwF5b1LaCyN8MiQtx9VAoxrvOTojkWVouuSQBu5VtQPpbolJp3UeGoSmI1rmEAcjqdtAez2d2BIizrnuqoCNAj6qUrlib2REg0SH5Un7HfBESU/+v9g9yc/nntRW7hAAAAABJRU5ErkJggg=='
p49
sb.