ccopy_reg
_reconstructor
p0
(cemoji
Emoji
p1
c__builtin__
object
p2
Ntp3
Rp4
(dp5
S'emojipedia_url'
p6
Vhttp://emojipedia.org/shamrock/
p7
sS'index'
p8
V306
p9
sS'code'
p10
VU+2618
p11
sS'apple'
p12
S''
p13
sS'twit'
p14
g13
sS'gmail'
p15
g13
sS'related_to'
p16
(lp17
sS'name'
p18
Vshamrock
p19
sS'known_as'
p20
(lp21
sS'default'
p22
Vtext
p23
sS'bw'
p24
S'data:image/png;base64,iVBORw0KGgoAAAANSUhEUgAAAJAAAACQCAYAAADnRuK4AAAI80lEQVR42u2dLXAVSxCFIxCICAQCEYGIQCAQCEQEIgKBiIhARCAQCAQiApEqRAQCgUAgEAhEBAKBQCAQEQgEIiICgUAgEIgIBGJffbdqqanl7t79mZ7p2XdO1dTjvYJ9Yffbme6e07NrlSRN0JpugSSAJAEkCSBJAEmSAJIEkCSAJAEkSQJIEkCSAJIEkCQJIEkASQJIEkCSJIAkASQJIEkASQJIkgSQJIAkASQJIEkSQJIAkgSQD52dnVXfvn1bDH5toe/fvy+uzz8F0Ax0fHxcPXjwoLpy5Up17ty5am1t7e+4dOlStbu7Wx0dHVV//vwZdf2Tk5Pq4OCgun79+j/Xv3jxYrW9vV09e/as+v37twAqSV+/fl08vPCBdo2rV69Wnz59GjSbPXz48B9o2gawvnr1SgCVoA8fPlTr6+u94QkHs8mq2YhZZ3Nzc9T17927N3q2E0AJ9PHjx+r8+fOjHm49Hj161AkPS9OU69+9e1cAeQ2SL1++POnh1mPZcsP1iaWsri+AMouZI8bDZTCLkU2FYuaIdX1msV+/fgkgLyKu2NjYiPaAGbdv3/57/c+fP/cOmPuOJ0+eCCAvev/+fdSHW4/T09PF9be2tqJf+8aNGwLIiw4PD00AImsCIotrM+aQkc0CIAqCFg+YcsD+/r4ZQF++fBFAHnTz5k2zhxw79gkHZQcBNHOALIcAcqI7d+4UCdAcNl0VRGcalB2UhTnRmzdvigMIl4AAciK2GSyDXYvBpq8AciQqx6XAw27+XHblZwMQxrBSAHr58uVcbvu87Byxdsutg+c5ORRnBRBvtneA5uZMnJ0j8dq1a27hwTstR6Jz4Roca2lV5iWAFmKZ8AbP3KysswYI7ezsuIEHB+Jce8VmCxDFRdppFDgLoNFitzt3hRqnwNwCZxcAYSon4KUAyBv69u1bk2meztBc8BDM0+QYU9SQaIJ8/fr14r5h5+X/kQvS5AC9e/duEZ+0zQy05tD1GdOtN6RLNeZ4/vx5lJ//58+f1YsXL6pbt2513jcaI3/8+DFPgGiT4QYMeQCY2ZmZpoqZbWpD4NCBR2nqrMDPjaV2SFmC3wtsqWakJAAxm0x5gHQwMHNNEVN9qniI7QpmjSkJAH1uU+pZlA1SQLSWYuaJ9fYzg9WtNmPEkuLdqkrMFqvDNoXnyByg2D1VdI0+fvx49Bk/1vWhsQ+NwJitjtg/DzNvsQBZWizYeR+zrAHe2NM1+hwTM3SnnWyU5WrqoRBd98lyKTMFKEW3xP379wc/NN722A+M+IoW6KFxWeyW7NTdH2YA8WZZvVXLHH5DDohCsa0fQ1J2gKfrNVVQTyZXHEBkXinTZh4GsdGQ2ShWOxBxXt9lguJpassJyUdxAFEpzeW56ZupkWpP3S8jw+xTvAMwTuTIYTUhqysOoJyWCpbOvksKgfiUpYREYZXYaqCWlet+FAmQB5M7nRp9DnJi6RsbwK8SPWu5DW7EiMUBRFDrxYuzyglI3DS0eMfS1wUny6PVqSFjHAHFAUS9JVUW1mewQdsVYLOUxUqNeXm8eJGKzcJS1YGGFvq6Auy+zYl7e3utgTJFQW9dspbVaFOA2En35k3m4badBw1cq+IVZpZlviWWSQD19vflZyq2Eo1yeXH63NhllWP2srr+HOWJZvxEMO21N9+6E8QcIFLY1F6cofFBGBsRGF+4cGHp7+VlCN9mHk6snXOL0bbUFucHinGCvHWaS7pda9m5iMwwVJHrDAu/jecTQYA9RQt1Mkciy4XVLnjMNxY4qCw3YyGyuHoPzVOG1WYpSdV/n9QTzfLgOV6oq9jMQGx2hv+N2Mdz23TthJzq3HQNULjRytvueVkr6cAqZna2bqw+pOcOII/V2hIHLyBLas6+sywAEWOw/+Q5OytpEDCzdOUAKSlAOS0NQ9piCJjDoiA/M2b3FO7BqVaWoa7IYgCiepvT0tAHHCrUdZU53Iape9vJbOi58pxNsqw9ffp0XgBRTPRccCMOa34fLASo6fkBJGaltoKjh8Ge3Cz6wsgMPO4R1Q2LbbvqIUBtv6cuS3iFKMU3ycwBCuspnpYr0t6uNzRcplZ1NfB5cY8vSVg9LxIgfDHe6ikY6fucAhIuuX0eAjASaHtLECwN9eYAearx1IcO9FUIQjM+6hKWEG/JguV3ycwA4o30EmTyQIf21Id/fkyFlyXSy+zLx2iKAyh1X9hYK2tbySG8xpR74OHw8/ADwsUAlPsLOsQwBLdT4adaPjULzZ1IEOAXB1DOvjACxynn84Twx+qpytneo8bCAaPN7zxEBNsWn+cmDsuxpBUJELWT1FlWrO6D0JEYu6eK4mNqnzi9+8UBxI57qiwEo9eUk8uaCtt7LJrymCEJ7lMBRAxWZB0o9ulkbTcntn0zrEJbGtOxYKQodVi6FE0BsjyTkNltSGFwiMJg1/obF9aFR/zblk5FU4CYGSw8NEOOcBmqZg0oxUdSWNII/i2WfLZXit5Mjb0fZrFkhWqea5TyKzvcq5gvHOUMa0tHEj8QKf1UiIinLPd0ajWLfqk/08Ryw2w0teGAxGJKLcwVQIg++TEeaOomAJjK79s8apeHmUNs4OIcGPPicZRxCniSAlSn9qSvfUDiQeIETGkUX1Z6iPW9iylBNrNin2yNWZqKd8p7lqUrg78gqSW7xDj6WCYY/DsFyBz9TXVa3XwoYctzbmENJkbjJazvGUVPILdKKlwC5FU8kCZA1o6+0iWAgpJDc2mlHjTnj8UJIMP0vY7DJAHUS8sOTuhzCqsAkloPRU990oUAKjT2Wdb0SCEvVS1FABUsSgdt3aqSAOoUtZO2LQOrnX4BNCO1OQOBqs8nEqT/MUBdnm32oCQB1CqKg11HtKj6LIA61fW1wphdGAJopupqrbE+2V0AFa6ulmvNPgJopbo+xanZRwCtFP3ybSedSgKolzg/MCwgYmTPZcgSQIWKQiFdEByLm+q7EgJIkgSQJIAkASQJIEkSQJIAkgSQJIAkASRJAkgSQJIAkgSQJAkgSQBJAkgSQJIkgCQBJAkgSQBJkgCSIug/fSVy+7+2RyoAAAAASUVORK5CYII='
p25
sS'version'
p26
VV4.1\u02e3
p27
sS'uni'
p28
g13
sS'desc'
p29
g13
sS'browser'
p30
V\u2618
p31
sS'annotations'
p32
(lp33
Vnature
p34
aVplant
p35
aVshamrock
p36
asS'wind'
p37
g13
sS'andr'
p38
g13
sb.