ccopy_reg
_reconstructor
p0
(cemoji
Emoji
p1
c__builtin__
object
p2
Ntp3
Rp4
(dp5
S'emojipedia_url'
p6
Vhttp://emojipedia.org/volcano/
p7
sS'index'
p8
V395
p9
sS'code'
p10
VU+1F30B
p11
sS'apple'
p12
S'data:image/png;base64,iVBORw0KGgoAAAANSUhEUgAAAEAAAABACAMAAACdt4HsAAADAFBMVEUAAAAAAAAAAAAAAAAAAAAAAAAAAAAAAAAAAAAAAAAAAAAAAAAAAAAAAAAAAAAAAAAAAAD+/v7s7OyFGgV5FwB7GQD////q6up+HQB8FwH19fXy8vLu7u77+/uYOwCHJwCeQwB4FQCHIgKbPwCVNwCKLACPLwD39/f9/f2jSwCBHwChRwDw8PCEIwA3ERB/GAKBGwGaNAMrDQ6nTgCKHwYxEBD+mk4+FBBGFBKTMQJWGxSsRwP81amRNAD0WDxpIRWOIgX6z6GvUgP//+qZKA5NFxR0IhpcHRCTKQVOEQrIPCT5+fmPLAGlQgP+kWNmIx36wZmiLA/9iVyiPAL+YEOeNgZJGhNhJhO3VgN1LRY3Cwg+DQmVMh3QVzNXFw8jCw2+OyJGDwvleUjtTDfhYzv9bEGqUgBhHRjzxpP8x4+PJwWLKAHARST+sHv/mWu9YyqjRCn6tYnwjGLuoW/WRC395IfTYTr+TjngSjT+n3S5Mx3+nlz+rWH8gFb84LCoPyTQbTh/KxmSOSS1Ph6iNRv/uGb7ilL9w26WIg3quRdqMCLvs3r70pdwKR2/Ui2KKBikOw7+9MPMXy+1TjD+eEHobEb/VEPcc0zmVzr9ymIxCgirMRb/jkLmPjH/rVH/qWz/6WFQHhT/+ypWIhmzVST6yZz9vJToh1b+7rT//9vyQjf//4z/33v/hEreWTDOSSr0hEmrJxHVOiLNewv9Rjvw0hzdPSz//ECdQBduHBBgFBCJNyB7IxX626ixSCbtcUu0Sxq7SydcMCP9352vPxb/+s7/9Z3JZUGyMxjedjrHTSPoj0Tzn1rmoU/5vlTJNRr/xH/4ck753h9mGRD8z4p5LSJvPy7jqhCAPy2dWUWETznyekq+YgT8z3Hwezv0tnH+/af//77bjTzDXDjVdD/MbSz/6W/mszr/3WjcmQ74djPUiwvRhlHmUiClTROTNQ+WQiuzXTztaDXGbQf/9nm/Vh3tYkL66x3us1PsayOzXBjOfSLqozbeUVP/3ErNmH0cXjlHAAAAEXRSTlMAgwwlXVWuK3geFTxvSGagfjDkyaYAAAjPSURBVHgBzMyxCgMxCMbxklQu6nFQhIJjtmwu9/7PVknM0q1O/U06fP/HXyiEKVRijwzPBGBcBeJ3EtMMILySAGegXtnAVWfgOP2+5Ue3j85jBZrfYrp1VdN4Leg3Ex+1HRhjiPbw4XP8WeQE4jD8IZyBsVjEKQfEKcRSpphCZtMYvF4wNrpwVwiKZTYEu7tiIweuV6USdmUXkXyAFJtrtg6B/QgXuCJdIHN3LPuHuzxg8ZP3fd5BV9JAVQCAPKTNVCRAl+cxqiJLpwLwgg6/6WDVlkBVlLJk61IXTlgoFJzytkAOQb2tuFI24YRvq5I6fm1SznUV/ldgwgNmyldDMWRbq2R846eQQhAEVAoOkXOBheAeoJS13vRZNmSF2PrzeUopjGezXFgq3IOsY8FoNLIo2gO+ctNcDUNYZpum7ey7iEFlac/z5u812IeoJUsnAnIQFFxOULPu16ueieUuiot0Mouy9f1ERRK5j8ibAgK9lqAioJw166GdViLNGsG0+773TIaRzH28fkXADPICgs0G4ryYLtsgCJ3bKHKa3iIY8zDElCdy4fIBEoMdC8bjMcOEGAQZxBWZ5zLPq5wwLPKFPZs/7hadhwjx/A3CMoaetjCTpWNBjA0DXfxGPM2yIBM4roM0H9rI/iI+2LbTfaqF53FqPEHkh+NzgSb/apoRYy+01pWLMUvzz78qx7mV/VD4jsjxzyvXNWRQop0L3ER7xsDMC8IqINPa3di27/uzu12dd4/3KJhcPuAkfvecS9zXBcbNBZ7mvu/w99+t+k+U/7CjhSOf0d0kidul2p5/bM7vTxpnAAfwf2Kv1ADJHRiDe3EhIbkcNjnYq+W4Ms5baVKSxaE5KuDghsmVHzNtgRBYK1qjZIsYUwQDs7SE4LIR7VCMFQ0aE+emU2tXteqWxR/Vttn2gHMR6ffFPZcn3+/nrhIghMXw4dFl7ceNDxoNWnWX4fMHCel3/bovj5sfaTsJopXfR/OFfH6xSJQBtbW1qEhYyofCNxN9zSPzx089rrFG95w70a+79fiTO89uEHyCuIO2EtpSU4SC0UUAQUXFCCf6tAbaMK/Tjul0xzaXK5FIPNIZbo7/2ttJC0UitJU/1glOEYq8H0DHJyaeanWOHm1PT5/JHvQkyBGp3T4xbZN2tYMhn+5Sf0W8H2goBu0kEJp2z6vJJlIdCto9rv6ZvLT/96Npe9MR0YA+7LjX0SYCxXKgqqqKhsEt3ACP00iXod1Ckj2uoCc0EFzdduWD29tH03kl+ieKRjpuIkipSoNROVCKaNpNNJFNFtfJ7MuXsWw8bo3HwcsqpkSQh20wjMI8XqlYAVA8EJgHj5NIZ9fU3mo8HlufVODWaNQai20MM/9AsFgA1v+HugxA4HKUB1HjFP1RJD879846qVAohq25QGxDoTh5SyEX56B4CVBCEMRr+4NHQRA16296N7e2uDEMhNzhOjij1uBbDOFBF6K8DAgEAqhOAIEnxj63F1SqIX1UEchO5taBM+nMHW5paGh0FBTOUgGIBeehNDueIQCwvsnhgNWaKwKBTC62hSFv2s4BcRlQXV2Nif+LgFrx/q1XAWBIr88CYD0QiMpkDB493MWUSsF5DwOjMqCuFLFAmVxIx8NhGQ4MvX4x6/dnnVEnngkz2YGdFUwpFp81KwDJGYDtDKa3WSPudKpwnNEzgYw/k3HKVLjMzPoGFrwH2BkgKQPq6+vlkmLqqORgenXvlV0vk+E4HmYW/YysGJUZl3EvZgcGF5JYXakqB6MyoEUiaZEoNam0p+PUVhjC/eFwuPgP4YwTAENGzmxsfrZXEjDQbKkA5C1gv+JNe34D3zeyBaPZzDCMz2f2O50y3Eza1Jy6cX8GCLsaIMgvA5oikPS+nnv1rbEQWv7lrwi35vP5WJ9Zv7ho5DiTzUaaHFf2E8H0oHd3pUWuqQTku6mFk9NTd8jU+9PPt6eMnrU1C8uajSZpT4gzcTaHgzRdudWdHxh87T14D6DZSaVm95/0mYyh5Ws/fN2dd62xFhCb+l63pUCSnMnhCKnvf3B3rygky4CamhrNylJqa2b/8d3PZjzS69c/vXp7KmJne3vH3GT71S82LZGIqcA55m2bP97/5kUwnVpKgtFF4GAp9XzkCf/a9zc6+jf/5WJ+WptoAgCMf4eC9OzB6wiD0xnmMl5mhlxcyGGWpZuuWQJ7UbN42IuWzW6j0IVNpGnJpbyybMBTRW9v/rC1QahabCklaUzRQ20RvNj6CYy3uMfn8Px0RbU4bNi7Ja9SLIaqfzWdTveffn34aLXYbt1fq54frp/mgNMfl0dHt6SS5uU316GCaKOrVsPz7NWdAU61aDKe7P93+Oxl8d5ju/ThRfXzeg44+PT2qG7Ik2anVglF0+GOCJhve7XdHbOMExVrw5F3drZ63H5V3PIHdzsH88DCwsL7m836r8DMqhdnLS0whHAMVcg+Nhpb2/UyRpCmKg3t40o0nn65dlnv9rvZNA+cFIgR+LXzN8X9aGTojMYp6FU3Mn9r6UGPQ4g4wMx77qLheDwJA9q7kQPKmJmttn3Rvh5GsZ5QqvNecLnnB96T190ViACEUDaWfJwmSSrESqGQB0T9u127moyHI83RAdETJv/fWDOdvaXfgxNscYSQbGxmZeIgxNlKeTkHdM3ORicaRtEoEIwirjuUZnt1g7jbPwOprIRjrrdKprQ4sSDAJA/cqWeuoWmJJjClBEmqA5H5ZgrCzUpMsIUSQDQ3ix0AKbJmRDkHNM2+oTmcMgwBwYomGAzMpoFBv+SmCkALAcTMvq4IBBzOhH+AxcXFgcGow7pMIQwokQmHRDLBAI77UaowghAgJYTEAEDwN5dn0zzQ/dN5GaRADMJQlJq0umjQW0muEEHItbzJzDW8UEMdN7PMAyF/4du/2uesnUVVuyGijT8sjZmbsIwhw8bXhp32/gUutuD2Cn7JA+gVIKxupJIvB7nQ6sYQMR0OEsaw05dOB7TT1wwQHcD7/wGavRBYQOxcIAAAAABJRU5ErkJggg=='
p13
sS'twit'
p14
S'data:image/png;base64,iVBORw0KGgoAAAANSUhEUgAAAEgAAABICAMAAABiM0N1AAABIFBMVEUAAABmIhNmIhNmIhNmIhNmIhNmIhNmIhNmIhNmIhPBaU/BaU/BaU/BaU/BaU/BaU/BaU/BaU/BaU+dHCZ3IBlsIRWIPSp8IBuSHiKYHSS7ZUt3Lx6NHiCwXERsJhd9NCK2YEiePzOeMC2eKyulUzyURjGZSjWCOCbwmzr/zE3Rekjgi0HFbU3YgkX7qDXslzzkjz/BaU/okz7znzjUfka+GTFmIhPJcUz3pDf/rDPNdkrBZE2/KDfAS0TchkP/ykvAWkm+HjPJdU+uGytxIRfjfkH/tDrkoU7gm07fcz+/NzzGLzXaZz3vn0a/PD7AQUCoGyqjHCj3rD2qTTz/sDb/sjj/tjvgmUy5Gi+CHxyfTjmHHx6zGi2OQS3/xEe+IzXk53jmAAAAE3RSTlMAYL/fgBAAQO9Q37+AYBDvAFBArxa3oAAAA59JREFUeF6k1Fdy2zAQBmA+Sy60T4HOXlXde0vvuf8tAhAkghaHlP8HaXaw8xFaCAxE9ufJGzLbOwjDMAjD41nyxhweCejIByCMc+IHcoxpZVPHYXBw6DKkbngY9lBr1oik1tIsDPZ8+2lkMvvJJGqGJUvaD3wDqoZ2Zkoka1TWJjQPEl+o9WDXqdvEjAm5UqRBQBoAI8SrcVDSgl7KlYPlCai5uZA/VFKMDLSoYl6NhxTFhIT7KuMo0raMRMgoKKm66cqTi7nTDggG6jRyL1TRGAAQYaSfUzpMv3do3eiJXYgCtcrS6q+EpIN9jPAtCGXmuqRaocapsLsm0DhBJhS7Hd1dS4cKJGTYcgZ4agty/7SMd8myzvtTl5X8jJEaaNS1qxmZDshl17ruKro2fy8yDweDmuoQUE/VGjETgDs2fwLjZgFiXBNz/FlrAS4UqRtqJdW34wAuBNQ7w5EMZ+SOmGcCp+9658Pn0xEQUq8qK9cQXkroF4TX/4eSCmNKXOcKQrj5KJxPkOfqdeiVQJEN39PlBorsCj1BK0+7QduTC9O5KLa7QItlUdzozk1RLBc7QLcFz939g1Qe7u9E/Tgdeiy8WU2FVoU/J9tJkHLc/F5MgVYvz/+UlhOg9+dl2QHPZx7pdjT0rSzLcw58+cq/9Jx9/yGlcdDPP9XVO5eyMBAGYLyh1gSCCHEvultvkTRbQrWVdEH8/79jM+MXBhDlfCc0+zbeTh6TN+NRmQTGYQZsOzqE90kagSJwODr4SImVyQ6lcShBh2kpK7usCVeQEqUxKNlbJ1UQ6ORcqLQFhRrqi55DWeOU6FTgABgThOpORc+gTIBTa+wVAtNU4DZsR6jmgfn4kDyELrgEO6jQ4fjdDXlVnexfHkCvwMRa4nEw+W1DzdnSriSyIej7DY6vJYahU0vsyraFE9HN5R7K3nEKbynpeup/EJODUpT0oKOgocEN2ZeFXSKHpX3WgU5YM02wbRr7pbapPYr4ICj5tCsxgUL2Ss8hAe22EzsHHk4hdSJ1quhgrXuq6XfSjzgidBGWZsE5qEOF4f1lIUH3Obx8eVGPp91BFGUnqbS7iJM3oFC1uo2X4DD1IMNQLIfuqOAFAaMQFUtzTfk/iGkLpW4Q/RUxJyhsnFw5QbyBKjdIaaraAaLLz0MHiCQdg+MCYTgHwAWi/H1oMY0z95bTQDNvtZnCWfiev50CWhvIXzvXtNn6BjKZzZ2OtVwZ4xe/Yg1w5nVrhgAAAABJRU5ErkJggg=='
p15
sS'gmail'
p16
S'data:image/png;base64,R0lGODlhDwAPALMPAC+f/3QMAUForqXM9pEeALNSX1hHb0+n/nF9s0ON4XW7/VwgNWUAAGYAADOZ/wAAACH/C05FVFNDQVBFMi4wAwEAAAAh+QQFMgAPACwAAAAADwAPAAAETdDJSau9OGsNXO9YkgACkGDkYjDGUlqA0TBMEBhwUgcM0SwnCqnHCxAYL8rCSCMuQB5B48iYTZGfRGBW3TV+I8ei2dgyq0+Zz8gjdg0RACH5BAUyAA8ALAAAAgAPAA0AAARI8El56Lz3KF0xVgMwdJ6kIMeQAOW0FK20BE3zNAuLCRgt6A+AgGHDMH7BxIJRwiWCBkaANmHeDIAEQxowBraJaEzSiHbHDUYEACH5BAUyAA8ALAAAAAAPAA8AAART8Ml35qxWHmV3tpzjfdLwOI7CkcrgAM6zZoDsCFOcOYHESItEbQIwMBqBX6BhGEoci0aGsdBNpBnss6i1MJonaIPwszSqL4G0nBXAol3vokiaGiIAIfkEBTIADwAsAAAAAA8ADwAABFrwyefmrFY6d47GmTRoXvh4ZVVmhyIByhhWg6vcJiBIgfEIABAFsAg0AoTHYjPZCRiTgASYgVYnAEBiYc00FoIEwMAIGCeNB6NhSCQYUGkIniDDTY8Gg4y36CMAIfkEBTIADwAsAAAAAA8ADwAABGLwSXmmve8MB/DsAJAgnaJYSfI4iJMAmpI+IrIilTKQiCqFD0QhUejROr/EIkB4EAKLlwVgYDQeV6xAIHU8FlmnJOq5hL3UsIVhADgEDjCBYV44OIIrHdMQuMFqawtUZWsGEQAh+QQFMgAPACwAAAAADwAPAAAEcTCVWQC1VAqkT0FI4TjGlDhJCEpcIhVp+s0uYiWYCs7iWhwhyifVOuAEhGRSADwBEA6EIaAkLA6OpwtFJXQDUZfrIOhWBYAsILWodheAZ1zQSFIDd0PNwUg2/nh1BDgJC39eAQ1Uig0GJIt3hwEMlAYRADs='
p17
sS'related_to'
p18
(lp19
V\U0001f525 Fire
p20
aV\U0001f6b5 Mountain Bicyclist
p21
asS'name'
p22
Vvolcano
p23
sS'known_as'
p24
(lp25
V\U0001f30b Erupting Volcano Emoji
p26
asS'default'
p27
Vemoji
p28
sS'bw'
p29
S'data:image/png;base64,iVBORw0KGgoAAAANSUhEUgAAAJAAAACQCAYAAADnRuK4AAAQ2klEQVR42u2dLbRN3RfGBeENgiAIgiAIgiAIgiAIgiAIgiAIgiAIxhAEQRAEQRAEQRAEQRAEQRAEQRAEQRAEQbjv/3fG/zljvuvO9bH32ds9e+85x1jDPcc5Z3+sZ8/5zI81176dkJANZF/cgpAAUEgAKCQAFBIACgkJAIUEgEICQCEBoJCQAFBIACgkABQSAAoJCQCFBIBCAkAhAaCQkNEAdPTo0VHH+/fv18e6cuXK6r0LFy7s/PjxY/Xe58+fd44fP77re1evXl1/78aNG+v3v3//XryeM2fOZM/l6dOn689dvHhx/f7Hjx9X792+fXv0+1EbnP+kALRv375Rx7Fjx3Z+/vy5OhaTf+TIkdX7/Pv169fV+/fv33e/++rVq9X/86/ee/HiRfWB8H7rn3/+2fn27dvqMxx3//79q/cvXbq0Pjc+M/b9qA3OPwCUDDSP5N27d+vJA0SaVCYy/d7Jkyd3/vz5sxpoKd5DS5QkBwI0juThw4er9zgPNCBy586dPQdPAKgwrPl4/Pjx+v1Tp06tAIKWOnz48K7vvXz5cvUdvs/rc+fO9boe/Q5y+vTp/2gfjn3w4MEA0DYD6MCBA+unHYEH6f8ePHiwNlXSThpnz55dfwctBMi6Xs+hQ4dWIEU+ffq0PgZ/Ixx/G8ATAKoMAPDr169dfIgJ/fLly5owp98T8MSVckQaTeId9+bNm+vP6DfOnz+/eg2w4GkBoAkAiHHv3r31sd++fbvWBkwokwnAUiLMpFui+/r1a/daIMfeMT98+LDLfMHFrGkMAE0EQABGpgNBO6Q8CYBYUwaZlmDSZPJaAMSEyHwBQH7XusonTpwIAE0JQJY4y4RoErl5cvktsBgycU+ePNm5du1aM4AwiRJpG4UC0ELbBJ4AUIchsyRTlk44gUbIb6qdAJIl1jUAvXnz5j+BTEj479+/18HEANBEAZSaMpFnG/Cz/MTGceAxLQDCNbeajtePHj3a5Y0FgCYIoNSUWfJszQ7aJgXD9evX11qkBCBCBVbLEUqQieQ3tg08AaAeg6iw5Pnz57u0kNUUSn3AYcSJSgCyZJtIs/JrkGnAFACaAYDgOdIKSoamWkiEmgi2eJDyZCUAWfcdbaTXudxbAGiCAErBwiSjcdBCChgq1WA/9+zZsyKArMnDPFrinUu4BoAmCqCUUGNqeB+zYyPIuPsSL5hoAWRjR3hi0l7W4wsAzQRAaZIUIKBBGDJvuPW8VipENTw5AFltBXj0OwJnAGhmAEo5C+52SrL5W58Roc4ByNYNydzhubVm3SHZ8LHLly+vwHj37t31wIMj9aISkwDQlgwb31GSE7MlLoMWUg6L91TV6AHIaiiBDiCVzChaEG3leXg5gacRHR8qJbJ4AOFV6cnFXDDwgABHS8WfjRzLrbfaRCZMgPIAlAYQFTOyJSS2UvHWrVvVUtkW4Ty9mqYAUEXVU5hF1Fixm5KgGSDEgMwDVFowhvekwq9ULJhsOYcl0PazaeQZM+RpG36HMAFxJB6AtM6a14AR4AF4gVVmchOetRgAEUVGddsYTlfhu/CatB7HciGVfHgT7UWj0xLaNJGqQWmsnXj+xsSRMulaG43WIVZlz5GylQCQM7D13Gh78+2EUvzF0wsJFunkZjKBgCEHONxyNALHwPxZ4bVXC+2dQ+r+S/TbDIBvhXMdoqgMoKO1dF5yBAJA/+cV3Ph00gANtp8nt8XD4SajvQCV54oDMsyWfZrhNng86bFzAEoBYs2XBRe/i8kcmgdiwnRulJ4sHkDc5JTfEPjDnbUlF30GYAE0qaTHQwN5wcMURPxm+jkK6lVEr89zzE3PvQVEDB6YxQKIJ9ZyDZ5abs7QpRAAyXpgHl+CtNYEUNjifZlATK9IN97d30imYr4RFle23q/ZAIgLtktxeJIwO2PfeNz9FACWq9RIOxNgAc95AyppJW/lx5hDxwX8iwEQXojNdmOucI3/Zm4s1XwCg/XQPMFcpORcXhlm8W+v/wIQaD743iIAxA2269nhD3u16A7PKNVGafAwlTRmRMxJ3/EIMxMGl0Pbct2YaAYTTlQac70pV5LpVanKbAGE5rE8BG9mTHXP8RScy4HUNlloEZs70wPgpTHwGnPLgzyiDsA2KQPBq7QrcmcJIJsy4MkdEjyAhVgME0w+K40iiyjz5MN1+CzfgXN5n82J5W2YQA1NPqbYLnO2Xh/fBbDwMAGbv3HFmXxMOefW577wu7apw+wAZMs/0yU1m5ohNFkXENhEJRPmufk5sebXalJ5lKnbD5gxba2g4Hrw6rqaNUXTa1xykgCytTNDrRNHc/DUesE+nkRMCseF4KJtcOPJLxHvQUP0TZF4QOV3UxDyuTHCEbXKS653VgDCa9FNT1eE5gZE1cts2zyZrTCUeSIM0OrNYb644S0J2pJAoFPPjXPbi/XwPFS1ROvkAKSUAd5OzdsCGJDsUqIQj8ZqAf4moNbXk+OmW14zRMnFXq7IqBWhTQ5AekprFyb+UOJHtnGCCK06cAzZX6ivoGG3oQvZ7ABUMkc8rfLOSsthVLQurQPRHKtasY9AlrcdPJMEUAkU8CHFSiC9OX6E2Uoz52PcXC9730qsS5qQSYPcEmKAwMOZFFBUUBESjjeHOYbwj2UGJweg0lMp154bmLthkFG7UmIok9ViIlvFK6mgCAww1FIjJYEPArwhNdtskqmYtbTBZSlZSMxm03rgMcyYbWIlwGNuc3EprhfPD2DxXQbmD02U+w7XDjccIiQwm2RqqeWc9SgU52nJ87RUOxIi0DIaiDuvrQfXtfhdlYhoUExUGpdS/TMAIMRQM00KJFISkgIK0G26OmMWAFJPwVoLFFX3bRJ8JKILD/PWeVmtAJFXGKFV1F+avJeNJ/F7cB207CZag3MH6DboSdqk5JQsAkAKAtZuBGkDnsK+MR6Cal0jzl1SIpy/XUOvwvmhg4iYbgvsTUA0eQBxc7nRBBZrTyc3qk+nC0ykl9DkuBBxzAO/q4L8vnk067WhjcbyDr1WNVyLGnouCkByyWsNmAAa0mdSUvAw0Rwv1WQ2BrWJoFEBEA8FppLXcsvhWEPWRquMVSGNrr89eQCR/W5ZQw6vYCJKar3EmxTcy5FvwgFdlhhvIuJEQ1Vd2qBq16U9kwcQttxublLKLOfqfOE2HgABBeaICSN+kjORaB4bnwFIZOnhFZgJb0FhS7pGgcHc9zmvIfbMwETr/PnNLsCcPIC0XKdFVXtaBrufe+rIZ0Gaa9zA5r20ggKwERDsE/gDgIBdE8nv4d7nFkgS29rUrOlhsd7gIgDEE9pSuulpH+2H4dUeAzaIbW2NlAKYuvEAB203lDlLORtg9kII8LIaiGoxI62m5XpaI/STB1Dr0+IFzNAcXhMDkfMaeFD9mkzAhhm0nVWHEDSnt5DA67lYSsACdM61FBKwDbJaTePkAdSXA2g9u1qyeKatiwejOIo2RRlK0JAtS5msCc05CYCjluVXQ/XccWcZB+qzjksmputacDuBWn5j81dDFpNJctfIMb3661xpirZcKC0axHTJJLfkChfZYMq2U+lLPu2WTDJ1gGpI8yUpFcVhdlK+pf6MuQen1ndams3blTEA9L+BmkdIbWyybir1WHKbqmwqtfO06+gluYi74lqlpLMesJaeQYsDEE+hbrZHUHPfsa/t9kvaACXXVGooqXma6YJGrtEzQUr9lHb+QTvxGcIDAaBMSgNp6bWDiUsnTxugWA/OLjUaQ1piXSkfyj0gWotWAiXgyW2It2gAWe3Rwn+YhFQDKfuvPj62S/1Y0rJXmLSLzal5IQpVbpbMGNdNBHy2K1P7DrnvmJuW6CzJ0dyWTPJ2vBZ1Y0hLyUXa7cyLZYnjpNeW8qqSB7hYAIkrtAQgSR2kpsN2ZVVf6DE8r1yKo1bPDO+xhNqLk0kLa0vNXJiCB6VWublYANU8DJW/pqkEhfu1oUq6onVsaQmc2r4BJJs9zdpCzsnj1Vz5xQKotuYbfsMTmouRQDK9HXjGFrRLjbvZxKh3DQyZYW2Qlwt3zG5p81AAKqlmsuDcYK8/jhpI/S2z5UlL3x55ioiXGJXmLHl3aDI0bgDIAVApTK9Ao0dax/a2WqVWs2O35/QeFi1vKsXCCIzWYmWLAxA2Hfe0FPdRAZdnKrx6nL0Q+EmNUGujF4/HyFsrAQTgBYCc9rwlF145Lo984rFsk+Qy7+m1eDxGoYcSQPAyA0AOgBQA9IY4jnfj0hjLNkgp0arMugcgxYJqEe6a17fISHSuhNW23LV7VaSkdJukFqvxNoex8ayaN5qWu/AAKoSxSABxwbkaILW3ZVJsOYS3cco2SZ91/pr4GhlXsjiN5Ov9xQEItZ5LoirGYze6tftVbLN4nK1lhWrXUuC0KG2R5RyeSud9xXZk4jBjUwCP5G9s0CvyrT7Wiywo8/I/dp92JgLVvpfBwj5CJeLY/RSVJpHGi013nW23+bu2RcG2St+dB7v2fpSZDwA5jQampnlSr2zMlsABoMYGClOWMRt0CkBhwjJlnnORsVoEC0CLJtFeVHZK3lYXEA29NULaQnnxALJr2+coTPiQmkhNsJQCWTSA0Dyl1itEoLWNEsR0quS6pIlYeZFGm0tDhWoKMC4WQERSS5ondYeHXvPeVTZdc5bTREitOamNXCt1os8vEkC2KYIn3s6HKjLbKyE3R7BTNT5DaSJplJatvtFUCER6kdl4JqHWwxD3NL3JtuHAXklaNeB15miRdAsItadpaTKhWJlNwC4GQFxozQzkmkzWNFZqKvrukZGTXGE8E5nrWlYSNIhAJAC1LPMmCZ3WHy0CQNTL1GqZKSTzstPc6NZN5LS3V6kJeR+hfLVWptsVRNJEAnutunGxBWV2h8Oc4F3l2v+2kmcmQCR16DyaLS9pba7QqonEqVqOsTgAoXlqk4kbX6roayHP1iTIs8kJPIKiLLhWq9Zo1Q6bFL4FgBx+UIvbMIGl9ebcnNoks0bLgseu+vTElsryWbhHzURqF+euPZ+7SJfOrLMHEOCpaR7+v7ZLYY08e8TTto/xxONZNS+va4lGn/ptHIw+WfzZAagGni6b6pbIcG5SbfsYj6jX9jHzpE8fxy6eo32o8LK6bEYzKwDVwIN6b+kpnVYoplJqUlki3TYA53lSOem7k04fEAlIlK62AGkWAIKDMAE58FDr0xJp9bLOXcBT84ZKJjPXoBPTtkmZKtqrz+5BiovVHrhJA4gnBM8jZ2owC6XuE13Jc4spKXlCtd0BCdSlICptENM6+N2xQDRJAMEzcG1zXhZco0uGubRDj6Sl5W3JbJSaOaUcyk52SyeOsUFU2vJhcgAqNXTCHUZLbFpElW6Q0oXE5pY/t3Q8tVxOkfMh97MHBH2DnLkVsJMDUM4FhZsMtaSF38Eb6aPJcrXVtT473sQAoqEL5DGjfTP63taYkwUQTwTR0z4cZ8zhbT2A9DnPMfe0Zy+QLhsC5xyJyQEIbQNHGfPmbjI8E5vbEWgbBmatT60TXiracXIA2taJKAUfa9n0qQIJKzBmod2klvUMNTz3fyhP6m8MtAr8bxuWOS0OQLkOZrUePNs61AoHx8B7MKgl0v5iAaABRi4TP+Q23Xs1uAZCCpgs8oCqn4qFhQMOL5HasqXClMcs4kAh85QAUEgAKCQAFBIACgkAhYQEgEICQCEBoJAAUEhIACgkABQSAAoJAIWEBIBCAkAhAaCQAFBISAAoJAAUEgAKCQCFBIBCQgJAIQGgkGnJv8h83y6hfzwuAAAAAElFTkSuQmCC'
p30
sS'version'
p31
VV6.0\u02b2
p32
sS'uni'
p33
V\U0001f30b
p34
sS'desc'
p35
V\U0001f30b A volcano, erupting with smoke and lava. 
p36
sS'browser'
p37
V\U0001f30b
p38
sS'annotations'
p39
(lp40
Veruption
p41
aVmountain
p42
aVnature
p43
aVplace
p44
aVvolcano
p45
aVweather
p46
asS'wind'
p47
S'data:image/png;base64,iVBORw0KGgoAAAANSUhEUgAAAEgAAABICAYAAABV7bNHAAAAAXNSR0IArs4c6QAAAARnQU1BAACxjwv8YQUAAAVFSURBVHhe7ZpfTBxVFMZnZnGBrXRZBSGmJbERSG2UBxvkyRjT2BegL30AqY0+tDFRozEa2hi1plokalITE7WvLYHoi9JEYjBFTU0AMaZpSS1QarbbWloo3RTKn92d6zl3zq5b6rKzzJ3LQO4vubn3O7Bk9ptzzz0zQVMoFAqFQqFQKBQKhUKhWF/oNHuCzs7O13Vd3wnLx2Fs4kGL8zCGYXzd1NT0E49IwjMGdXV1fQvTbktlhjH2Fc5g5HYe+I8ZGEOJROJYS0vLqBVyjlSDwIQWmDBDtvKApi39kiKIwHhJVKZJMYi2zluwTN82bnIcDNpLa0e4bhBkzQ6Yei0lDcyia9aS8zeMORgXYfyWS3bJMAi31QlLeQY0sA/q1eFs9cqg2TXgbnXA9CkU16gV8QS41V/w+XzvWjIzrhuEgElvQw3qJukFMIOOYwZZMjPSTjEo1F+CSS+TlAH2ThMwLqOADJ6F6S/TNH/IpQ2QYpDdHkckYMgbzc3Nn5NcMeu1SJ+Hbf0YrR0hq0gfgoEpL4MeqC27aO0YaTUoCfVFZWgcrLE+iGgesej2wxD+rCbVoI6OjkrDMN5Me47K9qgxBOMo1JMS+MyTVijFBMQjuRbdXJFqEGRMH0zPWMoWhyAjPqD1qiClD0rjIxg/W8uM4HbpgbFntc1BZGfQ+zBhwc6EsIdMUUgv0ss0jPz5KNnQiehhRCA7g36Hye47oAhk02Zarxqu16CxE899xs7VMRyBvGg1hbNS9eAf8eTnbp16+hMKS8dVg/qPNDTP3PQ1kNR2VnZOlwauXCeZke0P916sKT8dIgmPDdqewbZG7J+k49oWG2xvrIYepfehioW5R2puV1GYs5goCE/NlS2STJFv3NGLCydLDJ0FKZTibF9o4InXeupISsM1gwaO1H8H9/7Z2sapIgo54tKZopHr4YJf6g6e3E8hKbiyxQY+rj+g6fquYHnsKoUcU77lThnczX24bSkkBeEGYa1gpnZAN8yJiq2z5RR2TGFRInifPzEOWfkOhaQg3CDGzMPQ5wRLNi1G8UtReEWMDRWNzN32pV7VBkLxGPztbZBF+IZACkIN6m9rOAZbqw6zZ2lhxhry548PjIeHN4xRKCs3/ymoOvdr8Tx+FvX8jI9fr65rz/e31b+Ca7cRZhDWBqwRuN5YGrvFgwBmwJlTodEb4YKq2KJvy/SEn9GP7gJ/58LgxgskUzDTKMPPDp4s1RZm8yopjLTiSUlr1xBiEL9QnbWT1O4Pxfw4oznDp4uj6V8stmDk0zIFZgj+TnQiv/rKaOElCi+LrumbzQR7j6RrCDGIJcx2vGCS2uTlgjhmw9m+YsOMGxUU5izVyGTEn6pVV0cCgfS6sxy41fiJ6SKO+yB+gUxvI2mL2oYbtNI0rEnXxgOPkuRgDdsQjEdnpv131bH/Ax5uo4bPeKq2tfue7SkCRxmUPNJJ2iY9Q6Yi+fdcA9YdO+YgeGKaCfMLksJxZFDySCdpGyi6PIWw9mDh5kEHwDXscGurrXiL4ZGePLVyxcgzw4Gi+LzdLLED32q6sbv2YLfQl/YryiDsQVZqDoKFWqQ5CGYyZjRJYeRsEPUerZbyGNCkwkPyUVJCyNkgLIjpR7rXgC70RZHvjnIyCOrOh1gQSXoSfqoxU1gW2TaI3xXGXiXpacCkbfy5UAC2DcK7gneHpOfBQ0TEuyNbBvEjHe4KyTWE83dHWQ1yeqSvJnyrOXx3ZCOD9BparEl0jTnq1LMaZGj6N0xj/N/Y1hrYXcMX+J6kQqFQKBQKhUKhUCgU6wFN+xfgXPYPplUUSwAAAABJRU5ErkJggg=='
p48
sS'andr'
p49
S'data:image/png;base64,iVBORw0KGgoAAAANSUhEUgAAAEgAAABECAMAAAAV8YMOAAAABGdBTUEAALGPC/xhBQAAAAFzUkdCAK7OHOkAAAMAUExURUxpce1sMO1sMO1sMO1sMO1sMO1sMNlpN+1sMO1sMO1sMO1sMOtsMO1sMO1sMO1sMO1sMO1sMO1sMO1sMO1sMO1sMO1sMO1sMO1sMO1sMO1sMIVcUu1sMO1sMO1sMO1sMO1sMO1sMO1sMO1sMO1sMO1sMO1sMO1sMO1sMO1sMO1sMO1sMO1sMO1sMO1sMO1sMO1sMO1sMO1sMO1sMO1sMO1sMO1sMO1sMO1sMO1sMO1sMO1sMO1sMIVcUo1dT4VcUu1sMO1sMO1sMO1sMO1sMO1sMO1sMO1sMO1sMO1sMO1sMO1sMO1sMIVcUrRjQoVcUoVcUu1sMO1sMO1sMO1sMO1sMO1sMO1sMO1sMO1sMO1sMO1sMO1sMO1sMO1sMO1sMIVcUs5nOuVrMsNlPoVcUu1sMNtpNuRqM4VcUoVcUu1sMIVcUoVcUoVcUu1sMO1sMO1sMO1sMO1sMO1sMO1sMO1sMO1sMO1sMO1sMO1sMO1sMIVcUoVcUoVcUoVcUtxqNYVcUuprMYVcUpBeToVcUt9qNIVcUoVcUu1sMI9eTt5qNedrMtFoOe1sMO1sMIVcUu1sMO1sMIVcUu1sMO1sMO1sMO1sMO1sMIVcUoVcUutsMdRoOIVcUoVcUoVcUkFTZ+1sMOtsMYVcUtVoN4VcUs9nOeZrMttpNudrMsRmPYVcUoVcUtdoN+1sMO1sMO1sMIVcUoVcUuNrM+ZrMoVcUoVcUttpNuBqNIVcUoVcUs9nOuVrM4VcUoVcUuNqM+1sMM9oOuNqM+BqNNlpNoVcUu1sMIdcUZlfTOFqNMlmPNNoOOhrMplfTORrM+1sMOlrMYVcUoVcUoVcUt1pNeZrMoVcUudrMudrMoVcUu1sMIRcUu5sMOxsMPBsL4tdUIhcUYxdUINcUulrMcJlPsVmPbVjQstnO+ZrMshmPKFgSdFoOJdfTN5qNZtfS5BeTrNjQ9dpN4ZcUuNqM85nOr9lP5NeTYldUdxpNbdkQbxkQJlfS51gStppNqdhR7BjRIpdUCkfwcEAAADYdFJOUwAX9BkBA/4C/QQTugX2DvO/CCAbod/n/PuWDfoQrdHJ+R4J6nwLglIlVWnT7Z0xbEArDIbxPWI6WxLk98z9CvRG3KjvJ7AhWF8zckzZEQUGQjmTwDaMb3UUo7jiQsROzSUdzQ6VRW+27s+8FhPld4h/Zplc1sHGQ5Dgeuiyr5p/wfemDqOsN4WfAYbdLYp2bntEn88oxy1ILVL9OGUZkQG1+7w01B/OYOQXgcpCjhZxIB2i1P59Z6EviyLa49nKsxjAjXdUqm32kRIz7Z+8pPJfMl2CMu1sKHKrLZIAAAcoSURBVFjDnZUHVBNJGMcnkGQTUzG0UJOAEDD0A6SoRKQInFRpUhTbWU5UVOy9YC/BLiqWZ8fr1evn9f6e7+0koQmCvfdydzObgEA2mPC9l83uzM5vv+/7f98MAHQWHgtnVwJAVEe6oKf88tniYNAX41+AEHr2B+EejgEMAIJkECa49AmUjUBOuUwfCDlZdtwA9DRQbpxzC86dXmFrIYjpL0Jr3RXe6KqKZJajP7GQmkkMmqNC37ggtJBkF6Fxguq6IrQITge+AsjJw8P5uR4ciM2rGj/5poTQrhYmn53ZEQCQJ1fNEtpJ2cgxfp0YxqIJZvghZ2iwOVFIkEIB9KDTgEgRQCfPQIqyOStJSPBRJJ4QlgpBqtgXeznaiGF7FgFmqgO+LWeaggZ8hWcKkUrCYRwoSBiBB1NVUC0HRCgB7Da/QVGcvLLzEgGQaKgHfzqpsvCULIgJRjjiuzQ/ArlhDx2UVNbycP5jNLP8c6hEM6pKNXOnhDHocqR0t0HvHhoAlGrq246DWADEiSgQ4Y/84RQnS/idATAY+W4seq3cUs9mq6UKwPWOMZD8kDSeXjjGymgIRaPklpdiP6UbuoZupYKD6hwAfBwRyFaMCirIzvgSt39l8jnvmYkW8LgTeM7G1CuDXADL2xnapHANc3W+BbNxvtg8c/UtlNi+aqi6sHisynQCP+x0gOwsBTUeFTEnxlgF8ZF0FFbmvCmlsbyCzcFGIfgV0Tg4XLuEtxNuYexpXKEMdpiHkg40Yb5hliOauzWEEoPph0jsTeg+fwcU+VLuzHA0QmReo3m7mHSgUZ0fghx1eQiOiPBDyxyQS5kqOGwALvgCgzuq7LMRkcpQ+gRVqGAXU3tjSVjnbCB7ARPMdFYVocdqHhv7EhsW7kZ0bBNMFr9nv5dskkrt3d2z1QLKq9hBKLmhBWh/Y4AwyiE5D40LeMmUVnZ1gakRuT5hYfNm+SSbqkcoFP2UcT5iLJhIispvZxq0KSGqbOKQpgVsyI5NRm3PSiyZkTAwWsQ2uu88zEyUICpYilLPFqOdIEUGpVz/cgVg5cmgYBYKOCo1YLYMdrNiN7MFyQqUopzFjgCSUjhQwkKlOMERirYOANxdPFRGorS5hQX2yP7gFWs0hXG9btu75rBhcSJYwBaV4N1QDGMWoLwGejiW2vsXKV24BGVcBYOheE2byANkzr4gMBriUqqQcaS4AuoqA4VMy9o2VJLjl5TkFynhuyyYJwd27nCuG+DbQ3eDNnby8IqUlDz/kpB+vVEUkd4JapUAmSrNfpAct+lMjlcOUCSIcWERif7u8+NlHA7H2carOKzIXJK524Z5dREjZgeupeEOTrmAKcEdmOg90LmrWipeEq3w+T5GDFsQrdFEY3XmRQF+AawyVG/IDlTX8aM1nprRIiPQJovmgKsLMMzaTJkeXC2RVG/z8XRiRwAQWeBn6IhAsXiU74jhclt5dWZElWE7llWYHiJSJ+pcmOLbGTkjqLDrucXM7/J5lnIGdTrNMN1H4qnNyqfbuaDoRWpmZoKIo8k0GQ/CrZOWxKVZMi4dXYacJEy21Di/4aZfCk6TqdxzegxuXP/dsXHHJ723DxxZ/eW3X1tUiKzAim09JTj2jX5v2aTlUP/+0jKo0388DvTNRq7Xd5TMJXxZ/tG6voE++7z7dgHLxvaJc3BibQ9Q7cQ+gcaWwZ5WdqwvGVpaawLau5SwHrTvBDS1DRut5oxbracB6X8aaSWHmLgc0tmvZ6wEHdlAy9HBST9bxTk5CS8ysfYb+tqJB62q6b26S3fu9eTUX7neqt/wi+Wcdcf/hPonTbf13YJCv2sNTQ/aV6+0GHTmBNS1NTS/vNRFrnZMvfSy+dHNH3+wtOU2lsH6F8+02tudrkDd/ectevzXoG3Wns+wjHPsdwjvPCfJR22Yob/RjkmXmxuuYJeuakmSPD3GEs60355eefKQJLU372FQ661/UYT621rt9Rs6qGshsS2usYAz3vVuI4m+29iCOLoXD5tvvUA3T9EISn79tf8waPCSaRZwqG8aHdJf1pL/3dch4dFI0xVY39ZIzbp+OsRCDtnYinP8+CHy5EF9PQaS2ltPWq4ap4d+2CupZkUHR3sV51j3AN9eb2m73UQNIsnIDtLaN81zxiwa3PHe3Vac6fabeKGWvNu5/pW5jp9qjrN7Wedb2qY7ONWtjaR5G7zCjHYrF5NdQNfqdbo717Vkb6Ql9HnKuNj1ravXHrc965WD8rSHFrRnaLe3HjU0voZDkkvS6UBrFpLW2iLa2Iasshp0iv5QGXPYSs4yc837zoGLVmBcF+02W5HpGassTdTgyVt6bdz0NWsnu76W8sH5xfvffe1GUvP9gcm9hfjW0RX7P0m37HScmrFl++S3h5pW4PnT27dk1KRbc7KlT13z19pVy75YaOhj1/NHD28/9c/f08xB/gecA64BbKF37wAAAABJRU5ErkJggg=='
p50
sb.