ccopy_reg
_reconstructor
p0
(cemoji
Emoji
p1
c__builtin__
object
p2
Ntp3
Rp4
(dp5
S'emojipedia_url'
p6
Vhttp://emojipedia.org/japanese-castle/
p7
sS'index'
p8
V426
p9
sS'code'
p10
VU+1F3EF
p11
sS'apple'
p12
S'data:image/png;base64,iVBORw0KGgoAAAANSUhEUgAAAEAAAABACAMAAACdt4HsAAAC7lBMVEUAAAAAAAAAAAAAAAAAAAAAAAAAAAAAAAAAAAAAAAAAAAAAAAAAAAAAAAAAAAAAAAAAAAAAAAAAAAAaGxgMCwuowsfZ9Pjg+/+vxcljb3Hr6+zw8PDv7/Dy8vLs7O22y9DT09LNzc13d3jm5ub08/Pb9fjs//8BGQEUMxEtaipSnl624c/S7OswdzgAKACKiYkAXQIFdhAFbxBysoMDZA1CcjwwVS9yb2KAgnN8fW6EhXYHjBYEaw7Y7PUHgBQGexMqgzUCXgwCWAwASQcAOQJ6enoGhhUBUgdVgWaeyrIKoxsMrxwAMwIJmxkAQAMIlBcwMSrl4drp6eju7u4uSC707Oefp5zt5tzQysLfzbvQvqzl2svTxrfDr6C6qZmgjYC2opLMs6exmo6/s67f1NGXg3qqlYuId3FwZVw4LydAQizc/P82OCXc///V+P/A+f/6+vqg1ee47f626Piw2+i87/+PqKwzNCJercqAgn6VlZNs0/VgYWHP7fOfv8f39/eI4f6Z5v5aX1BBQzTZ+f9gX1U5OyzO8fk9Pynj/v+t9P/8/PxHU1FWZGFHRTe73uer5fhfwOCx4u+O3ffm//9zhYVMS0iXvMZwsMZvdnK38//+/v+Oopqltream5ab6P9vb2tmZl4lJSONz+cgIg5MTUBoyef+/f2s6/6craja3Nn29vbd+Pu0yseuq6fD4Oepv7/09PVwfHev7P/D7Pip6/7O/P8mIBwXFhRqkZIzlLU4Ojlqa2f5+fk9psbP9f+XyM53yudBOTNw1/d22vcaGge79/8BAQB8kZCNucZtmp+C2vfH5+0qLB7K5OiEtcZ/4P5ixudQp8ae4fh9s8bHx8cWfJ3L8/////9CoME7psaN5P+R4/7Fwb133f57n58aHA5+jYJVW1LT9v9cWlgREADB8f8znsE2osY5pcYgIhfq6uqj6f+8vLq1tbKV5v6z7f+L4v4+psZ73/6n6v5lyOef5/6E4f7IycfG8v/BHTpoAAAAE3RSTlMABAsUHB9AVV0mZm8reIOgrjlMJBRqZQAABzJJREFUeF7Mk0ODKwkQgHeSmcyO/mgjtG0bY9u2bc+zrTVuW9Xp5AXzLjntd0pV9fd1X/LT/4EKDreyqgwquZwKJsCp4lX/XAbVvCoOE+Dy7sqEx2UCldWNZVJdyQRqassN1NZkAnUw3Cy8e498YHmIrDxc+W0FwYE9vP+Aj71buAGpLhOob4DAgjJ0nuHPHD3fya7OWULKBZAa6tlAb2/vg5BGo9nMsXUf388aTegBSPmBi57Np8DvyBnydxFnDHjG5zZ7LooD61s5zWj8FXhUACyMRmMutbVeGjg0suJj4BuLqbXVlP2Newxh6bAkoFyPPEYYy2T6K8Nn98GB+zM7mADsIJF1ZX7A4/EoOyMotjIa8Acw7XbPd3XNu93T0zDhFq+t2Il0KkHKDyQ7LxkVvem+vr7Jycn0zpp3u6tr27u2k4axD4BQJnPZmSwNoIvqL0hasLPm+wg+FD761nYEaWaNHfyeooBQKEyKgvBWlMVhiUAgkD7zPn+zzfLmufeZFJaSsBgjUAmKkiDlB65EQXDFYpnsbXhiTx6LK44LUMRj8r2J8FuZTCyGSlB0VRQ4FUnEMrCBGfns3GxHx+vrf3Jcv+7ogKV8Bu8yiEhEp8UBqQTtf4HbmcTi3Ozc0l0eS7BYTMzc4h0jEmlBYHl5eV86xcjIKn2U2lhUoaiOx9UYUC1upI7o1VU8Y2RKug9SSQBl5BXNl/uYgHZ3V8sEfHI+/QpvmPhBAE9oAzqd3qsVehoNbQTRZmj0CLVevU4Hh2yiKGAwGBIQYHU+n2xujmlVLWqV2W+x+M0qdYtKG2tuJvn8bGMqkACpIBCYyup8K91ka29fsnXb7Ta12ma3d9uW2tttTbSVn03cF3CADr7VaiVJs5OgKMrf9vWTx/Ppa5sfBsJptpJwzCQc9wXAZnRXtJ8gLJSlZeCOZaAFRoLoj7pIKGCiKDA4OKgPOEAnaVd0aDjldBIE1T3y5AvLk5FuiiCcztTwUNRFk9BwBPQgFQRGHbTLRZ6MvXhJKexOwE4pcrAbBfXyxdgJ6XLRjtGCwPj4uH5UN9Y0YbYojkGgfgT8QRQW80TTmG5U/1/n5ROTRhbH8d2u3dWstdsCQhlYB6Hgv4IzziLuUBBB2FVABEdEpVjRWjc99ErTLodGs0TDiZA02RjxYqIG6wkT9eKFS4cbyVyabIwnjHPucd97UIHpppvwObxheN/v5/SblzxQqhN8OLw4EYnz+WPRVznO58Wik4vDD0KB5LA9JX0jeyC6lsvlmEIOUCh/rqAsv2NguRY9kL2RptoPJUJBoV2aSKU6NnEwuNgRB4gruAqKOFyPMLDgmx2pVELaXvgvgTRx8H5TBVI7aVjoFKs5hFrcCR/pHbCoNt8fJKRCgUajkRQeQoHs5BNIHZ/Awnb+syC/DR8nx0gg02qRAJQEgoRWq/1bVxWcVgWnVUFXd0+vNvGwXqBUKiWFg1Rvb98jPQ6jl7Bg2DniEEc7Bvi4hFpc30+QA9qDggSUbgQYhkn62nso4hfji0GTyTQ09CvABFfEkAmtQ2Br8IWxmzYPaAsyUKoTPB7ot3T/kUyCiQWD/Bdaq9z8CxLJbtra+1gokPU96mJzuRz7z/+AQl3Dw0aBoKNv2GYbsTt0rzsrjNbRWeG1zmEfsZFOwiUQ/PZ7Dz02Pu5073FfZc/tHB8fH/PQlEDgJekJz5iHcMM5iKGTmH+n5BDKdzw6oWNg+eQmPGNjHg9trhUoFAqbFQg8E6QeCsQ+dCLDOZichHOATmafGAr0pAcwQZtBqVZAOekJABRUJ9GPx5LJGO6vTiIUTECcVK0gEAhQFiAAXiQowmna5TNr66zPx66vZfhdOENFJDCjoIUCpVqBzeqkadpJ6a/3A4GX6mI2drHOsm+3eX77LcuuX8SyRfXLQODoWk+hoNVWKwCf/AhhcTqdFtcUdqbZ382ypZIvPcr7OYCfH037SiU2u8FozrApFwoSI6BUK3ARVovFQjimOQ0TDOKZGL93xt1wtsfHMjNMENNw0w4CBK2kSyggCavV2m9kGP9kKDSDo97G1T7H7V9tIMnMbHBuzs8wxn4QJL4Q2M0kQZDe6eBcMBSam59BHVwMBuKVGK8IJmfng3PMtBcmzXahgCJJ0mVk5sOzs7Oh8EfUUeUNHGfIq5DgYzgUfgL2GKMLRCmhwEuZzZRjK/gksvB0YWEx+qUgG3m6CDbDS1sOmPUKBTaKsk8tRRcjkcjys+UsFwdgKnU8rlZh8DeXXV58FgFEl6bsFGWrE4Dj2u0acelj0ZXngJWVtVdKPwST+/1yDP1Ubj0fRJvL0ZgehN2gVCvQud26kuHyfDWZPj9fzWXwogD8NLeKNs8vDSWYFggaoiJo+bFRQeXKc7v5qkGab1fujW13f2qAu22Ve+N3rc132hrgTnNrWXCr6d79Hxrg/r2mW5XLd1NLawO0NMHL979so//r9eQE/wAAAABJRU5ErkJggg=='
p13
sS'twit'
p14
S'data:image/png;base64,iVBORw0KGgoAAAANSUhEUgAAAEgAAABICAMAAABiM0N1AAAAUVBMVEUAAADZnoJmdX/ZnoJmdX9mdX9mdX/ZnoLZnoJmdX/ZnoLZnoJmdX9mdX9mdX9mdX9mdX/ZnoJmdX/ZnoLZnoJtbnFmdX+psLRzgYrR09SZqrWP36nvAAAAFHRSTlMAn8/vIHCPEDBgUIBAEO+fML9Q3+UX54MAAAErSURBVHja7dRdj4IwEIVhQVE+1Ip0B/D//9ANXnjsTmvTnhgulvdSkyfMtLAL9XhEflV9HfK2JiSBNuiVCUGGdSCxDiTCYaabAy3/bdD3oHFMhs7ybH5vnESmhULy7PwBqgCBWQIFqIrfxD+MouL3sgQExqUAlanfjmmE6BTZtWI8DxfbdhVgFBXbtvEyQcpEdq0YTcW2rZnPVIA5lJJYefA596skd71r5yhZHemxMB47FsYjx9LjoTkpfOQ2aD3okv6uXXzOLeddu2mnkawa/XHMzFDr0YvS62EW1QhZg/WQGeI6uldyg9aCfjL6V1BnM+tc57TPhfYnBypsdsW7U1uieod6BurhtJaqfUEDBw04erJOHT13BQpLV+DoyWocPVePoydrcfRcwy+nXyZEkwH2/QAAAABJRU5ErkJggg=='
p15
sS'gmail'
p16
S'data:image/png;base64,R0lGODlhDwAPALMPABZkwyZQpwgManFuam1rlwSR+6ShkQkykg6t/xodHzHQ/y6k6VOqzkU+g/9iAAAAACH5BAEAAA8ALAAAAAAPAA8AAARi8EnpZp1YssJBzghSiN+0cGhRHkcQtM0hlA9BCHapiF2qSjsOApAA8DgSQQtwSDQSAcDrgCEMnI3ngIBRKAKJgWF8DSB3Q8CCwV4AjBzW4U2vTwWCrH6fxT8EBmIDgoIGMxEAOw=='
p17
sS'related_to'
p18
(lp19
V\U0001f3f0 European Castle
p20
aV\U0001f1ef\U0001f1f5 Japan Flag
p21
asS'name'
p22
Vjapanese castle
p23
sS'known_as'
p24
(lp25
V\U0001f3ef Fortress Emoji
p26
asS'default'
p27
Vemoji
p28
sS'bw'
p29
S'data:image/png;base64,iVBORw0KGgoAAAANSUhEUgAAAJAAAACQCAYAAADnRuK4AAANRklEQVR42u2dL9QMXxjH3yAIgiAIgiAIgiAIgiAIgiAIgiAIgiAIzhEEQRAEQRAEQRAEQRAEQRAEQRAEQRAEQdjf+ez5ffc8+7wzO/tnZvfe3e9zzj3vu7M7s7NzP/Pc59+9szeyWFaQPV8CiwGyGCCLAbIYIIvFAFkMkMUAWQyQxWKALAbIYoAsBshiMUAWA2QxQBYDZLEYoBly6dKl0bt370bXr1/3xTBAi8m/f/9Ge3t7o5MnT46OHz/uC2KA5pcPHz6Mfvz4MQaIdujQofH29+/f++IYoG7Nc/DgwdGrV68mANHevHkzOnbsmC+QAeqWs2fPjk6fPj0F0JkzZ8Y2kcUAdcqjR4+m4FF78uSJL44Bms8GagLo27dvvjgGqFv+/PkzgYbhjL+HDx8e20cWAzTfRfkfoI8fP47/2pU3QHPL27dvJwBduHBh8v/nz599cQzQbPn9+/foxIkTY2DwxHiN+y5P7O/fv75IBqhZfv36NYYEWIgFffnyZbz906dP49fSSNhIFgM0JXhY0jw0AokyqJHnz59P3kMzEam2GKCxkDAlXSFAbt++Pd6OBgKq79+/j19fuXJl8hm8MjSTZccBevz48RQ8Fy9eHLvrP3/+nNg+586dG9s+aCMNccqRvX792gDt4o8GkqtXr04FCgUKTfEfNbSPjOxTp05NvXf//v2djhHtHEC46TnXxWuMaLQMWoi4z/nz5yeNIevWrVtjULB/eD/uzz67GqneGYCwZdAkBw4cmOp8wECzCB5qgIApCjGgI0eOjIvLNMRFm4jGce/evbtzXtpe7VDQabPiM3T406dPp2wdRZdV44P2QAth98hoziKIAAfgkJcvX05spXhctnfFmwB3G2CrGqCHDx9O4jPq1CgkRqPhGz0tOg/wAJA4D5qnaxjCMwMQhjSg1JB2+fLlfd/B0Pf169d9x0B76ZxevHhhgDYpDDnqMDSBXGs6leEmD1dHjx4dF4fR8cR2pD1u3LgxtzYAAAxu2U7SYmgdjp+HtZs3b07gBmi0mN7new3QBoVhJQ9NQJG30QCKjiTuI08KrbNsqSraQ8Y02gbthe2UbSMa0GS40GLbYHhXb0S3FYBlW4fOwnVHKzBk4X6vaoOwP8Ohjsn/QIo2ApBZ59VlJxmgNQoaoK2juPO7OrPvxvfFoSq3a9eu2QsrSbBLZnVYSQ2NuE2u/tbEgQgQZqO5tMb5bVsObasCidzduOXYPDTsDEWKtY3GZ9get5EXY1vcPzaM8LyPjp/3UaQ7buMcSJE4kFiw4H3hnsdAozywKCrPiEInsy3uHwWjO++j4+d9ZJNF4Rzw+gxQyT8mdWZpAGGnGaBCBfe5dIDyNgNUkBDnqQGgbaurrgYgck85Sx5FEwJLB6gtWavjkWoxQD0LSUwVu+MtNQkpij4BAkj+Zzu5s6EBwpPDzcdOqklLVQHQgwcPOuepq8KQBCUdSlOag+SnttH4jDpeTa49oYCcS+O1cllxHx0/ficNbyt/VgnYe/fuTZ03cJICid+non4D1JM0pSroEGpqACdXGJbeSOZy3px/U7kJMBugHiWv1zN0qoGOZQjD5tIyd+tMlWhOmgHqUZru1L4bhvoskR0zZKst0VoNQEobDNWwcZqqGqPEWapDtVlemgFaQTA2c/1xXw2jd97FExjShhrOalwFrapAYpxiHCsNqT3G3aZKMHo+8zQ0W5PbTGCSY1Iq0hT1XvR71Kga4HybboYaF/KsCiC0UC4NHWodZ5W9UjA/hDTNLXMkegMxoaEAUm3RUItLZYBqXUa4OoCo5ovqvw0gtNUqU46jW7/Kuc4DEB5mrVJlMlXzwdoA0pQdGjbHokL8J9Y3L5NaYOEF9mWFDwzvWQDVlv+qHiA6WO50BIiOzrEaPKZFp8/gDa0yTGIk50J+0h5NAGFr1bw4Q7XlHESLY+fGGZ807nx1Em76vIXsSprqGItOw+E89L2kWKLLz5wxnYc+05b9N0ALyDLBM1xpkpwAhAEavTOAoSM5ruyleWIsDCUynu/cuTPeptmv82gyNInydpwD50h8KZ8bGgqA+H9R7aPp1AYoDDt0MgnERS8mWgiI4mwM5skzxJFs5ZjklaQFciY8CnaKhkU6V1FpOlvZebbPgkhZfsAAXhKmNPaJNg/fwzkvOjdeK4jwG0sZ9jYOUJxZyqwFEqddRitQoCFyRBho6Pg4vZj8FikIQUCH5uOjeWKKIhu18RwBIS+awHfKbuJ9NEQcCinXAKi8OBU3DlB3JU8B59mzZ1MQlrIww8YBapo1yt3JXUyncPGBhaGK4SEHEtVYxIALzd+4XU/fiQsbYJvQAXweGyTC06al4kIOWiORYTJ2rDQPXmKeo4Y2RDPmldEiTHwHv5PfjHbl92OHNeXf+A0GKMRblm1cSOBAq0gLAApagW0yhNEicSnfOJTEY7UNDewb4WXf2LF8D0OVlnrhe2SvSPtpgSpWwFfR2SplJwZoNNqn1hdpgILGQAuo4i+7zHHleToXEHg/F6HRyV0JVTRZ1iyAgFYBCp0Dn4mxnxha4Bw4X4a4Vebsl5J43ThADCF9T0mmY7hD1eLx0RTYRVEDAGJMJaC96GC1WOYBfPF4QEN6JUbHeT9+f9NyM6s0jgewBuh/ocZ56DqbWeWl2bPKK45hlMehDe0yVGnJPDdHU2R75wOJhP7bIMKeiKumLttyApNtuVwjek+xYRhHwbaJw6aGsz7Os80+wgYrbXGGoiLRedX4Pp8WqEUyo2sd3Xm8p5zCyI04TxzO2J8S1GjY9lFRiNfZ5KWVuKJZcamMHLnVYt6rCPaN4GEIyGkJJT7nNdyb4kSyi1ZZNq/J6FZ8rKmwzQDNSG3EPNSyAOHex2Em2zt0ipa9kxuvux+I0S7SiBjK8ZzywpzZLsJuWvYZYxEg4Omq1TZALbku2QKLAoSdwHCUvaU4NZpAYtR0gBOBUC4t7sP7SlfIo4vapskuAsJFc1cCCGO+9FmqRWfjNd14XoAAp2kSYtQW/I13eNOQE1c7QwPlOfm8Hw3yuNg5f3O0OS7AuQhANZR5bAVA5KaaHmOAvRLLJbB11PF8tm21+Fy832QYA0M0oBn+4pCF4Z/tKl7nuNIsgGqQqgFSwC93FODEjlKOLNY5Yx+1CUMOoQM+1zWMAJu+n+MTGZfm4Pu1aEIT2G3HNUADA8SFx/PJ4EirxDscUHINdd9GKRoqPqAX+KKxjoZsSqJig+ER5qHKAA0IEMNQUxQYozmWRWStwz5Dz3xg2JLXxt8cv2qz0fC04vBngAYACK3RdvFzXog7PiZLh9A6s4a/WPqBZso2VNtNIGPfAPUMEODkC476xxWP6p+hDXdcWgdbY1Nr7WDjRG2kp/vEcyW21PQYKsG/0wAt23HcrdgFGKNNGocLjv2TvSeGh6h1sDk2Hb3FDoraiGE2nxOvNUEgN34DkHEtl62DHvqZHHtDXTgMXOpeuuaKs2QdF1CPluxKJeRkIncysOVEbCmiZfCkFfmN3ADZcMZemicTr4W1+HzXtSUBzHUZ8tEKe0Npn6HKGfRwXATDMxakcbczVJQIEKmOqFGx3eSpoYXaSnX7aEPWDg1ypYdeiAnvCsM6Rou5I7mrZTet6xy7su8CSJ9D+2TbKD8luu+WJzUWD9AqZarLlHZG+6B0gOSpzXpEVd8NT7AqgNb1fC7yS22eW8kArUtTx3xfVQAR0FtHyScGYq7NqQUg7MR1lPE2lexW4cajprvGdgzHpkcrdTWgUVKUTogrcNQAEOcreAg9YGAvcx26zg2nYuiH2w3urmgB777nNhFtVoEXxqiSo6UDFKdQ5xqlhTuvY3hfRy3RWvxdPI0mdb3q5LhYdMbxcVdLBihqHrTDqh3cNqyvc9rz2gIm+Znpfc2uREWrGF5PYy4RIIKqgoc6oj60Q1O99rrni6014paTnH1Nz6Uz8lyu0gBSzIoYVl+VhtlVX2U4rAIghIunzut7fnesVy4NIC3c0GeZagysbqr8dWMxfxKFQywQoNU5SgNoiGjwPI9n2FqAsFWGAKimQGIfAG16eWADZIAMkAEyQL0DFJ9n0VTOOiRAeEN8L/EYPE8DVCFAcSUy5ozlYqs8g3SVUol87BhSUNjCAFUC0NDPFVu2zZqHZoAKAigHFEtphC0MUOEAUbbQ93J5fS5L1/fUIgPUM0CzMv8ltLzKWR8AbXq5u40AhJ1C1aIWG+irrasScpWlefv8vUqgbhKitQKECm9baNtt9YkGm1iIam0AMVbHFb7chtFwW1fOQZY4Tjd2G74t8+CaIgGi2CuvCO+2vulO64BoUIDa5ny71en1rRUgIq8etjbbKKHNj6aqAiC8gU09CsBt/7yw6hZXiA98c9t8a5rBWzRA+ZkUbpttVB5UBVCJwxfrEHWtp9NHa3rORQnxoaoAKs141hOY1yWlDeHVAWTZHTFAFgNkMUAWA2QxQBaLAbIYIIsBshggi8UAWQyQxQBZDJDFYoAsBshigCwGyGIxQBYDZDFAFgNkMUAWiwGyGCBLXfIfOnhePhwO6TYAAAAASUVORK5CYII='
p30
sS'version'
p31
VV6.0\u02b2
p32
sS'uni'
p33
V\U0001f3ef
p34
sS'desc'
p35
V\U0001f3ef A traditional Japanese Castle, usually made from stone and wood. 
p36
sS'browser'
p37
V\U0001f3ef
p38
sS'annotations'
p39
(lp40
Vbuilding
p41
aVcastle
p42
aVjapanese
p43
aVplace
p44
asS'wind'
p45
S'data:image/png;base64,iVBORw0KGgoAAAANSUhEUgAAAEgAAABICAYAAABV7bNHAAAAAXNSR0IArs4c6QAAAARnQU1BAACxjwv8YQUAAAR6SURBVHhe7Zo9aBRBFMdz14rETiQ2foNIqtgEwUKIAUsxWhlIGsGYRlEhd1jkAka0iQZsEohYJIEUFoIGBAWxMUWwEGNIGYJlENvE/3/37WVzXzO7t7O3p+8Hw8zs7u3O/Pe9Nx97HYqiKIqiKIqiKMr/zfj4+AzSY6lmgrzkmSCXyw0hu+TXskGmBMoiKpCBnOQtBXGnnxlcrIf13d3dt/l8/v7Y2Nh31ltJywViYJbYsw+ItI3sabFYLPlHWkPLBIIwdyDMbRTPsB5YDfIeJJ4LrGkFGXQqvmM9bVIXaGJi4uzOzs4jCDAgh9YgwjQEeC51Dxnub+G6TpynNS3hmmHvZIqkKhA6XUB2L9Tpl+j0Q+9kDWzFdEniAkGEBWTH/doe6ORBZJ47CezsbymbOILfd0k5cLtavIF4icasxAWSt/4EHboih5wDwTaRvW5kjXFx5mIi1E0Uz0Gsk8jD1tMU4p7rSN9w70+FQuGVd8IBqcagUqm0K0V2claKNhwOLJLuBUs57x1NgZYJhLdu/WyZEkyxnLZAutQwoAIZcOJicAmura75tT3gJuUlRRMxiCPWe5bDwO2cTCJdCVSOGWkRJaZFQV3MQCTVZW5js+N3GhY0IuVUgOuNSrEhcMVIy5TIZgn3mUF2FQJ0+kfaA4ldXPtFWorE9lsIxYXnMaRuiOVtTTSLBO5yQG4G3Iuz7VWkDdwv9mw7kcBWMUMuIqNw5ATSARbQyMrFahUMtDYBHs8IL1Z/SSKrwW95TRITysQFsh1NKASyB+hQeZVeSyARA3212zAL2pKUQKmPYgz0EOEjRQiLUw9cQ/edx28Y+1InVYHQyQJGwS/o9EU5ZAWu70QagnX8QOIOQWqkIhCE6Uf6ik7yy0XV6Ad32ESaZDmfz39AeRaJQbYSxrA5WhMt0T/kFucCoTOcd8xDmKqRLhAGseIokrfZxU89KA9DqN56QtGaYInLuDfjmFOcCURXEKsZqbQadpqdhwh9gTCVmITCPbuQpvCMBZfW5EQgugCyOXRgn9WEhOll520+DFoINcC4hmdyXpY4kYZ5WWrMSbVMWAh0YJNvV6oe0qkldPJZs19LpQ13Uaw1m19DCr6z8Znclt0H2jAYpQ2R50E0ab41qTYkSWEqMQhVE7RnEdZ4XapWxJooijnzo55xHpMFaNXIIq/DiFEgiMHNr1N+rYrLSBds32DaiAV/RqraYBPWIVrDGbqtQBymMylCXES8G00LRMTfl9vFpUzQ5RAX+2ziotUwLzfa8mse/GzMN9AWSFs5wgVs2Q4aseZBeCD/QHAIxUGUJ5EWkVaQGAxbDV8e28I5E5cvg2wrytP+6WhYj2KIRZwVe/MdPGwUD627dRkK7Ixbwd4Q6Za8DO5Zd5+IHZVimD9IG37Rg5tipGHARZtifXx0IlAWiSuQ88Vqu6MCGVCBDKhABlQgAyqQARXIQNx50AtkP1luI8r/F3A+UWx3dKKYICqQAWsX42ccmOY/sWmGULEd998eiqIoiqIo/wcdHX8BDkNgNOZvsNsAAAAASUVORK5CYII='
p46
sS'andr'
p47
S'data:image/png;base64,iVBORw0KGgoAAAANSUhEUgAAAEgAAABECAMAAAAV8YMOAAAABGdBTUEAALGPC/xhBQAAAAFzUkdCAK7OHOkAAAMAUExURUxpcajEyYSrtHijrXijrQBso3ijrQBsogBsogBsogBsogBsowBsogBsogBsogBsogBsogBsogBsogBsogBsonijrXijrQBsogBsopi5wYSstABsogBsonijrXijrXijrXijrXijrXijrQBsogBsogBsogBsogBsogBsovzCG/3CG+++IgBsogBsovzCGwBsoi+DqABsogBsonijrXijrXijrXijrXijrXijrXijrXijrXijrXijrXijrXijrXijrf//AABsovzCGwBsogBsolCHd/zCGwBsogBsogBsokmFewBsovzCGwBsovzCG/zCG/rBHFKIdnijrfzCGwBsovXAH56iTfzCG/zCG/zCG/zCG/zCG/zCG/zCGxJ1pvzCG/zCG/rBHAZvo3ijrQNtowBqoQBsohp4pmaftj6MsGCarw5zo3mms3GgrCN8pXqkrWabqwlxpABsogBsonijrf///wBqoX6nsUuXvQBrogBrodTj5vL3+i0sLMDa6P3CGoettgBpoPT5+/7+/nairAhwpGKkxnahrOjw8XiirNfl6A90pwpxpC8vL/b29hN3qefm5t3d3VGbv5y7w2SmxxB1qP7//9bk5/L4+vP4+wFroABrpOrx8szi7b6+vvz8/ESTuzY2Nry8vHh4eMXFxerq6eHh4RxGWzOKtRx8rABso/7DGra1tfb6/FScwZ2cnJy8w4y91QZvpCaCsC6BpjSFqlZWVlqgwv///vD2+bOzs9bW1vf39ziMtkhISK+vrycnJ1BQUEpKSrm5uRd5q1eewVGbwEeVvNjo8UmCnx1HXNPh5Hqkrhl1lBx2k7aqQEeEfKfM35C0vEF4k+ny96DI3YW50yOAr3ixzS6DqyN8pW+eq5O3waGhoWenx9fo8K7O3VmVqWScsH610GSaqwJtok6Zv3Kuy0+Srcbe6t3p7YmutkSSuNra2uLi4tPS0juOt+/u7nFxcYeHh2ZmZn9/f4+Pj3BwcPDv705OTvj390RERGFhYUJCQtzr8ujx9B8ilOwAAABzdFJOUwAy6f5TFfYBCg0DxPuarrnpIV4RtO8BQeQZ3djdggc/EcJu1Et9R3KdBxf+aSSR9fWrYejJBDjgMBj1pJmOKs4BVj1kKVxpiRrA99cc/YHr0dJYsM79K2JdA0v7+FOxyaW3tvnwK831JGbvzN73/VJcpcgvCWlgAAAFS0lEQVRYw7WWB1QTWRSG1dCSTQwJRUBsIE2aYO+9995773omkzVh2QEhUTRAsi5qqEsoAkq1AoKCArr23rvYe6979r2XSTYLAWaG3f+cnNx7mfdl7rv33UeDBv+zhk+aOqV6dMrUScPpcdqMI2Z7VA97zCbGtaEFmjyN8NE7HI7e9CGmTaYF8iGIWTPI32YPGsQm33PGLMLgB6hoJEEQ0+dMNIXy9/X1R8bEOdNBeCQtUN9RBLFjwpifoCwxzBIZYybsIIhRfWmBPAaO9vQ8fSoDg5JI0FfGqdOenqMHetArW+8BQ8+cxLScI0e0JOzkmaEDetPsI1N+TIz2fTBZbq5Ma2XExFhb0eNwXLgYKWlZfn6WVOdxXTi0QH0sdSvFRX/h+NEisc637EOVYW7K9nbTcySv43CguNcSPcnNm21qTgEk4A8ZNkK3Ku9hnHobkDquPE8XGzFsCF9AATSYr3sZqVQqK6r4A6miSAZc3WvxB1PJTeAy3m6+QqaIigSK2kRK64HwfLvxLgKKJbNasGTp3Xt3fq2mO/fuLl2ywIpG4Ro2CguKxaspNiisUUNa5W/YKDRoA46HqOJVIZBAGhuCQpmBCvcm7n0BQS+AUVgP0M3A8MCdELQTGDfrAcoG6wsgqAAY2cxAaLOzDd8om/ZmN+G5z2y7e0+ZXH5++5/bj8mBjgHjvFxetmd325nuvCYUOc5omEmCgaKjo4ODDQwJGnLOVEhsoSNWp5oK2bWeewu2wL+xL0ZBvn5CAduiphnQmr/QkYtRFNdxIb91DSBXR3LWw3MPRU4BhUI3LLWSkLeBo2tNuXl78Xi8NaBg+34HuiVPg7NaKruUq4BMWZr8FozvA6VbAx708q51n8ztHUAvbsHxLbevpMNRG3UpMzM3Co7a9Cu3YRx0pYO9ed0zEoJi8ZCj93dhUkwivnwxAccTLl4WS4C76/7RENCVAESh/vYOYc+ePnmEMNJNZXHaARK3b5MUoR49efosrA6QuQXU4uUPHj+PlEixSkXkw7MXMtepgdZlXjibdURRiUklkc8fP1i+GD1aQ3ocoV9joLmLFJViWJa89LSKrPLfSJVnrU1LhxeARFypWDQXPuknND4qW5N3kP7iAeUWG0iqvyV1j1gabaQmTTHaalr90HFcGXAAybVKdlZudhgj2bkZ/Fdh1V/I52IMxeUL+5MsC54dYwxC2fEstNvTz5mrO61iGtKdXa5zP3KjzAVe7tbW1stWXru6loauXlu5DCxz9xIYNCaHzWavXnH9Rv4vUGr1NvBRI3sb/IYB7R/U2gBQ/o3rK1aDZdWbcpVZaM5+eK4SUpQR+GflG+R8VaYkgMBXaO9/o/yMR4AAcnJCzVYZ7WwTs/Wb0f2sfP9Fg38sfncAOskl31NTv5ckQ/vAu+KPuObLeyW6xTevNzOpHZRaHHgQTzr0KQI6h8N/qFQ/wg9DO+LToST8YGBxKlVQKQK9JUHfVKpvJOgtApVSBb0sSSzAP4QnIZAmsVSlKk3UIFBS+Ae8ILHkZZ2gHDTEDiRrlHih5hWipsQnR0Qkx6egta80hbhSk4w2D8+pCTR2Xui54wFQGzcGBGzduDVA78APFAqSzvFzofPGGuPYOolEJ36moRMikZOtEVDLViLaatXSCKiFDX2QTQsjmTVj0Qexmtn+J5kZzY1JZsZyY5SZsdy6tBcxUvsuVdu6KzNQ1yrN3bybiKG6Nf8XqGM7pqB2HQ05HXqwmIJYPToYgDp3EjFWp84GO9SdxRzE6v7PLpnYiOohG33hevYS1Uu9epIgJ1b9QCwnAPkb2CNKNafKSIIAAAAASUVORK5CYII='
p48
sb.