ccopy_reg
_reconstructor
p0
(cemoji
Emoji
p1
c__builtin__
object
p2
Ntp3
Rp4
(dp5
S'emojipedia_url'
p6
Vhttp://emojipedia.org/minibus/
p7
sS'index'
p8
V470
p9
sS'code'
p10
VU+1F690
p11
sS'apple'
p12
S'data:image/png;base64,iVBORw0KGgoAAAANSUhEUgAAAEAAAABACAMAAACdt4HsAAAC91BMVEUAAAAAAAAAAAAAAACJiYkAAAAAAAALCwsAAAAODg4AAAAAAAAAAAAAAAAFBw0AAAAAAAAAAAAAAAAAAAAAAAAAAAAAAACWlpdERkdwPT0AAABxcXEAAAAAAAAAAAAAAAAMGFptbW2CgoJzc3NhYWEAAABcXFwhKVNwcHBeXl6Hh4d/f39kVk+ioqKMjIwAAAAAAAAAAAAAAAAAAACfn5+NjY1lZWUAAACSkpI3NzcoKCgwOGIuLi5nZ2dDR0gkLFCXl5d9fX2srKwAAACGhoZubm55eXlubm6kpKRVVVVLUVNTVVdQU1ZKTE5CRUh2dnZ6enqJiYlMTEyenp5cXFxgYGA9HTJiYmIwO2hbVEYeJ1JVVlZ1f615g7B7hbGYnrdzfayNk7BFRUWxsbEmJiYpKSlAQEAWFhYKCgoBAQE6OjogICAYGBgTExMtLS0REREwMDAyMjIiIiLY2eSoqKcFBQU0NDQcHBwODg44ODiepsbc3ueioqJubm43NzcQEBBNW5aHfGzXuBt2dnamq8K5vc/S1eCEjrfh4uqwttCOl7yqsM2QlrJXV1dTU1Nra2udGhp5gJ+0iQBjbqMDFmiqkyT55Djf4elfX19weZxfIylMTHyEYDOhk3yXnLZdAACCFhaSAACMXgCHVADKowpdVza5pS09RkpKVlrAwcFMV1w/SEzHx8dGUVZJVFmvr6/Ozs7ExMRQVlhCTFHe3t64ublKUFJSX2U4QUXQ0NBOVFZRXmO2t7fr6+uGhoZPW2HW1tasrKy6urvg4ODMzMzn5+ezs7M7REjk5ORTYGXU1NTJyclhZGWLjIzb29tQXGFASk4yOj2cnJzq6uq8vL2+vr6+v8BUWl3h4eFET1PY2Ni/v7+1tbXGxsZNWV9VYmh9fn5OU1dWZGrLy8vp6ent7e1RXWPBwcGCgoJMWF7o6OiysrLDw8OzAQCrJSXACwBXZWv09PSkpKSSkpLa2tqsPDyrlZVVYmfKysrz8/OztbZGSEmhoaHuTVARAAAAXHRSTlMACxE0ZhQHAgEDDi03GiAoMSVHSjxDQP7m6PpFq0z2hf3TghEVyCNcdoYzZtXMZnrgaFbt6uFdrcDYePiKKNqymaXSxsi97bT8Hvus3nGtz71dOfj5sffn+rWIXCQIXAIAAAVbSURBVHhetNLHblpBFAZgFpYiP4ETeRVsoYDjrGwrm0RJRGovSz/g3N4bvffeO+49vbdFAKFcLobhgpRv//+ac84Y/pcli2Vu7to4cy8tS2Oji8Zbq3fExhsiyIz3gxVXV+ZH5o1hph6IFlwHcK59AbWOaljxBwouXQoBemPE+88ETR4m1Lp9Lr+85g3t63VqWx/OX7gejJ7qV88Pn8JYCoSmIPgWhxbwgPmSnkKcNmsXsF5ibNNgzu5rFxA/+DiVn8LaYMGVZj2AllXpKlue4FfKpOZvvLYJC0qW7wM5VOAUHg7kNtUBrGyaziIZRx8SQYUK6TmEQvDH6gDhOFrDYrsf+g6z5XQF29qFkskn6gBMkKNkNZDJltIVKvYdSiYf9fPz1qN4suaJbf3Txov1CuWIQTkoYOoPQNuOsydyTNXG/V6OzDjgkMjTXt60QPgAlZEHYED0crW2Bw4Bz3oFL8Q9qdYe6nbGOR5rw1H4zW5+409iGyCezCCqU7DDIxgcBS52C547UYXHTjRIpWmz49QEZKRb8DB1tJ0D5z5ZmOEVgMNFct2CzXwrKe1wWnbJySQl+wTS7+4OzJ+I4IwS9OVOwV06sTcjoldwr0kkZsR+6xQsH/sJDbRI6PX17VWD4VWq2FKxvpTb7c43Wrq8e3+pc4TPRVbVaFaj0Sohsrr0Csz5v+2VyW8aZxiHZ0AmLMHG2Map5eL0UOUSyU5yiJJG6qH/Qpa2wqkNsy7MMGMwxsZ2vWVdnHVfuleKZAkfzCHSBLHYqEJpDxVIlRfJh0ogQS92D0jm0HdGyO6o0FqceshzQHx6398zv/k4kCvtkc8kKhX/xkJpX9z+AwTnKrn831hYXUr98vpVfl+ogg/8ubVG+fobEHx65+UXjfL0q/NI8/17Fxum/9lh5Mj9e/0N4/ryMPL5Dz8+uONqkAEQfPzg4fTUAOC6Nnr1+ujlgf/g8uj1q6PXXNWTIvgeBIODN+bGrowNDQ2NXZod/BdmL115pKwNzd1Qz08+Qj67O333xXp+5fefluLwj5tZTcWj63WI/vlmJbWagbX4UiqvDLbGkaPfffs8sfbbUryczyajyWRuY/H1erom6/HU6uJGLglr2Xw5swaDrXnk6JS/KMcz5dxb1kuSXjGWTpZKxZqU44uln0Vli32bltfKcrEYnkcu/BrxlJbzaYLDcB7HJHLGk87KnhrIywvZGVJS1zgikY5mPZHKPHJ2218s5eSbQXyYGQ4xPozbjqTlSA1yr6LbHOZjQrCIB29GPHLE3/kYObTZWfFvFUicYTjBixMiy1Qq4co/CSf8YYYVCUwQggyDkwUYdG4eQs7cGt+MFYhJkRA4HgcDNlKoTSxWGMFgjPFBkhAniUJhc/zWGQQ5fYpwu0lqgh/x7bhxksBod11ojJiUiJ0Q6ZugSLebOHUaqXKSGsYF0U3wJCPRSF1oiYES7hDHD1MnNZOeACZSQRznghPkifqCE2SIEzCcFUQs0KOZ6J2CT6IoyuvDAt1wNhqNB4wHNBiB7gDmE2ANPp16rbuH9vI4K/EY5dQbABQ1m3U6XZMKfDGbURQ16J2QlVic99LaAkYj2k1THMt6A13HmqzW5ubWFovFpj9YRW+zWFpaW5utx7oCXpblKLobVTpV09DVZDL09tE03fXJccgq0XZHh93e1vY+0NZmt3c42tsP2iwtxz/sgrW+XtRgMJkUx54Aapt1ytOrAjCoCjXe4XC0Kz1aoIW1SWeGPBiUm1Er7CnAoUrAoryDTa9iU94Askq4mt57vopWo4p273D3Fs0oJKtRyGrSWg+YFExaqj8lgPzfeMdf5oeQiSLPO/MAAAAASUVORK5CYII='
p13
sS'twit'
p14
S'data:image/png;base64,iVBORw0KGgoAAAANSUhEUgAAAEgAAABICAMAAABiM0N1AAAAt1BMVEUAAADM1t3M1t3M1t3M1t3M1t3M1t3M1t3M1t3M1t3M1t3M1t3M1t3M1t3M1t3M1t1VrO5VrO5VrO5VrO5VrO5VrO5VrO4pLzMpLzMpLzMpLzMpLzMpLzO90d+zwMmJvueZqrXF095cr+1mdX92hpCGlqGTo65zgo3Y4Obh6O3Z4eeco6dXXWIpLzPR2+HK0dZMUlbe5us1Oz/T3OJMVVyLm6XN195ksezM1t2uzOGfxuN6uelVrO68IVxAAAAAHXRSTlMAcN/PYAAQv48wn1DvIECAQABQgJ+/7wC/YM8g76OR1AwAAAHhSURBVHja7ZdbV9pQEEYPJOEoJmDtDdBqWhUvEMUL7Vfl//+uZjCTZLA6y4yrL81+AQ577XNy5gVcS0tLyxOdLt5EEEZrXCToebwZ33se6gVoQEAlZ+kwW5uhAA3ZlqE+mtIXoR0cpo04RFwPJTHShgD1kIchNKhCHaD5oyEsQ70YFoZlqA8TnkMD2OhyyMNIEdoB8LCqgRx6VdYqdt0Hogvglym0tw6FAH6vTKGPjg/0aAt9csWBvq1soc8U8gCOjKEveWgA4PsPS4jIQ32evTGUgGdvDHV49sYQz94c2ubZW0NDnr015Hn21hDeiTb0L0PH78R/Ezo5naY509MTaamODJ3lBjM9E5ruOJScXwjOIdCcKnR5scElBIrj5F6zeZYzn8n9FEeErmj1epEVLK7p8xUY3XEea27Iuc1Kbsm6AaM63oUg7ii+yGosaOUOjOaELgr4Fmf03f0yTZf39G4m7lJxgshFSVycek5OuoasuXi21504yUNREgB0Rtpi+SQt6T2toeQ1J0iKH+yhZyktYOknKl5yfLjxf21T+voXXnaclPjYUlIdGRrJixyJguKI0FiOdiwKqkMhZpLVmIiA5sjQ/kHlHOzLgOo4YU3KvWRHdzjEjEekjJ7dj+78AVdL2Una5UcPAAAAAElFTkSuQmCC'
p15
sS'gmail'
p16
S''
p17
sS'related_to'
p18
(lp19
V\U0001f68c Bus
p20
aV\U0001f68e Trolleybus
p21
aV\U0001f695 Taxi
p22
asS'name'
p23
Vminibus
p24
sS'known_as'
p25
(lp26
V\U0001f690 Minivan Emoji
p27
aV\U0001f690 People-Mover Emoji
p28
asS'default'
p29
Vemoji
p30
sS'bw'
p31
S'data:image/png;base64,iVBORw0KGgoAAAANSUhEUgAAAJAAAACQCAYAAADnRuK4AAAHWUlEQVR42u2dHZBWXxzHHwiCIAiCIAiCIAiChSAIgiAIgiAIgiDIgmBhYWEhCIJgIQiCIAiCIAiCIAiCIAiCIDjN55lp5syZfXbvPS/3OXf385058J/5b8+9v/s5L7+Xc84iKFWghSZQAqQESAmQEiClBEgJkBIgJUBKCZASICVASoCUEiAlQEqAlAApJUBKgJQAKQFSAqSUACkBUgKkBEgpAVICpARICZBSAqQESAmQEiClBEgJkBIgJUBKgJQSICVAU+nbt29hd3c3PHz4MFy7di1cuXLFlrRbt24J0H/9+fMnvH//Pty/fz+cP38+HDt2LCwWC9s+7ezZswIENPfu3QunT58WCgEapq9fv4bHjx+Hc+fOCYIADdebN2/CzZs3w/HjxwVAgIbp79+/4dmzZ+HChQt+dAEaB87Ozo7TlACN18uXLwVHgMbr3bt34fLly35cARqnz58/hxs3bvhRBWicfv/+He7evWvQT4DG6/nz5+HMmTOTGmxra2uZ4mjZ+I1Vv8/03Op3c6b+WQL05cuX6tPVxYsXlx7b9+/flzmeVf8f0E7RMVb9Ps/WSvu996EACLf8yZMn1YKAvDyJUnrfUEMK0EwBYmSo5V1dvXo1vH79egnkWEMK0AwB2t7eDidOnCgGhxQGbn6JIQVoRgD9/Plz+dFLwWHkIuNew5ACNBOAPnz4UBxJpqbn1atXVQ0pQDMAiIVySVzn5MmTy+QpBWK1DSlAHQPElFXingMd1YS/fv1qZkgB6hQgYjtMOSWeFf9Ga0MKUIcAkTln2skBB+/s6dOnK11yATrkAJWsd3jhNAgoQEcIIArZc8AhEk2+qOaoI0AzAgjv6Pr169kxnVprHQGaIUAHJSv3a+yiaDXqCNAMAAKenOAgf0NgcSoJUIcA5cJDKqM0riNAMwfox48fWfBQajHFlCVAHQPE6HHp0qXRqQjKLdYlAeoEILytsQ9FNJptx+uUAHUAEFPPWFedslLyYeuWAHUA0NggIfEdtua0LlgvLS63qH4CgIjXuOXFbT1ZAJEYdY+WAGUBxDCYm1W3HXGAWDRvbGxoVAHKA2hzc1ODClAeQESaa2y7sR1RgDjqVWMKUBZA7LfS6xKgbIAoZteQApQFEJFjRx8BygbowYMHGlGA8gDiZDA9L1s2QNTraEBbNkBOX7YigHJ3VtgEaClvtrFlA0TVoMazZQPEHi2NZ8sGiHMGp3q427dvLyscOYGDWmHOS+S/uYLyqNUecdsQ5x9xIAUHaGEPqiAePXq0LKVZR1ilO4DYP4ZRhuzMoAaJ+79I5h7WiDgbDeg0bMwcsguGilAO6ZrKHt0AdOrUqfDixYvsY+kw8J07dw7V1LDfUcQHiQMocg+waA4QObCaD8GL1jrnB6PPfWqjI9Ta3sTU33I0WrsXxvy9Vy8DKIZu1kA8ZHwOIsM624YYrvf6W3pf/Ddzaly3sCpxzdqHswLiEApnJbEdh7UR0/le9sDpYYTvKg5U4wMBz17VjUAztNfwHCwmU8MB4NQXsZQ2Rou97DFmjcdCG5BSffr0qcnInA1QaRUi01b60d++fZv9kvx7JHjTnjeXy3UZUVOV2IMrsNL1JGdmdwNQycMwnKZexe7ubvFcTe9LIZrDJkem5PRj17AHxX5pJ63taBSVc+T2DrytFMZaIwXrgRSi3m9rTq9hqGkP1kwxRNimZhqqqKCMhVtOnCd+IY5/qb3gZdSJBbC9wkPMJj0Op7Y90gMhWIx3ARDBvrHDLBHUWBwiVfuj0HvjKRJgW3khpY2pqrU9GHHiURlIay2oi4vqWayN+bDxixAOaBV+50PkPudUbUp7pOGBWvYoBgiah7rL5K9iMRq1+jj0sHhhimvbG0BT2oODu9JDMLrZWIi7PGRITEeFGneB7dfik13p6b0BRM5vSnsQU4qDrV3tjf/48eOB3k66/im9D+ygRiQ7Vm8xodQbbW2P+O401oU17FH1eBceihX/KkMQGJvyg6beWG/pjantkXpjNezR7Ig7jENKIvZ+0hB765KD3gFK729tbY9ZARSPSgydREBbvMCYNUZv+9hYyE5pjzhkwHepYY+13tbT+kCq+KzpHuu4U8Bb24OMfpxc7fKMxJ4O44y9jh7deHJVU9mD0SbOAHTlxueqVi8YEmPBje/hCOG4pQnllvZIs/217DGk1LYZQC03KKYezlzUyh6t71hbG0Atphbu5ljHJS292iNN2B4qgBDufs38EkHNOaumPcgQDJ1mZgtQyRWYcSOOslc559xUyx7A00tnWkxhtJKeh7HSwNzcISqxBwluFuW9aDHVD1FYPrZWBXd43YvEnuxBvXocwjhSAP0P+lE1R3J2VXifuAbDPN7WXBfMQwUM7GDZL9kKZIAz5d2y3QKUxiuYmkiD0MhgM68fdmhWifor1nn/7UF6gtG3d3ssglICpARICZASIKUESAmQEiAlQEoJkBIgJUBKgJQSICVASoCUACklQEqAlAApAVICpJQAqYn1D8sN9Sth6+HqAAAAAElFTkSuQmCC'
p32
sS'version'
p33
VV6.0\u02e3
p34
sS'uni'
p35
V\U0001f690
p36
sS'desc'
p37
V\U0001f690 A small bus, designed to carry less people than a full-sized bus. 
p38
sS'browser'
p39
V\U0001f690
p40
sS'annotations'
p41
(lp42
Vbus
p43
aVminibus
p44
aVplace
p45
aVtravel
p46
aVvehicle
p47
asS'wind'
p48
S'data:image/png;base64,iVBORw0KGgoAAAANSUhEUgAAAEgAAABICAYAAABV7bNHAAAAAXNSR0IArs4c6QAAAARnQU1BAACxjwv8YQUAAAR6SURBVHhe7ZpPaBx1FMd/b1I8albFQw9NW63Z6EWpYIJ0w0bag0iLeNGLHqIUQcUWQW0LWmhLPahFBRWt4kkvQQzioaUt3YVuPBS9SFKKlkbMSdlUeu08v++3b9JsOrszs85u3OV9IJ33e8POn++8eb/3e1NnGIZhGIZhGIZhGIZhGIZhGIZhGIZBuu0ZY7VrTzDxXpiP4G+jd/Yadv844q8XxguvqqclPRWoOFf/0DE9j7Perq71hfnNhYnCuzqKpWcCFWv1o47ogNjM7hfvXAUuZKsIF7evHUTuIYkIdu53dSUSnQtXcgFR9Ji614+xufp0sbZ8rTi3zKNz9W/U3cRobfln2a/D1Phj4rc6TEV0LrkmdbUk0G3XGPvp7weZ6X0fHY5PXxovPKu71p8Ur3pXBRJxQg6+U3EuQ5xduqtv6KpAEOcDcrRNxAkofErdfUXXBJJcA3F2SgINOHht/tG7ftVdfUVXBJLpHOI8I+IQ8f75iTt+1F19R+4CyYyF7PdKY8Qfz48XTjbs/iRXgXyVLDMWQN75FkXYQb+jj8lNID9jUXgimjqJ0xdu/2cyVdIorr5EpfuwDptARXsPNjfXVlLdEqfOPchZJWw2SuQ1POnwuc65Jfyu0vAkE51L7IXx4bYapBYI4nyPze7GaHBIEijLKzZw4qShK9P8IGECJZBNIGk0OTeLhHi64Rh8sgnku3DDe3TROdtwDjZZI+hPtWDzBbUGGstBCWQV6GaDiWhUrYEmS6GIIpovYwkhi08IRS/j17EdOekro7JeVHuT7xt3m6gvTbyAm9qE69sMb+JXkzwr6cR+sSwTAgqPrO39aGfxkC4L8mYJZ56J+4RTrNXfYHLTOO82dd1CLgJJC4MdfaHDW4n6PgmtDblgnPJAq8jLikS0dCrbNeP04Uhnc6e6mvjPAvlvWSv9nRYwH4taG+VyeXsYhC/BRJh7FsOh8HD1VPUPGaQ6XjqWiG7sisQplUu7cTfPEZEXP+Rwpnq2+pnYUW98bSSJwChZ7tdhLIkCySeSdjlE8s2liWG/wi9Nlcq4wBmYBRmvos7MT1fOVs7JIOmY6eCPotdqx9SOvQEFn3p3MyfPnzn/ghg+eomOe68iKSHpK0viLBYl21aQW9XSIPc5/l0rjlCAcG+pjWNyVc3OwCsdiSMR20IcYXry8cl3xJAvqBIx3gv8g03xCSp9DmJ3tw6boCD8QcJcQpwCkpZISxBFUxJFEvIcBk+qOzN4aH9F+W5yavI93MV+vyMGiPJb5UzlPrHl6y6S9lZp5qXtdqYSKA36pN5ujOLhkPdUzlVyXaLgvKewiU3AEXjNOr7P3Crp0IUr4dtj2qYAUNdtR+S31Bhy0vJseTE+1HOOHgFR2f6Y7L5SqyNyE0imcUytK4l4DXVc6Itq54qKHlt/4aFcDDeEJ3TYEUO6zYXFK4sXRzaPyP+0uA2z1gPiQ2KWaf/1aIrvBlevXJ0d2TJyHRn1XtQ6d8IlD+QT3sD7ovrLMAzDMAzDMAzDMAYE5/4FLL61szqRr0MAAAAASUVORK5CYII='
p49
sS'andr'
p50
S'data:image/png;base64,iVBORw0KGgoAAAANSUhEUgAAAEgAAABECAMAAAAV8YMOAAAABGdBTUEAALGPC/xhBQAAAAFzUkdCAK7OHOkAAAMAUExURUxpcW+Wn3ijrXijrXijrXijrXijrXijrXijrXijrXijrXijrXijrXijrXijrXijrXijrXijrXijrXijrXijrS8vL3ijrXijrXijrXijrXijrXijrXijrXijrXijrXijrXijrS8vLy8uLnijrS8vL3ijrXijrS8vL3ijrXijrXijrXijrXijrS8vL3mlsHijrXijrXijrXijrXijrXijrXijrXijrXijrS8vL3ijrXijrXijrXijrXijrXijrXijrS8vLy8vL3mlr3ijrS8vL3ijrS8vLy8vL3ijrXijrS4uLnijrXijrXijrXijrXijrXijrXijrS8vL3ijrS8vL3ijrXijrS8vL3ijrS8vLy8vL3ijrXijrXijrS8vL3ijrS8vL3ijrXijrS8vLy8vL3ijrS8vLy8vL3ikrjU4OS8vL1lxdy8vLy8vLy8vLy8vL09hZi8vLzI0NFVscTM2NnijrS8vLy8vLy0sKzg9Pi8vLzQ2N2F+hS8vLy8vL3ijrXijrf///3ijrS8vL3eirHairHWhq3ejrS4uLnmkro+zu+709YWstebu8P7+/pq6wnikrvv8/ff5+oCosnqkroOrtIKqs3ahrJy7wy4tLXWeqDAwMPv8/H+oseDq7KfEyqnFy6fDyfz9/azGzfj6+4ettp69xOHr7ZC0vOzy832msLTM0TY6O3ScpTAxMnijrvL293qlr42xuqTByO7z9dvm6fn7+5m6wbDJz9Ph5XObpGqNlWeIkLHKz1x3fUFLTTU5OlBjaFhwdnehqvX4+TM2Npu7wmF/hu3y9Dc8PURQU7PL0WyQmHCXoNLg45S2vomut/b5+vr7/LfP1OPs7uXt75e4wO/09a3Hzcna35K1vYuwuY+yu8vc4Ovx89jk536nsd7p6z9ISrTM0pi5wGmMlGuOl2eJkDIzMzg+P3KZolt0ej5GSJW3vl56gDQ3N1Jma0lYW1hxdmSDijxERurx8p28w8XX3OTt7sTX27vR1ufu8PP296G/xszc4NXi5eimKMEAAACBdFJOUwABAgb89QQIqP0VbPiF7UsfQfAoZyFXM3ER0A9RYBgbdmQ3eeidfP7vl93+1ASn6do3wKaJbeeiCLdq8Q0ssTycbAmU7n6qjJWQJOG8rCPl1089VAvObjPG5GDyjUYZZTAlR9C6xLamqE37xvkTCdvRMWnJ+FyR3hQ7cli99MowPr9As/sAAARRSURBVFjDY2AYBaNgFIyCIQHYbbjkhQ0FZWSCRUy5QcDUSkyG31BYTtKJaDOYBQRFeM0tQ73N+DRYWVlZYICV1ZrPzMDImFfWkIuNCGOSzA34OJvwARb9UGd+Qg6T5OVrIgYIqQrgNUfamaWJSGAnj8ccG08eYs1pYjFhxh0+ysSb09Skb4/LHEYxviZSgCauuKvXIcmcJq1EHAHNAZRsb2ltbW0Bq2tpA4LpMF4rCAAFWqe3wlSwiGE1h0mCtallY8/5Y5uXbZoCUvd27+rVpxfP33x+FZAz99v8+Qvn7139+PLihfMXLrs1uR0o6InVIEPvpvbbN79uuHhp0r1lQBsXbGkEgr6Jlzb8mtLUefnixIkTF0FEJk6ctGHrMaBBPthSpbRvU9PknY0QcHdKS8+PRhjYsqnlwdZGNNB7oaUpAEuiZBThaWpZMAeq6v6D6bf+wPVMWjZ97kN0gxYtbm3SN8Q0SDigqX3qPJiqeVPbts9B6FnYNq0X3aDGm8DQDsRMih7aTS03JiIZNKMPoWdH27SVGAZtBYY3N4ZB/BpNLUuvNJJi0O+lLU0mjGjmcPkAU9DpRXBFD6cRNuj67ZYmYzb0JMTS1DJ1OULR/1XIBvUtbpt2D8OgSV2tTUZo+VZcC5hy5yNCt3EnikFzNrdNnodh0JIVrU2hkqiFGTAJNa0614jLoG1/pz+4j2HQNqBBBn4oMeYKLDxaLiCHwr8p068hHNh9p2XKTwyDrgID218cyRwnCSFQZp1880Q3FGyZt72lfdr35b0Q8PDGlKaW/itHJkHAketAJSeuntsOKnAFEeYIaLJCCoW5m7pgYCqI3zm5BwImg6WXPumHgGsgFZumTgEVADzwFMkUm6oNK15a4KAdItAOAVBOKwwgKymFBU+YfxNFQATqHqtoysxpUoYYZKvVRBWDmEwoNaeJlwlkkFwoxQZ5gDOboAbFBrmCs7+sNsUGSYDDSJlicyAVElMMxQbxgWttRl6KDdKBtEgk0MU7Ozvx6sOQN4YUbPysKKIT1u7e83TtBNzGzHq25+muJiQFLLKQhC0vhWzMrH371xxYs3/fLBxGHT5+6uSBNY8O7ULI60ArSEYFRPNs/ayDL2Z2dHTMXHdwLXZzPh2FyH98BTOJRQFWiXDZIQx6/aKjGQQ61h3C6q/j7yHyzc0fWqBillzwUs2PA9pE6zz7Bqau48tZLJ6bdWomTP7lGUiQG9kil/vxEdYgwY3PXzTDFB79jBl3nWdOwixqnv0OJM+nKoxaFcnxK2tycOhlz4apa15XrMeBDvRqSuDyzQUZHKpqgliaNMxOTk6ZOXB1tdVOmKBSBS6vXuTkhLtB65UPV1juhUW+og4u76KEr6Wu664OU1imi63FW5UFk0/Pw9vmF02DqksRxSqf6wa1KbmQQC9E1AEUDCoOXjjk49wjQf5yCyfYL7JQUnRUVMLtbt2EKEfFoJAR1GkFAMRHCASRIYJaAAAAAElFTkSuQmCC'
p51
sb.