ccopy_reg
_reconstructor
p0
(cemoji
Emoji
p1
c__builtin__
object
p2
Ntp3
Rp4
(dp5
S'emojipedia_url'
p6
Vhttp://emojipedia.org/articulated-lorry/
p7
sS'index'
p8
V481
p9
sS'code'
p10
VU+1F69B
p11
sS'apple'
p12
S'data:image/png;base64,iVBORw0KGgoAAAANSUhEUgAAAEAAAABACAMAAACdt4HsAAADAFBMVEUAAAAAAgUAAAAAAAAGBQMAAAEAAAAAAAAAAAgAAAAAAAAAAAAAAAA8PDx+fn4AAAAAAAAAAAAAAAAAAAArGhICAgIAAAAAAAAAAAAAAAAAAAAAAAAAAAAAAAAADRhnaWghFQ8AAAB/WEIAAAAJKD9WVlY6MSwVFRUZVkAFSjGhg2yJZk8RO1gHIjhjRjiZdl8AAAAAAAADHDEAAAAZRWEzLCdEOjNwcHBxcnIAESADGCkyLSsYZEkUFBQeHh4bGxsjIyMNDQ0ICAgpKSk0NDQYGBcBAQEREREJJxw+Pj4vLy8WFRUnJycTQzJaWlrb07o4ODgrKytBQUE2NjY7Ozt4eHjv6t8tLS3h2cX29O3x7uTj3MqQgG0IHRVgVUjGv6sRQS9KSkoIIhgOOClVU08IMyOUjX6FfW5XTUK0rZrCuqXm383p5Nbl4NG+tqG6s54GGRJMRz6vp5KrhgcKFBAKExAIFA91cWVBNydsbGyRIAMYLx2hm4k6LB5xW0h2YlEoXXZEaHVERERlZWVeEANSIA1pIwypLgNycnKDZD2AZjOabgduQw+NYQKdfCOoo5V4Y1JBmcI9jbM3gKMKX0EzeJgDVjgYZ0rp4MY7iKw/k7oLbUohcVUJWDwabE4VZUgfbFATYUQ1fJ0RcU737dIDQSsSTDepknw4g6YOYUQmhGIje1xEoMoUWEAMVjwJTTUIRjAPaUkHUjgddVUCUDQTUDocZEsVVD0CSjD06s8xc5Ps5MkDY0FQgZQMZEURW0AYXkXw5sxKdYUXbU23oYcJVDkUXkPYzrchU206h6sDXT0QRjPPx7ELUDgEOifLw6sgeFgKSjMZdlMNWj/m3cMDWjsZeFULZ0Zzj5UacVEXQFi+p44vb4zi2cACRi0fflsKYUKXhnPe1b4Mc04EaEQMQS4ojGgafVk6b4Yua4cDYD/Ty7adjHgrZoQYdlQefVosb5DWyK4lf18LaUc5hKYTY0aekX4KXD/k28ImX34NPCwghWB8aVgRd1MeaU/g179h1BkQAAAAPHRSTlMAEw0QCBUDCgIXEgYBZtUYWIay82bdOHJ64rzm+6Iv2mciZ8u94lr96ujwrtXPEsbMPIca/MHBZtaW0vmVuUJWAAAEyElEQVR4XuzStW4eQRSG4Y2U5DJcWC7soBSlSe5ykeFnZmZmMzNDmJkzC7KLSHOqdP9TTfVqdb4l/ruxsbHpuvMToBebwQSi7Y0ngBU9iwmkavIpQGaWMYHCeuUMUOG8mEAs6f4FcAfjmEAjffgD8EbLYwK5cOgCEFIamEAdXuE1doU480EGbKoJTOCAe14BjDK4FeaDshuQrOP+g6i2dAhI81ncjMr7ECDswM2Y17dXAG2nDxNYVmubgKMu7ojezPoIwBUWLgPXJ+/7O7umjv+n+QWrtSSgFksQtslbu+/2hbLp69xL8wb8dhqgNewb3Lvd6QvNosfS7PvNGR1LYYCSs2a8cXdQ2it6ip6nNE2zW+UXnwnE1+PbAD06SyDX7rBSRCoidCQSIat2INH9wgDUuHHEm1NvKZKkrgKCFfAWUhwgc2AEHnwTJRRoIi6SJKWqMGd9QYwJAlbnvxPExEMXJUnS0Aiw6EFV16wVfA1eA/DGDaZeBSiELiMl9BBbdiCfcyiA32jGiZ1SYCiKossI7KFHoLW/aAZmo04d0MueE48GLP0RYQXkGXrQrT9WwBvvqoBUYoF4/G/gZPGYQP4WQme9TVxhGICPl4wncWhiB9shCwRFpLdUCFqJzr5lZtx4rW1iktiJ4+w7kIV9X7v8ieSOgBCBiBtygTASJiiCO5pItcRFZXGLUFWRnjNeCGMkPxeW3/nme8/MrG+tPixjdbEfHH3xzxPkw1voAvzz18VMj1bw/tXymzKWN9bBrenUJx0PKkDfYO3nMtZWzoKZ319v6uQLltYefS7j0dwCmJl55tmGNqOR7bzUcO4VVp4+L+Pxtevg9m/vPJlo6BgSGskgqeHjAFq/f+9BGRtXF8Cdm6+34XpnZygUgj8Rj8eTzRX0L26tlrF1+go4N52Fe6Mj0Qg0MooasuOFJ3hVxsb70+DPobHQaHQ6wQn01EdPJjKWSaVzBX0vl1Y0fV0nmRO9MRj0eSnWD873RKOZWZWkaZokEmlYkUpP5F7h39gvUKyL0IZSOwy6HOtrhwXZ7KzgDge8AYWjBtPpbLZnaABAXb3tyCmKU+Aw7BYmS3PvJDj3x9AZgeNlN0UHvT51YGJifOjMf20/fpd3QPV5gzTFyTz3/b6S/NM+MDiQnBJ4vyCRghoMkOFk8mNyoPvI5flfc9ykNyippEr5eSGozzfmO8DZqUGBkDlG8Qcp2k+x3dDg3OF4oiOHofwkwft5NSwTQklOxEFLy26HJJNCMH7JTclU3W6kpW1XQR0lq6Qc95O0LDm+kQFkZ3ha8gV4kvQSjmoE/8JBeClVCSiCm2fscPRVBhBccIk0LzEqISkc24zpNLOcwkiqRPC06NLn6mpYgOOVjaxbERjV52OanGYdZxMT9qmMoLjZxkO6XInDBhy21oosxfk4khFtxp1MiE1kSDikWLFWG+zIGIbjAMOsZnPtHpFlWbGu3lRVZTBUFFUi9XXacE9tRYXBUFVlKmaz1YphALNazRbjfpe9tcHmzO/UfO0HW8NBe/3emho0g7VOW0Or3bXfYjEXCyzwcdHhxWP1JWgZqUDQY5iMxkJBvgEx5VTlGYoKV0w5RsiC9q0YDnBcq4AspYwaSyl4uxV9ARz/H84/oo4P4Wl8AAAAAElFTkSuQmCC'
p13
sS'twit'
p14
S'data:image/png;base64,iVBORw0KGgoAAAANSUhEUgAAAEgAAABICAMAAABiM0N1AAAAk1BMVEUAAAB3slV3slV3slV3slV3slV3slV3slX/zE3/zE3/zE3/zE3/zE3/zE3/zE3/zE3/zE3/zE2ZqrWZqrWZqrWZqrWZqrWZqrUpLzMpLzMpLzMpLzMpLzMpLzMpLzOLm6U+Rkv/zE0wNzt3slXqyGGVuLJcY2i4wcjM1t1gruRVrO7fxmtqsNq/wImZqrVvfIRFTlSujL0EAAAAHnRSTlMAYL8AIM/vEDCf3+8gABCvz4C/YADPIO8Av2DPIO/jhOMPAAABhklEQVR42u2R7VaCQBRFB0TTMEsFDD/QkVKyQt7/6ZrrujrQdRya6VfN/sHHOWttDsAcDofDYY7n5zfxvY6AdTQE3VxLN9CLgl7egl6gFeEe7SadyMtb4mlEfluRrxHlrbktujMR9Qf3/Ew4GD4ABqLRI28Q9k+mH4v6If9GODQSPXHCwEQ05oKX17cDcJ5kIBrBi72DBuCIgWgMHnBYiXDQh60IB30erEU4yF6Eg6xFOMhehIPsRTjIXoSD7EU4yF7ECU7kRH9BVP4S/0F0rDJBdSwJpKOZFK03GbJZlxLSqTM2OeXb7MK2ZqKdKpuwKZzQj8+QEtqpsimLYvG+cL/bF8V+B1dHaaHd9SyOWJTMygry4gQ0VSkh3dVslghRlMSgFX5gD9d1Ee1oFieREAngpkCIiHQ0exYwOJACUXVKUX0qFdGOZihKmx8vlRraXc9QNG/+zrnU0E6RCRGwyGospIV2qgxFy5XMV0spoZ0yY9gsLv6mh3Y0QxEyTyFOG9+HdursC+h24rcXXvcxAAAAAElFTkSuQmCC'
p15
sS'gmail'
p16
S''
p17
sS'related_to'
p18
(lp19
V\U0001f69a Delivery Truck
p20
aV\U0001f6a6 Vertical Traffic Light
p21
aV\U0001f4e6 Package
p22
asS'name'
p23
Varticulated lorry
p24
sS'known_as'
p25
(lp26
V\U0001f69b Truck Emoji
p27
aV\U0001f69b Green Truck Emoji
p28
asS'default'
p29
Vemoji
p30
sS'bw'
p31
S'data:image/png;base64,iVBORw0KGgoAAAANSUhEUgAAAJAAAACQCAYAAADnRuK4AAADVElEQVR42u3doTM0YRzA8QsXBFEQBEEQBEEQBPGCIAiCIAiCIAiCGUEU/AnCRcEfIAiCIAiCIAiCIAqCsO/8zLzv3Osd79jn2ZvbtZ/vzFOEm93bz+0+u3e7OoWUUcdbIIAEkAASQBJAAkgACSAJIAEkgASQBJAAEkACSAJIAAkgASSAJIAEkAASQBJAAkgACSAJIAEkgASQBJAAEkACSABJAAkgASSAJIAEkAASQBJAAkgACSAJIAEkgASQBJAAEkCV9/LyUjw+PhqZ4/n5uX2AVldXi06nY1Q0dnZ22gWo2+3a8BWO6enpdgGy0QECCCCAAALIAMgACCCAAAIIIIAAMgACCKCiuL6+Li4vLysZn7/ws9F/OKC3t7dKv686PT0FqE2AYq9R5QoC1DJABwcHAAGU3traGkAApc9/xsbGAAIorbu7u8pXEKAWATo5OQEIoPRWVlYAAii9qakpgABK6/7+figrCFANAZ2dnRXb29vF5uZmZWN5eRmgNgB6fX1t1K0xANUMUNyR2KQVBAgggAACCCCADIAAAggggAACCCADIAMggAACCKAaj6Wlpb++tLXRATIAMgBqyDg+Pv7yOcc5j/yNn9827bnO/X4/eX0nJyeLh4eHf17z6empXZPowWZmZpJfd3x8/OM2pCZ1dHSU9V4GoFIPsvjpgHJ/GBfvRZPa2trKWt+47Twb0DA2xKgCqCaAYiKVc2wdVTnLHfji571N6vDwMAtQ3PgwFEC7u7vJCxU/zh9VOcvd6/Ua93Ct29vboZxtZQO6ublJXrCrq6uRvaGx3KmHsTijaWJzc3NJ67u3tzc8QFHKVd79/f2Rv6Epj5NZX18v3t/fGwko5jFlPzSzs7NJh+tSgOKUNr42KHMdpS4bocwjZRYWFho39/lcmWcQTExMlJ77JN+ZGiC+syeK3WHdPsHf2RNtbGw0Hs/vzs/PP65l/W995+fnS1/7yQI0uJuMf0Q2eJYTZ1vxt5h31HmSGRPrwQuMsdwx0b+4uGjsYeur4gGkcaV+cXHxz2EtUMUJQszxcj8s/meqABJAAkgASQAJIAEkgCSABJAAEkASQAJIAAkgCSABJIAEkACSABJAAkgASQAJIAEkgCSABJAAEkASQKqoX4LZPEn8koguAAAAAElFTkSuQmCC'
p32
sS'version'
p33
VV6.0\u02e3
p34
sS'uni'
p35
V\U0001f69b
p36
sS'desc'
p37
V\U0001f69b 
p38
sS'browser'
p39
V\U0001f69b
p40
sS'annotations'
p41
(lp42
Vlorry
p43
aVplace
p44
aVsemi
p45
aVtravel
p46
aVtruck
p47
aVvehicle
p48
asS'wind'
p49
S'data:image/png;base64,iVBORw0KGgoAAAANSUhEUgAAAEgAAABICAYAAABV7bNHAAAAAXNSR0IArs4c6QAAAARnQU1BAACxjwv8YQUAAAOWSURBVHhe7ZhLSFRRGMfPOeM2SiFbWOsgiOixHWUUK+jBpOUmaNOiVYKbHohYqNXC7GFBUbYvsYySwtBpZmqVEm5aFC0ioqzwgUude/p/5x5tZhznzh0VdOb7wfF73Mec+7/f+e69CoZhGIZhGIZhGIZhGIZhGIZhGIZhGIZhGIZhChZp7arRV1G2NTDn7LLhmiM8PjVg3YysukD9WzYdEkK9tOGaIzw+kVUDZS2zBCyQByyQByyQByyQByyQB8t6zLe1tV2D2exGGfmz8871OO7Dun3M5y0QxDkrpbxtw4xorUcg0KX1LNBylth5awuavARC9fSgeipsWND4FgjiHISpd6PCx5dAVpw2VM9GN1P45CQQNWSMDxDmFcY+my4KPAWCMI/paVVswszjKRCEabBuUeK7SRcbeQmEF8BpjAGMR3ZE7aacwTEjQotWM4ToxPhqNqwAWogH8+e2/oTd5BvPN+n29nb8xn9IGKXUuebm5k82ZaAnHJbjTbjb3cwSb9I0WemcyvSvzv7ysibMqMuGvtFa9EoncTX8d/qjTRno375qVnRJKU7Y1ALL/tRIFojEaWlpOUx+ZajyqFRyD3IzAR14G4lERjs6OnYgforNRqRFAkEcRzl1db+mosH9wW1yTjZA1A2Odn7Gh+P3aZf8RdKD4fHJA+SFQqG9+J0jJovqjg3HIuQ/Ky97ki7Sin1q4IemqXLIr6qpeghxnsNtxQV2YjJvgjXBk1RV2O8u7bMEt0icyurKkEqoMToWuVYl1T2cc5B2CP+euEEXS74vEs4FMsHq4BnMZwQuLV2a3zDlaBtVF1k/+OlB70gAujj4p93UAqVKqG5yUGHdJKbJpuMkXpDBpC/ClJKfRO38hQgtXxubI1SptKyoKiH2IhHoBlBVuUvPn/h+BBqnP7i4KhMtppSWnfW/WJtCUm+otTYFKaSbl85nY3MEy8Y0YTkrd8OkC29IiIT77ajle2NzxFMg3J1GGnB7KaZ+QTYTARH4QRYiUhU1kk2UqDEchb5FY4FJa1OAQN/Iph7jPRypr9gTzBibDVPFycdnx7NJp2PKGP0DbsqdgiB9aIbHbZgV9Bs0btMjkplUjqqlZm/jvLC9LKVCtdCjsaFYXl8Cvt+D4oPx73QhJIhNTWIGXbpEN9nYk+hQlAS6jImbdx+6AJyvfrniEE7Aof7Y40aGHh3Qx6zPMAzDMAzDMAzDMOsdIf4BN/p8kWY0NO0AAAAASUVORK5CYII='
p50
sS'andr'
p51
S'data:image/png;base64,iVBORw0KGgoAAAANSUhEUgAAAEgAAABECAMAAAAV8YMOAAAABGdBTUEAALGPC/xhBQAAAAFzUkdCAK7OHOkAAAMAUExURUxpce1sMO1sMC8vL+1sMLCJcoGfo+1sMO1sMO1sMFQ4L+1sMHikrnejrvdyMC0tLe1sMHijrS8vLykoKC8vLy8vL+1sMO5sLy8vLy8vLy8vLy0uL+1sMO5sL3ijrS8vLy8vLy8vL3ijru1sMC0uL+1sMO5sMHmlr+1sMOFoMC8vLy8vL+1sMC4uLi8vLy8vLy8vLy8vLx0dLu1sMC8vLzMyMS8vL+1sMO1sMNd3SOxrMO1sMO9sMHijrXijrXejrnuiqu1sMO1sMJOWke9sMICfpbZaMO9sMC8vLy8vLy8vLy8vL+ZqMG6TnC8vL14+LzpAQS8vLy8vL91nMO1sMC8vL0U2Ly8vLy8vL+1sMDM1NWJ/hu1sMO5sL+1sMHijre1sMO1sMO1sMO1sMJVQL+1sMO1sMDMwL+1sMH6gp3ijrcKAXrmFaO1sMHijrXijrYGeo6CQg+1sMHijrXijrXijredvNnijreJoMIuame1sMIGfo1M6L4pMMNZlMJxSMOBoMO1sMOluNJ2Rhe1sMC8vL3ijre1rMP///+5vL/F8Le5uMO5wL/B2LvWLKu91LnekrvaNKraGa/F9LfSELPSHK3akr/aQKZmUiveSKSwuL+dvNnmkr+1rL+9tMC0tLu90Lu5yOO5sMO1qLeduNfvdzu1tMOxsMO92PTAxMfrUwjUxL+9yL3agqTg/QDM2NnKao+hqMPrTwe95QcJeMP/7+f749a+JcnijrD0zL/eRKT1FR/OFK/SIK156gfODLPaPKkVRVWF+hfeTKW+UnXeirGKCiO5xL5lRLzgyL0k3LzMwL7RaMOptM+5uM/OddXZGL9RkMLlbMNFjMEU2L1U7L+9+Sq5YMO9rLvKYbfOcc3uiq46Zl36gp9llMGlCL6tXMIlML1hxdkFMT2iKkWaHjmuOlk9hZlFlaU85L6FUMPa2mZeUi/Wxkvzr4+5zOvvg0/jEq/GLW/rYx+91PffApuFyPeNpMMZ/Wm5EL76CYnBEL9R4S8t8VHahq//9/Fsw6CUAAACEdFJOUwCPBf6vF8h/DNECiE87DyKg6kwI8+EGwPrRVz788PpIK+6PBIpp3St1Hb82ULFdpdsPBKat+TrVMKltg5Hx9D9gxlgPjMi/eRUNdHKRmBbV5emXlBRz6mbVzfWlzm/lgzb6ZkOzKGP7rM8hCvVNgIZLrebJGrmhor+KusvH/eC/w124xPfHIYQAAANoSURBVFjDY2AYBaNgFIyCUTAKRsEQB8686gwMTuxEAFUxfObYlwrmMTCwtKCA9hZswJwDjzklxW1t+TCDlq05DqY7FywD02vWgOnuBZ1gLic+g3js5MrVYQb19O0Hu6frwAKQm5bt2Qs2oXdiVztBgxzkbO0Z4AZNnAIx6HA/2KCpfRCDdk3GaRCXGARkO8jZFWRjGDQT1aDpuAwSy7URAIOywsw2OddKZzINUtaQnbsYCOa2zJ4xra1tQjUrmQZZFLVcu3nr1s3Nc8EGtbGRa1DS3M2btm3duu3rOQoN4l78aVsHECz9soQig7gyFp/fCjZoBWUG8TkufttBDYNS1eZ+pIpBybILN1HFoLS5mz9QxSCXudfegQ36vJB8g5iyNRPE575/vWnVqlWbzpOXIJUtdFS5jcXN4xJbWs4tBIGWFnIMEtNQk0EUdnOBoIU8g3RksRSeZBgkZtxCHYM4YkgxCE8JycFJjEGwMns67jKbKINgtUjPgm6ctQgOg94ADZrmykpcvYbHoLPb7+y4faeZlaGRm7sKLOLIDQSWOZOwAMtYMZwGtZz9dfvu3yZw+lAFJzNrEJNXcAIWwANO13CDFs2bNw9h0I0ft+/+EdfkAwINmRaglAsfnxjQoDYwmAMEQGoChEI1aNG9S2cuL18EM2jRt+3bZ8s2uNW7VagtWn7xzKU6cXEnmEFHjxw7dgRo3Ianh56tnYBq0PLrV1efPnViI8JNy5cvuvx75+qdFy5uPHHq9Oqr15e7Qw1a+2jdypW79+14cnD9yvXPN8C8FgnSNW/LlVmtrbNOPliEMGnR959AsdZZF16dBMld2QI1aM6+9fNbW+evO/QYSLW2vjgKMUjZGhyWD0F6WmfdR3LSvC07QWKtJ1+CqVm1Vgy8tiAHHQQbwLx7JYiav+4IxCCGECtGRkYff7BBrWHBjHBgk5IOFmM2BVOtNZoMWfFKSkq+ARC+KTOYiopWRy4dVSCSukZIYtKKYDGRCIicChdEWFgXYr6kBJg24EcpZqVFwXr0uJDEDE3AKvXDRUCUqBlMXA/Cl9ICm6dihFo5SklKMIuGCqMI8psoMivq8wt7iTJLSErB7RD2NgDztbVEmAOD/NCbNPzyQgpcaGKG0kJmnkBbFITkkT0A43tIC2kLD/tGOQCM+/xgQYsE9gAAAABJRU5ErkJggg=='
p52
sb.