ccopy_reg
_reconstructor
p0
(cemoji
Emoji
p1
c__builtin__
object
p2
Ntp3
Rp4
(dp5
S'emojipedia_url'
p6
Vhttp://emojipedia.org/no-smoking-symbol/
p7
sS'index'
p8
V516
p9
sS'code'
p10
VU+1F6AD
p11
sS'apple'
p12
S'data:image/png;base64,iVBORw0KGgoAAAANSUhEUgAAAEAAAABACAMAAACdt4HsAAAC91BMVEUAAAAAMp4DKq8AAAAAQY8AO6AAPaEAAAAAAAIDLbQAQqIAAAAAF0UALnwAPooCI40AAAAAGWUAAAAAN6ACHn4CKaAAEUkAQI8APIoANoAAOYcAPI4ASpkBLZoBK5MCLKIEKKYDLqsDLqwAQpQANIMAOYwAN4UAQp4AYeUBWeQDV+QEVeMEVOMBWuQDVuQGTd8AXuUGQtMAZuYAZ+YAaec2QN4AX9gAYOEASMPj4fgAXuQAUMUAZuIDP8kAWuAFS9wCUN0AU8YAauIAVdcBObgASuEAROI3gusATMQCT9QFUOADSM8FP88ENsEFRtYETNc2Pt0CVt8GVOICWeMBRMIBQb4DPcREgOkGXeQvgev///9ZqvBLou8pjuwAacNRp/ButfIQg+vG4Pgvkuw7me5WqfBFoO9frPE1nO77/P8Ab9sAcNYyleZosfEAbcwAVqrV5/o6m+4MeukHdulIoe+y1fcahOsQf+oyle1lr/EXiOtPpe84l+4AdNsikO0ji+tdq/AAW6/q9P32+P4Ifejv9f0Bcc4ciuzL4voReemIwPQBdegAYcS51/gAUKSfuvQAcehjrvEAbOcAW8c9nO4slu0tkOs+mu5Cne4AaucAUuNrsvEsZucAb+NBVuZWpvDj7/wAZLl4qe4AZObA3fkpeup7uPM2le0LgN5RpPCSxPMdhdlgqO5Km+8AX8hirfDE0vhBWOYATqcAV7QAXbtKpe8AdOQ0lO0AZ+UScelMoupFn+sAa9otku0mf+vc6/krb+jD3vn/+/+AhuwAYshjrfEVa9lnoPBOo+sAaM0cbOhvsueizfAKeM0AV8YAaNk7fOs7c+nh4vsAQOEyU+QAZ+c2h+s2jOwAYuYAXOQqdOgAOeCtw/Vpp/Hh5fsATuMAXeXg6/wGUuMAZNjK3Pnn8v0CWOQBWdcAYuXi3/mNsvMTaec4WuaFh+kyT+QAYOUMes4uXOZAmO3d6Pulz/eVx/UAaOYHR+Eph+wpeOkDIdo2PNxEme4mxMDtAAAAKHRSTlMAz88Kyc/PJh7RzxoEVsaNEk4hz2/AP9m0Lnmp/cq21Lbj4swdOhfGFUqYnQAABa9JREFUeF7c0EVz40gYgOE9bHKYyviyBydObkP/qYVmZmbGMDMzMw8zMy8zM8NhFFtqt2RPds/7nvT1V/VUq9/4f1UjqRWJ3vyXRKJaSU1Z4Kiorskc/Q+Zm+pER0uAk9V10VGSNKXu/HBod1ImkhyN1lWfFNxebB4ll+Zv3ZZZzh2aRXb71nyKHDWLef9xXBwlb3w+ZknGLBnZhUOSZSwxbWxu3kRGxccRoNpM3rjaCLQLqn7v8mtqzQ9eI51zJs8ZUqS5Gnm/JtJ0NQMAsBAdRm/5WjHuQx2hZSOM0ARfsurYRupjJzjoZ8JqbC2Xd1NDedmBIZyymdTGsSoWOLFG6hcAYAWNV12mCPVLCFuGEzZB68m1EywgWTfNNCY54Q/NcqS0YRpMSSm4wfqdM6Z1CQvUbugNc3QMCp0RrCRqCoCvsp0Yt6J+Neg3alngVIN+j3agAqYURhnjAKw8tWmUWGGm9/QNp1jgSEPwOkY5+qFwNqSkhOEXGFvbPJntpPJL7Hqw4QgHXA7uK/1+FRTeOxui/IIcdBwwxZvv20ObzFa5H7yMAIpZHMd7jIjgxwX15Aq69p37do0fn1XwAAPuYOrwQmEyvekQ1JGLF4iLzbudOG7gAXJcdZD1ChT+9DlUgqytMtZfyWpwOQ/oUvXkC6g/5YSXPuaMn6KbntDmheaEqosP9HQX8kQ44eF5KXuINB240pgnFkMosBQkuhVsHgwROhQleTzqCQZo9BHBpSKgCysCXGeGoTDgtgZKk3umkiC+7dOhgC+wzTVNIIINnqMRwzGgTiBAuy4hRwrPcsKXAzaPvExhGtBbunYOqGzXbaXlXYiAQ+FH+5kupiJQGIgR76CuvRIBEuF0lssdSi8WhXqCIMJuuAsTBDNIndM84PRWff3N1aHVfEPffJB2LY5AoSUU9j2AOxshHRgaurlg3zrNB367BrguXurzuf6BwuO2tGuO28Vd6UQGgGtt9QhQcZcFYJfel7p/Kgq9PneOHZIud8snDLDDAHcrisBgyw4ESoXvnkAhudv7fR5oGUSBexCAwiOb/VlReGFrGysAX/d+wQL3+MA4HwDf/vVR3/kPOeHvtz/rG2OB5wfAOAq8xQBt4+8CgfD7q0rqZTlpKIDjMIVF4qQdoAK7XlchkBIJhUIbQluo5RqKbb28jhu7zS7OuDHTd6g7n0CdQSSITtHOQOwmu0yZbjyBQ3IQR46/BZucfPzDANGCLaTvuxxjCS/fKTz4EL+rMgAeToD9mwNZvmiP+wJ6bPWMYa6dDfWmSj8Hl2RZvmu3L2T54GZ/GlB4no/H46qmG1yvw4b7PTYcdoR0vckbtKYqsmzyvDILjFMUJdHigaLRgOl1Oq+/2hu2jxQzAQ7Aoyiwm9xTYAlQy9oBCC4DithCevtIBtcV2F5yFwXMBKw1Kq7qum4YHIgZohtaLXjO/AO4MifFrVTVEmiaNmi6f4lsUEzYFQIsWABvBwHwEPo49hLdAE9ZwMIEOE6m1Ok0VUNi0Q0mPJJKHjvAIKVr/4pFPodma4TqqYED7AxS9HQ6DTIm0XR46GxoqqOrqcHOLDDb+H4goBvUvwDGvJgh8p3UATsFHGYz3Ly2nA31rsZlsodTQKc3tyiyoWt0EGDlFAAYIb+L+y5YcLoCgdWz4skTFiMgOP8P2eLZKgS8eQCEcbp2hM+5Yt4LAX++nIv0sXL+H56K5bwfAuSaIJ0weE2E25gkrJEQ8AWsCZEtrMbCt0aunA/4IOAhgudSqRHBqwCE20ZMOg8SHheMDG0IUq4Rxavw/lMhJwkbIfAE9gT/plATS6WfWBUKYk3Y9IMBdhQRClYrNVGMYSSKtUo1GCIol9PiMkEE3FWh8gijilB1BwhiedGF5AECseRddz+Ym3vdu0SA+z2uqRYp4r+i4PsjeUh8gETeHiV8FIkR5UPX/wa5ae0BWktkvQAAAABJRU5ErkJggg=='
p13
sS'twit'
p14
S'data:image/png;base64,iVBORw0KGgoAAAANSUhEUgAAAEgAAABICAMAAABiM0N1AAAAilBMVEUAAADdLkTdLkTdLkTdLkTdLkTdLkTdLkTdLkTdLkTdLkTdLkTdLkTdLkQAAAD///+KHSu0JTcpCQ3f39/PK0AQEBDv7+8OAwQgICAcBglwcHBgYGDdLkRFDhVvFyKYIC+mIzMwMDC/v79AQECfn5+vr69hFB6AgIDPz883DBGPj4/52NzfO1BQUFAOqFXRAAAADnRSTlMAIGCPv98AUJ/vQK+Az32XzooAAAMESURBVHhevdjXbuswDAZgO6OO04T0ntm747z/651KIkxErTUu2v82wIeIGqYUGBJOprP5hjKfTSfhy3iCsR+ixWBw5ovIDwqn8WYk8TR0hpavG2Nel05QuGAgTXZvlF2SMrUI7dAqJqRItjU8pd4mBUnxygKFa2IOW/gx2z1R69AERVTjpIXRtAlVPRqHVvRvMjAmOyhqNQapKhc3sOZWqJp/h9hJW3BIm+pSoDlJbQKa9xy/8ujKOmGJIa7PHkzpK6TkR1DSSociWjyZyUFOdYSblKJnKIw3VqmpEPO+BGjuiHgC9Z/i8AmidWiU3hHzUpn/EPFM0pogLlBamKUTYg+UC+IFoE65TMEwsKLNzFKFeAQ45vlR/qUTALTFMLhgmPkbgFl6SOiOeAdoEFHgN7UGCFoK5wBgka6I16bJETsJVVKXu2VJkDzHMrBIPPsNDU0kE9CrgkLhJABW6aqcXhX7XTg0c6GEpgJqwUHqH4jXMwCc5fTLtAKaSiimrWGTOGWuRjZUKRZQJMgteEjnCsUEUrZqowRy7gsAd+muCjVEjGDxBc2p1K7ShR0u9/wlCGlkdomdx5EMHlsYTARUg6vUIeKlfKJrIUwCMfkpgFXio+Sq46lYAMGMSuQm8VGiFWkWiFrvwFWquM6cnah2IAbwBq6S3PR63oRBkKtU4ckMuUrNubRBzqMzQ56SP8SSO9Tl+FM+PqX0+UEThip5PwZ1BBgkgiidBtGChAqt0jNUaQuStkiJaJcIomhbhDYtQWYp+wbxph2OEXSQikyH+BgZDjZ0kzSID7bhqK0cJb3YdNTy4d+hm/ShTz8d/vw56nMn6VNJea99jugDeQCO527Z0weSP9n+En+y9SbCX+Imgtsaf4nbGr3R8pe40eLWz1fi1k9vRj0lbkb19rj2k7g91hv2BPwkvWGnwflLe75C6Jeam4dEiX6+ZiW+0spw8fORFr9wFf2Fy7H/df1XHxD0J4392JPGwfak4f/I4v/skxmeff7iIcr+NPbXj3Ucr+fD/7cmQpg9nky3AAAAAElFTkSuQmCC'
p15
sS'gmail'
p16
S'data:image/png;base64,R0lGODlhDwAPALMPAOxfNNzhsl44ALtEMK0EAF9fYd2RX/woAPQFAIgLCSQWAMwAANx0AHZ9XodPNwAAACH5BAEAAA8ALAAAAAAPAA8AAARE8MlJ50E1v0s05Z6FdOGGJNbhFCxLIIMgK8tiBHhgwAbjC7UbDgDT+RgCAsHRaBATTYdMoKC8SCFQSZsdlUzYkPf7iAAAOw=='
p17
sS'related_to'
p18
(lp19
V\U0001f6ac Smoking Symbol
p20
aV\U0001f6ab No Entry Sign
p21
aV\U0001f51e No One Under Eighteen Symbol
p22
asS'name'
p23
Vno smoking symbol
p24
sS'known_as'
p25
(lp26
sS'default'
p27
Vemoji
p28
sS'bw'
p29
S'data:image/png;base64,iVBORw0KGgoAAAANSUhEUgAAAJAAAACQCAYAAADnRuK4AAAN3UlEQVR42u2dL9QNWxTAJwiCIAiCIAiCIAiCIAiCIAiCIAiCIAiCtQRBEARBEARBEARBEARBEARB+IIgCIIgCMJYv7vevHffODN377PPOXNmZu+1Jvg+39y5M7/Z/88+TeviYpDGb4GLA+TiALk4QC4OkIuLA+TiALk4QC4OkIuLA+TiALk4QC4OkIuLA+TiALk4QC4O0Nzl58+f7ZcvX9o3b960z549ax88eNDevXu3vXXrVnv16tX/HdeuXdv8juPJkyfty5cv23fv3rXfv393gNbwJQHlxYsX7Z07d9oLFy60x44da/ft29c2TZPk4HyXLl3anP/t27ftr1+/HKA5y48fPzZa4saNG+3x48eTwiI59u/f354/f759+PBh++nTJwdoDsJbDzQXL17cPMCSwOw6Tp482T569GiRJm/2AH348KG9efNme/jw4aqgCR1oQkwdoP/+/dsBmlJ4CGfOnKkemqED0/r48ePZg9TMEZwTJ07MFpz+ceTIkQ1Ic3W8ZwMQYTO+xFLA6R9Hjx7dvBwOUGLB8SQXUzqSmuogetvb23OAUgiq/eDBg6sAp+9sk9icg39UJUAk/kj4lc7dYEZICuKcnz179t8D08nvDhw4UPSa8PWIMh0ghZAxzql1cFqBk6wxn8UD0uRnKIFgYvBX0JAkK0+fPp0t99RpIwdIILdv307u6wAjyUVg2QWKJRLib3H0qaXliBLxA8mwO0ADjvK5c+eS3exDhw5tNAOFUokf8f79+w1kJCM/f/6c5Dtxnnv37m1MX8pIrTYHe3KAqBXhd6QqGTx9+lSsSb59+/ZXhAfIqZ1XACUDnerloGDrAP2T2+GGWH2Ey5cvq51NHsJQ+YOWDYl8/fq1ffXq1QZaDtpCOC8/DwnaA81odcbxt54/f75ugMYeoPTAGY6pdmPaxpxeHO0hLUaEiANOKWLs2vhuwMJLEgLvypUrZn+Pav8qAdr1ACW+QOjBSH2TIQ3ANfFQxpxtHnxMOB4yO2hNaz1vaoiaKcxWLDy8sTimhNKxcurUqeC5+Tk+kcRvik0z4G+Frh1zZEld0Cm5CoAsPg8mA2fUIvgroXOjBTQhPL09Fkc/pOHwj4bgrhmiYgDhq8TCg9lIkQMhq9w/N+ZMGxoTpfGwidjQiJhkTBTJRRxwfB/8qKHvw3WEIj1+xt/G+kZTJByLAITTGJsP4W1PEVYDSejBAECMSK5prIPg/v37WbLxZMcXBRCmwaKaqU6n6JUhzA45zbmzu1w73yGUIR/7bICPzY+9fv16OQCR4U3R4mCFCNMQMiUlBMc5ZNJ2RVCkDGIgAs6hXNSsAEKdpuyTsUAUKpXQS11KQveCl2uXoKUo1sY465ZodXKAPn78mLz9AQhiIQol/kr6C9yP/ucDhtQMxnRjkjaYJUCQvytTWxqikBOPX1RKuOZQQlQq5J9iAhFpWaYqgEL+Ruq2T616DgGd++b+dbMDGWptNKv1ibACkgRpNQARupboX0YTaSAK5YCoaZUSHmIKE0M+TesacK9mARBqWqtmyfPEhqsax5qHFSrGlhKy6P3PJ98TIyQstfcql7lOChDpdM2X6qIgwtVYn0nqE1FvCuWBcqr3sXuD+bIkSOl81PYR5YjKkgEEBJoiKcnF7QdPuBqbcJRARP0ppPpLhPKA0teyfC4HWhTzSkgPFGgKaY+2duFBju+aDCBNmwOghRrAYnMeUnMWemvx16xF2l1CuUTbdUB/+C4Nxf3S9FRxXtIJ1QHERWkc57HKsVUTjalpzh0q6JK5zbV8hg6A2KACrbQLIvwozTnp3qwOII0qxfbv0hQWiPi7MYiGmtkwb6kKt9uOs3WJkqRNAyg050w5s8gMEG+u5g3jjZRITk1E7/LQNXdTM0K1JODC1xvre9522sd8QqJVzBTam3MCGxX6PnCALXnhNKaMBv9qANLQry1e5nSsecC78ik8FHwyrpvr2P7/ADjU2A5oQ5qHoip9O0PXBph9GCSrMDR1R64daCcHiC+r0T4xfoYFIh78WMsEqtwy8QNtNRTxhR4aTrwk5QBgMTU7TSokVURmAgiVW8J5s0RnQy2k29qCBxSTzKQVdkgwT2gszBjOsMbvoJ8npl011PM0pl1T+HsmgDTEW1d8WjSRtOeZB8ebCXQSzZqrhRSTFQNQ12orvS8p5hFFAxRKzY+t30ohFoi0/UT8X7QGYTJvdn+9O5DlmioWC5BWC6VwpqMBun79uvhCUy7FLQnR9svS10ix69JyA8T3G2vo7/tl1smxUQBxkdL8hrXmk8Ocafug+4VYbRtGSYC0mW9yX8UB6jt5U/gJFoi07Z79N5qtD2oGaGgFSg73IgogTSU45zgSa4gvMWehkDx3H5EVIEQ6LgdLYrEQUQBJByjlVvW5M9YICbf+3/EC1Q6QJrFo8efUAIU660q2D6SGiPzSmCPJ7/rmwKr2KV8ALy9YKJROAZDGjFmWRasB0oSJJQdEWn2iMYj6GpcHE2OaMRWhMX79c6UASJOns7S8qgGSNsxbbWtNEOHzhHwojSNOKmCobNJPc6QCKNTGO9StWAwg6TybsTR/rRBxzSEoqPmFCq98zi4tCwy84WPmJBdAGj8otrVXDZB0wgaaaiqx9hOFNBFLgMbqStS7ME88bDQWb7/UhOQCiEy69HvTJ5UdIN7EWha0TWHOtK2psZn6VADhQkiXAMUmFFUAEe6VCA1rhohmtNguw24gaD9HkwsgjSMdm9tSAaTpv61ld74cGWtyQ2SjpatQAI5FB11De9+5zQmQdLxwbGFVBZBUhXNja5JctTNeEl4q/D2iMnqKaFXlrUfL8HM0Vv/vSwIkjZpjgx4VQCQGLZ16SzNnsVISIGnTX+wzayxfPFXv8xohKiXSxK9mUkg0QFJ7WitAVojISM8NIqnfip+WHaDQhIuhqarStAAOaamjy4yn1kRj3yOUoOPvt/9PvyuAf2//3jLHsW8Ox45qAJKOLUm5k430unJAhJkYyjSHtHFJH8gBSnygHXNANLRY0QFaGEClNZEDtCWheccWH2gqgEpqIgcoYxg/JUApNVE/OtvWRFMDJI3CqJllB4j0fcqs5tQAhSBKtQK2g2hqgKrKA4Uaq4YGCMwFoNw+UajbryRA0vKTdGa1CaD+on+rPa0FoJwQhSaClQRIWn6K7fNWATS031bokIwPqQmgnBBNCZC0ehA71V4FkGY9vKTDrTaASkFUEiDp9RfpBwotsrOsSK0RoBIQlQKIXiZpz1Ls3qvq4F+6cF+aC5qD5JxPlFM0PdHS0YNmgKQDNWPDwiVW8aeCaGwhwGSrMjTr4ktNgXeIbInfouvCQlsGDB2xe0E4RGlE6m5YlmqrAdI40rnHoDhEaWpglhE8URU06WRT3oDSy5sdIl3VwDp4PPt8oBrWh60RImmKxPqSZ59QtqRwfi4QhfZnzbV3RhRAECtdI0+zdondgx2i/0Sz5Whs/scEEKKZ0mod5OgQ6bLP0qXXKAHrqOIic6JZsblUZ7o2iDQDwFJMUCk2qb7kFttrhkjzTFJsPldsrwxuzhq00JQQaTbjTTUA1bxbj2afVOmuMw6RHqLQvqwl/FLzfmEaj59JXpZVlg7RsACE5jmk2ufDDBC78Gj2DCN6W5OUgIjIS1r3Sj3nOsmeqZodm0uP/10DRJrKAKF7yi6JJAChhbTrqJaeXCwFkXbPWkt7bDaAtL5Qie0C1gARjrN024muyS+1D9qkvDnS8kaqNPraIZIu2Um5Q2E2gLRZ0K5Otmv7bIcoDBHNehrTFbtwsChAiLb5nP+fa+vIJUOk0faAZt2zthhAXKh0uPX2Zh9ryVKngkhz5NzfrMlxUs0S6LXmh0pBlMNxzg4QIt0xr+ROgGuDCNNF10ROyQYQjl7MytNSm9StAaIS+5U0OU9Ou4DWH+Jg1xv3iWyHtVW1CoAQzerI7YPtkxyiuKNkZNuU+BBtlro7mMm4tNWtUoikS6dCTnPJ3FpT6oOkc2pCrQdrK76SJNRm9bvEbK58z+QAWSCiaY1RbUs3aXw/gghNhnn7Hk2xBq8oQNhl6XSPtZk0tKymMNoP11mrN4U0pT8QiHCQYyFCtdN9txRtxP2gxSJG63TwTFmUbqb64Fhztj1K2LKmuwbhwWs6CUNmayrNMzlAiGZx4li+QzLQszZwpNtGjA0Gr2HuQDP1BaTYCRk1zjClmjUSJpd+nNhRef1oqz9XcbUAIdxYzfKgXY42YXAtLSI4/Qyw1Cz427U1ZYoFgYsCCEEdp5zaSv6IAVf4CKUd7r29vU0GHjOV6sXosvO19U41NV0MjfYxVXyJv8DDpNpPuJwaKK6budhEUzj3sRHVmImuNfJsarsgbhJ+UeqHEEoHkJPCkefhYPbwKzAPoa0rAY/fs50TJolFAUSSlihKWprI3ZKxKIA6wSHmba5xEHmpA0hrX/7UtJULvoR03s1SDjLStURZswcIoTodWyOa04GvRjvwnLLsTTsjwaxJt92c09Hlsea4xKlpZyiE/EvwjwCHVEPpFozVA7Sdb2GwQ8pcS4mDCBAHeQmdBU27AMFHwtlOUSbIqW1IG5B1X9JCyqZdmKCVciX0Ypxissfkjqba8skBMmaIqXyTLKRRPbepwzTh5BNJkZlew5Ltpl2ZoKHIOpPtRjtQ4mC2oDTXRI2NPA1ZaMAEFiBd45CIVQIk0Vr9MgZwrHGJkQPk4gC5OEAuDpCLiwPk4gC51CZ/AP91vOvJUSW7AAAAAElFTkSuQmCC'
p30
sS'version'
p31
VV6.0\u02b2\u02b7
p32
sS'uni'
p33
V\U0001f6ad
p34
sS'desc'
p35
V\U0001f6ad 
p36
sS'browser'
p37
V\U0001f6ad
p38
sS'annotations'
p39
(lp40
Vforbidden
p41
aVno
p42
aVnot
p43
aVprohibited
p44
aVsign
p45
aVsmoking
p46
aVsymbol
p47
aVtravel
p48
asS'wind'
p49
S'data:image/png;base64,iVBORw0KGgoAAAANSUhEUgAAAEgAAABICAYAAABV7bNHAAAAAXNSR0IArs4c6QAAAARnQU1BAACxjwv8YQUAAAeISURBVHhe7Zt/iFVFFMdn7ttVMCRdxA0SCjShksQfRWZkmVmQ1a4/YrcNA20NUdKioEAy+8tIygVB0vQPZXVBchdDsiVKIzBqTfynIH1QVNYu8VQooXbvnc6Ze+7b+/vN3Dd31z/uB+7eM7Nv3537vTNnzpm5ywoKCgoKCgoKCgoKCgoKbjQ4nceNvuYpT0pDWLPh52RpMnGZc/GHw9nfK/+8egbrxosxF6iveWqbYHwpE2Ie53whVacihBiAz54G61zL4JUeqh4TxkSgvmk3zxOl0kYu2Cq4YhNVZ0OwCnzHQWbbR1r+unaeanMjV4FQGFaydsJlllOVUQRj+7lt781TqFwE+vjWphmlEbYFzNfcmhzBHsVYV8tQ5R23wizGBTp+y5QllrAOgDnTrUmkDEcv3OBlxp2f3KoQwloAvWQONPLRWkNT+inH2WC6NxkVqHf61Bc54++m3EwZBDnEHPsT3RtB4bmwOlL9mPRPztqWwasnqaZujAkkxeF8PxXDlOEJ72wduvIRlTMjh+8wWwfmliSh4FqdJq6FGBGohji77AbWter3ym9UNoKcGa3Sm5yzNVQVwJRIdQuULo7oh7jlcSrkQt/0plfgLt6nYghnRb3DrS6BpEN2rONJXR3Bqbh1sLKBisr09PR8B6dAINnW1hbb3sR2oE9y7GX1OG6LzpngDt+VJg4Cd9TZ29y0j4o6/EznKiBaB5kBMB1xLGelFMQPtk3GYdnJLBB07bdiUgV0xgNkV5EiwVCkoioRgeC7HyQzgszZYAajog++XA7DjGQSSEbIOIuEcLiz3mnkrWBijBMA/ZSOSLZt7wNBrlFRAt+xoru7+w4qRpD+RrBXqehnG85+ZGuRSSDMq2LG+3Z8ijhboVCR7g7oiNTR0XERPn+Cih4zSqXSkVSRhiofQGP6qegCbaXQQBttJ+3mV6XvqehRbhmszCJbkubAdaZg8Ds/wOlOt1QFQ4Zv4Hu+bm9v73KrRoltIzwwu5HN1Q039HuQVXqKrCrQ0IgjTHScgE5PgqH2DJzCfg2Hy2r4nt1Hjx69Csdet9oFZy2cPano4vai2JgpDf0e1Nx0CU7+PCvSe/wY7EnvwakNjiRfchjCgKqTjutFcL0BuN69VFRCSyB5s8I6TUUXcIruuE/GlEgICLUdTnPguBuO8NB7DET6nGxcnPsMbjG41GLb83XiIq0hBjc5n8xRHDsoWAymhhsCAuyAYw0cd0HxeTh+lL9weYnOEiHYMTKrCMtaQKYSWgLBuF5EpgS7rOrTMCmSB4jUjT4K2uGFA7fTWcId5xyZo3B+H1lKaAkEiWGwB3GuFcLnIRKFA9Ihg1CB6Z8eXiAm40zcRqYSurNYYBGMCzndapFTT3odTofh78NxEyBCQave8q+yk6Zl1F+pSMRny+BIl8HTRCeaiPXVl7MmnOhbx0dGJlFVlX9Xrt7jPPQIzpaJYPyDuRlcZxraMNXLyD4cF2FKBHe5g4oSmHWV71u5B5VGnLlkqrAWnubutEMsWbr5v42bJ7FJN9GfjDLx1KebrfLF2L/zDvroVs8O1RtDd4gZRcyazYafbqGSj+v/sIkH9jN+KX6peiwZV4EQe9FiNtwWs4pxg4ikLJDdYF0g0weXW8X1kqtI3N3OzoqyQLFJnuC4nx7HIXCeW3WOkfsf2DqyaHF0WxlEmrB3z3V+5os9/s/Tb3d7dqjeh7iHjExopRrhPAwj1dahyrNUNAJO8+Bso2vcEBZgeIBhAtUoEc0d9dbJtXwQCBJI/iKBowEwL4Oe0EnFUSCPw3wO8zqqqQkt7AViN8H4L2QqoSUQdLezZHrM1GmwKsZEskoPkzWKEN+SpYTeLBaTmEJ2v4JMo5gQSTDxHJlVYvOzFLQEkgtR4UV5wdZlXe+tRT0i4YtZ4MsCmwrYdp2lDkSvBwGc8SNkukBjs6zUqZIqkrAOJD0cIawXyPTzIZ2V0RbIbmTHYhLNzLsGKiSKBD7QGha94Wu7vSf00HAWbOSnqKSMtkAUDwUXyrEXue8D5YYUKbzODOAwCoskBH+bTD+Z3g/QioM8sDEwrC6gMFRFiPa83yHEXVpodKQ3oX/BPbnYF7eg92TZ0UAyCYTEvjSQMZjTJUkkANd+AnGPS/YHl1kgJHZRfPxFClBvtK/tg/zYDTy6g6owBZsA3xiJ80khyk5j7Fa0MnUJhGNaLp+Gcafg0/W8NKCC08Dwxc3IewAS7MncWZ/F7/ipa4h5JCaYEtHPbOcN3QCtFu4b+hbOplGfY3CYGxEISRcJ22zmnWZXGP4yHPGL74Z9oDGBEPQ76H9wiFFVBHczT/Rj0Kba/WVWDokn5lbh9CFEGYeVyQnCqECIuyeu9nY9xi4Q6Z2vbh9xTCT5ZG8hDnrdHFpSiZm6g6Dw6JDr9TlhjAvkQQ56W1pvMgLOolxsyitAzU0gREbcGNlCxm9cKDe86III+aDpXuMnV4E8KDVZA1fbBMWawyUNHJa4ooBJc57CeIyJQH7Ikc+HYfEE+JqFCj2rjEu90NCzuGBnOlyoxZgLFEf1vw5DmPyfi4KCgoKCgoKCAh0Y+x9ync84w2mOvgAAAABJRU5ErkJggg=='
p50
sS'andr'
p51
S'data:image/png;base64,iVBORw0KGgoAAAANSUhEUgAAAEgAAABECAMAAAAV8YMOAAAABGdBTUEAALGPC/xhBQAAAAFzUkdCAK7OHOkAAAMAUExURUxpce1sMO1sMO1sMO1sMO5sL+1sMNl3Su1sMNx1Ru1sMO1sMO1sMO1sMO1sMO1sMO1sMPBqLO1sMO1sMO1sMO1sMO1sMO1sMO1sMO1sMO5sMHijre1sMO1sMO1sMO1sMO1sMO1sMO1sMO1sMO1sMO5sMO1sMHijre1sMHijre1sMO1sMO1sMO1sMHijre1sMHijrXijre1sMO1sMHijre1sMO1sMO1sMO1sMO1sMO1sMO1sMHijrXuiqnijrXijrXijrXijrXijrXijrXijru1sMO1sMO1sMO1sMHijrXijrXijrXijrXijrXijre1sMHijrXijrYKfo+1sMO1sMO1sMHijrXijrXijrcl9V+NxO9N4TO1sMHijre1sMHijrf///y8vL+1rLu1rL////nakr3airCsrK+95Qe1vNJiYmC0tLe51Pe94Qe1qLv/8+//9/ZGRke1qLfnKte5sL+9tMPjEq+5wNvnQvO5rL+1uMu99SO9yOe96Q/jCqe98RttlL//8+v3w6//7+f7z7nymr/azlPnJs+Ls7vvSwO52Pve9ofGMXvnRv/vby+1pLPShe95nMPP3+DAvL/GKW/nMt3BDL/j7++53P/Sng8ja3vGATKC+xuluNPzn3XhGMP7+/uZvN+9rLpuTiPOUac57UTk5Odra2vGHVvawj4Cosvvf0vfBp5aVjd10Qvz9/Z28w/KPYvWtjHmirLyEZdh2RlhYWOzm4/728v749YmvuKKPgI2xuvOZb/ObctDf44WstYOrtPOWbICgpYWdoPzl2rPM0fSgev3s5UVFRfr6+uDg4PjIsfvh1bCJceJxO5OSkoSgpHqkrerx8oicnKiNec2cho6Zlujw8dvn6bnP1Jybm5K1ve/09cV/W/Wsinuiqq3Izpa4wPf5+r6+vsTExPrXxva4m8DU2frVxPSkfvTTxKCmom9CLZCQj5hsWNm9rriNdIubmnVDK6NyW/e5nO1oKtTU1N3o6vTw7/Pp5GdoaWdoaM/Q0Pve0dd4StNR4/MAAACudFJOUwDsHfcE/D0B/gIsCcrzOu+GBm4M0hHgSvR0+v2em4EV1FMfkqLEuQUO+BkwWMFF2uFkZbGUJuZh3X1C18McL3oL7atYs1wkz6iMbYecNfGK0iPTtpfnD+vAxa8cKZj//////////////////////////////////////////////////////////////////////////////////////////////////////////gnZTW8AAAZ3SURBVFjDnZh3WBNnHMfBRAwyZIjIlikIKMp0gntvu5/ncl4kEiVAYyQkBBESkS1FrGFZEGjZS2zrFnctasW6d+3etXv3LvfezCXBfv/Ic897Lx9+72+87+89C4shKmH13Phl82bMmDEvasnyBGJ0/AiLZ9KI1ZPnRKzwEOIKiZgzcbx+fFbU0uXWQ0Tw+Y6OM+NXhQgZmr14JvZ2YogwYsl4sxDHBdNiHQKCAl9a4yFky+NFzKhZs1HmRNMU51CnyOl2EKqmp0IuvbBs8tw52H9YagozITbyOQFGgZQHbyYKueWBGxplAuNk6w4B1R4RmlG80UXNDyQxkLLptBlOxCwjnNCAsRBN1xNNc0LiuaPGDxtHx8iv3DQNWrH4eU5O8NRRNIxIpvz3DNefJ2LCzFk1OYGT4+NPeQeSQVmNLd8PGlIePe1oaOjoWDMvau5Mbvf4BAhITIqip+jSITi/lc151PGgs75WVV//8ivGwhXsJaAwpzLehVHdOixmga7X71fKsTnDvYK5OTYOPNKe5gE9BoafdLNBfVuVYBLPwYazPKfYERiJLi8NBvqcvbSrP3TWKvejUkJ2U7h2Efs4iqNIbk8FoGtH2SYNfnjk8uW+vgcH6+Vx9hyOXktw1MkqSJTcnoOD6qp2cEX/wIFHVxuaBGt92BxrNyLw6kIV+ouQpL3nBo0kY+KZJnc39r42chLgqPQcPQms7smdVrERUkPtpJGsylhJRF4nAQ8UqevER4NiTtaZg/KVfKZBY0BRNFenQAYkuLyqu18oxkUHnW5SjmGYZO2AGyTSfVGQiZClRpHgvflV57rvHT188mSrUEw5qVMucKB7adho8KeVqRtK6KRtJAmNX9fe+7fy82+fqCFBR2ohaPQwGigMDxmSfQmGGaTCbWkwW08e6yli8YGGTrRW3MNorvYEXqnEDNiQwSClsjjXatDEEu9oPfx13xV9zXlS7vYDm1nyp/qpGzKySRJSmM4kldegLhrsrsq//5UaL7pxfiRoGr65yoq1sFnSbcyemnL0SVss088YO40EuYF1tBCzGSQdg5TfLxaK7+gfW0T4DDey7gNAsRbA5kldVf1i8dETXehjAcjdAGIPcA7EDcreB3OTCtNpsav77fG9/m5sbfuycZMCnZlZlNKjhblJIh2dBNeV59+vw5zUg1cBmUmgPnYdz2HEp6BaboQElHN8l/4tWSX2ljioDH158eMPXgX69rvtW0mS9AYY3/S3pqQor31LKUouw0GWxPZmhZ9lSC8Kev+9jaQ2v06R5Nt/BKN//tEjkqkU1ahDe/HFj7JigqA8FPTWm+sp7aaRtr72xm5sbOPb7zRi+SP5B4bzIE4Q8pANWr/ekISCTmEgRRsMP2RZRPcRC2RIIkCSUkMfgajJjmkMQQYkbGm/yGQpkgxYc0zGjBqRR8W5emdvZuqb7UrS4yhp41+//3y8sbEyPRfOLWblkU04ldkXP7m7iaUbSQhF+unur3BajkaTRsvscOLAHQG2I9RaLqVuyaJISQPUiwxQa57keesEsq6XEwSn0Ugi6QCZ472g+p3IbcQKP/VTKrTmSUgSQdJW4C6ys6L2/oX4JEUJbIyURCPtxEklCnxgIbX7W3uBrui8xihJyiZpzoMT0It2HvnyQJGXwkMmlepwF/F86R26LTCp7JBR0k4mSVMGDLKdQG+ypoKTVr0HHhIpa8seNW6QYCqj2YoGzUhKxQUTJMrjosxqEPtJ0cz2yHs4mPLlIeOkAdImSTJ4GO7NapAWEKe/4jONeZJESjQ/oxcYtKI8rsaBmySRKojG1rAdDV5EHj7tpmzSITR7oEUcrXbodMKR6hatCVKSgrQHmh7K1Wf7WhIk1bE246Q8nYrgWPpy3tb5bmTnj2QW5XJzcouqyesBz41v7A5B3o1EquJ0DlRuerFKRMxx575BYHLxp24jiKQ5r1RLO1/TtKV5zRKEssffxcQd3Zt2DUWg5IrKooy2sxdyz7ZlFFVWJEMUBhrr7Wzqmm7jFEO/QSIySC3NyszMkqohGSKivYpxsjH93YDvaiugX2ohkUiEIOgPY1Bg68o3+yHDz98SMiNLf7+hfFdxdA3imcLwglwdh/iVxyUsyM4Yxi4ozOUZPhi5uHrFuRtS3OO8XF2e7dOTBT96/jrbGFo22MXYrpsfzbf4H3L0sY/19owMDwwMj/T0jrX3MeWa/wAbdXzmuG2vZwAAAABJRU5ErkJggg=='
p52
sb.