ccopy_reg
_reconstructor
p0
(cemoji
Emoji
p1
c__builtin__
object
p2
Ntp3
Rp4
(dp5
S'emojipedia_url'
p6
Vhttp://emojipedia.org/customs/
p7
sS'index'
p8
V529
p9
sS'code'
p10
VU+1F6C3
p11
sS'apple'
p12
S'data:image/png;base64,iVBORw0KGgoAAAANSUhEUgAAAEAAAABACAMAAACdt4HsAAAC+lBMVEUAAAAAOpYANZYAAAAAQIMDLqgDK6QAAAAAAAAAPpcAAwsALpYAAAAAXqoBObgAT6QAQ4kCJ34BIWEENr8BJG8AQ5kABRQDG04DLqUAQ3wAP38AQnoAQIoBK4gACxwCIWkEKZcCKZUCKZEAAAAASooAQ5AAQYwATYgATYYAP4UAPH0ASJQAQYABWuQCWOQCWeQDV+QEVeMFVOMEVuQAYeUGUuMAZOYGTuAGQtIAXOQAcecAYOUAZ+YAXeUAXuUAYuUAaecBZecAYuYAbOcAVuQAU+MAAHgAT+MAVsYAScQFSNcAUsYAXtgATsUAZuIAbuMAaNkAAJECQcMEUt4ASuIAauIOWOQAZNgAWtcAYeEAW+ACUNcAR+EDStEAQeEGTN4EPcoAJtwAEtgAYNgAVtcCV98AINoFP88EVeIRZ+cAHNoUgOoPXOR3qfENdOgAMt280/gxMbve3vMVFb3Dw+lXV76BgcwjI8Dq6vgKCs0AAKIAX+AAWsZCeOkAAImev/UYcegxfeqEsPJjnO9CQrirq9xISMoPVONXlu4PXuYJbuclcuhLkO0zM8dRk+2ZmdlsbMtCQsFAjewAZ8MMfOkEeukwkuwAcdlZqvBxtfFdq/B2t+8YhetUp/AAV65Cne7O5PkAbtEAY7kAVagAbc3V6PlLou9kr/CSxvVgrPAAdORjrvAAdNs7me4mjegmiuyHwPQ4l+40lO0+mu6+2/kgiOschuohiuwtj+wAALzi7/1OpO8AdOihzfXB3fdrsvFIoe8AbtopjuwAAMZPpe8AK9w5l+1aqvAAXsg4mulKousAXbtRpvBirvAAa80AYMMAbdQAV7QVhuATg97x9f2+3fc3l+Req+87mOItkekATJuUxu+32fggiNoAcc4sj9sLeM0AbskSfM4AYsgAauYAbucAdtxAnewAW8dHnu8AALbc6fsAAdOozfbp8v3////I4foAAKwAAJn29/0AbecBOt/U1PL5+v5WqPCZtfNFoO8AY+IVftD8/f9b0kMsAAAALXRSTlMA0tIF0NLSJh3SIdMOBv7+0J9d/YDSKkribpNF38Atar7GyRVPvdYrJMbB97d+GNMpAAAFfUlEQVR4XtzRNZPbQACG4RRurrhRmhSG8hD+7YrZyMzMDMfMzBDmzMSXyJKc2Ird5im/kd5ZaV/8V8a1mgWV6uU/qFQLGu14v9fVqnnIyA7BCM2r1H8lZuZ2WQMAJ8en3xWdHp8AYGB352Z6A1qd0QAOj6h0hjcr4jNp6ugQGIw6rTwwrWOB6WDv8dOjmX+tiDd3Hto7MAFWNy37/lkW6LfN6/s+Imt1KrJmCd/+unlbD9hZ6T+oIaDfvOMpkrS3nVZFzradJCn+blMPILV4gKmmaW0jtFVtO4fSrm6FNtZMzanuESYggBEZErcPDSczBAagCSGgWVlcfaAYcgQM9bC6uKIRApPN5bqNwasjwBlbfbk5KQReLWENovV5JC2igS296gbOXA17qdVfKfgt/kYUhzlhtjdcZ1Lg8gpPlgawUD+eJAj3e03iV5fyQJ2xDGaTBfw5YWTq8oALTeYUpKWAuCVRlzywY/k6IstObyDHDeSny8X47S/xe9otrLnegIcLDuIOwF+euj6+R4WZ88gCtU7APVjWJ97DOzogjJ1ATQpgnqBfSaIbSIhT0IPJAvlIJaBEvIa0OFUieTEwVsvDqKKKcIRERdrgfG1MCjgiaEwJl3kOhDhxQCOO3gASjRX6C8MX50ihcEMQN50hAtPRzhiLIvLAdd6RQmhvwdsHfX7/9tltvFgsIxfl4odUuOClkZQjf90TSKVgOhyNhv9A/6yUXHqbxsIw3FIRh6SK1IuSbnqhWSdpwLg4duzGiQlNIYUkbYGkuUEutNMbw63lVlpgZsp1RoVVF7OeDTukGXUzqvIP+hMSacSEsaBNIxZInC+xHaeZqsmzODo6/t7nO/5sZ/zWjiDyKZt5svfSNL2xjsoVgub7ILDZbJubTorMvt34IDO9G1soSvnf39N37gp7gSwqBcH9Zklw9sKoDaDDWw8fLoU2ZcO0bQ5FRP57N724hzYBOgfFoxfO1gjY2G3UborMrq3Nzs6ur6/vFn68IeWLv2XzT2HjctoOEOTYAlw3TDKkyWweMA+E4h9vosSKAKyS+dsCYHbmcrWCHECPQ4GbZXHGZLHy4fhHaPnoFMS+kplbgiQAqgQTY7sgyP5QFhDIQJrcsS1oOT9uhZUKLIhfwzUE+d2xiYpgBAmAsoAnCI6lGNfcFrT897rFAqsdpiEKoBYJRiTBESRwArQooAmOI8P5J0U0+ucm0iTsPKYWbwqywAkgwRFZcNWbHUKUZ8A7aJpgQvmFbQElGYTwisq/FiR4Gmqz3qu1AqI8RAftIFzJ0pV/hjy1wk69keLQoEZw/pyXBkQBS9OcOw9XnsEpHMdZNvNrUSEgaMB77nyNgBUFaAjMA/iALIDzU/A7yrj/T3CZAPCfSgIc9svbwjzBAfYQ/MEy8By4XC1gOeAXEAQoDlh+4eBEPsnhynNWKRi+dA8v4YBXLWSSyWQmTOJ8IRYruEkKL8GyaHkAAgYH7l0arhXgq38Jwp9nFFyc4l1zn79cLLP07EABJXNdqCLO8/HqkxBJAQqBdvjaFUZmnyBschX2CxjgyrVhrUJA2iW4ojK/jU5c1QKXHSCVAh8SVJj5VgkUZ+CkWlCuQgJfvyjo9gUTpoZJBH3doqBNN5mwNExiUtcmCtp1k/60uUHS/klduyjQaH3B9ECDpIM+rUYUGDvhCtaTDWCFC3QaRUGLvt/nQYb6QXmPr1/f0iSiMXRFPf4TDeD3RLsMmiaJVqwdGSKDp+pkMILy7Vhrk4waMxzvSHk8kUhk8BBQiceT6jhuwNRNFVo0mL5T1RFNna6DVLRD1anHNDABpQHr6W3rUx09FFVfW28PJudlgxprCDXkq2nV1B/XwPxqaTEa1XVgNCq7fwdAK/ntVMuq2AAAAABJRU5ErkJggg=='
p13
sS'twit'
p14
S'data:image/png;base64,iVBORw0KGgoAAAANSUhEUgAAAEgAAABICAMAAABiM0N1AAAASFBMVEUAAAAiZpkiZpkiZpkiZpkiZpkiZpnb5u4iZpmMr8ovb59klLf1+Ppxnb3o7/RKgavA1OJ+psM8eKWZuNCmwdbN3ehXi7GzytwNHAHLAAAAB3RSTlMAYL8AIM/vi50ITwAAAX9JREFUeF7t2Elyw0AIBVCNhh402879bxo7lYUprB/RYpGF/wFeqRFIXVTP1A2fSFO3j1Rt2/V8Mn33hLoLn86le0A9O6Rvq5pdUleND9RUB4F4y3sZpydwFFryfmYLFLygO4Cuh6GBMspyFBoyzuQEETsdLQDImg+Ee3u2QosDBIckWCEe30PJDF3fOiMDyHK2ACDLI1EsgCJp6F7UkJOq91DY2etNFjqVj0h4eajrembW4jL/KLdt/XxGiqBEOVNCwDJnlUFBScwxmg7pKOi39anEmZYXKP+mxBlnAFmcDCCTAyCTAyCTAyCTcxzaoLMLoZvR+KUcAAFnCsoBEHA4KOcolOTPIkjHAJGsbxCOBZIOB+FYIOlwEI4FIuFwkI692IP625og/QHWjqGzY2TgGCDWDob2Q0k6GKIMkoSDoYQgEg6GOBGQhIMhXCfjzZ/+Otq0A20CAnVKjO/ZUUK6Tvr1b++6aP239yO3JYvb2sdrEeW2GvNc1j3isT78Bn9QvF3Pl8XDAAAAAElFTkSuQmCC'
p15
sS'gmail'
p16
S''
p17
sS'related_to'
p18
(lp19
V\u2708 Airplane
p20
aV\U0001f6c2 Passport Control
p21
aV\U0001f6c4 Baggage Claim
p22
aV\U0001f6c5 Left Luggage
p23
asS'name'
p24
Vcustoms
p25
sS'known_as'
p26
(lp27
sS'default'
p28
Vemoji
p29
sS'bw'
p30
S'data:image/png;base64,iVBORw0KGgoAAAANSUhEUgAAAJAAAACQCAYAAADnRuK4AAAG4klEQVR42u2dLzR8TRjHBUEQBEEQBEEQBFEQBEEQBFEQBEEQBOcIgiAIgiAIgiAIgiAIgiAIgiAIgiAIgiDc3/l6z56zZ9/dO3/uzL1z734+50za37v27n7emWeeeWZmIAMowABfASBQhRwdHWV7e3uVNARqACcnJ9nAwEAlDYEawtzcHAKBPw8PDwgExVhbW0Mg8Ofj4yMbGRlBIKhPQI1ADeP39zebnp5GIPDn6emJPBAAAgECAQIBAoELt7e32eDgILMwcOft7S0bHx9nGg/ufH9/Z1NTUyQSwY/V1VXWwsCPg4MDVuPBn/v7++zu7u5/bWZmBoHAHwSCQsSuVESghrO0tIRA4M/6+no0eZQyQKCGc3Z2Fk0gyYlADUdlrrGWNR4fHxGoH1heXg4uj94zFRAoMqpQHBoaCiaPCvff398RqJ84Pz8PIo+GQyUoUwKBSkJ76IvIMzY2lpw8CFQyFxcXfyK4yrOwsJC9vr4m+UwIVDJfX1/Z/v6+USQNV4uLi9nl5eXfdqFUQaCKkBTPz8/Z6elptrm5+bc1Wm1nZ+dvg2JKgTICAQIBAgEC9ebz87NrUZXay8sL3zQCdUeBoIK/vGyrXm8COkiq1/8kZTVVP9rO9rQWl7RASo7ZpOmbIFCVZyG2N9Vfm8RRIVtrEXd0dDRbWVmJloT0FkhJMduHrrtA+vJDrmf5NuWFTDmhvN0hyiklI9DExERfCKR8jE/2OHRTffXPz0+hXlLPYXqPUgRSWt3l4esqkL7s+fn5yuVR76dYM0QveXNzU71A+hD9INDGxkYScY96ljwULCvWsXmv3d3d6gVyLdWso0BaYijrkART6Wpe3KPXXHrJ0MVoCNQjNTE8PFy5PDpvUXvu89Damct7aoZWuUCHh4eNFUjDweTkZOXyqPLQVMLhc5SMnq1ygXTAYxMF0nBQ1bUFne3q6ir3s/oeJaPZMwJFwvW5YjXTCaxFjpJBoEhcX197JQtDn06vHtCUqymyYRGBIgXNPiIoniha69yZ6DMVkhXdrIhAgVEVgU8soeBVVQahdp+q9zNtFtTfK9rjJSGQklFNEchn45/k0ZAXokdoNfVkpqx4iGsUkhDIdQxOVSDXdESr6b8LNaTYLpKGuk4qCYFcHyZFgTRN9sk0a3kjZEyiRVINozHjHgQKjAJV27Wj9qYlg84ZUpEfV9lu5XNixz0IFBDlUHxiCc24uvUURQTSlucy4h4ECohPLKGeolc5ha9ANt9JjGs0EagAPjmb9hlXKIFmZ2eNycJYRwcjkCcqRvfJNJtqkF0FUuxl2qWi4rBYpSQI5IECVZ+yVJvptatApopAVQPELKFFIEckgIYMn0MstcPBhItAOlTBhKSNuVCLQI64FlzZDjOuAtn0ZmVUAyCQA5omu8YS+ve2m/dsBdKQZNrkFzPuQaASg2bVQrtgEkifQTtaq4x7EMgR/SA+K+zb29vOf8skkF6vOu5BIMeg2Wcvl64l8Nl0lyeQzXP7xGgIlFjQrN7KtKDpKpCWIEzvqSl92VuHECgHZYxdf5C8ZQpfgfSeph0VvsMsAkVMFrqusJuWKXwF0sETJnTyahUF+wjUBd9dCsfHx4X/dqdANoF42XFPchsLt7a2khLIZ9VazxCCdoFsdlToiJUqt0xrglG5QCkV1StvE2PrjKtAGhpMQXNVcQ8C9cDnIhP9gCHPYJZANtlr3/QCAkUUyHVHRdEZVy+BbGKpmLcX1k4g12KnGAJpmuwaSxSdcXVDvVnoko/GC5TC8S6un8G03zwWoe8LQ6BA6H6JsmdcPssqse+Or6VArheoxRDINqYIOePyyYy3LlGJ3WxX85MQSHu4qxZIhyvZZF3rcutNUWxneEkIpMyvy7geaxamFfS8ktRUL2nre4Fcp6WxBNLQ1JmF1i5OzRJTvqQNgbL/jtS33TUZeylD9cs6ClfBvU0hPAIlIFCrB1ASzXRqfVMuW0GgwAJ15jvUA3RrSvOr9Xo99YZAJQhkIsY+77JaHlpdVw9cdbOd1CBQYgKltEyBQAiEQAiEQAiEQAiEQA0TKJWCKgSqqUB1+6LbT1FFoAQE0gJsCndwhb74BIFKRHum6vRlKzlX5hnOCGTRC6VwmZtts7lfFIFKRivnqZV5dtvyrKHLpiSkbgJpS3WtBWpffNWdE/qh8pqGvZiloJodqqfR39IxwCpDNZ0m1vkcpmdIqZluQqyNQNAMEAgQCBAIEAgQCACBAIEAgQCBABAIEAgQCBAIAIEAgQCBAIEAEAgQCBAIEAgQCACBAIEAgQCBABAIEAgQCBAIAIEAgQCBAIEAEAgQCBAIEAgQCACBAIEAgQCBABAIEAhqwT/ncmanz1sfcAAAAABJRU5ErkJggg=='
p31
sS'version'
p32
VV6.0\u02e3
p33
sS'uni'
p34
V\U0001f6c3
p35
sS'desc'
p36
V\U0001f6c3 
p37
sS'browser'
p38
V\U0001f6c3
p39
sS'annotations'
p40
(lp41
Vcustoms
p42
aVplace
p43
aVsign
p44
aVsymbol
p45
aVtravel
p46
asS'wind'
p47
S'data:image/png;base64,iVBORw0KGgoAAAANSUhEUgAAAEgAAABICAYAAABV7bNHAAAAAXNSR0IArs4c6QAAAARnQU1BAACxjwv8YQUAAASESURBVHhe7Zs/aBRBFMZzsbFLp4WVVcBCLCLYCaYwYK2mUSE2KiZYiEpyp8hdDiMRJFFJkxO1MmCnYGNAEBvTCYEoxCpYxMLgnzLxe7vfnnt3s/9mbvd2yfxgmHl7y2Tnm5n3ZmY3fRaLxWKxWCwWi8ViseSNEvNcU61WF1ncRNpA+lqpVN46V1KmKAL9LJVKAzSb7OzsiFjfkdaRfiN9Q9rq7+9/NzU1tYqyMUUR6CUEOkMzCWtI9XK5/Nw1k9PPPO88ZZ6UQYyyMZa1KMQIEjCKXiPb71qJWIe/OstyYgojUK1WO4/R0OGHosDU3DKZYkXxQWU0tEozERB1BSPoKM3E5N4HmYjTDXIvEHq/hlEwgfSIlzKlEFEMIs0j++Ja2VKUMO84WxaTIotIbQojkEQiTDMdkT4z16IwApFXzGMBQTfEh9HUolACYY/1QBpNMw4LzLXZw7wQLC8vbw4PD/+ASCfgk/byshLcM4PRc5umNoVZSfuZnp4+tL29fR8ineIlP2sQ5zEjnzGFFMiDQg2jeARpE4KtmmwrLBrkegTpblA9ZO3kH1HYtozg2r4koyyWQKhYjjwPu9Z/8Mfm0xjSFKaO+g/wkhaoY8LzRZyOH1HnAK6v4BJ+ij62jQzzEEdO88aQhtqTSe8GQXHmUL+pOA2/o4Y4T1Cn87x8/ocimvNjCHHWQSeZp448MBomI8dIeBkhEOciTenkedR5nKbHIES7zHIgkQKZPmwS2MumI0cO7S/QdEYksnOu1cEx5oHkZiWNXr6n6GUdKm1vNCZNOjkXArGXL7mWPu1+R/wnskHX0qPnAtFRBvYyGr3EYigKvzOOOuVVkaysJ9yryem5QPA7d5ApexkNe4/sg2sFg/vkGKTiWk3RnWNa/PbLP6qS0lOB0Mty3qx8IYiGbcDZXqEZxSxEaK5p/CHdlJ4JBHFGkF13LSUzcV4fQ8gliNM880G9qpCuTS9HUDXM78ScFmu4r/lSMCKka9ETgdDLixBniGY7LY0OQvwO0jWaHkYhXUXmAjG6KN+XS6OR1V0rkha/g3qNQ7qKTAVidLnpWkpexNn8KvyOF9K7TqYChW0l0GhZx4zTDKNlCvpDehpkJlBYdJGp5d8/BaGagt0M6SoyEUiiCxpxlaaK2ZhfhC20HYB1NaSryGoETTLvoN2fBIH73uC+WzRTCekqUheIDQnaSshq+S7NMNZw3w2WPboe0lVk6qTbQQMnY06tuv++tEK6itQFos+QjylbwOhpxAnpmFYt595phnQVkYf2mCI7LHaARjYPxcOQUIxo8wwNc1bP9Dva3w3qoGoHniPy67NIgdBjn7yGtRNXoDygK1DkFJP1iVREc9dh9OIQo0s2nUbfIYcB31Oiz5njpcR4oyS1EbTbsQJFYAWKYNcIFBBo/jAPxFQg+f+tVECD5I1GN2n5CFTKcP4NmoEYCYQIIJvHjlWyKXEfPglcr42i7gaSfJQ+Gmcl35XvgxCKy8gOupYxf5Fk5+4cp6JueftxWsqabLIjLRaLxWKxWCyx6ev7B1d0IBsDgeSlAAAAAElFTkSuQmCC'
p48
sS'andr'
p49
S'data:image/png;base64,iVBORw0KGgoAAAANSUhEUgAAAEgAAABECAMAAAAV8YMOAAAABGdBTUEAALGPC/xhBQAAAAFzUkdCAK7OHOkAAAMAUExURUxpcXijrQBsonijrQdtowBsogBronijrQBsoluRqX6mrgBsogBsonijrYqwugBsonijrQBooABsogBsonijrQBsonijrXijrXijrQBsogBsonijrQBsogBsonijrXijrQBsonijrXijrQBsogBsonqkrQBrogBsogBsogBsonijrXijrQBsogBsogBsogBsonijrQBsogBsonijrQBsonijrQBsogBsogBooABsogBsogBrogBsogBsogBsogBsogBsogBronijrXijrXijrQBsogBsogBsonijrQBsogBsonijrQBsonijrXijrXijrQBsogBsonijrXijrQBsonijrQBsogBsogBsogBsogBsogBsogBsonijrQBsogBsonijrQBsogBsogBsogBsonijrQBsogBsogBsonijrXijrXijrQBsonmjrXijrQBsonijrXijrXijrQBsogBsonijrQBsonijrXijrXijrXijrQBsogBsonijrQBsogBsogBsonijrQBsopu+xwBsogBsogBsonijrXijrf7//5vG3XijrXijrXijrXijrXijrXijrXijrXijrQBsonijrXijrXijrZTC2Mzi7LzY5+rz9yB/rvb6/A50p+Pv9W+syuTv9cvh7ABsogxxpXijrQBsooa50wBsokSTu0GRugRvpMzi7M/j7QBsos7j7RBxqHijrXijrfX5++nz98zi7dbn8B19rHijrQBsonijrf///wBqoQBroQBrogZvpA1zp/D2+vj7/PL3+ghwpRR4qv7+/xF2qG+sy53H2/r8/ZTC2Pz+/ujy9zGJtAJtom6synuzz4C20eHu9E6ZvyOAr8zi7Ye61JfD2fv8/qfM36DI3K/R4sXe6mKlxrbV5GeoyDyPuEaUvApxpvT5+0CRuuPv9dLl7xp6q/f6/MPd6Vifwh9+rWuqybrX5tXm8AVvpHixzpnE2iSBr16ixMng7M/j7SWBsC6Gs4y91fj7/drq8ieDsHKuzDeLtr7Z59zr8iJ4dWsAAAC4dFJOUwAPGfsC9wu//gEOB/r+AwkIBagSICL2aAZKlPG07SwTfNWuRsMvMfyk8cnO3NPIuOt/XULo4QOCBjko72LNkMbW2R0YtZvmIHq/LQw9Uec93SVqKWyN5IaK3htU4aZZ0NKub2A2oI0R84P53LpdMmnlkNlfse47sqdIJg8qJeqevG92CU5Bc2VTvR9STXS7WWFiqGXAucEaWvvIgfPzqnHlN1Fkl2FlT/L15nR9EJgcdoXWt9aq1DrVorrpAAAFGUlEQVRYw+2Yd1gTdxjHIxkkCgRICDNskKkMmWVP2UVANrKRMkTBVq3Wve3ee+9Bdy/JUShLQECmxb0Vu/deuZnc3e/y9Hye/lXff3hyv+PD+3vf7zsCj3fDbtj/1BblugXlBzqvqXCLFIVeP0ZWUeXnDSEm9i6OtWv3FF0XJtRtqRDSN3FKWmAmd1Zo/jKIaUrLdK4gWyUEtLQSjmG2BHMgkxpuIKk7CwiKEXALUaGYBdTBMd6dDiygVUYco50eBwbFlXDNmx0YlOLJkVOyjSVta7hxGrayRduOG8hNyJZ/y3BuN0v2W2YCBFVJDf2eubmELsmSiFggyMtAQ0nYXreh4N48c9pjLyCoiJ3jYWyqUqn4Ia4bqW7FALPWzspxuk2F2wNOlIOoxQBQcS4bR7KCT4Duo14usgwUItZYJ/oQHP4K6olFDFNLi/NZb3a3ggBle9COcqOZIYpiTXw5wVE9uJDRJ1cyr8bWRjaFEBzT5XQt8QSlKXSQd7UFGGRNhnp9MPNUUM0olZsefxh4M1fyZr5OgHNPukvjlx597JGdzBcd20hQgRkAVEP1CO47e1mtfuKpZxnvWpsSHMU+AOdWfypn8NhFNWLPPB3OerN1cgBnFY3z6TDK+fH7Jwtvp7yZR+ZMVW7D0LwtzZ/+b+cQzCdD38FdJvUUHbSQOePvpXMsgsro/qCcnoluWPtRGKZHktSRDrXRZS0LpE5tuHsEvVfP0Y+70AdCZ52iEn1J0F0ZVAFFdNAaZN/kPIWjVVQp+XqwPQmiyFoQGUav/PEvelHOYZIDQdGpxM3uJDn2qKzDa9ujdqVa2RbGMer+s1EGBxKH4W3XRpd8H0TWojCtjoXx8d6MUoXPTyGc3sNfd+k/9tuM92oXErQW+RwEmkFCbZ/UnPsK4+D+EP6Kd2AByVlPcG7JQgYHoNuLt5UugeCff0D18w3BKSP+ojsmy3vI+nBBZC1jzh9lkREvWfPTKZRz7AJxLwdiV7kjAuGYFZA324AUYQN9uxIveU5bUs6DxxHO3AiqQ2zaVuAuie+nxppvjUqZtoCkFKHpfX7iVy1n4Hg/yYGarYgirEcWOPMkmqxr4/W6fLFdBKbcl9DEf/m5jgPFSpMJ3xYhIHKgJWGyFmQ6rMY39LQ9kcRofh3hXBnT6PkaLarGZ54DMp3MGsluTUj6zV12Ds1LvfZkynQyf2NArR6dhilrm9EOsR6I54jryD5HrzxEIuqckLx1RD3/xzglev67iQRjIF5wJdatNy3Qs4XYj0S5PCExIYMn+GBgbuSCBst8FwzDGo0mvoqQ5Fa8A+StbdJqKfshY6b5VLpU+vgmtUreU1+5dLW/uw/WwH3d/Vdnfh879wrZYZyJWjfbSA5asL3N26/u+Xv22pmTJ4ZOnDxzava3qd75a304Z7WtbozYGwa9Y7ZfzbDZQSJ9Rv8a1HjgXSZodAxLothZ94ViS4hBjunyA+9f7r04Pzx8BGMMDM/3Tv31KlYi7p16a5axQRC/pfPDmbHz06dPH52cHBka+mXi7PSfM/2v1acphSst9Zd3SaOpIVCAh2eKhm4wLHxZll67mSo4x3WGQHU7bUGbu3I3YPXLqmTFKMrlvPRYRudVutcAF8At2119m9oC7BW4pPgKhSIgu63J54UsbTFLStyiYpr9/W7Wmp9/bEdy2Iv6lUg1mwXy1pxDB/fttUasJevgoZyPWuUZ5MoRKpVZIZbaIJKGSv6rfzP8A4u4uwa3Rz98AAAAAElFTkSuQmCC'
p50
sb.