ccopy_reg
_reconstructor
p0
(cemoji
Emoji
p1
c__builtin__
object
p2
Ntp3
Rp4
(dp5
S'emojipedia_url'
p6
Vhttp://emojipedia.org/stopwatch/
p7
sS'index'
p8
V547
p9
sS'code'
p10
VU+23F1
p11
sS'apple'
p12
S''
p13
sS'twit'
p14
g13
sS'gmail'
p15
g13
sS'related_to'
p16
(lp17
sS'name'
p18
Vstopwatch
p19
sS'known_as'
p20
(lp21
sS'default'
p22
Vtext
p23
sS'bw'
p24
S'data:image/png;base64,iVBORw0KGgoAAAANSUhEUgAAAJAAAACQCAYAAADnRuK4AAAMgElEQVR42u2dLZAUOxCAV5xAIBAIBAKBQCBOIBAIxAkEAoFAIBAIBAKBQFCFQCBOIBCIEwgEAoFAIBCIEwjECQQCgUAgEAgEAjGvvqmaqiEvk05mkkyS7a5KPXh77O1mvnT6L51Nt4Xy4sWLbrPZRB2XL1/exqnsNgqQAqQAKUAKkAKkAClACpACpAApQAqQAqQAKUAqCpCKigIUIL9+/eq+ffvWff78ufvw4cM/4+PHj/1rjL9//+pkbSNAPHjgePXqVffgwYPu1q1b3aVLl7ozZ850x44dC7J5Tp482Z07d667du1ad/v27e7p06fd+/fvewgVoIaAQXs8fvy4N3JDIZk7APLOnTu9sf7jx49Vvvu7d+/6oQAFyu/fv3sNc/Pmze7EiRNZgJHGxYsXu0ePHnVfvnzJBg+LhZEaomYAYqLYTnJpmbnj7Nmz3f7+fvfz58+k8Ay/jz+/fftWAbLJnz9/+m2CLaNkaGxjZ2ent52+fv2aDJ4cEFUJELbNwcFBd+rUqerAsQ2M+aUgTcGTGqLqAHr9+nW/DbQAjqmR7t69O8uLk+BJCVE1AB0dHfUud+wHh6GNkXv9+vX+AWLs4pKzNZoDb47X2Xr29va68+fP9w8+9ufh9/vGmnzhGUMU07De1LBd8dBiPCi2PAxtQMC9x2OLIWw/eH7379/vYYxhyPM+ktcWCk8KiIoGiKDfhQsXFm0LaIonT570EeScxv2bN2+6e/fuLbLTeNBooylZopHRdDGCnsUCxJZBtHfO5Ozu7vZaJsYExUhbYHfcuHFjthZle7W5/Xy/OQusaQ3E6sUrmaNtCB4yMbFyVd+/f+8jyrEELUgK5fTp07Oi29iBphDpDgljNG0DsaLYckInF7smxRbFFgSYsd8b2+vhw4fBkXJ+nnybDUwfiFJEposBiNUe6p6jvj99+pTs8wwGKl5XqgUzQBryvYmB2TSRazvjd2DoNxkHwlgOgQfbCBspZVkFLv148lMa4SyCUFsGx8DXJmo6Es2+HmIsX7lyJXmGm/c33WOASh2uwOMKccvZBk3B2B4vxqZzYSHwoAWePXs2qXWwK4gXxdBKGLrm7z9+/HgUcNGcrm2XOaHOaAlEgzmQGp5VAQqBh1gKFYEuN3kwIsl0x7J9zIG9stQL471ZDLzXVCCT/49jsBQim8HdBEBEWH3hYSXZ3NdBcLPHRigPiMmbK7zf1GdBCy0pw8AYH78f7jwR8RBNODXQzmtIdoBCgl+49FIwkCCbza2fq30k15p0xRw5PDy0eluSF4ld5LvF56hAXB0gSkt9o68EFSUhD2U+GGyIOZpi7Hm5Yilz3hsQzM/pGx5Au/i4+mjIXFWPqwDEvu8LT0iiE+N5mMCQTLZpn/jGY/h9c+2+YQGxhYekWjC+fT4fFQKpqh1XBQhD12cC2H58NI/pArO1LLF9+PchWf0lmfznz5/P2m74dz5zSN6tKYBwf33C9levXg2GJ+ZnHM592TQl5RXD64y1PqevTQRszQDk45LihudUvT5bYqln332SzWiqmPXWqwFE/qVE469mgBC0tY8Xm/oUbVKA2BZ84j0pknytA4QB7pOBT72VJQXIxy2e69FsO0AISWjJqGYBxyrdzQoQLquUGMTlLLFRQS0ATX1Wn1RH8QBJezQrhxVUy0MpFSAWIAsxRfBzNYBIfEqrgjxPqVITQL7zvTQRnBUgKV1BIK7kNii1AYS4ksApi+KiA0RyUDLsCMvbJgCjO+fxm9oAInhJXoygprkA+bsUrE2hhaIDJAUNKc8wDedxQpT/xjgr3hJAAzjj0xy2qgDJoMYjix1BjwoQuShJ+3C23RTbAbk13fvSALJVHNicELSQdJDRpv2LAYjDfKFuO0lF8+dYaWvaSCVuYWYx2hBpDtVCLNZiAZIKxQDM5oZywmC8fy8tS20RIKL6pHzGhwts27zPLhAzbRQNICkqypd3aRVew5BGS6WMnNZsRGP3sEhd9eGIlGyNGUKJBhBaw/Whfavv1iqTqMUL84ncU0wvHcgsDiAp9iOtGo0DxRXpoGasbSwKQGw/rrwXX6YmaQEg6USHq21MdoBsnlSOMLoCNH8bo+68GICkeuIcB9wUoP+LqxaL12JUQkQBiNC6y/uq7W6JVgCSsgIxqiGiADSOT6QOXClA/iIFdl++fLk+QASzWrJ/WgJIsk3nnrKNChC5rZrqnbcJILxjV3CXaPbqAFG0nStsrgCFi6sfI0X5qwMkeWBrpyW2HSBXK2Bs19UBojPq1AeE/hqlJYBsWfzxWJo6WgyQq6sq7r0CtK5wIsMF0NLCvcUAuU4ExIp2KkDzhUrGlDnKxQC5TkdSVqAArSvEelwALe2huBggVyG3WXdCwTwPZzxcLd4UIL/POh7c0TEWKSe2tMR1MUAhx5aBRY82xxVJ69vmXAFSgBQgBUgBUoAUoOUAuTLxphFN0GrcJo5R4hHnmgAy59NsoiAZ0bZzeurGqxvv7cYv9YI1kNg4QFKye/VAoiuVUWMxWWsASamMpc0sNJnaOEDFJ1NdfRApZirhoGCo4JkAzHjUWFmJuMo5yCIs9gJL32NVlomroCzGCdXkJa1L3USV+SKVtNLHcnWAKFmttRdi61JFUT3iCibWany2IFUc60FaO1jYikgHC2MceIgCkNSR3qxRUckjrqPNMU5kRAOoteYKLYiUA4t1p1gUgGi/5rL2cSV1G8srUnuXWM02ozWYctlBNXboqF2kBlOxrj6IBhCNMmO0uCvl0rlS4zoxtq8iW9zRoV66VM41AZxgJfHHz0lXYW+zV7W7u9tmk02E67bntPklHTIOubNC1Gb6V8zKQmCyHQr0uX26yDa/iHRO3tZonNVk+8IHBwdKzWiR2RanrdG4VL5RdKNxW0t+n4NstjgSLftrzOSnEFvCmqampgbyuR276KsOEFeB2ZQWApRxaSzvUWNbmNQQjeGwdVmVXPfiL1vx8QCmVgHBSOwgsvdq/9gF+wbbx3Ybs4/2iZE8TQ4Q4ipicl04p+D4iU2LSJ4XWx6QVQGQdBZJyzziz7dke1Z15aWPFir50t3atJEUda7u0l2Xe17Dtd81iXRXKoMsQSrZpPxy0r6cyrDbFsHhkBYpjknKcEhSgLj8zFWtGLMybtvEx+ti4N2mlE3qLyq1WBvyZBr38Rfyhq4TwTmPlm9yfGHpLrGhQk4z8bJgM3KaQppPtq4c85kFIAJgPlsZmeYSu3WUJFK+MdfWlRUghCsPfL44UdZQow+VTiOHNe+aD3G7OTo9JydFLMdnDkmo5pJNzsmTiu/HEIWo32FiiXfw51K743O4YMj5YQCHRIal67zHpTA5k9BZAWL/lkpfx2UHPhBRfGa6siU2OLcB4FvYLiVJxykiPN+cssk9kdg40v3yvhABpO29UgbO5spUqYvLVuH7+WrttSo5N2tMJi6768ySeWHv0dHRpD1BrfX4wfDzpUa3zcAqRWKHh4eT383H2xrSQrmM5iIAQoDCFyJWl6tJAw9hqNijbqZUGQKr2D9oySlbjQXmE+dJVSRWBUChEA0Z/CntMtRWx9A+GLc8lPGY0oJzvFGX8YyhHTIna5f+btZelaEQYfOkjlqv0Y4YW8/V7a1EeIoACKGsw9Xt1VaewANN5a7nBggNhwdVGzzFADTYB0SiQyaRcD1bQmyjORdAaF+fNI/Zlm4tg7logAYXXyrKn/LUYh6dTg0QGhcPSyrFsOULY9liTQI0iG/I3hY3Ivu/dGtLZUSjObgpORScOdH5rQZomGyfepepiCyVeiWUzPLQOZEbuj2bua1Sz8gVC9BgF7Fi5078EKwjmkusKNdDoPpgf39/trYZ23ildzUpGqBB8DjmaiMzYksYAO3EtoSGWlo+wnaHzURgkIqAUG9qagB9DaUtVQA0PCjiJEtWtGulAxaGLekGbDDzKkkG4PE6mgXN5lPjFDpIBJd4DWj1AA3CaQ/pyFCNA4hjRdIVIE8jOyRfVOogCo/nWGslZrUADYKRWaNGIqZDg4RSi9+2BqBxcA7bJSSvlntgv9EcgRY3rRyobAagQXDVMULJ3Esd03IMvEeMf7y+3NWCClAEoRKQMAArPyRhuwQYPCmCf4Dc+tHt5gEyBWOVoCKGK245sRsSmuTTfGNNxHpw+3Hn0S7AQsEbZSbbdtZ/6wDyjYCbtyGXesO0AqSiAKkoQCoqCpCKAqSiAKkoQCoqCpCKAqSiAKkoQCoqCpCKAqSiAKkoQCoqCpCKAqSiAKkoQCoKkIrKfPkPehaOmE/WPxoAAAAASUVORK5CYII='
p25
sS'version'
p26
VV6.0\u02e3
p27
sS'uni'
p28
g13
sS'desc'
p29
g13
sS'browser'
p30
V\u23f1
p31
sS'annotations'
p32
(lp33
Vclock
p34
aVobject
p35
aVstopwatch
p36
aVtime
p37
asS'wind'
p38
g13
sS'andr'
p39
g13
sb.