ccopy_reg
_reconstructor
p0
(cemoji
Emoji
p1
c__builtin__
object
p2
Ntp3
Rp4
(dp5
S'emojipedia_url'
p6
Vhttp://emojipedia.org/timer-clock/
p7
sS'index'
p8
V548
p9
sS'code'
p10
VU+23F2
p11
sS'apple'
p12
S''
p13
sS'twit'
p14
g13
sS'gmail'
p15
g13
sS'related_to'
p16
(lp17
sS'name'
p18
Vtimer clock
p19
sS'known_as'
p20
(lp21
sS'default'
p22
Vtext
p23
sS'bw'
p24
S'data:image/png;base64,iVBORw0KGgoAAAANSUhEUgAAAJAAAACQCAYAAADnRuK4AAANL0lEQVR42u2dL/QOTRTHnyAIgiAIgiAIgiAIgiAIgiAIgiAIgiAIzhEEQRAEQRAE4RcEQRAEQRAEQRAEQRAEQRD2PZ/Hu69958zundm5Mzuzz/2es+c9r9+/Z3e/c+/3/pk7m85gSMDGHoHBCGQwAhmMQAYjkMFgBDIYgQxGIIMRyGAwAgXi69ev3fv377s3b950L1686J4+ffq/i3/ja+/eveu+fPnS/f792x7arhHo27dv3atXr7r79+93ly9f7s6ePdsdOXKk22w2s66DBw92p0+f7i5cuNDdvn27e/78effp06edIteqCcSLfP36dXfjxo3ti963b99sssRckBKCPn78eGutjEAN4fv3792jR4+6ixcvdgcOHChCGOnC0t27d2/rJo1AleLt27fd1atXqyHN2IW7Q0+txc01TSBewpMnT7oTJ05UTZoxN4dV+vnzpxFoCeIQGR09erQ54rgXFvPOnTvNEqk5AhFFrYE4vogO7fbr1y8jUA4QzSBGtV7Y/v37t0Q8d+7cNgTn5e3t7W1zPR8/ftz+veHV54gI1R88eNDdunWrO3/+/NZ9akZ3x44d20aORiBF8HJTxTGEITLj5ZMM1HQZ/C7IRX7p0qVL3eHDh5OJdO3ate7Hjx9GoNTsMBYixS2QjyHqKa0xiAqxbFiUFKFduzWqlkAvX76crXVwdUuQZgyQgBTDHFfHzxCt1Rr2V0kgopI5D5scC65EA0R5d+/e3X4W3AnuScOiop3muGMsMaUYI9AEiEBwOXOIg8jVhJtbwqppASJAzFgiYZE/f/5sBPIBwXjq1KmoB8r3axOnh+s+NQk0jCxjFwykI5VhBHJM+8mTJ6Me4sOHD7PqAteF8qJz5rZixDafDY1oBPqXPDEP78yZM9nNOC7G/buI4Nzu+/r168Haj+979uzZbhOIFxVDHnTDmNXhBSB6tVYmf6dPIpI3os9H43cioukYGANBQEweiVrgThIoRvOQz5kiBhFT3xgGIWstBxCO9/dDQnMszcDCism6c/87RSAeXCh5jh8/vi0tjAHX4v4Mlqg2YMEgjlu2GLNsWCvfvY25s6WE9SIEIuwOeTAI6ylzD4jCXN3Ai6otZ+KzKCwOKdnJYggt1eBqV08gdExo4iw0k+yWO1jZSzzMKVDW4CUPPyfF2xAQcYaIa7RT6TxRUQLhq0PIQ5U7Rsfg4njAPEAyxrWm/XFX3Bv3SGE3BvRXhzw7EqAlSzibkg8vJPOKNZkjgtEArTRl0RIypz861BJRelkVgUJFM5qnhRaGJQGJQixRqRxREQKRIAtpXZAEs+EPsDAh2foSeig7gWhlkMwuN5urprVWhESyyIHcejArgdAyIT09SybCWgWuPmQ3Su5MdVYCkbaXbpDvMcxDH31KWfyc0iAbgYi6pJtjBdmQgjSEJBpv3rzZHoGkPhfINVWiMISDDgXpWecS1FkIhHCWVgWZWUM5V8ZukWYIxCQMqTXTzffgp9c4fCAXYVywIKVFm2NSiDqB6GeRbsTXmoGfRvDl7jRsGSwwSiDU1NzFxoKU+ohydFWqE0jqYyHb7BLEFdwUQ2vq+60hZCcZOyzG+iSAVGvkGWtbeVUChfhiXwXa1/eCMDSMW3WstSsDWJhS3k27V0qVQLih2LB9jHTu/i5+jmy1Rmtpi/Dt0PXtVWMbuKQ/NSWCGoHIOh86dGhWxpldpMOVQ8vDEFSvh/6dWtDaR8e5+PDhw38Ljf+SgPUVnkPeg6Y8UCMQrimF+XyNnmG3Lkb+wmeh+DdC012qoXG/XJApJbkY24tUhEBShRhyhMBNuzMgU4rqSBtg3Vqf9iUh1PVIVQAWqZYbUyOQJN7mZkKlnJLb0okOq237by2aKYcbUyEQQljagpwrKTn1N7FKNQ4kKAGpBVarPqZCIKIBDfflA511KYOaMOX4fIT4LjWsjWnHYURcDYEQdlMvMVXoEpq6OxrmkonPiuDfBcsktRFrJBWTCUTYOPVyySprCDYij5gBDDGWaa3iW8rLaWwDTyaQpH+uXLmi9kAgKyl87SMLyJvwsBlLtyZI7l9DB21yf0iKo9rAJWpaI1cb8JnX4OLQQdIowMUJJLWt5tohiluUtFfqVFdyW603vU1lpdlavTiBcFFTLyL3SkbDaAhsKXMrZX9rhdQdkar/kgk0laeB/SXAy0059yv0wuK1lqSUJnykRsjJBJrKQJdsyYgdk5cSvSHkW2l662cS5cpIJxNoKiLKOVfQhzmDOlPOAGshMSk1maXuG0siEA+wtj1f+PTQ+UOpF20ntVsiLMzUPaTOv04iED05JbvfYiK0kCq+xkXNqWaQ28r5jpIIhHiNebi4mOHgSroOc0ZpzCHMfU4qVe+lwPOEAFxYewSz65KkRc5CW4xA0g4MtwPRV3TNvS+e35+TRAQRS8FHDnccsUSg1PHFRQnkE3QlXAAts7lyRbURCP23WgL5yh6ldBIuU+oVnhuN1UQg9/OsikC+7y8ptEkCaueKctT6doZAsSIawQyphlfpEgHCM+UQO7detuR27OE0/f5ygxL6o3OmWlYZxpeK0FoYECF5iUXDeCmRmHMujdbDnXu+KTsbWhgIStNYThe8qlLG3EUwJ3Pdylg+qbk+dZprMoGm5vS1tL895mToml2zC2mTYWq/VjKBpgQpAwBaAoJ46nBcCLb08UqxkCbFpW4RTyaQVHOq9eilKdCFyMrFgrIpgNCfMz5aHIA11a+lsUM1mUCSj11bo3prmHLLKRs+1QgkVXsJlw3LWdLcZ2okE4j+m6lITHMShEHXOxA4LE4gMHXuKSa0RR20Bkj90BryQoVA0mEq7rQxQxlMLWy8hsaOXBUCSZsLU5uWDPr6R6uLQIVAhLdTOkhrf7whHNJuDK3gRm3AlLQbotWNea1COslHa1ipGoFg9NQHRieFwCzVOEKLt1JqhQKyFtQIJPlcPrQk2uiZDjkKe1dBSoSsuFS/kqKv0MVclEAhbmysdQBzOtzDXXsbyBKANG5+zVdaoaFM6v/mMJwqCSTtgvSN+vWd5owgN830f/hqWr6FJk1L0Q5oVAmE66ECH9tHw2ryje41/AEdACEnEfL/UkuKdmlJ/bAVKanICnAz0+inodmFPHYY3V/0k9mG5PARQer94Rlr7+dXJ1DIUZe+qa3cPORi3o9FYuNRGAvUtwjZcSJpnxyzCrIcOCc1MbE/y909gPuz6CvcIoXIAFdX5jioJguBQqxQ6n4kw1+w81Zqw81VTsp26K40+s6KrHqBy1TRdMziV08gPrAUkXFjuzQ9PgekQ25ybwLY5Ly5kDPN3WEAhnCw50uSCrkz+1kJRDQVshfd2l7jQRY6ZFhEbpmwyX2jw5P2piIEO2Q3TveEzIIs0Ye1KXHDUnq9z6xa+SLMqofspKVsVGLr9abUTYec+8Ws5107CzUWUqa/zziXOgp0U+rGIUbI1mFEX2xkhklnCHgLJzqTBGQ3xJywms2NIVuvS2rKTcmHF5Lw4kJ4x5CoP9YILUWCstbUAIK2z9nEJlKlFtXhNP2SpaBN6YcYEtr3JApZpZhqV6T7KtVLw3cwTKjmk879Gj6z0iNnNks8TKlWFqqJWGm+aETzjDIt+Db5oQulo9BDEoV9x+cSR1QtQqDQSKJ/MGMddOgJVufQApEbqXEIAvfsnivCZx1rW8GSMAk/5BlhcUuJ5ioIFBOZDdthx1Yr4rmvRtc8Ob63QrxwXPmYu+F+pF0Vw52/S5FnUQL1qyzmcBR0xJR1wVJpCMjhBPj+0sjo8tloDJtyNXRshg66IlxfOgG7WXpV8rKkQ9Fcc61xWKyUcig9lQxShbqsWshTBYF6LRPz8Pr5i7kijtIEwrVJnQvuItLcWdE8gXoShfQQuQKbh6+d93C30OQiEH+HKWgx97ykYK6aQD3I0sbObyb/odlLnXuiPvmfqVmMUydK13bkZnUEAmicGJM+JBJbYFLnEfUT9dEYkIkVr+EusTgEAnMGnJP2qDHDXiWBACst1rwPXRsWo4bVCpkh9dzjFRDL1LZq3alSLYH6h08rSMqRBKQJeAElyURxl5lJCP3QkHxsD13tfeNVE2ho+qnSpx6Owu+gyYqXq0koEn/8TlotIKzGAXd8zhaOUmiCQH0SjnYG7dMHIRWWAkuHpUL70DXAyncvhDoTRCif8DO4WO0zyPg8qdPjjUDCao8N91u4cHVEoK1trmyOQD0YojRXZNd0IZKxfq12YjZLoKE+is1i12JxIE7r++KaJ9Aw7OeF5DgXVfMiV4WrakEg7xSBhmIbsUumd+5hctoXwpi8VE0lCCNQhIvj5ZHIS8nJxCYyyRxjada+y2T1BHITfITjNKfRKkobCdZhbmoAAUzbLWKevA2FXazMLs032ikCTQExS4oAgtEq4Z4uzbW3t7f9OnrLZhkZgQxGIIMRyGAEMhiBDAYjkMEIZDACGYxABoMRyGAEMhiBDEYgg8EIZDACGYxABiOQwWAEMhiBDEYgQ/v4B/DK/tk01owSAAAAAElFTkSuQmCC'
p25
sS'version'
p26
VV6.0\u02e3
p27
sS'uni'
p28
g13
sS'desc'
p29
g13
sS'browser'
p30
V\u23f2
p31
sS'annotations'
p32
(lp33
Vclock
p34
aVobject
p35
aVtime
p36
aVtimer
p37
asS'wind'
p38
g13
sS'andr'
p39
g13
sb.