ccopy_reg
_reconstructor
p0
(cemoji
Emoji
p1
c__builtin__
object
p2
Ntp3
Rp4
(dp5
S'emojipedia_url'
p6
Vhttp://emojipedia.org/crying-face/
p7
sS'index'
p8
V56
p9
sS'code'
p10
VU+1F622
p11
sS'apple'
p12
S'data:image/png;base64,iVBORw0KGgoAAAANSUhEUgAAAEAAAABACAMAAACdt4HsAAAC/VBMVEUAAAAAAAAAAAADAQAIAgAAAAADAQAzFgAAAAAAAADrdhIAAAAAAAAZCwAAAAAAAADgexPmdBLofxMAAAADAgAAAADmcRHxfxQAAADtdxM1HAPviRXkfxTqexPYbxIFAQDveBO+XxDjcBKiVw3fbRPPchIbYqawYA/EaxEYDgJhNggAAAB+RAvZbRDqchKtXg+rWA+xXg/LZw9wPQrrdBEuQ1x5SRkGEiHAbRK5ZxCZVQ7/2Cn/3Sr/1yr/0in/1Cr/zyn/3y3/0Sn/yyj/4Cz/yCn/2ir/xi3+vibC6f7/2yz/wyf/zSj/zCv/4yz/5y39uyT9tiP8sSH/0Cz/xifL6/6Azvb+8TC65v6s4f6g3PxVuOpmv+0AbtH66DQDitroyiqI0vkKg8/Z8P6WdBMFbMQzsOoQb7ggkdOP0/eCimWohhdlgnlDcotIrOEUm+Pq9//YuzxQZ3CZjEygnFgvn9z3zCvz2Cnq3Cvw4DbHvEazqj/RfxUabKg2a5tux/IATrwIO5bGph7WkxtMTVXTjBnz0S//1Sn/00H6qSH/yz34nx38sCiBTgj7rCPyghb/wjP/012IYCD6ph/1jhlxRAb3lxv0hxf/yzuJVAz/yTz9tS7/1mv/01f/yTpqQAeeYxH2kRl3Rwf4nB3+uS30ixj/3JP/zUj5ox3/0D6UXA/2lBr3mhz3wlCQZBX+6oz/2XL/uzH/yDj/xED/56/+zXD/44T92ofxyTzdtlWoaxP/6rbInjLTwYS7mCn/0VP/8dT/8M//23r/4Zv/7cNhNwP/7L11TA62iyWzl0f/2WP/xTf/7smZbxj/zDf/1WT/24b/1G/+yWHRpTX/3IKwjDf85mx8TgyVdDJ8UhDqujX0zV/kwWn/7ICFXRNTLAD/5KKlgDnv4ZD/8aSkdxr/2zVvUSXZsif/34rbxy67pE/9ukHnxnf/1n/10EX/2T7w20/53jt4WRXs003/yzH/5Jn/xzL/4JL+04b/6LD/5qn/5KH/89nUtGr/zzIVJmLHAAAAO3RSTlMACSE2Dj1RAQMHwB4aCkcSzqfcF2QqYvUlylb41tGNLtUPNncduv6Rn0JwMWFXd4ExgUBLhbmme93YshdUDpAAAAgTSURBVHhe7JHVbxtLFIdvJUu73tSq3Eq2/ODItvIaq6r6Ry6CmZmZ2WFmpjIz9zLpnl1v0iTXTnPf7ydLPjsz55vfzPwwmP9BRkaNSkyj02kwpXF0BPmP3YbbGjXnsFpDgNXq4NSa24bLO/QqjHOE7FmKSopQVNYecnCYSn+57CodZ81SScKT2679CtS2cx4iSWWtnE51iRQGjAtFksTb2sz81J8SU/MztbdEMhLiMMP3tjeqY5Ekm4vPTk5OnWJycjaeY5ORmNqIXNSuV3IZ2D2+OrV6HhiKQ4oMp9Qjg18Oc2QtdK2zOtuX1U6NtmQd2AgyqF8TixCexuz8QGYbHiIS0/Q3IHosRhGl+HznAubjJYKKYf1OgaBKR4QtxTvV6m8DqVY78RIbcShR5N/9Ri7Cet5Xf/8O1fceNsIZzxsQ1KC2E/T2oz+ARwMRZ7dpwq42nDUgqAKzWuhKfAb46QKE+XiFtlgxxRkDiqocFB3d+kUCBMdln6GtKE05VCh6OoBelyE8lc1XIoXGu7/evToHDDUKvXKz4iEyOv2pCKhcCFAybe4C9d035sDDF43dMzRePAyY38AksGkqCRHk6LcAMk2GiPLeaaB+zxyw2Q7H6tNnqI8d2mwB8z1x2MtHiYxGhiInAW5xEKCyVSwWp1sLNsY89rRePEf96ZiZsS20pqHeqkAE7tZJBFQxbLV4+ITX6y22FsLM4ycFbx8KTx4z4YVWEcoE77FYhxWSAJHLtHa2xCc2NpbvPggzS4WiaWN5eeMM8G0qFpaY8IO7MJPgS6xdK5Mj0gluqimaX0mYTMt7Nmbp/jIUuZbJ5PP5JgD4M5laOWH0/hJj24MiscLTlPqmdAZUMRqDE5TJCV/uKLy3L3R1A3P5ZsopkWrm5wJdwbW/Fz7K+SbIMpwhNqqQBLLhELyB35nw7cwd7idIMnXHFmYCz74JngWYsO1OiiQT+4dzO76E0w/vEBqW9QRymTLDllbcThLvfvmK+51OfDGcDroOoAMQfAeuYDq8iDudfvzrly5OOt0rJTajlMl7d3gNs9MgIEn3h0+4W+hYcwXbwYOdY8HOAXy61gSfG//0AZaAgLZj1+SIKLihzQoCN+lOpdxiRz7dbgcZ2EoE7zLBdjudFwSwhnQDIMhqb/QEV65eFwWAX0A4syBwvZQuIfXSJQiEOxEXHAuuX70iCFBJUC77/WUAFPi4CwT5plOimQeBaxwHe1miJ1CgYoIhbZaN8mVQiKyvrzfzcInjH9clPo7DJeabUIm9K/Djo2xWOwQJRAFmB8HPPX4UeP56Lb34+e8TPi+m114/F6ekZSCwY5JAPqTMEP9UXia9aaNhHE9sTLAgmImDhAIqhwiySlVVtbMF2wTM4BiDTdjCkpAA2fet+zYbQtVwySLllDBRJZTwCebQ22hmvsIcekonaj/FPC+biKZpNL8bkv+/d3ne1zxWxO/qSJL019b7yUeT7HgTFn6+lxCNp7xK4fwLbe0sk9pbpT3Fi8I8z0P+71evNlgHy7A1GIbhRh0MB0iSCx6pCfZKt7Rk7SDpet+UFa+I4rzL5eMWX75cZph83lEjn8+DZHQUGXwuMIBC9AbLb3p1NYGGvmt+HfSKKI3yu/ZUyp6G+Lc1Wh2+ugEEr8136fpdoKyWSlEWeQnlfdx26kUktQjxVhx5Ns9wSIDgRblYsVipmqCj09hfKihIgPK7z9fW13fsP3taqBquCJRCqd/YWe83NNgw2gRe4hAfU8n19Uhq2+MZaQKKmsFXM4TQFgxjzVcajRsqQTmE4qPMylQskxHWnqN8qwIMUA7AJ0khOVgx4HRD0KGy3oFCii7Is49zs5lwOJNIfRxxu/0BwF9XgIGtFkPiRSjiHasKVtBYw0DXadDr4sYZdnlqISMImfjUijvgv1zKZt+mQdFYBhyLURB4g6ddA7CCBh0Ufnt/TwlJ4+xGbjYsAOHZ3ON09hj+Io4Plh4E3MiAlgGKcQkmsH8bp1qaBNI0ALvg5TmYQDIcE4RY+MXUyh8HR2fA0fG7dMCNFCNjHjBwvLd4aBgwka3dAY0Pm8uKKG3MrUWEGCBMr+X+OTtBwNvs3QMwOJ1OZGBgAmXzME5f6RBIjOgr7cmh7ZlZEAgCCGZnfjw7ubi4+O3k7Ogg6/e7kQIEHNrBPgJrnQAqhFFvOy/IizOJyIQAxCKJqc0PDyej0cmHl0u//P59AOIgYMdDcuHcpjdCCa6g0eE9hsMiCKbjaAbx6eT8cjSAiEajH7JLARSHPC/DBvTgOijBVdq1RI+lsoUEE7HYRHw6MbPo9ldx+2EeKO9huRDkLT2Etr3tP6hMRI/hz7nVSHwCiEdWc0/cDZz14V1wB2B8wqRq+wQUGGyb88kFMMQXkvMraWczPgajMz50BUo2yFOf7lTBoL5v30lGFhYiyZ25J2lngzGHA+KiUjw196khf02vqwFD9z37/GoisTr/bOty1zNWxQOHxxUS5WD53DCox02U5tpuW4Xpu7+8Z5+be7b59vKS98HlZOA1hNJKsXzY1afW4xgU8HpUWr26u/v+10+f/vRDQZFlLyDLSrBQruwbIE5Ydaq2z0LqCDB0D37zlRk+msp7QBk+mcyW/kGID2EU2XYDGpVxQA0O9WBvv81g6eqyGGz9vYNqFDfR1ZbiZgWNWXFCr1c30esJ3IrRqhvjzbaN0pmMQzhOVMHxIaNJR7WMfjMdZCdF67QYZjJhmFZHU53QCvxfNBqyvRNoJzWfGftfPC9UxCSlzq0AAAAASUVORK5CYII='
p13
sS'twit'
p14
S'data:image/png;base64,iVBORw0KGgoAAAANSUhEUgAAAEgAAABICAMAAABiM0N1AAAA21BMVEUAAABdrez/zE3/zE1drexdreyuvZ1drexdrexdrexdreyXuLOuvZ3/zE1dreyPt7tdrexdrexdrez/zE3/zE3/zE3/zE3/zE3BwIr/zE1drez/zE3/zE3/zE1drez/zE2aubBxsdjErVxvVBRfk7FieXZkXztlTA9ep910l52SlnHryGGku6bMwn//zE1drexmRQBwTQWziSd5Vgr1xEi8kSvsu0PZqjrisz+feB31yleWbxi4vpPGmTCMZxNnr+LPojWGtcSDXg7hxmuuvZ3XxHWQt7rCwIl7s84d3RgDAAAAIHRSTlMAEFCAv88AMI9g798gr9/PIABAABCPIGDPz5/vML9w3wLsm3IAAAMLSURBVHhetNXZrqQgEAbgE7juq8E2RMl5gwLcel3ONsv7P9EkTFnxgNplyPy3P/kUugtfVqKENBow2kihfiznZamoCw1JdFFvhEpSEqvkQ0pWsJJKKh5UvsKTvJYMaG+AEbN/BokKWKnEOlQAO8UKpHawITu1BCkNm6JVCpGzXUqhHWzOLoKScz4299b5WwzcvGvvzTE68QgSVHZN60J8DHkX0jYdFSKG9hUxuHwOooaoah9BBotDOzLzWxvTHrAw36ESnQaRS3+A2Rz6C1INFuUUUjinJ3zxAVYy4OZPOMFqAsmpc+ngSbrLVJITqCKHTmY9N08SVAjRCfXBOQIrxyD1oSgJ0qHz5LAlHwo9QjUQhA5LIghqhIpx3/7GM+L1BULJ1L+1zrVvCDAa/Q9SieNCUOI0KkAicjocBN8BtxEBkhHUOBoCbiMDZCLoY4Q+gNuYAOkIchTgNjpAy8sHdvMEYjT/B8o9bIJyf36Ccv+QBGWPCEF5Q0uQhuxoHJHsGBza7Ei8RrIj5i82+Hw8PheA8x/7Oy3U/FV7flj7OM9D79ban3Gh6fJPF9v3WefL2vQhdPnX352rDbkGYOjv3jl/74ewZxvyK4Jq+kDGGxuf250c5dThuyab09EnG/O3+7LbSRgKgjBVqgX/eqqAYsBWwb+iqxemxpAQA6a8/xMRZDPZ06EX3PLdkUmms4ecdjYVJd18TcHndylK5hn1bIkAcwH3Gx/wkEGa2iWAao2eNBh9+IwF2PM+9IuW8ieGR8/n6dlIC/igaKH6IRAYcSCO1KMyikAcCYE40mB7PU7F4+Wr0FJaFK++lJl6zIU9lwr5O8jEp6TCrnT0BvAAPDTuUGfrUqNPpQEwNKU9q1mz5kLgdTIjaUprFpxOhJiozxtLS1r8QCjEUo0mwpweGRr2hzCCm8MkztBwhj022vGwg1qjaKe/P3S1RrEQOV010GKj+kgXaBjXHAiwURBW0gcO9H2pfUxG5MQ+cGIfNuLpoorUakNqIioZgTj6TxVGMUnBsLmWzvuJI1bHQBgneC7orgAAAABJRU5ErkJggg=='
p15
sS'gmail'
p16
S'data:image/png;base64,R0lGODlhDwAOALMPAPanlfaRVqpYEPK8j76edWJLL0JyxxsPBP/XoEM0Hvrmm7Hf/4tzVpKInf/MmQAAACH/C05FVFNDQVBFMi4wAwEAAAAh+QQFMgAPACwAAAAADwAOAAAEZvBJmUpJZ+qXiHOIExSZVihKCCKDUHJoQwwIwAyBMBHK4H8OHyCQSaAQhAICqcSRTiBGIjrFuU4AAMHj2GZzh2kWEFJ9XYfBGPj5lm6ALmOuBksOhKV6JgokNAc3DihWL4AVF4YPEQAh+QQFMgAPACwDAAIACwALAAAENPChRymobzzniMYMIQ1h5QwDhzpY6zaFxMRVY4gWthiNgkyVhIFHKLIqKAIj9DlUJohjJQIAIfkEBTIADwAsAgAIAAYABgAABBPwgUdpo+i5tcxtnFFQRoko1UFFADs='
p17
sS'related_to'
p18
(lp19
V\U0001f602 Face With Tears Of Joy
p20
aV\U0001f62d Loudly Crying Face
p21
aV\U0001f62a Sleepy Face
p22
aV\U0001f625 Disappointed But Relieved Face
p23
aV\U0001f630 Face With Open Mouth And Cold Sweat
p24
aV\U0001f613 Face With Cold Sweat
p25
asS'name'
p26
Vcrying face
p27
sS'known_as'
p28
(lp29
V\U0001f622 Crying Emoji
p30
aV\U0001f622 Tear Emoji
p31
aV\U0001f622 Teary Emoji
p32
asS'default'
p33
Vemoji
p34
sS'bw'
p35
S'data:image/png;base64,iVBORw0KGgoAAAANSUhEUgAAAJAAAACQCAYAAADnRuK4AAAOaUlEQVR42u2dL9APXRTHNwiCIAiCIAiCIAiCIAiCIAiCIAiCIAiCGUEQBEEQBEEQBEEQBEEQBEEQBEEQBEEQhH3n85vZmX3vPHvO2ftn7919zpnZmfd9PM/vt3vvd8/5nr+3611cEqTzJXBxALk4gFqRf//+9T9+/Oi/f//+v4ufu+xzAP3586f/9OlT/+zZs/7+/fv9zZs3+wsXLvSnTp3qjx492nddp1783smTJ/vz58/3165d233O06dP+48fP+4+3wG0Ifn9+3f/6tWr/s6dOzuQHDhwwASSlOv06dO77+N7+X4H0MoEDfPgwYOdhlgCMNrFfXA/mEEHUKMCZ2GTMC21ASNd3N+jR4/6X79+OYBa0TaXL1/uDx482DRwwgvNePXq1f7Lly8OoBry/v37ZkxU6nXlypX+8+fPDqClNA7AWTtopoD07ds3B1AJgTNcv34922YdP358B8QbN270T5486V+/fr1zwyG6U/wEj4p/B8Rv3rzZhQJu3769M0W5PDw+A460pphT8wB6/vx5f+TIkaSNOXHiRH/v3r3dxv/8+bNYjAnTigt/9uzZJEABSIDqAEoQ1PnFixejN+HcuXM77YKHVkPQVi9evNiR/Bgw8TdouNaDk00CCE0Ro3WIEj98+LCYlkkJMwDmmDADf/P161cHkFUwNXPfWKK/mLq/f/82r/J5OeY6AocOHdrxNAeQQpTJS819O9++fbvKRCdAAvhznhd+1dqzNgEgVDxE17qQmDc0zhYy5CRi55hreGFLmrY6gIjGzgEPGfStJSl5Hp7Laroxga2kQ6oCCFfV+vZBkN+9e9dvWQgDWMtKMH8tOAvVAAQYIIfWN641z6qU8JxWLkhAtHaWv6uleazgoWBrP1YD8twWk1YbRIsDCM5jMVtk2F++fNnvZ8HDtFQaELmuxYkWBRDeFm+MtiCHDx/e8QGXfpejs7xwcKIaIFoMQLieZ86cMYFnC3UyOYW0jsVThSsu7eIvBiByQhZ7vsaShiUEnmPR3oQDNgcgShS0Bz927Nhm64ZzgsiiiQiybgZAeFwaEcQjazlh2Jo5w8xrDshSVY5FAUSEVXtjeNitBwhLEGstDEKecIlSkKIAouKvJXW7JWHdtLWlnmi1AEKraIGwu3fvOhIShPXTitLQVqsDEJFjrXgKl9P7zdNFS3sQZCy5zkUARFGYxnucNOfzzDQ+hBe8GgCRDNS8rineM3Q+7HWlJFP3mrYxXLFEk4Dd1Gem1GETTZ763KkyFo0PsR+lktHZAaS131AQNSUkECWTFytSAC6WxJNqkQKiJdaP9ZkSrQGhVIAxK4CIUUjEmfiF9CZQEC/Z8liR4iaxCVviLFJcK1YuXboUBSDWVXpO9qVEoLZbUvsAkFjXlIRirKmR7ik2aYuZkj43NrEp5Qspf5Xk8ePH4j0RVmkWQCyoxH1IVWh8g/IFaQFi7DiRcOkzU8i8pG1jgqN4S9Iasj7ayyKZazRj7ox9NgARtJI2iiY7i0chfQadDHOFFmSJXKZkr6VQhaZt9xKqEKTntySaMclLxt6yAIhNkGpWeCussQjpDZQ4wJRAHqVwf4owEEEaljBXNBNkWUN+R0ofsU85Sz6yAAjtIj04C2MVqekuhkhLRepwthSRvMaYjZI8KQrGrAJXkvaD8XtNAUjadDyDOW040qZY1fggHz58KJqHk1x5C2cJY2ASp6Kp0CpwTckjSwmJZAcQvEV6cKLSOTdlDrfQkrmpbi0aRtqoORpOM19zwGh5EXMNnUgGEEMDpBudW56KDZc2BVVu4QJ4bFKIP9dbyHwgiaRbNkrjLTFkX4vJ5UpvJANIMl+xJPXWrVvJNlzzCgF+DtFCDzyLJloqIparSTElkrDVAaTZ2rnmyxq7gRhLMSGixNLbxxudMx5CjCu2pMJSdAeXixEm10oxoRwt4kkAIi6T03yNhQFR0mczBWwvtQ6wtOLz3IVW0kYNHtkU+ZdSF3O9r1AIkubkVdkBhGcgLVpKHYpmGgY1PNYk8A2tdcjKS+ZqYq2nHVCP65QBv6Vi0xKAjQ1jWMxrUQBJxUw5sr+WHnEAQfyEy9LFGWtWU2MvY/JOi5OlWZCXIbUYTOKCOXhQEoCkRSCFkCNEoHUgzJ1kVrLxztI4OWdGYo7OCinICw9KXY9oAEnlDFy52kospsw6Jq500yKcI3WirDXznosHpdZMRwNIItBsVs46XC3IZnmblxrUwIakHr2Qu/hL0uIxCeosAJK6TXFLcwtDJq0jYUIyv/SgBuJUMfc6xHxyF8HnrhrIAiAOW5u6KVzTUiZizqhcOE+tXntMuKWXfawl2cwSHRRStDymaiALgKQIdClPZ3CZibtImzMcq1R7SDffz31I9wpw2MSSE0mkvBjxtioAkjRBrjSB5S0fjq/k4r9bHA2DViG6zroMEXLiM3hIS8z0kUIMqXQjGkCSt5Gz3mRLEvLGHJFgK3/MXWueDKAShepbFjRNGBW2VhakilYisziAtE6HNR+gVkqmSmuXMPdarXUKV4wCkNbS4oOi/i9k06eqA3D3S6+X1qyQ8v1daze0RQkrC0KvKLU22wG0YQlzUSQw4T1hR0fJMSwOoJUK3CIsNhuAEvIStFQpQt0cgJwD2SQsNKOMYyxhK3ipM8GaA5DmxpeeirUGwVMdu+2Q6DCtEs72KZUC0kqEUzRfNIBy94VvTVgDSfsMElYllsjdNRcHQqRSydQyzC1IOKVt6qUK651KrJ3UL88+VgEQbcY1RqqtRcZeFvU4U2Yi7Eid04FqFameKmXuUhKApMECJRZhbTKuVtAy3uNsfYmYkDTNtVo5hzT1Qhpjt19kPChhDoBKDIGSWodSvy8aQFJLc6pa3IKMXXSpeJ0k69iElailkor9U+lGNIBCLyMsklrDGe4lJeQdUyUuYa1ObhKtTT2rVhPNm7PVWBDdrakjhgm2jjULEelwTQgcjuuq2OjcJ1JrmfjU8b9JQQDJlZ8zVKpWoI/4CHXI1Hej5rWWHJ6XlmrME3/H30uadq+yXyo5+fle/fDcR26RqhFTi8mSASSRsxKLkSoE6ciEs4GprTdjrUGClLRFmBKgCcD6PWxmiWHgUvt09c5Uaa4zKruFszC4B95CNIflFOTUC49rPPmMWiCtk4R7K1WEJxX0p7b0JANIGyFHDqYmj0Er5OoUnXvxArFBcBrMHHyH+Bhae+iP5/8hsaUcDq0rNXZsTDYAadNZ2cClhQ1jY2Ib+3JfRKFZhxotRpKFaGI+kMaDSh81FJoqiHvOYQw5Lwh4qXKNKZHSTbky/8kA0gZbL+HOYyrhETm1BtxhuHKaQTYu93yivUQbfpHrpMhkAME1JHJaIjQ/FiKpsR4VfwfwMHkE+vCipjTmcAwT2XN+H7Ic+72Yj9JHfUqpJvYrl8eXZU60NCA79zzCMdexDKDaa/EIMRBJTyWvgA0SjFaJARM96yUINOstccCcucosAJI6H2OPKNCiq3OGLAwcBG2VO9I7CCQZDiYN3JxqLc7trWozG5ubVM+bKC0cm5fLCyH6O4eTsEH0zC/lBaFR+L45QEJb5CLYfL/03U2elYFok9FzFJmxMVZTwaagEWoldQEsazLHtOUYC6jNamzytJ6Bk0gu9NwzM0LRjrgOB1nWmgsUCsR7DldLySECWmnmdNPnhSHahPnY+czacQpjwo6ma/E4cbSRNZUSa840K9D0iYWDSy+pbBYw5oRANBeTLLTUQetDHSDL2tQytFWM2UXjSp7XKs5MRbQzKmJnHxN8m/K8iMmUOta6hIs9NYWfn8dytk2c2mzhQik5Mj47DM8T06k9yi7Gaw1nTKJBYzWElg1Y1bnxFs6SMkSbRR7MAPXDLfKduZyR54kFD6ZLe2FLtll1pT5Y4yxokljNgTlrveLRKjxHrMfIy6PlAFnnkqGMYgCCMGoxENT4mjVIKxos9qippgFkjd3UqBnagpCM1cICuY+1WhxAqE6pJiVnBHY/CXEiDTx4rKXyfosBCLEUli+harcilrM4+PelYmLdEl9iOUsLT6JmDfUaBFBYEsmla40WBxAina0xBpFrojTwlAoYVgcQfEg7B3VQvzm6BbZmtizgIYm8dPVBt+SXEb/RTigeOFGuA9fWLhR/WUpCiLstce5GVQANILIeg4Q63s9xIl4iSwYfT7cGeKoACKEk1VpVSN3w2nJdOcx9OMFVOg265lTcrtYXQwq1o7LHMY39wosIe1hiZy2ApyqAkHFi1HJRMLVlk4bJsnbUArIW5nF3tW8ATqQlXsNBBFtz9dE6Fg+1NmFuEkAIIfe5naVwhCU6PEs/99w+flz1lornulZuZA5xHBeJUxO0lmrEMXBIIs/tISMY29rowK61xbW6rmHwkYLxFs9LDTkfFQpze+1ZD+qGWuR/XYsLbSk+l9p2Cb618qay6fTTE46IGXCFp9oy5+tavTHUvDSezTIyjr9n85Z+c4f5i9TjxL4IQwysdfPc9Y0LQxAs6Q+NK0E+MR9ot9yAwiPiPuE1DFqwxrek+E7q+F0HUGAGIMu5BmMOGgpzh5aCX9DZgNYAYOMRv8NF4BNtRqkEk78oJ2VMXYqG2YvrAPI1Rd67fkWCOreUhazx4syKVtqxNwugQVhogJRTI9W40DgAZ83HpHf9ioVAIkS11iTWFE5GpcEWjgbt+g0IXg/cZK/J8C1pG9IVNBC0koZwAE3wJMCEias9sRVNg4kiOLpEh4QDqIAQhMPLwuMqbeoALNM1aCXOMYPRAdSgDDEbtBRxG/JvgItkLi75VH4KE8S/MV2E30fDkQgFLMRspAmvDiAXFweQiwPIxQHk4gBycXEAuTiAXBxALg4gFweQi4sDyMUB5OIAcnEAubg4gFwcQC4OIBcHkIuLA8jFAeTiAHJxALm4OIBcHEAuDiCXTch/UQp8P92z4SEAAAAASUVORK5CYII='
p36
sS'version'
p37
VV6.0\u02b2
p38
sS'uni'
p39
V\U0001f622
p40
sS'desc'
p41
V\U0001f622 A face with a single tear running from one eye, down the cheek. The Twitter version of this Emoji features a tear on each cheek. Hurt, upset, but not hysterically crying. 
p42
sS'browser'
p43
V\U0001f622
p44
sS'annotations'
p45
(lp46
Vcry
p47
aVface
p48
aVperson
p49
aVsad
p50
aVtear
p51
asS'wind'
p52
S'data:image/png;base64,iVBORw0KGgoAAAANSUhEUgAAAEgAAABICAYAAABV7bNHAAAAAXNSR0IArs4c6QAAAARnQU1BAACxjwv8YQUAAAZmSURBVHhe7Zt/bBRFFMffbFuxBASKFBVCFYFI4M4EteWHv2LAmjT+QEIRY/gDpKEmkJBYaYJRoxAjEEBN1EgrMTFRiE1rIokIikgs9FQIVxACCFb7B9JYLVSocLfjvL133O3d9Xozu3t3kPkkl503l+7effvem5k3c6DRaDQajUaj0Wg0Go3mGoPRNeeY7dOfpyYADx81/D/uJyunZF0gfuSecZwXLAAO04Q5jjE2M/JOMpzzbnE5Lj7mMQb8S+YPtETeyR5ZEyjiIeYCBmw2dUnDAc4I1dpE651seZjnApnt5XXiMbXiQXdQlysIsb4Abr7ltVCeCWQG75shbr8hXQi5AefQaPjbYvnLZTwRyAyWrxGXWiFOSaTHWzjwoFBqmRfe5LpAZntFi7jpk2RmDSuhM2OV4TvQQF2uYNDVFXIlDoLeKka6LeS9ruGaB+VSnEREyL1k+ALryXSEKx5kBisa8kUcCw71PFj+FFmOcOxBOL9B1yYzb8DEzVj4cTb159+pSwlHHoSzYpyLkJlXiAmpn5sFjj+bM4HEB8jWUH6yow86/7xMVmaIz/aMbY2ngHKI4USQMaOVzJTglwqeuAi7D/TAvoMX4OipS/QOQOsnU2DG3UPISs+CF0/B9p1/kQXw0L03wf3ThorrUJg8vhjGjr6B3klGDP+thj8wi0xp1AVKM2o17eqGV9/rtAkSz5QJxdC8eRJMLLuRetLzUXMX1G/6A7r+vkI9dqorR8LqmtvAP2kw9djhwJaqzo+UBIrknsIOMq+CHrP0tTOw96fz1BNj1IgiqJlfClUPDs/Yc+L550IYvhGeuH1nt82b4lldMwbWLB9LVgyRsHeLYX8OmVIoCSQWoG+LJLiCzKvUvnEGPth+jiw7+F/etmECWeqgUJOqDvfrTYebfKk9iYXKVEY01ST9MF1tLHpiFDS+Ph6+/vAu6omB/3X0MKegFyWKgyH7+caJ1rPH3TqIeu2IAaWGmlJIC4ThhUMomTYwdBbPHQWjRxZRjx1M2E45dDz5Hpjr5s0psZ49fGgB9SbAoIJaUsgLxIsepaY0Pb1haqmj7IWRCqY08iHG+XRqXVPgfM0aXCSRF4jBzdTql+JBkdvifAXzAl4RnLM4pXLWMOu6rLoUNtaVWfkHR8hMUPF+6VHMDJb/IP4bA1YJMRTi5zmJtio4ivVeDNsmh5neW2U+JO9BGZL4gd0QB8EknDhzxnufMsvISoNCevBMoGzyfbgcFvZthqbQY9TjHteFQNtCVdDLB8OWK9UDeBI/S42MuS4ECoQj07IOcwxsurLYaqeEGb9RK2MUBGLHqJEXrL38guU9Ub4NTYcG4UluIS8Q4/9SKy84ak6kVowdoZQrIVBZ0UsLxDjsoWZecNK8nVoxjpt3Wok7HmvvTAF5gfyBFjpUkBfEh1c8JxKF4/ALtaRQS9KM7aOWMlg+3bW/B15+t9OqGE6dGwTma7NeaOMLC2WqC9wRLKEmxeAgtaRQrQfViRX9OjKlQFEamrr6LXqlIlpsq64sSar1LOl7E1rD9nVoqdENe4sXkoXzQ95t+AMjyZRCSSDEbK84Lf444xMbKMzKdR39lmGxoBZlT+B82vIqVg2jM3Oc99T9t8rKOwiKs6LoY5hX+JVlI04OOKgLhJuFDJaQ2S8YSs/V/5pUhsUF7PJnR0OFf0jKojuuuY6dvgQHDvdCY/O5JGFxobpy0S1kRWbTXbzEJkwUzs2ZqgcblAWyToqZBYfSbfugONPmH7F5A9aNcSWebiciFak8EEX+butkslIjwuszEV6xeJNELUkLqL77fsRKTXdP6Ko4WJbAejGGh6w4yJwZw+BIs98qn0TLG+iV6fbKMPcwI7yKTCWUPSjKQOUP3ALCSuLTs0v6L4dKguUN3GfD+lK6HRI3DjE4FiiTUMsFeETP8LU5PsCgHGJRMNSEygMm62wSObgQStqWUsGxQAjNrteSmVPcOtURxXGIxYOnu0SorSYz67gtDuKqQAgeXBLx35jtnCTE2S3EWeKmOIjrAiGUuD9NN7q5iZdHgT0RKIrXx4FF3msVX2C9lz9R8FQgJOJNha+IJz0iHubKaXsUBpix1e0jv6nwXKB46GcJs8Q3fEDWq3LxOw0kqwLFQz9u8YlvXirM5C1hBheBsw4hyFnx2pFNUTQajUaj0Wg0Go0zAP4HmgyJDoFHRrUAAAAASUVORK5CYII='
p53
sS'andr'
p54
S'data:image/png;base64,iVBORw0KGgoAAAANSUhEUgAAAEgAAABECAMAAAAV8YMOAAAABGdBTUEAALGPC/xhBQAAAAFzUkdCAK7OHOkAAAMAUExURUxpcfzCG/zCG/zCG/zCG/zCG/zCG/zCG/zCG/zCG/zCG/zCG/zCG/zCG/zCG/zCG/zCG/zCG/zCG/zCG/zCG/zCG/zCG/zCG/zCG/zCG/zCG/zCG/zCG/zCG/zCG/zCG/zCG/zCG/zCG/zCG/zCG/zCG/zCG/zCG/zCG/zCG/zCG/zCG/zCG/zCG/zCG/zCG/zCG/zCG/zCG/zCG/zCG/zCG/zCG/zCG/zCG/zCG/zCG/zCG/zCG/zCG/zCG/zCG/zCG/zCG/zCG/zCG/zCG/zCG/zCG/zCG/zCG/zCG/zCG/zCG/zCG/zCG/zCG/zCG/zCG/zCG/zCG/zCG/zCG/zCG/zCG/zCG/zCG/zCG/zCG/zCG/zCG/zCG/zCG/zCG/zCG/zCG/zCG/zCG/zCG/zCG/zCG/zCG/zCG/zCG/zCG/zCG/zCG/zCG/zCG/zCG/zCG/zCG/zCG/zCG/zCG/zCG/zCG/zCG/3DG/////7DG//EG/3CGy4uLy0uLy0tLywtL/zCGfzBGCorL/vCGzEwL//FG+23HPi/G/a+HPnAG/7EGzc0Lu64HPzEI/C6HKGBJOOwHUE8LUhBLTs3LsGYIWpZKfzGKeu1HfrBG7eQInplKF9RKlpNKzMyL+CuHo1yJsabIOWyHVJILNGjH4ZtJzg1LqeFI/K7HNioHz05LvzFJf7yzvzNQ/zDHv/99v7suP/++v3cfP701ayII7WPIoNrJ/3ORjUzLv/+/fzHLeSxHa2KIygqMPzJNbqTIYhvJmBSKpR3JWRVKui0HUI9LdSmH2ZXKp5+JMmdIFxPKr2VIVNJK8CWIU9GLEM+LdWmH4BpJ/S8HC8vL3FeKdOkH5B1JlhMK0U/Lf7vw/3WZfzDIP7tvf3Xav/56P7wx/3ehf7oq/7z0f3RUv7lnf/67P3VY39pJ82gIP3fh6qHI/7rs2FTKv/23f3ZcP/78K+LInBdKc+iH1dLK6WEJJZ4JbqSIf7fiW1bKcOZIXdjKJp8JcufIOayHXxnJz87LRAE0RUAAAB3dFJOUwAEjAL8ffQB/v358pcFJpws7xEzDsmqF3jPbyFaGMOGwdgr50s/zWJfPE/VijDGCVHjr5oHROlsDN7xdOQToB4Ue4T6FhA5wvY699KBvt2nV/uFqRxjtcBhGjVGciW8JyRNCluRiI6s5i6z7KRn2RWUOHa2SWqwF6S6TAAABK1JREFUWMNjYBi5gJ1S/ULxbirqEqxMxsbyrFIBqgK2ZJioz6fl4y/nx83CWQ4BHJxchnI5Um4upJjCGy9lZMlVjgVwCuoFeVoQa0xhgR9LOW6QbWQgQow5fCk25QQAW5aWPiFjTGQkOcoJAyu7TPzmOKRalRMHFCOS8Jhjb+dcTixgS4nEaU5kGUc58YDFKB6HOUL8LOUkATkBrOYwOjqXl1PDpESzcpJBeCyWAJIrJwME22LkUOtAcgxi0TFBMyhBsZwsICiDZpAUJ3kGlWsroUa9ApnmlHPwoyRxUytyDSq3MkAOap9y8kFcPlKB6EuBQVy5iCKYz48Cg8pFZRFBJEiJQVzJcIM0OCgxqDwMXowXUWROuaAqLNKcKDOonAka3Iw8FBokGUmqQRVVWIU9VCAGMTMRa1D77i6s4mnQQJLA74yZFTVgRvfEaee2VmBT4g6tM0MxZKrb4BoqFl7cc6mqoqaiuv3i5ealLdgMUhaGFrNeUD3VUO1dpydMhJl0adreZUtX9q9oX3hlXt2q01hDiQNaLAlDqumaRVOPgNTVVE092vAVpqhlweW61hunDl9fVVvf87sDu/d1IAnAQQ1szqVfPdOOzawov7T/XF3rBJiLKtoXTGlobmhobq6dvPxSBY7EzQuJNjuwQSuOA9XOPnFo2pT6uh8zEIHU8fPfmUn/b8y5dqG8pqkRq0He4hC/qUPqxj/Xa5sb6uqam1uvzEcKi5rurkVXl6zsraja9f3dvkZsRhnqQgzKNITYPf/a4lXLlp0/+KUdLUwrqqu7K8qbtr/fuXnT9CZMg7ijoa0rMQi/quXvybNnr/bXYA+Kpn1vKys3bliL6SbOAGiSDOVEWF1dVYMjaTb2va4EgjVrMd1UCjVI2AxbxqpuAwJkc5te7gSZtGE6hpskYDW2Gkbanjnj06wvEyYs/3ahtwuWUJuerQcZtP4uhpOcoCWJqzuqeNWKhQc+T9pR39Bc23N+7oGz7VVgo5q2PwUZVPnwNrpBPIwQg1xEUYzpnPpxSkN9bV19Q0N9XV19/bI3W2Z0A33YuOsR2KD7fbgMElZGDpz526Y0AE1pnbR47tzFk1rr6mvr582Z1QlMEuuegA26g9Mga6Tiv+rYqVogmDz7w5KJM2ZMXDJr6Zl59bUNy7YtAqakx/eA5mzchBEz8pAwEkGuIdsONdfWHV2wsqO7ugIIqqtn7n41p7Wutu45sFRbd+vm5jUPMGPNEeIgXeRWevWWntbjJ2dWISeEGScm1+892AlOS6tXl2OmSHOIQZrINWRN/9YtR9CzSMuL2Yf3t+BulEArySiU9FhTXY2ZRSou9eNrdpdADLLVI1zw48h/0J6ANKzFxkVRxcYRxAxrsolRZFBcCLwdEVtMQUNCAbkhaW/MRm6zxp8PpUFqoS5JlqPyYoTQW+3SToqktpI5LJkEsHS+mROsFbhJMIZNlFWAEVcnMlpHlJsYd3GwqfEYiOPtkIqrSohJWuHrdAWyeac7mkYyE9FnD4mSkfcP187wYOFEigFOFi9lbQUxpghPexNSxjREpDM1VTSkWFlTjY2NmVhZYzS0NHWlXZkpGihhZxjJAADDDic2r8DTwwAAAABJRU5ErkJggg=='
p55
sb.