ccopy_reg
_reconstructor
p0
(cemoji
Emoji
p1
c__builtin__
object
p2
Ntp3
Rp4
(dp5
S'emojipedia_url'
p6
Vhttp://emojipedia.org/waxing-crescent-moon-symbol/
p7
sS'index'
p8
V588
p9
sS'code'
p10
VU+1F312
p11
sS'apple'
p12
S'data:image/png;base64,iVBORw0KGgoAAAANSUhEUgAAAEAAAABACAMAAACdt4HsAAAC+lBMVEUAAAAaGg8cHA+bchGZcA8hIRYiIRMsLB1YRRSoexcfIBKccRAwMB+echKddhGxhB4bGxAcHBCZcRObdBAiIBKsghi3mSMkIxgpJxYzMyMrKheXag+jeRjDpiwbGxAaGg1UQxZYSRtuWxykdhV0XRliWSeDZhWEaBGtfhs/NhY1NiVAPR98aRqjjCazjiKtjBq/pStlaXxGSFZSVWVtcYNhZXdvc4VcYHJWWWpZXG1bXnBXWmxiZng/Qk5ISlhUV2hFR1RNUF9PUmJKTVxRVGNqboFJS1pfY3Vman14fI1dYXRobH9aXW5jZ3pscIJ0d4l9gZFMT15ydYdMTlx7f49fY3Z2eotUV2dBRFA+QEtDRVLqy2I8PkkpKiGAg5PoxlZDRD7py1347HUvMC1QU12DhpVGSE1GR0hUV2NhZG/lwlf363vq0WlMTEnoxVvgt0/YrkpjZnRnaW7gvU1AQTVJS1LhvV0zNDBZXGfOsFXPpDjXtFbmwFLkyV7Xxmjs3GHu4nU6O0Lo03LIs141Njbt2XBPUFHQqjdLTVfqyVrjz280Nj6JjJrZtELi2HTs1mcyMieFiZcwMjRXVVJfXFF9emJyaEnClyxtb3FzdXFZWl09P0ZRUlZXU0QzNDnoxmDeuEe7jyV5c1WCc0d+fm/s0WCSjmidjlGlo3Y6PEe5tnz27ITw42rUqUPAuWvLumfYznRwbFVsbWrKoTJ4eXGFhnHfxWriwlPeuVb152/jwmPSyHM7PDWPditfYWZzdGjYwGHly2ngzmppXTd7ajPMpUjSvkGzsHqpmlpNSkDcyWHDvniMfEzo2FKYlmzEpU+wp2mWg0zt43y2rGZHRjeAeVTWrTzs5YfIxH83OUOUjl9nY09nZVqBf2iSknA7Oiy2oldoaWKmommenXJmXUXf2YDRzIONhVisqXmVlXick2Gsj0bGrTKwpGe/qlqllFFBQUNZUC+chT2tjjO7lTummDmJiXHkzVW6nVLdzEjY0oyNjHKupGOCg3REiNFcAAAAMXRSTlMAPyhkKtqY0gzXbG3bmTr9FzmEF2Td2fS2+IhBzvyEL9TAurei02U/8cHtsZHS9JnteCC1QQAACR9JREFUeF7dl1WQXdcRRSPJgrEd2zFIMkPsxOFcpsfMTIPMzMwgZmZmZmZmlpmZGQNV2feVZiRZEOnXPT9vPnr17t19Tp37m19z9Ovx4CN/efq555559q9/+GO/2wX0fKRvxYWjM2e+uvbih68s/vL77/92/x23AXiwb8XRwvEzpk3b9fa63QteX3TqnfOraj/r3+sWAXf+uaJw0IyMnJycGkduadmUqQs2vrHk8PGmY4f+edctAH5394VBgzJywpLg4CXObC7NnTJ1w38/XrLspTWjmn/uf8//A/SpKERxyeHgOJsYVDBOprSUKJsqE7aPallx8tA/bgq47+6KwowaXlQEbYyZIYwWglAoFKWlMuGj42tGtbSs+Ln/Azfx/uGU7IwagSGcCoXTQtOsy25xOhVmc+6UDRs/PvzS++eWp604+fgdN2x/TMqgHIFR2I0EYaddbtpI00YgGC63dMqGfy9Z9sGoF9PytzZ/dgMjnhyTkpXBcxbU9vlcPtbncrE+2uWyKJwMhrHgjY9eev/F5flpIFxXw30PR/MJO6Gw+Nwsa7W6rb4QS7toQhFkcsumbnx32QdRArq4ng93I18QnRbGQrhYFx1IsloD1pCbpmkXfMA0uyWktZzsf735ZQ/hRRG+GyGdppMyPR5PUiDEsqyRgJGQ8IMs4Vx+/vK05kO/vcbAN7MrDULQSTidLh9tZX2epMyxSUmeQMiHWTAKMwcJ8iBezE9bvrX5x8fvuaaByhwHbyMIC82y7kDIbc0cMSIzMynJ6nMZLRZ5lGUYxPF/AZCW1vxj+UO/2P8K2UAHBNCoHwoEfJkjEGOTQlBA03aF6BAv2diSlpbfUtA4+Opz8XBKpYEXbbIDqC+bNxbpI0Z4QgF3iGYJMyc4ctctOCUvU35afmdnY/nfrzq/Fdl+yiHa7JiA2x1KClg90fqZAY/H6rMrbJwoSDVlG97APp/L37p1xejUzYN7Xe2ATs2ZGSdhxA5YA55AJvIzrQHMwuq2B802QeJrdu3+YckqHIjOFc2jFyaPvMKFnm9mDzGoBc6GBkIAWD1wb8RYjxWTDATcdsYmSmoqp2bdxncPb9+3r62lc3RBY/nky/v4SEqlP8xLAqcgXNZAptUKDW5PktuX6Qlgm1wKm8ADsAsmyGeyrXP06ILkzYPv7wb0zc7Se9VqtcMcBMDNuq2eEAbJGj1wwx3yOUVZQTh33e5FZ1ZtH7avoGBhatHmkTHd9y+WyG/SqtW8SNBumqBZrA/WwWUxunwhH9bZLPCU5Mgt273oHQDa2obtLYjfPGdu113dY0f2EJWJ5ziBM/rcOI2ukJs1skY7YXGxrI9laYszKDqEml1vv/7OqqZ9bW1tBfHxeXMmP9q9Rdmkxq922DjO4mMVjMVuZF1Go93uNEKPk7G77M6gTQjXTHtt4qlV29e0dS5cODQ1b8v6rl3qk5IVF+c1hB1B3GJ2JqggLEa70UhjhaGD4DiCcJo5KZwz7bV5n5xfM6pgNABFeeWDu07UwJSsSERLqQWRYYLyDcYwTlxpRhSmWbvFJklmxiwKVMa0tye+cmb1qDaYGAX8vmsIKVlKJekFwRZkGAVns5ltDBpA0HZb0KGmKIfE8wYAXl90ZvWwYduqquJn55W/8NgVAFKj0YUljkGIDk7kzGzIrsBe4naXeMqr1RoMWj8ULPp89Zph27bIgC0vxHQBdsQmqEykScs7RMZsRn2Hw+azw0s7I4oOXqJ0Bp3fq8uAia/8Z3XTsE3btsUPLSq+DOiYHqvRkHqdmpfQhdlp4RxBo4VAFxgtxFOUgdJrqZwooL1p07a9BVAwZ3BXCwN3tMaSGpVeGw6rJWhgRF50KhjY4QwKagRl0GlNKkMU8DkAVfEANMzpNrFPdevLSo3KpNcZKEkQRUHH8xwTZMxBhSghXUdROr3sAsYID5r2Vs3GKucVd4/xzurW4UtjSdKkpyhKrUZRST6acCOI/DAc0Jq0lMGfAQDGuGnv0NTUVLTQvUg9xnQAEIEGOEXxEpwIqwVH0AYHcYjgv5f0av1DALj4yfnVxxpTU+Fhw8juVe6X2NG6NEEZR6rIaBe8IKoNYQMliLjIeAr1ESDM6ALExw9NLioeicPUNYbqWS+/nKCMaNCFXwfXJEqLPK9BkAQJQ/SSKjgEwNqJMgANDE2e3T1FxBPp44YDAIKGVGl1BoM67NebvHodDxik+EEmVUNmTFj74ZEv9hxLjU8tKmqYs/7yhdIzcdy44UsTYpVkHKbpNRgoSk+SpMrPYwI6k0kFASqyC7BJdiC5/IW5Vzy7eldDAghxcZBg0up0OoNfj9XAAsBAMk5lMunJykET5n14pL2pEYDkvOK6mCuvdUiIEpSQgIp+rY6CdV4v8vUmMqLBT03l+Fcvnn2rfU/j0KLZycUlk696tA1IT591SQMM0/v9WtkKMAxe8NCN3lQ5CIDFb9XumZ0MB0pWPn/10y4x/ZIEGKmBYGhA+zpwvF54AOqQ8RPWnvjyi/qqouRkWcAvnny9AViKwCwgAkPTa71anGA9fuhlgGnG+NfmnT3SXp+H/IbywTG/fB8lpmMXujRAssqESUI+WCaS1JDoYBI6aN+yObmhoXzk3GveSX2wzwDExkICZkGiJnLRv0n+T6PJkmcgd5DXUFw8cn30HF3bRFQCNAABFXJhqI+TI6swamF7fX1VVUlJ3UPXe2ShCRBgA3xQRpQoLHPi4iIRZSSSVThhEiysLa7fUl9Sd+91H5tPRicBhGxELCCaSCQuolTGIrIKZ746f/Fbp2vLi+tX1t17g6dmj8T0juFAgAEVlyJWjunZUQE/1daWlCD/hi/ungPSx80CAiJkLxJiExISAEiY/lXhzEnzz356urZk5Y3rR33onVg9K+qEjMAfpCydLue/N//E4p9OHyxZuT7mgZs/9xOrx4HQhUAg/+jM9yadgICDK+vmYn43jx694QT6iDJaW5Gegny5ge8O1k1+6NFb+eQZkJgOGYAMb/0K6dH8bz79bvLc5++61Y+u3olgVHd07JA/3fbvP7Dzm2+/vTem1+189j0Bxpgxb174+uv9Bw7s3LnzMXz23f6HZ5+Bf3rqqaefeVb+8PwVx/8A1PU3jSf8uWEAAAAASUVORK5CYII='
p13
sS'twit'
p14
S'data:image/png;base64,iVBORw0KGgoAAAANSUhEUgAAAEgAAABICAMAAABiM0N1AAAArlBMVEUAAABmdX9mdX9mdX/M1t1mdX/M1t1mdX/M1t3M1t3M1t3M1t1mdX/M1t1mdX/M1t3M1t1mdX9mdX/M1t1mdX/M1t3M1t1mdX9mdX/M1t1mdX/M1t1baHZfbXm4xc1caXeAjZdebHllc35cand5h5HG0di7x89jcn2frLRgbnq/ytGZpq7G0NfCztVjcXyzvsZkc31hb3u5xMtse4VldH5zgYuGk5zL1dyTn6imsrp1cXZMAAAAGnRSTlMAIGCPv9/fv49gIABQn59Q7+9Ar69AgIDPzyJm0o4AAAKjSURBVHjavZiHcuowEEXlUEJs05IAiSTbdNLra/n/H3tGEazMclE0zHA+4Ix315KuJA4QndXOG9Iwfm3WWxdxghEJIO1Yh2X8oJRqtrthoqjWl7t83qk1vVb8Y9HltdzL+EkZrgY/EkUdiZh/qG/asV806kvM58bUG3pE0Q1QkMlyGx8SpexzsKnXxaIRFrzMtJ69rPv0pDYMkahzwKMNa9MftaXtiphnNdElk5V0mWnDTJbccROJyHOvLZkr0hbTpod9JrHTn0xvuQciOVbEcFeU2rq0w2pPaYYvRXSrosjOfeKKJnuabfitiF5cEd1QCQ58/JZHRdxaETWIi6aSQ5/0nOfP1CZBhYEvYtgu/c1LqDhBkw8RzR2Ram9El9LCmo35sKUZBlZE+xgbP+Sfcrj6FkWSoB+bfm3YbiI2opp0ydiPDWsjWkZEexBftJhHV9Rbi1IZDC04WiiCZh+IcmmXoob0Ms0KrYtsKl1eXVEzEZHf81ZoQ/FW/bldYnHm/x7jMaYp6ra6EDWJYXtdBrvdEudeUUGiAorqwt9r7QDH1hTyKBGBRbg0LHrX+j2g2SRaLPN8udiKfumS4PHL0pMbFkDk+yFJtMwNS1Cab4mQKLdsReEcL8KlNWQIsNlNWiKhjCvjr4sayGYAvGjPUDYDwG0kkhJmMw7e2NhW6zmu8VabdIAoePNPQWnBx1HSB80GxyY8IJOaZ/ws66IjO5I+eNblIYJiDQeHHR5rKGhxUPzilQ0o+gFgIJxXZs/CKANm3S+WtG08DhHttnpYCewBIhjYQXGw2fAKYUgDxg8vNaBNIOviaxa+iNIxRVkXX/yQyR6cfNHiqyiZsIjAl2NiBEsj+HX9+AeEEzxphD+yHP/sc8qHKP/T2Kkf64ig58P/PeXdqd0SfKYAAAAASUVORK5CYII='
p15
sS'gmail'
p16
S''
p17
sS'related_to'
p18
(lp19
V\U0001f31d Full Moon With Face
p20
aV\U0001f31a New Moon With Face
p21
aV\U0001f311 New Moon Symbol
p22
aV\U0001f313 First Quarter Moon Symbol
p23
aV\U0001f314 Waxing Gibbous Moon Symbol
p24
aV\U0001f315 Full Moon Symbol
p25
aV\U0001f316 Waning Gibbous Moon Symbol
p26
aV\U0001f317 Last Quarter Moon Symbol
p27
aV\U0001f318 Waning Crescent Moon Symbol
p28
aV\U0001f31c Last Quarter Moon With Face
p29
aV\U0001f31b First Quarter Moon With Face
p30
aV\U0001f319 Crescent Moon
p31
asS'name'
p32
Vwaxing crescent moon symbol
p33
sS'known_as'
p34
(lp35
sS'default'
p36
Vemoji
p37
sS'bw'
p38
S'data:image/png;base64,iVBORw0KGgoAAAANSUhEUgAAAJAAAACQCAYAAADnRuK4AAALCUlEQVR42u2dH7BVXRjGNwRBEARBEARBEARBEATBhQvBhSAIgiAIgmaCIAiCILgQXAiCC0EQBEEQBMGFIAiCIAiCYH/z2zNn5rS+tff6s9dae+29n3fmnear+51z7lnPfv8+77uaViIZIY2+AokAJBGAJAKQRACSSAQgiQAkEYAkApBEIgB5yu/fv9tv3751+vHjx/b9+/f/6IcPH9qvX792/87PSlYIoJ8/f7afPn1q9/f32wcPHrQ7OzvthQsX2jNnzrTHjh1rm6YJ0nPnzrVXr15tb9y40T58+LA9ODjoACYALUD+/PnTWY0nT550QDl9+nQwQGKV9wJYgPTNmzeLtliLAtDR0VH7/Pnzdnd3tz1+/HgxwLiUz3L9+vUOzLhBAagiwWU8fvy4vXjxYjWAcemlS5c6MP348UMAmkpwT8QeMbFLqJ48ebKLk86fP99Zt9u3b3d/8t9jXCOW6ebNm13QLgAVEjKiy5cvT2pBABMgAsSb4JzPhfu8e/duZ2FCX5OY6d27dwJQLiEYrdFNYYVevnzZ/v3795/P++vXr/bVq1ftnTt3up/xfT1+R35XASiRYN55OmuPa0jphyzIly9fuqwM6+VrkT5//iwAjSns8fSWiHFS6r179/5njUwBaMQ+J06ccL7erVu3OmsmAAUIpt/3Sa01y/IpKPKQPHv2rD179uzg6506dapzkwKQQ0hryW7mChzz0Kl6+wgW68WLF04g4dZqS/2rARBfIOnyEsCzUVxUSIpO9Zz6EOAbKinUZI0mBxBPHynxkoBjHrivJdrO4FzxHzFUDS2SSQFE62FOFeQx7izG9ZCFDZUA+O6mbt5OBqDDw8PFuSxXfScmm8Kt0envs0aAkyLmqgBEvDO39DyF4nbG1MP6gmxaIjyQqwAQjc+1AWdbnz59Gv3d0TKBmtL32jyYiwbQ/fv3Vw2ejbUg9hsjVLT7Xp+60iIBRFaxdvBslGawq1rt0xvsiyEfPXq0LAAJPHncDVlaX82oFIgaua3p6kMpqsqAqI+TRPY2awCtPWB2KQXUVPW0PhCNCdonBRATCmtM1UM1tErdJ9+/f+8oJbb3yNn6yAIgvhQfqoK0aa9cuZLse6cqbasV8SDnos0mBxDmdKgZKP2/vn79Otn3D3HN9v3j4nJ08pMCiNR0Db2tHPyhsWn9ttDasI01MVqU8n2SA0hBcx1WCIGUZ4tBOaMqAQTqFTTXEQu5Hui3b9/WBSA6xnJd4zUHid42kABFJBWXKAmAIH4LAOOVin1qoQFry8zGMAOSAkiuK22jlQNPLaTwtqA6BY+oGeu6XERwaZjm6qbbOvhMvox1ZaMAxC+rQ0/PXMwhfXEqJP5JAAQ9c02U1JKai+eMKzPDDc5wjNuMBpC67Pk0ZxfdNgGzt7dXFkA8IbI+eRc25BKsjXl2WKVYqxcFIKXt83VjfQXG2LQ+GEAUu5S2z4OxOBRQ2/hDMdSSYACxQEkHnF+ZvsgpEM1SENyCAAQdoKbllUsvKqbunG8L9R/TCuFZQikfQQBihZsOd35sxT4h2zPfkzPOBqCQVW3S8ZqaemHLyEyPAi02xPJ5A4iFkjrUssoW2txCDch835Bln94AYnWbDrX8Vo+ccRDCgOIYVoA3gOa8cm7OCsc5pwBQk0MdAtxG7qtuhZqaW2ylGV835gUg9b2mU7773GJzY4AqGYBiNq9L0yiTFLmFyrTpxrgGKwmAoG2odTHtAvMSAlDN9/aheTQx5k1adglD7kysr0jsM2rUKP6pX5l7zy3wo2PioEbxT/1aYokmVs7cZ+ATBzkBpCUJ60jlEfMaLZ+G7iCAMJ06wOX3xIborq4rOgcBxAisDrCOG4BKiC2Qdt1d1mhsZ9n7pUOE6nPo2M8ggFjUqAOcXplvLyHwsENZik2oT5QuY3OHb9HY9d6DALp27ZoOcOFjPqaYNFdG16MBpJUtdajrEFMKtR+zEh4NIC1OqKedUUps+4SiASQSWT1aSmxhC936KACpC78+ANmmjoemZAc/mQ5OABKABCABSCoASdcIIM3Brw9Au7u7QYQ21YEEIGcdaIgTNPjJ+q4PkpZV6nGlxCSVjSok2l5MuuxWhmk0GPeJBpBt1ENaXuGllxKTwuwaK2pCR16ly+UD0bIIHWwcBJCub6pDyYxKCIscQum0gwDa39/XAVag1GZKCIOE5nu7rg8fBBCbzXWAy148vi22lXeuC3sHAcRstA5wes11AYspbEQL3U/krFCZDDVpeU15w2DKFN4LQCLWL39bK8La31BCvReAbAuppWU11fWUoUOkSZYraL3dOtoYti0sSda7UFxSV346zXUBnSm2LSxJFkz1tfilyxlr5noDM/5JtuIO0RUH0+nYKyl9hPUxsbUnLwAdHR3pMCdS13aMXCQy3zvsvZlKmlKdRkNvz0nhvkJGqb0BpMZqefWNQ8aIbYVPSOvEG0C4MQ0altWYC+BSZF++7isIQIi2dZTVnNdeIlS4x3KPggBka/dL5xv/2ILn0IWeQQCyrcSX5lH29OQUQhKzQMwWkNC2SfC8iILpMhpyZ1eMUKBMwTsKBhBmVbuj513/YXWvmRBhjWI24kdNrGn5Zl7lAWVfYcnYJ5b1GAUg/KSWT+VTst1ccnh4aN2AFgvY6JlZUkwddh518ZDHjO3YxtVdxPksAGJeWteAp1dikaGVcmPEFnqEXvOdDECI7hKbD32DCRtbJ8GHNJYNQIhtm4M0XnNc7YSFsTXD2X0w9jK70QAi9VNan655muN2QhtdFVc5tDiqGID6OrrScGUSOAdZzOa6UhHVkm0usg2lSaet/WBhSNHN99rZ2Ulm6ZIBiAq1+mTxmvpOMMBoi3sAaso7WJPuTlNWFqe4GJqbKaVvt1PqFkny5Xs0AQWKaRunfWeQ4+rM5ADCt+JjBQz/wqHrXtIUbAn6XzkyvCzrP+mViYRffnUL41e2jIuOQa7mbLb9sWQACqrdpLFUB9sHHpreKS1cMQAhkLNVZMzPee4b/CSFDyHIVwegTQ/GVovQ5tVLSWISYh6b5eE7L7EWpsgKdK6T1oKGf9N2HqyxyUrf7qZS4CkGIIQmoSxRmqIhcVNfE5u4qhR4igIIYdfQ2kFEw3TMwigKjn0ZbmnwFAfQJrA2r5Zei/LwuJZWDsnBwUFvKADTMEV3vXoAbSgga7zIJZa8RbzDurm+0XIsks8yqMUAaOPH1zQqHVswZHfhEHV4b2+vyA7F6gC0EXi6S1/aELMkgQcMcAy9Lil8jvbErAC0ydCWGhfBcQ45ZH4WstdQskGFv9Tu6FkAaBMXuZ64uSlN5ZAJC2Ik16QLxL3cSxdmCaDtsvwSUn1qPb6Wh0Kr63I/vhO+m6ldVvUAQnjC5koJoffnMxhI4MvP+WSjJBspWYSLB9B2bDSnuzqoDrs631gbrm/yaTKTntcS68wSQNtBZc1BNlaEIp/NvWBpoJHi0nx/BygY/M61uatZAmgjBKOkrTXFR8QtJnAo6GE5+ay4npAmMr8bwJmyrrNYAG0fEF9yabIatSoyJKihFAWxKgCFWS6qxJDYY60k/x+zdTlXughAFtfGIZaoZmMZOOTUBU8SBWKiXMsUBCBPoYnItVRzuOeez4i1qamWs3oAmWAiLiHTse3CKa24WgqkfKalgGbRALJVuJkPZ8EALoM4JlfvjYCZsgMxEbHRGOqGAFR5Rsfh0jogIKfZSYuAOg5KWo712lb+DvfDv/OzWDgyLYBCLEb9Z86xjAAkEYAkApBkZfIf6F6MYVXnFikAAAAASUVORK5CYII='
p39
sS'version'
p40
VV6.0\u02e3
p41
sS'uni'
p42
V\U0001f312
p43
sS'desc'
p44
V\U0001f312 
p45
sS'browser'
p46
V\U0001f312
p47
sS'annotations'
p48
(lp49
Vcrescent
p50
aVmoon
p51
aVnature
p52
aVplace
p53
aVspace
p54
aVtime
p55
aVwaxing
p56
aVweather
p57
asS'wind'
p58
S'data:image/png;base64,iVBORw0KGgoAAAANSUhEUgAAAEgAAABICAYAAABV7bNHAAAAAXNSR0IArs4c6QAAAARnQU1BAACxjwv8YQUAAAUbSURBVHhe7ZttaFtVGMdvCn1vEps0W21Xi7PtWFvZRGVFdJZtaMUNX0YrE19gKogiIgp+qPnUFqYIogX9JkxkhQ0Zw23IcB/shm7MjlKwM91YbWdo17w1L21dK43nWf7BpkuTc27uvbnV84PL839Ovv15nif33nOuIpFIJBKJRCKRSCQSidmwIBpGX19f8/Ly8vNM3s+uzexqtFgsdvptNfF43MvCFLtG2DXsdrv7ad1IDDOop6fnEAttzIzHEyvibHIEYo9tGYt4g/bTOzuPvIFlXdHVIFTL+0zuX6tKRGlruKbsbrmiTIdtsUCs7Gxrx4ln8ZMu6GYQq5iPWHiTGVObWNGOzh2XlKbq6duajJrwVX3d9tzAu7cXNEZzg1A1X+bSStmwlc4rr7cPKqVFS1hRlHGfa3TzrpMtSDWjAFETent7X2HmnNHTHCKyUKZ4pu5GluBel695+vye8JmBV3djSRM0M4jMYf86X+jRUuk452lUFhYLkSXYaI/aHqi/cUpLkzQxCPPmsFaDmAeqohtBJ7J/qbLOFWtpUs4GUeWw8EEiM5afx+6DSkVLk3IyiAYy2sqwylmJN+RQZiI2ZKmQSc01U8eQqiYng9hANrSt0jHhv7PNktQ6wpVXf9zrQaoK1QaxudPPzHkIad747c8aqPQ0bPQ1XTh+4HOkwqgyiFqLhZcTWX7J1GZJ6l3+g5DCqDKItdYn+W6tlfijVqj0VNsjFUPfdx1BKoSwQay1Opg5TyM1BVOzmSuIqKkM7YMUQk0FdSKahlFv5jlEqK0iNQY9iWga6KZxdr4M2dpUWaO7ILkRMoi11zusvQx5lBAlNJfdIJc1ugGSG9EKehTRdIQ5Kog9/VtGTu//ASkXQgax6tkGaTrmbhVDZcZasrAVkgvRCtqCaDp4ZhBRUrTkgOSC2yCaP5CmxBepgMqMvXShHJIL0QoyLXRHzQPNIUguRAxqQlz3DB576T3IrIgYxNfk64DyksWHIbPyn2kxvZAGZUHEoHHEdc+D+46+CJkVEYPCiP8ruA0qKCg4C2lKttdPQmXGHy2/BckFt0Hd3d2j8Xh83VfR/GLxLCQXokN6GNF0bLBFoDIT+6voOiQXogZdQDQd5cWLUJkJRK1CW0FCBrE59A2k6aADDdmg+bOz89vPkHIhZBDm0E9ITYWzIga1NjMR62VIbkRbjPgO0TTUVgZTjsKkY2GxMO4N3eVGyo2wQXROkFXRr0hNQWP1DNTaMHOuPnHgsPCtipoKIkw1i1y2KFR6qHrGfc63kAqhyiBUkWlmUZ0jAJWe6zOuITXVQ6itIOKQGW4c6VBnpvlDZxhbnzrO/XpjNaoNYlVEuwOfJrL8UecMQd0JtdY5T8PbSFWRSwWRSb2sio4izQuZ2mtksq6/67WvcpqXORlEMJNeYCadQmoo7Vt/X7O9Rr3Vv2hxNDhngwhm0t58mFRf5YdKhcxp6TjxCNKc0MQgAiYZ1m70emOTI3X+0My5/Ef9gFbmEJoZRKDd3OzS/d9t2z2p73/oOeu8p6lX5G0hD7p8ikBniCjodUQv+b1Gkms3XWONe07qsuur68cs2I39UMsTISs/Q5gMOG5O+Jwfiz6hi6CrQUmYUXTQ/BktKqprx8Wl4sK/g3obk8QQg5Kg9ej4Hn1Mt50ZxnXOkc00+rBuuKYyeOVg+2C/pXWI7wW0Bhhq0GrwfQeZRNvaq3dufezy0mYBvYdKLEkkEolEIpFIjEFR/gGvca46jK8LmwAAAABJRU5ErkJggg=='
p59
sS'andr'
p60
S'data:image/png;base64,iVBORw0KGgoAAAANSUhEUgAAAEgAAABECAMAAAAV8YMOAAAABGdBTUEAALGPC/xhBQAAAAFzUkdCAK7OHOkAAAKIUExURUxpcfzCG/zCG/zCG/zCG3xmJzUzLvzCG/3LGfvBG3RgKPzCG/zCG/zCG+GvHVtOK4txJjg1LvzCG/zCG/zCG2pZKUpCLFlOK/zCG/zCG/zCG/zCG/zCG5V4JfzCG/zCG2dXKfzCG/zCG/zCG/zCG/zCGzUzLvzCG/zCG/zCG/zCG/zCG/zCG/zCG/zCGzY0Ljk2LvzCG0lCLTIxLzk2Ljw5LvzCG/zCG0tDLDo3Lo5zJkdALfzCG1hMK/zCG/zCG/zCG1NJLGJUKvzCGzc1LvzCG4RsJktDLPzCGzw4LkY/LfzCG/zCGzs4Lk9GLK+MIvzCG0E8LV9SKkM+LVlNK/zCGzc1Lm9dKE1ELOSwHjo3LjIxL3JfKDs3LvzCG0M9LVdMK1hNK1NJK0pCLPzCGzk2LktDLDc1LkA7LYZtJ/zCG1BHLPzCG/zCG8igH01FLPzCG/zCG/zCG0U/LY1yJUdBLUM+LT46LjUzLvzCGzk3LvzCG/zCG2taKVBHLFZLKzU0LqCBJDs4LkpCLGVWKfzCG1FHLGBSKrGNI//EG/rBG/3DG+ayHS8vL/zCG/3DGzAwLy4uLy0uLy0tLy4vL/7DG//EG/7EG/zCGywtL1NJLDQzLvnAG+i0HV9SKtGjH0lCLDs4Ljc1Lpt7JPrBG8WbIO64HDExL++5HDAvL1hMK9ioH8qfINOkH+y2HXtlKOezHZ19JL2VIbKNIt6tHpd5JdmpH4VsJ7qTIeCuHuKvHsCXIYduJpN3JUdALV5RKve/Gz46Lv3CG5V4Ja6KI15QKlRKKzIxL3NgKHVhKEA7LWdXKjMyL6iGIzY0LldMK0I9LeWxHVtOKzo3LmFTKo90JsOZIaaEI+IXygEAAACNdFJOUwAIOi3pC/kHAQIbNEbYAzkE8vJz8QqFSrcF05ITBVNoDLH34Pvl/snwfcRBEnks9+YQqP7txPiYjOsJs3RY2wqpTjun+e4Rh5/RqyRq5pQC4sJFuUJO/DV8AuP6GN9tu2hiVX1k8XjzbQ6Fn56LBbmzDMrJCZ7LDdAc3+YEKGMX7gnVplCNfY+w5OD6yTJNZiwAAAKjSURBVFjDrZgFdxNBEMdDCNBSgZaWQr3UcHcKFHd3d3d3a4szm9u7g74UKbW0xd3d3eXrkCNtbzfpJbd58/8Avze2szNjsRjqwL68Q4ePnDh29HhaempmysEka/xui7AS9uzNzdmf8eXbj99/nHY7canFrsy4xB3BQpgVMVt2ZoAmqig/f/397ka5YLFrrHVMY4b2nbQMdFFH+dfPznxSJdug0P6mMOET+3QADymfPpaV2qtRQ4aHBPnnNBzWSwJvKR9KKk5Wk0hqVrwfTPDkCV2gVtG37+/rpLSUEJ+cxvNnVoKR5HOXa7wjJCzRR/7qLYoAH5LfXGJItrkNDDlN64NPyQWFunckMsuAFO2Po3l3iyFFNamVlLDUL8dFeudkvItKCvfmzFiwBEyo/HGpDiLpU7xBjeaY4QB9/jCfIcXW9eTMnieZAoHy+hrjHMnu5FFA02eBSUm3GQ7pPpovp4FjzHJAPn+RyRwJa89VUGfJNAjoozOsTXFsDcREqCBg0h3WJJtV5/QeKWAQgPqStYj0aK6nvqsqAlIunGUTN14vgZ5CBgEtvneKNaldTS8bAWJy3OXC3bptFWjAYFUMJBdwvrVs4+aMGysJWkSLyth3Qlq5W3h0NxBWCRekZu5SmtZRFeU4rj57wYD6jfoPWjhVGKQ8vcIGKTJU4wQtl4Q9o08esMVNFmugtavEQ0SLCrlor9SivXmdOEgtvsGBVmuvJHmTOAhO3+TStl4bLJK3BgJ6xedfA23bHgBIus6BNm7ABKG5hhZstPSjFSTaE0F7tHhtBK2xobVatOYv/h0pBt8R2geJ92WjDRFoYw3eoIU2+uENo2jjMd7AjrdCoC01eGsW3uKHt4riLcd46zreAQHxpIF3ZEE8+yAeogI4jf0Dqm7WRNCLGzIAAAAASUVORK5CYII='
p61
sb.