ccopy_reg
_reconstructor
p0
(cemoji
Emoji
p1
c__builtin__
object
p2
Ntp3
Rp4
(dp5
S'emojipedia_url'
p6
Vhttp://emojipedia.org/first-quarter-moon-symbol/
p7
sS'index'
p8
V589
p9
sS'code'
p10
VU+1F313
p11
sS'apple'
p12
S'data:image/png;base64,iVBORw0KGgoAAAANSUhEUgAAAEAAAABACAMAAACdt4HsAAAC+lBMVEUAAADDeBLDgRbKlSsfICVgRw5sSBklJi3EgxgfHyYlJSrMmzUdHyMlJiwsLTQxND09QEzHkSvBhR7hxlLDgRghIyklJiweHyQdHSMeIiTAfRHSpTzAfRbdvUnCfhMiIyrCgxwqKSkfISbOpjfEjCVkUjGrgCfQpTRjXlGolljPoDPj0WI4OkTPoCxLSU2MbS+GfFa/pEvUrD7Ili7v3HZaXW9PUmFSVWVWWWpLTl1TVmZOUF/pxltdYXM2OENUV2j/+ZDpxlb/+pj/+Yz88HtRVGPszmLnw1n/+ZP05Hzht1T+94j04nXt02Tx3HH24XDv12brzWDpymHmvlby4Xjv2Gvr0Gf37If153nu2XDs1Wz884jv3n5DRlNcX3H+9oJgY3b25XJYW20qKzNzd4gtLzdBRFBKTVv/+qRhZXjlulE1N0D06ITw4YQ9P0o+QEtvcoMxMzzowVJISljx3nF5fIvy33XmxWL58Zvt0WDw22r58JQ7PUj16X6IipPszFv+9ozhvVVrb4H774D77nb++Z3pyVzuyVjkvlv98oFGSFbVq0X48aHds0v38qz56Xf132r99pH47o7995bp0Wv05oH37JQmJy/++qvq1nNkaXv697Tg3rGzs6A4OkUzNT4/QU1sb3tobH9sbWtAQk7z01312WXfslDhuUz58qUvMTrr3onNwXN+gY6Zm5d9gIXcxWODhpHx4orOxoro2oHdzHWOkZnny2urq5Hq4pX02F/56G7hskXyzlrh03pjYl3t6aReYGrux1OAfWtTU1iVl5CpqqiWmZ9bXGNlZ3HFw6t2d3zh15G3soa7vK6hn4je0odGRUdQTkzi4bpzbVigop3x77rIt2bWuFWQkYju7LbCwZSzqmvRz6laWlzh3KLGxZuZk23RzaLs5516dmSXkWjMw4W8t5a6tYzSzJClpqSGeE6Rh2Cijk+LgFe/pFCol1vZ15SKioLT07jDrFpsZE+un2Kcl3WHhn2em3+CgXK1rnhZVlDPz7Wsd/INAAAANHRSTlMADTjLOAMJyEcOlOduRWnpzMST6GrR8idIHR32cMgn5YOtg4yuv7Frr73K+YJnjsbFqcyVELsL9wAACIdJREFUeF7dl2V0VVcexQdSSAgUKN4BCpSpj89zd3e3uLu7u7vg7u7uVnd3l3F3WWv2OS8vgUKQr73fz+/uvf9y7v3ed/l58P7pP3788Z8+8cTPlj8W8f17Bdz3w5kcZtqmF/78yi9/tSdTW/jU4uUT7x4wZfpMVrwwLW31pgPvnfzgT6cqBuTyvobyxT+acFeAydNn8jlMoTA2bXVuEFDaJ9HINHJ93OzHJt8ZcD+Oi+OZ0Tg/ouCLzgGNRq6RyOUxcYsj7vT6yCg+TyyOj4+Gg825h66d/BQAokAij9HHxCgsy2/rY/7MKC5fyRMzmSSC+qLqa+s+/eRiaZNcrtHIcD5Gr49b/NBtsp8RVcDlsjgQIIyFgKLq/UGATNYECxp9TC1EzJ44rn2cT+Gy2Jx4phAJ1CcSwOdrL3YOyJpkGomGuvD7G2ZHjPf+5Kj2FK4SCZASbK5P3Ff91rqP1l7ctXJlKslQL9HX1rYp2sbRMH/GRgLg8zgoYiwE5BYdOk4A73enpqbKZHK5XKLp62trUzSemX2LHKaEZ2+Nam8nDjjRVEBu4ghgzUpIkMkkegio9bcpFA1xP7+5FpGinGQK4HGY0UJSw8SiQ8/8+uVRgEYj0WuC5xt6XL+4KcC89ZXJyJCvHOmiehLBM0+//D8A1hAAJAwM1CLDxoYec3ndt4KcHJ6xPhsCEIGYgy4iDoqCgDegYM3K1NSmJjkcDPgVjY09vRbXkzd29bQ80frs5PYCLp/NgYVgEfcdhwUCWLMmdUCGZqyNqe3zNzY2ehxeX92cGxKckSGqBCCFjwxRxNi02NW5iSOAtwHYtQsTpdfH9JEQGj0Mr8819focp+dlrK9EEQCgXQAC8VANwF/eeL+7e1dnZ2dpRZ/e39emaFCcOdPrNKqulzApfIMIAITIVfKQIYYZKaKMyAAAcr60dHi4319bq1BUecyF5cYyqzRs0lgPJhFANghcNikCGGlp9YmJ1SEAXt/vdrv9pAhxPgZxoLJ1jPXjw7s3wELO1uQCLkvMYUICKSRVQDJ4u7uzoh+ACn9MjDtTy1jltRhdzba6pWMO8gigMie5IAWjiAwwjGSaKWAtADDQ7/ZL/A1tCo+2eNA1aLQ2l6gfCHl4cF7eBlElBfDZYo6YiSII0zaTRnor2EilFRXuPomkP7NB0WhgeFedOOGyCaQLQ7t6QRIAsBAVVYBGFvM4mCXaB9XH9697nnZialPfQGl/pqdK0RhXaPIODtpsAnVHRKiLAEAfbCQAMY/P4jFj6TAfOlS9/+nnP/qkmwBkiCGLEahS9DgYXjhoFpR0LQrNUVJeXoYIrYxRUir5LCVHSIpYVFS0b/86AL7oTgXA784MMAoNngaP12ksaxao1TtnjQCWEcB6NEI7NwVlEKOSZBrrN+ceoIBTw6WpTQMVbo9nyGN2GHpMPpeVAn4wAghP2o0QRKJKVIEAyEYRrl4dHbvpwLWTH3z+4p7DWRXDw8NVHk9VptbhMHhLWlttJWq17oHrARmoJIYBC4UnRjfiiRfiXnjlGwCyGI6sw5naQNXQkLa4mOELAlp1YSFAQlIQsLUdBCWbXCzx0fEc4aYX3sPd+OKprEBWVgCvH9JqHYUm06oTJSW2ZnVr+hhgxAMKiVZSYidxxJAQSy/XIwBkHT4c0LoBcBQWljsHS9AGNnX6zpCFZQkJoRAoACuFrBWmkABeOgILeAIOtxuAYpPFeaLE5oICuy4UYmRCAi2kKBsALnYKRjoeMxH9HAW8enQPEVCVmak1FDoYRIFNhSrYR8s4bQU80HHAWi0I7oRomADgn/966WsAsgJD7kyPVltsYjCcPldNMxkF+2gjLVgBD3QgNxIJ2EowEH89IMDQoohDAJi8TktZjdVGFKCVQ8MEDxSQvRFbiQI4PFyxAFALDAYjMAQDpAQMn7FMZW2WCuz5GKbQOMMDCJhIcjkRCWwej8cmGaCMrx4NrGIwDDCAHvB6AbBaBeoSdTrGObRQKCCPSsBqRi8o2Tyl8hK1cOT80YDPazAbUAEvw2kxGq0kQnV+19KxlbaCxggJWM2kmfh8NhuTfWnLv//xn6+PnScCDKZi4t9ixCBgEqT56QvHVtqkuaMScoISsBt5bOWzBLD32LFBkyNOazI5nRany+hTWbFM1PYd1MFoIUEAgK7WKKKBzeGxWKOAckNPD1rQYilTuVzWGoFAYNd1XH+zTFmyYkUSrSQAKCUAbKVSfGnLFQJY5TU5enoMJqeR5KeySgUCtU5HLpYbJQBAJGyky5mFGEkGACACh9kcF2c2+YwqFQKQSqX2uo5FN16uc6kHELBbo1JS+Hw+AM9tufLZh3vPM8xxZ+IMhl7zaTig5/PzdWGTv3W9oxspATnSfiaL4dktV74igF5zr9ls3n76dI3KKiDH82kX3vhEEgI1gaGmhWChCkTBU5Zic2/vdpw/XYYCIL/09K5ZN3/izB2pBG4o1KEAIpQfX/jysw/fOegr7zVvDz4qQXpr6w5dV9gtPjfnLwlqCBainQwFAF/9/Z2DLgt9/bZt28pq8nV4dky95cfmfZgp2o/kliSDzb964cvfAmAdBQhaAejaMXWcT80F89CP0EBrGQUJVy+8SQFl205vt2w71wL7O6B/asS4n7pLaEcHBxsarn5MAbYyqD93TmC3E0DXeO+nOZD9CgJskIZ6/b9v/v6Pfz3YXIPzLfl1rXW6dOQH/+M/UyITdqMjg5ctAH8D4F1py7kWKZqX1K9j1p1+WxaEY8Hm0Z7MeS0IUF9uUefX6c7a08+GRdzFL8+0uUkwQW5bAH7zuz+8a5e25GP+z56dumjCXf50QYUIt+1rr1NAnfTy5cs7O8LmTLiH376HwyEiCOjYufPswieXTrznH88F0yOXPfLITx59dNYc/Hh+h5//A9B+pWmXhqP2AAAAAElFTkSuQmCC'
p13
sS'twit'
p14
S'data:image/png;base64,iVBORw0KGgoAAAANSUhEUgAAAEgAAABICAMAAABiM0N1AAAAmVBMVEUAAABmdX9mdX/M1t1mdX9mdX/M1t3M1t1mdX/M1t3M1t3M1t1mdX9mdX/M1t3M1t3M1t1mdX/M1t3M1t1mdX9mdX/M1t1mdX/M1t1mdX9mdX/M1t1baHa4xc1caXe+ytJcanfAy9Nlc35fbXljcXzG0di7x89jcn1ebHlgbnrH0tnBzNRkc33CztVhb3vK1NtldH7L1dzG0NfA89GmAAAAGnRSTlMAIGCPv9/fv49gIABQn59Q7+9Ar69AgIDPzyJm0o4AAAJzSURBVHjavZiJVqswEEBDKW1lKbTVqiGh++r23vv/j3sR007inDgB1PsB9zBLhmTYFwS9UT/iilIxGIY3ceKGJQ7STDk05YXBOG8mCkYTblAaFGHsLbq75TalzWzqJQoyzrHIZhzTovsJxyJEMSdEwSPnhEjzEH8lSiecEAFF7hbdc4vtUojl9iLCzF2i7JNH1GxBhHKOReABlqJmaYnOC6lYnJGJOT1/hMYUraTmCUwggvxQoid5ZQV5skQpR+DQztJAR5fboqCuO5XshSla6C6ILZHuQ6L80uLSmVoECXoV4pVjKJFOE4PAhKKJ6K00g2NQ+aYi6MuL6I5zIjRXsjVTLbrlBM7ya2YfooBTWI0NrQ3EtWhEi3Brr0qTsBZNCI3z0ALFuyjltIgkV6LsO0RjJYo4Yr2phKg2a3/RIGEB9jxXoqZ6BhFFzHr4e5RHm9beohuGi78RVzbeopD1kagCUeUtGrIIj1gDb9GA8U4iAEREaLQIhmqrZL9I+aJFMObblF8qtAh+PERDUiJIL3FEqNBA1PbQotA6iSKUbIRfQ/ZR+VuJhujQkqLdXsr9Dh/aXkPRTtbs0BgJGor2smaPBlsSNRL9lRo0apOsmwiGf/odoeXOH+ThKBTHg1+yC/TLRnP75FX+0HWJONkjqaSIHdeagzA40KIZXLRsjqboSIumcPWzERakaGxcRruIiti6HrtFa0I0Rxf2dl/0gJ4QLZKNnxBJ2rb8OXpmocaG1iYT5H74nax/Lfx2UOWppyg+tFKBPdTjGEAi5CGe64A7tPmPLRC6rzS6L1m6r31+cxFFr8Z+e1kHXNeH/zzWh/8BD1Pb/n8AvGYAAAAASUVORK5CYII='
p15
sS'gmail'
p16
S'data:image/png;base64,R0lGODlhDwAPALMPAAAAmf//AAEBnOnpDZGRQSIihCYmg6amNU9PaQAAmuXlEAYGlQ0NljU1eV9fYAAAACH5BAEAAA8ALAAAAAAPAA8AAARO8EkJap342Q1S5lWSLMUEhgKhGBQoJEQQHBqYpHIwFDaeBwjOLfYLOCwiXzGIIhZ3j6SzSIsypr/VpDAoyhSNjOGgyCkOrIykgHAgSpgIADs='
p17
sS'related_to'
p18
(lp19
V\U0001f31d Full Moon With Face
p20
aV\U0001f31a New Moon With Face
p21
aV\U0001f311 New Moon Symbol
p22
aV\U0001f312 Waxing Crescent Moon Symbol
p23
aV\U0001f314 Waxing Gibbous Moon Symbol
p24
aV\U0001f315 Full Moon Symbol
p25
aV\U0001f316 Waning Gibbous Moon Symbol
p26
aV\U0001f317 Last Quarter Moon Symbol
p27
aV\U0001f318 Waning Crescent Moon Symbol
p28
aV\U0001f31c Last Quarter Moon With Face
p29
aV\U0001f31b First Quarter Moon With Face
p30
aV\U0001f319 Crescent Moon
p31
asS'name'
p32
Vfirst quarter moon symbol
p33
sS'known_as'
p34
(lp35
sS'default'
p36
Vemoji
p37
sS'bw'
p38
S'data:image/png;base64,iVBORw0KGgoAAAANSUhEUgAAAJAAAACQCAYAAADnRuK4AAAJ+UlEQVR42u2dK3AVSRSGr0AgEAgEAoGIQCAQCAQiAhERERERgUAgIhAIRARVCEQEAhEREREREYGIQCAQEQgEAoGIQCAQCAQCgUDM1jdVUxs6Pa++3TPd55y/asQuW8udvt/t8+zTi8pkWkILWwKTAWQygEwGkMkAMpkMIJMBZDKATAaQyWQADdTv37+rb9++1c/Hjx+r09PTf54PHz5UX79+rf+c/9akEKCfP39Wnz59qg4ODqqdnZ1qfX29un37dnXjxo3q0qVL1WKxGPWsrKxUq6ur1ebmZvX8+fPq6OioBswAEqA/f/7Uu8bu7m4NyvXr10cDEvrwdwEWkL59+1b0jiUKoLOzs2pvb6/a2NioLl++PBkwfQ+fZW1trYYZM2gAZSRMxsuXL6s7d+5kA0zfc/fu3RqmHz9+GEBzCfOE7xHiu4x5Dg8P62d/f7968eJF/Tx+/Lje5W7durWUaWRnevjwYe20G0ATiYjo3r17k+0WQ/Tr168aAiB78uRJ0OfDZ3r//r0BlEo4o3OYqVAB1cnJSQ0Ukd7Qv4935F0NoEjil82vcy5/JaaDT6hP6D90R/r8+bMBtExib3t7O7mPMxVA54Wpwve5cuVK79//6NGjejczgEbo+Pi4Tu7lEDGl/pG8fv26unnzZudnuHbtWu3IG0A9Iqwluskp5J5Cf//+rR3wPpAwa7mF/tkAxAJevXo1u5zN1Nlz8kPsOG2fhzXKaTeaHSB+feRVck36zSF8nj7/Dx8qhxLJrAARmeSeQZ5TRGEkK7tC/rmLt7OtEDmSHE1WTgA1Zo3wv203wtyRXFUFEP7O3OF5KQCdz4e1OdmURPhBqgCIwmcpRc+cAEL0M9Ga0vZZ+WGKBujZs2dFwZMbQI3oM2r7vOSVRAJEVFEaPLkChKiXtfmQdAyIAqhUeHIGqInS2nJGU0GUfIVKNFulANRA1NaTRPRWNEClOcwlAtTk09ogevXqVZkAcUKhlFC9dIDQ9+/fW1tFUpY+kqwQR2eGtCoYQHFFVtqXK+KHnKptdpFiO+0qBhpAafXlyxfv+mPiUlTyo64QhdGSTkdIBAhR2vAda+JoEd9RtgBJcJolAIRoyvP5oHxHWQIE9RKcZikAdf2g3717lxdAVIylmS4JACHfgQRaRGL1EkVZIRq/JcIjASAKsL7IjIa0LACSarqkAIQI4X1OdYw+osWypquvEdwAykO+Cj4nX5Y1ZUutEK0DkuGRBFCbn0oT/ywA0fhdQkuqAfSvKXPdDb5D/KTJASq9yq4RIOQ7AbO1tTUtQNRcNOw+EgFit3G/O3al0NMdQSskOWyXDlBbgjE0rB+9QjQwSQ7bNQCEQ+3rH6KLIjlAzLvRAo9UgBCNZu674h8lBYh2gJyGVxpA4SL/4+5CWJaxLR+jVogJqJrgkQwQomfafV++42QAdZ3TNoDKjMhci0Jb7JieocErxFRUbfBIBwiRA3Lfecywz8Er9PTpUwNIoDig6L4z5/iiA5TLyDkDKK4wV24PNf881IwtzHzpBqgtNTPUjA1aIS11L60A+cwYUEUDiLsdDCC5IjPtmjGGo0cBiLYNTaULjQAhjvy47z6kzWMRsr0ZQPLkSxK/efNmeYA0+z+aAKI/OsQP6l0hzf6PJoAI2915BkP8oN4VkjIkwQDql3tNFWWOvnxQ5woxMkQzPNoA8rW79l3R2blCHIE1gPTI50j33V3WuUIaju0YQP+L7PPYYz+dK8SgRgNIj2isH9uluBhrEw0gufIlje/fvx8O0IMHDwwgZXLbXDm6HgyQ1JEtBlC73AuCOUMWDJD0wQkG0EX55gkFA6S1iUwzQD63hWp9EECaq/BaAfKdOu469ty5QtrhMYAMIAPIADKADCADSCdA2s7BG0BVtbGxcWEN6MqwPJABFJwH6uoJ6lyhtuuDDCC5cpvKlkok+v5nBpBsuZsGx32CAfId9TCAZMttYQaoYIC0TSPTDhAlC98VUcEASby+yQBqF5fVue/PVJZggA4ODgwgReIg4djrwztXiMnmBpAe+Ube9V3Y27lCnI02gPRoc3Pzwvtj1oIBQm6HmgFkIfwogLQ31msRY3/HNtQPAsg3kNoAkiffIdIowxU0j7fTBJBvCkuU8S4klzRX5bXIN4UlyoAp5CvxG0ByxPUGrv8TbcQd0njFgSaAjo+PL7w3OaFoAJ2dnRlAguWzMFzrFQ0gpPWUqkbzxZ0oQzV4hbQWVqXLN8JnqPkaBRBmTONBQ43R11DzNQogpHFah2RxxaX7vvREj9GoFfKV+w0gWc4zEVkygHwj8Q2gMoVL4iaIGeVCTSwZQBqdaanimu9lnOdggAj7NM2OlihG97oBEbtR1wHCaAAhTcM3tfg+IbtPMEDYSS3Dp6Tp5OTkwjvi+zBgczKA0P7+vgFUmAiCfMfV+xrnkwDEeWkN14BLks/1GHvNdzSAkIa7xKSIEza+SsKQprFkACHfNAcDKC+xw/iK4cw+WGb3iQIQoZ/ksF6CfO2qhO1dg6MmAwhJvpSldFGa8JmuvktUJgUI+Q6lGUDzih2GEN19p/X19aVNV3SAyFBLrJOVKvI6Pr8HdyMk45wcIKlRWalqm+3Ud4HcrACh7e1tA2hmtX0HFMJjK/oKYVuxsQbQPGrrlqD+FcvvSQpQUyuT0oRfkjh+5Yu4qBiE1rpmAaiJACQ41aXDQ9G77+blLAFCNGeXnmQsBR7fZyeEH9Mgnx1ATQ3Gl4swgOL5PL6dhzWnaT61JlkhrpMudUBDzvWtttlNU8EzGUDo9PS0yJ0o1yRhWxGbS3OngmdSgBCzhkqDKDdxmqItwp0anskBahxr92ppA2iYjo6OWl0BOg1jVNezBwhRiynlIpdc/B3GzbUdLWdHGjIMSgxAjR0v4aj03GJ2YVfr8NbW1ujDgCIAakSfbs5DG+b8gQFH12cjhE9RnigKoCZCy9UvmsNc0ezVFWyQ4WdnykHZeIn4RX2/OOkA0eDed9KFxj16r3JRdnEqafmcQv2pEq19l/uxJqzN3CYre4AQv7BcWkJSCceXi0yGRKMEGzG7CMUDdN43mvuujhTvxNXaQ4rMhOe5+DpFAnTeqZzLyY6x0wDBzs7O4FuwacHgnXMzV0UC1Ihz3YStU/tHY0VCj5INn5W+5DFFZN4NcObM64gF6PwXxCJP1azWFjFSksEccasjB/fw2UInlrC7crYuVdegAdRi2jhhkDqbjdnh4UuOnfAEOiIwdtdSJeLsLkVErqUq4Z57PiO7TU65HPUAuTBRtSbSGeq0pnwwtSRI+UxSoBENkM9f4Xx446eQ6U1Ve8NhJu1A5RzfqO++UQOoUOFz8OVSOsAhpzWUEgFdfjwk9xrfp3n4d5gf/pz/lh2OSAtQ8MU4+VCyL2MAmQwgkwFkUqb/ADKBT/BL2WIKAAAAAElFTkSuQmCC'
p39
sS'version'
p40
VV6.0\u02b2
p41
sS'uni'
p42
V\U0001f313
p43
sS'desc'
p44
V\U0001f313 
p45
sS'browser'
p46
V\U0001f313
p47
sS'annotations'
p48
(lp49
Vmoon
p50
aVnature
p51
aVplace
p52
aVquarter
p53
aVspace
p54
aVtime
p55
aVweather
p56
asS'wind'
p57
S'data:image/png;base64,iVBORw0KGgoAAAANSUhEUgAAAEgAAABICAYAAABV7bNHAAAAAXNSR0IArs4c6QAAAARnQU1BAACxjwv8YQUAAARJSURBVHhe7ZtbSFRBGIB3DW0xNy+brWUlSRQVRlEPZlLQjehCVBTdKKq3oAsEIaz2siskFBFC9dKDERVFRUVhUT1WEkIY2cWu1mbmqrmbuim5/b/7H1hqbWfmXPYcnA8O//+PT347MzuzM8cmkUgkEolEIpFIJBKJ2bBTNBSv17sCwip4JsPjhmec3W7Ph2jzrL2Fwfajx/E73J/WG+5L7ejpS/W3h5xXFm48f2LwjwZimCCSsgueBYqMeCiC4oHSAiHnu5bOrDNGydJdEIjZB2EHSJkXbfk//xMUi78js7M1mFU7d83lrdSkC7oJoh5TBmIWRVvYYBWkgKLefx/r1atHpVDUFJBTDeESrxwR8nO6sucVfjz+onbtI2rSFE17UGVl5YyBgYFTasTw9qBYmttzWl+3jN22fEvNA2pSjWY9COVEIpFrRvSaoZjk6nDPKfh8+97FnUuoSTWaCFLkQDot2pI8xji7R2opSbUgM8lR0FKSakEw59RAMI0cBZQ0Y3zLFSqFUSUIvq3Osq5vkgF+wzXdX/2aSiGEBfl8Plz87abStExxt019cn3LSSq5ERYE8w6ukC1BQW5A+IMUEgRD66iZh9bf5GUGMxrubKilkgvRHrSdomWY6AospZQLbkHQe8qh9wy5GzcrWenhEfW3Nl2gkhmRHiT0SZiBMc7QYkqZ4RKEi8JkbiXUglsRSpnhEgSLwvWUWhbeyZp3iBVRtCxOR+90SpngFVRI0bI40vpzKGWCS5CV1j5DgWsiSplgFoQTNKXDCmZBMEFr9iNUsuFZD/HOQcMOKSgBUlACeAQ1UbQ83eG0p5QmhOvYx+fzRSjVDTXHPqzYi+qY/2+uIRaJRPyUWhY836eUCd456C1Fy9IdHhmklAleQc8pWpaePkczpUxwCYKtBvPkZla+/RiNx1TMcAkqLy8/Z+V5KBAa9Yv3FgjvEEOuU7Qcnd0ZryhlhltQSkrKaUotRW9fauRjIPsQlcxwC/J4PI0wzG5TaRn8nVlNItdiRIYY9qLDIKmLStODvedDm2svlVwICcJeBOFqtDI/XzpyGkQvVQkJQioqKvZAUHUxwAi+dY3+OXXZzdlUciMsCIFhdtDMQw2HVlOL+wiVQqgSBL0Ij1CORSvz8fLr+Etqb7+qEoSAJB/0oioqTUOjP++xFneoVQtCQFKZmSShnJkrbpRQqQpNBCGKpGTOSTjnPP884a5WchDNBCEoCTa0+0GS4fs13Gc1NE+snrXyKt7w1wxNBSG4oYWF5HKQdJmadOdta+6b3JKHjuJ1Fw9Qk2bo+jILva/h5TmR5fnJFW/Wf2pzVen55o+ughTwwif0qE2QloKszGhrfBIJwnmmLeT8rrcYBUMExYI31CAUwzMbZP1zUy2eIPwdOdibHujqSX+m9RyTCMMFxYLn/TFH2oPbgc3z60oxgpB6jHq/DyaRSCQSiUQiiYfN9gdDJH+7sx70GAAAAABJRU5ErkJggg=='
p58
sS'andr'
p59
S'data:image/png;base64,iVBORw0KGgoAAAANSUhEUgAAAEgAAABECAMAAAAV8YMOAAAABGdBTUEAALGPC/xhBQAAAAFzUkdCAK7OHOkAAAIoUExURUxpcS8vLy8vL/a+HC8vLy8vLy8vLy8vLy8vLy8vLy8vLy8vLy8vLy8vLy8vLy8vLy8vLy8vLy8vLy8vLy8vLy8vLy8vLy8vL6eFJC8vL8+iHy8vL9yrHtOlHy8vLy8vL+WyHfnAG8yfIC8vL8mdIPG6HPC5HC8vLy8vLy8vL++5HLOOIuizHS8vL/S8HOCuHi8vLy8vL+CuHi8vLy8vL2ZWKt6tHuSxHS8vLy8vL9ioHi8vLy8vL/W9HC8vLy8vL/O8HJ1+JPK7HOKvHXxlKC8vL++4HC8vLy8vL59/JdCiH7uTIqiFJC8vL8WaIfK7HC8vL6WEI+q1HfS8HLmSIvnAGy8vLy8vLy8vLy8vL9CjHy8vL9KkHy8vLy8vL/C6HEdBLOi0HbyUItOkHy8vLy8vL/G6HDMzLvS8HNSlH+GvHvK7HL2VIaGBI+GvHuCuHrSPIqGBI7KNIva+HOGvHvO7HNioHy8vL9OkH+u2HS8vLy8vLy8vLy8vLy8vLy8vLwAMNduqHuSwHV5RKy8vL96sHuayHYtxJvK6HJ9/JcKYIeizHfa+HMabIO23HC8vLy8vLy8vLy8vLy8vLy8vLy8vLy8vLy8vL8CXIfa+HOGvHsabIfa+HOGvHva9HPC5HNqqHu+5HNuqHtWmH4twJuezHey2Hem1HS8vLy8vLy0tL1xQK+OwHi8vL/zCG/3DGy0uL+y3HVtOK/vBG/3CG/vCG1pOK+23HUVm/8MAAACtdFJOUwDy8fkt/ugHAQIFCNM6E2jg8BK3fUHbxBFqOiyUWJh5q/5Fpzvr5rGSNdEbue75hxD4jDQkA3yzCthOn+L3qUfyCe2oAtfEdfsEShwMRgrmVA7C8xj6A3TlZDlzQm1O3wK7NWLpheMC/GiE8QoFfXgLBAv4hfJVnkptO7MMtsoJAZ+eBYu5yQXfCQzL0AwN9xyRU8gE9uaNKP3KUP6m7tV9l2MXCf7497DJ4/fmE5L1lQAAAhRJREFUWMOt2Ik/FVEUB/AnW2RrI0rJ0oJoocUSJZJSlC1kSStKqxQSUahIixAiKts51Iz693rv9eqhN97M3N/5A76fuXPvPfecYzAoxjsvT+8PE5M+U9Nfvn6bGRgd+Tg2btAcbq/f9Lzt7SZjzP38NcuyPD84/Gnoc99zTcyqR60e78kScz++z7Il+ttb6rJVMweTQi6RNRZCxjgXGbhBFbNyZ/wuImWIOfFAcKx9x+u4D9HyEEth0SftOfu2p5NdiHnr2eKry+5VViqRGojnr1y/rey4XnAhlRDz/Zt3FJ18B1IPseO9WwpO0QrSArFjZbUtJ8/btqMM8d2aGzagkgLSCnFVRdl/jpMHaYe4tHCps/sw6YGk8pwlB8h/jy6Ic/efWARtPET6IN4WumjndzjrhaSUUwsgTxfSC8nJGVbHfTPphlgKOmLd+gQBSD4a8A/aQgIQS3v/Omv8hCAOj7BA61cLQXJUnCVJryOxL5I2HftziNYKQpx22gzF+ApC8pmLZijTQRS6VmuGzjuLLk16+MT0ry+TKMTNT03344E41NZhKhjqxaFnnUaoqVEcevHKCDU8FodediEh2NJgPxu2/bADCbsiuEsLSyOwxAZLtbDkj3uOYA8k7smGFRGwsgZXaMFKP1wxCiuPcQU7roXANTWwNgvX+OFaUVxzjGvXgQME3EgDN2QBjn2Agygdo7HfysKQAEv3NcIAAAAASUVORK5CYII='
p60
sb.