ccopy_reg
_reconstructor
p0
(cemoji
Emoji
p1
c__builtin__
object
p2
Ntp3
Rp4
(dp5
S'emojipedia_url'
p6
Vhttp://emojipedia.org/last-quarter-moon-symbol/
p7
sS'index'
p8
V593
p9
sS'code'
p10
VU+1F317
p11
sS'apple'
p12
S'data:image/png;base64,iVBORw0KGgoAAAANSUhEUgAAAEAAAABACAMAAACdt4HsAAAC+lBMVEUAAAAfHxEjIhMcGg8aGhA3ODEdHROgexe2mi0fHxecdxSbdBO9ojYaGA4iIhYnJhUcGxIZGQ5KQh66kiKuhhyYcRCifheYdRSeeRajgxwcHA8oKBsfIRGdcxGthBqmiCGvjyMbGhIaGhAwLx86OSeJbyKadhKxiR5gTBl4XBqUbhN0aSyVgSWsjiH69cz687pDRlJOUWBTVmVISlg3OURCRFBVWGo+QExFSFVgZHf8+M769MX59MhQU2NXWmzu4YVAQk5UV2j69Lf8+MY2OEJZXG7686f27qn69tH8+MH376369Kz57IL89Jv38Lvu0V326H7376P79bL8+Lr9+9f674f8+Lb69cD48LXw55vy5pU5O0b78Is7PkleYXRobHwuMDVrb4H9+Kn++bAwMjn57HxcX3FbXm8rLCXy2m/99aFMT100Nj8vMC315HpTVmfmz2z17pd5fIvw1mT04nX35nTy2mn8+NL699cmJiMyMzxJTFvv02Lz33H58bH68JH+/L7164+BhJD04nD885X06qLw67LrzVn9+839+97x6qnjzGLu45D37pzbx1o+PznrzWP254Tx5Yzq3HvTuUnr24Ds3nDy3Xfg0XHs2Gvs2HPx43tXV1X//cZsbWzhwE10d4jw7szbv18qLDHZ16xSUk2kpqDfvUQjIx1vc4Xv6IJgY3FlZ3F2eoJfYWmyqGvLyqWHipOvr5rnxlFiZnnj1n788Xu5tYzj1m4oKSx1cVzl4KtaXF6Rk5dZW2WYm57Ztj+Oj4PmylnbzF7Fqj1qZE1kYl3CrFqXkWeiopfCmyjJpC/f3rTXuVZFRkjXw1M+QERNSjSenYnz3WPi25DLs0VNTD728cLq5rHt6sNzdHfIxq2qmVyNhV21tqOHiYyrrah/fWzBwK3HuGa2sHnNxYLOwXLk3p2AgoW7vK2mkEmoqIfEwpVkaHuWmJbZ15bSqzDSzYuWgTncyWeblnHh4MKenH+GhXvOzrWGeU3Qy5bR0rp6azW5oVE0Muw7AAAALnRSTlMAmGUoEf3RaNf9Oij5bdqG3kG5/d0XhAxAlzj0PZfXtc63L9nUyi/x1NS007+YYFshZQAACLNJREFUeF7dl1O0ZUkShqdwC91l9FR1qac53PvYtu1r27Ztu2zbtq227R5rrYnc5557y101j51nncf48o8/IjJ3/uqXvH49Z/zcRX987Q8zZkwdPX/sswKef2HCrY6mE00fbzn77v5TA7evvTp1zDMAxk/oqO9aD+vmj3u+Pvbh4s0HDw6suvbq6KcNn9TUtb40FZb78++/+frYF29t3LBhMyBu+z0N4rkJJ4RtqWazVqFI9bgJwKbgneyoqMOUgVXNr7z4c4A/dbSjaK3CorUozHXff7P9OgC+3ckOihbz41dd9hv1RMBs2D41TGspcVgkFks4XrVy6/bv3t8UupPNZgcJKPx46uXmV8Y+wftJPcLKsLCSErXV4bCWWIcBICEoSi4Qk+NZl5vnjXls+if3upWWkpLBQTWXJ1UPOg13L27dfu79tNDgYJSDgMEn5wMhZv6jAa+f3NWglDgG1Twph4NharXBUHVx63vntqUtXRfKZkdFCyAJMpUEhJcfmf+kvQ11FusghvG4GABqani8NwGw+lDZ0tBQyCFaLmBQ+Pks+lW/mEf5MKGnoQ53SKVcjIupeNxsm1RKAM4dQhJQJeUMBoUcTyWJrvpNeRgw94TQbbA6pDweBgSeM9uWXYMt++s/3lv9HQIMmZAMABaJ2Zw46iEDb7U3KC1qNYRiKq6Ky82usdlUAPjSCwj9lh0ELoiRjSwRzS/mxQcT2NugwV1WNRLAw3LgbyMA//5yNaSQti4U5QASxOR8Kovun5D4QBLjrwhTFU6DWs1F+8Ny2mptthxQgABlaeuIZhwGMGURMZPvA0AFlFqLRMrjAiEnB5OqbbW1OV7AkW1QBhBAFBL6OZ9FCgQJ8+4X0O6uwy0WKc/JU2FYjgpT1QJgGaTw0QdHIB4JiIJmlCMTwEX/hJCY0fc7UKeROKxOHg+H4GwVJ7vWlq1a9qYPANMAHkZHE/NAEjH9ZRH3uvD8rXaP2ayQGHgYaiFA5Kg4thzVHR9gyEIAMCj5dDqJiXLIHZmJF06sT1UotC7DHS6WXVPLwTgcjpOjumNAHnxwZNtSKCJYiOrIAAV0EQJExEwdyaCr39NoVipdBgMvO1uKjJRynTxDFShAJqYRCoLYUQJiIJnMwEBaQkTiuOHz92SX0O1p1ACBh9VwcadTxXVKcNxVd2Dl2wA4VLYORoENDAaDUAAC/GV5iWt9EzGno9/t8WglBpcBq+E4iyQ4xsMteBEBgFZGfUAcCQJKshgALPCARstLzJ3uK2JTf0NbqcKCS1zqQY6kyIDjTlyCuwBw8W04UMrK0pCNQVFiMp9C8ZZRJssLgV4aniOhsFGvkDitJVK1q6jI5cJhwXFwYCUAvtiEZiEYHIBRIpP58SR6oL8sAQC+iVpUDwAlVMFldUichiINIDRFrmFAaHAoDNPOaIYYjqT4/HyWaAjwmyHAS3sB4KlUarXh4Q4c14CbZo0B11TdPbDyo3OHNgWzg6AR2XKGWIw6mUoPlCUQgHHDfbheWNrmUSrCHFaHVYLizRqutEhZdXflnnPHNgVvkMvlaJYZ6ESiskT+CQ8ATvR3elJLUyvCQEG4ROvSmCuVUoe2qOrA1j3Xj70VvCE6Ws4QoBONGCWRPw3iI1YMA15q6hKWlpY26sNghYeHhVuVlRongKoO/GvP9b8DAMaAIYiWi6EEVBKdSaPRECDXB1gEgNTSgAp9WFxcHGgIV1Qqca1Cq6wDwN8IAAQne0cRGjlQhgAhK3J9Js690tvXCoAKfZw+LDwsTt9QWakEgLmSAMDdigRAClBGUAAAmSwhImRfrq+M4ztSUvpN9oCKYkVcnF4f11ipdJsVCoXZ/fkQABwAF5IhAwJAS0jIA8BaXyPNOVnf0tnaGhBQrC+GPIChd6c2NmqGAVECigBOZCIDFnQRACIiVuxbO903TJPq+zqFrTp7cYBdX6FXIBEeT1ub2wcQiJPF6FqCGkIRASADAStyJw5fLy9dSdnVl6Qz2e3FxQEBcfqKiuI2d4Ows/Pmj6iMG6MpFIoYSgAZsGAUURGRBeNGDpSOppS+flOrSaeL1AHDXlEM0cL2XTc//QQpkPP5yXw+tDEVHCAEEBlMHTnSLjQ1pXRnJiWVRkbaA+ygwt7Q3tfX5wUs3nyYQknmk4kmojOZMAfeDO655hdeWZ7SW1he3moyRep0EL/bLuzvS+nZ9eknf/lw8WEynANiMnKQJCIyiEA1mHbvsX7yEhDKy8szTSZdJFq77aaM9vaeIQCfwmCAASge1QAyAAH3fXG90XFpecsN0GBKMkE5wIrdu3VtnT2fIcBmCp8iJu5l4jAbsnAihD0gIauwsDwpo9WUCXmAGbpW4S4EQB54LfQJQA5AF923ZnUsT4mNzboBaWRAHqbITF2kCQBbhgGQAggIhPg8KEHutAev9/NLjvfGZmVlFZZnJGUkJbVmZpqSuno+23KWSIFMjkcCAgOHS/DQB+OCo8eN6emx3bGFhf0ZGQDJTCrsJQCnD8IxgIaANNTFIdADj/hcnLVmR7UxPSsWVnd3YQYI6e79sxcA26MS0unoTnxkAmjNnrnmeHVBemwW/GKzCm9kFQIAvtb3nz7oDRcxoQeI/dEUPGK9fh40FBSkp6eDFTfg350CgHf3nx6IJ7aHeGQAin/5MR+aoOF4tbHAaAQIqOgFwDsIQIVw1AK+/ec/9pkx8+iSHdXVRmMBCMlKL0hZfoYAsEQiEZI/tP8Tnh6zF/6wZMeO6hajEUGM9QRgYBVxn8sgPgQ6cMqTnz8LzoOI49UEo4UAnBq4jEaYlpeXF5IY81D9HjZi1gVAIBktLfWXzrzzz1OrLl8l3AsJScydNv1pnjxvXDi6Zg2CLLl05isCQEtAu8fMm/y0r6aF538AxpqOW/8FwO3mZj+/xJjcKaOf6dm3cOb5CxcmffXTf65dQ9Hj4Nn37A/PBb9/7Xe/nTFj1Ojp4Pwvd/0PoRV5MIMP1KkAAAAASUVORK5CYII='
p13
sS'twit'
p14
S'data:image/png;base64,iVBORw0KGgoAAAANSUhEUgAAAEgAAABICAMAAABiM0N1AAAAmVBMVEUAAADM1t3M1t3M1t1mdX/M1t1mdX/M1t1mdX9mdX9mdX9mdX/M1t1mdX/M1t1mdX9mdX/M1t1mdX9mdX/M1t3M1t1mdX/M1t1mdX/M1t3M1t1mdX9baHa4xc1caXe+ytJcanfAy9Nlc35fbXljcXzG0di7x89jcn1ebHlgbnrH0tnBzNRhb3tkc33CztXL1dxldH7K1NvG0NezsfW3AAAAGnRSTlMAIGCPv9/fv49gIABQn59Q7+9Ar69AgIDPzyJm0o4AAAJzSURBVHhevZiJcuMgDEBxHKeJj8RJWjfL4dxnjz3+/+PW68URWEOFW0/fB7xBEiAQ+4BgED5EvEJUjIbjSZy4YYmDdBrxBtEwymbdREE45wbCIB/H3qKnR24jbJYLL1Ew5W1EmyymRc9zTotEXhCi4AfnhEizij8SpXNOiIB85hY9c+4SHTZSbg62qnCJptwpOsialikzRchzW6uK9c0SbWTNRjhNrO15UZqtKZIa4TSxVn626s4LKYI8gSjVcSmDmzs0YGaLAl33tSlau5MN5LElavahsnCU32alRZAgLPoNIox4lfIV0sR0YNSKML9kBQTHoPKfFYmsET1pC042HVrNQovgHnOVn2D5XxSABza2tbUFRVyLQm6yxRubFo1r0b1k7kNLkf8TpZxEkMwq0bQPUVaJIn/Rbl9KWe53WDRKWMC9RW+lrCnfsClmA2/RrpSaEq9pwkJv0V7e2eMNwB68RSWISiQasshbJA1wthnvRyRoER0aiN6Veu+ebOi/jeinquhefmgJhIjakNCkiNDoIyI1HZMN9CnCoUWfEqFkj/yOCAKVf4gP7fGk1OlIifChHbQ9qubYUTRBF9tJ1Zw6imJ01SpNN9EILn9KRF/+aR+hzaBBksk+X2TF5exskEnoVf4ruq9Ry6Ybkn0ZXV2PiOSRFp2lAYpuCQ8tSnQxRZe2aAFPP0okLVDt4THaTbRDL214Hn9hRQV6sH9OtMJfiO7Jxl+IJO1efvypIdMEGxtt7cL58QOgTVl99kp8/JAJGqf70GbE5xiJHGT0dx2HhhFF7wOE/kca/Q9Z/Mc+3zmIokdj3z2sA5rx4R+f8eFfrKvbI3uQ42QAAAAASUVORK5CYII='
p15
sS'gmail'
p16
S''
p17
sS'related_to'
p18
(lp19
V\U0001f31d Full Moon With Face
p20
aV\U0001f31a New Moon With Face
p21
aV\U0001f311 New Moon Symbol
p22
aV\U0001f312 Waxing Crescent Moon Symbol
p23
aV\U0001f313 First Quarter Moon Symbol
p24
aV\U0001f314 Waxing Gibbous Moon Symbol
p25
aV\U0001f315 Full Moon Symbol
p26
aV\U0001f316 Waning Gibbous Moon Symbol
p27
aV\U0001f318 Waning Crescent Moon Symbol
p28
aV\U0001f31c Last Quarter Moon With Face
p29
aV\U0001f31b First Quarter Moon With Face
p30
aV\U0001f319 Crescent Moon
p31
asS'name'
p32
Vlast quarter moon symbol
p33
sS'known_as'
p34
(lp35
sS'default'
p36
Vemoji
p37
sS'bw'
p38
S'data:image/png;base64,iVBORw0KGgoAAAANSUhEUgAAAJAAAACQCAYAAADnRuK4AAAKGklEQVR42u2dK3AWOxSAVyAQCASiogKBQCAQFQgEAoFAIBCIigpEBQKBqOgMogKBQCAqEIiKCkQFoqICgUAgEBWICgQCgUBUIBBhvr13hxKy2d1sks3jnJljyr1//2a/Tc47jRIRmSGNLIGIACQiAIkIQCICkIiIACQiAIkIQCICkIiIADRSfv78qb5+/aq+fPmiPnz4oN69e/eXvn//Xp2cnLT/fnp6KgtWI0A/fvxQHz9+VHt7e2p7e1vdv39fXbt2Ta2urqpz586ppmkm6eXLl9WtW7fUvXv31NbWlnr9+rU6Pj4WgEqQX79+tbA8f/68BcUVEhe9dOlSC9ajR4/UwcFBC64AlIFwBL169Uo9ePBAXbhwIQosYxRwAerp06fF7VDZA/T9+3f14sULdePGjWg7zFy9evVqCxP2lAC0kHz69Ek9fPhw9k7D0Xb9+vV2h1hfX1cbGxvqyZMn7QNGQ+9MHK9HR0cCUCzBG7p9+/bk3QZjGeBevnypDg8PW49qjDcVa1cCYuwlASiQ8JZyTE3xkDY3N1vP6Nu3b+4LFPl4u3LlSlYgJQ8QR9WdO3dGez+PHz9u/x9vC7SQnXTz5s12txWAHIXjhR1k6Kg6f/5863W9ffu2DQZ6X6CFDW5sspTDAEkCtL+/3xq3Q7sNxu6c4ykHgLq/laNYABoQYCCqO7SYOzs7rfseZYEScv/xFEO/MNkCRHphZWXF6vKy48TezlOLIV28eLH1JAWg/4WUA+710Ju3VAQ31WAkMasUkrqLAsR2bHPNsYOwh4BssQVKOKKNy790amQxgHBRbUcW7ngK3kfqaREi8W/evKkLIAJluN99u05Kof0ccmvoUnZRdIDIlvfFdjjOSDEk5WVkAhBKTVLRAPGW9MHDH7+krVMCQCg1SEUC9OzZMyM8/CwltzR3gLrodayXMQpAfWURGIBkxlOWHAFCCY3EgCg4QESNTX8gHhjF66lLrgB1x1loiIICRKVgXzri8+fPKgfJGaAYhnUwgAgAmmweQvG5wFMCQOju7m5eAFGPYyo1zQ2eUgBCQxWpeQeILDnVgKa6nRxsnlIB4oUO8fJ6B+ju3bvGP4CCrxylFIC6umvfRXdeASLWY/riNPflKiUB1Ln3SQJE/7jJaCYpmrOUBhBKOikpgNgW2R5NDXQh6pQFoPklsr4qG70AROjc9CVTS4wKQH+U0uEkAOo7unJskqsJINRHHVEz9+gyueyUW5YiJQNE7dXcsthZAJlSFXyp1DoHBKBw5R/OAFFuSmS51KOrFoAwP+YEGJ0BosVG/zK0IJcmpQOEEvyNChBzbfTdZy7JAtCy6vrsnAAyue38rESpBSBXx2cyQGTadbedRCnj5QSgvJWZksEBwmoPnV8RgPLJk00CCPdc7+diNyph1p8A9N+znBqCmQQQ3RM17T61AeTSoDgJIJKj+i8klSEAlaP0208pxB8NEL3spmx7is2AAtA8ndJaPhog6nr0X0S/V+lSI0CMFvQOkGnkXKmue+0AUYoz9mRpXI8vhj7VIDUCNOUYGwWQKe+V6tBHAShuln4UQGtra//8glhDLgWgZZTJ/l4AomxDT10AVC1SK0BjN4lBgOjn0j+YI00AKl/HlLwOAmSyf3JtEhSA/NtBgwDp9g+5sNxbdQQgf3bQIED6kISxxpUAlL+yWQzFg6wAESjUP5QL0gSgenSot88KEOPn9A9k4pgAVI8O2btWgExtOzUZ0AJQ0w7McAbINByzxMJ5Aci9StEKkOkSlFoi0ALQn5sTnQHicls9S1ub1A4QrevOAOkjW6hWE4DqUvr/nAHSBycMbWcCUJnqDJBeRFZLDZAA9LfaMg9WgPQsPLcjC0D1qa1tq5myeKW2LwtAApAAJAAJQAKQACQAnRW9D97XZE8BKC+1tW9NigOJG1+n2mqCrAARedYvxRWAJJA4GiCAmZIXEYDK7FJ1BoihmfqVQaUPUxCAmkn5TytApmlkNfTDC0DjJ+9aATJdmOsyR08AyleHbluyAsS1QPoH7u3tCUAV6dAIHytAXFFZc1eqADQ8RMMKEOWrPqeaC0D56fHxsTtACI2ENVcliguv5gFkKqwv6TYeAci9oH4UQFyYq3/w/v6+ACTDFcYBZBpvV1Nloox3mQkQ9bB6Vp6URi0RaRkwNRMghDKOWjtUZbSLB4BMVxzUMCO6ZoC2t7f9AcRuU+OU+poB4lovbwAhepcqSqRaACpP2RxGr8/Y/9CUWJ17468AlPfxNQkgjjG90ZBIZenzEuX48gQQok/rGBsrEIDy0al175MAAhaXcLcAlI9OzTJMAojjimOrJmO6tlEup6en4QDqM6Y52gSguoxnZ4DIxOuzo1FyZgJQ3jOhXerdG5dFNQ3fLHUXkt0nAECck6YbDEu8gLeW3cd1eGrjurC7u7vGCGZpcSHpvAgEEHkw0zXgQ4OpBaD0PC/uhIsOEGK6S4ztcEokUwBaVqm0mLU+cxeYyKX+peipLyVTXzI8Pp7TbIBw/UxufSn1QqXCQ17Tx0nR+Fhk06UspVzMUipAvhpEG18LzT1i+pdkZ8q9BahEeKjt8uUtewMIUEx5Mr7s1PyKAJT+0eUdIOTo6OifmqGuDShXo7o0gIjfeV0f3wtOHMh3sEoAinP3VxIAIew4pj+ALlcBaDmXPUSWIAhA2DymInyUmUMCUPw7v0JNlmtCLTxfWB8T7Cv6KQBNS1WEbAJtQi4+s2VMnhlK7EgACp9lD10t2oR+ALiMfRDlEK3OFR5icDGK/JoYD8EGkWshkwBk33liZQGaWA+C46zPJsJrSzXYmOPOEzOF1MR8GBhzKysrve20KU78yA0egrlR1yf2A+HqIFMhWrcAqY0Rzmme4RIzvJslHgoVcPo9HHrENJUjLZc4z8nJyTLrs9SDISq6vr5uXZTDw0MBaEQr8pLXTzRLPyDSG6YEbKebm5uzanZLBmhra2vxJoYmhWOCdqA+47o735dKgaQaXU5hd04GIIS+JNuR1iUEY/fhpwYPhXu2O0yrBagT8mS8YbZFpAs2Vit1SrsOa5NaXVVyACFUN3Inx5gShdBbeQrw8MKkek9bkgCdtY36ykLOKm3WGJRDF4PkBhDxslRsnSwB6oTMvX4BcJ+ura21MPkKqi0BDg4FY3RyaBPPAiCEs3+MfaR7bxjmAEhC18V+iJ2KoEIhpyaEbAA6G8UGpL7E7NADYofqoOJ4wKuzxZliGciAk+N9tNkBpNtIZPJtgcgpii0FmBjnRHhNbdu+o8hkznOeaJI1QGe9NtpV8FZ8wRSyqY/OlaVyVwLQCJiYJktCti/rHzt+w2U13D1aCjRFA2SKcB8cHLSVjzxIoAq1S/G5eIvk79gRsa9Kv0+keID6PDqK1wCL44TdCluqs3uAAFvorPKzzjYinbCxsdEavoDC5xCDquUOteoBEhGARAQgkRLkNy9UN+peVX9PAAAAAElFTkSuQmCC'
p39
sS'version'
p40
VV6.0\u02e3
p41
sS'uni'
p42
V\U0001f317
p43
sS'desc'
p44
V\U0001f317 
p45
sS'browser'
p46
V\U0001f317
p47
sS'annotations'
p48
(lp49
Vmoon
p50
aVnature
p51
aVplace
p52
aVquarter
p53
aVspace
p54
aVtime
p55
aVweather
p56
asS'wind'
p57
S'data:image/png;base64,iVBORw0KGgoAAAANSUhEUgAAAEgAAABICAYAAABV7bNHAAAAAXNSR0IArs4c6QAAAARnQU1BAACxjwv8YQUAAAQwSURBVHhe7ZtbSFRBGIDdLc11NXe1XFOstEwwksJuRBRUlF0sIiqKyIceguj+EIH6ZII+SEQR9BJ0ISWxC2XYDexC+lAgUZHdL5iZed3UtHL7f/sPSGzrzDmzu2dyPhj+/x8F4eOfOed45oQoFAqFQqFQKBQKhUJhNiwUA8rd8i374h2dOaNCf8SHjfxpDw/tszkivo/AnxVezh74HY/H0wChEcYbGG9hVOfn51dBDCgBE4RSkmJb9zrsXYmaDG9ogrxB0q7DKA+ULL8LenRlw7kEZ1t2fHRnJE35xJegwYCsOxAqQNTRPzP+wW+CsGNS4r7kJ8Z0OGmKCVZBGiSqyF8dZaUolBc3V9fNTHlXwitHDxaLZSGEsoKCgqI/M2IR2kE3SnMWpyc0lhsRw9tBg4FuqrRarQdyc3Of0ZRhhHUQypkx4WNlILrmX0A3rQRJFwoLC9NpyjBCBGlyxkR1jaKpYJImUpJhQSaToyFMkmFB05I+XTKZHI20/v7+45TrxpCgl7dW1bPe3wQDvMLB1c3QfZJuQbUXNx2Z7GqeQqVpAUk7QVIWldzoFjTJ1bSdUhkooMiNLkFPq9Y8MOm+4xXoopnQRbuo5EKXoARn+2xKZWIrRS64BT2+tq7K19O4WdHbRdyCYuxuGbtHYxlFZrgE4U1hMB8lBDCfIjNcghKd7bqvBmYAllk0LLM8KpngEhQZ3pdCqcwkU2SCS1BEWK+DUpnJoMgElyCZ7n18kEqRCWZB+C9USqUG9yFKmWAWZA/vm0Wp9PA8m3Etsf8I5mU2XAUxowQNwbAUxPOykVlQZvb5zZQOK7g6qKcv1EOpzNRTZIJLUEePrYtSafF4PK8oZYJLkLvH9ppSmXlCkQkuQa3f7HhQQHaqKTLBJWju2tI97d3hv6iUkXreUyBcgpCv7ihplxnsP5coZYZb0Nvm2B2USgXI6bBaraepZIZb0NJNp25/aIlpolImKvQci+EWhLxvji2W6Z6IuqeESi50CVqw/uzhhjbHSypl4IzeQ1W6BCGpS66mfXXbe6k0LdA9D+HKpeutKqJbEPK6yXXCzEuNllYOlbowJAjvi141uW5QaTosFstuo+cVDQlCMlZUZD1riK+h0jRA9xTn5eVxX9b/xrAgZGrW5XlmkoRyYN85SKUhhAhCNEnB3JNwz4EBbsTIQYQJQlDS4w9JR4P0vFaPew7IOUS1EPzyKQIeckh1NZ+cOLZlPE0xo+cgOXTNSRCzjUqhCO0gDXwcSV50bcK956n7P3eM/kbTwgExlTCW+0sOEpDPofDA5zhn+8axUe44W9gPn39zqA7CfQbCfRjHQIzfP4kKiKDB4Am16Iju6aNt3WO8nVTzJgik4HdidTBqRe8xQxFwQYPBvSo2smdgeYCwTIxlNXOwOxAUwvWKRqFQKBQKhUIhipCQ34iIdl4YlrWBAAAAAElFTkSuQmCC'
p58
sS'andr'
p59
S'data:image/png;base64,iVBORw0KGgoAAAANSUhEUgAAAEgAAABECAMAAAAV8YMOAAAABGdBTUEAALGPC/xhBQAAAAFzUkdCAK7OHOkAAAIlUExURUxpcS8vLy8vL/a+HC8vLy8vLy8vLy8vLy8vLy8vLy8vLy8vLy8vLy8vLy8vLy8vLy8vLy8vLy8vLy8vLy8vLy8vLy8vLy8vL6eFJMWaIS8vL8+iHy8vL9yrHtOlHy8vLy8vL+WyHfnAG/K7HMyfIC8vL8mdIPG6HPC5HC8vLy8vLy8vL++5HLOOIi8vLy8vL/S8HOCuHi8vLy8vL+CuHi8vL+q1HS8vL2ZWKuSxHS8vLy8vL9ioHi8vLy8vL/W9HC8vLy8vL/O8HJ1+JPK7HOKvHXxlKO+4HC8vLy8vL59/JdCiH7uTIqiFJC8vL7yUIuizHdKkHy8vL96tHvS8HC8vLy8vLy8vLy8vL9CjHy8vLy8vLy8vL7mSIvG6HDMzLvnAG+i0HdSlHy8vLy8vL9ioH/C6HEdBLOGvHvK7HNOkH72VIaGBI+GvHuCuHrSPIqGBI7KNIva+HOGvHvO7HOu2HS8vL6WEI/S8HC8vLwAMNS8vL9uqHl5RK96sHi8vLy8vLy8vLy8vLy8vL9OkH+ayHZ9/JcKYIeizHfa+HMabIO23HOSwHS8vLy8vLy8vLy8vLy8vLy8vLy8vLy8vLy8vLy8vL4txJvK6HPa+HO+5HMCXIcabIeGvHva9HPC5HNqqHtuqHva+HNWmH4twJi8vL+y3Hem1HeCuHuGvHi0uL0ZALeOwHvzCGy8vLy4uL0U/LeayHf3DG/vBG/3CG/vCG/7DG96SDU4AAACtdFJOUwDy8fkt/ugHAQIFCNM6E2jg8BJ9xEG3eREKajoslFiY26v+5kWnO+vmsZI10Rvp7vmHEPiMNMIkA7MK2E6f4vepR/IJ7agCxHX7BEocDEY1uUJOfPzXA3TlOXNUbRjjAvq7aDtkVd8ChPFiCgV9eAsEC/iF8m2FDvOLAZ6fBbmzDLbKCUrJCQzL0AwNnhz2sI2RU/fIBOYF3/6XKFCm7tV9Y/0XCcn49/7K4/fmKiuJ+wAAAhFJREFUWMOt2IlfTFEUB/CZtJBWW0qhRcq+VChJCBVCshOya1G0aV8khKTsO6FyTvHe+PvMM1Mzqbfe3/kDvp9737v33HOOzaYaX7+8/fh66Of3bz9GhsMGn/SGBocM2EzHizef3n14/8ohy/Tn19goO+PZ8/6nfY9mmWJqO3tefiZ3/HZDSjwOqi+ZbZhZuPhgHXnCG3LGmmXZ6YaYzQlbsojUIea1mStn6jv71i+XSBtiDtsbosMUH0qLI9KFODc5VdO5eeGsg4xAzEWnNP5fZdltIoMQ+58OUHMqbs0g4xDbj6lIN65O66hC7HNyWqm0vIrMQewTenSqc+X6NTIL8fHDU6ETl8k8xEG+/ztnzktWIN6+YbKTV3iOLEEboyYfp8QksgZxRrS3sz9Hsgr5rfA+A/k7ZKsQ+wd7nJ2xGgvSg3hJ4AS0aJcsAG3zHIEUrQXpQhwx7qxeRULQvDluaOs6WQgKn+9ydsdIYiviua4UHrmHBKEFrqNUEC8LQks3/YMuHRGF7AcU5061JLo1v4sK1NRIohDXKF+7q1kcalBuyb274lCLUlg86BaH2jqc0MP74lB7KxKCbQ32sWG/H3YgYVcEdmlxaQSW2GCpFpb8cc8R7IHEPdmwIgJW1uAKLVjphytGYeUxrmDHtRCwpgbXZuEaP1wrimuOce06boAAHGnghizAsQ9wEGVhNPYX8J2QEBQvUTAAAAAASUVORK5CYII='
p60
sb.