ccopy_reg
_reconstructor
p0
(cemoji
Emoji
p1
c__builtin__
object
p2
Ntp3
Rp4
(dp5
S'emojipedia_url'
p6
Vhttp://emojipedia.org/comet/
p7
sS'index'
p8
V626
p9
sS'code'
p10
VU+2604
p11
sS'apple'
p12
S''
p13
sS'twit'
p14
g13
sS'gmail'
p15
g13
sS'related_to'
p16
(lp17
sS'name'
p18
Vcomet
p19
sS'known_as'
p20
(lp21
sS'default'
p22
Vtext
p23
sS'bw'
p24
S'data:image/png;base64,iVBORw0KGgoAAAANSUhEUgAAAJAAAACQCAYAAADnRuK4AAAMzklEQVR42u2dL9QOXRfGnyAIgiAIgiAIgiAIgiAIgiAIgiAIgiAI1hIEQRAEQRAEQRAEQRAEQRAEQRAEQRAEQZhv/Wat/a3z7Hefuf/NnJk5c11rzeK9b565X+e6977239lrBGEH7OmfQBCBBBFIEIEEEUgQRCBBBBJEIEEEEgQRSBCBBBFIEIEEQQQSRCBBBBJEIEEQgQQRSBCBBBFIEIEWgmvXrjVnz55tbty40bx69ar59u1b8+/fv9E+z9+/f5ufP3+KQHPB0aNHm729vX3X4cOHm0uXLjV3795t/vz5U/Tz3L9/vzl27Fjz4cMHEWjq+P79+3/Ik15Hjhwpao2+fv3aHDp06P/3v3PnzqjWUARagdevX7cHhQuDLJ5A58+fL/p5uJ//DOfOnZuVS1sUgXAXHNLDhw+b58+ft7+/fPlyc/Xq1fb3uLBSsPvjPg8ePLiPRLg0yC4CTQxXrlxpD+jly5ftf3/58qX9Ff3D64jqEvj161dLEu757Nmz1iJGLhUXJwJNCCdPnmwPBi1kQHOYDklfHxLXr19v73fx4sX2/g8ePGhdFwQ/cOBA+x5RoizQhPD79+/2cIjCImHN6yUE7Lt379rPAWk9Yc2t8Vn4vCLQhPDp06f2cPiW+wM1azA0SBGYFcR1ebdmKQZzsSLQhPDixYv2cO7du7fvddwHr/Pr0Lh9+/Y+15Xi5s2bs3JdiyMQOZZIKJuAfvv27eAW0FzXjx8/9r3HZ+I9IrK5uK7FEYhvPUTxORZzKbiQoYC1OX36dHsfdI7XZhaRzcl1LY5AJA45KH+w5GCOHz8+6L2fPHmS1Vm3bt1q3yMymyMWQSCsjiUNU3z+/Ll9nUTiUCDSwjVBXh91mVubU9S1SAJZpEUGOsXTp0/D1/uEaSyfWcb6nTp1qmgCUwTaEhCEg3r//n0YFQ1VCbfaGyTyePTo0axd16IIRA8Qh+VbNcw6DCGguRfaKoq6KKHg1nh/rq5rUQQiAiLa8uAAcSNDwMSxd09pRDZn17UYAnFgCFXvKrAKQ7kQE8eROLeIbO6uazEEskiLg0tB4pDXEdJ948yZM6HrIgrjdSKyIfNOIlCPsALlx48f973++PHj8PW+BPubN2/+8561kwyd9RaBegQlDJKFNK+nwL1gDfzru4D+He6FaPcgy5xzayLQhEH2F5figahGzPYJWlSJrrzrItIiE37ixInZR12LIxCHRqU7EtbkgfqCJSV9rimNyEho1oaqCYRQhSi+gMksWFTY3BZYFSxP5LpIUvIZSvZbi0A9AWsAUaz3OdUjfbawomtwUd51Yelwn+SaSs+biUA9gNAdoeybt3ApvN4HiLawMNEUBVYn59ZEoBkA7RPNeiGsL1y4sPPPJ4JDY0VdhFg9iAVZa0bVBMJ9EMZ7UMLoQ0AzZ4briiIrCEqk12eaQAQqCBvX8fUmm8LYdXAPC0POJ/o5VNqxPn0nKUWggrBIywtbK2Hw/i5gjityTzSvEZGVaNIXgQYEkRbuxYNSg58N2xSM5FDPilwXERmTpiWXJEBaWlPGsHjVEgii+BZWE9ZRg9e6sBbVyHVh3XBrFHBLgcq/NeWTLii93aNaAlG4RORGrmeXFlYsjM9sA6wREdmQ7bFe45EmsFFou6L/ZxFoC3CYUUUct7ZtXga3SAQXJQUhVSnXhRXki2CkSbd78Huv+0SgDcEB84/pNQqljai1dR3wsyBP1D/Na0R8JVwX9TRzWTaqbVO3dpFCKOXKqiQQBxm1qqJRtm1hJVkYdRFauWJo1wXpifrMZaHDEPPc3xOIi9dEoC1BkTQqbJKf2Wb2nG89xIuiLogztOsi54RLNnIQBKQTtnwuRL3N13NFHZEi0JrgH9K3sJoV8Vsx1hGrkCfqIuQQ0VRDui4sCdbGSEEnZURWvjTpvkVKOCX2HVVJIGpd0aHiajY9bCxMrp6F1hjKdeGybBGVESKyKOg6G08ykkEmaaAdQKIwEsqbLpEiW431iepZWIahXBei3IRyFyGIJlPXBqFLRmBVEoh/QA7Wg35lQt9NwLc+irpso8YQrovORgvLuX+u5JLmgCAZlnCMFcHVEYjcT1Rpp6gaJQBzQCvlXBdaqm/XhV6xFTQQKEcICJXmgLpIJgJtAURmNPFJcXPd0JbDRC9FbhC3wQH2+W2nhmV7q7GeOULw/2WCGuuDtRp7MXl1BEJ4RutxSbitO8xHCiAqTEIoNEdfristR3AROUaE4L42328kK1lvWxSBov2D9vo6IFzPNZvxel+uK3VFCPUcISwpOrbWWQyBoko7lieqzEcWgUgmcl0cZF+ui5oaZMDqdBECF2W5He49ptZZBIHI2PotrKYd1mnwwsLkdgXlckubgHSAlSPQWLRi5HJAJqhtJGiqrbFVEYhvdlSBhzzR697C5FohyMPsuoQB64F2IcKC5Dmrgwu1HNCUtM4iCMTBRO4HAd2VYOMw+TPR3yUi471dXJf1SDNKnXv+BT8fAtsq4KlpnUUQKDf9uWqEh8PKbcxAO2370BMSjhY94R5zbSRYJ1s6NVWtsxgLlNMdXa4l57pwidu6LtIAhPyM9nTNxJObIgc0da1TPYGItKLDRqhGlXkD5IkODetB++qmbiR1RRA3RwiskT2nbA5ap3oC8Y2PWlX5huemFbAwuUgIl7Op66K9g9JCrnPRwHtYp1VhvAhUENSu7NuONbKsc84tYGFy7glrsGnfEESl2k8mvKtlFkFNJNaVPBSBRoCtauFX6kX2WKecsKZmFhELa7DJw2/5cxRXIU9Xsz7WCYFsWqeWbR3VEAgBTXIu7QvmGx4RCFGbc10Qa13XhWvknlT5uzaP0W6KUCbSqsHqVEmg6CnMHJhfIoXFyLkuIrJ1K/YQDa3TNWPPvSCXCeoadwRVQaCu58H7BGJXu+c6gtaiM7RO1+O5+UzoHML4mpcsVEEgDh1iUEhNh+z8bDwWhiiJxCKuh/etuk5Etsp1oXH4+6s2zPM+mgirU9tSzWpdWJpfoe6FhUifjwrJ0k4+uxDAWKmuh71Z386qniLuzc+jllXzVrKqCdR1uF5kW+kgNyoDIBfEWbWQE3GMuyKCq93qLJJApl88iShc5lwXuSD0zqpORkQ5icFdl1aJQAMfvjXMo3UQqERBdlEOQNvgQjjQXCbYkyjqMLRyxCqtY5lnIq1at7DOmkAk+nAduJlUHK97oUWiyAoSmZj2yUSa0sgWr5qvIpcEEWt67kVVBKIAmg7N7XKRD/KJQ4jjXZO5IgQ4V+S6+HtYwdz7ItDI4FCiaKmPK9e2gUXC9fk/72fLbXZrVXejCDQSiGTIn6wigj0uEqLhiriIgGxmquvCeqQuDQGds3Sp1SJSozlsTs1eiyIQmiLdLhG5IQ4RK9CVLUbMoksIvf36N7voMkx/BtFWRD5yOQhlflZXnkgEGhkcVE4kQ5xtn6rst3mlF9YkJZFFVN7lkU0uvbBABNoAuISoEAqhENK7tnhy+DaY569o1IeoD9JhDW0DmDBRAtmocKRx+iwFIJJzwjwSxAh5WZ0ZEIi0vz9Qvvm5Xp1dgCWxYT2fK1pqEnDWBLJnTfgDHbIcAFGI1vw9oweyCBMnULptIq2MDw16cyK91dXbI0yMQOgLb33QPaWq2FHSUFZoRgSi1uQPsNQjAixk9wRGzCvimgmBfFhNwq90XYnkYJQ4FCZOIPI6/uDWXf7UJxDr/nOQ6RYmTqBIxOLSSgO95Usd0aMMhIkRyB65nV5j9dT4Msema4CFEQiEWPYEGmvsxWsxKvzCxAlEgdITaKwWCV88FYFEIBGodgJFOaCxwmdfyKV1RJg4gZh08ARaNf0wFHwT2TqrgIWRCUQR1RMot4JlSETz9LkF48KECAR8/mWMMkIUDa6aPhUmQiAvXscI5W0ranptu41VBCoMvulRo3sp0Cvt7w+phZkQiMauqA+6RDRmz0D19951E70IVBispPOHiBYauicoui8lDbVyzIxAECUaImRxwlCHSQU+mhUr9Yx1EahnRDkhq4r3TSLIE/Vg554vJsyAQIDVKBGJ2JzRlztjviyyPLguje/MnEB8+6Ow3g54lykNwvJolMe6IGtefrkYApkeitbPpdYId7fulCpLGhhJzo1L87o2bFREICMRROnarMHQIfqI1lNySeRzCP0hF2E4kxVRgtBPf3Q9PUeYKYHMnWE5htgNZGkCrWepmEAGLERuIcI2F3on9zRDoUICmTViOwZNXrsQhyFCWZ0FEiglEtES2oe59tzSqHQ7Pc3xaCKF6CJQKLaJsgjvEdJ24fawNEoKikCCCCSIQIIgAgkikCACCSKQIIhAgggkiECCCCQIIpAgAgkikCACCSKQIIhAgggkiEDCovA/5wrpROQ64IMAAAAASUVORK5CYII='
p25
sS'version'
p26
VV1.1\u02e3
p27
sS'uni'
p28
g13
sS'desc'
p29
g13
sS'browser'
p30
V\u2604
p31
sS'annotations'
p32
(lp33
Vcomet
p34
aVobject
p35
aVspace
p36
asS'wind'
p37
g13
sS'andr'
p38
g13
sb.