ccopy_reg
_reconstructor
p0
(cemoji
Emoji
p1
c__builtin__
object
p2
Ntp3
Rp4
(dp5
S'emojipedia_url'
p6
Vhttp://emojipedia.org/trophy/
p7
sS'index'
p8
V681
p9
sS'code'
p10
VU+1F3C6
p11
sS'apple'
p12
S'data:image/png;base64,iVBORw0KGgoAAAANSUhEUgAAAEAAAABACAMAAACdt4HsAAAC91BMVEUAAABKMRFWPhtEKA0+KQ83IRWZjFxOORc7IQlUPBobDgYYCwMdEAUnEgVdORBpTiFoVzFcQCFYQyRkSyUVDQkoFgd4WSdwUB06HQ5XPi11XjcYDwkXBwEyFgVnUCZKMh5KLAw2GwZNMhFHKQxaRCdXPBaNgVMjFAddQjEYDAdBHQh+Xih3YDVqRxhRPSF+Zj1TORaYg1ZuWTsPBgN/c0gVCgV0YD2fkl4JAwFmTSEfEguifkF3RxVnOA9fRB5CKQ1ZRCa1pnd7b0kVCQUpGxAZCAItFQeaaSSxhjLPtHCWYB5aPCrivmywij+TYiCwkE29jz63lEzXsmCvfiqmdifMo0/exYJsQBPCmECrgTG9nFYRBQHVs2iibSKKWx3VrV3KrGXDpWGEUhqBWx6Nbjh5ThmhdCl/RRQgDAP43Yv15qcmEQa5hSsKAgBtSjVrPiBbLw3hyonQqFbTunjx3qCnfC2nbiFPNCTawYFBIg3lzo0vGxD11oL89KCggkTr1pc8HwzInEuSWRuZeTzo05PAjC3IrGrMmTZmRDB0UTvHo1XCmkhJLh/2zGbfuWnpxXJ4QBPz7LHColzwz3vQw43synZ9TRhVLw374Y2ghE1dOCH202zz04FrMg22kELYvXq6qHZhNA7ctVGceDSJZCRfPxaGZiyoezeUczSDZzOkjl2Wf1Ooiknp4aa4jjmYcSeseSbXunTbumgyGAh6SRd6VT5fNhzdqkb34X4/KBuiZyCecChxMg345ZSAWkPpxV62fif38rn47ojzw11lOh2PUhnqzGTTq0u+m1G8mE3IkS/qulWJTBfh0WxwQSGPZUv76paFXUX47qZaMhjQoT7u3JX33Xaphj/354Q3GwmMYCDhv1rt2565omb89Kqwl17Hs3zo1Yu9kDbdwHb14p7cu3BIJg/ms06UaU/dyWdULhZnPB7413B1RCR/YCpvQyROKRP03o3dt17KnUGIcUrWoT2bb1ScYR2LX0WvdSX/+p/77Jx8Tyz6NdvHAAAARXRSTlMAl45HDv7cBTNA/So4GtfMOyBms3BC/P6X2+1gj42EvKyhbtcs6rNV7qDw4M70U/mw/ojtjSHf7eCZzfX2o9FvvuNlv9cpYx5oAAAHaklEQVR4Xp2XZXAbSRqGx7IUS0aGOE5sx3Fy4d1sNrdMd2JmZjIzMzMzMzOGmZmZeZn3+H5cj7y7FWutXKKnVNUz0/M++vpr1dQI+g0rZ5dtXtscXBAYx8+2bl29evUSmD8DDAfgwtatnzliEC4OXl7bXJytICOQn4x01tY+fNCUk56ePjpKpzOZpwAnAfDIZNLpo6NgKqfpQefD2s6RT5BGAouR2rGqqrs8ZRyBQBAK4+J0e/AAGolEg8c9urg4oRBMcao7MoKrxmpHLBbmV3nlx1ZVjd1NJhIEJ7rvHDgO+PLcuXNfAuABPj9wp/uEgKDg5YJvis33WrVAsFITEztW+2nnw/wBQpYkKiP26eX7af/+nfv3LwfHZkRJsggDyoedn9aOxcZoVi5cQc5URu0Spy2/NOHj87i83NjgQ4cOpaVdbAwKaryYlgZOgmNzedy8eHzTL1ucltRmTOUsXMMbOVPJnVsgaBPCgXTw5yfJGbHBVZcPH975TVnZNzsPH75cBQpIfvLzQZIDYhMEbelMnsp5w0ggSRx2hFUY1aRAEpV7FxbcvN5SVtZy/SYsuJsbJRFMqjBwwHE4UWIksNAoYt40tMVpozRPzoNLCL4JCjhyBJRwMxgugCfPk250MrT8zRiFZuESPv6umjgvsLKnhXI7YMPTnddbjgBaru98Cuc7uKE0e6t5AbH6u48XCNAb6cRhZ4PLV8YuISZG5WZcS20pO3LmzJGyltRrGblRicQStszXEHAeJtI3ohcIrHwGlfc2zO+oNv6xIiYxKjm35viBM59/fubA8Zrc5KjEGMXjeO383m24pxz0MfoxW3rQ740YSkDz8aHFRNhQB/I7dgBDHZwnFofi+WhDASP36B6WkBG+Q/QHmzGGJsgmSxTAwKPc6d4B6L5D4YG8omRSZmgBZvMD+pAvZIxdgIY+7LUJ3pF66Xh1PjGmY7p7x98AO7qnO2KI+dXj0nq485u8humaADvoD9gGaEabNiOQkCWfxD6pzCcSWSeuFgCunmARifnKk2wS3xJCIjY3jWoCbKFFcAsYSk8f+ggD2cs47SKlIj/6asFpQMHV6HyFUtTOkdlDmI/gewLcoEVB+7sP9vR7ID5U7SYwRdXK4oLTeYDTBcXKahGTsFv1IcKjv2fQ3R8NmQDp16fuva3+QE/iUJkiUUleqIG8EpGISeWQ9B+ob/eq+/yQkGnW+PdpVSr9MbyQSme2hx40ENrOpFOF+GN6lUrb578Geil2y9d18Sv12TrhDSqB/S8DbAL1hlCXra/kd61bbgf9P2z8khra9DTwDIvjxBvggEMdTd/WkORnA70KaO91kbO0PTqddLcBqU63hzYbuc7bqHkvXQgw4PH/+BU8HuRB8a+DZ2T9bRop2wCJdrs+0hN6TfwitbLsYwayZdpIP+i1Wd4wqzprQAXqh8zAMxLsJ6CSD+o3B6R/V1vb3r1tbV3+SMgs3CIr9wIqI90gM/Gd1VdW6md9IXOx1NLOnqVpLc0WoNUcEomjRpstWDlBkEoJEyvNzTutpzI4HAZ1vZN5eaTDjSwGm80ovuFg3jY6D4nkDAKBIRcNOZslwLgzp7kMBnea6W7mPqx4/xklK4vy7P0VkJmsl9TI5TWS9ebmMXwdY2CAoeNjzBS4yIRsEoktlLmY2QI1VSDgcAQCqtqcJqxy6W2Pjs5is7Oio9t7XVa9XtrK8V33nmIWi8sAcFms4h73dx2tXj29YkP/IFNSLudGsygUVjRXXi5hDvZvWPEqDisMwqE/Z4BaXE4pp1TU1QDqKijgpJg6kNPvgMC81GFlaWHv0dtDPVUip9TVtKamtraCDzzW1FHkJaeoPb0e9haWph3o53z1hFAAKq9oDTKitQKsRSCcUPOfo00LGupJnHEua7oiNWifEY2pFeUs7jiHVN9gWmAb0pUtZT/OAgX8uO/if17g4r4fayjRgtBJaXZXiK1pQZgY16CdGOf+VFGT2ggMaWlpINwYlNpaR/kJ/FnAaxtw4jDTAhsxFosNxCX1uWuaRIopXtSja9cePeI9eSappqdrPPqScIHgBrGNyby3GBsYGILDzczcSnr+w1dHI77/L+D7iKNXfniedGtmBocLCQzEir0XNyDXWmPnBTO3MuH8le1HI84DIo5uv/IVMGTempkXYK3XIhcRLLNOSQnBYl8UfB1x/ttvz0d8/aIAiw1JSbFetojAVYxKSChF4UJCcKYE8ByqNCEBJXZdTBAmTiGHhxeSS5MyMzP/KAAXk0rJheHh5BRx2GICt7AwMRZFLtp/6dIc0DQ3bwc9AAK4B9ubm5sLw+fAVBEZZS0OC3Nb9B3xHTFoYkopuejShS8AF/75O7+ezxWWpoAmit8x8a5o5/0W1hq0aFcCObxoPwj9/Te+uACqIifsQqWEWGPf8n4bMoWd61+AAQUM5MKiuUsX5gHponDyr/n3XEH8ZdgsW/sealdpAmhX0dx+AyBeSE4o3YX661pXW+hVeNt2jaunj8/SpUv/BACDj4+n6zI3m8UeBP8DFKuu65XZYpoAAAAASUVORK5CYII='
p13
sS'twit'
p14
S'data:image/png;base64,iVBORw0KGgoAAAANSUhEUgAAAEgAAABICAMAAABiM0N1AAAApVBMVEUAAAD/uT7BaU//rDP/rDP/yEr/zE3BaU//rDPBaU//rDPBaU/BaU/BaU//zE3BaU//zE3/rDPBaU//rDP/zE3BaU//rDP/rDP/rDP/zE3/zE3/zE3/rDP/rDP/zE3/rDP/rDP/zE3/rDP/zE3/zE3/zE3/rDP/zE3/zE3/wEP/wkXBaU//rDP/zE3/uj7/ykv/xEf/tjv/yEr/vED/sDb/rjX/xkgD4qG6AAAAKXRSTlMAv0Dvv4DvgK8gYBBQ3xAwYJ/P35+PcDCPcN+vUM8wIEBQgL/PIBCAj0vDQ8gAAAJNSURBVHja1dbbeppAFIbhv4VaSquBYoPGDQQTNXG5197/pbXOhKwZU8IayEnfI0/8npnFMA94Y7pQ+rNKo0XUQ63+WqITocZwLXRfE+pIQ3d4Yx57VNqvxfZUSkLVST1iR3noSCy+rCchw04e2pGhAAoy/ZaHDmTKkJBp7YBMA9DHhPzXUJHjL5cQgCwP6EUZugWcQ4p/FULT0NgO+Y1DOSnJS2jSNhQgabm1sDyRASk5v7NCHSgxKWMUZVGZyUMzKBNSUt6jspSHlvrqIO31lwclkociPWt+WF751l08ykOPuCj4HvHLaSl3Ljck/7vg5sBxSEsoHj/0sXW2790u/5R4MJn9tnWcTlFoPiqyjmRfFupDGZjb8a2LZCoLTa3jODCrMbQHSecBGt9mvM8EWiQ/jcitsaT2tHsdwah7UG5Jm1vrG0Nb1IcW0GLejDHtgJckXNDcs+/XAWkhL0m2oIC0AvZOqch5SbULysY+8VB42qaj6POBZeAhWc6H9zqHMzEervVlI/pM2pPN0wviMyn8vNldd1IY0oQsp21VZ3siS5LCFk7ItKkKbcg0CVFn9O/OCK56nYoj5GxacQ25iypuD3fD684QDfWv7+nGvtj7ai7fb18P4ie0ENL5SXeezj5aKIjotHl+3pyICC0EZJijuQkZcjQ2J1OBxsZk8tFYTKzVkDyyhM13ZgtaPnyWoZGMrhXNR23zHMf9+efqXd0fws6qlqzUrQ91IbES+A9DN92VUPdGNui2A185+PZRoe+SUOuBf5V3fsHyB33RDaEJV054AAAAAElFTkSuQmCC'
p15
sS'gmail'
p16
S'data:image/png;base64,R0lGODlhDwAPALMPAM6cN/3JY6kKAPECAOG9VLyLJAICAa16FJZjADwuEqZ9Kf//nZ1DBP7cdu+/WAAAACH5BAEAAA8ALAAAAAAPAA8AAARXEMjjVgsBlCPle5SFacfngdWVbab2IOkIfMWMMEy8Ivz3CAKAKHNA+HwDBOGiMR4/g9dh43z+oi+rT3CsPrnYrBb6USAUY58hwTak1wqAIuHWGu74+icCADs='
p17
sS'related_to'
p18
(lp19
V\U0001f3c8 American Football
p20
aV\U0001f3c0 Basketball And Hoop
p21
aV\u26bd Soccer Ball
p22
aV\u26be Baseball
p23
aV\U0001f3be Tennis Racquet And Ball
p24
aV\U0001f3c9 Rugby Football
p25
asS'name'
p26
Vtrophy
p27
sS'known_as'
p28
(lp29
V\U0001f3c6 Winners Trophy Emoji
p30
aV\U0001f3c6 Championship Trophy Emoji
p31
asS'default'
p32
Vemoji
p33
sS'bw'
p34
S'data:image/png;base64,iVBORw0KGgoAAAANSUhEUgAAAJAAAACQCAYAAADnRuK4AAANqklEQVR42u2dL7QNXRjGbxAEQRAEQRAEQRAEQRAEQRAEQRAEQRAEawmCIAiCIAiCIAiCIAiCIAiCIAiCIAiCIMy3frO+967Ha++ZOefMubP3zPustdf3uffcOTN7P/v9v9/ZaQKBDbATUxAIAgWCQIEgUCAIFAgEgQJBoEAQKBAECgSCQIEgUCAIFAgCBQJBoEAQKBAECgSBAoEiCfTnz5/myZMnzfHjx5ujR4+2Y9++fc3Ozk5z7Nix5tatW83Hjx9ntQhv3rxprl+/3hw6dKh9Tp7Xnv3kyZPNixcv2nkJAvWAiYIkTGLX2L9/f/Pq1atZkOfhw4e9z8uASCU+804pUufatWvZyTt48GDy58+ePauaPA8ePNiVrjoOHDiQnQskcEnSaHIC/fjxozlz5sw/E3Xx4sXm3bt3zbdv39oJ43P3799vpY9O9Pfv36skz+fPn/95lsePH7fPCXju169fN6dOnfpnbs6dO9f8+vUrCPT79+/W1tHJOXv2bPP+/fvs33z48OGvHYrt0IUvX740z58/b+7evdtcvny5vf42Bot65cqVVqq8fPmyl9inT5/efQZsHwiVA0TSzzP49+IJdPv27b8mhUUeKvrVHoKIRq579+61RGHn6g6fYkB0Fvrq1aut9ITMJn30cxjRQ+DVPPOwWAIxmbrAFy5c+Eu38//sPEjlvS52t/7t06dP279P2RMlDe7v0qVLLcntZ3ha/rlR3Tw3//W2oqo05gBVt0gCqUhmEn/+/PmXW2suraq2r1+/7n4GKdO1WEeOHGkn+/z5861qQdqxYyEb3gzSiuttOj59+tQSneviUbHwqFW+l3vu8ypV6rJRvEpnbnQDeduJjbM4AnnXFRvFQAwop3pYFAN2hv/9iRMnWlXBwjLReGkYpiySLSzqhOtguLO466o5i9XwnRAFo59rM+7cudPeB9+PhEBi8v181l8HIhtSvzdV+Pbt293PcS39PXOxKAKxgOptqUemLjuLi8hHYhAjYqg4Z+HYsRpcRMoQMylJdXGfFsOBMDdv3mzJy7Pp80A4nhFCeJXMc5qq47+Q134HaRdFIFVPSJyUkQh5hhqXCuwGFii3m/d6oEZRn11eVg6oRSURkjslhXjWxRAIm0EnmH+bS6/uOXbLULADb9y40ZJHDVIkGteHiCwGxitqDKln7jeSwNIGqwz+DjVo6ovrsqioTCQIhFG7jufj52wS1NtQcH2bE75PXXsNtE4VXNxzAjHBGv9ITcgQsczvzXNDLbCAEJDBroeALOijR49a+2GvAo4WAESVYgth7CMhkKgsNPeJBwqhcCQg9lACIY0s0EggMbURZ08gFb3YKgYmVicEcqnX5YOJJtrVi2HHsyDYRBCI4J4lZVUVmIfG4mCHmPG7yuD62HKQAGmk0pN753uRGFwf6YijYPEqfV7uLUduSOHTGpq+UXtRjezFEIgFVIni7QcWhglT8czuVhsKYgyVLuxedj+TzXWRTuahrTMsLICKxIi3tEsfMKh9yIFrqJHM/fFzPydIcIMa0oskkKop7IKcIcpEsaNzSUaIUBO8tFV3nU1z+PDh7FywgQwaVFwkgVA1BvJfm3g6NaGLIH1DI89qHy2SQOpVoF42SUWYcVk6fB5s1dyaYpEqTBOhDC1L8BnnoUMTqqWD+1w3+q1pC2w5/V1XBcOs40AaLFRysdv4N5/HQCU46Ceez+Ai97nCpQF7D5vOPw8SmFgVz8vw9U9q62Fkq9c31QaaJBKtCUNcbRXvpsYs9M9E5SoSNbVRI3KOA4QwlcQz2mZRNa32z5QJ1UkIRFxEJ0yzzYTrzSgmrtMl7kmDlFKZtyp4Ni3rSIUw1NbRhLN3OKaUwJMQyEedidZ6QxOwC4fYBkw2rjExEtIZJRnUqBY8J1Q1hCH4mFJfqWHwAVVNRiOxNWWyCAIxqT5IZtV6iiEEwjbCViIkgDrUqDPuMv/G22PSiTtZzgpJx87ddKCGuB5S1XJsRNj5XlO9kIV/8zvuk+/mXocSSIG0Vm91kfVAgMnvy32x8/pc+5z4RrXx94h7iGhFX0gpFpHvYxE3rYVGenItMu4YuVawxnf6hGounJELnqagEXvmZp0s/ywIRLhe63aYjNS5p1SKo5Riqm0Y0F314b68Y8o6oMkJBDQpaiTyhCDPlTraMnUAbWwJ7AvQvB3nyYNazCWbF0MgkKpt1iIzs5lyksh/thakVBgE4ec+ppM6gIjtVwImJ5A/ndFFDFxZX6SuJbE1wUfdUef+FAZIufrEiab0vIoiEMDFTWXa8TBQab5EAk/EdiXkqy0WhFvPveOlsSmItvujPTy3Bgu1+lAL8YNAQgp/lEc9EgjjXX12LBIpFQIoGWwYUjCeCDwHEidVB2RhiZLIUxSBjERdpQ7sWqQS3lqp7U7W8UaRNsSpukIWBB9LMJqLJhBAtxOU64v/QDSkUq2pDAxlDOZcns8nWEutNii2QxnSiEBfH5FQb+sc/5lS4kB8reXJlajgeZaunotvcYfBSei/77BgX1ePEoDq7TvqzHMQ8ynFy6qeQArC9qQMckamL5PFyCb3RYphr0L+eFR8H+e/1GYh3NDVfQypVKKNMysCqRqAHJqVzkWnNSGL2kAt4DqPZTsRMSa/BmGU2FqiosVfOvib2vs9Vt2lVVMcaitpkRpIGarEnTjbte6BQxYeqZIKgvqWLb7jhg09Gx8EmuLmXVKVBUEd+Hxal8GK1Fj1VCfSLxez8ocFAFWFkJ20jZ7MzWXcg0ATEAjypNQSKRGTTpALGyklMYYarRj1njxcH7tHY1gpz5Dv0OhyEGhi+OacLKzV51i9T0q1QSqfOsEeGQLvDXIdq83WjiAW9LR7geBelYYKmxjYL6v0AsqdarAF71Nl/kiyP6veV+PjD0PWcpZttgQCqK2+dne5Ai1fVuprs/skXqoFTVe/a/27WiPosyOQ2jo+SIf3QxwoVSYBfJs8pFCuaSVJTE+EXOCS8lnUlo9XYf+U/NqCRRNoXenlbaHcWTPUnyfnnIgQBFoTvtKRplApYBDr57TdXBBowfClpblCda8ea63FDgJNRCAfjAwCBYGCQEGgIFAQaGJgNK9DoLm88C4ItCF8EDL3xiAfdMx5a0GgBYECLp+fytXn+KAjcaA5pCKCQGuCzLiv0+k7pOhPjCCVammtFwQaEdYl3qcm+qoDSZek8lpBoIWBMopUeekQ+Ij00u2hxRHI57RWfYktqi/VLaT0EyFBoJHgF5/C/FXtmBSJ5lAcFgTqge+tTDHaukYwHpgW1E/dqzAINLKHRaTYD595X+W9XUPsIWyh1PfOpXhsMQQa+rbCTQ/ypd7b2veu1yBQBdJnyKL6s1vrhgP6miNYT58gUCVIlZ7m2gOPgSH12DW9DGbxBNJgHzvft+W1Yz5jvSLSmqZzpMh/lxrZc3XzZ0cgfY2Ctz3sVUukMMYCahDyQFbvhWmqRI//BIEKhmbNIZPCSjfo8DEmSGf411F6L027hgSBCoYeO6ZlisJqesZuo2LeGN6fGuZd0jAIVCAwVHOvQdB3TBA15vjOppl04juoJpN6XF87inFyo9bXci6SQDQ0yL3MzkikR6E5EwaZMLyHGtV8DlWFelIjGaPZZ/P1+DSfneM5slkRyL8+IKeqkFQsLhn4vpZzXa+YQkUhyXIuun+v11ieXxBoS9Cu7qiToTseoqVSELkx1Iai+UOuEUMQqEBoUA+3mvrmqUeuf2MQqED4HBhqxvrzTDF8CewcqxdnQyA8Kt9TmijxlPASaI6e2GwI5F8nvo14z6qgG6xvHj43T6x6AuE6s9N9UtMb0bkaoTEHfYj0O70XZnYQ97tud9gg0MjItbjz+a4hL7kdY+jBRO+F+VdZBYEmBt3Ehi6QxXu2pdasf6I3lFPvQTMJOYczZVUTiCCe3/22kD6Ragb2tlQH6ivVI9o8Q+qU/HGiOZR4VE0gisJ0QVgkS2doBzFVJduCFez73s/2jgxKSbTJ+Bg12UGgDaGnS81otvyTJlKtDmibBDKSch8pkkNs7ynW+r7XWRAIr0rjPhZjsXSG9u+xqkG6pm51Mv+/F7VtrHc0xIbgmoDd9v0EgTpgpPBpAuvTrO16rcx1268WsAJ7fbWUxYKsNsm/SLf2BGu1BPL2j0WdcdfZ5QqTSrj8eGHbGtYXWstILBZkZ++phsx1zw8CTWT/qHeFu47no9DKwL0YmnW3Ijezd/zrEoY2dQgCjQgqAdWW0KAhP/cxIMjFQu1FAhVV6tMVqDYInwoujlngHwRaMebis9wQa8wzX2MB1akGs++3WHNao0oCaeGYGqhmb5TWRZ4Aorr3/oz+1FUDiyOQ92QIIKpnxo4voZjMhhnXdm7MBxTHPmYUBOoA9oWeR+f/zeZAhWFroCJKG0gdu08fUPTveA0CbRG4y13vJ61lE/hGD0GgiQiExNlmbGdbIwhUCIHmMIJAExKIyfddMWoYascFgSYkUO7VBDV5kkGgIFAQKAgUBFokgTi8N+XhwXUGqRfN5QWBwgsLL6ymIBzNmuZEIH8AIAi0ZZCy8PmwWoemOIJAgcUhCBQIAgWCQIEgUCAIFAgEgQJBoEAQKBAECgSCQIEgUCAIFAgCBQJBoEAQKBAECgSBAoEgUCAIFAgCBYJAgSBQIBAECgSBAnXhP39TiKLOXS46AAAAAElFTkSuQmCC'
p35
sS'version'
p36
VV6.0\u02b2\u02b7
p37
sS'uni'
p38
V\U0001f3c6
p39
sS'desc'
p40
V\U0001f3c6 A trophy given as an recognition of achievement, usually in sports. The trophy emoji is a gold cup, with a engraving on the bottom detailing the award. 
p41
sS'browser'
p42
V\U0001f3c6
p43
sS'annotations'
p44
(lp45
Vobject
p46
aVplace
p47
aVprize
p48
aVsport
p49
aVtrophy
p50
asS'wind'
p51
S'data:image/png;base64,iVBORw0KGgoAAAANSUhEUgAAAEgAAABICAYAAABV7bNHAAAAAXNSR0IArs4c6QAAAARnQU1BAACxjwv8YQUAAARMSURBVHhe7ZpNSBVRFMfvmWzXpmhRm6hVCvogIjWqTZA7MVdRW23RxlXRohCCgsBdm6CUtrVTyE1ELQI/nn2AT6wWEbUSkqKFrXJO59w57zk+5+Vz7seo3N9i7rkz8mb8z/m4H6MCgUAgEAgEAoFAIBAI7DBA2lxgpQvFbAiiGotKs4PStUpT91dwNeqYGZXulrEiECL+pOYT2zUADtOPH6M/mKDOczlrFVD4OPveah8oKLG5XQSaikrlM/qkEM93jQKoAek6I/Pele5BFo9tU4EiaQMNcCcQ4GexdjQOPSj6JcaOxkggSZC7GlMPWl89CgE+iuEEZyFmUjmMwfioWMbYEYjGHWL5J7MYwCExjDETCNSfpEkGZfXwGEVMh/y/GJh6splACN/EooHhqdNirgHwQyxnZAuAbfpooYgYhhguicFinBVrDVTLYjmBhvFfxaynVVrjImIq0KQYBKwb7msAZsRyBH4RowbOd14EgAPS/S5tbowEikpz07W3iHhOtyk8VLJFaWvQ81wSk5Pje7FyY+hBBOIsN/zW4vnOu/pcCqR3KqZ1ANVrMdP08IHzT9RRHtFnDDAWCJR6JiardAUXTh6RXgLCnFhWYQGgVB6XriZZQaiF1wtpjTAXiB6yWs71+g+2PNAXBFDoZC2IXsYbsTSce+jYL10C1z1HXsxDTIPXqyWVROpLh5oWsHG1yQ/iglhaHLrHWNV7klXMuWl90RArAsnDPEx6/HLhVlzpGq+Fm+QpW+jwilYfsc0vY704vIBmb4nXaEWxHn5YFke6+h+hhnIBrNhcXdQhDeot/W4vh7Wc1gUBYLUX2t8Zl/cqVgViJLyupZKlF8iLJgD+DtkUh7EuEMOhpZM1jY1cC5V4U/TE1ZjLiUBp4krnDSr1x+lfaaPkpHc65FIutCDJCJlG0ThpKxk3wrlAadK7DXmgHPOSBn8XpOsFS2W+OTgMyAOeSndLcMKnBOx8G6kerwIxVJ5v5pp+gLpvOwE3g9cQq6KTeLznQ7MJnLznXlQq35auV7x7EMOeQJ50ohlPKlIcphAPSsMTTJKhv96buFrRw43UT0h9U7hATMYIfIo87HIROaee4j2I5mz0EH3SraGrllIDRXtQITmoil6/yRCH4ZBDUHc2rC95pjCBeBdkswksbydh3DIs3UIo0INgSIxNSC+C+cdbDkr2zaI1jwF1nm7e1LyMZ+p0kC0kXPJZ9v0JZDgPq8IVrv6LMpcUmqR3AkGgTXAeYhxaFBfddKeDjUr6VtAbAKhese3q8+I07gVy+LUrdMw6f/4QYptQmAclM3ngcFlWgCv0ripyiYj3J8u0jP6UpTVracSHB3kXiJdNKScNb3UtOWu3ZLeG2GKehXa9UQjwW7reKCTEdHjxRw0AM4DxctaMPdk62tujP8gEaCev27CFtCtDzCahim0D3HtQdaDoAB8DxUAgEAgEAoFAIAOl/gHKxMV9oRTFJQAAAABJRU5ErkJggg=='
p52
sS'andr'
p53
S'data:image/png;base64,iVBORw0KGgoAAAANSUhEUgAAAEgAAABECAMAAAAV8YMOAAAABGdBTUEAALGPC/xhBQAAAAFzUkdCAK7OHOkAAAMAUExURUxpcfzCG/zCG/zCG/zCGy8vL/zCGy8vLy8vL/zCG/zCG/zCG/zCG/zCG/zCG/zCG/zCG/zCG/zCG/zCG/zCG/zCG/zCG/zCG/zCG/zCG/zCG/zCG/zCG/zCG/zCG/zCG/zCG/zCGy8vL/zCG/zCG/zCG/zCG/zCG/zCG/zCG/zCG/zCG/zCG/zCG/zCG/zCG/zCG/zCG/zCGy8vL/zCGy8vL/zCG/zCG/zCG/zCGy4uL/zCG/zCGy8vL/zCG/zCG/zCGy8vL/zCGy8vL/zCG/zCG/zCG/zCG/zCG/zCG/zCG/zCG/zCG/zCG/zCG/zCG/zCGy8vLy8vL/zCG/zCG/zCG/zCG/zCG/zCG/zCGy8vL/zCG/zCG/zCG/zCGy8vL/zCG/zCG/zCGywtL/zCG/zCG/zCG/zCG/3DG/zCGy8vL/zCGy8vL/zCG/zCG/zCG/zCG/zCGy8vLy8vLy8vL/zCG/zCGy8vL/zCGzEwLy8vL/zCG/zCG/zCGy8vL/zCGy8vLy8vLy8vLy8vLy8vLy8vLy8vLy8vLy8vLy8vLy8vLy8vLy8vLy8vLy8vLy8vLy8vLy8vLy8vL/zCGy8vLy8vLy8vLy8vLy8vL5V4Jf7DG9GjHzg2LvzCG/zCGy8vLy8vLyorL/zCG8WbIHZiKPzCG/e+Gy8vL/zCGy4uL/3DGoVcUjw4LjUzLv7EG//EG8ygILGMIoRbUv7DGiwtLz46LSssL4NaU9GjH21bKTEwL5tuSPnAHPe9Hf3CG/K5IPrAHDQyLv/FG9eiLLaGO/vBG7KCPYlgUPC4IJRpS+myJKt8QMKQNsWSNNWgLal7QY9lTV9RKnxmJ9CjH86hH4hfULKNIoddUV1QK+avJfO7He23HNymKu24HN6pKKR2RIthT+u0I59yRotxJsufID45LoVtJ0hBLYNrJ5B0JWNVKtmpHr+ON+62ItOfLpxwR5ZqSnZiKGxbKc6bMDg1LuCqKMKYIbiIOk5FLN+uHmpaKemzH6h6QoJZU+OtJ4pgUB1LP9sAAACndFJOUwD++xQBAfkj3QIy9/318sPlispk8VEPBAZ/0MbpOe3j8MgJ4J4IBSzrYXjvL5d1P5UcEBM3nt0TwCLP/B/1rBeEvwv+uBnYOs4biDXnDo2UCaQfFrpMvEU0pIhXdHPNn0enWhcp9GDeZkPB2txJhSfTfO0Egz3WiwzUOm5xoRAmJGVGG/B6BU253nHFsCqdVKtAM1UsxmznBvl7Y9XUtTaVGI9T9YHtFoSNqQAABUpJREFUWMNjYBipgIXTiBkMjDhZyDbDsFRY0C5EWggMpEPsBIXdDUk3LVhUV4qPcQUKYOST0hUNJskYZmF+3hVYAS+/MDPRxnAmhLGtwAnYQvQ5iTNHtVoAqkXOLSxSN08SCPJ0E8Pc5KDGywur4XWHvUlouI4RA0OaAkg1t4e/JperkSrUds4AI1cuTX8PbpCcRjQDg5FOeKiJPRa3WTpIyfBpC/DryQqBwlUx2hVLDLF4JimCYoDfW49fQJtPRsrBEl2JuyIsiuRBHlDmwuXwCGWQp5VhEanojiptw48aoiJaOOKGWYsPVSW/DYqTC3nQ44Y/xiQYzXOcrrJa/OjxyVOIrIqZHzOaGeWkEx00cyN06i0t83UicjUdEoW0GTHV8SO7XUcOJMRk4aUigOYw7lQRZTMzeb5UbjSnCKh4WTCBGHI6SAbpg1W5eHJK6MetwAdWbd4MYcTpS3B6uoDt0kcyKBNkEI8eOPrccBuz+cCJw4f3gFhu4MjSA4UsWyaSQVwioEAxACUvljReXObcendk9/Hdb1cBc1waKIQ5DUBBJoKcUmwKQAplkkBJ38gFl0Fnr27ftH33CaBB88SACtWSZECiBcjxL24AVqntpw60SYsRuzl7T29fvXr7eaDXeGKBLlf30wYLG4gjJxFvaFJNF1RnEU3FHs77H21avXr1G6CDRBJY1AXTIcLK3qhpTVgEqt5MqzQdu0EPTwINOn4HGG3ZJlpmsCwgjJZvA2I1oFJMFtnYo+zmg9WrN4GDaC4kBYHKgdgA9EykJqoIS3JM2F107irQoCNHQTEOS66KothKJsMMOwEePGnxDDCEjh9eBc9kAnYZhjiKCCcuSXmcBu0BRtqm9ydgBilLcjnhKyejwXFqjcVBp0BhfQbmc7nJBApse1BeS03ETN2rPl9fvenDqVUr+GpBySPOnoBBKaDsX6buh+Gmvec3rb5+FhjAXilloMyfQsCgBFDpriJuroJm0uZ7FzZtun9ilbWKkbgKqG5IIGAQFzA5KQOzNrMBavlz4NimTSe/rmJbBCzG3IHZQIOLUKUWI+USCkqsvoLcyCF078L2C+dWsAlWgLKBqIVUjCqh6lHcqALC8BVMRXbQ9t2Hj/It9YXIVRiJk9AAcNKTQxRFR76f2qdRrUpew0ZCWBtm0NG9B1Zpa4qT20SSEIRnmX0reLzUyG+wmcggVRtcFLT88s0QBmVbkm+ORCxSEuCukSDTGFVZXW2klLRK29+bLKMM/WWQC5Fzd/bu8/HzJN0c80SUyuTA6f/HTqziqfUl2SBRbrTycdNqYN7nyyTZoFmMqHXR+e1/jxxYYZ1BmikzkpNnp65btWof3KCbf+4f+7du/bLFC42LiTdHKcrKas7M17fv3oIkanBu+3339s9vSyqtrEqUiDaoqmj58uW7nt+4+Grnzp2Xnn38BKR+Xbx448eXlUCJ6ZOINmiaM1D98pVbtmzZtm3blpUgEkhv2QIyZvly50ZizWkLXI4X9BEbSs2V+A2ySibSoKYWiIZda9HALoh40UTizGFtBQfR8oMvrm1EAdcuQUxy7mIlLvJ7wMpXbt1xaD0KOHTlKSS4JxCXABo6YQZtRqvbdmyFGJQTRJRB/bZQgy6jG3QZapBtO1FBFLWckIuWlxAOH2Njdke4QYfWoYBDcIM6goyN8YbTlEBHx6m20ORy8OUGVPDk8UGolG23Y1ZgLx5flaMkvINr0MAuFOko3ImANR41Ca9EA6iy8XgMMl1OAjClh0Hx1DJoASkGleMrGrNyOIgEOVnz8SWkOnaiQR2NRpoAU+4U32XBKlMAAAAASUVORK5CYII='
p54
sb.