ccopy_reg
_reconstructor
p0
(cemoji
Emoji
p1
c__builtin__
object
p2
Ntp3
Rp4
(dp5
S'emojipedia_url'
p6
Vhttp://emojipedia.org/black-right-pointing-triangle-with-double-vertical-bar/
p7
sS'index'
p8
V712
p9
sS'code'
p10
VU+23EF
p11
sS'apple'
p12
S''
p13
sS'twit'
p14
g13
sS'gmail'
p15
g13
sS'related_to'
p16
(lp17
sS'name'
p18
Vblack right-pointing triangle with double vertical bar
p19
sS'known_as'
p20
(lp21
sS'default'
p22
Vtext
p23
sS'bw'
p24
S'data:image/png;base64,iVBORw0KGgoAAAANSUhEUgAAAJAAAACQCAYAAADnRuK4AAADs0lEQVR42u3dITBsURzA4Q2CIIiCsFEQBEEQBGGDIAiCIAiCIApmREEQBEEQNwiCIAqiIAiCIAqCIAjCfXN2xpt585597jm7d3fv+X4z/7x2fWH33HPubRRSQg0fgQASQAJIAEkACSABJIAkgASQABJAEkACSAAJIAkgASSABJAAkgASQAJIAEkACSABJIAy7vHxsdjc3Cw9r6+vSa97dnZW+jUPDw/rC+j5+bk4Pj4eOUA3NzdFo9EoPeH9phRAlH3NpaWlegMKb3J3dxcggOIBhdnZ2Sk+Pz8BAigOUJjV1dXi4+MDIIDiAIVZWFhI/rIJUMaAwjSbzeQPG6CMAYWZnp7u/FwGCKAoQGEmJyc7/yyAAIoCFGZ8fLxot9sAARQH6GuOjo4AAigeUJhBLMsDVCNAYba3twe+4AjQCAMK02q1ivf3d4AAigMUZm5urnh5eQEIoEb0zMzMDGTBEaCaAPpacLy/vwcIoPgJC47X19cAARQ/Y2Njxfn5OUAApU3Y9gkQQEmzv7/f17UigGoOKMzGxkbfNqcBlAGgMMvLy33ZnAZQJoDCLC4u9hwRQBkBCjM7O1s8PT0BBFD8TE1NFXd3dwABFD8TExPF1dUVQADFT9jhmIoIoIwBfc3p6SlAAKVN7GlYgAD6PSsrK6UXHAEC6K8P+e3tDSCAGpXscAQIoKTNaQAB1HVz2v8WHAECKGnBESCAfjQXFxcAART/y+y7L9UAAdR1tra2ui4wAgRQ0nZYgAD656mOg4MD60AAxV2hL3OuDCCA/lj3ub29dS0MoLiz9Q8PD6X/boAA6lz7it1sD1DmgMpefQcIoN+ztraWfOAQoEwB9ep5HABlBiis8aTsgQYoY0ABTy+O8gCUIaCYNR6AAOr7re8AqjmgsEDYy7PwAGUEaH5+vu/PGwOopoDW19cruQE5QDUEtLe3V9kjEACqGaCTk5NKPyCAagKoylv7AlQzQL261w9AGQL6yeE/gADq6SYwgADq3LY3ZR8PQBkDqmqNB6AaAurVPh6AMgRU9RoPQDUC9N3NDQACqCugcNCv3W4XwxpAQwworPGEf9AwB9CQAmo2m5U//xSgmgBKOegHUOaARgkPQEMGqNVqDc0CIUAjBiicEO3XYyn7DT/cS6jspF6Guby8LP2ag9ju0igkgASQABJAEkACSAAJIAkgASSABJAEkAASQAJIAkgACSABJIAkgASQABJAEkACSAAJIAkgASSABJAEkAASQAJIAEkACSCNXL8A0yXDw3GG+bYAAAAASUVORK5CYII='
p25
sS'version'
p26
VV6.0\u02e3
p27
sS'uni'
p28
g13
sS'desc'
p29
g13
sS'browser'
p30
V\u23ef
p31
sS'annotations'
p32
(lp33
Varrow
p34
aVpause
p35
aVplay
p36
aVright
p37
aVsound
p38
aVsymbol
p39
aVtriangle
p40
asS'wind'
p41
S'data:image/png;base64,iVBORw0KGgoAAAANSUhEUgAAAEgAAABICAYAAABV7bNHAAAAAXNSR0IArs4c6QAAAARnQU1BAACxjwv8YQUAAAFBSURBVHhe7dqxTQNBFEXRBUSKyJy5AAJ3QU4NtEE3lEFkF0FKgIgRHcB/zFja3Dvz35fukZ5m5A0s33DlBQAAAAAAAAAAAACu+uns0E/5jn2163If27frv8/YT7v60496bNeL/a72rA86fcf62TrkZq77OcJbbKtIaUYGkvKRRgeS0pFmBJKykWYFkpKRZgaScpFmB5JSkTICSZlIWYGkRKTMQGIfKTuQWEdyCCS2kVwCiWUkp0BiF8ktkFhFcgwkNpFcA8lLP1O5BjrFnto1l2OgcxyL98tugaziiFMguzjiEsgyjjgEso0j2YGs40hmIPs4khWoRBzJCFQmjswOVCqOzAxULo7MClQyjswIVDaOjA5UOo6MDFQ+jtz0c2u3sdfYFnEeYu99x9hHTO5iu9j5md5C6i96AAAAAOBtWf4APjdDfWCz9q4AAAAASUVORK5CYII='
p42
sS'andr'
p43
g13
sb.