ccopy_reg
_reconstructor
p0
(cemoji
Emoji
p1
c__builtin__
object
p2
Ntp3
Rp4
(dp5
S'emojipedia_url'
p6
Vhttp://emojipedia.org/keycap-digit-four/
p7
sS'index'
p8
V751
p9
sS'code'
p10
VU+0034 U+20E3
p11
sS'apple'
p12
S'data:image/png;base64,iVBORw0KGgoAAAANSUhEUgAAAEAAAABACAMAAACdt4HsAAAC91BMVEUAAAA0Rl00R1o3TWw7UXI5TnA8UngAAAAAAAE1R2E9VHwAAAA7UXQ3TGY2SWIAAAAXFy4AAAA5TWwzRFktPVEAAAMjLzwAAAA0Rlw0Rmc1RGE2SmouP1EmNUMfLDYxRFUfKjknN0k1SWAUHCQXGyMuQFMaJC08Uno0Rmk4TXQ8UXUzR2cvQWQzR2A6UHI6UHIyRWFDWXo1SWcwQ1Refp5khaZegJ9ggaBfgaBff55jhaRmiahcfZxZepZNaIdmiqpafJrE0d5LZ4Rcfp3I1OFZe5hWdpNFXXtPbYtkhqVggKBKZYFJY4A+VW9Oaopdf51ZeJegtcpScI5ScY+itclqjatjhaNDWnQ8UmlUc5CPpr5xkK6cscauwdNihKRuk7ZskbRuk7eGpsRtkrV+oL92mbuMq8iTsMyBob9ahaqMqsh/ocCCo8GAn77///9afKJZfJ9RbpGlwNpljbLe5/AqY5h1nMCKqsmvxdzl7PN5nLyjvtiat9KduNN8nr5ni6tQbI2JqMdqkbZqkLFqj7CXtNCFpcNVdJmgu9Zoj7RRbpOowttihKXu8/jc5e6PrcqEpMGZttFoja3B0eBrkLKBo8Slv9mpw9tdgKNeg6fY4+17pcpqj69jhqZymLqgutVYeZ309/rR3ehpjq6BosJnjbNHX4Zli69OaY5jia7p7/RUcpVekLpzl7lBdqSWtNCJqcguZpra5e90hbG4zuLy9vnJ2Oasxt1tmsLV4Ov2+Ptnja+QrsuhvdeUss9ghafS3+xTcJVoi61liKhOg7Bag6eVss2pwttLZIerwNbf6fFliqqRstFkh6dGX378/f7D1OWkvtmvxt6Ip8Vcia/c5vDx9PdhgqNXd5tihKNxlbdih6mRr8u9zt5af6Npjq9yg7D6+/y6zNvq7/Smwds3bp+duNR2oMKAocGku9KfutZnk7quyN1hgqGnwdumwtqIq8uYutaCqclwk7Vkm8ZRhrCFlruKqMa1xtiNrcxmiLFTfahoi6nwotZgAAAANHRSTlMAz8/Pyc/PJh7RzwnPz88QBBrG0LYnbyHjeRq0wotQ1FmO0T9AvkvGOqvMWSsy1N1R+6fKPKaYkQAABSxJREFUeF7c0cWS21gAhtGpyiSLVDKV8q67HyCMLyQ2MzMzUzMzMzNjmJkGmRkWY1kW2FJ3J9s521/387X0wf/LxbJrPN6Hh+DxrpVd5Axc4V3dcapWD6Vy7lzlXWEFyituqZQ1tb1e5JcDId7e2hql6lZFeXHgwqUe5XNNx+5U3NT3yQH6TPGp3Q7Nc2XPpQtFv39ZFe22Z1rfTpr2tA8PoN0zTb5tzdi7o6rLzDtU9Cxr+H1zKxPT1ZEfDhSpnp5Ymevja5Z7KujA+a6aTkNMe69KHdmuPsR2RF11TxszdNZ0nScDp84FuvXa2bvq79+R+u6sVt8dOHeqEDjTVRsyjlnUn74ztWXMGKrtOlMIlIV79StGS9V7sEyv6HvDZYXA2YBm4U7Q8l6CdxY0gbOFwGllyGoMLu6DCJQOQaM1pDxdCBxXuG2W4H6Gb+SkWIPF5lYcJwOv3L7Fr7k11/+Kq7eWDos+9ytGQND8Oafm+p9uy3PGlliLgBFQuBM2Kxfbj/WtciLAmhL0XzimcBusKQ7WpZmH8kKAtRncimNkQBkaSfm4zEzICXUvSqfUSEjJCLiGl9h8+htyMvBX6TjsYgRaOuEtActW5cwkFeCzVrizhQycaJn3C16UEhgG6uRUYIQ1++dbTpCBJ/OShUSphYFv8aOm/GeYdbFmyfwTRgAT88XFEt/8jJ+M2SbzAX/JzBdjRQGoUuwqItYPxHKB21+JiRtUukr2SogOHA2sAU3w/SIdG234wQzKJ27w5f1icBOwFjhKBRwI1CSBYT8F3qjKvztpxx/5QBvqZ4BhSROEOOhAfy4AQRgqTUoJ/gdf4Mce8VEJTATMUkpSimIQlAv0k4Ej/ddBAIIAaNCMCnFJ6DfiBZiFqL8QEJJQ8yCEPw1e7z9CBdazCAAACIIAzzCzXWYemsJPvcRkMnuSCGCyHLvdjD3DH8Mfzq7TgdWbHhAhgCCIAJ/58ENxmUwolBUCg8RZfCaAnpurVCDc6AVpyAMsf/4f3ejoqG7oUf4yOp1uyAMyeRvDZOCkqrHdk6WJXuKBP8dxb36fy3/GN+Pjf4vALM3T3qg6SQWiaQ+D6GM5lzqRhykdpQPOp44GL22TO9Am8jI0OJ466cBjR/trSsO+gdcM7Y7HVOAj53f/phk2M5yB+HKa6b/O6GQ3bSCA47DhMkaWaiyzHci+vADUZhkTx+Al2MasWbo9QtU3oA/ALZdESi59EaSgnCw4tkKWkKqe/QY+NEkHe1JKYve7/jW/GWk89+sbP8BX7zBOp3Hsa/x8DPy6PG58tO9wVT4ItJoTb4hxxr7rwdM3NhbjsTPEeZNmKwhwU+8IZ/ucmz+Be9tGG+JNOT8Qq1m31TVu0QuuVherFvMDsDJZYxlYrCwVGAQkOJ+uMRqiwMoyh9IyEJdE9+Ttv/14//QL367+Hk5cUYqHCIwGH/qdTv/d6MWALrunlTU+fXnErQynrqwvA6wuNOeRNQWdRYGC0f6fQNsooEBKVYq8GxFfVNQUCmyc9WCJj6gEu2cbKLB5rolcKSJO1M43UYDcMhTIRQQVY4tEATpjaoJVjsQSNDNDowCVzqtdsV4uhlaui101n6YIhNzLzXoyrIcN1KHcm+X2SGKJBoc5VVNkGJKsaGruENCEjwH7B6auXSht4VVt5ULTzYN9wBCBZBaADGuqhiTVXiFJhmqyGQCySQJDPRTS2zupWGI38ZKHOZba2U4DkKWIZ5IMiIRB92MoEoRGBtfjKJohQ2Bo/PhvCiV2x2ugCm8AAAAASUVORK5CYII='
p13
sS'twit'
p14
S'data:image/png;base64,iVBORw0KGgoAAAANSUhEUgAAAEgAAABICAMAAABiM0N1AAAARVBMVEUAAAA7iMM7iMM7iMM7iMM7iMM7iMP///+Ftdo7iMPz+PvO4fBsptK20ulHj8edxOFUl8va6fTn8Pipy+XC2uyRvN14rdaIAWDiAAAAB3RSTlMAYL8AIM/vi50ITwAAAShJREFUeF7t2EuOg0AMRdHiF9v1h6R7/0ttIiEnDDqUeB5F3AUcWciDwu5Z1wtQ3w1rbhjGScCm8QmNN4G7jSs0iUHT4DoxqXO9DdQ7MepLoQuKD09EgVEo0dacIaiQNmcAqvTWHYAe75DPp6FIu+JpKOyhchZiMoIWI+iHbKDsN8BjkO5iCBikuxhBKG1OEAyKOhAIBR0IgHYDYZDu4iwYxLTFGKS7uAgGFR0Ig+prIAxKOhAGVdKBMEgnYAzSXfSCQbMOgEFMn0q1GVroY742QoUOSo3QfAT5RogOs5ooNEJ8BP0eQI1f23P7QuZY9ulChBIz8Bht32wcuqC7FaQPLgahij6PNdalBiGpXArn68fvny7I7MhidvaxOkSZncYsj3VrFufDP86sseDEnrcWAAAAAElFTkSuQmCC'
p15
sS'gmail'
p16
S'data:image/png;base64,R0lGODlhDwAPALMAAABY+4S8//n4/QAR1Vty6ajI/U+X/wBi/g1u/wBo/w1z/x12/zRD3j5L3w5n+x9c8SH5BAAAAAAALAAAAAAPAA8AAARnsIRJKyVBob1V+ojiDAFynCeAGUcCkObnEoJQAC7cHqpt4wfdTBBo/HIlHi0AMN4SwUwv4GjaWq/MgAjoMo5RxVZCril4pPNhwX7QCjsY9ORy4rIeGfQRMHyiVTyCPF1oBAOIiYqKEQA7'
p17
sS'related_to'
p18
(lp19
sS'name'
p20
Vkeycap digit four
p21
sS'known_as'
p22
(lp23
sS'default'
p24
Vtext*
p25
sS'bw'
p26
S'data:image/png;base64,iVBORw0KGgoAAAANSUhEUgAAAJAAAACQCAYAAADnRuK4AAALQUlEQVR42u2dLVRVSxTHCQaDwUAwGAwGA4FAMBgMBAOBQDAYDAQDgUAwsJaBYCAQCAaDgWAwEAgGg4FAMBAIBoLBYCAYCAbDeet33xrW3HHm3Jnzce/MPf+91l5Pfcr5mN+Z/TWzZ6GSSFrIgl6BRABJBJBEAEkEkEQigCQCSCKAJAJIIhFAEgEkEUASASRJkaurq+r09HT0XwEkSZLd3d3q9u3b1cLCwkjfv38vgCRx8vbt2xtwjK6trQmgLuXnz5/Vx48fq729ver58+fV48ePqwcPHhSvLji2zuJ+lpeXR/C+fv16NAt+//69XID+/PlTffjwoXr69Gl169at2pct7U+B6uDgoPr9+3cZAHGjOzs71b1798YeBIhWVlaqly9fVm/evBl9IQBWqi4tLdUO3LTuAxP66tWr0Ydq+2Gu3rlzZ/Tuf/z4kS9A7969q+7fvz8GDSbr5OSksy8gB/n161d19+7d4GAxmLMQZv2vX7+OgAKYEEh8wPzdbADihW5sbIyBwyw0ryEtfkbd7DMrgGy5vr6u9vf3g6A/efKkkY/UOUAXFxfVw4cPb25sfX29ury8nNsohFl2kt+RA0B2fooZyeeHAhcz1swAOj8/rxYXF29mHWxyrJ+EWWMqxS6vrq6OXnruOsnvcSHqQp89ezYCAF+HwW5qej5//nwzVq5vylhMHSAbHhzms7OzqKiMqbPO2ZPWKz4MszyD/vfv3+R0iu8jYDxiIeoEIG7E5EFwmus8ex4SW+yjn3/LV4ajzUyUs6amItpci/fBe/G9M1txHVJmDzP7Ew37wPz27Vv/AAEEs4gBoM7foTZEHsLN0uJH4HiXVOeaNJh9+UB8rKQ8zDv3Ke80xe8MQcSkMClabg0QfouZ9rCrISF5ZX+1m5ubI4e7ROHeU2afvpxooqYXL154r4lDXDcermA1fB8Fs19vAHFRk1/ALIUEp8+eZpmJSpXj4+Nk89V3FIbZCoXnzO4pjrXv2erGqxVAvBiTQwg5cPbXytdCPqLkhKGbUc8BIHNvIbOWApFvduWjD41vY4AIIc0FQs4WyxrM3+HXpQvTuRut5AKQiWxDSc1Y5xoQfVnrUEqmMUCGVPISPjk6Orq5OFno0oXp3X6hrCBwgcohkRiCCNMU63Mav9ZWwv3OACIKMZT6Mpf4RsYmU9JIzU/kJpjdR48ejQ0GDiwhdm4Amfv15XeIgGMSj/x7n09Frq8TgD59+lRrG0lsmbB+Hupf29vbYy/SzKi5AoTgVvhMUV2wU2euUdZvdQKQKZRubW15M9Kpdjd302VHJsxE5ivOGSAEWNx7IVSPCWQYuxgz1gggE4kwE4XgyqmA2CZJaq80BCR7Gs8dIPf+U2YhEoi+kN5NLCYDxNdnfphrnvDgzUVZslq6YKrsl+dGkrkDZBK4vrA8RtyqAeo64skAUSQ1tRJXgMb8v6ZV4lwEH8L+Apm+3WcqASA+ct9MErMS0fiytroTQzJAZGJD9tC8UMxY6abLjrpQX1mgBIAQX4IxJrmIjzvJ/CUDREIp9FLM8tWUzGeO4uZBfMFCSQD58jqTalyhf8ef9QIQnv2kzHQJQhXbDn/tqKtUgIzVsJXqe1YA4VyZi7DkoFQhw2y/sLolnqUAZPxWN5zPCiC7NlaquHmTSSWYUgDCYfbdlwDqUChN2MVRcl2TFlMJIAF0IxSFU6vXAkgAjcTdmhOKugSQAPK+XLvyHLMOWAAJoKDpSllHLIAGDpB5FnvrTYoIoAED5DZEiIm6BJAACpquJqsHBNBAATKrBlLqQgJIAN2YLntrDr9uuitWAA0QIHetb5uFbwJoYAC5piu0JUkACaB/hAjLNl1EYG0bOgigAQHkDnYXi94E0EAAcneVcu9dbHYUQAMAyDVdLNnoquG2ABoAQHZrGZTegn2ZRQE0ZwBxT/aWFpardrlPXwDNMUAshLfbDad0pxBAAugf0+U+uAASQEFhF4K7q7SPFjMCaA4BwnTZvXH6MF0CaI4B4mws+4H5/bSSkwKocIBc08Wu0j5PBRJAcwQQPo7b1i314BABNGCA3IclCutbBNCcAISTbJuulK05AmjgAPlMV8rWHAE0cIDcY7ZTt+YIoAEDRFW97dYcATRggMxZHdM2XQJoDgByTVfTrTkCaIAAuQ0R2mzNEUADBKiLXaUCaKAAub182m7NEUADAojmnXYHVZKHMQ2zBZAAGom7q5TDZ2cpAqgggMwRU0brjtkUQAJoTEgOmi74ZmtODs3MBVAhALlHWx8eHlY5iAAqACBfQ4RcjtAUQJkDhOmyD0zDdM0y6hJAhQHklivIPnPdXDT2DPk2991FfW+wAPkeYGgaOq9dAAkgASSABFDWAHGtnHweW32nIcsHyryUkZOkzI6KwgSQABJAAkgACSABJIAEkAASQAJIAAkgASSABJAAEkACSAAJIAEkgASQABJAAkgACaAYcdsJ1ylndAggATQm7i7ZOl1cXJzpThIBlJnQDR8oUlYWfvnyRQAJoP/FPcglRml6fnl5KYCGDBDPuLa21nh9M0tb2Ut2fHw86jQigAIA5bJzNPZ5eCl0+uDXRvk9f769vV2trq6OdUTrSmlVg4PNblvA2traGl3T1i6ahhYHUE67RyeJ26gzN+3iXZ6enpYFEDcsgPIByG2Nkz1ABwcHAigjgEI5q6wAoum3ucj6+npRABGSs89reXn5Zj8WzjJ+yTSU9jX2XjDOeuV+umrhRzMuFwT29WcFELkRu4sGv5fMXoj27INoUrLjUwUIsXdrHh0dafQykP39fa/5ijlTZOoAEYaaC62srBQVzs9rxjzUgibmA586QCTIUm9S0p/UFXxjEplTB4ikF/6P7ahdXV1pJGcgNCH1+T4owUKMTB0gxG37RjQjUzZdub6+HkVyodkntr92rwCFvHgKhi75Ozs7GtUp+j119TraJcd+0D4T2BlAdXmEzc3Nfy68u7ur0Z0xPKnd/d32yp0ChIZyPfg9Pu+fG2J6lXQvHHflSxjaSlE4xZ3wZelbA0RkFVPzorOWz4nDNp+dnWnEO5STk5OJC9xYTZCyhATQfCsQWgNk17z29vZq/y7TZeiBMHMlVe1zFPxNZvVQtGWfapT60RLFxZjAZIDstSUxuw2ArO7BqJtxBpjC/ThhFmEQWUM0CRxTVmKGSpXQrhN3aW6j5YMm18MDxEyLbsPwuggBKPmqplXILEFZwG+KvqkL1prAg4SaiLpWoxFAhPDmB7JiL0ZYk2InGaX9Kh9j0xONgC7kR7lOeCOA7OmNHxq77BKbTSSgAe5PsQrUJJsuhQUQMtW+n+07GbsRQK6DlZooZDZaWlrSgHesmLnz8/NWPpZ7Ju2k2mbjLRRU29t4+Saiw99Jte3S8bQIM87FxUUnuaRQ9R5/ypfDW+iKVGaUNpEUL8DshCDEl/PsV/akEZRwjlqXaRBMV517AaQ+aQwQWWj7GMrcDoOTpEnd0g+Cn1C03WoXoF3WsMsVgqgsqcvVocAVktbbSG1fyPbWVfMqQyhy18GDT1Q3lq0Bwg77aiYU9pRdzldwQTY2NlqXQDrZyG4XWN22JixzleQlFMHrFpylLMHprBNCnR3Fu2+bn5C0F6wF7kVMDY2IL8aX7bSVxqTCKQ42xTg52dMVzBAlJ3I5MbmlWHg6BwghRzGJcBwz7O/h4eEomciXIai6EZKBAEOEDAgpJyuaZTYpY9FLMx/8ntgjsaV5KLMTH3Sq9NYNisQTs0yMvZXOVomYm/qovbcTY2mrL1ckzaOOhqlr4z5MrR8da0xYfag1QXnMOG3BmTpARshqkjeiKEh4r0p8/74NFoAIGB8HJ7tL+Q/MrL1TXArJXwAAAABJRU5ErkJggg=='
p27
sS'version'
p28
VV3.0\u02b2
p29
sS'uni'
p30
S''
p31
sS'desc'
p32
g31
sS'browser'
p33
V4\ufe0f\u20e3
p34
sS'annotations'
p35
(lp36
V4
p37
aVfour
p38
aVkeycap
p39
aVsymbol
p40
aVword
p41
asS'wind'
p42
g31
sS'andr'
p43
S'data:image/png;base64,iVBORw0KGgoAAAANSUhEUgAAAEgAAABECAMAAAAV8YMOAAAABGdBTUEAALGPC/xhBQAAAAFzUkdCAK7OHOkAAAJhUExURUxpcfzCG/eTKfzCG/eTKfzCG/eTKfzCG/eTKfzCG/eTKfzCG/eTKfeTKfzCG/eTKfeTKfeTKfeTKfzCG/zCG/zCG/eTKfzCG/zCG/eTKfeTKfeTKfzCG/zCG/zCG/zCG/eTKfeTKfeTKfeTKfzCG/eSKfzCG/zCG/mhJfzCG/qrIveUKfeTKfzCG/eTKfeTKfmhJfzBG/qrIvzCG/eVKPmhJfzCG/qrIvy/HPzDG/y9HfzCG/eTKf////zCG/zDG/zBGPeUKfqvIPqsIf/89f3WY/zEIvzCGv7tu/zCGfzDIP7oqv7oqP/89PzBF/eSKfeVKP3NRf3WZvqrIvzBGf7prPzBG//56P3NQ/zAHPy9HfmjJPzEIfzDHvmiJPeXKP/23v///v/+/PqqIvzCHPy/HPigJfu5HvmnI/zAG/iYKPu3HvmkJP/9+PmiJfzHLv/++/7z0fzGKvy8Hf3TWv7oq//99vzEJP3MQv7prf/56f3Xaf3WZP/67vzDH/zKOPqvIf7rtvu2H//12fzFKP/88v3bef7ln/7wyfzMP/3NRP/88/7no/7npv3WZf7suP7pqvzIMP701vqxIPzLPPzJNv3Zcv3Ybv3UXf7prv3ce/7kmf/45v7vw/7tvfzIMvqsIv3RU/7rsv3PTf/56vzFJP3OSP7np/7uv/zBFf3VYv7vxf3ehP/44/7hkPzFJ/7tuv7tvP7jlf3XaPzDHf7oqfzFJf/23f/99f/67P3SWP3VZP/23P7km//01/3LPfzBFv7wxv7ilP3TWf7mo//77vzJN/7yz/7kmv///f3TXD0cZYoAAAA8dFJOUwD9t/jR+fkNDdH+FL0d88bz+Dl1vR0Ut8Z1V57JBQzSyQUM0v43WTn9zv39/TfON/n++aD9zlfOOTf9nn41mCIAAAKlSURBVFjD7dj3W9NAGAfwKLYOpgwBFXHvvcddmir2bAGLNFZLW1GGCKJMAUHAvffee++999a/yiTtpaRPfUju7vEnvz9envs8ueeat/cex8lJSUqL44kSl5aUwqkZkWziiWNKnomdcaN4mtRNGxZwolN5UxdyZ/ZE0LWPAk2P4oeSQwUje4HefWUnYw7NugrWAin9BknQgP7UDhg4WIK6Z1I4yxQHDOkhQz2pHdCNDqrDDi10JI8RVOplBFlWFxqDkICDtA88K51GIFS1KJim52GPVhmBUO3l3GCa6wXt2lyGlnZ6DQzm5YYwaJ4BSLi+HDswaz45hK6dgkwg8XgDE0jctQWygJBtL2QCiS17mED2YzWQCeQ4s4IJJJ5shSwgdOEOZAL57xcxgYRLVyELyF51EzKB+LvVTCDhyj08/dVbCght3YRnF31eTwNtV6vZp+855JC4W61mrb/92cQQalyH5/762eaggE5k4bk/2kVySDx6GE/NbREQMYR8O9SP/qsPkUP2/dvwzPcfPgrC02cqdPuW8odr1wWhQzvVn/KLHCnZ6g5Wn7shD+yr1wXZly6BneSgjxG02PYfYgQ1NXcK6do1VPv40YKOOX9WLU01D+WBA/kl+r41v02TB6HC9qRNGSkhOWjxiKKM/HvIxQgyeDx2qHW3IexUa/DA7n+H69y31wJNC4Ha3+QH8qVR00N4/tbUeDaXWiIeAxbiaN7HU2yNDLldhZVl5RadKS+rzIsMuV1SH1fhLd44V09c3goJsGqgzJADgNNp1RVnYL+sHZrjQLsedAzHGmrXM6bIzkUyJygpFwjc8Ch+0mhSB4Ax+EqDi051T55K7ICxZnzJws2aQf4+csZPwBdIiTFmcsYckxi60opNj08gYxLi02MV4g/ikHEqFQGBlAAAAABJRU5ErkJggg=='
p44
sb.