ccopy_reg
_reconstructor
p0
(cemoji
Emoji
p1
c__builtin__
object
p2
Ntp3
Rp4
(dp5
S'emojipedia_url'
p6
Vhttp://emojipedia.org/keycap-digit-five/
p7
sS'index'
p8
V752
p9
sS'code'
p10
VU+0035 U+20E3
p11
sS'apple'
p12
S'data:image/png;base64,iVBORw0KGgoAAAANSUhEUgAAAEAAAABACAMAAACdt4HsAAAC91BMVEUAAAA0Rlw2SGE2S2M7UXI8UngAAAAAAAAAAAE1R2E5Tm83TGY3TWw5UHI8UXUXFy4AAAAyRVYzRFktPVEmNkYcKDEAAAAAAAMAAAAuP1I0RlxDWXczRmU0RmcyRmQ5Tm09VHwxRFUfKjkjLjojMT8UHCQXGyM8Uno4TXQ3QmMvQWQ0RmA3TGw4S2o6UHI1SGg6UHI1SWdihKNefp5khaZggaBhgqFfgaBegJ9ff55cfZxZepZNaIdmiahafJpPbIpdgKHx8vZdfp1JY4BZe5hWdpM+VG1TcY9fgqJ1lLFoi6tcfpxlh6doiqlskK8tW5B8mbRKZYFkiapHYHxef56DirMqRIFMe6MxY5S3xtZtjKqgtcmMpr1qj69ojaz49PiGkLU6bJqywtKDoLqAnbeXtMtFc5xGYJYZSYLc2eVIeKDEx9k8TohncJ9uh7BskbRyl7pmjbJuk7eGpsV1mLmTsMxoj7R/oMBrkLJnjbDu8vd9nr6at9KcuNOjvtiXtNDd5/BtkrXI2OZSb5KvxduQrstqkbbb5O6owttqj7GMrcpuk7Rjia16nLuJqMegu9Zli69TcZSlwNpRbZGCo8GUss9Ze56Lqsmgu9VbfaD3+fuMqsheg6bg6fHl6/GEpMDy9vlafaNvlLdqj7CduNSuxt4/fK12m75WdZqDpMPC0eHW4e3n7fRegaO4zeF5nr9wlriBo8VeibBklL2Pr86PrcmRr8tqkriHpcGIp8VXeJxqkLH19/rR3uuBob+pw9uPrcqRsM3C1OXe5/Chvdfq7/RQa42ZttGQr8tHX4b7/P2lv9n///9khqZVdJlFXXz9/f6FpcNmiqpjhqdih6pKgrFkh6dhgqS4y9yGrM1NaIxpjq9liKirwNbe5u1ghaikvtlVc5fS3+xoi62NqsVLZoXI1OGSstBkm8Zni6uTsM5oja2Vs9Fwk7Wnwdt/p8yas8s5dqqjwNlTcJVXg6mjus+mwtqautRjhaSmwdufutZvlLRRhrO6sVTTAAAAMnRSTlMAz8/Pyc8KJh7Rz8/Pz84EGs3Qto1OEichwOP9NnlVxs/UWXJsP0DGqxcrHbfG1LDdp3N2K+4AAAWUSURBVHhe3NXFchtZGIbhLOJNQLmAxHZ2DsOVNZOYmZmNzMzMzBBkhmGGxTS4pXOkKSXZ5tmp/q9eqVqq0qlvy6Xyu5WVpz+jsvJu+aX/DVTcvPh6KRQI/FJSIBBaen3xZkVR4OrtbVO0M+2ud31Xkqvene6MmrZvX4UD1249SBxg4cdGW3axpKzN+DiMHSQe3LoGBq7fCR37u9sm1mo6MvqSMh01axNt3f7j0J3rQODG0lPMuZh80dU4bf+9JPt0Y9eL5KITe7p0A3h+q51YTKlvXA/a7dOfYbcH1xv1yhjWuZp7khcUW/7m+fZnwe+/UPBZ+3yzf0txQf7+V9O02aYN/vXFglqbmU6vyr+HcpO7e9KsXf8K2unJbrep/CRwpQWzzPm0X8U3Z8FarpwEqqK02uxbKFAYgK8+s5qOVp0ELiesGq2vgOZtgQb4rtVYE5flQO2wbuFvWMMP7wrcb4AGC7rh2nzAOhtvgA3MbRTo+gQN4rNWMODUqGED7UWBCDTQOPOBslprTL0MG+goCnyABuqYtbZMDkRp77IOEokkiwKz0GLZS0fBgC4CccY3eDsZ/XyOeRZa6KAARkQoiNcsBJTUjCWHgkUILBdQjHGt1BCk1ygE9M6VFeHVigheUK3cmCIfYCwzkF6bEDB6KYo/DFFDM0UsTD5wfowjUxAvoRQC93r7mwT/Ng8OpgqR3Nh5OdDC4a0pL2DXuSYEvD/1/zxnNHbdP2xi+Dso1YpzLfnASxwlRgGMRnyG/cYNSfKPpp5XoyACxV/mAmeevzfgKEMQu7Jm8UuomdjImTxER3NngmBQ3PD++RkgUIfXkUy4OixB5bcGCyrpxo8Ykp8DgXOBPQQXoB7VlAh9IgV2FjNZ+ScZ7wuLN5UHFcfIXuBcLvCINfABg8GA95AelcrjkT78kx+nVFOv3kiBmmHhQvbwM3HMPgICRw7EIEEQxIDTg2uCdhXp4aH3pALVVyeeJYjjKB8w7dcjIJocqa4eGSFZF/9P6UJYmxho+xUa1e+b5MBZ0+bDcRbk4AQOVuL+TQxk+xzAZPzhpumsHAj9+XEcxP4jcLHjEn+1GFAiHDj6r1J6500bCgMwDIlku+oQwjWQKdcfYGJDcYzBxjb3cGvu197vU5f2D3RoKlXqlCiqVLFV5Re06lYPCMsVrcgAKgMiEmLNgNSlCBvOoUWNeSZ/ss57Pslud94NAhIe3csDny8317qOjrX5+I0aeP0iD+xFcQkEzltVSPvy8GbXs418b8zXn6uB32+rkNb5IDApkYn9NpBRbyxu/Ky2u5JHd9WP2mi0gf0EKU1qgQmJoKMNIBNRf4Ovm8lktZp8tPmtN27VG5AoTUgT/QDjqUVbQDmjfrfg/Qf3PmysrT9WF7pdb0GiNQ8DAt54ogw52yn1HBw+WV9/+lAdLuqZMiQR9w4CxlVWpmGVxKuS6nvwQHsKRn7QQ2R21TgIxDrxGoQ+SwVLw053C3QNFu/EQKDpw+UKrFa4874Ee7lbqAyTcV8TBPykvDJEDmxvgSWKHyOBlb/IpH9UADgPRHYuPp0Wi19+3UoFCiv/C0ynQ2TnX+GT8HYklYrETwL4iNdkKD2tBcxpisBHCge6wvhIBJU29zfgQEA/guL6G1iyvJsgx0S4+axFC1hnxZiHGJMnJs5atYBNYPxez5i8fkawaQFsjuNj3jHFeG4O0wL2BYGh2NyNMeRYihEW7FoAcTgV0c/m3LrlWL+oOB2IQYMtubJiyMfqDbC+kJh1LWGGPgS1uRSGD/l0CvGM4rKhiGHAhC47hTQj8pQOvMikBecyajIAUzMoumgWFK7ZXL1Cs8kpgnkRRWemDBCkW3DMWy3Ga1cyWqzzju55xDBkyoSOxaTeD0Mw/QEMXA9D7CZMB5MdPv4Hs1jwG3mZSVUAAAAASUVORK5CYII='
p13
sS'twit'
p14
S'data:image/png;base64,iVBORw0KGgoAAAANSUhEUgAAAEgAAABICAMAAABiM0N1AAAASFBMVEUAAAA7iMM7iMM7iMM7iMM7iMM7iMP///+dxOE7iMNHj8fO4fBsptLn8Pi20unC2uxUl8uRvN3z+Ptgns6Ftdp4rdba6fSpy+W7cXTUAAAAB3RSTlMAYL8AIM/vi50ITwAAAWdJREFUeF7t2GeOwkAMgNFUbE8tKdz/pguLskTgIDnjXyu+AzxFozS7udd2VFHX9reavh9Gqmwc7tBwoeouww0aSaGxb1pSqW06HahrSKl/B32h5F6bzkDGwnt+kUMB2CYpZIAvSqEF+KwUQi3IAl+QQivwOSkEfDOdhTzuyomkkDs43PMQVkK4QVkLcpVQ3KBUCdkNWjBaa0OeTkIFXlvnUxAw2SSHEnCVSQw5OJCk0Ax83gghhIOuSlcEkGSQWR9AWIhoCjsIZRCZUMCH9H72XgAx5adk5BB/p7s6yMLWUgchbKEWNNdBUeuMvBKU4K8kgAyuEB3/j1OIhz48H9Fwb5UogBAelUyPpvKEZgG0wpbPiSgh7DICCD4USHxFfEkC4bGDJIGMP3IsiSCaCu+sRghRspwTzYkRYvavTMknZ5El7hmfTcV05ND+ds3pO/h96AupLVnU1j5aiyi11Zjmsu6WxvrwB3MzsmJWRGqsAAAAAElFTkSuQmCC'
p15
sS'gmail'
p16
S'data:image/png;base64,R0lGODlhDwAPALMAAAAQ1O/0/l+Z+wJW+a/R/4K7/wBi/lZ07Atr/jiI/7Gt7R94/5ib7ABn/z5N4A1v/yH5BAAAAAAALAAAAAAPAA8AAARpkJRJKxXl6WYM9xoCZMNgFQLSDOMzOEEgzLNqtG9AGGXXrDhYYJFYcH43klCnS3iSj87isVgcYgte69kpKQJOaOehWjHAnS2MwAF8nawM70tInAmPthwxwEwEeXp8XSU9XQACAIqLjIwRADs='
p17
sS'related_to'
p18
(lp19
sS'name'
p20
Vkeycap digit five
p21
sS'known_as'
p22
(lp23
sS'default'
p24
Vtext*
p25
sS'bw'
p26
S'data:image/png;base64,iVBORw0KGgoAAAANSUhEUgAAAJAAAACQCAYAAADnRuK4AAAM9ElEQVR42u2dH5RWWxTAB4IgCIIgCIIgGAiCIBgIBoKBYCAIBoIgCForCIKBYCAIgmAgCIIgCIIgGAiCIAiCIAiC4L71+16ndzrvnHv3Off8uzN7r3XWer1m+u537+/u/2eftUFFZYas6S1QUYBUFCAVBUhFAVJRUYBUFCAVBUhFAVJRUYBUFCAVBUhFAVJRUYBUFCC/fP/+fXjw4MHw7Nmz4fPnz91e55cvX4Z79+4Nd+7cGX78+KEApd7E/f391QO/fv36cOnSpeHs2bOz1tramncdO3Zs9r89d505cyZ4fSU/d319fdjc3Bzu3r07PHnyZPj48eNyAfr58+fw9OnT4cqVK6uHGrqhusouoHr06NFKYy8CIC4UdX369On/aYaLFy8ON27cGO7fv796QwAsdcXcxOPHjw8bGxurN3POZ7qL73H16lXxdezt7WX9fNbDhw+HnZ2d1YvK9wx99okTJ1b3fq65LwrQ48eP/1LfQIPJevnyZbY3wAg3LOWNvHDhwuqhA9Pz58+H9+/fD9++fRv9rK9fvw5v3rxZPTD8GX7/1KlT4s/kPvD7NbQ+nwNQABMCCfD52W4A4gZvbW39dcPQQlMPpgVAYwutafsUY290zELz1BYc9t3d3eHkyZPea7p8+XKSj5QdoA8fPgznzp37c2HXrl0bPn36VPwGlQCoxLp161bTqImXGI3k80OBK1YzZgXo4ODgjyrnAlHxUj8Js4YqxS7jnwBEzFqKE8ubHvvd7IW5BAB8HR52qul59eqV1+zy3HgW1QGy4UH1v3v3ThSVcUNzmYajuPBh0PI89F+/fkWnU/ABfUGGFKIsAHEhJheD0zzm2fMlscU++vld3jIcbTRRzOr9Qcd+H3txP7gvU446rkOM9jDan2jYByYBRXGAAAItYgAY83fevn27ykPYF0qii2gNx/uw+UD4FHzn3ElYUh7mnvsW9zTG7wxBhFKYipZnA4TfYtQedjUkJK9sx+3mzZsrh/uwOtFcT+nggahpe3s7CO/Y83AFq+HTcGi/YgDxoSa/gFkKCU6frWZzv5U9AYT/Rz4p1h+ZI5itUHiOdo9xrH3R2djzWsvx0FCnoRuGpjEXwttSqoDYGiA0MCF6yVzXVO4tZNZiILKfl/3Sh55vMkCEkOYDQs4WWVrzM/z3YcwDoXEw463AcSNb/B/fdUqda0D0Za1DKZlkgAyp5CV8QluF+XCy0LUTidhzNIKd1MzpHJNpn5OHqQ0Rpknqcxq/1i35ZAOIt81Q6stc4hsZm8yNruEPuAARQdhvFX4J7SOYUSJBae6J78nP40wSCOAP9AaNr2zhy+/wPSTXzu/7fCpyfVkA4mGM2UYSWyasr6XaxwAaC4mBHRPMi2AWkBBB9Q7KmPCdfKZoLNixhRfG/V1ewCwAmUKpr64DpbF2txVAh12AxYUA0y4JZHh2EjOWBJDp7UETheDigdYUBcif5PV1a0q0EAlEX0jvJhajAUKtm3/MNU/4GuZDaVlVgNoLfpsvLJeIWzVguY54NEAUSY1z6QrQmL+r7T8oQOGAx6dJJJ2Ixpe1l6sYogF68eJF0B6aoiZmrLYoQGHxJRglyUV83CnzFw2Q6T/2+TimfTUm86kAlRdfXmeqxhX6Pf5fEYDw7Kcy0wpQGzFWw15U37sCCOfKfAj5FQWoHzF+qxvOdwWQXRtrIQpQWHCYfVl2BUgBUoAUIAVIAVKAFCAFSAFSgBQgBUgBUoAUIAVIAVKAFCAFqDZANGBRkjHDopgZZG8x5s8MNaC2VGPiiAK0AIAo/LLliJaH0BCmsS09VLXpzOy5f1oBygyQmQzi2w+eusw2oh4nxCpAGQGiV2lsygXde/Q1AZc9JYT9b2PTYO0dqpi6HjYaKkAZAcJnYZxwaE4i2gNTNLVjgYfBdIypDYvsq6rdF64AFQIIMHwb5cxgphTB4Waf1JTfxA7e1v6RAjQDoNu3b/+vqRzzNDVBTSpotilthIPe0qQpQAkA4ce4uwoAiYgr91Zre0JbaJ0/f75Z6K8AJQDk80lev35d7POBY8qcAdncSWwKUAOAgKdGo7+ZGdAbRArQDICAJ5e/IxHfZjzf+LuaE8wUoESApJNGcwqlEMlhMu6DUIA6BMg3/KGGSMcO15peogAJxJ1nQ7Kvlfj2YYX8oRqmTAESiL37kokUrSWU9ZYMbVKAGgnXUNNhjr35ISe/dJJRAVqgSM2YKXcoQArQX4JvIz3ak58r2QaiAC1UKF9ItVDJUcgK0ELFN+l0rCGtVESmAC1U7En9khVzOIoCdATEntYvWZKpYQrQERL7nkgWLSglzJgCtFDhPK/Y5vwSPUMK0EIl9ODGlvSgYgXoCIg9lL1lUlEBWrCkHJWpAKn8kamTlqXncilAR1QkmxHdjYkKkEoyQKzc58oqQAGhDYLD4bgmFv9d6lDfmgDlLqwqQJ4EHZ/vq3bTB01h0j3XSgFSgFZCeUDSJkFWt4cZPgpQRwCR2Y2Z4UM7Ret96QpQRwCxzz32YdQ4cjw3QLlbXBWg32LOI4s9473mJj5XpF2JMQ9WAUoQBhikTg9zz/nsORPN2DwFqIDENKm7i2trIWi+2Gvd2NhQgEqF7qkAkR9qISnV+J2dHQWohABBKkAtRqog7MuPvda9vT0FqJe3WXo2aClhHlEP5lYBGv4+1Fe6iIBa7lRlf37M9ZLj0pbWgmF87CDwGvvOc+atGCVcU3sfOYAYVil9k3sYsCAZNlVjoogC9FvIKttfhumoNGCZZB1/piW0l2nxMYlPvkOpIQsK0G9xZxCWaP9slfgsOWBBAbIcabc00DLLHAP71Do4OFCAarRzuH5F62JpSDg6QQoPI/FaJDSPJEDsH3eLpb00j9kircKjUWlTUYAqAUSexH04nI7Tk8QkEGtoUAVoIkFH2N7TCYJbW1viIZs1ergVII8Wcoc31R7eHRKceqnpqlXkVYCEZqK1KQNg6XRWDr6rJQpQRKRTopotFQ7k7WGopgIU8cavr69XmXAxJRRt2VU6BQ8aqnajvwI04XO4+8/xL2pqIh6QJGwH9hYHzylAAn/I9/bT3Vc6yiH66xmeRQLUIhoiweiDiGJrqUQd4PrOYvWNbGnVFblIgFpVw7kG3zgVTBoDLHNpADLfRHySLTv0BLXe3BhqB+4WoFZN7AjaBq0TGp1C3Sm1AAs4RFpsvZGMaWEbdg8SKux2C1DrZi78HkAZ0xD0DqEdeMhA5zO7aA6iKxzy7e1tkbkynYUlq+uxgrbsHiB7IikV8x6Ehx/SRqFp8TjErNjJYsZRLnmwb6r4OjklGxirAmQPlER9t7b7tlA7izm3InaR2+G+9FBKcYXGNp8m5pq7Agixw9le7L8bqWFeJAk/ibbBH+qlfTYku7u7yT1I1QGySwvsx+rxjTQ+EueVcpbF5ubmyh8KQcXby9/zc7Re8GL0VPkfE6xAyOGXvODVAbKPnexVC02BhUYxq7dxebmcZxamrTuACHPtNxn6W2Vfj7qwrToUhWJ+JVIdIMQ98hrV36spO6yC5sTszt1/VhSgkBePf+CS32vj+2EU/B5e2hwnAvlMYDaAxvII9Lu4H4zDqtIWntjdryRPiwHECuV68Ht83j8XtHTHtFehWDu19ZvhVTHuBG5KdoDsU/jGal7kXHxOHLa5l7PdD4uQkpjKnFOGkUReRgDNV7qZDZBd85qafjE23qSnPexLFfxNtPpUV0DKmJvQcCzXBEYDZPeWSPamA9nYF6NuRoO5hvsyQYvwEMmoS9pJSKugoWLFF4Gx3FpfUvugyfXwBSRqUdpsToQAlLxVpAN0/bvoZeK+xBZ42S+XAg8S6rJ0rUYSQPbWFVoiJEJPSo4alC75Ab6YoVSfSjpzOwkgW73F7E3HZhMJ6AMut7AK1CRT5wWEdrqEjiVPAsh1sGIThWijmD4dXfLjMuc2suGPhv59X20zeQsF1fa5wyyJ6PB3Upq3dP2XFkHj5JiTRC4pVL3Hn/Ll8NZykYpGmRNJcQOILjCPhPjqPPsXW5UISvb397OmQTBdY+4FkPokGSCy0O4MQEJLLZwuU8ZaPwh+QtH2rF2AdlnDLlcoRMuSsVzd1NCK2dtIbV/I9ta15rUMocg9dXrQ2LOcDRB22FczobCn2eV+BRdkahCWJDjKspHdLrC622Roc1XpSyiCjzWcxbTgZJuEMGZH8e572mh3VAVrgXshqaER8Ul82ayjNKYKpzjYFOPUya4rmCFKTtKzRqTwZAcIIUcxRTiOGfaXLcMkE3kzFKo8QjIQYIiQASH20F9ycDHPosgwH/weyQACXf0stFPKUK5i06BIPKFlUk4t1lV3ETGn+qjFx4nR2urLFenqo442d09/tXl09JjQfag9QX1onFzDIKoPNCSrSd6IoiDhvVbiy/s2WAAiYHyc3KP2/gFsgUlPwoKiVgAAAABJRU5ErkJggg=='
p27
sS'version'
p28
VV3.0\u02b2
p29
sS'uni'
p30
S''
p31
sS'desc'
p32
g31
sS'browser'
p33
V5\ufe0f\u20e3
p34
sS'annotations'
p35
(lp36
V5
p37
aVfive
p38
aVkeycap
p39
aVsymbol
p40
aVword
p41
asS'wind'
p42
g31
sS'andr'
p43
S'data:image/png;base64,iVBORw0KGgoAAAANSUhEUgAAAEgAAABECAMAAAAV8YMOAAAABGdBTUEAALGPC/xhBQAAAAFzUkdCAK7OHOkAAAJDUExURUxpcfzCG/eTKfeTKfeTKfzCG/eTKfzCG/eTKfzCG/zCG/eUKfeTKfzCG/eTKfzCG/eTKfzCG/eTKfeTKfzCG/zCG/zCG/zBG/zDG/eTKfeTKfeTKfzCG/eTKfzCG/eTKfzCG/eTKfeTKfzCG/zCG/eTKfeTKfmhJfqrIveTKfzCG/y9HfqrIveVKPzCG/qrIvmhJfmhJfzCG/zCG/////eTKfzDG/zCGveUKfqvIPqsIfzBGfzGK/7xy/zBGPzCGf7hkPzGKfeSKfeVKPqrIvzIMfzBG/zAHPiXJ/y9HfmiJP3TXP///vzEIvzCHPzHLf7wyf3SVfmjJP/89P7z0P/++/zKN//+/f7xyvzDH/zCHf/12//01f7vw/zEJP/12v/99/u3Hv/z0P/++v7ln/7wxf3MQfzIMvzFJvzFKP/23//34PzDHf/+/P/9+PzLO/zBF/3OSf7hjv3QTf7yzfzFJP3KOP3VY/zMP/3dgPzAG/zJNvigJfmnI//23P7oqfmkJPqqIvy/HPu5Hv7prf3ehf7jmP/99v7uv/3PS/3UXf/66v7ik/7mof7tu/7xzP/9+f7tvvzHL/3fh/7st/7npPy8Hf7vwv3SV//34v702P3RUf3bd//45P3VYv/78P3NQ/3NRf3NQv/56P/45f3bev3MP//01v/45v3cfP7z0v/78f7rs/3ac/7yzv3SWf7gif3Ybv3dfvqxIPqvIf3eg/7npv3YbP7pr/qsIv7wyP3gi/7km//66/3WZfzJNP7suBj2ewsAAAAzdFJOUwD+/rfR+fkNDdEU/TfG8/M5vb11tx1YOTcdxhR1VwWeyQXJ0gwM0v39zs79+f2gzvnOngyqLMEAAANxSURBVFjDrdjnV9pQFABwtNW21j3qqLXD7t2GENpgUlBEi6AILgqide+9W7e2WrdWrXt1773Hn1YQQ0CSw3uJ91POIfnx8nLvWwKBJUIiffwQTuHnExkisEVogAfCOTwCQikn7CzCJ6aveFsdr2DEw427c+4yuuvgJnTAA3HjDiWeckc9D1mcqKt83ivxJmqOw0fN0PEjvB302AkztCeat4Oe3GuB9vF20N38oGnK4Qt9jAWCMOawu6M7FQRSF0sYI4u+RZSb4BrC08djGOOnnaS4I3MJEfNjQsbIlNq93V0AaKmSGUqxg0Rxrl+NWEgDgK4D9NFk0g5B/cIdgjqErjsbBMqaYoGMJVAQJjVST2ZM1d6go1apR2AgskhHQTl/qh3+AoGC8KpSClqeJdiqFgAiVh5Q0HoNzgeqy6GgsiqSD6TMo6A5CYFxh/D3FbYWadbkKj2Bc4PIFluFVPxenJv59bU5y7lhIHk0tC0PM8q+vFXhHKCHzjn9sqOZhIaQf0zl8WIWFsIajIyFttiEQULJ9cwlaxrAoSC80cRS/PeTMRiIWNlggfIek1DQ6kbO+i3D6Izx9tNnlQ6Dbr2chOmjbE3dWuPfieISeVuhpmVkmYbGmgioPCIIAifNMzSJmy+ylZm0lA+XR45s9apteBIWqLhDCFJOZ7pBjkHNIo7VoB62QWVPcAhIX9NcjmOMCWpKJyESMl1XOjTQgFWT2GbPN9TSK4FRKcSrEUvmmX99vE9ZKFWpstuUvffor9arh+nsfOtD2kcGnU7XrrUfmF7j4BBWZBCyRXsjBEQM5rA5Fe/UEAmp7mdtUEERRNFi0jdsjqkOZjzCil/lMTtzGsgRUv5hjmHllzZeg8GO2Uj68xStI5Nk+jyxbT4CWYziePJgvk6bQSnazMkqxGmGBFgeWwpDLZ9fGB75ERNj/NanScacJ22QBbt14iZwrLxEIsk2XzEsJIC2EI6bG+ZfFGybGkVutwh8kyVSdImZofi4hM6eVhFgtPZ0xjJD8XHmfVxCatenayARl2rpH7EDFE07KCqTiYFCZv1eYrvNsXW7vuVAh5jerkddtDjfuTlb0uYBguVII/40VwdF91NHGgKv4PjzFzg7qLsndcgiCLvEvT2WOONNHSD5B3pyZzwD/ekjrfCgCF9ujG9EUPgm8R8Z695/uxSvjAAAAABJRU5ErkJggg=='
p44
sb.