ccopy_reg
_reconstructor
p0
(cemoji
Emoji
p1
c__builtin__
object
p2
Ntp3
Rp4
(dp5
S'emojipedia_url'
p6
Vhttp://emojipedia.org/keycap-digit-six/
p7
sS'index'
p8
V753
p9
sS'code'
p10
VU+0036 U+20E3
p11
sS'apple'
p12
S'data:image/png;base64,iVBORw0KGgoAAAANSUhEUgAAAEAAAABACAMAAACdt4HsAAAC+lBMVEUAAAA0Rlw2SGEAAAA7UXI7UXQ4TWwAAAAAAAA1R2E9VHw2S2Q8UngzRVk5T3EAAAAXFy4AAABEWno5TWw3TGctPVEmNkYEBAkcKDEAAAAuP1IVGyM0Rlw0RmcxRGI2S242SmowQ1QxRFUfKjkjLjojMT8AAAA8Uno0RmkzR2c0RmA3QmM6UHIyRWE6UHJefp5khaZggaBfgaBegJ9ff55jhaRcfZxZepZNaIdmiahmiqpoi61cfp1Ze5hafJpJY4BWdpNTcY9cf6FOa4pbfZs9U2xKZYFZeJdFXntBWHJef556l7FfgqR/nbfW3uekuMuJo7xzka7z8/ZMaIcXR4IwRIEoXpGTqcDe5Oz7+PqCirBUbJ1CcZtJd588T4hpfalUf6Ocn79li69hia2ivddtkrVuk7aGpsSGp8aCpMSPrsylwNtljbF+n71klsFni6ugvNbd5/CduNNqkLF7nb1RhrKsxdzp7/Sat9KKrs2TsMt/oMBpjq9uk7dqj7BojrRZe552mbqTsMykvtjn7fNbfKGMqsiXtND///+Mq8lVdZqJqMfk7PNSbpH09/rT4OzZ5O6owttymLpskbT6+/2futavxdmJqsmlv9lylbfC0d9rm8VliqpQbI6Ip8WCo8G2ydqjvth3ncBKgbBnja9TcJWhvdfv8/e4zuJqkrfB0uOrv9TJ2OZbg6hHX4ZQbZP4+vtgg6Xr8vjJ2+tVgql9ocSNrcpjk7tmkLZ8n8Bghqjf6PGpw9uPsM5rkLKRr8ugu9bF1eRoja1qkLVtk7eZttFegaOvxt1OaY6Uss94m7tynsVnjK2PrcqWss1elcJhgqNXeJxihKP8/f1bfqP39/q8zdyFqsudvtqSstFjhqVliKhGX35Sb5OCp8mautU5ea2FpcN1mr9ih6qCob9Vc5dkh6dLZoWTrcdrjq6jutCEpMFwk7WdtcqnwdvQ2+aduNTq7/SQrMVQbIumwdthgqFpi6pqlLmmwtr//f6wy+E9eKl4osU5d6mRKF9KAAAAL3RSTlMAz88Pyc/PJh7Rz8/P0M8IBBr9xs+2jR1OIcA/43kuqbTK1FlybB/GOlkdF91R1P61bqgAAAW0SURBVHhe3JVFjxtZFEZnMZ1FEkVRnK3TvQvnRxWZmZmZoZmZmZmZO8zMGWaSpvyq7HrlHnUn2zkb69P97tF99sJf/b+4wC3kcL4+Bg6nkHvhPwXXOefeVkeajyVS/fYc5/ohwdWiRxH7SjdqxT8dCW5Fu1fskUdFV/Ouv7HmeSmu7eyKh3U/HIEuHO/qrBW/9KzdYL3jyrXefmS8I5qOuicVRzLpJksd40h/77UrkKBobUIc0N2OtWmnEr8fSWJK2xa7rQuIJ9aKGMHlnhVbaatitUyUSEwdQyIhKltVtJbaVnouZwVnC4LIC0XMJfr2MxG5YooXSLDgLC241NM/VhLHRD9/NiIsXjLW33OJFnB7kYaYtr7sC6jXxhqQXi4tKAyKhfNz9V/EXIdQHCykBRftNv2qvOUQmKvM1SKXt5AfWP5Mvqq32S/SgpOedqVr7hBy7P6mdJdEujmNYflTl7LdczIruNXuw4rzmdNXVt4bDA8MhAfvVUrv5xcwX/stSDBd/H0exdO7oqifpu9P6d3i/DksWBxR6tkoDdJBP8TkpoFdUY4s5gSnPYsB/TIL/XplDCxChnV2I7DoOZ0V2G2hZR+bzTZqbyAepx/SNswqLIdsdljgW2fxZBos/TG/LhQux4EgelcIN3xsAX/HyaKBWpoPzDqd2043CFo+3NjhM4KC/SaBcxbCyKcOcAu3M9FbB1KsFO44BU37BYzANLsN09ABBHUh8gCj0bhTksE1AldmTSyBw8tiGBwd3fEKRjWNjZrRYW+Izw+xOw5GcCbYtCTwhhgEI+mMQMHTPJManj41jD5rBHMIr2CpKXgmJ9gikrwahvEP4AUVf/0d9gPCT/75LVQDw0sSW4zgtQy3JE083nMaNfWtGeT+HN81jtU8z8LjmZIWXPY6KziRESxZHKbaj7WAjQogUPghwpokNSVLJgdZJwUnsoLmqhRhsRCWpFryKoNjPrd3sy9NG7o0JjCUqJOWTDtV1cwIHs7gBEHgOE6UOzbUkpwgXWH0vqvrowJ/SaLecJSTNVCeecgIHr9RpXCKVCqFE+IKev8D6dso/4YydA19AmO6qHrzGBJYUzDoHUpwByH/KQkcoWIraoZLVkZwPvLArJqBQOuo939EQERepUGWoFBHZX4QOc8IFlQwaCcQ6HAziNYZN8g/onBpgRGcqj6QWWHQd0AwiZrprKAFcEl2UH0qJ9iTmWHom93dW1QeygrgkmyPEfz0y68LMFtWcPNNtPs9md5PDIGfIS2pgkv/VlLnOmoDYQDHzboYoggZFxwLNHu2+AhjSHyCDebce3NfT8ALpEyxRUqqKEW6FGmW1g+wVYqIKCnWW+MQKaKwbCldVrExNrJi/Gvnm78sefTZlrkIbJhk7YHfUHN+w6/zL7PZ7M35T+ctzob+oRppbiwCDUq3h37a4bd/G+3l6bNXz0+ffne2g+YfsXWqsQzQ0/sBH7S5sxNfvzg7e+Lcv+xrgZkp7QUSVZaoBY377vv9c/z4wvGxpwdGCLaaWAROYEVfcfX7ImhQm+oBFXjiBQx5Ml3VOxj5A3N7rAcHJrKxDPDWNbGqfvjIC3z6TPSIoGuLjwgQdf3h+7eXo9Hx4OCoPib+E0g1OasS4mudsrvd7lGFvQo5tbhmygsw5CScRdE0ZYUekYwX2BJa5CQ2siVsuYGMKpZJKyayLKoZN5BtS5AiY6Kg1M66gbzS4GkqJppvKHk3kNsWREjHBEVhO+cG0F3FZNjOvRg6LGMqu6gbwEBBlXi2U15bh+UltQAwxLVfLN1IHGTXDbCQk25KxX1kAQX5kmqKnCzDNcgyJ5pqKQ9QxIODYqHdNCWxxURqiZLZbBeKAEeW0psA7KUUVTCMagTDEFQltQfAZhrxwW4LYCebSdyJlMhkd8DtfQwJSOMgFjyNrEKTYG1JFAmDoXguGSmHo/6v/wv4f6IWjD1K5AAAAABJRU5ErkJggg=='
p13
sS'twit'
p14
S'data:image/png;base64,iVBORw0KGgoAAAANSUhEUgAAAEgAAABICAMAAABiM0N1AAAASFBMVEUAAAA7iMM7iMM7iMM7iMM7iMM7iMP///87iMNHj8edxOG20ul4rdbO4fCpy+VsptJUl8vn8PiRvN1gns7z+Pva6fSFtdrC2uxwnJ46AAAAB3RSTlMAYL8AIM/vi50ITwAAAXRJREFUeF7t2IlqwzAMgOGclXweufr+b7p2ZVVhFkSVYTD6P8DX2JUhcXevH1DR0I+3unGcZlQ2T3douqC6y3SDZmzQPHY9NqnvhjbQ0GGj/i/0gdIO4LIesnBvW7WQg0fFaCByAA4VZOGZ1UAHQJMnSkDtis3OGzmaf83sQCXFHDlmg6SQZxwGOrVBDhVQYBwpdJATUAEZWthuNJCjAcqogFZ4ttgYnPXmPSjAr67pDShBrWjEUIBquxFCKwAnySAHrCSCDPBZCXQA32YE0BUolxCTA8oKIGI2/6ATHZhyHkoELT/2Qvh6GrK1Xy+EvwHZmh5ZiB/rVFtv+EvIE+RlEL8dkR0kHloqY2xokA4e4s++qxzjfBrCQlIkRz7ZGIEq0ftYgFoEUG51+jHy0IISyBTOCSiCcN24hQkh9HVnRR4SPNOeUQ6hcSQoX4/TK7XFrHirNd6G76z/fPjxfaBmlyzNrn1aXUQ1uxpreVl3q8X14ReNb6JSeYgBrAAAAABJRU5ErkJggg=='
p15
sS'gmail'
p16
S'data:image/png;base64,R0lGODlhDwAPALMAAPv7/gBk/wAQ1EyR/gFV+b7U/YO7/2OC7Ttc6Lm07pia6xp3/xFi+A1v/yJw+z5N4CH5BAAAAAAALAAAAAAPAA8AAARi0MhJ6TGr6RZ62I1gcAHBDJNHiByBFEAxDF7ABg88EHXHEo8Yief5BWOJgqyzGgEBgMHiEFv4nMHCR5CIXhtPA1PhbYKzJUKXZhuVuoYBudC6MRgV65dH6PuJKwcCg4SFhREAOw=='
p17
sS'related_to'
p18
(lp19
sS'name'
p20
Vkeycap digit six
p21
sS'known_as'
p22
(lp23
sS'default'
p24
Vtext*
p25
sS'bw'
p26
S'data:image/png;base64,iVBORw0KGgoAAAANSUhEUgAAAJAAAACQCAYAAADnRuK4AAAN8klEQVR42u2dLbSOTRfHTxAEQRAEQRAEQRAEQThBOEEQThAEQRAEQbCWIAiCIAiCIAiCIAiCIAiCIAiCIAiCIAjC9T6/+zHnHfPMXLNnrvm6z733WrOWdZxzf8z1n73/+3O2JhWVBbKlW6CiAFJRAKkogFQUQCoqCiAVBZCKAkhFAaSiogBSUQCpKIBUFEAqKgogFQVQH/n9+/f04cOH6dmzZ9Pdu3enGzduTFeuXNlbN2/enO7du7f6/0+fPimAasrXr1/3HsTu7u509uzZ6fjx40OtY8eOTVtbW0XW0aNHu3yH06dPTzs7O9OtW7emx48fVwF2MwD9+vVrevLkyXT+/PnpwIEDxR6OrrQFqB48eDD9+PFjPQDEB0W9cwrtLwKIzpw5s1L/d+7cWZ0QANZrXb16tckD5PvW/B6Y0WvXrq0O6sGDB4Of49ChQ6vP8uXLl3EB9OjRo79MAaDBZL18+bLYCVgq8JpLly5FtSIH4Pr169PTp0+njx8/rjiRK9+/f5/evXs33b9/P/gAeR8OjO/va2j9N2/erAAFYEJA4vPwu8MA6Nu3b6uHYm8aWogNHkV+/vw5Xb58OQqcixcvTi9evMjaYLgeoPM9PB5qCxDZ3xdgHz582Ps9z507l8WRigOI03nixIm/HsDnz5+H8hzQgDGSzIaiTUoI3x/u4b4Hnlxr4RADXt/BAVxorG4AwhwcOXJkT+tgk6U8iYeKKsUub29vr0xAjSXlKgCo5PvyeqH3SnmdCxcurAAA1+Fh55qeV69e7T0r18TyLJoDyAYPfCF2eo1XxsbOkT1d8wvziJbnoaeaREzsqVOn/vOaPA8piIoAiA9C3IE3xzTMMXu+JLbYh37+llMG0baDdEsXp1byMEq/r7uIyYQ00dzf8bnYF9+e2QvqkKI9jPbHG/YB8/379/UBBCDMpgCAOb7z9u3b/3ABNhVvDeJdQyCGBtxzrnUtQvv8+fMVgEPk1WhsSK70sBLymDOJ7GkK7wyBiH2LecuLAQRvMWoPuxoSglc2cSPuAuGuHfF240++za4BHgABl5OaIjy9nMOBJ+l7PQA79zxcwWr4NBzarxqAeFPjomKWQgLps9UsmqhFuiSmebD/teJRaLUULsNBXOJVhjQc2j2FWPu8s7nntQhAxqtBnYZOsR3h5bRIVfXSAFrM42LDa4UXOFip6RriZktjbyGzlgIiX0SeQx96vtkAwoU0bxAiW7dv3977Hf7dSlC7sQeWsqmpAkfJyVGVODiYZN/rS8k1QPQFPkMhmWwAGaRCEH1CyN+8OVHoVgLXij0sCGPNKDABwlQAYW5LaV8fiNCIUs5peK1r7osBiGimQakvcokKNzYZ1dwqZE8sKpTzsVdqtLU2/ykJIEPgffEdtJwk8Mjf+zgV+1sEQLimc7aRwJZx61vlv9gY36a5K6QxSwoaNxVAaMWSAq3wHaY5ZydGA6jfKgIgkyglUejTAql2t4T41K5vSYJjJWI/qQCi6Ku0ABb3fXDVJY4Mz05ixrIAZGIrbFQIXHhBrQTQStIhcINW2jAWNXZXjWpBrIMvlCHRQoQ3fJ6kG/bYytkc82KueYLBmzelZLWVzEVllwbrcuXhw4di8MSCdaWdCqiHRHwVBC4RTwYQSVKTK3EF0Jj/y80SLwknxArCWtbfIHCGWDwITlZzrzjkvs8gqUQ0XNZermJIBhCnOGQPjfexNCiWIr5T4ls9am8MwH1BTRwMtEMLUPs0tCQOBseNmb9kABFQCnEcU6RVM0jnA7NklSoOyxW4AykBAAXfaakNfQ6GxGz6/s5NuRQDEMy+paeTwn0gtK1M6ojiO2iSsEFTAEGuzJuQyKwtgDSlE2KTxfBW91ANBSCbzLaQlDYcaWntfhUIs29fNhZAmCNJysKs0Yr6FUCdAWQ+w6juuwJocABJybNpK9p0UQAJAmMtc0wKoDUGEDGmlBzT69evFUAKoP9LSqE6q1a3hwJoDQFEsDLFfFEUpaIA2hOTrO1VpKUAWnMApVb65SR10XK0t5A0dMfYQcj5OcVWS+fqKIA6AIhReDWq/AAN9Tu8fkqfPsFMyjEA1ciAUgD9kZTos7Tyzh2CtWRB8FO6QRVADQEU2oTcHBjJX18/uE3AqXkyY1WoO5rrb3dHw7TovlUAVSTQczEgfu7rmefBU+RF7iyU/qDSgD1A28Q8QjpxRwgjKIAmedfFXP0ugolxeQ7F9jlF7QDNV/bp8qSW3SkKoICEplDMLZfYonls8PBwfZ0lqUIXbox8t6rSVAAFZI6vSKLQ/NtutYnNMkoVvn+MI7WcD6AAckRKYEMbZPeL81o1+rDQcDFP0deMqQCqDCC7Fy0HQHYCFuJbs8DeHioxCog2HkA5LrzpWyNIaHtcvv7u0hIj1ixGwCiAGgHI7rdPnXZhzygiltOiOhFuFSPVtTWhAijw2ikAovjMfpAta4MkeTu4WIs40cYDiNhNDoDsDWgx1sUNOEryagQkFUCVAZRSRG/3PdkeUatmx1Qu1IIPKYAyAOReJdBDpOkXTFnNQVwKoIUA6pUhT2kAoFFSATQggIg49+wLk0bQ4Uu1tJACaAGAGHLeU1ImttZqQVIALQBQ7wKvlEllcKEak/M3HkC+gY+SBf/ofbUmhWUpn7mGR6aBxIxA4txw7JZCVDrlM9eIVymAMgFEDVFvyUkEl75PZOMBROlFDoC4FnIESb14pXQF48YDiLRADoAorRhBYtdO1fbGtKCMD5oBoFEGK9i3WPfoqFUATek9YSNNJku5LdrUMpUMfiqA/pGTJ08uqoleJwCVBr8C6B+R3rycskEjA6jklVQKoCltKut+AFDJez0UQNO/905sEoBKRqQVQFPatQb7AUAli/8VQNPfk/A3AUBLrgFXAHkEtzY1ojvKfGgF0AAAynHlRxn6pAAaBEDSIvX9AKCSwxgUQH/Ed4ls63tIWwGoZB5PAeR5j9bBuNYAKpnHUwD9kdBNwq3KIloCyDccSwFUQFIuWhnlnrAcAJW8YVEBZIk9LKFlMG6JUFrbsxRXAZTJg3q39BhJLSgrPT9IAeQEFKXTyloPVAhJagC09DxFBZAj0mY9Ao+9JaeovvSlxQqgTDPGye993XdqQwBOQmlRAHlEmtboHUwknpMCIAadK4AaiLQ+qHdnBoBI6aStMWBBAeQRd3zdqJ4Y10RJAVRrxIsCKCCAQzpss5ekVBAwTFQB1BBA8BuJi9yLB6UMmMq5HE8BVEDY+NjD6XXFgHTEHaa4tOuuABIKaj92yntNKZO2IjESuKYogAoQ1dbemHQ4Ohyp9DQOBVAG17Bv4vGtVlPqU0xrq2n1CiCBSC45aXVnF1PJJOS5RtBQAVSRc5CErT1wAS0nmczK8KtWGlEBJBQqFmOjVKi1qck5JC3YAKw271EAZQqloLFRMNwPX+MBStIrcLGaU+n3BYB6N/S5d6OGNFHJth+misXAA3Bbg2ctATRCPxYF9TEQwYmWXrrLDCJJGIGetl6lJaFRw8MCiA88guAi++6H91UupqY7AANDxCXVkUTCe2plDslaAaiVeyqNEUk7OQASzYsAz6ctABljV/CgJCP3AO8IvWkh8zoUgOzKO9T1aAIwUm5+Jo5DJp9FKiSlrpnfpTC+95R8I74DBLiHApBd+wv36F1KGuIr1FPnXCEuveuCvNYosxkRkrQ+8EPohwIQYrevjDKjORQvwszyHVI7JkLeFa83isZxNa/vM0P8hwMQatsOlo0yn2dOiEwz/QzNxHfiEIRAxc9JfmKi0TSQ0x5ueQrRDzkRkgPeHEDuGLqRtZCEfBOOMKtl5LhFbEpSf9QcQKhwO/YC+kc+oftZuGQ4pEmJhkukOYAQN6i2s7OzFqZsPwnaci4nKJ0AWxVAIRYPp3CRX7viTuVv3sOhLVGd6TOBxQA0F0fwZaR71SUrePLnTxMwrQaguRk28B4f++cDrSMZXQch9hSLuG9vbyfRCd9co8UAsiv/5nJeXHbrI3HY5hZlnJskJI5jJb0EOVM6P0JTUBYDyM55xQY4oS7nujBHmaK6rgLfRKvHgqE5tdd4cRITmAwgu7Yk5InZMldkxRcjKEetsrr7MkGL8BBJ/Eqi6IRVcmZF+jww3/DPrPJBE+vhC0jUIneXSlICeAiAklNFOEDXv2t3d3e1LzEz5bu4LnfQaGiqmms1sgCEC29ekBSARAj7S4Yh6CqzOIyYoVxOFeJRLgnPApCt3nhRaRIRm40noA+43lpaSgJAiFT7XhtN6EoWgFyClRooRBulTi7VFV+YuaUTPuCjKd292S0Udu9TboclHh18J9W26/o7LILGKTGYnFhSKHsPn/LF8LZKIRWNssSTYgPwLjCPuPhKnv2LmUg4JUz+KBkGwXTN0YvQ6OFsABGFhqi5NcWaOF1PmSv9mBs/s6gL0E5r9GjZVSkjsYZIwBWSxW2kvj5w2LrmvNZDYldHwInmnuViAGGHfTkTEnsaXR5XoCCxETQS56hII3totAreVcn7z1XKCEnw2BAKaQlOsUkIc3YUdl9rAqlKmrWAXkhyaHh8Ei5bdJRGLHEKwSYZpyS7rWCGSDlJumlTwFMcQAgxihjCIWbYX3rLCSZyMhRUZYRgIIDBQwYIqVdNEYNLeRZVhvnAeyRDDXSNs9BOHOhUqTYNisATWqZE56euuguPOZejVh8nRmmrZGagrj55NEzdEvrQbB4dNSZUH2pN0BgaZylwmgPICFFN4kYkBXHvNRNfn9tgAfCA4TilJ4f8D1S2PgKXlcE+AAAAAElFTkSuQmCC'
p27
sS'version'
p28
VV3.0\u02b2
p29
sS'uni'
p30
S''
p31
sS'desc'
p32
g31
sS'browser'
p33
V6\ufe0f\u20e3
p34
sS'annotations'
p35
(lp36
V6
p37
aVkeycap
p38
aVsix
p39
aVsymbol
p40
aVword
p41
asS'wind'
p42
g31
sS'andr'
p43
S'data:image/png;base64,iVBORw0KGgoAAAANSUhEUgAAAEgAAABECAMAAAAV8YMOAAAABGdBTUEAALGPC/xhBQAAAAFzUkdCAK7OHOkAAAJVUExURUxpcfzCG/eTKfeTKfeTKfzCG/eTKfzCG/eTKfzCG/zCG/eTKfzDG/eTKfeTKfzCG/zCG/eTKfeTKfzCG/eTKfzCG/zCG/zBG/eTKfeTKfeTKfzCG/zCG/eTKfzCG/eTKfzCG/zCG/zCG/eTKfeTKfeTKfeTKfeTKfqrIvzCG/y9HfeVKPmhJfzCG/qrIvqrIvmhJfzCG/zCG/////eTKfzDG/zCGveUKfqvIPqsIfzBGfzBGPeSKf///vzFJveVKPzDH/qrIvzAG/zCHP/9+f/89PzBG//23/zBFviXJ/y9HfmiJPzEIv3QT//+/f/56fzHLf7moPmjJPzEI/zCGf7z0vzJNf/9+P/88/3dgPzGK//++/3PS/3MQP3NQv/45P/99/zHL/zGKv7hjfu3Hv7mo/3UX/zLPf3ZcP3PTf3Ybf7oqf7st//45v7rtP7tvfmgJf3ORv3VZP/89f3WZ//45f/78PzDHf7rs//78vzEIf3ehf7jl//44//56P701f3PSfzIMf/34v7lnPqqIv7uvv/67Py/HPzKN/7z1PzLOvu5HvmkJP3UXP/67f3RUfmnI//z0/3SVv3NRP7qsv3WZP/23f7oqv7hkP3cff3QUfzDIP7wxv3SWPy8Hf7vwv/99v3KOfzFJP7uv/3LPf/23v712f3TWvqvIf3XaP///f7pr/712/7suP3adv7yzv7prfqxIP7wyPzDHv7ikv3adP7gjP3bef3RVP3Xa/qsIv3cfP/34P3Zcv/01/3fif7npPzGKP3egv3VYf7jmP7yz/7lnm/Nh84AAAAydFJOUwD++bfR+f4NDdEUNzcU87fzOb29dR11Ocb4HcZYVwWeyQzSBckM0s79zv39zqDO+fmevwNGKwAAA5RJREFUWMOt2Pdb00AYB/CCggrIXoKi4hZnkl71AqW0lGULskcBAdkbmbL3RpSNshH3Hrhwj7/LBsjgIZFL6vc3kqcf8t5I7k4mo+Li6mmPSYq9p6uLjImbkwUmORZObrRjcwIzJTOnrNccKzvMwky6c/IcsW33KrTXAjOTDoWVWhJ79lGO13lT6gq7RBiz/5AROnjAZIc4fMQI7fA22SGO7qSgXSY7xHbToBnaQYQAELjx0l8UBJVxGv47XVEiIKAZfBp7jf+ePDMUGYIZdY04XjmK8ZanLvVFhGDvYwNuTKXAM91EhGKaX+Fr4ZfkAWilgaEmnM6VaZ7i5BeRIKh/grP5kgIlQjD1Ocfxm8qRCMW0dHCc+G9xEksDurZHrJPwVQkxiVCulnWuJ6p4xxECBHPusU6VgIMCqdr8GGeuTsBBgEh9J+OE/1kQmv5bQ7oXbGGLLULO1hAcvME4K8khEAKJbVQdyTiG+pTm5Ob57ypAAtFQTE4w20KtKxERjUuxI4l5SghEQvCZAd+czo7cJFIcVFuD8yZwcUgDRECgOxgXSMSkDqBDZLZWCMITJqIBMgTrcOFo36E/kSrrHxBedBsiQmChZMMvDeXaND/O3zVscVtAGbHcRil+m1c2sBzLUlXTEBG6zOm0lQ860hjYHRnIXIvUiIeqKtYnBlSOMxdvpQPRUMEd+jdkWREzmJKhWCiwgp0TqkL6alp2CGJj9zCDZpiFQD3znPmIkHKWgcr4ID9ECKstYEob5ZRWLLY0DLvK/O9xtrGHW5n3SR6JOGkfxrPdD+nuL2CGZA9i92Ngfoxp14b8aDKEJEFcFjsgszSoL7bXkZwpUvhZn3yfO0W0AyTyq1YfwZlt4fFzG968xUqA/hV5Y/gPrxGqldILhZzyTxoxX1qYMiXgLOuAuNVI70ggj9M4GQ1ELkZhUuLYps9RyfuNnyOk5THAciaa4jlMVUluEpS0YIdY3M9fs00rDQ0NS79rfug3fbLRtxAxJFbbkpKamno3qZpnEaEW2tSoM7vkm0uEVPiWtOp2BT8UFBDa36eWI0bd1+/PDwUFGPdxoVHtDy6gJCCKah/FBsibdQjC11eBFN+1/lJwNsdr2/V1R3QU7Hbd6zTlfJTmrEurBwjUkUbQcakOQfjQRxoyK7ugsz6SHcLSnD5kkdmckf48VI5Z0wdIDo7m0hlzRwf2SMvD2d1WGmPr7uyxSvwF+fXVhsEwrXAAAAAASUVORK5CYII='
p44
sb.