ccopy_reg
_reconstructor
p0
(cemoji
Emoji
p1
c__builtin__
object
p2
Ntp3
Rp4
(dp5
S'emojipedia_url'
p6
Vhttp://emojipedia.org/keycap-digit-seven/
p7
sS'index'
p8
V754
p9
sS'code'
p10
VU+0037 U+20E3
p11
sS'apple'
p12
S'data:image/png;base64,iVBORw0KGgoAAAANSUhEUgAAAEAAAABACAMAAACdt4HsAAAC9FBMVEUAAAA2SGEzRFk0Rlw7UXI4TWw3TGcAAAAAAAE1R2E8UncAAAAXFy4AAAA5TWw9VHwyRVY0SF8tPVEmNkYAAAA2S2QAAAAAAAA9VHwVGyM0Rlw0RmcxRGI6UHIfLDYxRFUfKjk5UHIjLjoAAAYAAAAjMT8uP1EaJC0uQFM8Uno0Rmk4TXQ8UXUzR2c3QmM0RmA3TGwyRWE1SGhDWXo1SWdefp5khaZggaBhgqFfgaBegJ9ff55miahliKhcfZxpjq9NaIdZepZbfJtcfp1MZ4VPa4pef59WdpNZepigtcpggaFZfZ9oi6xoi6lKZYFScY8+VW9FXXtliatkhqVae5ldf51JY4BZeJdHYX5PbYtdgqOGobpOeqCVrMJDWnQ8UmlUc5BzkK6IpL5vkbCkucypvdF8l7NnjbBzl7mGpsVtkrVuk7d2mbqBob+CpMRtk7fV4ez09/qhvNaKqsmjvthqj7BSbpGlwNqvxt3m7fOowtuRr8uPr818nr77/P12nL9egKSduNRXd5xskbRafaJoj7Rqkrd/oMBli6+sxdzd5/Cat9JqkLGgu9ZVdZqXtNB5mruZttGNrctljbGMqsiCo8FZe59njbNZep1QbZNkiq5qkbaRsc5fhKjq7/TN2+hpjq5Sb5Olv9lwk7V+n75QbI3u8vdrkLJTcJVGXn1OaY7J2Obb5O+FpcPC0+Spw9tmiqpni6uzx9pxlbdqj69smL6Iqcj3+fuqwNby9fl6nLyIp8XR3utrkbOtw9djhqZHX4bp7vWTsMyLq8iEpMLg6fFbf6SUss/S3+xbh65hmsZbi7WgutWbt9Fce5+4zeFmiKmJqMVoi61ggqV/n76futZkh6eVtdJ/ocFjhaSPrcr///9oja1iiKpiiK23yt1Vc5Zhg6VLZIakvtmVss1skLGWsMlRgqp/qcx2pMrk7fRihKNYh7DH1eF0lrSCocBXgaa+z96mwtpHeaOhvdeJqMeSstBkm8amwdunwdugvtZikLghPDYxAAAANXRSTlMAz9DPyc/PJh7RzwgEGsbPzdC2jRLPDCHOP+N5Lt1Q1FnQcignbMJLvsY6q8xZFx23UbD7p5MUeJEAAAUNSURBVHhe3JJFbxtrFIa7aLKoKnd1pUhOF16Gyv9p0MzMzIxhZmZmpjIzXmbcXM/E4/lsz03a7X123znv++iMNOf+X1Syb7FY58+AxbrFrmSsX2fdfN0u6zoTWfvrm6zrJfUrN7plCUP9cynaeiqo9Hm9ISHrvnGl6HpOz8GzcHSqt0+53HAKy8q+3qlo+NlBD6fgO65eTr5yaAeEumnluutU1pXTOuGA1vEqefkqILjWUx9ebZjcOnQOqn4+FdWg83BrsmE1XN9zje7XLRni4g6XokWuUg2egUolb1G4OsRxw1Id1b9Y63PoXYI38r8+E/kbgUvv8NVezAmql+5YFX0S+Z+fjVzSp7DeWarOCdjJlH7OKWn5AiTOOX0qyc4JanxhzYBX8kV4BzRhX01OUBWz7itEvxbAVAL3IsW+NVaVE1RYbEaJF0Tk/r2UByIwIjHaLBWUYMPmF90D8Bo/7vxRzM6noBfIiPy2DUpwyZLO7BlBMo1PSvk6A0b2MmnLJVoQMrpBGAXKTTBiDNGCC5a02B0E0TBfAEbc4rTlAiWIWSeCfpBQL5NAA0aCE9YYKPBvgoTmGATLGjDiBwWJOPJ2BUQ99QKgRUn0dSNqMPIWiSdoAcRbURcQWs3zePyBjuyLCxIrPIgWmCC7+vF/oH44LiQO+GmiaG6HTJSAY4LwyGqEmdldAdEXzIrBaTaOQyYOJfBBfF7kN0Yi//xN9IUrSNGcx4d8tOA2H0aOZxk41o9PEoIXD4vmCMy/TQteDqMYbEeQ/lJ2yT9C2b8GDhHEDmPo8EtKUEYI+Bhuj65FC1nj854QLGjBYdSOY3xCUJYXDM1jWHYGz7RxuT9wAb4VkAdw7eSLXLbNwNkohs0P0YKuo040O0JRFBvFA9q2uzm41pMDRgIn7zZtAB8lYkS486grL2i+7zGjJ5jN5qwFhvFAIDAzs03+0sL+7AuH4VGMWFNBz/1mWrAonTdTzFOYW7dt5AHfhekhHZMu5gXlssUmT2cp5l8WSMH7FMPS07QoK88LHj31MOD4ME30O76HmLZPH+UFX7V/MzwmLeHdj/3kAY0pKQNj/3Y677ppQwEYxx0YbGQshUuJYEii3F+A2C5wYhuMiYtvBEygufU69xE69DVaZaFSNqxOnTK1c5RKllDCkKxWK6K+QKMjGyg+KnZ/+/fXZzm9J+MAY53v+f1+gIE3wz2Ec4uZDii3fo3RJxh4ObxFUSaBhZ58Vb+eVR99gfvPrxrXCPUrubfgBUS2pFg+R/sw8G7YtxCUEitOAlVb6c+yjn7CwMPHPopiV8eBBNe6LPrYo28w8LpbRLpscQk3EOXAoORz1/gKA8fdEtIAcFEvUBEc2+f7rxvoeddGcoTKVIA52J314dgNvN9FOWDmBX683Yde3M0NLKpNeeAnP4OcAZrcVBfdQETlaSc0mlcj3gOz/T+Btuk9SF5IeZoJic5LF0k3kDrRAEuHxALtJOUGlk/FZpUNqdoUT5fdALFiSuBpSEAyVwg3kF7TRb5VCKXFi/pa2g2QG1uGJpQL+cAKZUEztjZIzEVkc4daDZSD7sugph3msgTmyeDbOaMj1QQQiFCTOkZuG89gYxSe3dHVzpnU5udqS2cdVd/J4hQ2EV/C8c2Ibpj3FW6Oyr1p6JFNHF+KY1PIx8L6aioZjSVi/5SIRZOp1fXHPYn9JU7hoVBxbFaGCD4nMhgKmaaIAKj09Ps/A3zysRTauFgAAAAASUVORK5CYII='
p13
sS'twit'
p14
S'data:image/png;base64,iVBORw0KGgoAAAANSUhEUgAAAEgAAABICAMAAABiM0N1AAAASFBMVEUAAAA7iMM7iMM7iMM7iMM7iMM7iMM7iMNgns5sptJUl8t4rdbn8Pj////O4fBHj8e20umdxOHC2uyFtdrz+PuRvN3a6fSpy+V5oD3UAAAACHRSTlMAYL//ACDP71kzCuAAAAErSURBVHgB7dhBjoMwDEbhgKGFQAIB2t7/pgObLEaq9Ub2asR/gE9vg1AcrjWtGNY23bnQdf1DjHv0F9Q/xbxnf0KgBzR1oRGXNaH1gdogTvtP0A0N45fFP0HTnL4uRw4NSdu8YGhN6gqGsg5lL2jG0KZDG4YmHdoxJEVzDuGQxFf5tXeFiukTWY4atJigVQ/CUEx6EIRAEINAEIQ2PQhDox7EoawEAQgEcQgEcWgHQQiaK/QRAIGgFAkEglaxQC8QRKDlAEEEKjCoQjyIQzyIQzGBIAKtOKhCPIhDNIhDAwhCUAZBBBppUIVAEIFAUBYL9E51I4NAkAUqNIhDWUzQUKHBBskKfh0Ikk+6lhczJHEvZboffjcE5ndk8Tr7+B2i/E5jbse6cx7nwx94PFmH14i8ogAAAABJRU5ErkJggg=='
p15
sS'gmail'
p16
S'data:image/png;base64,R0lGODlhDwAPALMAAPj3/WCf/gAP1ABk/wFc+oG6/7vO+zqK/1l36w1t/gBp/4WJ6RZG6QFN9hZ2/wtx/yH5BAAAAAAALAAAAAAPAA8AAARhsMhJKSruvcE7f4lQPARTTQ4hkkngBogBGIlaJByhl/Ix2BuOQtFAzBIKG05YAgAOhORKSFzMmKIlh+H0DaQjYcNqIGBvHe4z+gV+x1eqmxgo+IZDpe7X2O1VCAKCg4SEEQA7'
p17
sS'related_to'
p18
(lp19
sS'name'
p20
Vkeycap digit seven
p21
sS'known_as'
p22
(lp23
sS'default'
p24
Vtext*
p25
sS'bw'
p26
S'data:image/png;base64,iVBORw0KGgoAAAANSUhEUgAAAJAAAACQCAYAAADnRuK4AAALlElEQVR42u2dL3AVvRqHKxCfqEAgEAgEogKBQCAQiApEBQJRgUBUVCAqKhDMIBAVCEQFAoFAVCAQCAQCgUAgKhCICgQCgUBUIBB75zl39kyaJrvJbnY32fP7zWTmzuVre87uk+T9lzdrlST10JoegSSAJAEkCSBJAEmSAJIEkCSAJAEkSQJIEkCSAJIEUD76/ft39ePHj+X49++f3qQACtfdu3ertbW15fj27ZvepAAK19WrV88AtLu7qze5SgD9/PmzOjo6qp49e1Ztb29Xt27dWkARMi5fvnwGHnPwb6G/ZxXGjRs3qq2trerx48fVq1evqu/fv5cL0N+/f6vXr19Xd+7cqS5cuOCFQGPYAVQvXryo/vz5UwZAfND9/f1zKwcQ3bx5s3r48GH19OnTxQwBsLZh2z+xw1ylbt++vQA61/HkyZOgZ2KOg4ODxZbOz//333/e57C+vr549jgh2QL08uXL6sqVK2egYct6//595xmwt7e3MqsFQPRd9T99+rQACmB8IDGB+W+zAejXr1/V/fv3z4DDKoT73Vfs6asC0Lt375K9k9PT0+r58+fVxYsXnX+L1biLjZQcIFzqa9euLT/YvXv3qpOTk2S/3/zdcx9DhCeYxKxILjsUuFixJgPo+Pi4unTp0nLVCV2C2c7Y1lhK2Zc3NzedNgE20yoZvK5ngA0IANg6vOyuW8+HDx+W78q2TXkXowNkwoOh+uXLlyCvjKWzydjTaB7YMKzyvPTYiDzhlOvXr5/7nbyPUIiSAMQHqYN7GM1Nlj1fkr3YRT8/yyzD0GYlsscquf/m9+Z58Fxcz8wcbO8xq0e9+rtWdsD8+vXr8AABBKtIDUCTvfP58+dFHML8oBjFeGsY3m0CvLmDw0Rs8lCZrIQ86mfuGjzTGLvTB1HbZ0kCEHZLveyxr/pE8MpcQXZ2dqKNxAcPHswaHp5PyKyvhdfkeyYYxE3vwxa7hmuFY/UbDCD+aB1fYHXwCaPPXGZZibrItV/PaWAYdxHbls89Z3WPMaxdZkLT++oFEPtyHUPwGXCsNPUHYbYQj+gaFJuzDYR31acsBRPAt63FQGS+L3PS+z5bZ4BwIes/4Ft2CcXX/w3/u298KfRlMBtzTXC6VgpW8RSJTiaZL9AaalwDoitq7QvJdAaoJpWZ49KbN2+Wf5wodF99/PjRCQo2GP/Gdtp1dRszoWyXosS83D4QsXqH2py1XWsOzIdkABHNrCl1RS55mfVMI6WRomLw8PBw0Ac/hsz0TsrJ5UpbuOxFPOCQwCM/71opifUlAejt27eNeyOBrdqtT5H/cu3NPIySVD+zLi+0izArXFtRk7NjCu/L/lnqt5IAVM+kR48eOSPSQ6wQFJ2ZX6avTTWmiN3YL5MtxTWjU8oVN8NVD9nqeXch21gngOraHmaVDy48tFRilbPTHSXVQbtqmGI8oz7PzWVzhaxCBBBdXq8dWIwGiCW3/mX29oQFX/9RSlZTzmA7QlqKiO3YL4FJNpYI4Lrc8hDZWQPXxI0GiCRp7XraApr631Lu7ezndp6oBPG57ZWTLYQJMZaY5K6VJKQSsbZlzWEvDNEAUeTk2w95sUPMMJZ780uQC8pdTCCXJzSF5+gKMIZsodi4bdtfNEAElHw2Tl2+mnp/t7/I0MZnCpnpm3pwOmIKueI6bTku38/x/w0CEJZ9W2Q6xQxie8z9JGq9SoemA6b4PGTfswLITDWk3uNNFxiYchZeinmQoK5USD2putitti2WFUBmbiy1LVHSKVTKce2HTlpnSmEwu/JjKwGQnUQlpZGrbGO/rkCYWisNkJmUbatNmfol2dFmAq6pToAKoI7CODdbuQyVO+ojs6zXHDEVgQJoIIBKkOtBT+WyC6DCxPe2I71DZtkF0IzE9rqxsXHOZc8t0SuAMpUr2ty1MF4ArRhA9XMwB8nHHKPkAigzUbZin6HChQ85HCmABJCzQIzC/lwlgDJ32XNPrwigTMTZLdtlpzoyx+CmAMpMGMeuBgSuunABJIDOyZUo5RmU0CVfAE0s6opdnStyTewKoMzkOlGae2GbAMpErlxXTpl2AZS5XGejQs9VCaAVB8hlODM4rCeABFCr2+46Fsx2lqphhACaMUC+1WfMY8kCqFBRx+xrqZvy+gEBNFOAKEf1NfXOPW0hgCYW9o2v4yn1PiVKAI0oszHoFD19BFDBALE9NV2pOWZbFgFUoJquUvB1KRVAAmgZ92lafXI4oiyAMpZ9hDr19ZMCaOYA2V1g7TFlexYBlLlc/XPsjvglFI4JoInUdo1UaU3NBdCI4ixX25WbpXSFFUATyJc0Lbl8QwCNqJCboEu71EUAjaTQO8hCmnILoBUEaG9vL+ge09IlgAYQbjm1zW0AlZzCEEADynUDou8uUwEkgM7JVzQ2NxdeAA2k0CvES7rYTgCNJOp6Qq8QL7WITAANKNclbL4x9TUFAihDuTqM+UbOnccE0ASibLUt9zWXMg4BNIBoihAKzxyi0AIosbj7PAagHC5LEUCF2j9zOaYtgBLKd2RZAAmgVtFlNQYerq4UQAJoKa4LjwGI9i4CSAAt5boHXQAJoMEM6DmUcgighHJ1HGsa9ncUQCsMEBHo0ASqABJAvT0wASSAzojWdAJIAHWW64bBVShnFUCJFJsDm0s5qwBKpJ2dHQEkgLrLdWGKABJAweLzCiABJIAE0DTa2NgQQAKou2LTGAJIAAmgUgHKsZ+gACoIoBxPMnSxgXZ3d2cBEJcDFwVQjrcZc1FKLEB0rp+DuNu+KIBy7Cl4cHAQDRDfaQ7ydSLJCiCzXCLHa5H4fDH1QBTUl3g3mEtcUW5/P651yAogHnb9Rzg6nOPDj8mHUYA/B/k6kdCZPyuAbE8nx64WQO2ajfag+L7kzvSmfDcQhXiYowNknnqgfW6OL4HPdHh4uPh85sxk1QSu0lv62hPGdwNRyAQfHSC76i/33jrARMiBMZcVJ8R4Dr08b3SAaERgtk6B/tLuWJ+LaEvjcxpC7/4YHSDE3mr+wa2trVnO7px1enra2MI41EEYFCCfFX9ycnKO/P39fb3VEe0eJm1TeCJ0Qru2wGQANcURXO7yHLqdlg5PbHjCdQ1WMoAYvlgPdo/L+ucDsbxK6cW1VW0his3NzShzwlWE1xsg827RppwXreRcRhx7MzcESulE6KGt7xG3LsZcWw5o/ExygMycF0dlmtTUToVtbg79B6cU9iareluKhn+PnbR4cSFbYDRAZm1JyMnNpvNYfDHyZjTzlrsfJlYRXiKHHkNye4RVugRHXR6Yq+1xp/LBOtbDFwhZFkMz4XgIQMmsIhyg8f+xvb29eC6x7fnW19c7R9Z9BXj2rtEJIPOKbO7cChE1KTH9mTX6DSZj1x7XQBd6e3UngMzljV8a2gqXPRtPQC94uMGuQE6ya3tiACFS7frdrIS2OgFkG1ixgUJWo9DbcjTiuokcHx/3srGaLiF25TY7H6EwL6vtYuXXHh32TuzernE2LMKKw/2vKWJJvuw99pQrhreWilRWlD6eFA8A74LtERdfxrN7UOiPU3J0dJQ0DMLW1WReAKlLnQEiCo2hZvfTUeK0TDWVfuD8+LztXqcAXU2b2JIEUVlq650EXD71PkZq2kKmta6cVxkiyd0EDzZR07vsDRD7sCtnQmJP0eV8hQnS1jMpxDlKcpDdTLCaA++KMlcpL5EEbyo4iynBSdYJoWkfxbrvG5+Q+ovdAvMiJIeGxxdiyyZtpdGWOMXAJhknI3tcsQ2RciKWE9pUIvQdJe/FQoyijXAMM/ZfjtcQTJzrqYgpRDAQYPCQASG2KwkxuJh3MUgzH+weX0RTI8/B6sSEjtVg3aAIPLHKxN5PoTH+wGPuaqMO3k6M0lZXrEgjjzwaW10f82G0fnTUmFB9qJqgPFacvuCMDlAtoprEjUgK4t4rEz+8bcMOgAeMjYORnVL/A3eh2Mg/f0FaAAAAAElFTkSuQmCC'
p27
sS'version'
p28
VV3.0\u02b2
p29
sS'uni'
p30
S''
p31
sS'desc'
p32
g31
sS'browser'
p33
V7\ufe0f\u20e3
p34
sS'annotations'
p35
(lp36
V7
p37
aVkeycap
p38
aVseven
p39
aVsymbol
p40
aVword
p41
asS'wind'
p42
g31
sS'andr'
p43
S'data:image/png;base64,iVBORw0KGgoAAAANSUhEUgAAAEgAAABECAMAAAAV8YMOAAAABGdBTUEAALGPC/xhBQAAAAFzUkdCAK7OHOkAAAKUUExURUxpcfzCG/eTKfeTKfeTKfeTKfzCG/zCG/eTKfzCG/eTKfzCG/eTKfzCG/eTKfeTKfzCG/zCG/zCG/eTKfzCG/zCG/zCG/eTKfzCG/zCG/zCG/zCG/zCG/zCG/eTKfeTKfeTKfeTKfzCG/eSKfeTKfeTKfzCG/eTKfmhJfy/HPzCG/eTKfeUKfqqIvzDG/zCG/eTKfmnI/mnI/eTKfeTKfeTKfmhJfmhJfy/HPeTKfy9HfeTKfeTKfeTKfeTKf////zCG/zDG/eUKfzBGPqsIfqvIP/9+P3UX/zCGv7y0PzEI/zBGfeSKfy/HPmnI/zCGf7hkPzEIvy9HfzAHPzDHfmjJPzDIP7prP///f/+/fqqIv3cffmiJP/9+f/78PzDHvzFJf///v/+/P/99/qrIvu5Hv7pq/zAG/iYKPu3Hv3VYveXKPzDH/mkJPigJfqvIfeVKP/66//34vmiJf/78f/34P7jl/zIMP/56P3QTvzFJvy8Hf7ikP712P7oqv7ikvzIMvzFKP7ikf7gjP/67Pu0H//45P3RUv723v3UXv7st/3NRP7vw/zGKfzCHf701fzLO//99v7kmv7hkf7npv3WZf7uvv3SVv3SWf7mo/3bd/3Zcf7xyvzEJPqxIPzJNvzHMP3XaP3OSP3MQv/89P7rs/7vwf7tu/3beP7vxfzKN/7yzfzIMf3giveWKP3PSf3LPf7jlv/77//34/zHLf3QT/7qrv/++/zFJ/3dgP712f7prv7z0/3LP/zIM/3Zc/3Xaf7moPzKO/3PS/7prf3MP/7vxv7vwv7wyP3fh/3dgf7gi/7qsf3cfP7yz/3OR/7lnv3RU/zGKv/23P/77v3TWv3UYP3Ybv7wx/zJN/3OSfzHLBI8n4YAAAA+dFJOUwD9vR3R+fkNDdG3+P4U/Tm381f4db0dFMaeyQUM0skFDNL+N3TGOfT9/s7z/c43N874/cN1N/nOOVf9nlmgyH6WOgAAAudJREFUWMOt2GdXE0EUBuAIgg1BpIgFsffe6zrJKEzYhBUSIhAhgDQVpEgHxd5777333nvvvftnTNsZyVnXzd28H3P2PLl3MpszdzQaRyLDo0IRKKFR4ZEaml4RgQicwIgxojO4H1KTutHdXU7rNiiwCdwZN4pr2c4JtW2FusGhpD5BXNgEh9OxvZq+kuZy9kyMsUOdOqh2uM5d7FCzaBXOdKfDdW3ugFqodrim6qA60VEL7SvxEWRM9hGknTlbHhKwfHjxQdMcgyz0KE42336ZxScTZCHLw1j5PMsUe8uRa40kPpkkn0qxIu1k2TVKnCbvfPmIfQM9r0U+gbLfCr6Byp7yyiCSeE0WyrMhhRWZrXqPvKvIos6MWVgphGzxnnmdQiF9FVEMeYZ8ekGdrEUEgSH8tZxCS2owHLJ9YEt0PBNekfDzM3Wun8AIDOH76RRasYEHQyRzFdtEO80IDPHnS6lzZCWGQ2RxKoX2XCFgSDhwmjopZwkCQzhuI4WqD/FwqHALW+qje+EV8RcqqJO+GyM4tCubQrdOETBEarexzjaZERjCVy9Rp3wHhkOogRV0ci0BQ2TBHbaJbhIEhvDWWAotW83DIUse6+y2BYEh/vBltokOYjgkWNn7uv4eAUNk4RrW2UWpk5ZCCG/PoE7GcgyH1lWygo7dIGCI7J9HnVQrD28Nf2ebqOwuHCLxb1hn8wsRGOLfV0ueHLyv6CX7J9KfESShHAUQ+f2Dva+bifSXyR+P3Z3VsE1U+piXfOZ/B3ZXRVWv6qe6Uv/A4uUIoW0ksXYE6cZM/xpqjEuNWi9GGlOaThoyJpwrys3XKkx+blGJNGRMsH9ekJxWPEVBitOSC+yArhEUzRyOMxh0imJw/V66v4Zj17judryOjo3rzgsEqOOWxse4rzT6DoM6HDcgiAsb675kMQ0NBjtccIB4yaIZNBBejyNDRooXSCF+AXAmwC+EXWn59xjeG8b07znC30n8AVe3mEoHtY+EAAAAAElFTkSuQmCC'
p44
sb.