ccopy_reg
_reconstructor
p0
(cemoji
Emoji
p1
c__builtin__
object
p2
Ntp3
Rp4
(dp5
S'emojipedia_url'
p6
Vhttp://emojipedia.org/keycap-digit-eight/
p7
sS'index'
p8
V755
p9
sS'code'
p10
VU+0038 U+20E3
p11
sS'apple'
p12
S'data:image/png;base64,iVBORw0KGgoAAAANSUhEUgAAAEAAAABACAMAAACdt4HsAAAC8VBMVEUAAAA0Rls2SGE7UXQ7UXI8Ung3S2YAAAAAAAE1R2EQECAAAAA9VHw4TWwyRVc5T3EAAABEW3o0SF8cKDEAAAAjLzwAAAAuP1IVGyM0Rlw0RmcyRmQ1RGExRGI2Smo5TGwsPE0mNUMxRFUfKjknN0kvP1U8Uno0Rmk4TXQ6UHI6UHI1SWc5Tmxefp5khaZggaBfgaBhgqFegJ9ff55jhaRcfZxZepZNaIdmiahpjq9cfp1PbYtafJpJY4BWdpNTcY9hhKJhgqNcgKBoi6lKZYFbfZtZe5g9U2xliqtsj65ZeJdBWHKMpr+rvs/f5u3+/v/R2+R6l7FniKkkSIIXQH5vj6zv7vSfsMigo8E4aplJeKCAm7aFn7l1k67k4euWmbo9YJPLydotX5BTZJa0ssuKqshskbNuk7Zuk7d9nr5tkrVkjLJ5nb5ae57C0uFgiKvv8/dqj7Dk7POkv9ljlsKnwNdWhrGQsM5ojbLb5O9qkbaGpsVnja+jvtjo7fRSbpGcuNPd5/Cat9JrkLJVdZpli6+Rr8tQa46gu9auxdyowttskbSJqMeDo8FzmLp+oMBqkLHS3+ulwNtjia3Y4ux4oseBocA3caSivNaWs87////4+fxkh6eZttFihKWIp8VdhKl1mrtae6PU4e65zeHJ2OePrcrf6fJHX4ZRb5OduNSfutaPr8zq7/Spw9tni6uDp8jo8PZvncaTsMz6+/2hvdekvdiwyN+MrMqBosFegKSMqsiFpcRMfqj09vmXtNB/p8toj7SswdXD1eWNrcvs8vd2mLiDpMPi6fBxlbeUss9TcJWHqMi+0eNVc5aju9Kivdh1mr8+dqZomcNLZoVHfq61z+Npjq6lv9lXeJxbfqJghadCeajH1eJGX31miqqcts6FpcNQbZFOaoq6ytmnwtr8/f5oja2Jq8tfg6VnkLVkhqZoi61dlcJliKhwk7WXuNOnwduovdJcjba0x9lihKNXgqeRq8SmwtqmwduGr9HSWRnDAAAALXRSTlMAz8/Pyc/PJh7RBQrPz87PGv7QThJvIcA/43lVGi60yLaL1FmOtsY6q93Up8MfGOmuAAAFyklEQVR4XtyTRW8cSRiGV/I6hyhRlKsT27fw32oeZmZmRjMzMzNDmJkZFuG0M9U909XjlZ1c97m9/b16vuqS6qf/F5UVl69U/3wE1VcuV1T+p+BM9embTuP2kRidN09XnzkgOFv12MifaoiKyS+HQoqjDVN84+OqsyWnv/SCL6Qml1rVEkPvIRgk6talSUrIf3GpkrP/4vM6OyGYG5kztJsPpd2QKwkIe93zi/AZqpwPqInebLjF3ed59dchvPL0uVvC2d4J6oGzCrq/jikVIjKPSyMeT98ReDwR6bhZhKimOoo3ebzMZr9mbpZGvn0nEWmz+ZrdVnacEZzvePferb4a+fu7iVxVu9+/6zjPCCo6o7ywW3/3B9C7w7xoZwUjuGCjepZd+h/CtdxD2S4wgnP8RYvbNXoA/V25PuVyjerl0gMzl9uyyD/HCE7c15jGXKWkxroWbsg+5ZANKVOjpeMxk+b+CVYwn+ouwdUV/7Qw3jy4uippjQzJlKWF1DxHoOzuKmFL9k97psDIbdlCSaNbCQmaNCsmCwfT1o3bGZjB+AK3YlrRNBUE5U0axFLLZWg3w0UUX+F0LIimqbwg4C8itfMcBrozgNeSmHqVNjTHOY1aZJEPCXzpLQ4DEiCQyJU9PVstWRBq38KNtA8WqLTpYZiV+dd5wWp6Ip8QARAsD8CVtFZVFJTd060PO2AQOdi5i4DUlp7Lp9gOXBle190rYwVBRxuMbwkI5D46IgZaAFccQY6gcZpD/T4QmIJtIPIG8yms5XQaWcEpmw5fR3wQ9W3g0Mu3gvn9v8bBjfw2AzWQdVxnO1UUfMQCM/Uwk4/AEb4mr996mFS0gxudhiszAewjK9jrJ/FAQqt9VsTv2wCGDdPO2xawf2R/sjjVahMBnOzfKwhO5gU43hj0sySmBaIMSzb8NMEOg404nhecLAqeoBiOY3iARyRo/IGkohUSiHxJhZ8eEbwAnm+jT1jB9mcriWEYSZLY5hqPIIgElnw6l+EQU8wmCIK3tpmrgbL18zYrqAl5SRqv15uzkEkB8443YjHmV7LU7CYYM8VQDSvorBGj3gIoipLXHRnAI/8Xq3XtF/owhoeUF6qJazoLgmPGD3dCVgi7gt76MmrPfVcJ/8yC6JhF2U7ozgfjsaKg7k0IpqGeXonq6Cx8CXL4D7j0po4VOH/vF8M00E9BIGRy9Bl4nCLUDpX+rYzOedsEwwCOmwx9cZAifMX2lnNMAdvYLWCwjc8jrq+cvQ91rfoFulX+AN1Sy8oXqLx46pChQ9QPgGQpqHRIlciiYqhCslbhCFBHjflNPOJ5/0IvQ7VnBbLD8UObwwstcHH5Xp8/HY+u56Pjj9bOeJi1AjTBn9uZgf2KNo4P357pgbJtiSdoMzDXw9q/7cQ/+h3sXVaux8relXEnZdtSG+vNmYFTXOGHNmL9QLPT3T8fj9+9erGt/1SxbO3wCn5qBWJ9/qeNMmzohd1Ot9Ppvn6mDY/qom2H78duAv4UJT9wmFwd6LbfPN99aTz/EBX7jkyl/EYASpEJxWmi/UiHRkVU7BJkCjIDQkGV+w7yZHPkDDS3JopjQy0IVoAh5PsO8uDkSfPMCnzfGUycKzLBTAWcvmYfbza/fB6Njhq/6u2TgVWfCizki0Rimpqj1K1Wq/VUyeWyiSlEMb9wE0hiGfU2WRzP5fBb32WwpBVIV7WAKxmsmjYDSxK7gREuYRustGQElmsciWMu4SRXWzYCgRLNxHCXYgxdChgBeCXNkjGXSDa9AhuBYKhEJ6m4K1SSLoWCRgABYR/HUPGNmcUphvOFAeIxwJGoxBVJatYARRY5KRqBPSYEBKISzRYLBXIGhUKRpaVoQPsAAwoi4Vqe5thq8k5VlqPztXAEoB7L/CIAIajkSwtC6g6CkPaVoBAAi/OefwpgdW0d8vq9/+X3Qutrq0A/7yigwBXUPG9BYDAzGPHcBgmi8AzQoP34X363qMfuALdYAAAAAElFTkSuQmCC'
p13
sS'twit'
p14
S'data:image/png;base64,iVBORw0KGgoAAAANSUhEUgAAAEgAAABICAMAAABiM0N1AAAASFBMVEUAAAA7iMM7iMM7iMM7iMM7iMM7iMM7iMORvN3C2uza6fT///9sptJHj8e20umdxOHz+Ptgns6FtdpUl8vO4fDn8Pipy+V4rda/bOdTAAAAB3RSTlMAYL8AIM/vi50ITwAAAYFJREFUeNrtmOtqwzAMRnOtYst3p837v+nSQRGr7RI5ZoOR81OQQ6x8EVjdk36AEwz9uNON4zTDSebpKZpucJrbtItmaMA8dj00oe8GaMLQQSMu0T8UxUVI3JFiiSdEakUkhKoU6Qe+8dA1Ii0xQWqeiDypiS0ymEVwRQoLKKZIYIGVJ9JIGGsNEpElopM5Dzve4YvAElnqybvZ1onur4o8J6Lemj8WqfLRNl6Oys3WPJEpfX7DTHZ0hUBGpggCZrH8eWQwg6mZkEv2ffgiLzHhrgAa9ShwRQELLDyRx4S6ZN9pHtkIEK2jPmmGKPyYa2+TbWGIJD2VuuVxkaYXyp02HhYpSnIu6eqwaMlF2VLxsMi2FwkqigqRyjRbO4rkYZHP/BGWav54jlwSyIBUYgTSIGEjgDdIGIZI4QcUQwQrFlmBI4oOCzjfaLCFXx+1ZHKY4ALwRRDXpM+x9gohTl4hCL3Z9Ru76evid4mKNFuyNFv7tFpENVuNtVzW7bRYH34BDaGgIxbjiG4AAAAASUVORK5CYII='
p15
sS'gmail'
p16
S'data:image/png;base64,R0lGODlhDwAPALMAAAAP1AZK8gBg/USL/YG5/5jE//7+/lRy6by37sTW/JSc7RZ0/z1N4NHj/w1u/8G+8CH5BAAAAAAALAAAAAAPAA8AAARcsJBJKz1kue2E5xpAdEJgkYLYBY9BDIqRkKrAyF6AGINX34ncrpcalVqv2MxnDMQaioRL0PkZGotAQEq0FqhOHrMDLOnExVWrAJPRjA5TZUFNe8z4HOAA6Pv/fxEAOw=='
p17
sS'related_to'
p18
(lp19
sS'name'
p20
Vkeycap digit eight
p21
sS'known_as'
p22
(lp23
sS'default'
p24
Vtext*
p25
sS'bw'
p26
S'data:image/png;base64,iVBORw0KGgoAAAANSUhEUgAAAJAAAACQCAYAAADnRuK4AAAOSElEQVR42u2dL7ROSxjGTxAEQRAEQRAEQRAEQRAE4QRBEARBEARBsJYgCMIJgiAIgiAIgiAIJwiCIAiCIAiCIAjCvuv3XeOOufPOnv97tvM+a826dy183/5mnj3v8/6Zd7YmhaIAWzoFCiWQQgmkUAIplEAKhRJIoQRSKIEUSiCFQgmkUAIplEAKJZBCoQRSKIHa4NOnT9Pr16+nR48eTbdv356uXr06Xbly5fe4efPmdP/+/enJkyfT+/fvp58/f+qkLUWgz58/T0+fPp3u3r07Xbp0aTp9+vR09OjRruPQoUPT1tZWtXHkyJHuv2FunDx5crpw4cJ069atzYvx4cOH9RLox48f0+PHj6ezZ89O+/btq7p4OuIHpNrZ2Zm+ffu2DgLxoGz/hw8f/uOHQKJTp05tzMOdO3c2bwgEazWuX7/ebZH4bZjBlr9HGvfu3ZuuXbu2eVH3798vPuOBAwc2c4/pHpZADx8+3Gzt9sRisl68eFHtDYglsLTrMcnnz5/fvJW7u7vB50L7PHv2bENGTMQciTAd379/X0yfsOuj6yAUhJGIxAvM3x2GQF++fJkuXrz4x2SyiF+/fu06gS9fvvzfzmeeB20AGXInDrx9+3azOCGTDNFevXq1uNiFyDgBBw8e9D7nmTNnsjRSdQLxlh47duz3g21vb08fP37sPmFs5b6FvXz5cvXnwSlgZw0Ribd8BM+Nl1giPeRix1qMQO/evfvt3fCA2ORYM4NZY5Kxy+fOndvY8JzBmyQtIhOU+7kxI0YfoftKvgNzCwF4QVjs3B2U3dnnibJurEV3AtnkwWy8efMmyitjwUNiT0d4oGHY5Vn01B2OnfPEiRNeXRhLoq1aW7gRlYjmkLLnR2KLfezn3/KWYQ7sIF7skCY557NKBs8/t/BoxJTPY17mYldIh5Tdw+z+7Io+YqLxmhMIQhizAQFC+gIvhziE/aCIWbw1hHcJMH/uJBCsXBK2I+EOIt25Lyshj5CpZk5TdJ5EIjaFOW+5mEBm4dj2sKsScJNt4cYEIrhrAC3gikJ2uaXBy0WUXVro0HzFAK8Jp0DSeymfj9Xw7XDsfs0IxJea+EJowRB99jbLTlQzZOC66izaKLkqe458JrtGPAyzJbnn7O4pwtrnnYXWq4hAxvNgO5UWjJ3GdqFrB9Z8EWYE/UhgEUPufa0XSTJrKSSy18t+6aX1zSYQZsN8gSS2COebv8P/1wZ23n27IfWI8GkMY2pqReXxbNE/vu+JFdcQ0bdjSiGZbAIZphKX8IGyB/PlRKFbwOd5LS2cJRD1lnahms8skQjTFKs5fQ4J7n41AhHNNCz1RS6x+8Ym44m00COYQp+9blGyUEtQS244cZzac+OL7+ABxwQe+fc+TeWTBlslb5NkG5kQIxJb5b/sHc5+y0Yu9JI8JjzYkpycD8gKnymK9U59sSzqt6oQyMQ3ELC+iHSq3c2BIanr1YwMH+nndGQJIIv7PeyCMY4MaxdjxrIIZNxmdiKJXK3FrBTJHhmQRCLQ8+fPm5hNX9lJzC6EsPdJBFfwJxOIrdZ8mGueUPDmS1uKWbwvaSFGBpMvPfeDBw+afCcBXJ9bHgM3a8BwhXjyjJMkNbkSF5DG/Fltmy6FENYion9PeON4kM/h8e0kMZWIPpngbgzJBGKrleyhcasxY0tpCZ/Q28sEAr4AY0xw0Rekdc1fMoEIKEkax5SvpkQ+c0AtjLQQEHtkT0x6bkxNK/jiOnM5LunfuUSvRiCUfUuPYu6HtRakNUAmXXrm2OK7HBir4Ra2DUUgxJX5EiZqSQLheSxZzC6BZKX0zC3rpo1udd35oQhkC9vWCJmw0nqbJZ67RSDRBoI5x2P9awlkvL25wbGakSDVTVN+0hJKIAfUp8TWDI9CIkyqVPvNzqQE6kggKUoqDXJQS3tmvoCeyd+Vng5VAmXAFyUNDWIhrRdKgpRSMAX/raEE8gDTlHoEBs9jiVOipCmkZ6pVF64EaqiD3EGEtZebz/fY/QGW0GdKIMEs2EeoUwf/tnXAE/jySSnFXUqgheNBMQK7VacQKeCJcO5Z+K8ECnhj0nGW1O5ipWe0XFCQJXmKrXOFSqAEcEqz1jlzPKIa2ggySjGfGzdudBfxSqAZSEdmcgY7GqTMBVWa0kFCRPMS8SglUMQE1TBl9uC4UmofIYgnma0l65SUQBEIFZmV7EYxZRaYPak7CJ/hqx1XAg1GIGCfhO21G7kd2VxXvUegUAm0AhIhiinnNLEb/osglkwWf9YrzqMEqgy8oNqayC6ZxQ0/fvy4mHPrEaBUAjUGpzN8x3tbDc7KQawR67GVQAWwexO1Mm14WCOW0CqBKgEvqPbdGL3SIUqgQUChf6jdXA2Xn9ycmrC/lEAG1OZIkeIaA3GtIvovJpCZ0NjG4LmXrdBUaxRdpASqCBYV0Tt3WUqtO8RatrhRAnUGgcAexHEHu9GSQUUlUCHQJJKARvwSv4FcLbURMamluscqgTKBa80JVak2hwYDdod8WqG0vJgOgi5h0pRAGeB5fHeFmbPzoQpEFrmk3nou8EjlgBJoYALxI6UkJ72LYhp/ollIzLYya61PoyqBMk0Wd41Ji4bOybkSKXSxScno1dNaCRQBkqdShhyhXHqgELMjmcQSc5Z6Q6ASqAEo9pLcc8hTKzJsKg9rXlsOKUuvulICFYCKPylRyuK0uK+V3axmqQgVjy1zaEqggD6Rdp7YG/dygcjmlEWt3ahlizslkAdzl7n16pPIDldDZLNbtioJUQJ5QM3xSE2lamT5Wx06VAI5wP2VTAeHDJeqyWGhSnYjvLIWl9MogRzdEyqYX7oWB/KS7c/VRi0OICqBLPiuZByxMyvzIfUFmms7owRqGCwMvdkjHOJzd8ucMtrau6gS6BdCbe245nFEhO4x7ZUnUwL9WohQKmHp8+dzuijleFHMNQRKoESErgnAfR75WE2MfnNrqpVAlSHdNxq6OXrEnSi2l1HN/JgSaJqCHs3od4SlOAJm1MzS73kC8TaGJnuJ3s8liCmbrVkrtOcJ5LuuKPX6xpHACyHVabdIru55As3dzjPyDYUSzO3WSqAOBAr1g8a1XyM4SqQE6kSg0A2F1AOtEaE75Bk1j/8ogf5CAhEYDXlj6D4lUCVwmiJUArFWhI5Z1yzr2PMEmmvhu0YRHSIQMa+a2PMEmtMLo/XjKQ2O1o6s73kCzekFTNwaIf0md5GUQBUQOkYzainHXDBR+j2kO5RAlREqoudc2Np0EOUnWpHYkUD25/c+V9UC0t0aWhPdsCIxZMY4DbEWcETadwSIwwIt6pqUQL8wF/5fS1ZeusW5VVmKEugX0DlSBw6jH0buGG92H5/7jo5rcSZMCeSAHFFoF6Ip1MiQKitbdi1TAjmYO+VQcmVlS0ASX+wHQd0SSiCPGQjlkVikEfoz20Cf+ciDY9DKdCmBAqBlbugCFZKso6Q46BQieV0t+hcpgSJByUOoIwYk6tXmRQLFcL6dp2bnNCVQw53IdIrvHakmVSE1/OxJnlUSqPdihRps2hfg1izSmpsjqYMIz1k71/XXEWiJUxII6+3t7dkTn3g8rZ4PcxnqD8SctRbMPuzu7q6LQDzwUuAER8zthIQCWPDSS1AgBOUkoR0Q4tIYYqmEr5S4HZZAOzs7iwpX9Af3YMR2BeO3MDGcv8crkhaaPBWai3gOAUuOKc+dMqW9y9JtZ6SuJkMRCLtuvgRTMgIQqrkt5zguRKzJjNRrxElXkPMa4e543xzEHIfqSiAmyn6rR5g421OjvUrL65zsHQfijJKTo8mVb5fkOYciELCjw71vpIkV2jw/p0JTd5S5tnQUvI3WIQ1IJ1pi0ifdCWQ3DViyW2os0G3oNSaT3xNzxRN/BwGOBkKw93bJUxBqyhXzgncnEF5NrwxzS+BZ4eqbgShf49GhUEtATNtwBMJLsbtOwP4l4h6Kfx0IyUMkqBqD7gQCbq0v2/1aD/6tFWi9kDmOLXdpSiBJxRNHcZlPLkrRT/eE6qUIL8S+0D4TWI1AoTiCr5nk6JWCe4E8qcV2vurJagRiSLEedI9P/fNAo9csrxUI/bmgKdUBKXICmVKdQHajg1DOi7SAT8Rhm3tlxfcKqL6cy/8R94rxvAwgmi9WVkwgO+c1dwyF7TJ0r8XaehuOBvQmu/pcPo4/T31ppYYWrglMJpBdWyJ5YjYgWeiHkTfjvJe6+3FgF2ER6eAR0y6YsEpOfbjU1Ms9e5dVPmhiPfyAmG0x1OPQ9RAgJW8V4QAd/w4qC5iXmDIVt4N/7uEC6dCCazWyCGTfQBN7yx41KXOtbXXUG7yMuWWz0tk7NJErwrMIZG9vKee5sdlSnbCOOgOrQE4y94w9BCFS7ftsdkIXWQRyBVZqoJDdqOa12Tr+06SUrpQg1H/Al9vMPkJhXxqSo/KNR4feSbXtOv4Mi7Dj1CglIZYkZe/RU74Y3lYtppaesGQC8C4wj7j4Kp79g8I4nBJKSWqGQTBdIXkBSX3IJhBRaLfLBK6lJk7XiVDpB86P5G0XnQK00xp2ukJJtC6EYnUMyCWh+Bip7wI11LrmvNYBktxzhwtCa1lMIOywL2dCYk+jy+MCCTJ3Y1CMc1TlILvUSR7vaunmBor/gyR4TP13TAlOtU4IITuKui+NTyjKgbVAXsTk0PD4YrRs1VYac4lTBDbJOBXZfYEZIuUUey4uljzVCQSkfjiuMMP+cgCPYCJvhpKqDggGQhg8ZIgQ6uQmldmkrEWTZj7oHimiqWPMwe7EC52KZt2gCDyxy8TYWx3LDjzmXI3avJ0Ypa2+WJGOMfJomLoS+dCtHx01JlQfak3QGDtOKXG6E8iAqCZxI5KCuPeaiW+vbbAAeMBoHER2TfwDMS2E+I78Q3wAAAAASUVORK5CYII='
p27
sS'version'
p28
VV3.0\u02b2
p29
sS'uni'
p30
S''
p31
sS'desc'
p32
g31
sS'browser'
p33
V8\ufe0f\u20e3
p34
sS'annotations'
p35
(lp36
V8
p37
aVeight
p38
aVkeycap
p39
aVsymbol
p40
aVword
p41
asS'wind'
p42
g31
sS'andr'
p43
S'data:image/png;base64,iVBORw0KGgoAAAANSUhEUgAAAEgAAABECAMAAAAV8YMOAAAABGdBTUEAALGPC/xhBQAAAAFzUkdCAK7OHOkAAAKOUExURUxpcfzCG/eTKfeUKfeTKfzCG/eTKfzCG/eTKfzCG/eTKfzCG/eTKfeTKfzCG/zCG/zCG/eTKfeTKfeTKfeTKfzCG/eTKfzCG/zCG/eTKfzDG/zCG/eTKfeTKfzCG/zCG/zCG/eTKfeTKfzCG/eTKfzCG/eTKfeTKfmhJfeTKfqrIvzCG/zCG/mhJfeVKPy9HfmhJfy/HPqrIvqrIvzCG/eTKf////zDG/eUKfzCGvzBGPqvIPqsIfzBGfzCGf///vzCHPeSKfeVKPqrIvzDHfzBG//+/f/12v7suPzAHPzCHfy9HfmiJP/9+PzDHv/55/3TWv/67v/89fmjJPzAG//45f/++/3QTv/88/zKOfzHLv3MQP/78fzJNP/88vzEIf/+/P3UX/zJNv3UYP/89PzGKfeXKP/34vu3Hv/++v7yz/3Zcf/12f7pq/zFJPzGK/7prv7hjf3NQv3SVv3cff/z0/zKOvzFJf///f7fhv3SV/zEI/zLO/zDIP/12vzDH//56v3UXf7vxf7gi/3NRfqqIv3QUP7xyvu5HvmnI/igJf7oqP7ikv3WZf3Ybf7y0PiYJ/7xzPmkJP3ORv7jmP7np/7ln/3eg//67f7oq/3cfP7kmf3Zcv7vwv3VYP7npP3fhfzIMf7suf7tvP7mov7z1P7rsv7qsv3hjvzFJv3PTf3cev3dgPzKOP7yzv7z0v3MP/701v/9+f7dgv/66/zFJ/y8Hf3PTv3adPzLPfzIM/qvIf3XaP/23f3SWP/56f/34f3beP/45P7wx/3giv/12//45v3Xa/qxIP7mofzKN/7jlf701/7fiP7km/3bdv7wxf712/7hj/7uv/7wyP7rtf3Ya/qsIv3RVP7lnjv5mBgAAAA0dFJOUwD9/v3R+fkNDdG3FDcUt8bzOb348x3GWHUdN711V5/JBZ7JDAXSDNL9zv05zvn9/c45+c7/eMoYAAAD+ElEQVRYw6WY91cTQRDHYwF77733rneX7OoehySEREkiiHQREBVFkSKIyKOpqNgr9oZdwYK99977f+Ml2b2L4XzsXr6/3eTNJ7tzM3M7azC41aN3p86cLnXu1LuHQdG4fkGcbgX1m0I4fcdzgejm5PZeTruOXFAz/ZxJE/i2HTygXkGcpB80a3RzvtsAN2fwwED2NWs2L2vIcBk0bFDAHH7oSBnUakTAHH5UazeoTcAcvmVgoJuEEyjo9Ux6EICIs9vtEgchaPSjLZoWhMTs2Nt7DixfXp3zat0K5I8yLllEBQJg7fGqJMGrcOepwyf8UbbNoRQgdOPglxDBR5nf00v9SJsoQGLy3kjBTw0fzv9DMoY1vTUx4UeI0EiRX1N8ScYZTYJAyqEFgobiljGC0NEkxTkkc55Ker8WsYBAYQTxvFZRue3woasKtRKwgGDsHOyYtD8byckYX3sNG5YmAAaQmE/S55zk8YMZZInzYyEDSKrFbtbLOCSwPA7vbRsLyHwSgyIcJPpp77GpiGVrjiPYayXxAglLsSmHBSStxF4VhdgN5sZgU77IkkdbsFfNGhwR8VK41zLvKEuM4NZMTDpSAOUVIJD3GBueJrKA0OUskoB1P9NSChP3LyYZeSaFqUS4c0rJRlqfVT0OJ08LUyFbrcXXC5o6UAzYVoTKnRqYkLoriK36OVGpCV8tyJFY+9GNjwu1dtbwSWIDmYsitWP0KFVkASHXHOE/WhWP6EEg45RPgGuyXsT5PL6T6EEwPUpxrD+4+238hi1KQgoP1GbbJMh8TPn/s2kIIgS5W9uVN7eMGgQSlGysT8OJDNc0EFu1gxaEdr/EPqsvKf9eQjqLsLOYFgQfzicN+oJSWegJqbesu4AW5CLJ6FR7BrxPvm7WZGpQXpLGii4qKzpBC0LrYhrFCJScITGqoo4RyFbe9dUr5K2l1xDbXjN1HtnfKOn3LVGEsswuq448kr+Gaulbizbk5rr+lKmGAnoQOH/Sp7jinE6fVrD6Oct3Dal57K+6ZKbvmvl6lDbnqUtk65DFlZqkmK0cY88Gxfka3f90Ksd6GOWA/XeE36LK9t3RcTyWI56RXv1FOT5Gnd4TW4L0HNjdg4ijoPx4bcTnirN/LuYlS/7jCO0I4VkVBJKjtNQsiVCkH2psS2xG+iHLaFtv0gZZwhbt2jjXSKm5G3fN1AZZwuQ5bkf0+nvTaRQWvUMGmP4BjVA5PB8aaqJSqPd9mXyGY++4jjnMMqnjuucCwfJLHweTPBcI7isNy1i9HJ5vQa40DO06WqZO1M3hmweTSxZD32n61+PWmPbkAqlL12D9mOCuXdQrrT79e3bXh+nes38fD+Ivj8UM5SmWqdUAAAAASUVORK5CYII='
p44
sb.