ccopy_reg
_reconstructor
p0
(cemoji
Emoji
p1
c__builtin__
object
p2
Ntp3
Rp4
(dp5
S'emojipedia_url'
p6
Vhttp://emojipedia.org/battery/
p7
sS'index'
p8
V761
p9
sS'code'
p10
VU+1F50B
p11
sS'apple'
p12
S'data:image/png;base64,iVBORw0KGgoAAAANSUhEUgAAAEAAAABACAMAAACdt4HsAAAC91BMVEUAAABYWFtXV1hWVlZ6hIRoc2sJcBq7ur0PdRx7e31XWVqQlZSqqqqnp6evsLG3t7hUV1hMTk9UVVW7vL2BgYGxsbFKTE1+fn6hoaLBwsJsbW5KTE61t7eJiYmTlJS4uro9PT9zdHRycnObm5ugoaGDhISEhISWmJiqqqrQ0dHX2NnNz8/k5OXR09TKzMyqrK3a29weqDTV1tfT1dbFx8fv7++Sl5nY2trp6upHuVW1t7ivsbKPlJX29vbr9+ubnqCsr7Hd3t9Nu137+/vCxMW9wMCmqqvz+vPJysrW7db09PTAwcLn6Oju+O4vpTM4rT8/tUyxs7VwvWl9goJIuFo0q0cOoSYbpTGGi42Jj5AyrT1AqUDh4uPs7O0ppT3x8vL4+Pjw+e8sp0APniVlxnA+s1FWv2Y4rUsiqDX///+YnJ5UulcToSr1+/UwqkQ1rEglqjlpyHaLkZM3qTuChoZMrUo5ozsjozhiuF5GqUX9/P1gxW1jZGWWmZsvqEI2sUW4urt8xHXL6csqqztZwGJCt1I9sERwxm4prT04tEqipqidoaOfo6V1wG27vb4yqkVexGhuzHhCr0Z4fH15wnKjqKnF58ZavVtryXFrxWpTsE8srj9SvmJGgEmTlZe73rmc1J1pu2IaoSjg8uFSlFBjgWV1eHmio6JdtFlzzXYLnyIxsUNYslRUvlwvqTeDxH5awWqmpqZqwWYPiSEJnCE7sE4iqzgBkBgxhTIanC4XpS72+/cXoi24uLe13rRNu1ZGt1BGtEtMtlCAf39DtVWur60snjJTs1CQkJAkoy01jjdAjkJlpGG+4bvL2ctUf1eGz45CnUes3K4SfCAplClYnldxn2/z9fJfuGeNy4u0z7Njw2Y8uE9vb3AFghgEfxcFkhsjnyp1yHcOhSF0hXoFmRtuenN7uHY4dD42hTlusGvl8+RqkWmn1qQfjiuUk5MUmyqdxJqMu4kKhB2KjJJ7jXqXvZYEeBKApniRr4p7n3muv6maqpaLrxEQAAAAKXRSTlMAHy/+BTU2NjZPuzhIGZHC101C1614emLV7u6uXy7EnD57z5ru+Bt1mmGrPHgAAAbKSURBVHhe7dZDlGVZFgbgVGRVREakWWZ33/ts2wrbtm3bth1p27btLBptDnrfF1HVXYOHmPWg/0EMYr3z3f/stc5ae4Hp/D8O61ZskqtxOBcxl7tmxTqHeQPLcSiVRkCIBDKLhbKQ5fMG1l7kytVEeaNEG8Rg6NUfzgNY4mD/2w/feWNx/uTFKZ6OhmcEyyS8j1a8u87eYYkVp+2XbyTxIGcW5z878+OuY2oUrw0m80gIUU3ftGa5vQXjrRUKuVyu0ynkbr8CzpFoCIIQCDj1mrfMlf8djkYjEAjwSzT918Au+D+NRkVZKPKu6RI2ZH9j8Hi9/uLPAAsvkEnOTSFUKhxnschk2iKTwGpUwNaz2QEBDIaWfvHMmXQA6DSJHk8n8Yg4BOtAQ9noapPAewXUYJk2KEirFcj8EYRI1zUe4ymVJB6XW0ynq4lEHEsfJCG9ZxJYJCpQ4tiyGCxaKMLGk4mN4toOsYsLV0ckSNiMALKCq7AxCSxTcmsHB2uLEXyQLBdTZEF6CY2AI7D84WwAnkpslFP1tNdMA/VcLk8Zy/f24TPrxdxGhRxHY0nwerw/mYrg1ETUP0ArCKKaAURiMYmkrK2L5fuku7W1tbl5D9bzGukIKsGzgwQyqBQcrCWbBmz4YmVHbX2dKJbJT/XxhiKxSi6dCt+dnQsAENYyk8DSr5jKWjheMHc+lVlH4tIJEj1DG5xrBOCv4P5Sk8Drf71zwyf2l+/78AvqSVw5juUP/eeEB4/vvTADPD+w5+uBic/S/4Qllc8U1YqL5TgUgGBZbu4D9vW/XL0VuMcc8PJQU2Hm5YMDAxMTX3yWDjOo5RUr1Ljr14ce//4PX37z8GGku4clICoiKjm5rDAz89at8Xv3rl795ssdO0pcR0Z298y0tLTstAwk7UtKrt5S85RzYtu2rq6u7JGGkpL2hqqqmZmZlpSUyLNN1gBlAFSA0FXVXgLfNwJV8wCiy/qKMCCuq9MgDLnWUNLuurunqrslJdw6wCM6uQ8qnDxxIq40IeTItYb2BgB6ulu6rQI8opqMAFQAQGVIuOaKAbt7urvDw8P7zyZaABIxAKa4pcj55Ok5oMF1JPvJk/Du8DwACi0DiRQYwtN+jvOpU50ADI24urqW7AYhD4CIwk/NA4VNUYle0cn7U4SazuO3x2CImqFSzdi3n3QB0Jw3D0AVolKpDEKhQXUkQaUSApDX3JwntQJIKvSiJFNSVMLZGLCECKu6ypubd1oGfjICXtGUnWMGlSoBaxACDQyanrjy5vLIndJ9oZaAxKTQo3CHvorIT24Oa7AZfD/8qD07Lm5bOQDuFoHQQg8AKMnV1dW+vk6dKqHq+Nbs6QsXjEC/9cB+eFBFla1GIHske+uF0yfiyvv7I60BmgKPYkJ13xanSiMwnY0Bp+F1AhAVaA54ccAIxBsr9Pk6VZYeUcmGpuEKvRgglUZyrAQOUyj7y2AGw6WlpcMA9GacOsWRSqX9Z6MC/2gJSAyMjz/sBUCZr1Naml/G1jkAXqd7/9kkS0BgKABYhehkAJz8MGB6a0Zra+tJDsdKICsMAC94UduhwC9ApTOHw5FaAxRmhYXFHz4MD2I7CBgAN/CrrHQ+WVEhjfCwEoApHB295OiYlpnT29ub4+fn5FQ5C2RZBXjGx1OGb5afboUrZLvu+P5RGgDOzhXuEU3mgKUYEBiatRcET4owJiZBODb2rQE2jiHHNN8iZ+cI932J5gCbO3PAXgwYi/lPjgPgNAfced0k8Nr48zlgs6enl+a/gNuO27f71tTsA+DQVzamAd34niwMMApN4Tdvd2o0ms6h4R0ZGFBUVMOpOT/QZgagUf9x+VCg1ywQtjls9NWr85k5OTl+mY6OGFAUdWWC720GQPzRc99d+eHA53s3b/aMHx29dOm8Y2ZORkYOAJeiHc9f+Y5fH5tuBlBLUJxu6s83Dn665+Xne8NGf26Qeffu3cvj9/9VXCyuL3AzDbzNIxCIOi5J5OM2cWNg4OuDkMtXxsev3v/b3/8JqxYbryDV8b8wveouWetClytclHWwJPEHC0RTSt4xBWw4AYJcmSDAn6yXNHYw2+zMbPwLPxC5uIg7REw+tt90uCiIKJ4hgO0oNxhWThaexWNOroQCZgS7tsFYbMlKTWXCetNIp83ueDIBA4/iCDp+/psLF5jPKrv8yTY3t3TvVFhWi2d3PIEAvo/A/T+2W7XAchatt1ucn/9s0s2nAOuAUFkojag4V/DxB+9De+uycNX6N1eufGMSVl3R1K5dH218Z+37ttB9XlmycNFqW9sNG2xtl739Gxj8/2z+DcyUoHseegX/AAAAAElFTkSuQmCC'
p13
sS'twit'
p14
S'data:image/png;base64,iVBORw0KGgoAAAANSUhEUgAAAEgAAABICAMAAABiM0N1AAAAOVBMVEUAAADM1t3M1t3M1t3M1t3M1t3M1t3M1t3h6O3h6O3h6O3h6O3h6O3h6O3h6O14sVl4sVm31ar1+Pp4Ir04AAAAEXRSTlMAYL//ACDP72C//wAgz+//AOAD21kAAAC9SURBVHgB7djBDsIgDIBhoINBhSm8/8NqjIc5KVkn4mH9blz+CyGkVS3awIrRU4OaSNbBhrNHQnaGD7M9EHJQ4fghDVWaHTL1kGGHgDA+5APuEPxlQ70fY8KdUmyF4oK7LbERSsiQ6JBHFk+GArIEMoRMvw9dmW4ran04WSiXp/x1qLycKiShXKoyO1QIEhofGn/98tYk1PE72pKQhORfk9D466+Tt/bXCbL/cNx/XOcvEPqtNAYsWR6Orn3uE4ELRBvCv38AAAAASUVORK5CYII='
p15
sS'gmail'
p16
S'data:image/png;base64,R0lGODlhDwAPALMPABkICO8FCfhQbacCAnwBAY2Wl9LZo/4oR2Rqavh4i/+csz86M//U4qxAQLjBpQAAACH5BAEAAA8ALAAAAAAPAA8AAARZ8MkJ1ppYgr1M2VsGIIVjOgUCiEMgJMIxECsGtIeSBAHNBgkG49CrUXAKAc9nwwmUxd/huTRqcIdstAlUKIjMoyuRAFsfgEaDDGssziOTwYBSiSwLBD70iAAAOw=='
p17
sS'related_to'
p18
(lp19
V\U0001f4f1 Mobile Phone
p20
aV\U0001f526 Electric Torch
p21
aV\u26a1 High Voltage Sign
p22
asS'name'
p23
Vbattery
p24
sS'known_as'
p25
(lp26
V\U0001f50b Phone Battery Emoji
p27
aV\U0001f50b AA Battery Emoji
p28
asS'default'
p29
Vemoji
p30
sS'bw'
p31
S'data:image/png;base64,iVBORw0KGgoAAAANSUhEUgAAAJAAAACQCAYAAADnRuK4AAAGIElEQVR42u3dIVAyXRTGcYOBQCAQDASDwUAgGAgEg8FAMBgMBoLBQCAY3uCMgWAgGAgGA8FgMBgMBILBYCAQCAaDgUAgEAwEwv3mud/gLAuyi6LsLv8zc8OrLO54f++555676pohiB/EGt8CAkAEgAgARSK63a55e3szz8/P5unp6XO8vLyY9/d3MxwO+SYB6P/o9XqmVquZk5MTk8lkTCwWM2tra54jkUiY/f19Uy6XLbTBYACgVQplmHw+b9bX132B8RqpVMpCXMXstHKAKpXKwuC4h1CuWjZaKUDX19e/Asc5Li8vARTV2NjYmDrp2WzWnJ+fm/v7+89i2Z1J+v2+eX19NY1GwyJRDTQtk21tbQEoqrsr92Tv7OyYVqv17fcUtHQ6PfG+AApJ1Ot1mwkODg5sdpgVyiDujKF/Hx8f2236PLWL4CgLTcOjHZpXNJtNc3h4aO9dGQ9AS4hOpzMGYnNz0/MaTdqs+iWZTJpcLmdfVygUxoYKZGWseDw+8z2KxeLMexBUIRu9Xq2DMBfeoQWkrDHv0qHtu5D8VgEtxILtlb3c1+ljAAoAIK9lbIRIWWbRePb29myd5WfZBVBAAWknNc/1Wpq0a/ouGl2rLra60X5j2jIKoIAAUk00z2SOQkcaygw3Nzfm4uLCnJ6eTtRA+pg+p17Sw8ODr2zjDhXe0yACKCCARoh0rBCkEFBlqq8yGYACBMhZk+g1y4ZzdXXlWbgDKICAnM1CnZr/1SR9fHzYJU79Jb+n+wAKUA00a6K2t7dNqVSytc6iJk3bdoE5OzuzjUEvNM4eEIACBkhdXT3X43cXpaagMtTR0dFYkawayj2q1ar9vBqFyi5qBXg1Fd1Dxbi60AAKcCNRz+RoyfrNhuG8Y3d393N3SCMx4IBGoeMBLS1+lpXfGDr5V8ZyH9YCKCSAnKGD1Lu7u7kfXZ1nqLbRsvbv37+Zh7MACiEgd2iZa7fbFpW616pNlKm01OjZIJ1puYe6zgKi16gGUjGueunx8dEej/gNAEUA0DIDQAACEIAABCAAAQhAAAIQgADkDB2HOH8m3jkABCDPUM/nq2YhgAAEIAABCEAAAhCAAAQgAAEIQAD6U0Dq80x7XGM0Zj1XPes6Pz/WDKAIAPL70xzfGX4gAAhAAAIQgAAEIAABCEDswtiF0QeiDwQgAAEIQAACEIAABCAAAQhAAAJQKAHpl03pFyhMGwAC0NIDQAACEIAABCAAAQhAAAIQgAAEIAABCEAAAhCAAAQgAAEIQAACEIAABCAAAQhAAAIQgAAEIAABCEAAAhCAAAQgAAEIQAACEIAABCAAAQhAAAIQgAAEIAABCEAAAhCAAAQgAAEIQAACEIAABCAAAQhAAAIQgAAEIAABCEAAAhCAAAQgAAEIQAACEIB8Xdftdr/8azw/GforPwBaAUDTJnARQ39nDEAAAhCAAAQgAAEIQACKJKBer2cKhcLCx9nZGYDoA9EHAhCAAAQgAAEIQAACEIAABKDp8fz8PDERHx8fgb/vdrsNoCCE+jnuiXh8fAz8fV9eXo7dcywWM8PhEEDLiFQqNTYZmUwm0JPRarVMPB4fu+dcLhfmKQg3oHK5PJGFDg4OArmUvby8mGQyOXG/9/f3AFpWCIo7C2mk02lbIwVlqdUxx/r6+sR96kG0MC9foQc0+p/tXhacE6S6aDAYLKVYFpxEIjH13ra2tuzTkWGP0AMaIfpqojQETAeetVrt13Y8QtpoNEypVLIn87NO7rPZrM1MUYhIABr1V/b39309erGxsWH29vZMsVg01WrV9pR0fb/f9/w6eo1eqyVSIPUeKoS1m/L6unqNdmFhX7YiCWgUKkq1PPzk2R7VVcoizqGPTatj/AxdpwzY6XSi9u2OHiCF/oc/PDyYfD7/7Ulf1ENmyjhRhBNpQM7Q5N3c3NiC+i8wKftpWWs2m5FaqlYWkLt+Ue1ydXVlDg8PbeNxVvHttSzpevWdKpWKXTqjnGkA5NFP0rZbxbR2Ure3t7ZAdo56vW4/r8wShe03gAgAEQAiAEQQACIARACIABBBAIgAEAEgAkAEASACQASACAARBIAIABHBif8A4Py46oIXujYAAAAASUVORK5CYII='
p32
sS'version'
p33
VV6.0\u02b2
p34
sS'uni'
p35
V\U0001f50b
p36
sS'desc'
p37
V\U0001f50b A battery, or battery indicator. 
p38
sS'browser'
p39
V\U0001f50b
p40
sS'annotations'
p41
(lp42
Vbattery
p43
aVobject
p44
asS'wind'
p45
S'data:image/png;base64,iVBORw0KGgoAAAANSUhEUgAAAEgAAABICAYAAABV7bNHAAAAAXNSR0IArs4c6QAAAARnQU1BAACxjwv8YQUAAAFCSURBVHhe7dixTcNAFMZxmx5RUjBAJCoKmICSLaBmA7uyLFGTOhRMATuwQeqImgXsfGc/RGTZPMVO4KL8f5J192RHuXy6s3NOAAAAAAAAAAAAAACO1NpBRVE8pmn6bOVBquv6Jc/zByu3cmItBhCQY+slpun6pWbZVnHSeE/VzNpq2hIbE9CHvuzGyij1jJl70L5MmkHhnJqr0I/B9yzZ5QyaGtBC5+6bExHIsqz5PT1jXqn5bKsfumauz7xa2esolpiCuNBx3T0U3JldMoh7kIOAHATkICAHATkIyEFADgJyEJDjKAIKW42wReoe+jcdXt38aupe7EnNbejHYHMT3Rkz74M27TIg7kGOMTMovDp4b6tonWvMd9b/2yV2iFhie0RADneJlWV5WVVVNI/ykZZaYm/WBwAAAAAAAAD8hyRZA55hrC2BDLeDAAAAAElFTkSuQmCC'
p46
sS'andr'
p47
S'data:image/png;base64,iVBORw0KGgoAAAANSUhEUgAAAEgAAABECAMAAAAV8YMOAAAABGdBTUEAALGPC/xhBQAAAAFzUkdCAK7OHOkAAAMAUExURUxpce1sMO1sMO1sMO1sMO1sMO1sMNt1R+1sMO1sMO5sL+1sMO1sMO1sMO1sMO1sMO1sMO1sMO1sMO1sMO1sMO1sMO1sMO1sMO1sMO1sMO1sMO1sMO1sMHijrXijrXijrXijrXijrdHe4Hijre1sMHijre1sMO1sMO1sMO1sMO1sMO1sMO1sMO1sMO1sMO1sMO1sMO1sMO1sMO1sMO1sMO1sMO1sMO1sMO1sMO1sMO1sMO1sMO1sMO1sMO1sMO1sMO1sMO1sMO1sMO1sL3ijrettMvZoJtp1RMh9V3ijrXqiq6yLdpWVjXijrZaVjYGpsnijrXijrXijrXijrYGfo87d4X6gp3ijrXijrXmjrHqkrpO1vdXi5XijreDq7HijrXijrYattnijrbjO03ijrXijrb7T2HijrZy8w3ijre1sMO1sMO1sMHijre1sMP///3ijrXeirHejre1rLu1sL3airO1qLu1qLe5sL3ejru9rLv/7+Xulr3akr3qiq/r7/O1vNO1oKu5wNv728u95Qv/+/n6mr/749XmkrvCFU/7z7vCHVvL29+bu8PGKWoKfo5G0vISrtP7//5S1vfb4+H6nsfj6+sl9Vn2msLrO0ruEZfv8/PP29nmjrfKYbvve0O9/S/3x6//+/fOfd+99SPKXbPX4+fzq4f/9+4attoettn2mr/X39+5qLJm5wefv8e5zO/GNX/e9ocHV2fWpho6yuu5yOfKSZvjFre51Pf3u5vGQYvzj2PCBTfa2mfKVaPWujeFyPe1tMeRwOsna3uluNOttMpKXkc57UbeFaraGa5SWj7rQ1edvN6+Jc32gp3yhqYOrtKC7wcLT14OosZm3vtPf4ZOzu8rY23eird10QfH19svb36vEycfX2peUi93o6pW0utnj5oqbmtR4S7bLz9Pd3p25wHeiq36gp8R/XOnw8Y2utaG4vPn5+Jaxtfvh1PWxkfzm3PazlP3v6PnKtfrWxfSjfva5nf759vCHV+97Rf7+/v749vrUwv707wuR4FMAAABudFJOUwDNvQZu/vEBAv0akwTm1w4+MiNFpRHp292EqscN+RUNv1v+85egTBYoMLvuw4Y6gZ4pYtDBXVt+Txmwi3k59/ZVLo3MgtQdLNaLMEFDEeD8KST1C+778OP7/fr6+LX7YMX7b/vHG/zS/vBqs7KdkPhrIwAABJpJREFUWMPF13VUG0kcB/AtpCQEKKVFC7Ro3d0tdXd378nuzCYhWZIGCQ3uLa4FylGg7u7u7u56rty922R3SU62byf/8P1rM+/N521+md/MBMM+m6X+wctXArByebD/Usz6TJ6/JFCZn7V2bVa+MnDJ/MnWOs1GTrqTtWLZ48TEx8tWZN2ZNLKZdU7TIb7klfsZhCkZ96+QvkOaWvM6/n6+AJxPI9iknQfA188f+aUmBgeSAMQcJ2pzPAYAMvDriWjOBD8Ax2sBTE/knMR0CLTjIfCbgFSeuQDOnloBAdixbVPC+vUJm7btAABWTJ0NwVyEQokXzYAL5yVsoCEYk5qycWNKaozxeUPCvIVwxiKxYGjsAgAXp90zQnRdIB3S+AQr7qUthmDBWMHQqOlg1hyi6pYS/CPKW1XEnFlg+ijB0Jhp5MwAouahlrR0SO3DGiJgJjltjGBo9BQKPsglMrIN5ncilYbsDCL3AaSmjBYMDR9HkYbbNURYwI1KqDQFGm4EhBE1tw0kNW64YGjYiGQKXr+2hiDWPM1+lZ6Skv4q+6nx07XrkEoeMUwwJB165jJFaq/ezKNXYm4YnVz6Ie/mVS1JXT4zVCoY8pGdOJtMAVj55MXLd3lVHz9W5b17+eJJJQRU8tkTMh/BkK03fjLzlI4i4WtD6vtPHz58ep9qeA1JSncq8yTubSscssFx9ZGcc5fAKhqjy02vSGoVuHQu54gax22EQ45NcFpSHzt98dGzNzpdfr5O9+bZo4unj6lpB2/iiAYZKfWFu88z3+bkvM18fveC2sQgQZIgnI1CHRpaXV0tDw1VK7gxB4nw7u+Dm6OISoqPVFgM9BHe/eJ25mnyP/76M+7wUQuonXAIE5mnhZR8QxDlRXLziAizBgqJOEgvak1BhEphDdSNq0/klu2FNLS68LuCzRzUDQHqyc7ZuTWO2/yjt4azgz0RoOb2pimqfXrzcfR9FFMn++YIUEM7BtoVbYa+ZSG7hihQG6ZEe3bHrWYYzf4S9pu1QYFcnNhFtHlLyc80s+6nglKu1k4uCFAnT+5nU0Vsp9eRpiyidiF5dkKAWnqYF1J8MUEUx4bUDni0RICkXcytFnl4748/hJubrYsUAWpRz6Jpw4uKLJu2XgsEyNnboklxudyy+b2dESBJa5w3rSV1ArnyQ64okLgjP9RRjAI58EMOKBDWgR/qgHQZ7cEP9UCCRPX5nPpfIEGd+aHOSFB3ez7IvjsS1Jgfalw3UHs7PsiuPRLk4s4HubsgQa2c+CCnVkhQowZ8UINGdQP1kvFBsl5IkFvb2n1WZUrtadTWDQly7soyR0t/Tyo7lJR0gDtHujojQY5fMs6eg/v1GjrR5b/uZKSvJEgQ1pu5RRzScHeI4njmjOyN+C+b2bRVZes4aC8LuSJCzF4rj9pdrtdH/6aPK/yFvWc5IEJ9mQ1JHlkaG7tvV+yBKG476osI9WObTSEPMYX7+d37IUK2Xv+7kdh72SJCmFtQ//86/YPcMOT4iDz+7XiIfDArIh7kJbPY3+xkXoPEmHWRSAcOtvEcgOMDPG0GD5R+dk3/DUsqOqCu61mOAAAAAElFTkSuQmCC'
p48
sb.