ccopy_reg
_reconstructor
p0
(cemoji
Emoji
p1
c__builtin__
object
p2
Ntp3
Rp4
(dp5
S'emojipedia_url'
p6
Vhttp://emojipedia.org/gear/
p7
sS'index'
p8
V875
p9
sS'code'
p10
VU+2699
p11
sS'apple'
p12
S''
p13
sS'twit'
p14
g13
sS'gmail'
p15
g13
sS'related_to'
p16
(lp17
sS'name'
p18
Vgear
p19
sS'known_as'
p20
(lp21
sS'default'
p22
Vtext
p23
sS'bw'
p24
S'data:image/png;base64,iVBORw0KGgoAAAANSUhEUgAAAJAAAACQCAYAAADnRuK4AAAJwUlEQVR42u2dH7BVXRiHDwRBEARBEARBEARBEARBEAQXLgRBEARBcGeCIAiCIAiCC0EQBMGFIAiCIAiCIAiCIAiC9c2zmzPfnjPnnv2us9d+17v3/v1mljTdumedZ6/1/t+LJEk9tNAWSAJIEkCSAJIEkCQJoGx9+fIl3bx5c+N6//69NkoArde7d+/SYrHYuF68eKGNEkACSAAJIAEkgASQAJIEkAASQAJIAAkgATQiff78Ob18+TLduXMnXbp0KZ05cyYdO3asE6AjR46k06dPp/Pnz6ednZ30/PnzJrj4+/dvATRlffv2LT179ixdvXo1nThxohOU3HX06NF08eLF9ODBgwZOAVRBv379Sg8fPkx///4t8u/9+fOngYYvlpOjNDSb1tmzZ9OjR4/Sz58/i+3P27dvmyWADoHnwoULzeaTc+oDETmtu3fvpuPHj7tCc9iVt7u72zuHxnXLKceKCNEiCjzLtQ1EX79+bX7O+7SxrsuXL6cPHz5k7w+Ge/szRYRoEQmeXIj4NzhxooKzuq5du9ackhbt7++v/VzRIFpEg2e5OP43QcTTiVc0BnDaC48Pgxs7bRM8mzzDSBAtIsKz6ST68eNH41GNDZzVRfhgnde2em1Fh8gdoNevX2dtdBsiDNKTJ08WPQ2wTzjt7t+/35wMxHf4EpcLj4o/v3XrVnMFlTz1+P/bAUo8x5zr+Pr16/O8wp4+fZq1UUC0t7fX29YBPkDAs8Hw3lYED4leAxbByL4gATCfL+dnrly5svEanLwR/eTJE5erApee04XTq1ScaVVcq5xcJWCywhMlAl7VjSd4ONQmc9U8fvzYfaMBlatlKM+QKzdS+qR6ILE0RICDXTHUaWPVp0+f0o0bN4qfPCUj3JNJZXDFlNjge/fuhUtu4imdOnWq92fD84xg84QECBEQ7OMSR267IXSB8d7n5IkITyiA0DabjAfDFzQG4f3l5umweaLCEw6g3AAh9tPYhG2UE8siux+55igMQLluPUG3ser79+/NtWv9rLdv3xZAXa6v1e0lhE80e+zCm7KmdCKX1IaoB7I+jUD25s2bNBXx2SmRtaY9rJn8WQGU431NsbCdKLY1v4aNWDu+FQqgnKuLpOZURV7O6p1Fe4iqAkTNsmXT6IKI9uSV1sHBgelhIiipVEb6l5G3wIONMJfWGasnSo5v1gARGLOE9/G45tYqQ9TZUpYy62w8T5DlSaNGZm7CHrJcZVGCqO4AYctY3HY8k7l2fZIUtuxPBLvQHSDiOHN12XPiQxavLEJMzB0gS76LE2rqXleXKJe1ZOlnBRBBM8v9joc2d3EKWYY+sKezAYgEaNeGMABh7hMvlrJE6Ws/bK4A0RbTtSEc3dI/MVmk68SufY25AUTsh7hOF0DUy0j/q6vTA8Bq1km7AcRwAYtrWkPYEVwFFMG3A5zYIDzhnIp9+sj6iBxg177VLG9xA8gSPGRqmKewtSjot04oo8GRYjBPEYm3NBNMHiA2v2sjPHu9OVFyqgLbjYrePeld5R5cc5MHyFLz4nWX81T3GXfHaUQnqpdoVOzyXCcNEFdFlzfhZf8AaYkBCXwer5PIYgfV6kxxAQh3NMqkiZLdojz5Hl8coHb9LttMQAsBEFWF7XEo65YlLI8xG8ETzF0ecSvsNUvnRtf3MER+sTdAFuPYsiimGlps8hDTP4Zu/OOUK/X7ThYgj+z7Nl6XZTEraPCrQgDVLU3AeB5q5IpHwX+pyWyTBWjopxhbbahZROxBhDCIABpQlheqCCAB5OqBLRdTRQRQZYCGTghagpmRPchSr2+QF9ZDOcMMctbHjx/lhW0rGv65fjYt8kYRPJkhhnp61G9TbmKJ5Hd9D0OYCWFSGR4lCZYKv4gnp6Wko1a3aphkKuWuHrL0XOVMD/PoHrFM96/V4hOmnINAmYf4wkvYQp7zeiy5xFqzg9wAsvR8e1X75Y6YWweP5xPf1UvH6V6rj84NIMss6FevXrl9cBKU1vEyq0azd+F/V/EbJ2otuQFkaWn2CMitXmf0qlkmhRCH4Srx7lkjRND1u9E/NnmALMlM7KAaRzHlGACOgc2phL3GOnfuXAM1nlatij/LW3yYPz15gBBeS9dmRJ44X0OWIZyEJ2YBkMUOqnkcR5Ml/sNDWVOuAFlKKvBwxvLqgqFlSRPVHsLlPt7FklUe4ysMSov0haUVvPYIQHeALB2qkWYA1pIlYj67+UDImo+KNIm0xuljabf2bG4MAxCy9GYRPKs9PKmWLK+9inJKVwGISK7lFPIethBBBA41pdUgS25sbnEhgqiWuA/GtfeUkHAAWUL0y575aC+aHUrWd8dGipVVfVeGtRyW1z5OfWrr/v6+6eoimRvpFZhVAaLn2xLrmLo9xGls8br0tp41skxunXKAkUIw66wi6p71vrA16hqgNJV3pa4KQ9ja78UJFcVwDgcQRnJO7/cUBpFzfec0C0Z9T2yYtzbTOWq1h8b+Jh/iYDkj9jxmJ40eoJzY0HLt7u6OLmfGSZLTZcrfjRyRDwPQtu021AOPJeWBE7BNXxpTWKPGwhZRNrbvrELPgvxckUC2vKVo06LUNlL8JwxAGMSlukUJOEZ6tzpfOLaaNcZjKd+IBlFVgAiKlW41Xk6Ur/VqgiU4PBiWbo9tIIoUC1pMCZ51gTfPZCyluFzHQ4Cz+rminERVAGLucQ48fabKL+0Hvtghrje8QOwvPMI+M3xyf3ZnZ2ee70xlxEhOvGd579PUV+LEIhlJXo1qPnJQuV8CBjE9ZPw+2Fw5n2XTiUKUOdeZ8BitFw4gvgBrXzqeSzvOw3VUatRb22biyuGUAghOEr6Y5eJ34M/5nUsZw+26HmylNsRMO7P+/GxLWi05oMM8DuwMju+h7aehF/Grw3rsLRBFgKeqEb1pQgZPfFdvGFfhUIPDh1zYOqunTi5EUeCp7savu85yYh18CXRvlLBDPBavWshpmlwXI4sET4hAYvs6W7V5rCKVQSqktI1SajF9bdtBnO1KxWjwhEllABGtLH1jGzzdHP2WIQ5DL0IP1C6XCGgSM4sITxiAhtDBwUHjRfWNIeVOLsMlZ9zKXDprF3P4kBjcnAa0zJT23jjtsG0o04iY7BRAA0SOAYprgUItTgxLbImKSQx8QMS4JZoescRUAFU6ocbWDSGABJAAEkCSABJAAkgACSABJIAEkAASQAJIAOWLUtd2Edm6pQHoAkgSQJIAkgSQJAkgSQBJAkgSQJIAkiQBJAkgSQBJAkiSBJAkgCQBJAkgSRJAkgCSBJAkgCRJAEkCSBJAkgCSBJC2QBJAkgCSBJAkgCRJAEmO+g9tQNyy7yWDxgAAAABJRU5ErkJggg=='
p25
sS'version'
p26
VV4.1\u02e3
p27
sS'uni'
p28
g13
sS'desc'
p29
g13
sS'browser'
p30
V\u2699
p31
sS'annotations'
p32
(lp33
Vgear
p34
aVobject
p35
aVtool
p36
asS'wind'
p37
g13
sS'andr'
p38
g13
sb.