ccopy_reg
_reconstructor
p0
(cemoji
Emoji
p1
c__builtin__
object
p2
Ntp3
Rp4
(dp5
S'emojipedia_url'
p6
Vhttp://emojipedia.org/flag-for-Albania/
p7
sS'index'
p8
V898
p9
sS'code'
p10
VU+1F1E6 U+1F1F1
p11
sS'apple'
p12
S''
p13
sS'twit'
p14
g13
sS'gmail'
p15
g13
sS'related_to'
p16
(lp17
sS'name'
p18
Vflag for Albania
p19
sS'known_as'
p20
(lp21
V\U0001f1e6\U0001f1f1 Albanian Flag Emoji
p22
asS'default'
p23
Vemoji
p24
sS'bw'
p25
S'data:image/png;base64,iVBORw0KGgoAAAANSUhEUgAAAGwAAABsCAYAAACPZlfNAAAD60lEQVR42u2dvW/TQBiH4zhO3Fb0O02ajxYBQiywUhXEzAj/Q0GIBYkFVsTEgBBMbEiIGVWAmCsYkIAKCSQ6QWnF/xF8iV257vl8Z4fEaZ5X+qmJ73x+9T65986Xc1roYCNlBUIAMAxgGMAAhgEMAxjAMIBhAAMYBjAMYADDAIYZAdva2uqg0VEX2N+Vk2gEBDCAIYAhgAEMAQwBDGAIYAhgAEMAQwADGAJYSIVCQVm+217t1onTTmsl9tyfXpnq3D9e21l8G1tgssBsN9vd4+/ry0fqLRTtg/f3Z+di277nlQX1qrZ9pJ13Xtvi9TfvWrp+ASz0iZeV73t6NL/ggWvE9hSdtsMSbYk291P6NNbAXtfqWgG6OjnZN2CiLZ1zNmvLADMNrmycWrRtJThZWZASA+0kjG9MOmL0bGFRG9xpx1HWTToudKrkaIN6GvENYAmDe1JQfyXMIIV+h2aCJr2JMSxFKtQJcD/r5jU15m4MezA3nztgDz2fGMMkulAuG/e+oPxixU0M/JpXJ01KFDqv8I0xLGPq6ocYwzKMYYMEl6b3sfgb0e3pmYEBE9di8VdTYpmoHzPHfqfEON9IiZLAuZY18JRY8a5JStSU4wVr48T0UHtZ+NrCF8f/0AAsQd9b7aGlxB+K79YAxizxeAALju8NENiehj8AC+n5YnXoM0UdnwAm0SXXHVpKvOJOMIalGcNky0P/c9zS8QVgkiCtlkqxa3nB60n/fskEYlB3yioe2Q0Vvc6K5wPAMi4IRwN/y19KMgF2w7u3SupZLE0ZqhxabVClxTQpUtVW+H0lRzfMIzuGXXbdQ6lsV2NrQNym0aCNdddlDEujM45jFKCvzbbRxpvwsW3JhlHVB+hsZNMPwAxkG379ryqzczxejfzOXyFLAsvKAEx2Pjt/DfSyWlMG6FOjlWpzjaqOaFMF69VSjR4W1Zta72GE61NThwImghUO7kyxd//0udmSQtVdbhLHvjR7oESb4brBNYO61zyfxPu39WWARYP4xN9hK/4GATznlFPPMk1TmrhWUD/w5bHvCz3MYMwIjsk+5VkXdzf93q1KnaTEFNu1k+CaftfVb3/GDtidmdnU5274y00q3YxsPTDR3Qy+8YxzTC/42GjGwvoQKuMZ5yFpraK3pCQrX3ddgOWhp01YVudFdekAjLivmwh9DcOvCORwZlkPPZXZsEu5nfHxOx053jwDsJSPJQEMYAAjJY7hb00dR1jHGth0sdgVwBDAEMAAhgCGAAYwBDAEMIAhgCGAAQwBDAEMYKr/e4/yp0IHGykDGMAwgGEAAxgGMAxgAMMAhgEMYBjAMIABDBu2/QOwK6exx97DXQAAAABJRU5ErkJggg=='
p26
sS'version'
p27
VV6.0\u02e3
p28
sS'uni'
p29
V\U0001f1e6\U0001f1f1
p30
sS'desc'
p31
V\U0001f1e6\U0001f1f1 The flag for Albania, which may show as the letters AL on some platforms. 
p32
sS'browser'
p33
V\U0001f1e6\U0001f1f1
p34
sS'annotations'
p35
(lp36
Valbania
p37
aVflag
p38
aVother
p39
asS'wind'
p40
g13
sS'andr'
p41
S'data:image/png;base64,iVBORw0KGgoAAAANSUhEUgAAAEgAAABICAMAAABiM0N1AAAABGdBTUEAALGPC/xhBQAAAAFzUkdCAK7OHOkAAAMAUExURUxpcfd9fu1AQvl3ePl0dvNYWu5ERvR8ffSDg/l4efh5e/l2ePBLTvlydPlzdfZjZfBJS/d6e/VhY/BOUPBKTPh2ePJSVPl0dvdpbPhvcfl4evNXWfdrbe9GSPh4evl1d/l4evhsbvl0du2AgPFQUvFRU/BMTvl1d+1BQ/NWWPdsbvl2ePh5evFNT/l2ePlzdflxdPlxc/ZmaPd6e/RdX+9JS/hucPReYPVfYfhvcflzdflydPhvcfh0dvl3eflzdvZmaPhzdPZjZfFRU/h3efRbXfhvcPl1d/doau9GSPZlZ/VgYfRfYfVhY/hwcvhvcfdqbPdnafZ5e+5GSPRcXvVhY/NYWvl2ePReYPRaXPp3efd3ePJUVvdoavdrbfp3efhxc/d1ePhucPh1d/FPUvZkZvdpa/hucPhxc+5FR/hyc/hsbvp2d/l1dvRcXvVgYvJVV/Z7fflydPRcXvl0dvl1d/doavFTVfFSVOQeIAAAAOQdH+YeIOUhI+QfIeMeIOceIAEAAOUjJeozNb0ZGuQgIuYkJugrLQMAAOcoKuw6PGoODxQCAogSEwgBASUFBew9QOUgIoUREigFBWINDW8OD+AdH6wWGGcNDuYmKFoMDNwdH9YcHpQTFbsYGsgaHH0QERsDBKgWF1MLC+o2OFAKC9McHhACAgwBAd8dH2wODzMHB7kYGsUaG3oQEUUJCoARElwMDXQPEHYPELIXGecpK+gtL+cnKekvMc8bHcwbHOEdIK4XGAUBARkDA6sWGEMJCdodHowSE0sKCqAVFrQXGXgPETAGBukxMzcHBx4EBBcDAzsICMobHGgNDpwUFnAODzYHB9AbHZgUFXMPEIIREqIVF40SFIMREkgJCjgHCKUWF1QLDOs4Ouw8Pu0+QKMVFz0ICF4MDUAICWYNDkIICToHCIoSE54VFsAZG5oUFU4KC+o1N90dH9kcHiEEBIkSE9EcHT8ICSoFBpATFJMTFMIZG7YYGYEREk0KC8IaG18MDWQNDlYLDJYUFVcLDFu21ZoAAADgdFJOUwAF/iNQ4/0DAhwOMfZmWcD5Ccr09x3uTaN5Ieae+hI/F5NJAfLv9T3+6pArFPMvXGNstQzV94TUz4BXX3tFKEe5VcbxGt+CObH5vdXZzXZ9oKsG/NrG4TbS3SYN66mYLmgPijP1ybSHcvtqjUtG1s/nClPcQkTB6+n////////////////////////////////////////////////////////////////////////////////////////////////////////////////////////////////////////+1CDR5QAABnZJREFUWMPtmGdUU1kQxxUQRKr0tlJEpIiKYMPexV6x9+5Wt7+XZgqhpAAJIKGHLoTQXapBkI406aDYQVlYFV0bq/uSAAL3ERX8sHuO84mce/mduXP/c2fmjRnzxf7rtk1BxvDIZ+AcWfiTuoWO9Kg5044eT4VIssYTR8mRNlDkYCCM647FowvPonWyJAgxJ0XlUWDkrE453nASciCM20G5kVKmGR5dL+uKgcSg1I2aw++dbCtvNVV7xkwlpQXKMiaGaxSs9krraWpqSi8+9q2SpYqFVCq+lwNBuCkmw1AmSsvMP6DmqGU928HBYbaGmfqU/fqOe77bPW/ePLs9+qYObpdIUD8Gcal1DurZVtobzDWVIqdScU54ZBse7+SJw5GoHA7H1dWVQyXhIMwAihB0SWUaiNG0UTG9keqJGbIZ2S42CMVIP0wFpLpguWoaDn27BJPdNH5whK0MVhQ5fSoFcbZo7aCEk1uy3Jz06RgExFmlMJCzbEM4HhqR4Wcffs8ZL7MqDXVXJgEr/gOLHdalcJ1z/aA164sGrxKqOyHClYx275dZ6QTkp38wL91HuBDQCZBc7fb2X/tatyGLAW/qOwkXWBHsMu6dJxAUTKuKf9XGuwb5V1YAIE8z+z6QrhluyGJnZQmNki6ovV0K0x9fxKa4u7BLaLlxUF1JAni2m8Z94v6VDNxXZEhTVdj9O225jUz3W5l8JvGvxMB2QT07NggEOav1Je6JNABECWl/m8wlcr14vtlldWVw7AVBIpdbdSf0+jWAhNNa0gs6CXoU11jYEcaF4aisjFjiZaZLSFcYDNND2r26U8D7k1rdK24DNwB0MTSXwcghwtkxlKcwDBNp/t7Ij+Kc+yHBBOBsaesmiUGnpADQFVpLgVcVE4aj2dEICOb2FCO4u4Epj2kBYOLqrxGDTjuAOuPF3GN4R8GDzd0vrzAZVBJ05vRkEWiGNZgevAJGTPxQUGl54K1br8F7I6/dJwKZ/I4DFik9vqwY+hBQdo7XP8XPURJ3z3QRaJcjFVjsFATSbt/NHgwiusdUCMBoQ3iNmeJqZ8cBFZnIDmsuHwq665WXExEMCABzY4uo4hrtdAZAhIcCCuudO5E4ONqMqwUJ4LVhUueKmoAjs0BpE66H5XixChPZxdHMXopLdnT3vaS3j5ozwcRVXyYqQVtAaUO85OcpHd6CjoT7eSKvXLpjW1rKWxiJsTU+oEselsLElfsalDbUVffyaUtzh1dSQoQ4Pnk9yX7XkxIfpcRdREncnfJClzaB0oaevGF3PKSwXgcl0OlN0TCzlE5rqP8nhFHW1PgCi5K4vwhBM7eDaiU8zA1C/iG0MYrJj3sAd7d3XC7PT7ngn+VbGYzy4kqtFopbxgyUNoFC4+dXU/hcl8LggNswvTk4Prsk2ef8eUrNC5SXW5y4hr95AkvV/Jq2V/HvatuT2joD6TDxAYVXSG8JTMnnJzGywChRx+1CQNMdScCKf1y9H7+iNoYXfJXVjdwb8UFoaB3lmV9TXkONwAclcW2Qs+nZcVCC9JYVcL6L9zelJ9FPKKXoiPKGayE0gaDSNx3lbOSttkhniSJtpAYJkwqLRJ2Rw3ZBHsvEgsDquEgIm5GFBuLsQCquLYq0BzwE3rVJJczsWJofo0t08ajFEq94Fmkudf6UVPcDWDkN7lxvGiu0U0IT0GqMlGxLN0mgzPzQilJmeYJ3hqQm4KvNwhIpJbFRwELPomD6I3+ChD3kjQrDSHtw5nkz2UFYSZwNJsKaJKPo9AFSpBc/U0JvE75eW1TbDLVwH+qDIiOHj7PnzRM/i2skmrQ/vmmjbj95rG9GmcsZOejSCuP+9h/t1f5Id0geGw5P6G/ZJkiUtgQMjqyls2tA7/8BaQ9DwZDI6kvtJwzsjseDr7aw08c7OQlHCbSmHwPhnD32z1pgNKTtX2iOGQTBU53DW89oWJtaKzqYuxU5/yGeTsSTBB5HTSWbT1GzXDIJGEOUHAbKItVNw1FlyxwbZZlvtO2VFhpvVdmNzEuqsuatHh4eUrKqpuPUDmw20RyLMhbJWPdLmxRu/f3BGQpG294f/JyR3iFkgju7afPqOfN1bZQXTZc/N8yY1i9tqpvFAWW9sSOeUw+JGxLPcAuDRftGMzfLqzkLp2/Vpdq2o5vjx+oed6aS9eevHPWXhUm6G3cs/XHbZ/jWIae5eNKXL0f/H/sXEYQ24fXtsG4AAAAASUVORK5CYII='
p42
sb.