ccopy_reg
_reconstructor
p0
(cemoji
Emoji
p1
c__builtin__
object
p2
Ntp3
Rp4
(dp5
S'emojipedia_url'
p6
Vhttp://emojipedia.org/flag-for-British-Indian-Ocean-Territory/
p7
sS'index'
p8
V928
p9
sS'code'
p10
VU+1F1EE U+1F1F4
p11
sS'apple'
p12
S''
p13
sS'twit'
p14
g13
sS'gmail'
p15
g13
sS'related_to'
p16
(lp17
sS'name'
p18
Vflag for British Indian Ocean Territory
p19
sS'known_as'
p20
(lp21
sS'default'
p22
Vemoji
p23
sS'bw'
p24
S'data:image/png;base64,iVBORw0KGgoAAAANSUhEUgAAAGwAAABsCAYAAACPZlfNAAANq0lEQVR42u1dCVgURxZuY9zVqCuaXcl+65dNsq7ZjUETzCaaNR7rARtNPOIVz8QY74M1RjG7BhWPRNeLqHjgrtEoioCKohgvkAQIIB7ggSgYD05BZYBhuGrnVdM90zPdM9U9NYOw9fze10NNz+s39U9VvfrrVckhJvVKOFYFDDAmDDAmDDAGGBMGGBMGGAOMCQOMCQOMAcaEAcaEAcYAY8IAY8IAY4AxeWIAi46ORkzrj2LAUlp3UEa0o59mFSSldXsrpWu/g0QbqkgAcwZozgQMpFqvpwrWjGWR2PZTHotRdXUNnS6s1t/p/kfpA2brS+cVljwRgP2c/Qh/7nKHblRbldLzzl/J1mRv+NwQu/WiGTA13UpdAuasLlDNs0mk0auL7dorK69QZfPpTktMgGmpDFcCptU3ewKVpuYH84vXllIB31xJul7hXglg5l/wSpd+VECjAZjasUrORvCxVKv7mnku0zx+Pt93LfUA7T/hKXZtWgEGCs0ZpKaikqiSLl7PcQpgMGaqGatIuqH6rrKAOdoN0QDMGd0ziTb2WIJCotLQ2AVhdu/dFLEFzV/zPW5ttu7754bTKOC7BOcDBtptdBCukMLgg5KKS/ceJVtxvT/e6RBgfpvO4rLc9dskz9PFJ8s+D/yjBZaaH8PbY4JQVXU1cv/CHXFTOdl7ft39a1l7l9JznQeYoOAcSGrHHpoGfRLA1IxV4A/NrkZLJPmC3wuIm2YEaxaH4i//bNNedU21VdnA6XucB5i5IzWGCqJKjTh7nQiwBw9LVY1VanylHa4vXH9K/FzGvWwMFmhTT3+xvKZGGvW1m9cOlVeWU/k+qgHTOheyBZiz54BKrXHuqijN8zbvKbuR3mAQASsuLpY801BlQE18miBuEoeazGri8FxQduLsTLEHWH2UOYFzEDeGB6yiSjoJFoAEHbRtEH0ukQEm/ytfG7rW9v21oMTeihXLfMJ8xPLjSacl3eW6XfG0uMT2DU7ViFwY32lBJ5R85b6x9VTKfqbG+I8byQMzfvd4XFZqKOXBmsKXn7uQIdvFZecXM8C0ArbveKpVhe4MjeSjuLF8xbec11K5hQ3mxCjQvCvsuqqrwzSXZetv0IDBFywoKrVZCVdv5StW6PiF4XzlTzSBMGTVEPmx6j2jDqt9/QmHPj80H334eahoK/TUZRyo2Fp9UMUlNlTABP1k0WHVESdU8MQ9E02gjOBQ4zmNTWy7oUx8b1fiLgmwiVkp4n1t31mFn3f0wjGUlnUXLdsaI/u80fNDrXx8WKyXn4c1dMAc0czsfElXB5pVcAeFR8WKfwcnB/OvjV1owSM+xI9MO276TO2YRo2aYoBZT6LN+b/Q84f5AGOkqdsr0ZdLgawFJf/hY3Qr/7apfDR/9VjpgYLCzjPAaAD2+37rFMeP9KwH+J5xvuFWgUX/Tf0RN5BPPINJcmGxDnEzjO99xIktDq4BMQESBsRhwBriPIy0Epp0Vo7Wqmqq8DUojieZC4qLcMVjMCZwyDfCF3GjOAxSQkaCCczx/LWsogyVGEpkba/fHc8As5QFa0/arACoNDnRletwqC4A0Gh2Ixx0iIBM56/LI5ZjwLqv624CyqiBsYHEPn4VFKueS2zoTEfR4zJVpG9WYRbivDjczVkGHFihVX3Iv77/6D7i+pneq6qu0uRjqV4+XcG8K1VN/qbeyJPv571HSchbYPQdAQzWv8ztwfoYZvRv5FJdMpGT0VtG42uvDb3Qw7KHYouaeWCmaa5Vq5kFmWhR5CLMcFiy9E7NS3SkAuSY9sqqalXrYWpsO2PZBK9ZVdfwDDyMFemxaGfEednWYqg0oEPnD4nzLug+xejRqGdunFH0c8C0Pc4HTIiOLKU4+kdJZRbs3IfLX3l/o6YFTKXnZAz+SPIcWOQEgftpAfaS13qz9DODTVs40KgFx2uzl6nFzTCBhsc/G75BGgJ1wCC/Qc0vH5ygkdNx4/YDVa0N/JTzH1o5zWjSc/hWU1gPQUft0gr3MYdbHTfcbHwzXicHT0ZzVh63aRPGLU1coqUh4NjUjFW0s6YgVVrN2HblZr6mlkYK1gjI4h1p4hXbLGiD9BV6ScQIrQpWlgUQ4eq5yhPnfzjafdtMEaA5njial0jTl79N3CmmIyjxeUq6K2GP2N21XtAaM+34vTEmlgNaulvXlaaWZtbaSHNQuo/bgfKL+HnbtcwC2zkdkxdHqBqr+k761iWJpJCjTjS2lZXhcvgeNBN0Ag/E85UPy/0+TVDzN5aL76XfzBRbGAbPWPbbXv82Bi8VaGN0IF8+kmc+aKTj2Z2Hyf2S5ZB3RW59ytVs6pGkuXapHaPM5UUIRqDSx3Go78Z+OA/R8nN+YX4iZwgtRCjXG4MjHIjAZPoDDjWd2xQV63VoR1g0fcCUxiqgcepyM4SQlUwyttFKcwOiFwC5dPWa7Gd392vMAzaTQzkPHlsnzmRE42gyT5cnZk+djLtFDzBav1hn7g8j6RFIbQkp4XJyt/Cu+BrGQNnxrU9tl2i8JtxOUIyuY36KcThjWQKY0lg1e8WxJ3JDH4yhtsY2kIOnrtm0EZN0226Eln4j3Tiprlb0FwBrOa0lBm3o5qGq51anEzLVc4k0WxVo625fYSUBTLgXJq9alFQgdZoGdSXIt4cvioBN+OIgn6oe0BvduXtHs00IWMx97DhoU92kuTVkAcBcJbKAhZ+6Kttqcgp0mh8EE2GaBK1S6791t0izvV++7m9lz73Haruf06e7o9ycO8Q+wvYsaoA902UZdVLVnj1Y+lAjwgqwK328l/dY8bPHAn6FbmdekZTlPtBR91FXapAC5jF4M/EYBQ7R5OlIvwAw6qT2bt4ppOoj7DFWamFabSrNLVVzicSUTcRFhyuWFLg/v7dRk73N+xKp/KAEbfaqD58+UCVdeqmsrER/HbsDNffwUW3z6x0/KPq4Yts57duN/t/14qU0tGVtB9yqlvp5oD6D30VhYWHoHa/uaOmXHrgc3k9Nu+r6LbNMrVt+q9dnSMpavbUSrVm9EDV7Zaqk3M1zOhXukBgwWt2HoCu3x1rZ27I/ifquSUfsAU9oKUNm7xPfD9veTnK/z9MtUDLHoaioKBTetBH6k1tnyfv7t7Sj7qPisQ+0AgkSm2rZdWEftCt9hOyrnER3DJClAgsCgJmXeb89DOUkPUfVRyvA1JytJMdaOxq6ktiDwINUzAdrGj6GhISIgKSFtRFfV1RUiIDFbXYTy/fu3WvXZqCKXgbudZjpoJ21lJaRp2jv3Wnf1bmPpdf4VgbBBVzjG5lem5fDfWrE3hkjFZVV9KkpWDKApEiaAnkiod9foWYPiFZHfMxLaovOPMWhkqvuGBxhDia8FgALndhc8zPOJmbhMP94bAYZNWXOKMBiJU0581MmVXswgYd8DpoCPzxbcmJeCxQw+hkMzPUjz2KQQifxf6/zbYFC3J6S3A9L/kr5nFS4RGckZyrZy7r3UJO9nhP+6zIfIXnVnNU48mlzlJ/SFh3f6IbKrpta1g9BbuhS1LMoakMr3AJHOPv4PdKBnzZP54zgRG0WLqmP21c9j8HxnuqOeiz9I0o+OZCn6pLb4r9B40+MQXfi2tq1R5qGJwgk/kgAc8XpMbb0kU5v195zPVfXqY84+pvdwtiSfoNiYk7jz3t5eeErRIvfrOgkjmM0fRT2lTnMdAgLd5YCXZ1Wm/fz5HfYmx+foEaH/WO/rD0YW9Ta8h7QU1x9Dg4ORj4+PigoKAj5+/sjX19f09xy8kh1dqfsVgRr6Jx9jJrSqq+95UXUIvp4D3U9lwjhL+neJdKNc1tDktHIzw5QswlnP9H0ERJowEeS4/e4lz5FM2b7onnvd0HtOn2AuJfnyd4HLAktH2UBUzqG4GhMukuOtiPRF/vL53KcS77tUh8PRcbzWVN1dfxeXXCJcpsobClMfl3to1Ie4akzybKAQYIObR+tAFMj+wkrmXZoDYeVkMqJH2863ce4uEtWgMEhn6SSmHqPGCwgCBympsoNlbLGv9x4RrNNOHKV5mRTaSPCzOWRmm0KE/fUy9cxYMLmCNpJRXV2/F5DlfLHhXWf5mbZ5b0xYiuVh/3Be4NoE1h5R8W85XQeGkjFR0jcFGxCd2UXsGLbgOEjImrtwc7UesElmjtNa+uoLcaDdpe07UCyMmCPChQBe3nAN08GlygcdkUicKAjiU01uYkk9lr8ZblLAih9Ua4sYLT+lwlLmyJgRBNFC9WXV9p8ABwOSTu8VmvPHj8JmcKO+FhWmGMFmFp7JBnVVKmpfwWcpjYhtjx2XRA499ARe5+tPkHdR1gF1uVkiYAVl5Q7ZG/qkiNWPj7WlbM0N5qacSEJAwYEc53/Vx7QpYG2//sGKg97c9Q23AUBV0frCwDrAT5qzQq2Oud3yGbs447wFKL7r8XHiNuNlO4BlgR8hEjWKYDRplNsTQu0jHPO8JHk+D3ZYKmAjxJbvrnC6T5q5hLHqAhQYAsPbX6SRGap2DWqdCYIqY9yXCKJQH6lZsBgm1FdL/1vDz1P1Z4zfIQMrrrwkerxe3LGj527odnekeh06pv/5I432nP08hPDdwo5G3I2f9d7jfXEmWk9+n+cGYVbv4QBxgBjwgBjwgBjgDFhgDFhgDHAmDDAmDDAGGBMGGBMGGAMMCYMMCYMsIYs/wPgNB4ecVrxQQAAAABJRU5ErkJggg=='
p25
sS'version'
p26
VV6.0\u02e3
p27
sS'uni'
p28
g13
sS'desc'
p29
g13
sS'browser'
p30
V\U0001f1ee\U0001f1f4
p31
sS'annotations'
p32
(lp33
Vbritish
p34
aVchagos
p35
aVflag
p36
aVindian ocean
p37
aVisland
p38
aVother
p39
asS'wind'
p40
g13
sS'andr'
p41
S'data:image/png;base64,iVBORw0KGgoAAAANSUhEUgAAAEgAAABICAMAAABiM0N1AAAABGdBTUEAALGPC/xhBQAAAAFzUkdCAK7OHOkAAAMAUExURUxpcZRicSNChxQ7i5qam5yPkhQ9jYeGlJaWmgk0h8jIyBI7jJmYnAw3ipiYnAcyhRA6ixtBjc/K0RQ8jGt6l5ean6WkpBtBjBU9ipydnbS0tShMirCxso+ftA44ira9yy9Pj3mGnhM7iQ44iVFolcLBwTpYk3mIr62ywMFse6qqqr29vri5uZebo1BnlpKUnntPQ9c7Sw03iWt7mniHpmpylHF6pccWKpGhuKOotZ5ISjhYkkdhksBJVckTJs+Rnq5/hsoUJlhsliZJjKqrrk5ml0xllztcm4uUpsUTJaqts4KWrMQTJbGztrZqcbd/hMAyQLw0Qpmfqwo0h////wAqfwApfgAqfgEsgM4PIs4RJAYwgxM7if7///3+/g84hww1hQQugSFHkCZLk/v7/fHz+Akygxg/jDVXmq+81uTo8ff4+rPA2RxCjeDl8NHZ6EZlokFhoHCJuOns82J9sZmqzC1Rljtcnaq41MDK3ypOlPj6+1Zyqlt3rLrG3XiPvO3w9k5sp4+hxt3i7ktppM8VKNXc6sXP4qS00vX3+oCWv5+vzmqCs8rT5DFUltje6wEofc3W5txYZiyALiN7JRl1GlFvqPne4ZSlyeN3goebw4uexNIgMdpIV/77+kaPSvG6v+ugqPrl5+yyt99jcNlCUeaJk9EbLdMlN9QyQz+KQNng7evr5umSm+HDzf319jOEN+aBi4+6kuuao9QsPd3e4+unrw9vD0SAYtxOXPHY2/PFyczP2vH08u/v7/vu7srdy1OWVeJueTE/b/b39luIg9Nse12Xa0NmiKjJqXGci3aqeeTm6DxwcdqdqNbY26iVrdKDKsssCFxvfsefstbl10CCU/XM0DthhjwhV8tTHL27scq6haaggsDC07XOu011jbp6UKiBno9+e8e+vot8YYxXOcidee/lyt7UxK2WOs5kD9CQQLoNCZ2hwFd7mU6BdXsbOo9+o2FPcr6aJpx1V8p2HLWiubhfQOXRqdvFdZpYeM5tGHOBi9ymd3Z1fhIeoNUAAAB9dFJOUwAJDoIsEV8DHvP0TFjHRfqYdPwbUmmFKjY50/7E/UP9zbKz2nnq/f38+aHi2qX7kfr96NLV+v344+lBsFyk2vrCvx3puoyj2NtS5Pwl3nyiVXvO7f/////////////////////////////////////////////////////+rBie2gAAC8FJREFUWMPsVmd4U+cVDmBGGGYlzBCgKcMpaR+aUpJACLRNM7se7pJ1fe/VHtbew5qWZUuyjKxhW957yRtvM2wwe+8deCi0hJHV7M7vykpK27Q/Sn70R8+v+1zpe+953/Oec77HHvt//K/H5KTpyRO/BZyJ89ZMfXHD/G8BZ+rOdBs5a9wj4kx5duqoRyvAnnm0lCYnL19ilKgEMLxy+iOp/OpPcVyKYyhMrXp28n+LMnHhvNcXYzCKoDAMO3qemvIf/jx+7vwF0yaBmP7rN15KXpiUlDQlHklJyU/Oe2rFCS8TBkAIgun9xOon/g3IuLff+OXPZzyz9fGZMzlvpaxf+8qKFSu+t2bNokXPL1v2/JtT5/TsMquVCExx8nTC3HwC8k34Rm5zn3h50/r9JXwMg2HTe9HG4AWuR51uHh0dNZowjHKJ7BBkLqJQk88ti8k8EOTRzBj/DTCzZ6zan8qoXYoD+vrPahv3FEI8p6tIxoXEGQAahnFXcY5NiuA5aVA80kSCHy74F2UmzZjJUlVlMermcBBMeXagsX43JFORCF+Y63UwYRSDESSAv3+Qjzh6zplpHK41D505+5+4zZ+1lQUjlppSRlObEnOdLeuuak/zO5igOAgM0sHybCo9hZD7zi+mtF1HjvolVomNA6PS5f/QcJOnzQDfhBFlWzejtEbjOlu3tqbcLBHCKIrRWDBqMnK5Mq2eOhg6VnBiZMQiJXGShcKY5hdJD+NsfE2fx8ZZAc6cOkbWduvZsrJKgrAqpQKcFOQqKBjBtQStiUzrrajwnwv1kyRtSBjR+ec8+RDO9DflYpncWmRRvBNkMDrbL1QWglNiuTw/2yqRqQ25GVoeBBE0lrkrNHwofExw4waFIDDHQPQs/3vdFi5qGauCR7YrymAECweHKnurtm+v6q2pHBoCmFwzAZS1OXeMQtBwuKsrcvFg8wGXUK8xciH3a1837pTNx3tb61urKqshqLwzldFY19TY0JAFoqGhobQ0OPYV4KS8A0fOmVsqKkbCN85HDqnFYuAkQrt10ldAv2lqLAXRHS1sH+psSk1l0JEaD/pp/TqJnYBkDhhm90eauwwHQs3N+/pGEiTcQuasrwywpW5P/fHjvZXVlbWNqQmEh+OSwOV1Aich2OL+SKT/g0i4ORS+TgsGEXIHhi37SQJo82dOTUGJvTDamEhkLCOaW/z5w8CYk0wai+uDUF9HONTRd2TUky+RiIqFGMxcl5wA2iBlsSzumrp4NgCCUVpWG61v3Q6itb4zuueP/LiTdEZzunvJ4QMdHRWRkXNiFZskKeAkVLh0XgJoFoul6dnezaBRsroBu2Bhe3l5deFus0wmVqt3HS3RMdGAIIeAdh460BGKhCuaD+0s5scnEozivpafJQwwgcroqS8FmTAaylovRFMZZdVmqLwmGOx9z5WnVzhy3e4iTYYPlGi4IxIJh0MVoY4j+y6aBBgYSngxz/xConFnu07UNwCcrLKq6t3loG2b2pwiXvlQbdP+k0pWIMD0AR96gJPkSw4fvj7cFQ41R/r6Qv37LEqlReSBuKrZY0AbX2ylcbrrq6tbj+8AbdtYo8E12ebdVWV1r6ySwrAqPV5pq5Ct42iWjoCiHekP9fVVDKvtIE1IrvvOGLfklEagT1lleXt04CMNaNuGKi+MsW0xYjDaVHtSwZTa5OBATAEkQfjHIhWHw+cPXjzc1bUrjs/LZSW20kubgMi1gwTUW3eTLWxby0jt9PFhlKXP4bXXDICk2EyTpkjrYNGTmn0+cgzY6ZjOah6NW8nuJdHHN8aB3t7EyNoz6OcNlqUoEPYO0La17wjo1iYt2dzCzrW1J00BlMWknWQpeD/csRg72Bx+yw4RMqNEos2gUDjvufjGHb8F4BTntEeDP2aipGgPgzEwBxxF0QDCLha3Vw7U/QGLl1poNPOuV+zD4b23Kw4R6T49TlJgWqGUc1F8K43bEhxUucQ1ZTdBHnxtfSoom4uUstkcDpuTK4eqO1M0UlBqqQGM6p3DfmfB9z+5cpSQCAJxeBizqKfGt9K4l9tsAl91MEVPv7b1Ng1EC7Otfrk7FnPL/X6xub2QZ7Q5XLST4g3GE//+C4KXQbMHwXK5oR2v0o07+Qe5lEvdShNDMHZRddvqIol47AzEzVEKc61g1HN5YAQQcp/BzQWvv/iy3MgGnDh5eUpvJnDGsrl0St/FScPgwE1BgJXnzffYVTiLVGrFdE0IgxR0rNQWG4M1CpmUyZZvhu582bJ63WJ9jluWqebSDtj6NA00ie9Qd+5XwGxvDHy1iEJAnSllsXFbZo6JlgFh6X1qoE+mgmaDcUpOvHv12pm9f/Yn0iZ8OHMCDTRNargQ/AgvyKazztch9GIHPsI5OhJISVEYilKuEpEhg0k7CeWfOXPm2u1Ll347ZkjILGKjzA30Vno642g0xeVV029lFgyWuhwmJoBCERhmZogMKiAHyiJJMJSkSiGOn9l76fP7Dx583gJ5tmUbRTYpjLJfX0gvxxeGgidzeOZ0XizHxUR0Eh5vm1PIBB9HsQwguzk7gwLPwDEckVosUf31wwen758+fflOvsYkEJDAZCxbfCtNWRSttzo1FotDR6EI6aM3O5HpVLBJvGBbPHu7lsZFcB9dAc+7l0+fPvXpvVO3FDRTWkVFZstzoHEnbg7ecvBRWhugiYaXuCHY5RIroMu189IgIuZ0mHQlYz+V/+XevVOnLv/pNn/sosRU+KGdP1pAO/K4JX7boPe8Xg55jFpDjJsoibpYkaEF/Ah7LAb8JDb67Wl3Tl3+9O7dj38XgPkcvbKgBDgpUwmG0rhfLSGBF1ksFsXR5KeZnVImpfPK41A8G9iolNKQcLXcgUsV2hP3P7577erVayTHKVereYAv10nOoq29EmbqvU5nkcgNDkiktJFYJpXEnSm3kShdPlyVT99kwD0JUOGv/OTqlSu3llqkOYm806zsmRPi1uarZESCS6aSLhAQDCY5OjaYHnycT9tQZcg2asacFLi4+m/tWEtPGlEUbgV5CL4qmPquVG2jVYk1Tdtl2/QPlBlIZmReAjPIyENhBoQRtRkRgbYbYiDppkvX3TTaLnTZRfdNmhgTTdf9Az13gNrnppquelYwcM/cc853vvudO/TxwxiTqafTFyoxrYi4De3ppbobV7DAYGymsCZCVXF0UrBVJZ4hIXSaJBkMC/AAU0Jkvzj9pAA+inJuZ1lkrltQ21o4BbK5tbXlU+MRP86FfCvZZIxFYeCsjJpJjhIakrCEENwNLYvu5wcnB5msS11maZrA6n4uDWZ8c2olXS5HOD+OU5oWci0U85EUK8m1NCzmUwxyK2hISsak0slx2JVNYwhIROtg7Ry5enchyWvvhzR7ChD5PFoOFQ8DCXiXguhJuFIuSbmVOr0E1dPTl3M5KAXmaXc0FKmp94WEazhy4/7yLkQSW801sj8fesqnt5cQoS0it7vKpkYxr47eZcs4xpAPO7q+KaT+GOFGySS5tfVF10IVBDItIV0My0Mp2ChdVmp78SoSGYiub3hdb44+yyROTc3az2at5uE+nCzIirKpZqHRBAAS2hu/KmwW4yn4DHlgVzVuDEvwBSf4vLJ3dJzA/FOTPd/pY+Njv9hgZNBO8F/QMTiqeECkESVRkGgmAUgSIh4NSbiH5JxO2uyw/TiO6qhKo7dWwqDyxUIlFqVRztwaJYWqUWhqjCYppP8THKImz4HTYej6SfbrIkEozjNVLcqxBONm5ezb15/u9JnB2umpvf3Dw40q56n55YWNYjxCPmnV3f91DjFUvb7tKMdxEAmO+W+0TPSPd9ttFguMW53T4/29E6MtA2MkARYYuAK/To5Yun43F9mGfHlKwxEoffO1aau++awUxsvNJn1Pm9U+ogMbsVvb9KY/DcU9o9sUImnMQ8w4DA+Mfz2n6u9JcDqwnDjTMdh0rvH7No2VdpI3h21N57yf6DTzyfej3aZz3yw0dc7eemQ1XsSdiUl/EVcm/+0f2VfcPW+MR4vjHwAAAABJRU5ErkJggg=='
p42
sb.