ccopy_reg
_reconstructor
p0
(cemoji
Emoji
p1
c__builtin__
object
p2
Ntp3
Rp4
(dp5
S'emojipedia_url'
p6
Vhttp://emojipedia.org/flag-for-British-Virgin-Islands/
p7
sS'index'
p8
V929
p9
sS'code'
p10
VU+1F1FB U+1F1EC
p11
sS'apple'
p12
S''
p13
sS'twit'
p14
g13
sS'gmail'
p15
g13
sS'related_to'
p16
(lp17
sS'name'
p18
Vflag for British Virgin Islands
p19
sS'known_as'
p20
(lp21
sS'default'
p22
Vemoji
p23
sS'bw'
p24
S'data:image/png;base64,iVBORw0KGgoAAAANSUhEUgAAAGwAAABsCAYAAACPZlfNAAAHo0lEQVR42u2dD1AUVRzH391JOiqEgmYQJIRxIP4L00HU/kg0/olgFGdoECgZRh1LJ0tmcBhyhtSptHHCGLISDEtPI2AIRMQghWqkmknCkbRJZpzUZsTxD1iAL95bbu/e7R53t7vvOOT3m/nOHnu7z/P3ed99v327e4cwxLAKBCkAYBAADAKAATAIAAYBwAAYBACDAGAADAKAQQAwAAYBwCAAGACD8BhgDQ0NGDR8RIH96j/dPtGwXMUyB2nfVjzbV9uup4oBxgMaT2CDwRoxwLQGxwOYI1AjApgzCVCSCK2BOQvrgQfmajKcTYhWwMzROmsJlyPBsATGA5oWwHh0pAcGmJIk1TVd5AKMtEvinHHRiAflEJhWPVspMHCVAmBM8u7fV+Q2V4GBqzQApqbHuwIMXKUhsMHcdn5RomxCz7RcdgqYebtz4QuZ97vb2gGUWmBKnOAIGLhK4Ykzz3AEjMusNgADYB47l/ggCIABMAAGwACYJsCmPrPb7th448YNqkuXLuGWlhZcV1eHTSYTPnLkCC4qKsK7du3C2dnZOCsrCycnJ1PFxcXh2XNmqx5bAZgdhS35EKNXIzQXAOMEzBi/15JkhOjyfK2XLIRPkxCV9bpDCAEwdwKbvvQjBtjtJh3WL3xUHkLztxJoZJ+/To7iBwzOw1jNWrFPTLK/QYf9A71wdzPC00L1eH2KXgIsc/mzrMsWB2D0YjBOS9RjP+M47D9JD8B4AotOLGSgEFhEwSGjZB02LzJcclg07+MTOhYcxhvY/JVFrhUT/dAk6/sdRsXjkOjsDtYz8NbRviyVhdHXpwrYnR9/Zra9XvSFOLPvjvOdBav3S4oO01fedgsJsZOY18cF8S06XJmld+Qe6x7u7PUwJW3z1OKUzxhgxQd9ZAHMni5AyM3NZYDt1euGDtiStAMuuWrG8gJFFzBnrihwyW3kc/EC9vyaA2KSk+MQLsgWxqOv3++vGE8jWXeRSIiLFcr6fER1eIew3/48nXuAqe35Su7p8AS3xWeUyBYQaHWY3cNhcFAAM5aJ+6QZ+TvMWVd1VhyXuEqLm3CG2m1L1x50qtior69nP6Bc8cH7kKhlD1d7X+JQue2lrFIxyekPGejy5hmdpDKsra2l/25FRQXu7e1lgMnNjGgKLC6tWDY5txqaZV1FXOCOG0ntue3iykxZt5H/h1pgSRu+lFSJcqW8JGwcNvOtEPfOdKjtyVreW+9OtyW/flhMcsl2JI5HRJMDR4lgzEFm5kncPVXGjF9EtEhZE84XmBpX8XwYwlm39d27pyoxKZtNjDO2pCIq8toQ/7h8lWjjLjMw36d8+TpMyx7L6/kwZ9ymJjGpW445NauRl5fndMGhOTBbV7XNW0bXm6pbPfKBPvK5BnObmsRkbC2TJDtwvDCPGBNlKdNjYmIsvD7Zbdk+NRx7Z4XjVfmB7rm8olXVxfuR2cHcpqbNzJxyqTsGig96bjWwrqOjQxgqIox4wdNzxfVhYwxDPzU1krQut1KS7L9rERUBRpYBTwRIO8nAtnOMbKECwDhr4/YqWYfExwgAcjJ1uLq6moEVHR0tPzsCDuOvzfnVThUQJK5evSqdrXfnTAcoF2/ZeVxI8irL3GHnaZ0ssOLiYimwpFB8twkc5jZlv3dCTPLkDdOwMVwoIva8rZMAKy8vF1+nZ70m66wfDiAAxlPb9pwUk+3jrRPHo1vfWxwTGxuLc3JymHGss7OTvjc/ylJwLJpvAIfxVt7eU4xDyE04RNbrqqqqcGNjowirpqaGOSxC0eFGvbmjxmEBcfToUfnzP/J+BhQd7pc50QkhkhNmOilcUoJbW1tlgU0Z54VLS31wwee+zD7VDe0AjJeYqi8xlC4nRo7D3vP8ZG8PINHU1CR1VoYAO/jx4KF5ZHbEwCKvZ/jh0aMtRcfUULaA6O7uFmGRIuTs2bPYf85UHBlhEPeZECCMffn7GuCQyEO//3GdJvqxR/T45XWHMHrlSbwtS09lOx7drj+GN23aRF/nZG9k3m87hqjM21ZWVtJ21UADYDLS6y2OIlFW24ZRuK909j6IneDtPGEadEbEem6x+ZcOAKaFEhISmMSaodGHI+zcKuBoKurylZu47AO2zaApBgCmxbhlC+vh8Yg5jPX19TkHCwn79PT24fWrEP3btu2oqEgApgWw9m+sLosg1mmS6lFGXV1d4nb0fo7+NiZNsLRz54xylwEwK/nN3Skm1W/iBAkwosLCQrptb79zkM7mEJluZKBa73f9pNDW1vT+qtEHKS4+AJidq9f0bxtYLaXC8p96y+HO7DbyjHPLuSvCM9DfIfzbYRY2ef1TCaKdQs0VcQDmSANJz80UlqtfEJZvpEjHpMH0ZyXC737cCCfOvOVlfAdfuHBBdkyzJ+ttkp5D9DShtf3a0H052EguSK7VueYsrR/WAGAu6Pbdf3FPT48IY+wYKaCIEIvLeDxZA8AUXisjMcl/It62VriDikxBjR+rp+u7uv/zrO9LBA2zL7gEATAQAANgIAAGAmAADATAQAAMgIEAGEhDYKBh9DvO8Nvj8NP2EAAMAoABMAgABgHAABgEAIMAYAAMAoBBADAABgHAIAAYAIPwlPgffnjg3ldvDvIAAAAASUVORK5CYII='
p25
sS'version'
p26
VV6.0\u02e3
p27
sS'uni'
p28
g13
sS'desc'
p29
g13
sS'browser'
p30
V\U0001f1fb\U0001f1ec
p31
sS'annotations'
p32
(lp33
Vbritish
p34
aVflag
p35
aVisland
p36
aVother
p37
aVvirgin
p38
asS'wind'
p39
g13
sS'andr'
p40
S'data:image/png;base64,iVBORw0KGgoAAAANSUhEUgAAAEgAAABICAMAAABiM0N1AAAABGdBTUEAALGPC/xhBQAAAAFzUkdCAK7OHOkAAAMAUExURUxpcYCY1XGLy8PD6rbE8bjH8WmDxb/I7V97v7PF867B8niRz1h0uVBttLLE8rHD86C265iv5a3A8qK360ZjrKvA8oSc2Kq+8OuVoKa77pGo4Ku/8qa77oig2ktosYuj3ZSr4pyy6Km+8Jyy6ONpeKi98KO47OzV3Jyqz7i71crK3eNxf9ra4+uEkfSuttCJm+WeqtbL09TY3eDFyq+32muEwOHCyqm65fC0weuzvN64v5Z9oN2fprvG5PGeqKm541x2tAAkfQAifAAjfc8UKwEkfgQnfxAyhgYqgc8SKs8RKf///wothBo8jgFgJxM1itIgNu/u8tEZMPrj5tQnPNtJW95aaitLmkBbnktko/f4+hc4h+V9iSFBjzlYpf/5+glhJrKQBDFRn+6kreucptpCVBZoONc2Se+wuQljLilpHhZkKUBfqR1mISdGkPTFyj9xGyFChjdUmCNElTFoZOiNmPbS1+fp8idqSsqkBzFUHdAWLb/G3U10Ftzd3ERej9UuQy5TgWN6sOFkczZqHDx4UxRZJCJqP2V9ElVuqfK5wIaVfrTDuMrR4+N2g+Dl79DD1eeDj66aOb6cBT5cp1l1FKuYB+fm5vzu8OLAzP309t1RYXuOveCgrStsUzNhclB4fyJXHztwPp21p5yJq9Pa6XdyoitKkzdPhyhJhtZmd/ba3lRlhY6fx6ez0pCLazdjdxxoNKWYWd2yAIaVwKaLGoaIDJOTei9sMc/NyFuBYaWbbWdgEV1zrEhbG22Wfd7Y5EROF3clV7K92DRYeeeIk257rqeHpsqfs6eWR5iTWue0vb+ptj91YlpYFM6tI256ZXh5Dty2GcOqQGiBQW+BEfPDAJmciXWNkxMjdiwibaAeQ7gZN0VFh19De2BplZmjx8x5jsBpgkxljGZxfZuHNrueJHqHal2EhXiED5qRCzFcNYSTUausnEofYccVLpZPd71MZ7uNpiRYK6Oeva2lgTxgLERgUll1MCRWKpltNbyua1B2Lr6yyG5xkFRRfyfiQjcAAAB9dFJOUwDW5wYNFPAD9Rwy4Pj7IyuFoT57/kzOWf5luEZsyP3ArZVQj/xfdv3+/Vf929ZU/a079qGn/EfjJnvK/ud2wrb6///////////////////////////////////////////////////////////////////////////////+l/AXNQAACAVJREFUWMPtmGVUG9sWxxskRAjBXYoUqNv1J3fNJDMTJyEJJCGQBE8oUlqgUKy4U5wiLdLeurvbrbv3urs89/fWemeSTJDSvrTcD++udfenZMj82HvP/7/POTNjxi/x/x62tBBXu5+AY+dGoti4OE2bY+9MESICRqjtNDlOLhQMhuAoEnN67fHzDRTAEAShjl7TwDgwnemJKM6B4IRghxel2Ls6kwKjjBgAEnpSn/VAqEzXEC8fH585Cxa8stiVxmQ6OVGpVCcmzc8nNMjGXYiYORDEIXs8rfzXFrz+UgCdTHFkvFy8MMw7Ygndhk4nkTw9PUl0GwojYYUAsmBASsucp6yNOmfR/DDvXfEYB0U2/7lFFpPPb1UIMCzKGJiAg8DjKDhoRZD9FBj/oNl5MnblbAyGWbnXK2VzpXzJAfDFEtDkYAlsXJ/ozKwAxxUDydE8+dosGFFcj5Fd6OW3XhQ8efeECAyfVBvThbwCheuviXlp6xSI8rI8LamP36xEWc/mwLEzJxjOwS/AXQCzYMW6cp74WoXyckpaukZ1fjMo59kkGKPTxnPmvPpyLmgxnLU2hRedXHxZLs/m84sV8cI4DEOnBKAc0wfU0Wc8Z56koHVTcWSFcm0Mj63W5GdL+Xx+waZNm5qLz9dPgUGiyspM/wBOdBkz7uJ5Kr4xVAWSFi4vZnt+dkNScnJyUlJSekP2xkkpsVhoXO7Q+pWYsWhgXMssoS69luSdl5fcANLQtLG54pRymTjaFGKx7L13xjKBYYSDZZUNVWeIVi03dQ+lWIz7+lyZGES5WtqXrU5js7k8LpfLNgeX+/67CGGI+M25ZZ8N3ajVDxsy964xXQbGJWr7bWVY3uBgera0oVLGthAs8bsfEcKiQzeqV6Xqh8/WnL3zTeYGgak2YQBh3Df+c+Ckcqdke4vMnAiXx+Nx2atBGD+fI5qDrawZzhSJRv5ZNHyoTrs+jmU2rp8Z9GYnip48k55izAZnieWVLW153iDyLqjnhv2e6DZnz59u1uVoVx0/Jco0aGu3mmtzJ4zrkoBWnPGW8QCGt7pcxubFSPs0ml5pr6q1tUAikRQLzTZB1tSWdJeI9I2NtWe7ujLeRicZ1znw5Jk2MciEFy33zm9h8+RSFV+THhMz+LEyV6Gsr8fMINby9TVVGSL9aM/pU90PtGYBjBk3PNLI4UbLk6S9GmDbtHU7z6s02ZVp2zYq0HGmB00qOpWTmdokuT5SZbAIAGKEm0BeS/JwTvkFqTR5sDldzJNdq4iqaFb1JqXIF14UjjMbZ0/Gne6c1NHSo7eLcqosAiCM+8qvZaAueYOmT92/sQLYNjr5AATFD7Tyt6vTtl1ScCwpIWtSDV0Z+kelR3ef6K7Tb+AQxjWtSovni7mrwTDkJ6X8MSsX2JbdFilgwahil0qTLk9ZeDGOSIq1fFVRVeaRR0dLG6u+qRIRAiCM+9p88eqw7c2SfPknSlY8sC23cnYcDLFgrKKZLwVJbcxijTXpzqG/H2uSNNYUGTJrt7ImGNd+fnlYxM7IvpaYtzgwNnsuj9e/djNeDgxl7SzQNPSnfGhp0oaMrgcj1aM9jTU3D9VZBGA2rt0idcSAsjVdfgkIhvNxHhsfkqa+wIL6YkmE+hw81iRRzV+PnO75obbq2xyRWQCEcW2XRgzERUpjPlGAy+jA4PvvnXsrnpAOJFTWn/wAGmuSaPhm3felpae1BoOWEADcGYqL22HpAUxR4A0Kwy/mfvTuO+PnKz5tkXFKEmm7ur8vlTR9d7auJJUQgNm4v3EX7Mrvv2RxAvL0GS3YkFGTaRhZIik9dqKjBAhggnF9GMqCtm3K/7FgmJv03akSw96mnp7RIyWZ+j3xiOkud2ccFELeld3/K8waEGhSV3ed9rRE1XO7qCqn8XAZZjKuL25c11cL1J/mwpA1oLiVGSUGUXUpX/XDie77x+/e+9xYncAGX5Vo87JBp61JCLfbP4rALGpSqZr+/eDYvx7ubzc9OYY/vpGbp/40y6qEQGz924lDXXtHjzZ9pU99fO9h4T6jT0zGtX/jDx+gVnLQHY33v83RV98fOSK68ehgx+7P0LEV127Rh1ZiQI/23T18LFWk1YpEqY/36b7YghIrLqjN9qVY2OqEbj28dfjr9XqRSD90+OD+q8T0hJcFgyaFJlgL4twu3F948Pjjr6tTq4/fKjy4wyJehhsAublbC0Lebm//sqOwfd9frrbf1RVetYyqWE+aUdqItU3ibNny+T2dTleo0+3v+KKMuC+W5IHbNoRi7UPD9xCcst1f6jp0uo72HaZZy0ISTZwZrmQOZH2wEOFHu69cufLVFtN+DkY7A8wLEo0ugJ4nYASL35qFmWcIxvAldm1OpCgYej4UsSlkIfHkYMv2nxogfE6QBSjoJPmPbUftfFe8CAiGObFkF9q4/bGtS+Jzg1gwLIil+HpN3B0/IW0WvuQjKAhjOyZtksFfIY6wk+w7a/IBYqK0YRjFhInLGI4UCjjcuCfECqME4HQCmc8RKEcgjA0ke4b6PXkO8WGMpwgTHOlBLs7+XiEeHl4+bsEzg0j4eSnQfRkI90BHMj1gppsHdarzrEXaoPBEimfwLJr92M8c7OydmK4es/zD3Zyd3dz8vfxo1Kcd1IG0TSLFEmxmejm9+NmZScdPQTCaaOPiN623ArgiYTjK0ddjmi8XbMMpQizWxpk6/TcLbp503xDbn+BdhwOVaf/Lm6OfT/wXQAYHJ5lLz44AAAAASUVORK5CYII='
p41
sb.