ccopy_reg
_reconstructor
p0
(cemoji
Emoji
p1
c__builtin__
object
p2
Ntp3
Rp4
(dp5
S'emojipedia_url'
p6
Vhttp://emojipedia.org/flag-for-Cocos--Islands/
p7
sS'index'
p8
V948
p9
sS'code'
p10
VU+1F1E8 U+1F1E8
p11
sS'apple'
p12
S''
p13
sS'twit'
p14
g13
sS'gmail'
p15
g13
sS'related_to'
p16
(lp17
sS'name'
p18
Vflag for Cocos  Islands
p19
sS'known_as'
p20
(lp21
sS'default'
p22
Vemoji
p23
sS'bw'
p24
S'data:image/png;base64,iVBORw0KGgoAAAANSUhEUgAAAGwAAABsCAYAAACPZlfNAAAEI0lEQVR42u2dT0gUURzHpyyK6lhJfw7hRbrZoVPQsYIOURB06VBBh6A6dSgid/1Dm4KVlyj7g5WlouW/DMN0RSERaXOhFEWriwVBBUF/iJp8Lcs6uzPOrLMz82b284Mvb3d23tv33mfemze/+c2uomK+MoUuABgGMAxgAMMAhgEMYBjAMIABDAMYBjCAYQDDAAYwTBpg0WhURf7Rf2BKSEE+EMAAhgCGAJbXwDZVzV0ZvNOqppvOlQ7Y0YZMUHqioyUAZgVUvkD7Mik5sGxhBR2am23LGpgVMOKIE+mGS5mfLQ0HC9TGKm0qFbCTTdaAdQ0tDDgowCo6tO0qb5cMWLZT38py/XxXA7KCLAhr21UQlgiYGZxttcYjKIijbDKu3y6xXWpgC3X+8KhxnpLa4JzH3DwILQErrjEHtarCfMUUxHNZsh1SATOCZVbJ+Z8HdfGx64Y2lRbY6ebU67GYdv9D9dbKKAjjuXB1hNmd8930EOQ1MDtfeO4RfkZXgR2+l9gmpkSR9g1n3/kAc3mEfRg3X4iU7UjlbxtM7VMYAZgn5zAjYK0DifTaQUWt7EiVsf+28yvFYwvc7jlyX55OXyIDsPQ8T0OZbiqngK2ptH5Qra7wt3c/58B6XyTSeEPmVOkEsM7Bhes1Mqrd/89bRe0YdB/S2kgmsOaox8CSr39NKOrnkdT78TFFfdCfmedMi71OMBq1QqVt5nm9dGMJNfV7fA5L6sJ2d25oGpXrBQwrauq3335LwGbHswRW7Dyw3zP6ZZ5o9IejWCj20iNvfbpCW8z3aYzaW2XplXn+sZy3+5eVKeqpuevWr1Pa+j4ZUtS9N30CzImp0M6C4PhDd7zvrkyJQpurrcGa7fMG2KtYbsvcd8sZYB8n7B0QOQ8RKC0yB+bEYsNumWKJ7aYHpjAiQdRU5c4ErFCR8T5l7XJNh0J/fRSWl9O4xJ7ylPQ+/zTh3FI+l+eXK90+9yWmq6TWu0BSvXIXszw2KvvnjNxOaVux9VZBiRh8p65lhHbn6Pb82Vb3I3ldf3rl7nN3w7P1vmPdRfvlikCj5Ovl4QAD89pbILSnTr56vhkDmCGweEyuOrYMJOr1bUpRI50Ak34JfuCOc/UCmMP15BlnHwSlro+w6DAFNhVXfNWGvAeWLxFYvv3ZBz1g1V0Ak1bfp/Wh5XoZDTAXpkZZYzryHlj6I6vzVd9rnhdgHqjuWfZxidd7GGGeym+Rv/w4mM9i6wHG0ysIYAhgAEOLktk1H8Ak9LgAzAdKPpifBJZ8DzBupAJMlqdRAOaSVpTpjzCxHWASauvlTMezeC+2A0zyKfH9a6ZE3+jHtDYFGAIYwBDAEMAAhgCGABZQYMhH/+PMf4/z1/YYwDCAAQwDGAYwgGEAwwAGMAxgGMAAhgEMAxjAMFnsH7wFT0HtjjcGAAAAAElFTkSuQmCC'
p25
sS'version'
p26
VV6.0\u02e3
p27
sS'uni'
p28
g13
sS'desc'
p29
g13
sS'browser'
p30
V\U0001f1e8\U0001f1e8
p31
sS'annotations'
p32
(lp33
Vcocos
p34
aVflag
p35
aVisland
p36
aVkeeling
p37
aVother
p38
asS'wind'
p39
g13
sS'andr'
p40
S'data:image/png;base64,iVBORw0KGgoAAAANSUhEUgAAAEgAAABICAMAAABiM0N1AAAABGdBTUEAALGPC/xhBQAAAAFzUkdCAK7OHOkAAAMAUExURUxpcTGyMVXQVSioKFPQU1TQVDCwMGbTZja3NlLPUl/VX1DOUFvPWyChIFnQWU7NTknISUzLTFbQVk7NTjq6OlDOUCmqKVDOUFTRVC2uLVHPUVTSVC2uLT6+Pjy8PCysLCqrKlLQUlHPUU/NT0vKS1HPUUHBQSamJjy8PCOjI0nISVbQVlHPUUzLTFTQVFTQVEXFRVPQU0zLTCanJju8OyWmJVbRVkvKS1PQU1jPWEXFRUfHR0LCQk7NTljRWDS1NDi4OCOkI1TQVEbFRjS0NDS1NEfHR1fSV0vKSz+/P0LDQlXQVVLQUiqrKk/OTz6+PkjISFDPUETERDy8PEjHSEvLSyysLD+/P0PDQza2NiSlJFLQUjm5OVDPUDq6Ok7NTkLCQk7MTlPQU0LBQkbFRkLBQkXFRUrJSgCAAAB/AP/hAP/gAA2FAAGAAAGBAAGCAQODAwSFBAOBABOUEwiDAASCABCGABSIAAqEAAWGBf/iAAKBABCREB+MAByLANnSAP7hAC6SAPPbAAiJCB+gHwuMCxqKABKHAJ68AAaCABeJAOvZAP3gAD6YAAeHBheXFh2eHRmaGSaPABqbGhWWFTuXAPbcAPzfAL7IAKO+APneALvHAA2NDQmKCZq6ADCSAJa5ACSOAAeIB+jYAG+qAIu1AGCkAI62AMHJAO3ZABydHAuLC1miAGinACKNADWUAE2eACqQAEibAF6jAKnAALbFADeVAHatAN3TANHPAPjeAGuoAObXAM7OAMzNAGSmAA6PD3SsAMbLAFehAO/aAPTcAJK4AFuiAHmuAPXRANbRANPOAKa/APLbAISyAEqcAKzBAIazAOHVADGTACiPAODUAH6xAH2vAKC8ALDDAICwAIezAMuVAIGxAP3dAECZAOnDAMnMALTEAFGfAEOZAFSgAPfeAHKrAESaAPvaANCcAJtNANzTAKliAN+yAPfVALFuAOi+ALyAAPnYAAqFAsSOANO+ALOTALSeAGSWACiBAI2TADmGAAB+AEGGABR+AFyrxo0AAABodFJOUwDsDvgvHfAB4T4EUQL+BmeQeQxr1lv3WCf1RCLzzNbz9TFIXoROwfnP/JQVS30bGqordvnZ/BeJIwi1oMdkCubc/R+i6uijE4HLvBI591XGnVCx1JeA9ci55fs22kbfY7RyNL2rtsGMrkwF2gAABpdJREFUWMPtmGdcU1cUwEWGrLBXGQVBAVEoqBUUJ46KW1GqqLVa2757swchCRnMsDc07CVL9lJEEHHgqnFb917de+/3EhISAkHED+3v5/l0X3Le/5177jn33HPHjXsl/3Ux0jLQG/8SOONNt9kvWeY3Zs5UX/s6EnWRx/wxcvzWrU4FCIieaTM299iuWERFUCE7WY8BY+jjq5tGxjgIyNio/6KUqXq+QVOKEKmAWAft4XUnmHn56E223GE8z8XawFlv1UQfG7+AAG1tO5td241NXJfE1JFAPwih6EwbhjLbz2C5d6CuhqPmDDc3Tatgex2NBboLLYLc3d2DFi7QccvqpSJyDCrpkwyHwryxZl2QPY5ex6aQSagWiUQmU6hUdmp5NCrlqVQKAhQp6Nx6Xd9SxQSYu9pnFJHBIGVMXyLScbjSP9Sleiqh6jJXs5esChkk4ZlMhuLzlOkTlDk+/jrcH3lXwsLVc2iNFXdyFG2lb1BKOMPtc3HUlupDgodtBPWg5s6ktgSFH1J1Jypw9NfMzEaaapIhPiLpHFMtKbMzYl+kwjNJ01jBHoN3uIC/D+LF7T1Q/CxBHWj/hePVikaDtGUDibsqiAtoHfl4WHP5Zh88kKPO4bSSyiql2UdbyBNXe0MWAjI7IeS0Mzv2HIyIV+smAo8QKhkwQhOIWOIGyxPXdDUFIXYdzH9Qc4dQ1SXgXN0/UgxIJPLTJgwEsjxkifsBHSDMGxxBc0tKWElZpUD0jPgcHMLho4cZksR926sfNJcLwOWrEQWtQl4iLZRRITqr5E1aQvhQFjbViGpSpInr3A+akw1A20dJ13LQDxAS91f29fAG3iScv1h683zcEBblcR4mSkYxssRdlwVoF/GXLlQRCP/8nngtKeLLSDmIeW5PBBRdik8JHQxKLL16VgIC3Pf6E9cXB1h5nO4njRXn//4j5V437G6SgWgNYohPKq6qb8sc7DdCZkVKmDRxF6ySgna6gbBcTsHjvDOP/vz142oUJF+2xqMop4sFQChBJQnDebT+UchOaeK6OCL8nvzqgoie1t9+uSvOhwfkUzsmhsnxBNkTM07J60R54u6WJq6zBpl3SJwbBQWf/PzTDxAPjwr7X6DdTIbHH/U/EBMfn2wZKlZB+UItCWiXLpXfk5yMx0cJ7n//DcTji2U7DqMYQkGLzIzMPMH1sKFCimQ1T1rtLMrDctH38XjOd9+eRlO3XmY0Kw/CHr5MP+4sp1N19SSJ6z8bA81aG4u+IQF9/dVpCHOFMg1GKYSH+DKLeBf3dDfI50ZgyNcRFAVJDgHj3+UST4kwELz9xX3O3pNyjXDURwNBRYw7ER8p+4/YekpuKkK2XyMpQf70v1IuYSbd/fz26aeVCg492Qf3NsuXKjSyjCcbs6rPDIQtUmuCJa7hhxmAcEKEkT7D951IHPgflByAoms0hQUnyYet8SUDeoXSxJ0egyBl7X0QQtGZI0qxQrgAYYFwyF2FKVTwO0XHFgPteBMdCw/H37h+pER5VYhVffD4sefYVXDLseA2cMIsJrIILNKgjwNhAcQX8Efc6AB3xUoUpKdBHk6D+CQJHjzHGtEi6patKEhLlzqsBuvWU5jUwBjRphBzdG52FuXDGy2Mz4fdR8Kw2q/GV4DubYaeLNfGqvkiv1QMo27UZzZeTlRjUfk2tOKavc9VZ3pcV2c+jBLkVqirwSQntOIaLc5W64PwlobS9uJjams5SDdBQ9skQ70z0R2SFTqStz2xEolDRi0MptKZi+6AnUrmhYyaQ+PX5wgVODOnYTVp/WrSaEG8jgcPy2QOIaW9LuGgoU0ZLYh1KzmpQ7rxAnJtoK20jqgL7eFKf2WU+JRkHQE7ZI7s1OYXVD5qUE5xbrNk1KvjESA72KC79uiX7V7OFRoCqOmvmw8cR9FdG4x+/VEMha6zbKtCXzNSaA8dpQiVbr/CWvl0bJIFVA/7WAtBIkmHqhRKbLrGHJdZg479pjglXUBiF2anh1g5Ojo6ueEy6IXR0u5E2kiQyNQ6Ok4n0MRZtQ8xdlOgkOsyrHRdF08yt1w/bbK1saeHt2sQ2i/NCMHF1Nam46Zo2m9x8PZ01jYaoi0yCJZvtuy0YPeNLlqzBtQM50+100I7OPPpnssnbTI1t7TV8hquKZaHNjtr6W5LO/0X7lO1dNmS8pS2xN92TLcCXoGFaPddpLl5stkY7ydMX4tlZy/d5DXmm4WVpg7bNhsYvYS7Dn1tm5Wvbo7+P/IvCftfgzYtkXsAAAAASUVORK5CYII='
p41
sb.