ccopy_reg
_reconstructor
p0
(cemoji
Emoji
p1
c__builtin__
object
p2
Ntp3
Rp4
(dp5
S'emojipedia_url'
p6
Vhttp://emojipedia.org/flag-for-Congo---Brazzaville/
p7
sS'index'
p8
V951
p9
sS'code'
p10
VU+1F1E8 U+1F1EC
p11
sS'apple'
p12
S''
p13
sS'twit'
p14
g13
sS'gmail'
p15
g13
sS'related_to'
p16
(lp17
sS'name'
p18
Vflag for Congo - Brazzaville
p19
sS'known_as'
p20
(lp21
sS'default'
p22
Vemoji
p23
sS'bw'
p24
S'data:image/png;base64,iVBORw0KGgoAAAANSUhEUgAAAGwAAABsCAYAAACPZlfNAAABkElEQVR42u3dwUkEYRCE0c3EiykYgeDBoASDMBhvE4iYgCHsYUWPYgDzdb+CTmAeVcztv9wklYtPAEyACTBgAkyAARNgAgyYABNgwASYAAMmpwE7juPmOvcLdnl7dP/c9fP5NPf1+gCshPVxfweshAUshgUshgXsxFg/9xcLWKhZwIJYwCIzCCzYrPVgRay1YLUZXA1WbdZKsDrWKrDyDK4Dm9CsNWBTmrUCbBrWaLBJMzgebGKzxoJNxhoHNnUGR4JNb9YosC1YI8A2zOAYsE3NyoNtxMqCbcVKgm3GyoFt+8FIg21vVgoMVgjMDIbANCsEBisE9vL+BKsCplkhMFghMDMYAtOsEBisEJgZDIFpVggMVgjMDIbANCsEplkhMM0KgcEKgZnBEJhmhcBghcDMYAhMs0JgsEJgZjAEplkhMM0KgcEKgZnBEJhmhcBghcDMYAhMs0JgsEJgZjAEplkhMFghMFghMFghMFgxMBd6x9nb4562F2ACDJgAE2DABJgAAybABBgwASbAgMlZ8g37tAKTMlg4xAAAAABJRU5ErkJggg=='
p25
sS'version'
p26
VV6.0\u02e3
p27
sS'uni'
p28
g13
sS'desc'
p29
g13
sS'browser'
p30
V\U0001f1e8\U0001f1ec
p31
sS'annotations'
p32
(lp33
Vbrazzaville
p34
aVcongo
p35
aVcongo republic
p36
aVcongo-brazzaville
p37
aVflag
p38
aVother
p39
aVrepublic
p40
aVrepublic of the congo
p41
asS'wind'
p42
g13
sS'andr'
p43
S'data:image/png;base64,iVBORw0KGgoAAAANSUhEUgAAAEgAAABICAMAAABiM0N1AAAABGdBTUEAALGPC/xhBQAAAAFzUkdCAK7OHOkAAAMAUExURUxpce88N/E6NuYtKOoxLOYsKBSnVtZdMwugTQmeTA6jUQqfTRanVg2iT+JONvA7NvA7NuszLugwKxWnVu88N/A4MxWnVxinV8+0KPA6NbGYHBmnWBOmVLWaGe4+OecvKredGRanVvA5NL2iGwieSxujWLabGA+kUe87OPA7NgyhThanV/A5NPA5NPE8Nuw1MLieGRSnVfA5NPA6Ne42MRKmVO01MBWnVhSnVRSnVfA5M+YtKe83MhCkUdi9L7WbGhKmVNW5LLWcGew0L8OoHxWnVsuxJfA7NvA7NvA8N+wzLu43Mg+kUeoxLBSnVe49OO84M+02MRSnVe01MBWoVsWqIe42Me43MsitI9zBMbqgGta7Ls2xJ+01MA6jUA+jURGlU7icGPA8NxWnVryiGhKmVN7CM7+lHfA8NhGmUxClUrOcGLedGBWnVu89OBGlU/A7NvA6NROnVe84M76kHcCmHhWnVcCmHhGlUxKlU9ViJupHL+KaMhCkUg+jUQ6jUX+tOVufOBWkULieGe09Odm+MCSlTpiqLu47Nu82M9azLeNeLNNtKLuhGxSnVRSnVgCVQ9wkH/veStwiH/vgSvzeSgCWRASaR90lIAKXRf7fSuQrJgacSQCUQ98mIeAnIt0nIPreSfvcSd80IuIqJQqYQ/jdSuIpJPrZSfnUR90qIDqnRQ2ZQ/CYOenNOxydRMHOSOFAJfW6QiihROrZSluwRZPAR+RSKdvVSQKWQySgROp0MeNIJ/PXRPKpPe6MN+ZhLVKuRQaXQ/TcSuPYSeA7JOt7M+XJOPbZRsfPSdPSSJ/ERz+oRffFRIu+R/ncSPfaR/SxQO2KNu6ROIK7R+bYSa/ISGSzRva/QhCaQ+3aSuNOKPfEROHFNffGRPDTQfLVQ+luL5nCR+2FNfrXSPjNRs7RSTelRPzgS/bZRfnPRuVXKulxMW+2RuVbK/S2QN4uIZC/R97WSXy5RkmrRZfBR7fLSPS0QOA5JHq5RvGhPN4vIeDXSfnQR26zRPOwP54etcMAAACQdFJOUwAcV/3w/lAC8fnU9SPhA0VL5fUsDZQeDelqBgZ4FQn4Qxt8i/0CL8YQMeoVd4Mu1FxmgGa7ncw/Y1uR+6rJ9w2N8iDZuTPcPF0i3rDD7V8UoslVyjnAwLXS+mj049jd2bRMJz6ChPyfNqK0KFBIF6o6cW2el6JHqaPATvXzts/P1CHPUwj5eMsko/PoPnlxSC1O3vwAAAT1SURBVFjD7Zh3VFNnGMaBpCEk7KFhL4HKHgJCGIUiahW17oXVOlvt3nvvle9LSIIhISGJbBQVEAVUbIUKKKJtpe46qt17rzsy7/3u7dH4R3uOz7/J+Z33fb/n+cZ1crqu/7qCYje8eeM14BS+Vfr6G6+96jAnNLqoe6iLk/uig5zitQWXL/2t15Tf7th4IkrWDENZsxb4ujiA8YyNXtqig7BmlxSoAjyvlhIaEb1wTTfE9GeHFGiynFn+PDbSbyUvZ2Ja2owc3l3Zcyf5ubuPwfTc+tiIxdHzRCfP4Bgo2/qeFCi53gyQYHfe6nvyPfhCoZubm1Ao5PPj4z2WCQRPP/P8s6WiokV9p4ehSc0NAABVErK3yNmZAn6VolIul5jUKcdUiavxwOXhQ/BShZmDjwiA6vkz6Zgx90/nV1V2SpBqGoAWBqELx3GQ0mcybTIz4twUDBRMbdvtObLDehwEOImudpgYv0y+QsKsbVs2Qnvt1uIcUDvNLnAxD8eNk7NwjAc3UTj1e4iCgOaW8bac2bexlSOR7P3AvjFy8QmFB9pweMtYOeptWygcCI80kBxgmBVmAc0VsNcz+iO1MUtnWG/W4EYur2LldH70MbUga2dAaQ1uiFDOCho8QF0xCEe0wCxrcB9jb2znTzQM/OxzqQVUfas5uPmsoNH2TbRJy3r0VpCS62UCLWcD9X5JGxCEdV9YOQDckGQydybbrH/YQefAra22oNoJJnOvHndFDsKCf05rw8GCey8JetuNEbR5QEfnwBNdtgUBIL6P7C2Hzxix7/ehCtrdYA+qneZPgN6JZ/BRZ9u7CA4cOm7PwYKbTIAmeaBB6saLKE7NSAOgKDyDALkLKpGczR8iMFB2jDIhPLgPEMFNiEOCmmh7EOmh/VoqB2hSphKb7J0KZFS3oxqDX7fSCjIHN/gOFKgREVV8/zgLEFLl4sGNuQlhbfSAIPxNL0WATMENoYOMR/chGzvRgeIAZRkR3In0jOxFOgieR0yaECcdNzdPSD99kBzY84sUDSKDmx1PXflvkSsPhzoYOFhw16Gs3YZe+fO7GBrDgxvoSrc2/Vgls9GslzKCDHn+NGsbGRo73MrMAZqbsRN37FMK1mOV1KmvAJt8sRM3+FGFbVbRjdWzDIg0NzZtW2v3/oq0Yt3IN1JWkDgKt7aNIxt3oAqqO6Jn5xiyxttbe3TgiheMMGS5N8XaaAv1tP5LPSkExymbLzcfP++jGvu5i5WjVM3xIs8RP7O1e4+iLHSsg7UcjXiB+dZmtrb6U9S5emoPK6eaG2C5/idMJ0HGdsR5eOGslrWt8gx/69WY3LXVjd/RJ1S/v4F5QEoDd9Y6m7u/adc2foJI/LnfpcwY3wku/na3Y9Lag7bbYkUF1Ol0dYwGUmpUZQum3E259hPWbrIUVKHrP91yclHBkqInnxBzVLXVGo3SjqExcLhZuV70d0gadiFRD/5BFFRRc6avYOm8h1YtTt2w4nGXjKiAvPkpPmW+4WIOR6VSccThXJ85eVHezqh3EW5tYztRTX/LkoUPpsaGBll+dA2bOTV5sveUwMSo9KT0xEAXr2TnMIZn2kq+nPRQf5/okdTioKt+p2LW7jyog4daRGsjCh15N0fmV+68uLH7pZIVhY6944NDhH91t4hWhTr8ZSHh5VdKS14IugbfOjyL14c6Xdf/Rv8Au8Xn1+vg9NcAAAAASUVORK5CYII='
p44
sb.